(ischedule
Schedule
p0
(dp1
S'timetable'
p2
(lp3
(lp4
(lp5
(ischedule
Activity
p6
(dp7
S'participants'
p8
(lp9
S'5976174'
p10
aS'67817269'
p11
aS'81385263'
p12
aS'53585410'
p13
aS'41585485'
p14
aS'23652927'
p15
aS'50143947'
p16
aS'19540225'
p17
aS'8522855'
p18
aS'96453361'
p19
aS'43902015'
p20
aS'34765676'
p21
aS'15902055'
p22
aS'41527759'
p23
aS'46701583'
p24
aS'86988337'
p25
aS'57467488'
p26
aS'12077419'
p27
asS'capacity'
p28
S'25'
p29
sS'name'
p30
S'Algoritmen en complexiteit'
p31
sS'ttype'
p32
S'labs'
p33
sS'group_id'
p34
S'1'
p35
sS'room'
p36
(iread_data
Room
p37
(dp38
g28
S'117'
p39
sg30
S'C0.110'
p40
sbsba(ischedule
Activity
p41
(dp42
g8
(lp43
S'72577292'
p44
aS'76123484'
p45
aS'28357474'
p46
aS'34773179'
p47
aS'73980360'
p48
aS'64228258'
p49
aS'37770881'
p50
aS'77240949'
p51
aS'77896638'
p52
aS'46052388'
p53
asg28
S'20'
p54
sg30
S'Collectieve Intelligentie'
p55
sg32
S'tutorials'
p56
sg34
S'2'
p57
sg36
(iread_data
Room
p58
(dp59
g28
S'60'
p60
sg30
S'C1.112'
p61
sbsba(ischedule
Activity
p62
(dp63
g8
(lp64
S'5517869'
p65
aS'68409833'
p66
aS'19858730'
p67
aS'74131924'
p68
aS'62356458'
p69
aS'52552718'
p70
asg28
S'10'
p71
sg30
S'Autonomous Agents 2'
p72
sg32
g33
sg34
g57
sg36
(iread_data
Room
p73
(dp74
g28
S'48'
p75
sg30
S'B0.201'
p76
sbsba(ischedule
Activity
p77
(dp78
g8
(lp79
S'3474870'
p80
aS'77376714'
p81
ag10
aS'21095566'
p82
ag11
aS'27298319'
p83
aS'82689818'
p84
aS'78136904'
p85
ag12
aS'64554442'
p86
ag13
aS'26260141'
p87
ag27
aS'51509565'
p88
ag14
aS'36903574'
p89
ag15
ag24
aS'88596522'
p90
ag26
ag16
aS'72895450'
p91
ag17
aS'52715680'
p92
aS'3707829'
p93
ag23
aS'1665980'
p94
ag25
ag18
aS'66433883'
p95
ag19
aS'23983476'
p96
aS'21964491'
p97
aS'14671406'
p98
ag20
aS'44828429'
p99
aS'64947290'
p100
aS'51566595'
p101
ag21
aS'91527663'
p102
ag22
aS'40343779'
p103
aS'58592894'
p104
asg28
I1000
sg30
g31
sg32
S'lectures'
p105
sg34
I0
sg36
(iread_data
Room
p106
(dp107
g28
S'41'
p108
sg30
S'A1.04'
p109
sbsba(ischedule
Activity
p110
(dp111
g8
(lp112
S'54569540'
p113
aS'74182182'
p114
aS'59075181'
p115
ag23
aS'44940353'
p116
aS'51186803'
p117
aS'31633723'
p118
aS'79858178'
p119
ag98
aS'82688900'
p120
aS'7492204'
p121
aS'20331158'
p122
aS'20883994'
p123
aS'9731271'
p124
aS'46570285'
p125
aS'97019450'
p126
aS'58332004'
p127
aS'65003379'
p128
aS'10792879'
p129
aS'89338938'
p130
aS'10872825'
p131
aS'39659121'
p132
aS'81218347'
p133
aS'56988998'
p134
aS'76924297'
p135
aS'47605891'
p136
aS'34243356'
p137
aS'34262212'
p138
aS'94955328'
p139
aS'47462856'
p140
aS'91139627'
p141
aS'59544049'
p142
aS'14591033'
p143
aS'69086548'
p144
aS'96054456'
p145
aS'61518436'
p146
aS'20239127'
p147
aS'28957789'
p148
aS'22731474'
p149
aS'63408522'
p150
aS'38499176'
p151
aS'24875739'
p152
aS'32705005'
p153
aS'77636749'
p154
aS'55474917'
p155
aS'23391676'
p156
aS'5368702'
p157
aS'14398123'
p158
aS'5615125'
p159
aS'78735049'
p160
aS'99272880'
p161
aS'17823206'
p162
aS'11915563'
p163
aS'31247305'
p164
aS'56749879'
p165
ag14
aS'18266644'
p166
aS'3685034'
p167
aS'79366078'
p168
ag89
aS'23798155'
p169
aS'39919665'
p170
aS'49631542'
p171
ag18
aS'51542218'
p172
ag51
aS'84524083'
p173
aS'64296965'
p174
aS'94467156'
p175
aS'42115591'
p176
ag85
aS'97371272'
p177
aS'27187154'
p178
aS'54310617'
p179
aS'58469172'
p180
aS'84110134'
p181
aS'38329455'
p182
aS'58522654'
p183
aS'72547110'
p184
aS'39230359'
p185
aS'37498675'
p186
aS'63955238'
p187
aS'91196968'
p188
aS'63634350'
p189
asg28
I1000
sg30
S'Kansrekenen 2'
p190
sg32
g105
sg34
I0
sg36
(iread_data
Room
p191
(dp192
g28
S'56'
p193
sg30
S'A1.10'
p194
sbsbaa(lp195
(ischedule
Activity
p196
(dp197
g8
(lp198
S'87758823'
p199
ag44
aS'60312776'
p200
aS'26406342'
p201
aS'23547619'
p202
ag45
aS'61443567'
p203
ag52
aS'35330349'
p204
aS'31416266'
p205
ag94
aS'75521763'
p206
aS'45556081'
p207
ag46
aS'17222374'
p208
aS'86291592'
p209
ag65
aS'22699561'
p210
aS'86000192'
p211
aS'17575088'
p212
ag16
ag47
aS'97135019'
p213
aS'50184318'
p214
aS'29640619'
p215
ag48
aS'64393888'
p216
aS'96104167'
p217
aS'4783858'
p218
ag49
aS'43027916'
p219
aS'3233378'
p220
aS'48601268'
p221
ag50
aS'25106480'
p222
aS'53107172'
p223
aS'33760909'
p224
aS'42778953'
p225
aS'7308727'
p226
ag53
aS'24277163'
p227
aS'1696500'
p228
aS'9332762'
p229
aS'42196732'
p230
aS'51741554'
p231
aS'29474737'
p232
aS'42171678'
p233
ag174
ag183
ag51
aS'57595888'
p234
ag22
aS'65960683'
p235
aS'13092455'
p236
ag179
aS'1075391'
p237
aS'62701040'
p238
ag84
ag97
aS'68601184'
p239
aS'13534377'
p240
asg28
I1000
sg30
g55
sg32
g105
sg34
I0
sg36
(iread_data
Room
p241
(dp242
g28
g75
sg30
g76
sbsba(ischedule
Activity
p243
(dp244
g8
(lp245
S'88597745'
p246
aS'670011'
p247
aS'63111000'
p248
aS'6723948'
p249
ag155
aS'10698627'
p250
ag162
aS'37279234'
p251
aS'93566383'
p252
ag156
aS'58040377'
p253
aS'88519892'
p254
aS'86807027'
p255
ag138
aS'7386961'
p256
ag178
ag215
ag238
asg28
S'20'
p257
sg30
S'Programmeren in Java 2'
p258
sg32
g33
sg34
S'4'
p259
sg36
(iread_data
Room
p260
(dp261
g28
S'22'
p262
sg30
S'A1.06'
p263
sbsba(ischedule
Activity
p264
(dp265
g8
(lp266
g96
aS'44901052'
p267
ag127
aS'92977271'
p268
aS'11459236'
p269
ag238
aS'29718115'
p270
aS'32204977'
p271
asg28
S'15'
p272
sg30
S'Informatie- en organsatieontwerp'
p273
sg32
g56
sg34
g57
sg36
(iread_data
Room
p274
(dp275
g28
g60
sg30
g61
sbsba(ischedule
Activity
p276
(dp277
g8
(lp278
g164
ag23
ag175
aS'44868097'
p279
aS'4546613'
p280
ag87
aS'44671041'
p281
ag82
aS'78443067'
p282
ag142
ag222
aS'4568018'
p283
ag98
aS'62105897'
p284
aS'22323043'
p285
aS'65318664'
p286
aS'51593625'
p287
aS'45915482'
p288
aS'13718298'
p289
aS'14309255'
p290
aS'61060652'
p291
aS'41153310'
p292
ag130
ag70
aS'22871048'
p293
aS'82872148'
p294
aS'78243495'
p295
ag176
aS'96554914'
p296
aS'9287708'
p297
aS'73236988'
p298
aS'99283252'
p299
aS'11068043'
p300
aS'83210352'
p301
aS'95631564'
p302
aS'48357272'
p303
ag218
aS'73302736'
p304
aS'58565406'
p305
aS'33877725'
p306
aS'80709893'
p307
ag155
aS'37830626'
p308
aS'89985072'
p309
ag181
ag221
aS'75599734'
p310
ag163
ag220
aS'43460038'
p311
ag92
aS'27582862'
p312
aS'1048485'
p313
ag69
aS'14072826'
p314
aS'89180944'
p315
aS'52311353'
p316
ag81
aS'54026378'
p317
aS'58074656'
p318
aS'65408517'
p319
ag46
ag215
aS'31103066'
p320
ag66
ag10
ag200
ag16
aS'88176729'
p321
ag103
aS'3727435'
p322
ag118
aS'70015932'
p323
aS'37744525'
p324
aS'27950803'
p325
asg28
I1000
sg30
S'Software engineering'
p326
sg32
g105
sg34
I0
sg36
(iread_data
Room
p327
(dp328
g28
g39
sg30
g40
sbsba(ischedule
Activity
p329
(dp330
g8
(lp331
S'43680781'
p332
ag19
aS'53202517'
p333
ag317
ag149
aS'24613625'
p334
ag68
ag143
aS'247918'
p335
ag298
aS'5298748'
p336
aS'30195935'
p337
aS'15051051'
p338
asg28
S'20'
p339
sg30
S'Bioinformatica'
p340
sg32
g33
sg34
g57
sg36
(iread_data
Room
p341
(dp342
g28
g108
sg30
g109
sbsba(ischedule
Activity
p343
(dp344
g8
(lp345
S'59753700'
p346
aS'37110913'
p347
aS'87900893'
p348
aS'87314964'
p349
ag97
aS'19337738'
p350
aS'13996448'
p351
asg28
S'10'
p352
sg30
S'Data Mining'
p353
sg32
g33
sg34
g35
sg36
(iread_data
Room
p354
(dp355
g28
S'20'
p356
sg30
S'A1.08'
p357
sbsbaa(lp358
(ischedule
Activity
p359
(dp360
g8
(lp361
S'32044893'
p362
ag92
ag325
ag113
aS'70844780'
p363
aS'68286356'
p364
ag236
aS'84449005'
p365
ag346
ag336
aS'49922855'
p366
aS'4709948'
p367
ag296
ag147
ag85
ag167
ag347
aS'60661905'
p368
aS'77392404'
p369
aS'92778619'
p370
ag289
aS'99453514'
p371
aS'70193386'
p372
aS'37399898'
p373
ag332
aS'77960666'
p374
aS'22826928'
p375
aS'27805666'
p376
aS'20095994'
p377
ag25
ag293
aS'38296757'
p378
aS'27370083'
p379
aS'13658563'
p380
aS'42406214'
p381
aS'57086672'
p382
aS'51052738'
p383
ag146
aS'41578612'
p384
aS'36213792'
p385
ag227
aS'99975346'
p386
aS'33776961'
p387
aS'6913074'
p388
aS'60352393'
p389
aS'36785409'
p390
aS'51415617'
p391
aS'82390428'
p392
ag173
aS'87830198'
p393
aS'90474003'
p394
asg28
I1000
sg30
S'Reflectie op de digitale cultuur'
p395
sg32
g105
sg34
I0
sg36
(iread_data
Room
p396
(dp397
g28
g356
sg30
g357
sbsba(ischedule
Activity
p398
(dp399
g8
(lp400
g137
aS'1766560'
p401
aS'3407554'
p402
aS'11741347'
p403
aS'80135353'
p404
aS'88752563'
p405
ag209
aS'98105190'
p406
aS'34110913'
p407
aS'5595824'
p408
aS'15911353'
p409
ag163
aS'34872117'
p410
aS'2317551'
p411
ag52
aS'65852230'
p412
aS'92665222'
p413
ag333
aS'66701209'
p414
ag27
aS'2079771'
p415
aS'7957843'
p416
aS'76802764'
p417
ag173
ag91
ag129
aS'75664412'
p418
ag290
aS'68315599'
p419
ag200
aS'40791377'
p420
aS'48503689'
p421
aS'88855695'
p422
ag334
aS'79167252'
p423
aS'30658799'
p424
ag325
ag157
aS'13911001'
p425
aS'43689934'
p426
ag178
aS'83266686'
p427
ag225
ag302
aS'79033175'
p428
aS'39459642'
p429
aS'75759231'
p430
aS'48308205'
p431
ag298
aS'13284244'
p432
aS'88636924'
p433
aS'8464817'
p434
ag249
aS'9067939'
p435
aS'76661016'
p436
ag25
ag310
aS'31194811'
p437
ag235
aS'49683101'
p438
aS'54772132'
p439
ag183
ag12
aS'94687383'
p440
aS'72796858'
p441
aS'46989508'
p442
ag50
aS'44391517'
p443
aS'95007221'
p444
asg28
I1000
sg30
S'Compilerbouw'
p445
sg32
g105
sg34
I0
sg36
(iread_data
Room
p446
(dp447
g28
g75
sg30
g76
sbsba(ischedule
Activity
p448
(dp449
g8
(lp450
g81
ag83
ag85
ag86
ag87
ag88
ag89
ag91
ag92
ag95
ag96
ag98
ag99
ag101
ag102
ag103
ag84
ag97
ag94
ag90
ag80
ag100
ag82
ag93
ag104
asg28
g29
sg30
g31
sg32
g33
sg34
g57
sg36
(iread_data
Room
p451
(dp452
g28
g108
sg30
g109
sbsba(ischedule
Activity
p453
(dp454
g8
(lp455
S'13116738'
p456
aS'8557857'
p457
aS'23257088'
p458
ag166
ag206
aS'70878567'
p459
aS'36748818'
p460
aS'19958553'
p461
ag154
aS'17496687'
p462
aS'75585647'
p463
ag380
ag419
asg28
g272
sg30
g273
sg32
g56
sg34
g35
sg36
(iread_data
Room
p464
(dp465
g28
g39
sg30
g40
sbsba(ischedule
Activity
p466
(dp467
g8
(lp468
S'68360259'
p469
aS'45414528'
p470
ag162
aS'97136582'
p471
ag371
ag285
aS'25330192'
p472
aS'81022997'
p473
ag68
ag101
ag316
aS'98780382'
p474
ag459
asg28
g352
sg30
g353
sg32
g33
sg34
g57
sg36
(iread_data
Room
p475
(dp476
g28
g262
sg30
g263
sbsbaa(lp477
(ischedule
Activity
p478
(dp479
g8
(lp480
S'14138904'
p481
aS'72683344'
p482
aS'58866007'
p483
ag207
ag315
aS'28618400'
p484
ag323
aS'40434933'
p485
ag84
ag169
aS'13798030'
p486
ag438
aS'27925117'
p487
ag44
ag410
ag427
ag311
ag270
aS'10149535'
p488
aS'59289233'
p489
ag122
asg28
I1000
sg30
S'Architectuur en computerorganisatie'
p490
sg32
g105
sg34
I0
sg36
(iread_data
Room
p491
(dp492
g28
g356
sg30
g357
sbsba(ischedule
Activity
p493
(dp494
g8
(lp495
g23
ag279
ag87
ag82
ag142
ag284
ag286
ag288
ag70
ag299
ag306
ag221
ag163
ag311
ag312
ag315
ag81
ag318
ag46
ag320
ag103
ag118
ag324
ag164
ag307
ag295
ag317
ag176
ag175
ag289
ag181
asg28
S'40'
p496
sg30
g326
sg32
g56
sg34
g57
sg36
(iread_data
Room
p497
(dp498
g28
g193
sg30
g194
sbsba(ischedule
Activity
p499
(dp500
g8
(lp501
S'1695839'
p502
ag300
ag90
aS'74361881'
p503
aS'72665524'
p504
aS'23215240'
p505
ag269
aS'71839156'
p506
aS'44151631'
p507
ag201
aS'55103073'
p508
aS'51472074'
p509
ag234
ag309
ag283
asg28
S'15'
p510
sg30
S'Compilerbouw practicum'
p511
sg32
g33
sg34
g35
sg36
g241
sba(ischedule
Activity
p512
(dp513
g8
(lp514
g456
ag96
ag271
ag462
ag457
ag267
ag380
ag127
ag458
ag154
ag461
ag268
ag166
ag269
ag206
ag463
ag459
ag419
ag238
ag270
ag460
asg28
I1000
sg30
g273
sg32
g105
sg34
I0
sg36
(iread_data
Room
p515
(dp516
g28
g60
sg30
g61
sbsba(ischedule
Activity
p517
(dp518
g8
(lp519
g175
ag178
aS'33252501'
p520
ag324
ag51
aS'85236626'
p521
ag248
ag429
aS'90067329'
p522
aS'67625383'
p523
ag10
ag169
ag415
ag24
ag167
ag438
ag134
ag146
ag420
aS'26857113'
p524
ag378
ag338
asg28
I1000
sg30
S'Machine Learning'
p525
sg32
g105
sg34
I0
sg36
(iread_data
Room
p526
(dp527
g28
g262
sg30
g263
sbsba(ischedule
Activity
p528
(dp529
g8
(lp530
g473
aS'2550487'
p531
aS'6939933'
p532
ag362
aS'19662602'
p533
ag298
ag432
ag200
aS'19214659'
p534
ag209
aS'37419523'
p535
ag130
ag431
aS'73823548'
p536
ag69
aS'40911986'
p537
asg28
S'15'
p538
sg30
S'Project Numerical Recipes'
p539
sg32
g33
sg34
S'3'
p540
sg36
(iread_data
Room
p541
(dp542
g28
g39
sg30
g40
sbsba(ischedule
Activity
p543
(dp544
g8
(lp545
g199
ag204
ag207
ag65
ag215
ag218
ag221
ag224
ag227
ag231
ag183
ag235
ag238
ag210
ag205
ag211
asg28
g54
sg30
g55
sg32
g56
sg34
g35
sg36
(iread_data
Room
p546
(dp547
g28
g108
sg30
g109
sbsbaa(lp548
(ischedule
Activity
p549
(dp550
g8
(lp551
g306
ag333
ag45
aS'41790793'
p552
aS'6249823'
p553
aS'22288615'
p554
ag315
ag91
aS'67073567'
p555
ag250
ag311
ag44
ag295
ag159
ag203
aS'2416751'
p556
aS'16333449'
p557
aS'14847953'
p558
ag20
ag49
aS'49908313'
p559
aS'14303208'
p560
aS'1137946'
p561
aS'76903244'
p562
aS'69459473'
p563
aS'28358060'
p564
aS'17092717'
p565
aS'24891081'
p566
ag80
ag485
aS'27064249'
p567
ag185
aS'76648468'
p568
aS'20618153'
p569
ag369
aS'94930277'
p570
ag382
aS'66034145'
p571
aS'53512831'
p572
asg28
I1000
sg30
S'Webprogrammeren en databases'
p573
sg32
g105
sg34
I0
sg36
(iread_data
Room
p574
(dp575
g28
g108
sg30
g109
sbsba(ischedule
Activity
p576
(dp577
g8
(lp578
S'91250534'
p579
ag161
ag560
ag151
aS'42297781'
p580
ag271
ag94
ag13
ag425
asg28
g510
sg30
g511
sg32
g33
sg34
g540
sg36
(iread_data
Room
p581
(dp582
g28
g60
sg30
g61
sbsba(ischedule
Activity
p583
(dp584
g8
(lp585
g459
ag19
ag333
ag149
ag334
ag68
ag143
ag335
ag298
ag183
ag300
aS'79617364'
p586
ag332
aS'30050930'
p587
ag375
aS'85335143'
p588
asg28
S'20'
p589
sg30
g340
sg32
g56
sg34
g57
sg36
(iread_data
Room
p590
(dp591
g28
g262
sg30
g263
sbsba(ischedule
Activity
p592
(dp593
g8
(lp594
S'40633534'
p595
aS'75997788'
p596
aS'47477884'
p597
ag413
ag85
ag44
aS'1886996'
p598
ag482
ag363
ag202
ag389
ag558
ag504
ag567
ag255
aS'3168419'
p599
ag484
aS'39429093'
p600
ag123
aS'62613937'
p601
asg28
I1000
sg30
S'Advanced Heuristics'
p602
sg32
g105
sg34
I0
sg36
(iread_data
Room
p603
(dp604
g28
g193
sg30
g194
sbsba(ischedule
Activity
p605
(dp606
g8
(lp607
g201
ag418
ag347
aS'7106649'
p608
ag485
aS'47982619'
p609
ag206
ag553
ag267
ag144
aS'11996292'
p610
ag437
aS'14383795'
p611
ag390
ag431
aS'77264363'
p612
aS'93041523'
p613
ag202
asg28
S'20'
p614
sg30
S'Technology for games'
p615
sg32
g56
sg34
g57
sg36
(iread_data
Room
p616
(dp617
g28
g356
sg30
g357
sbsba(ischedule
Activity
p618
(dp619
g8
(lp620
S'77831658'
p621
aS'12430748'
p622
ag226
aS'14941752'
p623
aS'21070547'
p624
ag300
ag351
ag181
aS'75005528'
p625
aS'90103047'
p626
ag416
aS'81116418'
p627
ag236
ag91
aS'63573738'
p628
asg28
g538
sg30
g539
sg32
g33
sg34
g35
sg36
(iread_data
Room
p629
(dp630
g28
g39
sg30
g40
sbsba(ischedule
Activity
p631
(dp632
g8
(lp633
S'92496780'
p634
ag27
ag202
ag201
aS'21192048'
p635
ag154
ag437
ag418
ag285
ag130
ag390
ag347
aS'70336464'
p636
ag290
ag384
ag608
ag332
ag612
ag611
ag419
aS'4697362'
p637
ag485
ag177
ag609
ag588
ag206
ag488
ag431
ag271
ag553
ag613
ag267
ag622
ag144
ag305
ag229
aS'76487754'
p638
ag610
asg28
I1000
sg30
g615
sg32
g105
sg34
I0
sg36
(iread_data
Room
p639
(dp640
g28
g75
sg30
g76
sbsbaaa(lp641
(lp642
(ischedule
Activity
p643
(dp644
g8
(lp645
S'28359697'
p646
aS'81200278'
p647
ag321
aS'56815156'
p648
ag230
aS'21029457'
p649
ag142
aS'14816774'
p650
aS'29526540'
p651
ag165
asg28
g589
sg30
g340
sg32
g56
sg34
g540
sg36
(iread_data
Room
p652
(dp653
g28
g356
sg30
g357
sbsba(ischedule
Activity
p654
(dp655
g8
(lp656
g317
aS'34806836'
p657
ag441
aS'36508571'
p658
ag293
ag429
ag347
aS'62872965'
p659
aS'61611295'
p660
asg28
g71
sg30
g72
sg32
g33
sg34
g540
sg36
(iread_data
Room
p661
(dp662
g28
g262
sg30
g263
sbsba(ischedule
Activity
p663
(dp664
g8
(lp665
g202
ag204
ag207
ag65
ag16
ag215
ag221
ag224
ag227
ag231
ag183
ag235
ag238
ag214
ag206
ag179
ag22
ag209
asg28
S'20'
p666
sg30
g55
sg32
g33
sg34
g35
sg36
(iread_data
Room
p667
(dp668
g28
g193
sg30
g194
sbsba(ischedule
Activity
p669
(dp670
g8
(lp671
g628
ag324
ag313
aS'56191333'
p672
ag213
aS'70939718'
p673
ag84
aS'62736669'
p674
aS'19058315'
p675
ag18
ag484
aS'12170832'
p676
aS'26207525'
p677
aS'123355'
p678
ag164
asg28
S'20'
p679
sg30
S'Netwerken en systeembeveiliging'
p680
sg32
g33
sg34
g57
sg36
(iread_data
Room
p681
(dp682
g28
g108
sg30
g109
sbsba(ischedule
Activity
p683
(dp684
g8
(lp685
g92
ag363
ag365
ag366
ag147
ag370
ag372
ag374
ag377
ag378
ag381
ag227
ag388
ag391
ag293
ag173
ag386
ag347
ag375
ag379
ag389
ag367
ag85
asg28
S'20'
p686
sg30
g395
sg32
g56
sg34
g57
sg36
(iread_data
Room
p687
(dp688
g28
g60
sg30
g61
sbsba(ischedule
Activity
p689
(dp690
g8
(lp691
g362
ag236
ag336
ag296
ag167
ag369
ag371
ag332
ag376
ag380
ag383
ag385
ag390
ag146
ag364
asg28
g686
sg30
g395
sg32
g56
sg34
g35
sg36
(iread_data
Room
p692
(dp693
g28
g75
sg30
g76
sbsbaa(lp694
(ischedule
Activity
p695
(dp696
g8
(lp697
g393
aS'75680261'
p698
aS'86180471'
p699
ag325
ag384
ag50
aS'78821918'
p700
ag299
aS'14179347'
p701
ag47
aS'87602030'
p702
aS'58253841'
p703
aS'48678993'
p704
asg28
S'15'
p705
sg30
S'Project Genetic Algorithms'
p706
sg32
g33
sg34
g57
sg36
(iread_data
Room
p707
(dp708
g28
g60
sg30
g61
sbsba(ischedule
Activity
p709
(dp710
g8
(lp711
g586
ag388
ag253
ag104
ag153
aS'56544130'
p712
ag143
aS'56872729'
p713
aS'34173695'
p714
aS'31306819'
p715
aS'62363761'
p716
aS'58699305'
p717
ag145
ag304
aS'79888156'
p718
aS'19717077'
p719
ag596
aS'72526473'
p720
aS'83415514'
p721
ag211
ag649
aS'40141996'
p722
ag160
ag288
ag673
ag588
aS'53139134'
p723
ag319
aS'12091019'
p724
aS'78544592'
p725
ag703
aS'77306636'
p726
ag24
aS'33672995'
p727
asg28
S'40'
p728
sg30
S'Calculus 2'
p729
sg32
g56
sg34
g540
sg36
(iread_data
Room
p730
(dp731
g28
g75
sg30
g76
sbsba(ischedule
Activity
p732
(dp733
g8
(lp734
S'93023961'
p735
ag348
ag188
ag68
ag371
ag459
ag351
asg28
S'10'
p736
sg30
g353
sg32
g56
sg34
g35
sg36
(iread_data
Room
p737
(dp738
g28
g39
sg30
g40
sbsba(ischedule
Activity
p739
(dp740
g8
(lp741
g127
ag154
ag268
ag269
ag206
ag96
ag463
ag267
ag238
ag461
asg28
S'15'
p742
sg30
g273
sg32
g33
sg34
g57
sg36
(iread_data
Room
p743
(dp744
g28
g356
sg30
g357
sbsba(ischedule
Activity
p745
(dp746
g8
(lp747
g16
ag470
ag162
ag471
ag285
ag472
ag347
ag349
ag97
ag474
ag316
asg28
g736
sg30
g353
sg32
g56
sg34
g57
sg36
(iread_data
Room
p748
(dp749
g28
g108
sg30
g109
sbsba(ischedule
Activity
p750
(dp751
g8
(lp752
g83
ag423
ag348
aS'6709529'
p753
ag560
ag488
ag427
aS'56348773'
p754
ag148
aS'16097870'
p755
ag129
ag49
aS'47932106'
p756
ag378
aS'59220392'
p757
ag125
ag282
ag303
ag597
aS'64600457'
p758
aS'65978354'
p759
aS'94686490'
p760
aS'93361408'
p761
ag567
aS'10609762'
p762
ag699
aS'82412626'
p763
ag701
ag532
ag180
ag22
ag255
ag536
asg28
g728
sg30
g729
sg32
g56
sg34
g57
sg36
(iread_data
Room
p764
(dp765
g28
g193
sg30
g194
sbsba(ischedule
Activity
p766
(dp767
g8
(lp768
g411
ag145
ag189
ag97
aS'28943658'
p769
ag203
ag89
ag161
ag388
aS'85284256'
p770
ag14
ag126
ag429
ag373
asg28
g257
sg30
g258
sg32
g33
sg34
S'5'
p771
sg36
(iread_data
Room
p772
(dp773
g28
g262
sg30
g263
sbsbaa(lp774
(ischedule
Activity
p775
(dp776
g8
(lp777
g200
ag203
ag208
ag211
ag213
ag216
ag219
ag222
ag229
ag233
ag234
ag97
ag199
ag230
ag232
ag94
asg28
g666
sg30
g55
sg32
g33
sg34
g540
sg36
(iread_data
Room
p778
(dp779
g28
g356
sg30
g357
sbsba(ischedule
Activity
p780
(dp781
g8
(lp782
S'75623387'
p783
ag83
ag586
aS'75446434'
p784
aS'38179241'
p785
ag388
ag279
ag423
ag253
ag487
ag348
ag255
ag159
ag753
ag104
ag13
ag560
ag153
aS'81155296'
p786
ag488
ag712
ag249
ag427
ag180
ag703
ag754
ag143
ag463
ag148
ag713
ag87
ag755
ag714
ag231
ag129
ag715
ag726
ag49
ag716
ag702
ag756
ag717
ag189
ag378
aS'11593163'
p787
ag224
ag757
ag145
aS'23658570'
p788
ag24
ag304
ag124
ag125
ag718
ag504
ag282
ag719
ag284
ag303
ag596
aS'3678531'
p789
ag597
ag536
aS'55412918'
p790
ag758
aS'22168693'
p791
ag405
ag152
ag720
aS'61520025'
p792
ag759
ag721
aS'23565001'
p793
ag114
ag211
ag251
ag213
ag22
ag218
ag760
ag649
ag280
ag761
ag722
aS'80188025'
p794
ag567
ag160
aS'55530367'
p795
ag725
ag288
ag650
ag762
ag673
ag178
ag699
ag588
ag422
ag763
ag723
ag727
ag701
ag319
ag436
ag532
ag724
aS'23628642'
p796
asg28
I1000
sg30
g729
sg32
g105
sg34
I0
sg36
(iread_data
Room
p797
(dp798
g28
g39
sg30
g40
sbsba(ischedule
Activity
p799
(dp800
g8
(lp801
g83
ag347
aS'70113753'
p802
ag101
ag65
ag429
ag755
ag267
ag317
ag659
ag660
ag67
ag69
ag66
ag657
ag68
ag163
aS'88627897'
p803
ag658
ag293
ag441
ag70
asg28
I1000
sg30
g72
sg32
g105
sg34
I0
sg36
(iread_data
Room
p804
(dp805
g28
g75
sg30
g76
sbsba(ischedule
Activity
p806
(dp807
g8
(lp808
g425
ag610
ag403
ag227
ag700
aS'51650744'
p809
ag721
ag299
ag401
ag758
ag424
ag208
aS'66621166'
p810
aS'49219163'
p811
ag596
ag460
asg28
S'20'
p812
sg30
S'Moderne Databases'
p813
sg32
g33
sg34
g540
sg36
(iread_data
Room
p814
(dp815
g28
g60
sg30
g61
sbsba(ischedule
Activity
p816
(dp817
g8
(lp818
S'535689'
p819
ag481
aS'41644639'
p820
aS'82066165'
p821
aS'5892092'
p822
aS'65675896'
p823
ag611
aS'5085194'
p824
ag189
ag16
aS'47260040'
p825
ag92
aS'64418623'
p826
aS'51673172'
p827
ag402
aS'25994016'
p828
asg28
g510
sg30
g511
sg32
g33
sg34
g57
sg36
(iread_data
Room
p829
(dp830
g28
g193
sg30
g194
sbsba(ischedule
Activity
p831
(dp832
g8
(lp833
g459
ag16
ag324
ag346
ag469
ag473
ag347
ag470
ag456
ag735
ag162
ag474
ag97
ag471
ag647
ag348
ag371
ag68
ag101
ag285
ag316
ag188
ag351
ag350
ag349
ag472
aS'66122625'
p834
asg28
I1000
sg30
g353
sg32
g105
sg34
I0
sg36
(iread_data
Room
p835
(dp836
g28
g108
sg30
g109
sbsbaa(lp837
(ischedule
Activity
p838
(dp839
g8
(lp840
g803
ag658
ag101
ag267
ag660
ag69
ag659
asg28
S'10'
p841
sg30
g72
sg32
g56
sg34
g540
sg36
g37
sba(ischedule
Activity
p842
(dp843
g8
(lp844
g405
ag610
ag442
aS'15187217'
p845
aS'56121590'
p846
ag101
ag565
ag208
aS'5526560'
p847
ag824
ag625
aS'70072978'
p848
ag25
aS'83869542'
p849
ag788
ag458
ag236
aS'59397895'
p850
aS'54540997'
p851
aS'13132925'
p852
ag145
ag335
aS'27123462'
p853
ag102
ag674
ag429
ag104
ag227
ag70
ag172
aS'4921119'
p854
aS'58083680'
p855
ag536
ag201
ag756
ag485
ag722
ag65
ag699
ag219
ag760
ag20
asg28
S'40'
p856
sg30
S'Databases 2'
p857
sg32
g56
sg34
g35
sg36
g707
sba(ischedule
Activity
p858
(dp859
g8
(lp860
g96
ag188
ag721
ag531
ag324
aS'64053722'
p861
ag216
aS'12782624'
p862
ag375
ag556
ag597
ag443
ag421
ag100
ag374
ag175
ag802
asg28
g257
sg30
g258
sg32
g33
sg34
g35
sg36
(iread_data
Room
p863
(dp864
g28
g356
sg30
g357
sbsba(ischedule
Activity
p865
(dp866
g8
(lp867
g80
ag11
ag84
ag27
ag14
ag15
ag90
ag16
ag94
ag18
ag19
ag97
ag20
ag21
ag22
ag104
ag103
ag99
ag102
ag12
ag85
ag17
asg28
S'25'
p868
sg30
g31
sg32
g56
sg34
g35
sg36
(iread_data
Room
p869
(dp870
g28
g108
sg30
g109
sbsba(ischedule
Activity
p871
(dp872
g8
(lp873
g279
ag332
ag337
ag587
ag459
ag646
ag388
ag19
aS'33930505'
p874
ag226
ag333
ag647
ag338
ag317
ag123
ag249
ag149
ag300
ag283
ag334
ag321
ag586
ag68
aS'66120270'
p875
ag97
ag309
ag648
ag145
ag143
ag230
ag599
ag335
ag758
ag165
ag298
ag649
ag375
ag336
ag142
ag621
ag183
ag650
ag306
ag588
ag651
asg28
I1000
sg30
g340
sg32
g105
sg34
I0
sg36
(iread_data
Room
p876
(dp877
g28
g193
sg30
g194
sbsba(ischedule
Activity
p878
(dp879
g8
g633
sg28
I1000
sg30
g615
sg32
g105
sg34
I0
sg36
(iread_data
Room
p880
(dp881
g28
g75
sg30
g76
sbsba(ischedule
Activity
p882
(dp883
g8
(lp884
S'3883025'
p885
aS'59111489'
p886
aS'27916487'
p887
ag427
ag717
aS'27241113'
p888
ag290
ag81
ag295
ag125
ag233
ag332
ag206
ag367
aS'36527838'
p889
aS'96082155'
p890
ag387
ag848
asg28
g812
sg30
g813
sg32
g33
sg34
g35
sg36
(iread_data
Room
p891
(dp892
g28
g262
sg30
g263
sbsbaa(lp893
(ischedule
Activity
p894
(dp895
g8
(lp896
g885
ag387
ag890
ag65
ag140
ag425
ag886
ag811
ag610
ag887
aS'1181560'
p897
ag403
ag427
ag651
ag227
ag717
aS'18144425'
p898
ag700
ag214
ag419
ag848
ag888
aS'48198668'
p899
ag367
ag104
ag248
ag809
ag290
ag127
ag721
ag596
ag171
ag299
ag81
aS'41489515'
p900
ag401
ag295
ag588
ag758
ag460
ag282
ag424
ag125
ag315
ag208
ag233
ag725
aS'13218321'
p901
ag332
ag365
ag889
ag206
ag338
ag810
asg28
I1000
sg30
g813
sg32
g105
sg34
I0
sg36
(iread_data
Room
p902
(dp903
g28
g39
sg30
g40
sbsba(ischedule
Activity
p904
(dp905
g8
g551
sg28
I1000
sg30
g573
sg32
g105
sg34
I0
sg36
(iread_data
Room
p906
(dp907
g28
g75
sg30
g76
sbsba(ischedule
Activity
p908
(dp909
g8
(lp910
g52
ag212
ag217
ag220
ag223
ag174
ag237
ag239
ag46
ag53
ag45
asg28
g666
sg30
g55
sg32
g33
sg34
g259
sg36
(iread_data
Room
p911
(dp912
g28
g356
sg30
g357
sbsba(ischedule
Activity
p913
(dp914
g8
(lp915
g324
ag473
ag456
ag647
ag834
ag101
ag350
ag346
ag469
asg28
g736
sg30
g353
sg32
g56
sg34
g540
sg36
(iread_data
Room
p916
(dp917
g28
g108
sg30
g109
sbsba(ischedule
Activity
p918
(dp919
g8
(lp920
g82
ag142
ag284
ag286
ag290
ag292
ag70
ag294
ag176
ag299
ag303
ag306
ag221
ag163
ag311
ag312
ag69
ag315
ag318
ag46
ag320
ag10
ag103
ag118
ag324
ag220
ag302
ag87
ag283
asg28
S'40'
p921
sg30
g326
sg32
g33
sg34
g57
sg36
(iread_data
Room
p922
(dp923
g28
g193
sg30
g194
sbsba(ischedule
Activity
p924
(dp925
g8
(lp926
g279
ag388
ag226
ag338
ag249
ag283
ag97
ag145
ag599
ag621
ag306
ag309
ag317
ag337
ag874
ag336
ag875
ag758
ag123
asg28
g589
sg30
g340
sg32
g56
sg34
g35
sg36
(iread_data
Room
p927
(dp928
g28
g60
sg30
g61
sbsba(ischedule
Activity
p929
(dp930
g8
(lp931
g45
ag650
aS'25077484'
p932
ag394
ag389
ag230
ag724
ag651
ag672
ag247
aS'4529208'
p933
ag52
ag127
ag599
ag165
ag677
ag410
ag597
ag171
ag713
ag374
ag215
aS'72456780'
p934
ag26
ag700
ag100
aS'37701751'
p935
ag174
ag84
ag441
asg28
g856
sg30
g857
sg32
g56
sg34
g57
sg36
(iread_data
Room
p936
(dp937
g28
g262
sg30
g263
sbsbaaa(lp938
(lp939
(ischedule
Activity
p940
(dp941
g8
(lp942
g325
ag346
ag368
ag289
ag373
ag25
ag382
ag384
ag392
ag394
ag113
ag387
ag393
asg28
g686
sg30
g395
sg32
g56
sg34
g540
sg36
g37
sba(ischedule
Activity
p943
(dp944
g8
(lp945
g65
ag886
ag887
ag214
ag104
ag290
ag596
ag81
ag295
ag125
ag233
ag332
ag206
ag900
ag899
ag338
ag588
asg28
S'20'
p946
sg30
g813
sg32
g56
sg34
g35
sg36
g707
sba(ischedule
Activity
p947
(dp948
g8
(lp949
g306
ag45
ag555
ag311
ag295
ag203
ag557
ag20
ag559
ag563
ag565
ag80
ag568
ag572
ag159
ag485
ag560
ag564
ag562
ag570
ag553
ag185
asg28
S'20'
p950
sg30
g573
sg32
g33
sg34
g35
sg36
g497
sba(ischedule
Activity
p951
(dp952
g8
(lp953
g402
ag404
ag409
ag410
ag413
ag414
ag417
ag91
ag418
ag419
ag423
ag325
ag178
ag225
ag428
ag430
ag433
ag249
ag436
ag310
ag235
ag439
ag12
ag441
ag50
ag444
ag406
ag424
ag421
ag298
ag426
ag438
ag163
ag334
ag209
ag407
asg28
S'40'
p954
sg30
g445
sg32
g33
sg34
g35
sg36
(iread_data
Room
p955
(dp956
g28
g356
sg30
g357
sbsba(ischedule
Activity
p957
(dp958
g8
g519
sg28
I1000
sg30
g525
sg32
g105
sg34
I0
sg36
(iread_data
Room
p959
(dp960
g28
g108
sg30
g109
sbsba(ischedule
Activity
p961
(dp962
g8
(lp963
g436
ag785
aS'64768422'
p964
aS'28055464'
p965
ag93
ag280
ag531
ag534
ag135
ag823
ag21
ag12
ag252
ag558
aS'21677389'
p966
ag571
aS'20374340'
p967
aS'69634191'
p968
ag935
ag647
ag786
ag202
ag373
ag157
ag99
asg28
I1000
sg30
S'Interactie-ontwerp'
p969
sg32
g105
sg34
I0
sg36
(iread_data
Room
p970
(dp971
g28
g262
sg30
g263
sbsbaa(lp972
(ischedule
Activity
p973
(dp974
g8
(lp975
S'73350019'
p976
ag727
ag368
ag219
aS'18477924'
p977
ag382
aS'82854435'
p978
ag172
ag854
ag169
aS'97838175'
p979
ag712
ag289
ag139
ag755
ag372
aS'14637758'
p980
aS'58480929'
p981
ag793
ag393
ag293
ag384
ag126
ag174
aS'83443653'
p982
ag596
ag588
ag316
ag408
ag700
ag304
ag390
ag934
ag286
ag704
ag137
aS'72586808'
p983
aS'34900967'
p984
ag176
aS'78822885'
p985
ag824
ag794
ag621
ag166
ag648
ag788
ag303
aS'88737765'
p986
ag601
asg28
I1000
sg30
S'Analysemethoden en -technieken'
p987
sg32
g105
sg34
I0
sg36
(iread_data
Room
p988
(dp989
g28
g75
sg30
g76
sbsba(ischedule
Activity
p990
(dp991
g8
g400
sg28
I1000
sg30
g445
sg32
g105
sg34
I0
sg36
(iread_data
Room
p992
(dp993
g28
g193
sg30
g194
sbsba(ischedule
Activity
p994
(dp995
g8
g361
sg28
I1000
sg30
g395
sg32
g105
sg34
I0
sg36
(iread_data
Room
p996
(dp997
g28
g60
sg30
g61
sbsba(ischedule
Activity
p998
(dp999
g8
g198
sg28
I1000
sg30
g55
sg32
g105
sg34
I0
sg36
(iread_data
Room
p1000
(dp1001
g28
g262
sg30
g263
sbsba(ischedule
Activity
p1002
(dp1003
g8
(lp1004
g83
ag68
ag70
ag293
ag66
ag755
ag317
ag802
ag67
asg28
g841
sg30
g72
sg32
g56
sg34
g35
sg36
(iread_data
Room
p1005
(dp1006
g28
g108
sg30
g109
sbsba(ischedule
Activity
p1007
(dp1008
g8
(lp1009
g81
ag82
ag83
ag86
ag87
ag88
ag89
ag24
ag26
ag91
ag92
ag23
ag95
ag96
ag98
ag101
ag100
ag13
ag93
ag10
ag25
asg28
g868
sg30
g31
sg32
g56
sg34
g57
sg36
(iread_data
Room
p1010
(dp1011
g28
g356
sg30
g357
sbsbaa(lp1012
(ischedule
Activity
p1013
(dp1014
g8
(lp1015
g401
ag403
ag405
ag406
ag408
ag412
ag333
ag27
ag416
ag173
ag129
ag290
ag200
ag421
ag424
ag157
ag426
ag427
ag302
ag432
ag434
ag435
ag25
ag437
ag438
ag183
ag440
ag423
ag298
ag225
ag409
ag410
ag442
ag441
asg28
S'40'
p1016
sg30
g445
sg32
g56
sg34
g57
sg36
g497
sba(ischedule
Activity
p1017
(dp1018
g8
(lp1019
g281
ag282
ag222
ag98
ag285
ag287
ag291
ag130
ag293
ag296
ag298
ag300
ag302
ag218
ag305
ag308
ag310
ag220
ag92
ag313
ag314
ag316
ag319
ag215
ag66
ag200
ag321
ag322
ag323
ag325
ag292
ag297
ag283
ag301
ag309
ag290
ag294
ag69
ag10
ag280
ag304
ag155
ag16
ag303
asg28
g496
sg30
g326
sg32
g56
sg34
g35
sg36
g574
sba(ischedule
Activity
p1020
(dp1021
g8
(lp1022
g704
ag26
ag115
ag885
ag151
ag393
ag337
ag846
ag819
ag367
ag934
ag647
ag12
ag472
ag874
ag418
ag166
aS'53267490'
p1023
asg28
g679
sg30
g680
sg32
g33
sg34
g259
sg36
(iread_data
Room
p1024
(dp1025
g28
g75
sg30
g76
sbsba(ischedule
Activity
p1026
(dp1027
g8
(lp1028
g139
ag854
ag176
ag188
ag755
aS'21311067'
p1029
ag307
ag137
ag625
ag155
aS'80998260'
p1030
ag431
ag483
aS'66570705'
p1031
ag658
ag760
ag291
aS'26172512'
p1032
ag199
ag52
ag557
ag205
ag225
ag133
ag506
ag151
ag143
ag373
ag713
aS'90743504'
p1033
aS'32595335'
p1034
ag66
ag790
ag65
ag316
ag384
ag80
ag252
aS'16011419'
p1035
ag488
aS'34588570'
p1036
ag586
ag12
aS'96118484'
p1037
ag889
ag204
aS'79937969'
p1038
ag114
ag230
ag793
ag247
aS'54074680'
p1039
ag301
ag659
asg28
I1000
sg30
S'Lineaire Algebra'
p1040
sg32
g105
sg34
I0
sg36
(iread_data
Room
p1041
(dp1042
g28
g39
sg30
g40
sbsba(ischedule
Activity
p1043
(dp1044
g8
(lp1045
g847
ag932
aS'55480737'
p1046
ag24
ag827
ag414
ag222
ag436
asg28
g705
sg30
g706
sg32
g33
sg34
g540
sg36
(iread_data
Room
p1047
(dp1048
g28
g356
sg30
g357
sbsba(ischedule
Activity
p1049
(dp1050
g8
(lp1051
g324
ag647
ag834
ag16
ag188
ag735
ag456
asg28
g352
sg30
g353
sg32
g33
sg34
g540
sg36
(iread_data
Room
p1052
(dp1053
g28
g60
sg30
g61
sbsba(ischedule
Activity
p1054
(dp1055
g8
(lp1056
g333
ag552
ag554
ag91
ag250
ag44
ag556
ag558
ag49
ag566
ag369
ag382
ag567
ag569
ag571
ag315
ag561
asg28
g950
sg30
g573
sg32
g33
sg34
g57
sg36
(iread_data
Room
p1057
(dp1058
g28
g262
sg30
g263
sbsbaa(lp1059
(ischedule
Activity
p1060
(dp1061
g8
(lp1062
g140
ag897
ag651
ag898
ag419
ag899
ag248
ag127
ag171
ag900
ag588
ag282
ag315
ag725
ag365
ag338
ag65
ag901
ag104
ag214
asg28
g812
sg30
g813
sg32
g33
sg34
g57
sg36
(iread_data
Room
p1063
(dp1064
g28
g193
sg30
g194
sbsba(ischedule
Activity
p1065
(dp1066
g8
(lp1067
g137
ag402
ag404
ag209
ag407
ag52
ag413
ag414
ag415
ag417
ag91
ag418
ag419
ag420
ag422
ag325
ag425
ag178
ag428
ag430
ag433
ag249
ag436
ag310
ag439
ag12
ag50
ag444
ag235
ag443
ag163
ag334
ag411
ag431
ag429
asg28
g1016
sg30
g445
sg32
g56
sg34
g35
sg36
(iread_data
Room
p1068
(dp1069
g28
g75
sg30
g76
sbsba(ischedule
Activity
p1070
(dp1071
g8
(lp1072
g133
ag267
ag115
ag223
aS'87210640'
p1073
ag293
ag122
ag506
aS'45660925'
p1074
ag481
aS'76393508'
p1075
ag165
aS'58736785'
p1076
ag89
ag303
ag218
ag26
ag610
ag406
ag228
ag126
ag283
ag285
aS'53775014'
p1077
ag570
ag255
ag650
ag347
ag596
ag268
ag206
aS'20830477'
p1078
ag623
aS'4353500'
p1079
ag982
aS'97417002'
p1080
aS'79879876'
p1081
ag67
ag834
ag233
ag143
ag380
aS'31897288'
p1082
ag291
asg28
I1000
sg30
S'Heuristieken 1'
p1083
sg32
g105
sg34
I0
sg36
(iread_data
Room
p1084
(dp1085
g28
g262
sg30
g263
sbsba(ischedule
Activity
p1086
(dp1087
g8
(lp1088
g200
ag94
ag208
ag213
ag216
ag219
ag222
ag226
ag229
ag233
ag179
ag97
ag236
ag240
ag228
ag16
ag202
ag84
asg28
g54
sg30
g55
sg32
g56
sg34
g540
sg36
(iread_data
Room
p1089
(dp1090
g28
g356
sg30
g357
sbsba(ischedule
Activity
p1091
(dp1092
g8
(lp1093
g83
ag101
ag755
ag267
ag803
ag802
ag163
asg28
g71
sg30
g72
sg32
g33
sg34
g35
sg36
(iread_data
Room
p1094
(dp1095
g28
g108
sg30
g109
sbsba(ischedule
Activity
p1096
(dp1097
g8
(lp1098
g484
ag202
asg28
S'10'
p1099
sg30
g602
sg32
g33
sg34
g57
sg36
(iread_data
Room
p1100
(dp1101
g28
g60
sg30
g61
sbsbaa(lp1102
(ischedule
Activity
p1103
(dp1104
g8
g198
sg28
I1000
sg30
g55
sg32
g105
sg34
I0
sg36
g37
sba(ischedule
Activity
p1105
(dp1106
g8
(lp1107
g403
ag405
ag408
ag411
ag412
ag333
ag27
ag416
ag173
ag129
ag290
ag200
ag157
ag427
ag302
ag429
ag431
ag432
ag434
ag435
ag25
ag437
ag183
ag440
ag442
ag137
ag422
ag401
ag52
ag425
ag443
ag420
ag415
asg28
g954
sg30
g445
sg32
g33
sg34
g57
sg36
g574
sba(ischedule
Activity
p1108
(dp1109
g8
(lp1110
g504
ag158
ag231
ag716
aS'59887191'
p1111
ag137
ag389
aS'25557516'
p1112
ag770
ag983
ag416
ag1079
ag228
aS'16912993'
p1113
ag103
asg28
g679
sg30
g680
sg32
g33
sg34
g540
sg36
(iread_data
Room
p1114
(dp1115
g28
g262
sg30
g263
sbsba(ischedule
Activity
p1116
(dp1117
g8
(lp1118
g587
ag388
ag249
ag283
ag586
ag97
ag599
ag375
ag621
ag309
ag874
asg28
g339
sg30
g340
sg32
g33
sg34
g35
sg36
(iread_data
Room
p1119
(dp1120
g28
g193
sg30
g194
sbsba(ischedule
Activity
p1121
(dp1122
g8
g873
sg28
I1000
sg30
g340
sg32
g105
sg34
I0
sg36
(iread_data
Room
p1123
(dp1124
g28
g75
sg30
g76
sbsba(ischedule
Activity
p1125
(dp1126
g8
(lp1127
g456
ag271
ag457
ag380
ag166
ag459
ag460
ag462
ag270
ag419
ag458
asg28
g742
sg30
g273
sg32
g33
sg34
g35
sg36
(iread_data
Room
p1128
(dp1129
g28
g60
sg30
g61
sbsbaaa(lp1130
(lp1131
(ischedule
Activity
p1132
(dp1133
g8
(lp1134
g226
ag966
ag369
ag471
ag473
aS'5590289'
p1135
ag215
ag209
ag89
ag267
ag124
aS'64246605'
p1136
ag294
ag439
ag875
ag363
asg28
g679
sg30
g680
sg32
g33
sg34
g35
sg36
g497
sba(ischedule
Activity
p1137
(dp1138
g8
(lp1139
g225
aS'34691309'
p1140
ag381
aS'32183908'
p1141
ag149
ag167
ag484
ag255
ag405
ag421
aS'63939720'
p1142
ag114
ag401
asg28
g538
sg30
g539
sg32
g33
sg34
g57
sg36
g574
sba(ischedule
Activity
p1143
(dp1144
g8
g514
sg28
I1000
sg30
g273
sg32
g105
sg34
I0
sg36
(iread_data
Room
p1145
(dp1146
g28
g262
sg30
g263
sbsba(ischedule
Activity
p1147
(dp1148
g8
(lp1149
g783
ag784
ag279
ag487
ag159
ag13
ag786
ag249
ag463
ag87
ag231
ag702
ag189
ag224
ag788
ag124
ag504
ag284
ag789
ag790
ag405
ag792
ag793
ag218
ag280
ag794
ag795
ag650
ag178
ag422
ag436
ag796
ag152
ag213
ag785
ag114
ag787
ag791
ag251
asg28
g728
sg30
g729
sg32
g56
sg34
g35
sg36
(iread_data
Room
p1150
(dp1151
g28
g39
sg30
g40
sbsba(ischedule
Activity
p1152
(dp1153
g8
(lp1154
g333
ag554
ag250
ag44
ag558
ag560
ag564
ag566
ag569
ag570
ag571
ag295
ag572
ag20
ag563
ag557
ag565
ag91
asg28
S'20'
p1155
sg30
g573
sg32
g56
sg34
g57
sg36
(iread_data
Room
p1156
(dp1157
g28
g356
sg30
g357
sbsba(ischedule
Activity
p1158
(dp1159
g8
(lp1160
g164
ag175
ag280
ag281
ag282
ag222
ag98
ag285
ag287
ag289
ag291
ag130
ag293
ag295
ag296
ag298
ag300
ag218
ag305
ag307
ag308
ag181
ag310
ag92
ag313
ag314
ag316
ag317
ag319
ag215
ag66
ag200
ag321
ag322
ag323
ag325
ag297
ag81
ag288
ag23
ag301
ag155
ag304
ag279
ag16
ag309
asg28
g921
sg30
g326
sg32
g33
sg34
g35
sg36
(iread_data
Room
p1161
(dp1162
g28
g60
sg30
g61
sbsba(ischedule
Activity
p1163
(dp1164
g8
(lp1165
g115
ag122
ag1074
ag1075
ag1076
ag26
ag126
ag650
ag596
ag982
ag834
ag1082
ag610
ag1079
ag623
ag267
ag206
ag218
ag570
ag481
ag165
asg28
S'25'
p1166
sg30
g1083
sg32
g56
sg34
g35
sg36
(iread_data
Room
p1167
(dp1168
g28
g75
sg30
g76
sbsbaa(lp1169
(ischedule
Activity
p1170
(dp1171
g8
(lp1172
g203
ag647
aS'15249775'
p1173
ag849
aS'35315956'
p1174
ag21
ag598
ag704
ag247
ag608
aS'72652638'
p1175
ag487
ag253
aS'82968410'
p1176
ag755
ag1082
ag219
ag702
ag101
ag473
ag149
aS'52304977'
p1177
ag521
ag10
ag224
ag189
aS'5739011'
p1178
ag382
ag1076
ag173
ag386
ag295
asg28
I1000
sg30
S'Heuristieken 2'
p1179
sg32
g105
sg34
I0
sg36
(iread_data
Room
p1180
(dp1181
g28
g39
sg30
g40
sbsba(ischedule
Activity
p1182
(dp1183
g8
g873
sg28
I1000
sg30
g340
sg32
g105
sg34
I0
sg36
(iread_data
Room
p1184
(dp1185
g28
g356
sg30
g357
sbsba(ischedule
Activity
p1186
(dp1187
g8
(lp1188
g890
ag425
ag610
ag403
ag700
ag848
ag809
ag721
ag401
ag758
ag424
ag901
ag810
ag315
ag717
ag897
asg28
g946
sg30
g813
sg32
g56
sg34
g540
sg36
(iread_data
Room
p1189
(dp1190
g28
g75
sg30
g76
sbsba(ischedule
Activity
p1191
(dp1192
g8
(lp1193
g347
ag163
ag441
ag657
ag429
ag65
asg28
g841
sg30
g72
sg32
g56
sg34
g57
sg36
(iread_data
Room
p1194
(dp1195
g28
g193
sg30
g194
sbsba(ischedule
Activity
p1196
(dp1197
g8
g480
sg28
I1000
sg30
g490
sg32
g105
sg34
I0
sg36
(iread_data
Room
p1198
(dp1199
g28
g262
sg30
g263
sbsba(ischedule
Activity
p1200
(dp1201
g8
(lp1202
g223
ag293
ag506
ag89
ag228
ag283
ag1077
ag255
ag347
ag268
ag1078
ag1080
ag67
ag233
ag380
ag143
ag133
ag285
ag1081
ag406
ag1073
ag303
ag291
asg28
g1166
sg30
g1083
sg32
g56
sg34
g57
sg36
(iread_data
Room
p1203
(dp1204
g28
g108
sg30
g109
sbsba(ischedule
Activity
p1205
(dp1206
g8
g1028
sg28
I1000
sg30
g1040
sg32
g105
sg34
I0
sg36
(iread_data
Room
p1207
(dp1208
g28
g60
sg30
g61
sbsbaa(lp1209
(ischedule
Activity
p1210
(dp1211
g8
(lp1212
g44
ag205
ag210
ag47
ag48
ag49
ag50
ag225
ag228
ag51
ag236
ag84
ag226
ag240
ag218
ag201
asg28
g666
sg30
g55
sg32
g33
sg34
g57
sg36
g707
sba(ischedule
Activity
p1213
(dp1214
g8
(lp1215
g405
ag45
ag610
ag219
ag174
ag650
ag935
ag932
ag722
ag394
ag442
ag389
ag845
ag230
ag846
ag854
ag101
ag724
ag565
ag760
ag208
ag651
ag441
ag100
ag847
ag855
ag824
ag672
ag625
ag247
ag700
ag933
ag848
ag52
ag84
ag127
ag25
ag599
ag849
ag699
ag788
ag165
ag458
ag65
ag236
ag485
ag850
ag677
ag851
ag201
ag852
ag756
ag145
ag70
ag335
ag410
ag853
ag597
ag102
ag171
ag20
ag713
ag674
ag374
ag26
ag172
ag429
ag536
ag104
ag215
ag227
ag934
asg28
I1000
sg30
g857
sg32
g105
sg34
I0
sg36
g497
sba(ischedule
Activity
p1216
(dp1217
g8
(lp1218
g595
ag85
ag598
ag363
ag389
ag504
ag255
ag123
ag601
ag599
ag413
ag558
ag600
ag596
ag567
ag597
ag44
ag482
asg28
g1099
sg30
g602
sg32
g33
sg34
g35
sg36
g37
sba(ischedule
Activity
p1219
(dp1220
g8
(lp1221
g634
ag635
ag285
ag636
ag384
ag332
ag637
ag177
ag588
ag488
ag271
ag305
ag638
ag130
ag290
ag27
ag229
ag622
ag154
ag419
asg28
g614
sg30
g615
sg32
g56
sg34
g35
sg36
(iread_data
Room
p1222
(dp1223
g28
g108
sg30
g109
sbsba(ischedule
Activity
p1224
(dp1225
g8
(lp1226
g387
ag52
ag1173
ag22
ag124
ag554
ag854
aS'39905995'
p1227
ag292
ag370
ag151
ag121
ag239
ag229
ag439
ag312
aS'63096281'
p1228
ag458
ag351
aS'73196865'
p1229
ag284
ag789
asg28
g257
sg30
g258
sg32
g33
sg34
g540
sg36
(iread_data
Room
p1230
(dp1231
g28
g356
sg30
g357
sbsba(ischedule
Activity
p1232
(dp1233
g8
(lp1234
g646
ag647
ag123
ag300
ag321
ag875
ag648
ag230
ag758
ag649
ag142
ag650
ag651
ag226
ag183
ag279
ag588
ag145
ag459
ag306
ag165
asg28
g339
sg30
g340
sg32
g33
sg34
g540
sg36
(iread_data
Room
p1235
(dp1236
g28
g75
sg30
g76
sbsbaa(lp1237
(ischedule
Activity
p1238
(dp1239
g8
(lp1240
g139
ag434
ag423
aS'73893840'
p1241
ag569
ag1081
ag165
aS'90296821'
p1242
ag180
ag211
ag609
ag95
ag268
ag13
ag368
ag404
aS'88263855'
p1243
asg28
g257
sg30
g258
sg32
g33
sg34
S'6'
p1244
sg36
g37
sba(ischedule
Activity
p1245
(dp1246
g8
(lp1247
g45
ag553
ag315
ag555
ag311
ag203
ag561
ag80
ag567
ag568
ag369
ag382
ag49
ag552
ag306
ag485
ag556
ag185
ag562
ag159
ag559
asg28
g1155
sg30
g573
sg32
g56
sg34
g35
sg36
g241
sba(ischedule
Activity
p1248
(dp1249
g8
(lp1250
g647
ag21
ag608
ag1176
ag1082
ag702
ag189
ag1174
ag219
ag473
ag295
ag386
ag755
ag521
ag203
ag598
ag247
ag224
ag1076
ag1175
ag382
asg28
S'20'
p1251
sg30
g1179
sg32
g56
sg34
g57
sg36
(iread_data
Room
p1252
(dp1253
g28
g60
sg30
g61
sbsba(ischedule
Activity
p1254
(dp1255
g8
(lp1256
g505
ag367
ag25
ag205
ag984
ag209
ag440
ag287
ag24
ag281
ag521
ag788
ag127
aS'51791169'
p1257
aS'10702778'
p1258
aS'54395877'
p1259
ag758
ag470
ag848
ag313
ag524
ag1078
asg28
g257
sg30
g258
sg32
g33
sg34
g57
sg36
(iread_data
Room
p1260
(dp1261
g28
g108
sg30
g109
sbsba(ischedule
Activity
p1262
(dp1263
g8
g963
sg28
I1000
sg30
g969
sg32
g105
sg34
I0
sg36
(iread_data
Room
p1264
(dp1265
g28
g262
sg30
g263
sbsba(ischedule
Activity
p1266
(dp1267
g8
(lp1268
g201
ag206
ag209
ag212
ag214
ag217
ag220
ag223
ag230
ag174
ag22
ag237
ag239
ag234
ag203
ag232
ag225
asg28
g54
sg30
g55
sg32
g56
sg34
g259
sg36
(iread_data
Room
p1269
(dp1270
g28
g193
sg30
g194
sbsbaa(lp1271
(ischedule
Activity
p1272
(dp1273
g8
(lp1274
g253
ag101
ag149
ag1178
ag10
ag1177
ag173
ag1173
ag849
ag704
ag487
asg28
g1251
sg30
g1179
sg32
g56
sg34
g35
sg36
(iread_data
Room
p1275
(dp1276
g28
g60
sg30
g61
sbsba(ischedule
Activity
p1277
(dp1278
g8
g833
sg28
I1000
sg30
g353
sg32
g105
sg34
I0
sg36
(iread_data
Room
p1279
(dp1280
g28
g75
sg30
g76
sbsba(ischedule
Activity
p1281
(dp1282
g8
(lp1283
g387
ag140
ag811
ag651
ag898
ag419
ag248
ag127
ag171
ag282
ag725
ag365
ag208
ag227
ag299
ag885
ag889
ag427
ag460
ag888
ag367
asg28
g946
sg30
g813
sg32
g56
sg34
g57
sg36
(iread_data
Room
p1284
(dp1285
g28
g108
sg30
g109
sbsba(ischedule
Activity
p1286
(dp1287
g8
g801
sg28
I1000
sg30
g72
sg32
g105
sg34
I0
sg36
(iread_data
Room
p1288
(dp1289
g28
g193
sg30
g194
sbsba(ischedule
Activity
p1290
(dp1291
g8
(lp1292
g135
ag18
ag66
ag158
ag563
ag595
ag365
ag175
ag820
ag986
ag821
ag334
ag828
ag487
ag503
asg28
g705
sg30
g706
sg32
g33
sg34
g35
sg36
(iread_data
Room
p1293
(dp1294
g28
g262
sg30
g263
sbsba(ischedule
Activity
p1295
(dp1296
g8
g112
sg28
I1000
sg30
g190
sg32
g105
sg34
I0
sg36
(iread_data
Room
p1297
(dp1298
g28
g39
sg30
g40
sbsbaaa(lp1299
(lp1300
a(lp1301
a(lp1302
a(lp1303
a(lp1304
aasS'timeslot_dict'
p1305
(dp1306
I0
S'9:00-11:00'
p1307
sI1
S'11:00-13:00'
p1308
sI2
S'13:00-15:00'
p1309
sI3
S'15:00-17:00'
p1310
sI4
S'17:00-19:00'
p1311
ssS'day_dict'
p1312
(dp1313
I0
S'Monday'
p1314
sI1
S'Tuesday'
p1315
sI2
S'Wednesday'
p1316
sI3
S'Thursday'
p1317
sI4
S'Friday'
p1318
ssb.