(ischedule
Schedule
p0
(dp1
S'timetable'
p2
(lp3
(lp4
(lp5
(ischedule
Activity
p6
(dp7
S'participants'
p8
(lp9
S'75521763'
p10
aS'18266644'
p11
aS'70878567'
p12
aS'23983476'
p13
aS'36748818'
p14
aS'68315599'
p15
aS'11459236'
p16
aS'44901052'
p17
aS'17496687'
p18
aS'92977271'
p19
aS'58332004'
p20
aS'19958553'
p21
aS'32204977'
p22
aS'29718115'
p23
aS'77636749'
p24
aS'13116738'
p25
aS'8557857'
p26
aS'62701040'
p27
asS'capacity'
p28
S'15'
p29
sS'name'
p30
S'Informatie- en organsatieontwerp'
p31
sS'ttype'
p32
S'labs'
p33
sS'group_id'
p34
S'1'
p35
sS'room'
p36
(iread_data
Room
p37
(dp38
g28
S'22'
p39
sg30
S'A1.06'
p40
sbsba(ischedule
Activity
p41
(dp42
g8
(lp43
S'81200278'
p44
aS'21964491'
p45
aS'50143947'
p46
aS'17823206'
p47
aS'45414528'
p48
aS'37744525'
p49
aS'68360259'
p50
aS'19337738'
p51
aS'91196968'
p52
aS'74131924'
p53
aS'25330192'
p54
aS'93023961'
p55
aS'59753700'
p56
aS'99453514'
p57
asg28
S'10'
p58
sg30
S'Data Mining'
p59
sg32
S'tutorials'
p60
sg34
S'2'
p61
sg36
(iread_data
Room
p62
(dp63
g28
S'20'
p64
sg30
S'A1.08'
p65
sbsba(ischedule
Activity
p66
(dp67
g8
(lp68
S'4546613'
p69
aS'45915482'
p70
aS'58253841'
p71
aS'4783858'
p72
aS'16097870'
p73
aS'33760909'
p74
aS'77306636'
p75
aS'74182182'
p76
aS'87602030'
p77
aS'63634350'
p78
aS'27064249'
p79
aS'6913074'
p80
aS'86180471'
p81
aS'33672995'
p82
aS'21029457'
p83
aS'56544130'
p84
aS'79617364'
p85
aS'97135019'
p86
aS'56348773'
p87
aS'10609762'
p88
aS'27187154'
p89
aS'58699305'
p90
aS'65408517'
p91
aS'62363761'
p92
aS'47932106'
p93
aS'23565001'
p94
aS'46570285'
p95
aS'82412626'
p96
aS'14816774'
p97
aS'23658570'
p98
aS'14303208'
p99
aS'24875739'
p100
aS'56872729'
p101
aS'78735049'
p102
aS'6723948'
p103
aS'47477884'
p104
aS'81155296'
p105
aS'9731271'
p106
aS'31306819'
p107
aS'55530367'
p108
aS'38179241'
p109
aS'75446434'
p110
aS'5615125'
p111
aS'6709529'
p112
aS'53585410'
p113
aS'27298319'
p114
aS'93361408'
p115
aS'58040377'
p116
aS'40141996'
p117
aS'79167252'
p118
aS'38296757'
p119
aS'96054456'
p120
aS'78443067'
p121
aS'61520025'
p122
aS'58592894'
p123
aS'37279234'
p124
aS'3678531'
p125
aS'88752563'
p126
aS'58469172'
p127
aS'86000192'
p128
aS'73302736'
p129
aS'19717077'
p130
aS'44868097'
p131
aS'51741554'
p132
aS'70939718'
p133
aS'27925117'
p134
aS'55412918'
p135
aS'62105897'
p136
aS'73823548'
p137
aS'75623387'
p138
aS'12091019'
p139
aS'75585647'
p140
aS'83415514'
p141
aS'85335143'
p142
aS'46701583'
p143
aS'48357272'
p144
aS'65978354'
p145
aS'11593163'
p146
aS'72665524'
p147
aS'10149535'
p148
aS'53139134'
p149
aS'15902055'
p150
aS'87900893'
p151
aS'86807027'
p152
aS'10792879'
p153
aS'79888156'
p154
aS'94686490'
p155
aS'34173695'
p156
aS'76661016'
p157
aS'6939933'
p158
aS'59220392'
p159
aS'83266686'
p160
aS'28957789'
p161
aS'64600457'
p162
aS'32705005'
p163
aS'72526473'
p164
aS'22168693'
p165
aS'75997788'
p166
aS'14591033'
p167
aS'88855695'
p168
aS'26260141'
p169
aS'80188025'
p170
aS'78544592'
p171
aS'64228258'
p172
aS'14179347'
p173
aS'23628642'
p174
asg28
I1000
sg30
S'Calculus 2'
p175
sg32
S'lectures'
p176
sg34
I0
sg36
(iread_data
Room
p177
(dp178
g28
S'117'
p179
sg30
S'C0.110'
p180
sbsba(ischedule
Activity
p181
(dp182
g8
(lp183
S'45556081'
p184
aS'29640619'
p185
aS'87758823'
p186
aS'3233378'
p187
aS'64393888'
p188
aS'54310617'
p189
aS'86291592'
p190
aS'60312776'
p191
aS'76123484'
p192
aS'61443567'
p193
aS'72577292'
p194
aS'96104167'
p195
aS'17575088'
p196
asg28
S'20'
p197
sg30
S'Collectieve Intelligentie'
p198
sg32
g60
sg34
S'3'
p199
sg36
(iread_data
Room
p200
(dp201
g28
S'41'
p202
sg30
S'A1.04'
p203
sbsba(ischedule
Activity
p204
(dp205
g8
(lp206
S'37399898'
p207
aS'57086672'
p208
aS'78136904'
p209
aS'52715680'
p210
aS'86988337'
p211
aS'60661905'
p212
aS'27950803'
p213
aS'51415617'
p214
aS'27370083'
p215
aS'32044893'
p216
aS'22826928'
p217
aS'49922855'
p218
aS'77392404'
p219
aS'96554914'
p220
aS'4709948'
p221
asg28
S'20'
p222
sg30
S'Reflectie op de digitale cultuur'
p223
sg32
g60
sg34
g35
sg36
(iread_data
Room
p224
(dp225
g28
S'56'
p226
sg30
S'A1.10'
p227
sbsba(ischedule
Activity
p228
(dp229
g8
(lp230
S'51566595'
p231
aS'72796858'
p232
ag81
ag185
aS'26207525'
p233
aS'52552718'
p234
aS'40434933'
p235
aS'37701751'
p236
aS'64296965'
p237
aS'11996292'
p238
aS'39459642'
p239
aS'49631542'
p240
aS'83869542'
p241
aS'56749879'
p242
aS'57467488'
p243
aS'25077484'
p244
aS'17092717'
p245
aS'3168419'
p246
aS'43902015'
p247
aS'26406342'
p248
aS'23257088'
p249
aS'43027916'
p250
aS'51542218'
p251
aS'46989508'
p252
aS'77896638'
p253
aS'60352393'
p254
aS'54540997'
p255
aS'5085194'
p256
aS'56121590'
p257
asg28
S'40'
p258
sg30
S'Databases 2'
p259
sg32
g60
sg34
g61
sg36
(iread_data
Room
p260
(dp261
g28
S'48'
p262
sg30
S'B0.201'
p263
sbsba(ischedule
Activity
p264
(dp265
g8
(lp266
S'81385263'
p267
ag207
aS'48308205'
p268
aS'61060652'
p269
aS'34243356'
p270
aS'38499176'
p271
aS'16333449'
p272
aS'66570705'
p273
aS'4921119'
p274
aS'55474917'
p275
aS'35330349'
p276
ag85
aS'58866007'
p277
aS'3474870'
p278
ag101
ag148
aS'75005528'
p279
ag76
aS'36508571'
p280
aS'670011'
p281
aS'42115591'
p282
aS'21311067'
p283
aS'42196732'
p284
aS'81218347'
p285
aS'94955328'
p286
aS'80709893'
p287
aS'42778953'
p288
aS'62872965'
p289
ag155
aS'90743504'
p290
aS'36527838'
p291
aS'68409833'
p292
ag186
ag167
aS'96118484'
p293
aS'16011419'
p294
aS'34588570'
p295
aS'93566383'
p296
ag52
ag94
aS'5517869'
p297
aS'31416266'
p298
ag73
aS'52311353'
p299
ag253
aS'71839156'
p300
aS'32595335'
p301
aS'54074680'
p302
aS'79937969'
p303
aS'80998260'
p304
aS'26172512'
p305
ag135
aS'83210352'
p306
aS'41578612'
p307
asg28
I1000
sg30
S'Lineaire Algebra'
p308
sg32
g176
sg34
I0
sg36
(iread_data
Room
p309
(dp310
g28
S'60'
p311
sg30
S'C1.112'
p312
sbsbaa(lp313
(ischedule
Activity
p314
(dp315
g8
(lp316
g193
ag189
ag184
ag128
ag172
ag276
ag194
aS'24277163'
p317
ag46
ag27
ag185
aS'22699561'
p318
ag195
aS'28357474'
p319
ag196
aS'37770881'
p320
aS'29474737'
p321
ag74
aS'82689818'
p322
aS'57595888'
p323
aS'1696500'
p324
aS'1665980'
p325
ag288
aS'48601268'
p326
ag187
ag297
aS'53107172'
p327
ag298
ag72
aS'7308727'
p328
aS'77240949'
p329
ag237
aS'65960683'
p330
ag86
aS'25106480'
p331
ag10
ag132
ag191
aS'58522654'
p332
aS'50184318'
p333
ag45
ag150
aS'13534377'
p334
ag250
ag188
aS'9332762'
p335
ag186
aS'23547619'
p336
ag253
aS'73980360'
p337
ag248
aS'17222374'
p338
aS'46052388'
p339
aS'13092455'
p340
ag284
aS'68601184'
p341
aS'34773179'
p342
aS'1075391'
p343
aS'42171678'
p344
ag190
ag192
asg28
I1000
sg30
g198
sg32
g176
sg34
I0
sg36
(iread_data
Room
p345
(dp346
g28
g226
sg30
g227
sbsba(ischedule
Activity
p347
(dp348
g8
(lp349
g286
ag11
aS'59544049'
p350
ag209
aS'8522855'
p351
aS'47605891'
p352
aS'59075181'
p353
aS'63955238'
p354
ag282
aS'99272880'
p355
aS'20239127'
p356
ag251
aS'23798155'
p357
aS'31247305'
p358
aS'84524083'
p359
aS'20883994'
p360
aS'39919665'
p361
aS'23391676'
p362
aS'63408522'
p363
ag120
aS'47462856'
p364
ag95
aS'72547110'
p365
aS'69086548'
p366
aS'97019450'
p367
aS'97371272'
p368
ag285
aS'31633723'
p369
aS'39659121'
p370
ag100
aS'10872825'
p371
ag270
ag153
ag271
aS'91139627'
p372
aS'38329455'
p373
aS'20331158'
p374
aS'36903574'
p375
ag89
ag111
ag167
aS'14671406'
p376
aS'37498675'
p377
ag20
ag161
aS'11915563'
p378
aS'82688900'
p379
aS'79858178'
p380
aS'61518436'
p381
ag237
aS'65003379'
p382
aS'3685034'
p383
aS'79366078'
p384
aS'39230359'
p385
aS'76924297'
p386
aS'84110134'
p387
aS'94467156'
p388
aS'14398123'
p389
ag275
aS'56988998'
p390
ag242
ag52
ag102
ag76
ag240
aS'51186803'
p391
aS'7492204'
p392
aS'5368702'
p393
aS'44940353'
p394
ag127
ag24
ag163
ag106
aS'89338938'
p395
ag47
ag189
aS'41585485'
p396
ag332
aS'22731474'
p397
aS'41527759'
p398
aS'54569540'
p399
ag329
ag78
aS'34262212'
p400
asg28
I1000
sg30
S'Kansrekenen 2'
p401
sg32
g176
sg34
I0
sg36
(iread_data
Room
p402
(dp403
g28
g179
sg30
g180
sbsba(ischedule
Activity
p404
(dp405
g8
(lp406
g393
ag267
ag207
ag336
aS'2550487'
p407
aS'19214659'
p408
ag236
aS'34765676'
p409
aS'65675896'
p410
aS'69634191'
p411
aS'20374340'
p412
aS'3707829'
p413
aS'44828429'
p414
aS'28055464'
p415
aS'14847953'
p416
ag44
ag296
aS'21677389'
p417
ag386
ag69
ag157
aS'64768422'
p418
aS'66034145'
p419
ag105
ag109
asg28
I1000
sg30
S'Interactie-ontwerp'
p420
sg32
g176
sg34
I0
sg36
(iread_data
Room
p421
(dp422
g28
g202
sg30
g203
sbsba(ischedule
Activity
p423
(dp424
g8
(lp425
g152
ag166
ag79
aS'62613937'
p426
ag194
aS'1886996'
p427
aS'40633534'
p428
aS'92665222'
p429
ag246
aS'28618400'
p430
asg28
S'10'
p431
sg30
S'Advanced Heuristics'
p432
sg32
g33
sg34
g35
sg36
(iread_data
Room
p433
(dp434
g28
g39
sg30
g40
sbsba(ischedule
Activity
p435
(dp436
g8
(lp437
g53
ag49
ag25
ag57
ag44
aS'81022997'
p438
ag56
ag45
aS'37110913'
p439
ag151
ag46
ag50
ag54
ag299
ag47
ag48
aS'98780382'
p440
ag51
aS'22323043'
p441
aS'13996448'
p442
ag12
aS'97136582'
p443
aS'87314964'
p444
aS'66122625'
p445
ag52
ag55
ag231
asg28
I1000
sg30
g59
sg32
g176
sg34
I0
sg36
(iread_data
Room
p446
(dp447
g28
g262
sg30
g263
sbsbaa(lp448
(ischedule
Activity
p449
(dp450
g8
(lp451
g191
ag279
ag158
ag340
ag152
ag137
asg28
S'15'
p452
sg30
S'Project Numerical Recipes'
p453
sg32
g33
sg34
g35
sg36
(iread_data
Room
p454
(dp455
g28
g202
sg30
g203
sbsba(ischedule
Activity
p456
(dp457
g8
(lp458
g126
aS'34691309'
p459
ag397
aS'7957843'
p460
aS'90103047'
p461
ag407
aS'62356458'
p462
aS'77831658'
p463
ag408
aS'42406214'
p464
ag288
aS'72895450'
p465
asg28
g452
sg30
g453
sg32
g33
sg34
g61
sg36
(iread_data
Room
p466
(dp467
g28
g64
sg30
g65
sbsba(ischedule
Activity
p468
(dp469
g8
(lp470
g239
ag53
ag73
ag232
aS'34806836'
p471
aS'54026378'
p472
aS'22871048'
p473
ag17
ag234
aS'19858730'
p474
asg28
S'10'
p475
sg30
S'Autonomous Agents 2'
p476
sg32
g33
sg34
g61
sg36
(iread_data
Room
p477
(dp478
g28
g39
sg30
g40
sbsba(ischedule
Activity
p479
(dp480
g8
(lp481
g271
ag113
ag46
aS'13911001'
p482
ag248
aS'3407554'
p483
ag323
aS'11068043'
p484
aS'89985072'
p485
aS'14138904'
p486
aS'14383795'
p487
ag147
aS'1695839'
p488
aS'23215240'
p489
aS'25994016'
p490
asg28
S'15'
p491
sg30
S'Compilerbouw practicum'
p492
sg32
g33
sg34
g199
sg36
(iread_data
Room
p493
(dp494
g28
g179
sg30
g180
sbsba(ischedule
Activity
p495
(dp496
g8
(lp497
S'43680781'
p498
ag439
ag22
ag238
aS'14309255'
p499
ag15
ag142
aS'4697362'
p500
ag10
aS'93041523'
p501
ag336
aS'70336464'
p502
aS'6249823'
p503
aS'7106649'
p504
ag395
aS'21192048'
p505
aS'77264363'
p506
aS'92496780'
p507
ag441
ag235
aS'12430748'
p508
asg28
S'20'
p509
sg30
S'Technology for games'
p510
sg32
g60
sg34
g61
sg36
(iread_data
Room
p511
(dp512
g28
g226
sg30
g227
sbsba(ischedule
Activity
p513
(dp514
g8
(lp515
S'24613625'
p516
ag213
ag388
ag173
ag307
aS'75680261'
p517
ag389
ag81
ag244
aS'51673172'
p518
ag320
aS'84449005'
p519
asg28
S'15'
p520
sg30
S'Project Genetic Algorithms'
p521
sg32
g33
sg34
g199
sg36
(iread_data
Room
p522
(dp523
g28
g311
sg30
g312
sbsba(ischedule
Activity
p524
(dp525
g8
(lp526
g351
ag438
aS'33930505'
p527
aS'59887191'
p528
ag185
ag106
ag243
aS'53267490'
p529
ag375
aS'66120270'
p530
aS'16912993'
p531
ag430
ag254
ag86
ag443
aS'62736669'
p532
aS'75664412'
p533
ag92
ag133
ag49
aS'82872148'
p534
ag417
ag270
aS'12170832'
p535
ag132
asg28
S'20'
p536
sg30
S'Netwerken en systeembeveiliging'
p537
sg32
g33
sg34
S'4'
p538
sg36
(iread_data
Room
p539
(dp540
g28
g262
sg30
g263
sbsbaa(lp541
(ischedule
Activity
p542
(dp543
g8
(lp544
g207
ag340
aS'87830198'
p545
aS'68286356'
p546
aS'51052738'
p547
ag213
aS'33776961'
p548
ag381
ag359
ag307
aS'70193386'
p549
ag399
ag208
aS'99975346'
p550
aS'82390428'
p551
ag209
aS'27805666'
p552
ag473
ag519
ag254
aS'36213792'
p553
ag119
aS'13658563'
p554
ag220
ag210
aS'92778619'
p555
ag57
ag219
ag218
ag464
aS'13718298'
p556
aS'90474003'
p557
aS'70844780'
p558
ag498
ag217
ag215
ag211
ag216
aS'36785409'
p559
aS'77960666'
p560
ag317
ag383
ag212
ag214
ag80
ag439
aS'20095994'
p561
ag56
aS'5298748'
p562
ag221
ag356
asg28
I1000
sg30
g223
sg32
g176
sg34
I0
sg36
(iread_data
Room
p563
(dp564
g28
g311
sg30
g312
sbsba(ischedule
Activity
p565
(dp566
g8
(lp567
g438
ag241
ag550
ag208
aS'15249775'
p568
ag397
ag78
ag231
ag427
ag77
aS'35315956'
p569
aS'5739011'
p570
aS'82968410'
p571
ag193
aS'5976174'
p572
aS'72652638'
p573
ag44
aS'48678993'
p574
ag250
ag116
aS'58736785'
p575
ag359
ag281
aS'78243495'
p576
ag504
aS'85236626'
p577
ag134
ag409
ag74
aS'52304977'
p578
ag73
aS'31897288'
p579
asg28
I1000
sg30
S'Heuristieken 2'
p580
sg32
g176
sg34
I0
sg36
(iread_data
Room
p581
(dp582
g28
g226
sg30
g227
sbsba(ischedule
Activity
p583
(dp584
g8
(lp585
g70
ag73
ag79
ag82
ag85
ag88
ag97
ag103
ag115
ag121
ag124
ag133
ag142
ag145
ag148
ag151
ag157
ag160
ag163
ag166
ag162
ag144
ag111
ag125
ag156
ag105
ag158
ag90
ag75
ag122
ag112
ag81
ag146
ag155
ag104
ag109
ag84
ag93
ag95
ag141
ag74
asg28
S'40'
p586
sg30
g175
sg32
g60
sg34
g61
sg36
(iread_data
Room
p587
(dp588
g28
g262
sg30
g263
sbsba(ischedule
Activity
p589
(dp590
g8
(lp591
g10
ag24
ag18
ag19
ag27
ag554
ag140
ag25
ag249
ag14
ag11
ag21
ag12
ag23
ag16
ag15
ag13
ag26
ag17
ag20
ag22
asg28
I1000
sg30
g31
sg32
g176
sg34
I0
sg36
(iread_data
Room
p592
(dp593
g28
g202
sg30
g203
sbsba(ischedule
Activity
p594
(dp595
g8
(lp596
S'12077419'
p597
aS'15911353'
p598
ag253
aS'34872117'
p599
ag190
ag15
ag330
ag267
aS'1766560'
p600
aS'5595824'
p601
ag103
ag153
aS'75599734'
p602
aS'43689934'
p603
aS'13284244'
p604
aS'54772132'
p605
ag288
ag483
aS'48503689'
p606
ag232
ag213
aS'65852230'
p607
ag460
aS'2317551'
p608
ag378
ag533
aS'11741347'
p609
ag157
ag89
ag320
aS'98105190'
p610
aS'66701209'
p611
aS'73236988'
p612
ag516
aS'95007221'
p613
aS'2079771'
p614
aS'30658799'
p615
aS'40791377'
p616
aS'80135353'
p617
aS'79033175'
p618
aS'31194811'
p619
ag429
ag239
ag482
aS'34110913'
p620
ag359
ag393
aS'49683101'
p621
aS'53202517'
p622
aS'44391517'
p623
aS'88636924'
p624
aS'95631564'
p625
ag499
ag160
aS'8464817'
p626
ag252
ag191
ag332
aS'9067939'
p627
ag211
aS'75759231'
p628
ag168
ag118
ag126
ag270
aS'76802764'
p629
ag268
aS'94687383'
p630
ag465
asg28
I1000
sg30
S'Compilerbouw'
p631
sg32
g176
sg34
I0
sg36
(iread_data
Room
p632
(dp633
g28
g179
sg30
g180
sbsba(ischedule
Activity
p634
(dp635
g8
(lp636
g280
ag297
ag231
asg28
S'10'
p637
sg30
g476
sg32
g60
sg34
g61
sg36
(iread_data
Room
p638
(dp639
g28
g39
sg30
g40
sbsba(ischedule
Activity
p640
(dp641
g8
(lp642
g114
ag234
ag471
aS'70113753'
p643
asg28
g637
sg30
g476
sg32
g60
sg34
g199
sg36
(iread_data
Room
p644
(dp645
g28
g64
sg30
g65
sbsbaa(lp646
(ischedule
Activity
p647
(dp648
g8
(lp649
g232
ag73
ag378
ag53
ag239
ag289
ag473
ag439
ag472
ag474
aS'88627897'
p650
ag17
ag292
ag462
aS'61611295'
p651
asg28
g637
sg30
g476
sg32
g60
sg34
g35
sg36
(iread_data
Room
p652
(dp653
g28
g202
sg30
g203
sbsba(ischedule
Activity
p654
(dp655
g8
(lp656
S'76487754'
p657
ag619
ag441
ag498
ag503
ag439
ag235
ag505
ag501
ag22
ag17
ag238
ag559
aS'47982619'
p658
ag533
ag499
aS'58565406'
p659
ag15
ag336
ag395
ag508
ag368
ag10
ag487
ag506
ag142
ag24
ag507
ag248
ag307
ag500
ag335
ag366
ag268
ag504
ag502
ag597
ag148
asg28
I1000
sg30
g510
sg32
g176
sg34
I0
sg36
g260
sba(ischedule
Activity
p660
(dp661
g8
(lp662
S'43460038'
p663
aS'10698627'
p664
ag416
aS'28358060'
p665
ag385
ag247
ag235
ag503
aS'2416751'
p666
ag194
ag193
aS'33877725'
p667
ag79
aS'94930277'
p668
ag245
ag99
aS'76903244'
p669
aS'1137946'
p670
aS'20618153'
p671
aS'76648468'
p672
ag219
aS'53512831'
p673
aS'67073567'
p674
ag192
ag172
ag278
aS'89180944'
p675
aS'41790793'
p676
ag622
aS'49908313'
p677
aS'22288615'
p678
ag272
ag419
ag465
ag208
aS'24891081'
p679
aS'69459473'
p680
ag111
ag576
asg28
I1000
sg30
S'Webprogrammeren en databases'
p681
sg32
g176
sg34
I0
sg36
g345
sba(ischedule
Activity
p682
(dp683
g8
(lp684
g498
ag297
aS'3883025'
p685
ag615
ag123
aS'41489515'
p686
aS'29526540'
p687
ag338
ag344
ag142
ag20
aS'48198668'
p688
aS'18144425'
p689
ag675
ag166
ag548
aS'1181560'
p690
ag95
ag10
asg28
S'20'
p691
sg30
S'Moderne Databases'
p692
sg32
g33
sg34
g199
sg36
(iread_data
Room
p693
(dp694
g28
g64
sg30
g65
sbsba(ischedule
Activity
p695
(dp696
g8
(lp697
S'51509565'
p698
ag113
ag597
ag351
aS'66433883'
p699
ag413
aS'64947290'
p700
ag267
ag13
ag247
ag210
ag376
aS'23652927'
p701
aS'88596522'
p702
ag322
aS'40343779'
p703
ag143
aS'21095566'
p704
ag231
ag572
ag46
aS'96453361'
p705
ag243
aS'91527663'
p706
ag398
ag45
aS'67817269'
p707
ag150
ag123
ag396
ag409
ag211
aS'19540225'
p708
ag209
ag169
ag278
aS'77376714'
p709
ag414
ag325
aS'64554442'
p710
ag375
ag465
ag114
asg28
I1000
sg30
S'Algoritmen en complexiteit'
p711
sg32
g176
sg34
I0
sg36
(iread_data
Room
p712
(dp713
g28
g311
sg30
g312
sbsba(ischedule
Activity
p714
(dp715
g8
(lp716
S'59111489'
p717
aS'78821918'
p718
ag333
ag14
ag317
ag240
ag171
ag609
ag90
asg28
g691
sg30
g692
sg32
g33
sg34
g61
sg36
(iread_data
Room
p719
(dp720
g28
g179
sg30
g180
sbsba(ischedule
Activity
p721
(dp722
g8
(lp723
S'41644639'
p724
aS'74361881'
p725
ag300
aS'82066165'
p726
ag16
asg28
g491
sg30
g492
sg32
g33
sg34
g61
sg36
(iread_data
Room
p727
(dp728
g28
g39
sg30
g40
sbsbaaa(lp729
(lp730
(ischedule
Activity
p731
(dp732
g8
(lp733
g333
ag166
ag291
ag95
ag615
ag609
aS'49219163'
p734
asg28
S'20'
p735
sg30
g692
sg32
g60
sg34
g61
sg36
(iread_data
Room
p736
(dp737
g28
g64
sg30
g65
sbsba(ischedule
Activity
p738
(dp739
g8
(lp740
g27
ag328
ag284
ag172
ag319
ag318
ag297
ag339
ag332
ag321
ag329
ag45
ag276
ag344
ag72
ag335
ag334
asg28
g197
sg30
g198
sg32
g60
sg34
g61
sg36
(iread_data
Room
p741
(dp742
g28
g226
sg30
g227
sbsba(ischedule
Activity
p743
(dp744
g8
(lp745
g322
ag430
ag277
ag184
ag23
ag134
ag663
ag675
ag148
ag621
ag194
ag160
ag235
ag357
aS'70015932'
p746
ag374
aS'72683344'
p747
aS'13798030'
p748
ag599
ag486
aS'59289233'
p749
asg28
I1000
sg30
S'Architectuur en computerorganisatie'
p750
sg32
g176
sg34
I0
sg36
(iread_data
Room
p751
(dp752
g28
g311
sg30
g312
sbsba(ischedule
Activity
p753
(dp754
g8
(lp755
g570
ag573
ag359
ag576
ag250
ag572
ag116
ag504
ag281
ag579
ag569
ag78
ag577
ag438
ag571
ag44
ag550
ag409
asg28
S'20'
p756
sg30
g580
sg32
g60
sg34
g61
sg36
(iread_data
Room
p757
(dp758
g28
g262
sg30
g263
sbsba(ischedule
Activity
p759
(dp760
g8
(lp761
g128
ag317
ag324
ag45
ag193
ag10
ag248
ag150
asg28
S'20'
p762
sg30
g198
sg32
g33
sg34
g538
sg36
(iread_data
Room
p763
(dp764
g28
g202
sg30
g203
sbsba(ischedule
Activity
p765
(dp766
g8
(lp767
g232
ag53
ag462
ag471
ag472
ag651
ag73
ag231
ag114
ag643
ag474
ag292
ag439
ag650
ag234
ag17
ag289
ag239
ag280
ag297
ag473
ag378
asg28
I1000
sg30
g476
sg32
g176
sg34
I0
sg36
(iread_data
Room
p768
(dp769
g28
g179
sg30
g180
sbsba(ischedule
Activity
p770
(dp771
g8
(lp772
S'123355'
p773
ag271
ag574
aS'19058315'
p774
aS'1048485'
p775
ag11
ag358
ag703
ag219
aS'5590289'
p776
ag460
asg28
g536
sg30
g537
sg32
g33
sg34
g35
sg36
(iread_data
Room
p777
(dp778
g28
g39
sg30
g40
sbsbaa(lp779
(ischedule
Activity
p780
(dp781
g8
(lp782
S'247918'
p783
ag167
ag53
aS'56815156'
p784
ag12
ag142
ag332
aS'30195935'
p785
ag472
ag284
ag498
ag83
ag360
ag120
aS'88176729'
p786
ag397
ag612
ag622
ag484
ag162
aS'4568018'
p787
ag463
ag242
ag530
ag485
ag516
ag350
ag667
ag246
ag44
ag131
ag562
ag705
ag85
ag80
aS'30050930'
p788
ag217
ag97
ag45
ag527
ag328
ag103
aS'28359697'
p789
aS'15051051'
p790
ag687
asg28
I1000
sg30
S'Bioinformatica'
p791
sg32
g176
sg34
I0
sg36
(iread_data
Room
p792
(dp793
g28
g311
sg30
g312
sbsba(ischedule
Activity
p794
(dp795
g8
(lp796
g275
ag555
ag49
ag560
ag103
ag152
aS'64053722'
p797
ag13
aS'63111000'
p798
ag396
aS'51791169'
p799
ag120
ag98
aS'34900967'
p800
asg28
S'20'
p801
sg30
S'Programmeren in Java 2'
p802
sg32
g33
sg34
S'5'
p803
sg36
(iread_data
Room
p804
(dp805
g28
g202
sg30
g203
sbsba(ischedule
Activity
p806
(dp807
g8
g767
sg28
I1000
sg30
g476
sg32
g176
sg34
I0
sg36
(iread_data
Room
p808
(dp809
g28
g39
sg30
g40
sbsba(ischedule
Activity
p810
(dp811
g8
(lp812
g46
ag324
ag253
ag132
ag322
ag336
ag340
asg28
g197
sg30
g198
sg32
g60
sg34
g35
sg36
(iread_data
Room
p813
(dp814
g28
g64
sg30
g65
sbsba(ischedule
Activity
p815
(dp816
g8
(lp817
g15
ag267
ag605
ag607
ag533
ag157
ag611
ag618
ag429
ag359
ag621
ag623
ag160
ag252
ag332
ag211
ag126
ag619
ag626
ag615
ag597
ag483
ag604
ag270
ag620
ag320
ag499
ag627
ag624
ag465
ag601
ag628
ag288
ag603
ag191
ag598
ag599
ag625
ag460
ag118
ag609
ag613
ag268
ag630
ag629
ag602
ag616
ag608
ag610
ag190
ag482
asg28
S'40'
p818
sg30
g631
sg32
g60
sg34
g61
sg36
(iread_data
Room
p819
(dp820
g28
g226
sg30
g227
sbsba(ischedule
Activity
p821
(dp822
g8
(lp823
S'63096281'
p824
ag249
ag700
ag355
aS'44671041'
p825
ag150
ag341
ag775
ag136
ag664
ag48
ag678
aS'79879876'
p826
ag113
ag666
ag392
ag89
ag362
ag388
ag617
ag141
aS'70072978'
p827
ag699
ag271
ag658
aS'12782624'
p828
asg28
g801
sg30
g802
sg32
g33
sg34
S'6'
p829
sg36
(iread_data
Room
p830
(dp831
g28
g179
sg30
g180
sbsba(ischedule
Activity
p832
(dp833
g8
(lp834
g574
ag134
ag545
ag428
asg28
g520
sg30
g521
sg32
g33
sg34
g35
sg36
(iread_data
Room
p835
(dp836
g28
g262
sg30
g263
sbsbaa(lp837
(ischedule
Activity
p838
(dp839
g8
g316
sg28
I1000
sg30
g198
sg32
g176
sg34
I0
sg36
(iread_data
Room
p840
(dp841
g28
g311
sg30
g312
sbsba(ischedule
Activity
p842
(dp843
g8
(lp844
g140
ag17
ag249
ag18
ag19
ag14
ag21
ag25
ag15
ag20
ag22
ag16
ag11
ag554
asg28
S'15'
p845
sg30
g31
sg32
g60
sg34
g61
sg36
(iread_data
Room
p846
(dp847
g28
g39
sg30
g40
sbsba(ischedule
Activity
p848
(dp849
g8
(lp850
g398
ag485
aS'99283252'
p851
ag121
ag187
ag499
ag131
aS'3727435'
p852
ag709
ag625
ag659
aS'9287708'
p853
ag299
ag441
ag70
ag667
ag275
ag292
aS'27582862'
p854
ag213
ag220
ag282
ag663
ag388
aS'58074656'
p855
ag484
ag144
aS'51593625'
p856
ag72
aS'14072826'
p857
ag473
ag703
aS'41153310'
p858
ag306
ag825
ag534
ag234
ag169
asg28
S'40'
p859
sg30
S'Software engineering'
p860
sg32
g33
sg34
g35
sg36
(iread_data
Room
p861
(dp862
g28
g202
sg30
g203
sbsba(ischedule
Activity
p863
(dp864
g8
(lp865
g786
ag622
ag705
ag498
ag783
ag44
ag80
ag516
ag784
ag103
ag162
ag527
ag142
ag85
asg28
S'20'
p866
sg30
g791
sg32
g60
sg34
g199
sg36
(iread_data
Room
p867
(dp868
g28
g226
sg30
g227
sbsba(ischedule
Activity
p869
(dp870
g8
(lp871
g167
ag12
ag612
ag242
ag97
ag787
ag788
ag360
ag120
ag789
asg28
S'20'
p872
sg30
g791
sg32
g33
sg34
g61
sg36
(iread_data
Room
p873
(dp874
g28
g262
sg30
g263
sbsbaa(lp875
(ischedule
Activity
p876
(dp877
g8
(lp878
S'88597745'
p879
ag239
ag608
ag162
ag190
ag19
ag217
ag207
ag367
ag854
ag606
aS'20830477'
p880
asg28
g801
sg30
g802
sg32
g33
sg34
g538
sg36
(iread_data
Room
p881
(dp882
g28
g226
sg30
g227
sbsba(ischedule
Activity
p883
(dp884
g8
g782
sg28
I1000
sg30
g791
sg32
g176
sg34
I0
sg36
(iread_data
Room
p885
(dp886
g28
g311
sg30
g312
sbsba(ischedule
Activity
p887
(dp888
g8
g745
sg28
I1000
sg30
g750
sg32
g176
sg34
I0
sg36
(iread_data
Room
p889
(dp890
g28
g202
sg30
g203
sbsba(ischedule
Activity
p891
(dp892
g8
(lp893
g503
ag668
ag416
ag172
ag385
ag666
ag247
ag678
ag272
ag673
ag278
ag208
ag193
ag671
asg28
S'20'
p894
sg30
g681
sg32
g33
sg34
g61
sg36
(iread_data
Room
p895
(dp896
g28
g64
sg30
g65
sbsba(ischedule
Activity
p897
(dp898
g8
(lp899
g439
ag462
ag231
ag292
ag378
ag643
ag280
ag650
asg28
g475
sg30
g476
sg32
g33
sg34
g35
sg36
(iread_data
Room
p900
(dp901
g28
g179
sg30
g180
sbsba(ischedule
Activity
p902
(dp903
g8
(lp904
g128
ag317
ag320
ag298
ag237
ag10
ag333
ag250
ag338
ag341
ag331
ag150
ag325
ag343
ag330
ag74
ag337
ag342
ag327
ag86
ag323
ag288
ag248
ag326
asg28
g197
sg30
g198
sg32
g60
sg34
g538
sg36
(iread_data
Room
p905
(dp906
g28
g262
sg30
g263
sbsba(ischedule
Activity
p907
(dp908
g8
(lp909
g856
aS'54395877'
p910
aS'7386961'
p911
ag104
ag116
ag47
ag118
ag296
ag630
ag407
ag274
aS'73196865'
p912
ag253
asg28
g801
sg30
g802
sg32
g33
sg34
g61
sg36
(iread_data
Room
p913
(dp914
g28
g39
sg30
g40
sbsbaa(lp915
(ischedule
Activity
p916
(dp917
g8
(lp918
g747
ag209
ag360
aS'39429093'
p919
ag426
ag427
ag152
ag336
ag429
ag430
ag194
ag254
ag166
ag558
ag416
ag246
ag104
ag147
ag79
ag428
asg28
I1000
sg30
g432
sg32
g176
sg34
I0
sg36
(iread_data
Room
p920
(dp921
g28
g64
sg30
g65
sbsba(ischedule
Activity
p922
(dp923
g8
g349
sg28
I1000
sg30
g401
sg32
g176
sg34
I0
sg36
(iread_data
Room
p924
(dp925
g28
g179
sg30
g180
sbsba(ischedule
Activity
p926
(dp927
g8
(lp928
S'27916487'
p929
ag364
ag499
ag121
ag576
aS'27241113'
p930
ag15
ag291
ag851
ag162
ag798
ag238
ag221
ag734
ag600
aS'51650744'
p931
aS'66621166'
p932
ag160
ag709
aS'96082155'
p933
ag790
ag482
ag141
aS'13218321'
p934
ag827
ag519
asg28
g691
sg30
g692
sg32
g33
sg34
g35
sg36
(iread_data
Room
p935
(dp936
g28
g202
sg30
g203
sbsba(ischedule
Activity
p937
(dp938
g8
(lp939
g441
ag12
ag438
ag444
ag442
ag25
ag439
ag151
ag440
ag445
ag443
ag231
asg28
g58
sg30
g59
sg32
g60
sg34
g35
sg36
g345
sba(ischedule
Activity
p940
(dp941
g8
g316
sg28
I1000
sg30
g198
sg32
g176
sg34
I0
sg36
(iread_data
Room
p942
(dp943
g28
g311
sg30
g312
sbsba(ischedule
Activity
p944
(dp945
g8
(lp946
g299
asg28
g58
sg30
g59
sg32
g60
sg34
g199
sg36
g260
sba(ischedule
Activity
p947
(dp948
g8
(lp949
g53
ag142
ag786
ag44
ag705
ag667
asg28
g872
sg30
g791
sg32
g33
sg34
g199
sg36
(iread_data
Room
p950
(dp951
g28
g39
sg30
g40
sbsbaaa(lp952
(lp953
(ischedule
Activity
p954
(dp955
g8
g596
sg28
I1000
sg30
g631
sg32
g176
sg34
I0
sg36
(iread_data
Room
p956
(dp957
g28
g311
sg30
g312
sbsba(ischedule
Activity
p958
(dp959
g8
(lp960
g825
ag185
ag398
ag136
ag485
ag326
ag210
ag856
ag129
ag675
ag663
ag395
ag306
ag775
ag213
ag169
ag378
ag144
ag46
ag292
ag857
ag387
ag851
ag269
ag331
ag388
ag121
ag191
ag855
ag72
ag187
ag602
ag275
ag786
ag376
ag220
ag499
ag703
ag131
ag49
ag556
ag70
ag852
aS'37830626'
p961
aS'65318664'
p962
ag369
ag709
ag282
ag625
aS'31103066'
p963
ag319
ag858
ag462
ag704
ag659
ag576
ag854
ag472
ag612
ag787
ag572
ag350
ag853
ag534
ag69
ag234
ag299
ag484
ag473
ag91
ag358
ag287
ag746
ag667
ag441
asg28
I1000
sg30
g860
sg32
g176
sg34
I0
sg36
(iread_data
Room
p964
(dp965
g28
g179
sg30
g180
sbsba(ischedule
Activity
p966
(dp967
g8
g656
sg28
I1000
sg30
g510
sg32
g176
sg34
I0
sg36
(iread_data
Room
p968
(dp969
g28
g202
sg30
g203
sbsba(ischedule
Activity
p970
(dp971
g8
(lp972
g47
ag45
ag56
ag55
ag51
asg28
S'10'
p973
sg30
g59
sg32
g33
sg34
g35
sg36
(iread_data
Room
p974
(dp975
g28
g64
sg30
g65
sbsba(ischedule
Activity
p976
(dp977
g8
(lp978
g134
ag74
ag73
ag574
ag231
ag208
ag193
ag575
ag568
ag578
ag241
ag397
ag427
ag77
asg28
g756
sg30
g580
sg32
g60
sg34
g35
sg36
(iread_data
Room
p979
(dp980
g28
g39
sg30
g40
sbsba(ischedule
Activity
p981
(dp982
g8
(lp983
g274
ag97
ag532
ag560
ag101
ag93
aS'27123462'
p984
ag120
ag137
ag322
ag297
ag599
ag104
ag117
ag139
aS'15187217'
p985
ag20
ag718
aS'58083680'
p986
aS'13132925'
p987
ag155
ag783
ag98
ag192
ag557
ag827
ag284
ag317
aS'59397895'
p988
ag279
aS'5526560'
p989
ag211
aS'4529208'
p990
aS'72456780'
p991
ag340
ag281
ag700
ag338
ag123
ag687
aS'56191333'
p992
ag126
ag706
asg28
g258
sg30
g259
sg32
g60
sg34
g35
sg36
(iread_data
Room
p993
(dp994
g28
g262
sg30
g263
sbsbaa(lp995
(ischedule
Activity
p996
(dp997
g8
(lp998
g324
ag474
ag473
aS'83443653'
p999
ag610
aS'4353500'
p1000
ag668
ag243
aS'87210640'
p1001
ag787
ag439
ag10
ag344
ag17
ag486
ag575
aS'53775014'
p1002
ag19
ag353
ag97
aS'97417002'
p1003
ag554
ag166
ag374
ag285
aS'14941752'
p1004
ag441
ag144
aS'76393508'
p1005
ag579
ag167
ag238
ag269
ag72
ag880
aS'45660925'
p1006
ag375
ag445
ag300
ag826
ag367
ag327
ag242
ag152
asg28
I1000
sg30
S'Heuristieken 1'
p1007
sg32
g176
sg34
I0
sg36
(iread_data
Room
p1008
(dp1009
g28
g179
sg30
g180
sbsba(ischedule
Activity
p1010
(dp1011
g8
(lp1012
g663
ag235
ag219
ag675
ag622
ag419
ag194
ag79
ag680
ag665
ag667
ag664
ag245
ag465
ag670
ag679
ag676
ag111
ag576
ag669
ag674
ag192
ag677
ag99
ag672
asg28
g894
sg30
g681
sg32
g33
sg34
g35
sg36
(iread_data
Room
p1013
(dp1014
g28
g262
sg30
g263
sbsba(ischedule
Activity
p1015
(dp1016
g8
(lp1017
g119
ag329
aS'67625383'
p1018
aS'90067329'
p1019
ag357
ag89
ag239
aS'33252501'
p1020
ag390
ag383
ag614
ag577
ag621
ag798
aS'26857113'
p1021
ag381
ag572
ag790
ag616
ag388
ag143
ag49
asg28
I1000
sg30
S'Machine Learning'
p1022
sg32
g176
sg34
I0
sg36
(iread_data
Room
p1023
(dp1024
g28
g226
sg30
g227
sbsba(ischedule
Activity
p1025
(dp1026
g8
(lp1027
g209
ag336
ag416
ag360
ag147
ag558
ag254
ag919
ag747
ag104
asg28
g431
sg30
g432
sg32
g33
sg34
g61
sg36
(iread_data
Room
p1028
(dp1029
g28
g311
sg30
g312
sbsbaa(lp1030
(ischedule
Activity
p1031
(dp1032
g8
(lp1033
g90
ag338
ag166
ag929
ag344
ag240
ag933
ag931
ag10
ag364
ag238
ag317
ag499
ag20
ag498
ag121
ag123
ag709
ag687
ag717
ag798
ag576
ag600
ag519
ag160
ag615
ag297
ag686
ag734
ag548
ag930
ag221
ag690
ag15
ag718
ag482
ag934
ag95
ag685
ag689
ag162
ag851
ag291
ag333
ag688
ag171
ag142
ag932
ag609
ag141
ag790
ag827
ag14
ag675
asg28
I1000
sg30
g692
sg32
g176
sg34
I0
sg36
(iread_data
Room
p1034
(dp1035
g28
g179
sg30
g180
sbsba(ischedule
Activity
p1036
(dp1037
g8
(lp1038
g185
ag136
ag326
ag675
ag775
ag387
ag269
ag191
ag602
ag786
ag49
ag576
ag472
ag787
ag350
ag91
ag129
ag319
ag378
ag369
ag287
ag746
ag704
ag556
ag962
ag612
ag376
ag395
ag358
ag331
ag572
ag961
ag46
ag462
ag210
ag69
ag963
asg28
g859
sg30
g860
sg32
g33
sg34
g61
sg36
(iread_data
Room
p1039
(dp1040
g28
g226
sg30
g227
sbsba(ischedule
Activity
p1041
(dp1042
g8
(lp1043
g445
ag44
ag299
ag439
ag12
ag444
ag151
ag443
ag57
ag441
asg28
g973
sg30
g59
sg32
g33
sg34
g199
sg36
(iread_data
Room
p1044
(dp1045
g28
g39
sg30
g40
sbsba(ischedule
Activity
p1046
(dp1047
g8
(lp1048
g15
ag153
ag483
ag157
ag611
ag516
ag614
ag618
ag359
ag160
ag332
ag211
ag629
ag630
ag267
ag190
ag460
ag103
ag607
ag601
ag288
ag625
ag89
ag118
ag617
ag612
ag393
ag627
ag608
asg28
S'40'
p1049
sg30
g631
sg32
g33
sg34
g61
sg36
(iread_data
Room
p1050
(dp1051
g28
g311
sg30
g312
sbsba(ischedule
Activity
p1052
(dp1053
g8
(lp1054
g172
ag46
ag72
ag330
ag132
ag329
ag276
ag189
ag334
ag343
ag325
ag338
ag194
ag298
ag86
ag27
ag328
asg28
g762
sg30
g198
sg32
g33
sg34
g35
sg36
(iread_data
Room
p1055
(dp1056
g28
g64
sg30
g65
sbsba(ischedule
Activity
p1057
(dp1058
g8
(lp1059
g487
ag559
ag533
ag307
ag248
ag657
ag335
ag24
ag268
ag619
ag658
ag17
ag148
ag659
ag366
ag597
ag368
asg28
g509
sg30
g510
sg32
g60
sg34
g35
sg36
g260
sbaa(lp1060
(ischedule
Activity
p1061
(dp1062
g8
g437
sg28
I1000
sg30
g59
sg32
g176
sg34
I0
sg36
(iread_data
Room
p1063
(dp1064
g28
g179
sg30
g180
sbsba(ischedule
Activity
p1065
(dp1066
g8
(lp1067
g77
ag83
ag92
ag98
ag101
ag107
ag110
ag113
ag116
ag128
ag131
ag137
ag152
ag167
ag170
ag173
ag153
ag91
ag169
ag130
ag69
ag139
ag76
ag72
ag71
ag140
ag86
ag138
ag164
ag154
ag135
ag161
ag96
asg28
g586
sg30
g175
sg32
g60
sg34
g199
sg36
(iread_data
Room
p1068
(dp1069
g28
g311
sg30
g312
sbsba(ischedule
Activity
p1070
(dp1071
g8
(lp1072
g219
ag622
ag208
ag680
ag385
ag665
ag503
ag674
ag193
ag675
ag79
ag679
ag465
ag676
ag668
ag272
ag667
ag247
ag664
ag666
ag669
ag671
ag678
ag416
ag278
ag677
ag245
ag670
ag235
asg28
S'20'
p1073
sg30
g681
sg32
g60
sg34
g35
sg36
(iread_data
Room
p1074
(dp1075
g28
g262
sg30
g263
sbsba(ischedule
Activity
p1076
(dp1077
g8
(lp1078
g90
ag929
ag499
ag121
ag687
ag576
ag686
ag171
ag317
ag20
ag123
ag141
ag827
ag238
ag930
ag364
ag790
ag14
ag338
ag675
ag690
ag162
ag482
ag709
ag718
ag519
ag142
ag688
ag685
ag717
ag851
asg28
g735
sg30
g692
sg32
g60
sg34
g35
sg36
(iread_data
Room
p1079
(dp1080
g28
g226
sg30
g227
sbsba(ischedule
Activity
p1081
(dp1082
g8
(lp1083
g184
ag196
ag327
ag331
ag186
ag284
ag344
ag333
ag74
ag339
ag341
ag340
ag185
ag320
ag321
ag195
ag297
ag342
ag253
ag337
ag318
ag335
asg28
g762
sg30
g198
sg32
g33
sg34
g199
sg36
(iread_data
Room
p1084
(dp1085
g28
g39
sg30
g40
sbsba(ischedule
Activity
p1086
(dp1087
g8
(lp1088
g191
ag326
ag187
ag336
ag332
ag288
ag322
ag188
ag237
ag319
ag250
ag190
ag323
ag192
asg28
g762
sg30
g198
sg32
g33
sg34
g61
sg36
g935
sba(ischedule
Activity
p1089
(dp1090
g8
(lp1091
g210
ag22
aS'47260040'
p1092
aS'51472074'
p1093
aS'91250534'
p1094
ag702
ag78
ag518
aS'535689'
p1095
aS'44151631'
p1096
ag410
ag256
aS'5892092'
p1097
ag787
aS'55103073'
p1098
ag99
ag355
aS'64418623'
p1099
aS'42297781'
p1100
ag325
asg28
g491
sg30
g492
sg32
g33
sg34
g35
sg36
(iread_data
Room
p1101
(dp1102
g28
g64
sg30
g65
sbsbaa(lp1103
(ischedule
Activity
p1104
(dp1105
g8
(lp1106
g1000
ag243
ag787
ag10
ag17
ag374
ag144
ag579
ag238
ag72
ag327
ag167
ag441
ag445
ag668
ag285
ag473
ag300
ag826
ag344
ag1006
ag269
ag439
ag880
ag486
ag367
ag1003
ag166
ag1005
ag19
ag554
ag242
ag152
ag575
ag324
ag353
ag610
ag999
ag1002
ag1004
asg28
S'25'
p1107
sg30
g1007
sg32
g60
sg34
g61
sg36
(iread_data
Room
p1108
(dp1109
g28
g202
sg30
g203
sbsba(ischedule
Activity
p1110
(dp1111
g8
g406
sg28
I1000
sg30
g420
sg32
g176
sg34
I0
sg36
g493
sba(ischedule
Activity
p1112
(dp1113
g8
(lp1114
g783
ag784
ag332
ag284
ag397
ag485
ag131
ag217
ag350
ag328
ag527
ag484
ag562
ag785
ag246
ag83
ag80
ag687
ag516
ag790
ag85
ag45
ag463
ag162
ag472
ag103
ag498
ag530
ag622
asg28
g872
sg30
g791
sg32
g33
sg34
g35
sg36
(iread_data
Room
p1115
(dp1116
g28
g311
sg30
g312
sbsba(ischedule
Activity
p1117
(dp1118
g8
(lp1119
g858
ag211
ag221
ag335
ag128
ag45
ag124
ag127
aS'88519892'
p1120
ag375
ag143
ag577
ag548
ag489
ag281
aS'39905995'
p1121
aS'88263855'
p1122
ag623
ag27
asg28
g801
sg30
g802
sg32
g33
sg34
g35
sg36
(iread_data
Room
p1123
(dp1124
g28
g39
sg30
g40
sbsba(ischedule
Activity
p1125
(dp1126
g8
(lp1127
g49
ag46
ag231
ag50
ag438
ag48
ag442
ag52
ag54
ag440
ag53
ag25
asg28
g973
sg30
g59
sg32
g33
sg34
g61
sg36
(iread_data
Room
p1128
(dp1129
g28
g262
sg30
g263
sbsba(ischedule
Activity
p1130
(dp1131
g8
(lp1132
g651
ag114
ag297
ag289
asg28
g475
sg30
g476
sg32
g33
sg34
g199
sg36
g345
sbaaa(lp1133
(lp1134
(ischedule
Activity
p1135
(dp1136
g8
(lp1137
g10
ag798
ag297
ag221
ag934
ag160
ag933
ag344
ag15
ag932
ag548
ag600
ag240
ag931
ag689
ag498
asg28
g735
sg30
g692
sg32
g60
sg34
g199
sg36
(iread_data
Room
p1138
(dp1139
g28
g64
sg30
g65
sbsba(ischedule
Activity
p1140
(dp1141
g8
g662
sg28
I1000
sg30
g681
sg32
g176
sg34
I0
sg36
(iread_data
Room
p1142
(dp1143
g28
g226
sg30
g227
sbsba(ischedule
Activity
p1144
(dp1145
g8
(lp1146
g12
ag120
ag612
ag242
ag246
ag562
ag97
ag328
ag167
ag787
ag83
ag788
ag790
ag350
ag789
ag332
ag484
ag360
ag530
ag53
asg28
g866
sg30
g791
sg32
g60
sg34
g61
sg36
(iread_data
Room
p1147
(dp1148
g28
g39
sg30
g40
sbsba(ischedule
Activity
p1149
(dp1150
g8
(lp1151
g698
ag13
ag210
ag46
ag243
ag169
ag465
ag704
ag278
ag247
ag710
ag708
ag114
ag113
ag267
ag414
ag322
ag325
ag209
ag375
ag396
ag211
ag143
asg28
S'25'
p1152
sg30
g711
sg32
g60
sg34
g35
sg36
(iread_data
Room
p1153
(dp1154
g28
g311
sg30
g312
sbsba(ischedule
Activity
p1155
(dp1156
g8
(lp1157
g351
ag706
ag409
ag398
ag709
ag597
ag699
ag45
ag150
ag231
ag702
ag376
ag413
ag123
ag705
ag701
ag707
ag700
ag703
ag572
asg28
g1152
sg30
g711
sg32
g60
sg34
g61
sg36
(iread_data
Room
p1158
(dp1159
g28
g202
sg30
g203
sbsba(ischedule
Activity
p1160
(dp1161
g8
(lp1162
g140
ag249
ag554
asg28
g29
sg30
g31
sg32
g33
sg34
g61
sg36
(iread_data
Room
p1163
(dp1164
g28
g262
sg30
g263
sbsba(ischedule
Activity
p1165
(dp1166
g8
(lp1167
g166
ag574
ag286
ag545
ag212
ag559
ag549
ag463
ag473
ag170
ag307
aS'73350019'
p1168
ag962
ag11
ag94
ag991
ag601
ag84
ag256
ag426
ag237
aS'58480929'
p1169
ag274
ag129
aS'78822885'
p1170
ag73
aS'97838175'
p1171
ag208
ag251
ag999
ag784
ag367
ag144
aS'18477924'
p1172
ag800
aS'14637758'
p1173
aS'72586808'
p1174
ag270
ag98
ag142
ag299
aS'82854435'
p1175
ag357
ag282
ag556
ag82
ag718
aS'88737765'
p1176
ag250
asg28
I1000
sg30
S'Analysemethoden en -technieken'
p1177
sg32
g176
sg34
I0
sg36
g493
sbaa(lp1178
(ischedule
Activity
p1179
(dp1180
g8
g782
sg28
I1000
sg30
g791
sg32
g176
sg34
I0
sg36
(iread_data
Room
p1181
(dp1182
g28
g179
sg30
g180
sbsba(ischedule
Activity
p1183
(dp1184
g8
g544
sg28
I1000
sg30
g223
sg32
g176
sg34
I0
sg36
g345
sba(ischedule
Activity
p1185
(dp1186
g8
(lp1187
g386
ag157
ag725
ag331
ag718
ag726
ag611
aS'55480737'
p1188
ag989
ag851
ag71
ag342
ag351
ag724
ag680
ag490
ag143
ag77
ag1176
ag292
asg28
g520
sg30
g521
sg32
g33
sg34
g61
sg36
(iread_data
Room
p1189
(dp1190
g28
g39
sg30
g40
sbsba(ischedule
Activity
p1191
(dp1192
g8
g591
sg28
I1000
sg30
g31
sg32
g176
sg34
I0
sg36
(iread_data
Room
p1193
(dp1194
g28
g262
sg30
g263
sbsba(ischedule
Activity
p1195
(dp1196
g8
(lp1197
g597
ag253
ag330
ag600
ag602
ag604
ag213
ag378
ag609
ag610
ag615
ag619
ag239
ag622
ag624
ag499
ag626
ag191
ag628
ag268
ag465
ag605
ag533
ag126
ag168
ag270
ag482
ag232
ag598
ag621
ag599
ag429
ag623
ag620
ag616
ag613
ag320
ag252
ag606
ag603
asg28
g1049
sg30
g631
sg32
g33
sg34
g35
sg36
(iread_data
Room
p1198
(dp1199
g28
g202
sg30
g203
sbsba(ischedule
Activity
p1200
(dp1201
g8
(lp1202
g194
ag576
ag192
ag672
ag663
ag99
ag172
ag673
ag111
ag419
asg28
g1073
sg30
g681
sg32
g60
sg34
g61
sg36
(iread_data
Room
p1203
(dp1204
g28
g64
sg30
g65
sbsba(ischedule
Activity
p1205
(dp1206
g8
(lp1207
g257
ag1174
ag991
ag685
aS'25557516'
p1208
ag267
ag54
ag324
ag322
ag353
ag147
ag233
ag1000
ag1095
asg28
g536
sg30
g537
sg32
g33
sg34
g61
sg36
g1153
sbaa(lp1209
(ischedule
Activity
p1210
(dp1211
g8
(lp1212
g253
ag103
ag606
ag378
ag89
ag612
ag617
ag239
ag393
ag622
ag232
ag168
ag516
ag153
ag213
ag600
ag614
ag330
asg28
g818
sg30
g631
sg32
g60
sg34
g35
sg36
(iread_data
Room
p1213
(dp1214
g28
g262
sg30
g263
sbsba(ischedule
Activity
p1215
(dp1216
g8
(lp1217
g284
ag667
ag131
ag687
ag45
ag217
ag485
ag397
ag472
ag463
ag785
asg28
g866
sg30
g791
sg32
g60
sg34
g35
sg36
(iread_data
Room
p1218
(dp1219
g28
g64
sg30
g65
sbsba(ischedule
Activity
p1220
(dp1221
g8
(lp1222
g413
ag267
ag247
ag150
ag211
ag278
ag465
ag169
ag45
ag375
ag709
ag325
ag123
ag572
ag13
ag409
ag705
ag322
ag113
ag704
ag703
ag700
ag702
ag708
ag698
asg28
S'25'
p1223
sg30
g711
sg32
g33
sg34
g61
sg36
(iread_data
Room
p1224
(dp1225
g28
g311
sg30
g312
sbsba(ischedule
Activity
p1226
(dp1227
g8
(lp1228
g399
ag473
ag57
ag558
ag559
ag549
ag546
ag562
ag548
ag554
ag119
ag307
ag317
ag254
ag550
ag464
ag552
ag439
ag519
ag383
ag556
ag498
ag340
asg28
g222
sg30
g223
sg32
g60
sg34
g199
sg36
(iread_data
Room
p1229
(dp1230
g28
g179
sg30
g180
sbsba(ischedule
Activity
p1231
(dp1232
g8
(lp1233
g286
ag242
ag442
ag605
ag52
ag20
ag643
ag125
ag193
ag188
ag212
ag78
aS'90296821'
p1234
aS'73893840'
p1235
aS'85284256'
p1236
ag626
ag106
aS'10702778'
p1237
ag1021
aS'28943658'
p1238
ag185
ag671
ag80
ag298
ag400
ag568
asg28
g801
sg30
g802
sg32
g33
sg34
g199
sg36
(iread_data
Room
p1239
(dp1240
g28
g202
sg30
g203
sbsba(ischedule
Activity
p1241
(dp1242
g8
(lp1243
g547
ag359
ag80
ag545
ag56
ag557
ag381
ag555
ag561
ag553
ag356
ag551
ag560
asg28
g222
sg30
g223
sg32
g60
sg34
g61
sg36
(iread_data
Room
p1244
(dp1245
g28
g39
sg30
g40
sbsba(ischedule
Activity
p1246
(dp1247
g8
(lp1248
g398
ag706
ag414
ag710
ag231
ag699
ag243
ag210
ag707
ag351
ag396
ag597
ag376
ag143
ag46
ag114
ag701
ag209
asg28
g1223
sg30
g711
sg32
g33
sg34
g35
sg36
(iread_data
Room
p1249
(dp1250
g28
g226
sg30
g227
sbsbaa(lp1251
(ischedule
Activity
p1252
(dp1253
g8
(lp1254
g700
ag231
ag274
ag245
ag97
ag988
ag532
ag247
ag992
ag232
ag560
ag783
ag101
ag98
ag93
ag81
ag984
ag991
ag252
ag990
ag120
ag989
ag239
ag256
ag240
ag250
ag242
ag254
ag248
ag687
ag244
ag185
ag137
ag279
ag987
ag281
ag322
ag253
ag126
ag986
ag297
ag233
ag255
ag234
ag599
ag235
ag104
ag246
ag827
ag192
ag249
ag243
ag117
ag284
ag139
ag155
ag985
ag340
ag251
ag557
ag211
ag236
ag706
ag338
ag20
ag123
ag718
ag237
ag257
ag238
ag241
ag317
asg28
I1000
sg30
g259
sg32
g176
sg34
I0
sg36
(iread_data
Room
p1255
(dp1256
g28
g179
sg30
g180
sbsba(ischedule
Activity
p1257
(dp1258
g8
(lp1259
g78
ag99
ag102
ag108
ag114
ag117
ag120
ag123
ag126
ag129
ag132
ag147
ag150
ag159
ag168
ag171
ag174
ag172
ag87
ag165
ag119
ag127
ag136
ag118
ag143
ag89
ag100
ag149
ag80
ag94
ag106
ag134
asg28
g586
sg30
g175
sg32
g60
sg34
g35
sg36
(iread_data
Room
p1260
(dp1261
g28
g262
sg30
g263
sbsba(ischedule
Activity
p1262
(dp1263
g8
(lp1264
g395
ag328
ag383
aS'32183908'
p1265
aS'19662602'
p1266
ag604
ag600
ag442
aS'63573738'
p1267
ag430
ag484
ag438
ag190
aS'37419523'
p1268
aS'63939720'
p1269
ag387
ag216
aS'81116418'
p1270
ag508
ag606
ag1004
ag268
ag612
aS'40911986'
p1271
aS'21070547'
p1272
ag76
asg28
g452
sg30
g453
sg32
g33
sg34
g199
sg36
(iread_data
Room
p1273
(dp1274
g28
g226
sg30
g227
sbsbaa(lp1275
(ischedule
Activity
p1276
(dp1277
g8
g266
sg28
I1000
sg30
g308
sg32
g176
sg34
I0
sg36
(iread_data
Room
p1278
(dp1279
g28
g179
sg30
g180
sbsba(ischedule
Activity
p1280
(dp1281
g8
(lp1282
g605
ag190
ag558
ag328
ag545
ag1267
ag17
ag1236
ag44
ag992
ag389
ag785
ag221
aS'64246605'
p1283
asg28
g536
sg30
g537
sg32
g33
sg34
g199
sg36
g260
sba(ischedule
Activity
p1284
(dp1285
g8
(lp1286
g775
ag169
ag144
ag191
ag72
ag786
ag70
ag369
ag963
ag787
ag350
ag91
ag287
ag667
ag388
ag331
ag376
ag499
ag306
ag709
ag825
ag131
ag472
ag121
ag576
ag851
ag358
ag853
ag854
ag572
ag962
ag625
ag659
ag299
ag213
ag852
ag378
ag326
ag129
ag746
ag858
ag46
ag473
ag387
ag269
ag675
ag210
ag855
ag292
asg28
S'40'
p1287
sg30
g860
sg32
g60
sg34
g61
sg36
(iread_data
Room
p1288
(dp1289
g28
g311
sg30
g312
sbsba(ischedule
Activity
p1290
(dp1291
g8
(lp1292
g375
ag1001
ag97
ag474
asg28
g1107
sg30
g1007
sg32
g60
sg34
g35
sg36
(iread_data
Room
p1293
(dp1294
g28
g202
sg30
g203
sbsba(ischedule
Activity
p1295
(dp1296
g8
g1017
sg28
I1000
sg30
g1022
sg32
g176
sg34
I0
sg36
(iread_data
Room
p1297
(dp1298
g28
g39
sg30
g40
sbsba(ischedule
Activity
p1299
(dp1300
g8
(lp1301
g663
ag857
ag187
ag275
ag556
ag462
ag69
ag441
ag136
ag185
ag856
ag612
ag395
ag534
ag704
ag602
ag485
ag234
ag220
ag282
ag703
ag49
ag398
ag484
ag319
ag961
asg28
g1287
sg30
g860
sg32
g60
sg34
g35
sg36
(iread_data
Room
p1302
(dp1303
g28
g226
sg30
g227
sbsba(ischedule
Activity
p1304
(dp1305
g8
(lp1306
g10
ag27
ag12
ag13
ag23
ag24
ag26
asg28
g845
sg30
g31
sg32
g60
sg34
g35
sg36
(iread_data
Room
p1307
(dp1308
g28
g64
sg30
g65
sbsbaaa(lp1309
(lp1310
a(lp1311
a(lp1312
a(lp1313
a(lp1314
aasS'timeslot_dict'
p1315
(dp1316
I0
S'9:00-11:00'
p1317
sI1
S'11:00-13:00'
p1318
sI2
S'13:00-15:00'
p1319
sI3
S'15:00-17:00'
p1320
sI4
S'17:00-19:00'
p1321
ssS'day_dict'
p1322
(dp1323
I0
S'Monday'
p1324
sI1
S'Tuesday'
p1325
sI2
S'Wednesday'
p1326
sI3
S'Thursday'
p1327
sI4
S'Friday'
p1328
ssb.