(ischedule
Schedule
p0
(dp1
S'timetable'
p2
(lp3
(lp4
(lp5
(ischedule
Activity
p6
(dp7
S'participants'
p8
(lp9
S'22323043'
p10
aS'89338938'
p11
aS'14309255'
p12
aS'58565406'
p13
aS'94467156'
p14
aS'60312776'
p15
aS'25106480'
p16
aS'99283252'
p17
aS'62105897'
p18
aS'28357474'
p19
aS'83210352'
p20
aS'37744525'
p21
aS'4546613'
p22
aS'75599734'
p23
aS'61060652'
p24
aS'78243495'
p25
aS'14072826'
p26
aS'42115591'
p27
aS'68409833'
p28
aS'27950803'
p29
aS'31103066'
p30
aS'21095566'
p31
aS'3233378'
p32
aS'80709893'
p33
aS'41153310'
p34
aS'65408517'
p35
aS'73302736'
p36
aS'84110134'
p37
aS'1048485'
p38
aS'44671041'
p39
aS'96554914'
p40
aS'26260141'
p41
aS'33877725'
p42
aS'27582862'
p43
aS'3727435'
p44
asS'capacity'
p45
S'40'
p46
sS'name'
p47
S'Software engineering'
p48
sS'ttype'
p49
S'labs'
p50
sS'group_id'
p51
S'2'
p52
sS'room'
p53
(iread_data
Room
p54
(dp55
g45
S'60'
p56
sg47
S'C1.112'
p57
sbsba(ischedule
Activity
p58
(dp59
g8
(lp60
S'86807027'
p61
aS'94686490'
p62
aS'73823548'
p63
aS'16097870'
p64
aS'55412918'
p65
aS'87900893'
p66
aS'14591033'
p67
aS'28957789'
p68
aS'38296757'
p69
aS'27187154'
p70
aS'75623387'
p71
aS'27064249'
p72
aS'58592894'
p73
aS'58253841'
p74
aS'97135019'
p75
aS'10792879'
p76
aS'5615125'
p77
aS'83415514'
p78
aS'47477884'
p79
aS'75446434'
p80
aS'63634350'
p81
aS'62363761'
p82
aS'3678531'
p83
aS'10609762'
p84
aS'72665524'
p85
aS'33760909'
p86
aS'24875739'
p87
aS'77306636'
p88
aS'44868097'
p89
aS'34173695'
p90
aS'22168693'
p91
aS'58469172'
p92
aS'85335143'
p93
asg45
S'40'
p94
sg47
S'Calculus 2'
p95
sg49
S'tutorials'
p96
sg51
S'3'
p97
sg53
(iread_data
Room
p98
(dp99
g45
S'41'
p100
sg47
S'A1.04'
p101
sbsba(ischedule
Activity
p102
(dp103
g8
(lp104
S'83266686'
p105
aS'58866007'
p106
aS'13798030'
p107
aS'45556081'
p108
aS'72577292'
p109
aS'59289233'
p110
aS'10149535'
p111
aS'40434933'
p112
aS'20331158'
p113
aS'27925117'
p114
aS'72683344'
p115
aS'23798155'
p116
aS'14138904'
p117
aS'28618400'
p118
aS'82689818'
p119
aS'70015932'
p120
aS'89180944'
p121
aS'43460038'
p122
aS'29718115'
p123
aS'34872117'
p124
aS'49683101'
p125
asg45
I1000
sg47
S'Architectuur en computerorganisatie'
p126
sg49
S'lectures'
p127
sg51
I0
sg53
(iread_data
Room
p128
(dp129
g45
S'56'
p130
sg47
S'A1.10'
p131
sbsba(ischedule
Activity
p132
(dp133
g8
(lp134
S'50143947'
p135
aS'51566595'
p136
aS'81385263'
p137
aS'34765676'
p138
aS'12077419'
p139
aS'5976174'
p140
aS'72895450'
p141
aS'86988337'
p142
aS'64947290'
p143
aS'41585485'
p144
aS'27298319'
p145
aS'78136904'
p146
aS'88596522'
p147
aS'36903574'
p148
aS'8522855'
p149
aS'1665980'
p150
aS'64554442'
p151
aS'3474870'
p152
aS'52715680'
p153
aS'51509565'
p154
aS'43902015'
p155
aS'91527663'
p156
aS'15902055'
p157
aS'41527759'
p158
aS'77376714'
p159
aS'53585410'
p160
aS'40343779'
p161
asg45
S'25'
p162
sg47
S'Algoritmen en complexiteit'
p163
sg49
g96
sg51
g52
sg53
(iread_data
Room
p164
(dp165
g45
S'48'
p166
sg47
S'B0.201'
p167
sbsba(ischedule
Activity
p168
(dp169
g8
(lp170
S'21964491'
p171
aS'43680781'
p172
aS'6913074'
p173
aS'96453361'
p174
aS'64600457'
p175
aS'58522654'
p176
aS'66120270'
p177
aS'15051051'
p178
aS'28359697'
p179
aS'96054456'
p180
aS'81200278'
p181
aS'11068043'
p182
aS'7308727'
p183
aS'74131924'
p184
aS'53202517'
p185
aS'30050930'
p186
aS'24613625'
p187
aS'20883994'
p188
aS'247918'
p189
aS'22731474'
p190
aS'56815156'
p191
asg45
S'20'
p192
sg47
S'Bioinformatica'
p193
sg49
g50
sg51
g97
sg53
(iread_data
Room
p194
(dp195
g45
S'22'
p196
sg47
S'A1.06'
p197
sbsba(ischedule
Activity
p198
(dp199
g8
(lp200
S'23257088'
p201
aS'18266644'
p202
aS'11459236'
p203
aS'13116738'
p204
aS'8557857'
p205
aS'62701040'
p206
aS'23983476'
p207
aS'17496687'
p208
aS'75521763'
p209
aS'68315599'
p210
aS'92977271'
p211
aS'70878567'
p212
ag123
aS'44901052'
p213
aS'77636749'
p214
aS'58332004'
p215
aS'13658563'
p216
aS'19958553'
p217
aS'36748818'
p218
aS'32204977'
p219
aS'75585647'
p220
asg45
I1000
sg47
S'Informatie- en organsatieontwerp'
p221
sg49
g127
sg51
I0
sg53
(iread_data
Room
p222
(dp223
g45
S'117'
p224
sg47
S'C0.110'
p225
sbsba(ischedule
Activity
p226
(dp227
g8
(lp228
S'84524083'
p229
aS'5368702'
p230
aS'65960683'
p231
aS'77896638'
p232
aS'75759231'
p233
aS'3407554'
p234
aS'43689934'
p235
aS'72796858'
p236
aS'79033175'
p237
aS'65852230'
p238
aS'80135353'
p239
aS'98105190'
p240
aS'37770881'
p241
aS'88855695'
p242
aS'48308205'
p243
aS'54772132'
p244
asg45
S'40'
p245
sg47
S'Compilerbouw'
p246
sg49
g96
sg51
S'1'
p247
sg53
(iread_data
Room
p248
(dp249
g45
S'20'
p250
sg47
S'A1.08'
p251
sbsbaa(lp252
(ischedule
Activity
p253
(dp254
g8
(lp255
S'42171678'
p256
ag32
ag150
ag109
aS'51741554'
p257
aS'68601184'
p258
ag19
aS'42196732'
p259
ag108
aS'76123484'
p260
aS'86291592'
p261
aS'23547619'
p262
aS'61443567'
p263
aS'22699561'
p264
aS'64296965'
p265
aS'77240949'
p266
ag135
ag75
ag171
ag157
aS'86000192'
p267
ag209
ag206
aS'57595888'
p268
aS'35330349'
p269
aS'34773179'
p270
aS'31416266'
p271
aS'13534377'
p272
ag119
aS'17222374'
p273
ag231
ag15
ag86
aS'73980360'
p274
ag16
aS'24277163'
p275
aS'9332762'
p276
aS'64393888'
p277
aS'1075391'
p278
aS'42778953'
p279
aS'17575088'
p280
aS'29474737'
p281
aS'26406342'
p282
ag183
ag232
ag176
aS'1696500'
p283
aS'4783858'
p284
aS'5517869'
p285
aS'96104167'
p286
aS'87758823'
p287
aS'48601268'
p288
aS'64228258'
p289
aS'50184318'
p290
aS'53107172'
p291
aS'46052388'
p292
ag241
aS'13092455'
p293
aS'54310617'
p294
aS'29640619'
p295
aS'43027916'
p296
asg45
I1000
sg47
S'Collectieve Intelligentie'
p297
sg49
g127
sg51
I0
sg53
(iread_data
Room
p298
(dp299
g45
g56
sg47
g57
sbsba(ischedule
Activity
p300
(dp301
g8
(lp302
S'47462856'
p303
aS'56749879'
p304
aS'79858178'
p305
aS'94955328'
p306
ag37
ag230
aS'44940353'
p307
ag148
ag190
aS'38499176'
p308
aS'14671406'
p309
aS'3685034'
p310
aS'91139627'
p311
aS'81218347'
p312
ag266
aS'82688900'
p313
ag146
aS'55474917'
p314
aS'51542218'
p315
aS'46570285'
p316
ag116
ag214
ag215
ag144
aS'38329455'
p317
ag70
ag180
aS'34243356'
p318
aS'99272880'
p319
aS'59544049'
p320
ag158
aS'51186803'
p321
aS'39659121'
p322
ag265
ag87
aS'34262212'
p323
aS'74182182'
p324
aS'79366078'
p325
ag81
aS'59075181'
p326
ag77
aS'39230359'
p327
aS'61518436'
p328
aS'20239127'
p329
aS'49631542'
p330
ag27
ag149
aS'23391676'
p331
aS'97019450'
p332
aS'39919665'
p333
aS'97371272'
p334
ag113
aS'32705005'
p335
ag11
aS'63955238'
p336
ag14
ag202
aS'56988998'
p337
aS'63408522'
p338
ag229
ag68
aS'54569540'
p339
aS'78735049'
p340
ag76
aS'10872825'
p341
ag188
ag176
aS'47605891'
p342
aS'31633723'
p343
aS'72547110'
p344
aS'14398123'
p345
aS'11915563'
p346
aS'17823206'
p347
aS'37498675'
p348
aS'91196968'
p349
aS'69086548'
p350
aS'76924297'
p351
aS'65003379'
p352
aS'7492204'
p353
aS'9731271'
p354
aS'31247305'
p355
ag67
ag92
ag294
asg45
I1000
sg47
S'Kansrekenen 2'
p356
sg49
g127
sg51
I0
sg53
(iread_data
Room
p357
(dp358
g45
g224
sg47
g225
sbsba(ischedule
Activity
p359
(dp360
g8
(lp361
S'41578612'
p362
ag28
aS'87830198'
p363
aS'14179347'
p364
ag29
aS'41644639'
p365
ag187
ag114
aS'25077484'
p366
aS'88737765'
p367
aS'78821918'
p368
aS'74361881'
p369
asg45
S'15'
p370
sg47
S'Project Genetic Algorithms'
p371
sg49
g50
sg51
g52
sg53
(iread_data
Room
p372
(dp373
g45
g166
sg47
g167
sbsba(ischedule
Activity
p374
(dp375
g8
(lp376
S'4568018'
p377
aS'14816774'
p378
ag24
aS'4353500'
p379
asg45
S'25'
p380
sg47
S'Heuristieken 1'
p381
sg49
g96
sg51
g52
sg53
(iread_data
Room
p382
(dp383
g45
g196
sg47
g197
sbsba(ischedule
Activity
p384
(dp385
g8
(lp386
g141
ag185
aS'14847953'
p387
aS'17092717'
p388
ag112
aS'41790793'
p389
aS'28358060'
p390
aS'16333449'
p391
aS'76648468'
p392
aS'10698627'
p393
aS'14303208'
p394
asg45
S'20'
p395
sg47
S'Webprogrammeren en databases'
p396
sg49
g50
sg51
g247
sg53
(iread_data
Room
p397
(dp398
g45
g100
sg47
g101
sbsba(ischedule
Activity
p399
(dp400
g8
(lp401
S'37110913'
p402
ag184
aS'66122625'
p403
ag181
ag21
aS'99453514'
p404
aS'97136582'
p405
aS'87314964'
p406
asg45
S'10'
p407
sg47
S'Data Mining'
p408
sg49
g96
sg51
g97
sg53
(iread_data
Room
p409
(dp410
g45
g250
sg47
g251
sbsbaa(lp411
(ischedule
Activity
p412
(dp413
g8
(lp414
g190
ag175
ag42
ag171
ag93
aS'3168419'
p415
ag89
aS'30195935'
p416
ag187
ag176
aS'54026378'
p417
ag173
ag179
aS'5298748'
p418
ag184
ag304
ag378
ag177
ag188
ag212
ag259
ag174
ag180
aS'89985072'
p419
aS'79617364'
p420
aS'6723948'
p421
ag377
ag183
aS'88176729'
p422
ag181
aS'73236988'
p423
ag178
aS'29526540'
p424
ag182
aS'77831658'
p425
ag67
ag186
ag185
aS'21029457'
p426
ag172
ag320
aS'33930505'
p427
ag191
ag189
aS'22826928'
p428
asg45
I1000
sg47
g193
sg49
g127
sg51
I0
sg53
(iread_data
Room
p429
(dp430
g45
g166
sg47
g167
sbsba(ischedule
Activity
p431
(dp432
g8
(lp433
S'75664412'
p434
ag213
ag202
ag85
ag355
ag261
ag118
aS'72586808'
p435
aS'59887191'
p436
aS'25330192'
p437
ag38
ag354
ag149
ag161
aS'123355'
p438
aS'48678993'
p439
aS'81022997'
p440
aS'53267490'
p441
ag405
ag21
aS'57467488'
p442
ag326
aS'16912993'
p443
ag345
aS'62736669'
p444
ag137
aS'85284256'
p445
ag308
aS'5590289'
p446
ag318
aS'82872148'
p447
asg45
S'20'
p448
sg47
S'Netwerken en systeembeveiliging'
p449
sg49
g50
sg51
g52
sg53
(iread_data
Room
p450
(dp451
g45
g224
sg47
g225
sbsba(ischedule
Activity
p452
(dp453
g8
(lp454
g40
aS'77392404'
p455
aS'90474003'
p456
aS'68286356'
p457
ag146
ag402
aS'13718298'
p458
aS'57086672'
p459
ag275
ag363
aS'27370083'
p460
aS'82390428'
p461
ag329
aS'49922855'
p462
ag173
ag328
ag69
ag310
aS'70193386'
p463
ag29
aS'92778619'
p464
ag404
aS'20095994'
p465
ag172
aS'77960666'
p466
ag362
aS'99975346'
p467
aS'32044893'
p468
aS'51415617'
p469
ag153
ag293
ag428
ag229
aS'4709948'
p470
aS'60352393'
p471
aS'42406214'
p472
aS'33776961'
p473
aS'60661905'
p474
aS'36785409'
p475
ag216
aS'84449005'
p476
ag339
aS'36213792'
p477
aS'59753700'
p478
aS'22871048'
p479
ag418
aS'51052738'
p480
aS'27805666'
p481
aS'37399898'
p482
ag142
aS'70844780'
p483
asg45
I1000
sg47
S'Reflectie op de digitale cultuur'
p484
sg49
g127
sg51
I0
sg53
(iread_data
Room
p485
(dp486
g45
g56
sg47
g57
sbsba(ischedule
Activity
p487
(dp488
g8
(lp489
g271
ag32
ag291
ag260
ag209
ag279
ag263
ag268
ag265
ag282
ag157
ag256
ag280
ag267
ag288
asg45
S'20'
p490
sg47
g297
sg49
g96
sg51
g52
sg53
(iread_data
Room
p491
(dp492
g45
g250
sg47
g251
sbsbaa(lp493
(ischedule
Activity
p494
(dp495
g8
(lp496
g423
ag29
aS'39459642'
p497
aS'46989508'
p498
ag237
ag242
aS'34110913'
p499
ag23
aS'15911353'
p500
ag240
aS'95631564'
p501
ag187
ag434
aS'92665222'
p502
ag105
aS'88636924'
p503
aS'79167252'
p504
ag137
ag279
ag318
ag230
aS'66701209'
p505
aS'40791377'
p506
ag261
aS'2317551'
p507
ag243
aS'1766560'
p508
aS'13911001'
p509
ag12
aS'9067939'
p510
ag236
aS'31194811'
p511
ag124
aS'5595824'
p512
aS'2079771'
p513
ag232
aS'48503689'
p514
ag239
ag176
ag141
ag421
aS'44391517'
p515
aS'30658799'
p516
ag125
ag185
aS'95007221'
p517
ag139
aS'8464817'
p518
ag233
aS'13284244'
p519
ag244
ag241
ag234
aS'11741347'
p520
ag231
ag70
ag238
ag76
ag210
ag346
ag235
ag229
aS'76802764'
p521
aS'76661016'
p522
ag142
aS'94687383'
p523
aS'7957843'
p524
aS'88752563'
p525
ag15
asg45
I1000
sg47
g246
sg49
g127
sg51
I0
sg53
(iread_data
Room
p526
(dp527
g45
g224
sg47
g225
sbsba(ischedule
Activity
p528
(dp529
g8
(lp530
S'71839156'
p531
ag362
ag243
ag287
ag482
aS'21311067'
p532
ag420
aS'79937969'
p533
ag64
aS'93566383'
p534
aS'62872965'
p535
ag28
ag259
ag349
aS'80998260'
p536
ag20
aS'26172512'
p537
aS'75005528'
p538
ag24
aS'66570705'
p539
ag33
aS'34588570'
p540
ag27
aS'670011'
p541
aS'32595335'
p542
ag308
ag279
ag152
ag285
aS'52311353'
p543
aS'56872729'
p544
ag137
ag324
ag271
aS'36508571'
p545
ag318
ag232
ag306
aS'54074680'
p546
ag67
ag62
aS'96118484'
p547
ag111
aS'16011419'
p548
ag391
ag106
ag269
ag314
aS'4921119'
p549
ag312
aS'23565001'
p550
aS'36527838'
p551
aS'90743504'
p552
ag65
asg45
I1000
sg47
S'Lineaire Algebra'
p553
sg49
g127
sg51
I0
sg53
(iread_data
Room
p554
(dp555
g45
g130
sg47
g131
sbsba(ischedule
Activity
p556
(dp557
g8
(lp558
g263
ag25
aS'85236626'
p559
ag140
ag181
ag190
ag296
aS'87602030'
p560
ag439
ag459
ag440
ag138
aS'58040377'
p561
aS'83869542'
p562
ag136
aS'31897288'
p563
ag81
aS'82968410'
p564
asg45
S'20'
p565
sg47
S'Heuristieken 2'
p566
sg49
g96
sg51
g52
sg53
(iread_data
Room
p567
(dp568
g45
g56
sg47
g57
sbsba(ischedule
Activity
p569
(dp570
g8
(lp571
g212
ag378
ag89
ag415
ag417
ag178
ag427
ag173
ag320
ag422
ag377
ag426
ag182
ag424
ag189
ag419
ag416
ag179
asg45
S'20'
p572
sg47
g193
sg49
g96
sg51
g97
sg53
(iread_data
Room
p573
(dp574
g45
g250
sg47
g251
sbsba(ischedule
Activity
p575
(dp576
g8
(lp577
g283
ag470
ag257
aS'72456780'
p578
aS'70939718'
p579
ag295
aS'535689'
p580
aS'56121590'
p581
ag455
ag471
ag75
aS'56191333'
p582
asg45
g448
sg47
g449
sg49
g50
sg51
g247
sg53
(iread_data
Room
p583
(dp584
g45
g100
sg47
g101
sbsba(ischedule
Activity
p585
(dp586
g8
(lp587
g121
ag275
ag476
ag473
aS'59111489'
p588
aS'63111000'
p589
aS'75997788'
p590
asg45
S'20'
p591
sg47
S'Moderne Databases'
p592
sg49
g96
sg51
g52
sg53
(iread_data
Room
p593
(dp594
g45
g196
sg47
g197
sbsba(ischedule
Activity
p595
(dp596
g8
(lp597
g214
ag203
ag202
ag201
asg45
S'15'
p598
sg47
g221
sg49
g50
sg51
g247
sg53
(iread_data
Room
p599
(dp600
g45
g166
sg47
g167
sbsbaa(lp601
(ischedule
Activity
p602
(dp603
g8
(lp604
g213
ag262
ag112
ag282
aS'11996292'
p605
ag402
ag139
ag10
aS'14383795'
p606
aS'47982619'
p607
aS'12430748'
p608
ag214
ag350
aS'7106649'
p609
ag219
ag475
aS'6249823'
p610
ag362
asg45
S'20'
p611
sg47
S'Technology for games'
p612
sg49
g96
sg51
g52
sg53
(iread_data
Room
p613
(dp614
g45
g130
sg47
g131
sbsba(ischedule
Activity
p615
(dp616
g8
(lp617
g123
ag208
ag218
asg45
S'15'
p618
sg47
g221
sg49
g96
sg51
g247
sg53
(iread_data
Room
p619
(dp620
g45
g250
sg47
g251
sbsba(ischedule
Activity
p621
(dp622
g8
(lp623
g32
ag109
ag293
ag285
ag256
ag257
ag281
ag273
ag241
ag278
ag75
ag292
ag157
ag206
ag119
ag270
ag269
asg45
S'20'
p624
sg47
g297
sg49
g50
sg51
g247
sg53
(iread_data
Room
p625
(dp626
g45
g166
sg47
g167
sbsba(ischedule
Activity
p627
(dp628
g8
g414
sg45
I1000
sg47
g193
sg49
g127
sg51
I0
sg53
(iread_data
Room
p629
(dp630
g45
g224
sg47
g225
sbsba(ischedule
Activity
p631
(dp632
g8
(lp633
g284
ag287
ag209
ag295
ag266
ag272
ag290
ag276
ag260
ag274
ag289
ag264
ag291
ag286
ag288
asg45
g624
sg47
g297
sg49
g50
sg51
g52
sg53
(iread_data
Room
p634
(dp635
g45
g100
sg47
g101
sbsba(ischedule
Activity
p636
(dp637
g8
(lp638
g23
ag29
ag505
ag501
ag502
ag12
ag346
ag232
ag15
ag423
ag507
ag137
ag504
ag231
ag235
ag515
ag516
ag210
ag76
ag70
ag242
ag513
ag141
ag518
ag230
ag524
ag497
ag142
ag514
ag510
ag517
ag508
ag500
ag229
ag233
ag238
ag503
ag498
ag506
ag261
ag239
ag236
ag244
ag243
ag525
ag279
ag509
ag519
ag237
ag523
ag522
ag512
ag318
ag240
ag125
asg45
S'40'
p639
sg47
g246
sg49
g50
sg51
g247
sg53
(iread_data
Room
p640
(dp641
g45
g56
sg47
g57
sbsbaaa(lp642
(lp643
(ischedule
Activity
p644
(dp645
g8
g255
sg45
I1000
sg47
g297
sg49
g127
sg51
I0
sg53
g222
sba(ischedule
Activity
p646
(dp647
g8
(lp648
S'70336464'
p649
ag210
ag12
aS'4697362'
p650
ag610
ag606
aS'77264363'
p651
ag213
ag93
ag434
ag172
ag475
ag243
ag608
aS'93041523'
p652
ag10
ag214
ag607
ag209
ag402
ag282
ag111
ag11
ag13
aS'21192048'
p653
ag262
ag511
ag276
ag334
ag350
ag609
ag139
ag219
ag362
ag112
aS'76487754'
p654
ag605
aS'92496780'
p655
asg45
I1000
sg47
g612
sg49
g127
sg51
I0
sg53
(iread_data
Room
p656
(dp657
g45
g130
sg47
g131
sbsba(ischedule
Activity
p658
(dp659
g8
(lp660
g173
ag421
ag394
ag324
ag114
aS'11593163'
p661
aS'61520025'
p662
aS'72526473'
p663
ag267
aS'19717077'
p664
aS'78544592'
p665
ag504
aS'78443067'
p666
aS'93361408'
p667
aS'33672995'
p668
ag378
ag561
ag316
aS'56544130'
p669
ag105
ag550
aS'82412626'
p670
aS'58699305'
p671
aS'46701583'
p672
ag525
ag36
ag544
ag364
aS'81155296'
p673
ag335
aS'40141996'
p674
ag340
ag560
aS'31306819'
p675
ag420
aS'65978354'
p676
aS'6939933'
p677
aS'56348773'
p678
ag160
aS'59220392'
p679
aS'37279234'
p680
aS'38179241'
p681
ag426
aS'53139134'
p682
aS'47932106'
p683
ag579
ag22
asg45
g94
sg47
g95
sg49
g96
sg51
g247
sg53
(iread_data
Room
p684
(dp685
g45
g166
sg47
g167
sbsba(ischedule
Activity
p686
(dp687
g8
(lp688
g421
ag428
ag148
ag473
ag589
aS'23215240'
p689
ag142
ag144
aS'66433883'
p690
aS'51791169'
p691
ag215
ag514
aS'2550487'
p692
aS'7386961'
p693
ag175
ag211
asg45
S'20'
p694
sg47
S'Programmeren in Java 2'
p695
sg49
g50
sg51
S'4'
p696
sg53
(iread_data
Room
p697
(dp698
g45
g196
sg47
g197
sbsba(ischedule
Activity
p699
(dp700
g8
(lp701
g64
ag346
ag145
ag285
aS'19858730'
p702
ag28
ag213
ag497
ag402
aS'88627897'
p703
aS'62356458'
p704
aS'34806836'
p705
aS'70113753'
p706
ag545
aS'61611295'
p707
ag184
ag417
ag535
ag236
ag479
aS'52552718'
p708
ag136
asg45
I1000
sg47
S'Autonomous Agents 2'
p709
sg49
g127
sg51
I0
sg53
(iread_data
Room
p710
(dp711
g45
g100
sg47
g101
sbsbaa(lp712
(ischedule
Activity
p713
(dp714
g8
(lp715
g312
ag284
ag291
ag326
ag67
ag403
ag209
aS'58736785'
p716
ag256
ag332
ag402
ag148
ag113
aS'45660925'
p717
ag117
ag283
ag211
aS'20830477'
p718
aS'14941752'
p719
aS'83443653'
p720
aS'48357272'
p721
ag590
ag479
ag240
aS'79879876'
p722
ag702
aS'53775014'
p723
ag563
aS'97417002'
p724
aS'76393508'
p725
ag216
ag442
ag10
ag531
ag304
aS'94930277'
p726
ag605
aS'87210640'
p727
ag61
ag213
asg45
g380
sg47
g381
sg49
g96
sg51
g247
sg53
(iread_data
Room
p728
(dp729
g45
g56
sg47
g57
sbsba(ischedule
Activity
p730
(dp731
g8
g414
sg45
I1000
sg47
g193
sg49
g127
sg51
I0
sg53
(iread_data
Room
p732
(dp733
g45
g166
sg47
g167
sbsba(ischedule
Activity
p734
(dp735
g8
(lp736
g498
ag232
ag236
ag275
ag497
ag215
ag201
ag124
ag525
ag260
ag142
aS'5526560'
p737
ag136
ag368
aS'4529208'
p738
ag119
ag156
aS'27123462'
p739
ag674
aS'23658570'
p740
ag285
ag143
ag63
aS'86180471'
p741
aS'70072978'
p742
ag155
ag366
ag708
ag295
ag444
ag62
ag265
ag683
aS'15187217'
p743
ag112
ag282
asg45
S'40'
p744
sg47
S'Databases 2'
p745
sg49
g96
sg51
g52
sg53
(iread_data
Room
p746
(dp747
g45
g100
sg47
g101
sbsba(ischedule
Activity
p748
(dp749
g8
(lp750
g478
ag482
ag476
ag362
ag471
ag456
ag468
ag474
ag469
ag293
ag328
ag465
ag142
ag462
ag457
ag467
ag229
ag458
ag461
ag483
asg45
S'20'
p751
sg47
g484
sg49
g96
sg51
g52
sg53
(iread_data
Room
p752
(dp753
g45
g196
sg47
g197
sbsbaa(lp754
(ischedule
Activity
p755
(dp756
g8
(lp757
g152
aS'67817269'
p758
ag157
aS'23652927'
p759
ag158
ag139
ag144
ag309
ag136
ag148
ag119
ag147
ag174
aS'19540225'
p760
ag140
ag137
ag31
ag135
ag141
ag171
ag154
ag142
ag41
ag145
ag146
ag672
ag153
aS'3707829'
p761
ag73
aS'44828429'
p762
ag138
ag155
ag207
ag150
ag156
ag442
ag690
ag149
ag160
ag161
ag151
ag159
ag143
asg45
I1000
sg47
g163
sg49
g127
sg51
I0
sg53
(iread_data
Room
p763
(dp764
g45
g130
sg47
g131
sbsba(ischedule
Activity
p765
(dp766
g8
(lp767
g428
ag93
ag422
ag212
ag419
ag416
ag67
ag426
ag259
ag42
ag421
ag89
ag420
ag415
ag304
ag377
ag427
ag425
ag378
asg45
g192
sg47
g193
sg49
g50
sg51
g247
sg53
(iread_data
Room
p768
(dp769
g45
g56
sg47
g57
sbsba(ischedule
Activity
p770
(dp771
g8
(lp772
g474
aS'51593625'
p773
ag173
aS'45414528'
p774
ag515
ag497
ag466
ag523
aS'34900967'
p775
ag171
ag206
ag308
ag541
ag306
ag354
aS'22288615'
p776
asg45
g694
sg47
g695
sg49
g50
sg51
S'5'
p777
sg53
(iread_data
Room
p778
(dp779
g45
g250
sg47
g251
sbsba(ischedule
Activity
p780
(dp781
g8
(lp782
S'13996448'
p783
ag295
ag464
aS'39905995'
p784
ag482
aS'26857113'
p785
ag232
ag81
ag70
ag549
aS'63096281'
p786
ag319
asg45
g694
sg47
g695
sg49
g50
sg51
g247
sg53
(iread_data
Room
p787
(dp788
g45
g166
sg47
g167
sbsba(ischedule
Activity
p789
(dp790
g8
(lp791
g209
ag285
ag218
ag368
ag470
ag105
ag590
ag666
ag473
ag25
ag316
ag330
ag303
aS'18144425'
p792
ag671
ag121
ag589
ag178
ag215
ag256
ag172
aS'27916487'
p793
aS'96082155'
p794
ag605
ag588
aS'41489515'
p795
ag12
aS'3883025'
p796
aS'51650744'
p797
asg45
S'20'
p798
sg47
g592
sg49
g50
sg51
g52
sg53
(iread_data
Room
p799
(dp800
g45
g224
sg47
g225
sbsba(ischedule
Activity
p801
(dp802
g8
(lp803
g277
ag314
ag347
aS'73196865'
p804
ag258
ag507
ag534
ag39
aS'2416751'
p805
aS'28943658'
p806
ag349
aS'15249775'
p807
aS'90296821'
p808
ag79
ag34
asg45
g694
sg47
g695
sg49
g50
sg51
g97
sg53
(iread_data
Room
p809
(dp810
g45
g100
sg47
g101
sbsba(ischedule
Activity
p811
(dp812
g8
(lp813
g74
aS'25994016'
p814
ag476
aS'55480737'
p815
asg45
g370
sg47
g371
sg49
g50
sg51
g97
sg53
(iread_data
Room
p816
(dp817
g45
g196
sg47
g197
sbsbaa(lp818
(ischedule
Activity
p819
(dp820
g8
(lp821
S'93023961'
p822
aS'19337738'
p823
ag204
aS'68360259'
p824
ag347
ag66
ag783
ag403
ag171
ag135
ag406
ag181
ag10
ag21
ag405
ag543
ag349
aS'98780382'
p825
ag404
ag212
ag437
ag402
ag478
ag184
ag774
ag440
ag136
asg45
I1000
sg47
g408
sg49
g127
sg51
I0
sg53
(iread_data
Room
p826
(dp827
g45
g56
sg47
g57
sbsba(ischedule
Activity
p828
(dp829
g8
g454
sg45
I1000
sg47
g484
sg49
g127
sg51
I0
sg53
(iread_data
Room
p830
(dp831
g45
g130
sg47
g131
sbsba(ischedule
Activity
p832
(dp833
g8
(lp834
g12
ag210
ag256
ag605
ag303
ag25
aS'13218321'
p835
ag666
ag795
ag330
ag793
ag209
ag368
ag671
ag290
ag159
ag73
ag17
ag218
ag93
ag509
aS'48198668'
p836
aS'66621166'
p837
ag792
ag551
ag796
ag273
ag665
asg45
g591
sg47
g592
sg49
g96
sg51
g247
sg53
(iread_data
Room
p838
(dp839
g45
g166
sg47
g167
sbsba(ischedule
Activity
p840
(dp841
g8
g104
sg45
I1000
sg47
g126
sg49
g127
sg51
I0
sg53
(iread_data
Room
p842
(dp843
g45
g196
sg47
g197
sbsba(ischedule
Activity
p844
(dp845
g8
(lp846
g160
ag740
ag304
ag78
aS'88597745'
p847
ag332
ag18
ag61
aS'54395877'
p848
ag244
ag504
ag38
ag83
asg45
g694
sg47
g695
sg49
g50
sg51
S'6'
p849
sg53
(iread_data
Room
p850
(dp851
g45
g250
sg47
g251
sbsba(ischedule
Activity
p852
(dp853
g8
(lp854
g64
ag145
ag285
ag705
ag535
ag417
ag497
ag545
asg45
S'10'
p855
sg47
g709
sg49
g96
sg51
g247
sg53
(iread_data
Room
p856
(dp857
g45
g100
sg47
g101
sbsba(ischedule
Activity
p858
(dp859
g8
(lp860
g423
ag42
ag183
ag420
asg45
g572
sg47
g193
sg49
g96
sg51
g247
sg53
(iread_data
Room
p861
(dp862
g45
g224
sg47
g225
sbsbaa(lp863
(ischedule
Activity
p864
(dp865
g8
(lp866
g330
ag544
ag562
ag742
ag142
ag498
ag582
ag62
ag497
ag63
ag156
ag743
ag73
ag232
ag112
ag378
ag293
ag79
ag424
ag456
ag180
ag124
ag605
ag444
ag143
ag315
ag295
aS'26207525'
p867
ag415
aS'58083680'
p868
ag189
aS'12091019'
p869
ag549
ag442
ag136
ag578
ag259
ag236
ag304
aS'5085194'
p870
ag155
ag265
ag388
ag119
ag260
ag738
ag538
ag366
aS'13132925'
p871
ag471
ag581
ag737
ag525
ag741
ag739
ag285
ag466
ag541
aS'54540997'
p872
ag674
ag683
aS'59397895'
p873
ag296
ag275
ag215
ag201
ag273
ag740
aS'37701751'
p874
ag282
ag368
ag708
asg45
I1000
sg47
g745
sg49
g127
sg51
I0
sg53
g222
sba(ischedule
Activity
p875
(dp876
g8
(lp877
S'21677389'
p878
ag673
ag681
ag534
aS'66034145'
p879
ag874
ag482
ag262
ag22
ag762
aS'64768422'
p880
ag138
ag230
ag761
ag351
ag137
ag387
aS'19214659'
p881
ag522
ag181
aS'69634191'
p882
ag692
aS'65675896'
p883
aS'20374340'
p884
aS'28055464'
p885
asg45
I1000
sg47
S'Interactie-ontwerp'
p886
sg49
g127
sg51
I0
sg53
(iread_data
Room
p887
(dp888
g45
g100
sg47
g101
sbsba(ischedule
Activity
p889
(dp890
g8
(lp891
g346
ag213
ag479
ag545
ag705
ag28
ag702
ag417
asg45
S'10'
p892
sg47
g709
sg49
g50
sg51
g52
sg53
(iread_data
Room
p893
(dp894
g45
g166
sg47
g167
sbsba(ischedule
Activity
p895
(dp896
g8
(lp897
g93
ag172
ag209
ag12
ag210
ag652
ag655
ag654
ag649
ag651
ag434
ag511
ag276
ag13
ag243
ag650
ag111
ag334
ag653
ag11
asg45
g611
sg47
g612
sg49
g96
sg51
g247
sg53
(iread_data
Room
p898
(dp899
g45
g196
sg47
g197
sbsba(ischedule
Activity
p900
(dp901
g8
(lp902
g66
ag402
ag404
asg45
S'10'
p903
sg47
g408
sg49
g50
sg51
g97
sg53
(iread_data
Room
p904
(dp905
g45
g130
sg47
g131
sbsba(ischedule
Activity
p906
(dp907
g8
(lp908
g825
ag212
ag349
ag403
ag204
asg45
g903
sg47
g408
sg49
g50
sg51
g247
sg53
(iread_data
Room
p909
(dp910
g45
g250
sg47
g251
sbsba(ischedule
Activity
p911
(dp912
g8
(lp913
g146
ag153
ag41
ag309
ag140
ag161
ag139
ag141
ag758
ag151
ag207
ag31
ag135
ag152
ag157
ag759
ag174
ag158
ag690
ag150
ag148
asg45
S'25'
p914
sg47
g163
sg49
g50
sg51
g247
sg53
(iread_data
Room
p915
(dp916
g45
g56
sg47
g57
sbsbaaa(lp917
(lp918
(ischedule
Activity
p919
(dp920
g8
(lp921
g136
ag114
ag140
ag229
ag64
ag467
ag560
ag181
aS'72652638'
p922
ag807
ag561
ag138
aS'52304977'
p923
ag263
ag562
ag86
ag716
ag439
ag296
ag563
ag559
ag564
ag609
ag440
ag541
ag81
ag190
aS'1886996'
p924
aS'35315956'
p925
aS'5739011'
p926
ag459
ag25
asg45
I1000
sg47
g566
sg49
g127
sg51
I0
sg53
(iread_data
Room
p927
(dp928
g45
g56
sg47
g57
sbsba(ischedule
Activity
p929
(dp930
g8
(lp931
g139
ag185
ag516
ag318
ag15
ag124
ag519
ag510
ag421
ag76
ag434
ag12
ag523
ag423
ag176
ag29
ag125
ag70
ag346
ag261
ag141
ag504
ag512
ag105
ag137
ag210
ag500
ag498
ag521
ag23
ag279
ag511
ag497
ag517
ag514
ag524
ag515
ag142
ag508
ag522
ag506
ag507
ag499
ag518
ag513
ag520
ag187
ag501
ag503
ag502
ag525
ag505
ag509
asg45
g245
sg47
g246
sg49
g96
sg51
g52
sg53
(iread_data
Room
p932
(dp933
g45
g224
sg47
g225
sbsba(ischedule
Activity
p934
(dp935
g8
(lp936
g275
ag404
ag172
ag470
ag479
ag329
ag310
ag402
ag460
ag455
ag339
ag463
ag473
ag146
ag40
ag69
ag472
ag464
ag428
ag153
ag173
ag477
ag466
ag363
ag481
ag475
asg45
g751
sg47
g484
sg49
g96
sg51
g97
sg53
(iread_data
Room
p937
(dp938
g45
g100
sg47
g101
sbsba(ischedule
Activity
p939
(dp940
g8
(lp941
g150
ag135
ag870
ag580
ag203
ag282
ag369
asg45
S'15'
p942
sg47
S'Compilerbouw practicum'
p943
sg49
g50
sg51
g97
sg53
(iread_data
Room
p944
(dp945
g45
g250
sg47
g251
sbsba(ischedule
Activity
p946
(dp947
g8
(lp948
g119
ag207
ag171
ag73
ag174
ag31
ag309
ag442
ag762
ag41
ag758
ag759
ag690
ag760
ag761
ag672
asg45
g162
sg47
g163
sg49
g96
sg51
g247
sg53
(iread_data
Room
p949
(dp950
g45
g196
sg47
g197
sbsbaa(lp951
(ischedule
Activity
p952
(dp953
g8
(lp954
g424
ag17
ag476
ag273
ag794
ag836
ag12
ag159
ag797
ag795
ag105
ag290
ag796
ag605
ag589
ag368
ag178
ag175
ag508
ag330
ag275
ag835
aS'1181560'
p955
ag303
ag256
ag837
ag215
ag473
ag470
ag93
ag218
ag172
ag520
ag793
ag590
ag666
ag121
ag792
ag316
aS'27241113'
p956
ag516
ag588
ag551
ag509
ag671
ag742
ag25
ag285
ag73
ag665
ag209
ag210
aS'49219163'
p957
ag78
asg45
I1000
sg47
g592
sg49
g127
sg51
I0
sg53
(iread_data
Room
p958
(dp959
g45
g224
sg47
g225
sbsba(ischedule
Activity
p960
(dp961
g8
g701
sg45
I1000
sg47
g709
sg49
g127
sg51
I0
sg53
(iread_data
Room
p962
(dp963
g45
g166
sg47
g167
sbsba(ischedule
Activity
p964
(dp965
g8
g877
sg45
I1000
sg47
g886
sg49
g127
sg51
I0
sg53
(iread_data
Room
p966
(dp967
g45
g56
sg47
g57
sbsba(ischedule
Activity
p968
(dp969
g8
(lp970
g349
ag347
ag10
ag171
ag135
ag204
ag212
ag437
ag822
ag66
ag824
ag774
ag825
ag478
asg45
g407
sg47
g408
sg49
g96
sg51
g247
sg53
(iread_data
Room
p971
(dp972
g45
g196
sg47
g197
sbsba(ischedule
Activity
p973
(dp974
g8
(lp975
g471
ag415
ag79
ag502
ag109
aS'40633534'
p976
ag72
ag188
aS'39429093'
p977
ag924
ag146
ag85
ag115
asg45
S'10'
p978
sg47
S'Advanced Heuristics'
p979
sg49
g50
sg51
g247
sg53
(iread_data
Room
p980
(dp981
g45
g100
sg47
g101
sbsba(ischedule
Activity
p982
(dp983
g8
(lp984
g418
ag459
ag29
ag480
ag216
asg45
g751
sg47
g484
sg49
g96
sg51
g247
sg53
(iread_data
Room
p985
(dp986
g45
g250
sg47
g251
sbsba(ischedule
Activity
p987
(dp988
g8
(lp989
g425
ag182
ag538
aS'40911986'
p990
ag261
ag11
ag310
ag468
ag719
aS'90103047'
p991
ag514
aS'37419523'
p992
ag293
ag118
ag324
aS'19662602'
p993
ag423
ag472
asg45
S'15'
p994
sg47
S'Project Numerical Recipes'
p995
sg49
g50
sg51
g247
sg53
(iread_data
Room
p996
(dp997
g45
g130
sg47
g131
sbsbaa(lp998
(ischedule
Activity
p999
(dp1000
g8
(lp1001
g265
aS'62613937'
p1002
ag439
ag318
ag549
ag475
ag425
ag27
ag543
ag740
ag435
ag578
ag315
aS'58480929'
p1003
ag306
aS'65318664'
p1004
ag93
ag479
ag36
ag474
ag296
ag721
ag363
aS'80188025'
p1005
ag116
ag64
ag550
ag362
aS'18477924'
p1006
aS'78822885'
p1007
aS'97838175'
p1008
ag367
ag870
ag459
ag332
ag512
ag458
ag463
ag590
ag775
aS'14637758'
p1009
ag720
ag368
ag669
ag191
aS'82854435'
p1010
ag668
ag202
aS'73350019'
p1011
asg45
I1000
sg47
S'Analysemethoden en -technieken'
p1012
sg49
g127
sg51
I0
sg53
(iread_data
Room
p1013
(dp1014
g45
g224
sg47
g225
sbsba(ischedule
Activity
p1015
(dp1016
g8
(lp1017
g692
ag141
ag279
ag524
ag783
aS'34691309'
p1018
ag440
aS'81116418'
p1019
ag508
ag704
ag519
aS'21070547'
p1020
ag63
ag190
ag243
ag608
asg45
g994
sg47
g995
sg49
g50
sg51
g52
sg53
(iread_data
Room
p1021
(dp1022
g45
g130
sg47
g131
sbsba(ischedule
Activity
p1023
(dp1024
g8
(lp1025
g176
ag171
ag150
ag108
ag274
ag292
ag135
ag15
ag261
ag241
ag275
ag270
ag258
ag287
ag19
ag75
ag295
ag86
asg45
g490
sg47
g297
sg49
g96
sg51
g696
sg53
(iread_data
Room
p1026
(dp1027
g45
g250
sg47
g251
sbsba(ischedule
Activity
p1028
(dp1029
g8
(lp1030
g294
ag206
ag283
ag269
ag109
ag273
ag262
ag119
ag232
ag264
ag277
ag286
ag284
ag285
ag183
ag281
ag16
asg45
g490
sg47
g297
sg49
g96
sg51
g247
sg53
(iread_data
Room
p1031
(dp1032
g45
g196
sg47
g197
sbsba(ischedule
Activity
p1033
(dp1034
g8
(lp1035
g81
ag509
ag182
ag153
ag394
ag319
aS'5892092'
p1036
ag689
ag883
ag160
aS'47260040'
p1037
aS'91250534'
p1038
ag219
ag531
ag365
aS'55103073'
p1039
ag234
ag268
ag419
ag308
ag814
ag377
ag147
aS'1695839'
p1040
aS'44151631'
p1041
asg45
g942
sg47
g943
sg49
g50
sg51
g247
sg53
(iread_data
Room
p1042
(dp1043
g45
g100
sg47
g101
sbsba(ischedule
Activity
p1044
(dp1045
g8
(lp1046
g261
ag157
ag561
ag470
ag263
ag276
ag518
ag21
ag14
ag353
ag267
aS'88263855'
p1047
ag323
ag672
aS'88519892'
p1048
ag239
ag201
aS'20618153'
p1049
ag143
ag271
ag706
ag207
ag393
ag607
aS'12782624'
p1050
ag742
ag92
aS'73893840'
p1051
aS'10702778'
p1052
ag722
ag331
ag559
ag445
ag43
ag180
ag680
aS'64053722'
p1053
ag718
asg45
g694
sg47
g695
sg49
g50
sg51
g52
sg53
(iread_data
Room
p1054
(dp1055
g45
g56
sg47
g57
sbsba(ischedule
Activity
p1056
(dp1057
g8
(lp1058
S'42297781'
p1059
aS'51673172'
p1060
aS'64418623'
p1061
ag117
aS'51472074'
p1062
ag606
aS'82066165'
p1063
ag85
asg45
g942
sg47
g943
sg49
g50
sg51
g52
sg53
(iread_data
Room
p1064
(dp1065
g45
g166
sg47
g167
sbsbaa(lp1066
(ischedule
Activity
p1067
(dp1068
g8
(lp1069
g13
ag39
ag182
ag15
ag159
ag10
ag12
ag153
ag30
ag27
ag18
ag11
ag42
ag501
ag25
ag417
ag343
ag19
ag89
ag704
ag29
ag158
ag44
ag16
ag28
ag419
ag140
ag543
ag479
ag295
ag161
ag122
ag721
ag447
ag708
ag423
ag41
ag35
ag21
ag23
ag26
aS'37830626'
p1070
ag24
ag773
aS'45915482'
p1071
ag314
ag38
ag32
ag14
ag355
ag31
ag309
ag37
ag17
ag22
ag120
ag284
ag1004
ag34
ag33
ag121
ag422
ag458
ag320
ag43
aS'9287708'
p1072
ag666
ag40
ag346
ag36
ag377
ag135
ag20
aS'58074656'
p1073
ag288
asg45
I1000
sg47
g48
sg49
g127
sg51
I0
sg53
g222
sba(ischedule
Activity
p1074
(dp1075
g8
(lp1076
g69
ag21
ag785
aS'33252501'
p1077
ag125
ag178
aS'90067329'
p1078
ag337
ag506
ag497
ag140
ag513
ag310
ag559
ag589
ag14
ag70
ag672
ag328
ag266
ag116
aS'67625383'
p1079
asg45
I1000
sg47
S'Machine Learning'
p1080
sg49
g127
sg51
I0
sg53
(iread_data
Room
p1081
(dp1082
g45
g100
sg47
g101
sbsba(ischedule
Activity
p1083
(dp1084
g8
(lp1085
g93
ag181
ag190
ag425
ag67
ag180
ag185
ag184
ag259
ag421
ag177
ag418
ag187
ag428
ag304
ag188
ag176
ag171
ag191
ag175
ag172
ag174
ag186
asg45
g572
sg47
g193
sg49
g96
sg51
g52
sg53
(iread_data
Room
p1086
(dp1087
g45
g166
sg47
g167
sbsba(ischedule
Activity
p1088
(dp1089
g8
(lp1090
g394
ag263
ag289
ag72
ag77
ag260
ag109
ag455
aS'1137946'
p1091
aS'76903244'
p1092
ag393
ag390
ag392
ag327
ag726
ag388
ag805
ag776
ag610
ag391
aS'24891081'
p1093
ag1049
ag459
ag155
aS'53512831'
p1094
ag152
ag389
aS'49908313'
p1095
ag141
asg45
S'20'
p1096
sg47
g396
sg49
g96
sg51
g247
sg53
(iread_data
Room
p1097
(dp1098
g45
g130
sg47
g131
sbsba(ischedule
Activity
p1099
(dp1100
g8
(lp1101
g64
ag541
ag229
ag609
ag86
ag807
ag114
ag716
ag467
ag926
ag922
ag924
ag923
ag925
asg45
g565
sg47
g566
sg49
g96
sg51
g247
sg53
(iread_data
Room
p1102
(dp1103
g45
g250
sg47
g251
sbsba(ischedule
Activity
p1104
(dp1105
g8
(lp1106
g209
ag213
ag215
ag212
ag206
ag210
ag205
ag217
ag204
ag201
ag207
ag220
ag214
ag216
ag202
ag219
ag211
ag203
asg45
g618
sg47
g221
sg49
g96
sg51
g52
sg53
(iread_data
Room
p1107
(dp1108
g45
g56
sg47
g57
sbsba(ischedule
Activity
p1109
(dp1110
g8
(lp1111
g476
ag275
asg45
g798
sg47
g592
sg49
g50
sg51
g97
sg53
(iread_data
Room
p1112
(dp1113
g45
g196
sg47
g197
sbsbaa(lp1114
(ischedule
Activity
p1115
(dp1116
g8
(lp1117
g262
ag282
ag183
ag258
ag19
ag231
ag232
ag171
ag150
ag16
ag261
ag279
ag275
ag135
asg45
g624
sg47
g297
sg49
g50
sg51
g696
sg53
(iread_data
Room
p1118
(dp1119
g45
g166
sg47
g167
sbsba(ischedule
Activity
p1120
(dp1121
g8
g302
sg45
I1000
sg47
g356
sg49
g127
sg51
I0
sg53
g222
sba(ischedule
Activity
p1122
(dp1123
g8
(lp1124
g497
ag236
ag285
ag708
ag703
ag184
ag64
ag145
ag704
ag706
ag535
asg45
g892
sg47
g709
sg49
g50
sg51
g247
sg53
(iread_data
Room
p1125
(dp1126
g45
g196
sg47
g197
sbsba(ischedule
Activity
p1127
(dp1128
g8
(lp1129
g823
ag440
ag136
ag783
ag543
asg45
g407
sg47
g408
sg49
g96
sg51
g52
sg53
(iread_data
Room
p1130
(dp1131
g45
g250
sg47
g251
sbsba(ischedule
Activity
p1132
(dp1133
g8
(lp1134
g213
ag378
ag10
ag117
ag113
ag283
ag727
ag718
ag402
ag726
ag722
ag719
ag61
ag563
ag720
ag716
ag605
ag717
ag291
ag209
ag379
ag326
ag332
ag403
ag377
ag479
ag240
ag284
ag256
ag211
ag590
ag216
ag702
ag67
ag723
ag304
ag442
ag148
ag24
ag725
ag531
ag312
ag724
ag721
asg45
I1000
sg47
g381
sg49
g127
sg51
I0
sg53
(iread_data
Room
p1135
(dp1136
g45
g56
sg47
g57
sbsba(ischedule
Activity
p1137
(dp1138
g8
(lp1139
g93
ag424
ag159
ag508
ag516
ag837
ag742
ag957
ag520
ag836
ag290
ag73
ag835
ag956
ag17
ag665
ag955
ag210
ag273
ag551
ag175
ag509
ag78
asg45
g798
sg47
g592
sg49
g50
sg51
g247
sg53
(iread_data
Room
p1140
(dp1141
g45
g100
sg47
g101
sbsba(ischedule
Activity
p1142
(dp1143
g8
(lp1144
g141
ag260
ag1091
aS'69459473'
p1145
ag1049
ag185
ag394
ag1095
ag879
ag393
ag25
ag1094
ag391
ag459
aS'67073567'
p1146
ag109
ag389
ag805
ag121
ag77
ag263
ag112
ag390
ag155
ag1092
ag327
ag289
ag726
ag122
ag152
ag610
ag387
ag776
ag1093
ag388
ag392
ag455
ag42
ag72
asg45
I1000
sg47
g396
sg49
g127
sg51
I0
sg53
(iread_data
Room
p1147
(dp1148
g45
g130
sg47
g131
sbsbaaa(lp1149
(lp1150
(ischedule
Activity
p1151
(dp1152
g8
g821
sg45
I1000
sg47
g408
sg49
g127
sg51
I0
sg53
(iread_data
Room
p1153
(dp1154
g45
g56
sg47
g57
sbsba(ischedule
Activity
p1155
(dp1156
g8
g1144
sg45
I1000
sg47
g396
sg49
g127
sg51
I0
sg53
(iread_data
Room
p1157
(dp1158
g45
g166
sg47
g167
sbsba(ischedule
Activity
p1159
(dp1160
g8
g530
sg45
I1000
sg47
g553
sg49
g127
sg51
I0
sg53
(iread_data
Room
p1161
(dp1162
g45
g224
sg47
g225
sbsba(ischedule
Activity
p1163
(dp1164
g8
g1076
sg45
I1000
sg47
g1080
sg49
g127
sg51
I0
sg53
(iread_data
Room
p1165
(dp1166
g45
g196
sg47
g197
sbsba(ischedule
Activity
p1167
(dp1168
g8
(lp1169
g41
ag284
ag18
ag145
ag354
ag111
ag289
ag257
ag869
ag180
aS'79888156'
p1170
ag1005
ag721
ag242
aS'55530367'
p1171
ag590
ag220
ag175
ag522
aS'23628642'
p1172
ag35
ag157
ag741
ag1071
aS'6709529'
p1173
ag740
asg45
g94
sg47
g95
sg49
g96
sg51
g52
sg53
(iread_data
Room
p1174
(dp1175
g45
g130
sg47
g131
sbsba(ischedule
Activity
p1176
(dp1177
g8
(lp1178
g424
ag320
ag423
ag418
ag417
asg45
g192
sg47
g193
sg49
g50
sg51
g52
sg53
(iread_data
Room
p1179
(dp1180
g45
g100
sg47
g101
sbsba(ischedule
Activity
p1181
(dp1182
g8
(lp1183
g61
aS'63573738'
p1184
ag881
aS'32183908'
p1185
ag677
aS'63939720'
p1186
ag15
ag183
ag525
ag37
asg45
g994
sg47
g995
sg49
g50
sg51
g97
sg53
(iread_data
Room
p1187
(dp1188
g45
g250
sg47
g251
sbsbaa(lp1189
(ischedule
Activity
p1190
(dp1191
g8
g496
sg45
I1000
sg47
g246
sg49
g127
sg51
I0
sg53
(iread_data
Room
p1192
(dp1193
g45
g224
sg47
g225
sbsba(ischedule
Activity
p1194
(dp1195
g8
(lp1196
g605
ag442
ag415
ag378
ag304
ag471
ag424
ag581
ag868
ag549
ag296
ag180
ag189
ag259
ag273
ag874
ag456
ag293
ag330
ag388
ag538
ag872
ag466
ag73
ag582
ag578
ag562
ag544
ag867
ag79
ag541
ag871
ag869
ag870
ag315
ag873
asg45
g744
sg47
g745
sg49
g96
sg51
g247
sg53
(iread_data
Room
p1197
(dp1198
g45
g100
sg47
g101
sbsba(ischedule
Activity
p1199
(dp1200
g8
(lp1201
g181
ag136
ag135
ag437
ag823
ag184
ag783
ag406
ag171
ag824
ag405
ag822
ag347
ag10
ag21
ag440
ag478
ag774
ag543
asg45
g903
sg47
g408
sg49
g50
sg51
g52
sg53
(iread_data
Room
p1202
(dp1203
g45
g250
sg47
g251
sbsba(ischedule
Activity
p1204
(dp1205
g8
(lp1206
g109
ag77
ag289
ag263
ag260
ag327
ag1145
ag152
ag72
ag776
ag455
ag1092
ag121
ag122
ag1146
ag1049
ag42
ag25
ag805
ag155
ag1093
ag1091
ag1094
ag459
ag610
ag1095
ag879
ag726
asg45
g395
sg47
g396
sg49
g50
sg51
g52
sg53
(iread_data
Room
p1207
(dp1208
g45
g166
sg47
g167
sbsba(ischedule
Activity
p1209
(dp1210
g8
g200
sg45
I1000
sg47
g221
sg49
g127
sg51
I0
sg53
(iread_data
Room
p1211
(dp1212
g45
g56
sg47
g57
sbsba(ischedule
Activity
p1213
(dp1214
g8
(lp1215
g159
asg45
S'40'
p1216
sg47
g48
sg49
g96
sg51
g52
sg53
(iread_data
Room
p1217
(dp1218
g45
g196
sg47
g197
sbsba(ischedule
Activity
p1219
(dp1220
g8
(lp1221
g262
ag387
ag118
ag590
ag483
ag1002
ag61
asg45
g978
sg47
g979
sg49
g50
sg51
g52
sg53
(iread_data
Room
p1222
(dp1223
g45
g130
sg47
g131
sbsbaa(lp1224
(ischedule
Activity
p1225
(dp1226
g8
(lp1227
g105
ag285
ag470
ag172
ag178
ag215
ag316
ag957
ag955
ag742
ag424
ag516
ag78
ag956
ag797
ag175
ag794
ag520
ag508
asg45
g591
sg47
g592
sg49
g96
sg51
g97
sg53
(iread_data
Room
p1228
(dp1229
g45
g100
sg47
g101
sbsba(ischedule
Activity
p1230
(dp1231
g8
(lp1232
g181
ag363
ag244
ag82
aS'64246605'
p1233
ag483
ag878
ag177
ag379
ag119
aS'12170832'
p1234
ag867
aS'19058315'
p1235
ag427
ag796
ag183
asg45
g448
sg47
g449
sg49
g50
sg51
g696
sg53
(iread_data
Room
p1236
(dp1237
g45
g224
sg47
g225
sbsba(ischedule
Activity
p1238
(dp1239
g8
(lp1240
g176
ag294
ag277
ag268
ag280
ag283
ag259
ag263
ag296
ag108
ag15
ag271
ag267
ag265
ag86
asg45
g624
sg47
g297
sg49
g50
sg51
g97
sg53
(iread_data
Room
p1241
(dp1242
g45
g250
sg47
g251
sbsba(ischedule
Activity
p1243
(dp1244
g8
(lp1245
g721
ag121
ag120
ag153
ag135
ag140
ag122
ag666
ag1004
ag161
ag417
ag320
ag447
ag377
ag159
ag1071
ag1070
ag288
ag284
ag182
ag158
ag458
ag708
ag704
ag419
ag501
ag422
ag1073
ag423
ag89
ag543
ag295
ag1072
ag309
ag343
ag355
ag773
ag314
ag479
ag346
asg45
g46
sg47
g48
sg49
g50
sg51
g247
sg53
(iread_data
Room
p1246
(dp1247
g45
g166
sg47
g167
sbsba(ischedule
Activity
p1248
(dp1249
g8
(lp1250
g14
ag345
ag351
ag16
ag270
ag560
ag149
ag241
ag737
ag1145
ag976
ag505
ag522
ag439
aS'75680261'
p1251
ag672
ag741
ag1063
ag17
ag1060
asg45
g370
sg47
g371
sg49
g50
sg51
g247
sg53
(iread_data
Room
p1252
(dp1253
g45
g196
sg47
g197
sbsba(ischedule
Activity
p1254
(dp1255
g8
g648
sg45
I1000
sg47
g612
sg49
g127
sg51
I0
sg53
(iread_data
Room
p1256
(dp1257
g45
g130
sg47
g131
sbsba(ischedule
Activity
p1258
(dp1259
g8
(lp1260
g524
ag416
ag1184
aS'25557516'
p1261
ag148
asg45
g448
sg47
g449
sg49
g50
sg51
g97
sg53
(iread_data
Room
p1262
(dp1263
g45
g56
sg47
g57
sbsbaa(lp1264
(ischedule
Activity
p1265
(dp1266
g8
g255
sg45
I1000
sg47
g297
sg49
g127
sg51
I0
sg53
(iread_data
Room
p1267
(dp1268
g45
g56
sg47
g57
sbsba(ischedule
Activity
p1269
(dp1270
g8
(lp1271
g340
ag65
ag18
ag71
ag157
ag663
ag741
ag335
ag83
ag378
ag89
ag420
ag36
ag160
ag662
ag80
ag84
ag676
ag674
ag105
ag683
ag289
ag678
ag61
ag77
ag364
ag661
ag590
ag522
ag669
ag82
ag111
ag667
ag180
ag354
ag87
ag677
ag1171
ag85
ag242
ag67
ag560
ag1170
ag72
ag1173
ag1071
ag672
ag316
ag76
ag671
ag70
ag666
ag561
ag86
ag91
ag79
ag114
ag679
ag90
ag324
ag869
ag504
ag680
ag173
ag682
ag69
ag75
ag1005
ag675
ag78
ag426
ag1172
ag88
ag73
ag35
ag220
ag665
ag579
ag421
ag22
ag62
ag394
ag257
ag673
ag66
ag64
ag721
ag525
ag81
ag63
ag550
ag668
ag544
ag740
ag681
ag175
ag68
ag92
ag670
ag284
ag267
ag664
ag145
ag41
ag93
ag74
asg45
I1000
sg47
g95
sg49
g127
sg51
I0
sg53
(iread_data
Room
p1272
(dp1273
g45
g224
sg47
g225
sbsba(ischedule
Activity
p1274
(dp1275
g8
(lp1276
g236
ag703
ag704
ag28
ag213
ag136
ag479
ag346
asg45
g855
sg47
g709
sg49
g96
sg51
g52
sg53
(iread_data
Room
p1277
(dp1278
g45
g250
sg47
g251
sbsba(ischedule
Activity
p1279
(dp1280
g8
(lp1281
g707
ag706
ag702
ag708
ag402
ag184
asg45
g855
sg47
g709
sg49
g96
sg51
g97
sg53
(iread_data
Room
p1282
(dp1283
g45
g100
sg47
g101
sbsba(ischedule
Activity
p1284
(dp1285
g8
(lp1286
g25
ag42
ag121
ag122
ag185
ag387
ag1146
ag879
ag1145
ag112
asg45
g1096
sg47
g396
sg49
g96
sg51
g52
sg53
(iread_data
Room
p1287
(dp1288
g45
g196
sg47
g197
sbsbaa(lp1289
(ischedule
Activity
p1290
(dp1291
g8
(lp1292
g1002
ag471
ag387
ag85
ag262
ag976
ag115
ag502
ag72
ag118
ag483
ag924
ag977
ag61
ag79
ag415
ag590
ag109
ag146
ag188
asg45
I1000
sg47
g979
sg49
g127
sg51
I0
sg53
(iread_data
Room
p1293
(dp1294
g45
g196
sg47
g197
sbsba(ischedule
Activity
p1295
(dp1296
g8
(lp1297
g140
ag161
ag458
ag704
ag295
ag15
ag284
ag89
ag10
ag419
ag33
ag501
ag377
ag314
ag182
ag26
ag121
ag355
ag1073
ag21
ag417
ag1071
ag29
ag1070
ag479
ag20
ag423
ag42
ag32
ag543
ag773
ag346
ag39
ag320
ag40
ag37
ag122
ag422
ag30
ag38
ag43
ag1072
ag666
ag28
ag721
ag288
ag309
ag44
ag17
ag12
ag23
ag343
ag16
ag25
ag120
ag34
ag31
ag22
ag135
ag35
ag18
ag27
ag13
ag36
ag1004
ag708
ag41
ag153
ag19
ag14
ag447
ag158
ag24
ag11
asg45
g1216
sg47
g48
sg49
g96
sg51
g247
sg53
(iread_data
Room
p1298
(dp1299
g45
g224
sg47
g225
sbsba(ischedule
Activity
p1300
(dp1301
g8
(lp1302
g293
ag296
ag272
ag290
ag278
ag259
ag257
ag231
ag266
ag276
ag289
asg45
g490
sg47
g297
sg49
g96
sg51
g97
sg53
g1130
sba(ischedule
Activity
p1303
(dp1304
g8
(lp1305
g402
ag707
ag136
asg45
g892
sg47
g709
sg49
g50
sg51
g97
sg53
(iread_data
Room
p1306
(dp1307
g45
g56
sg47
g57
sbsba(ischedule
Activity
p1308
(dp1309
g8
(lp1310
g241
ag421
ag187
ag185
ag176
ag520
ag139
ag511
ag234
ag105
ag434
ag521
ag124
ag499
asg45
g639
sg47
g246
sg49
g50
sg51
g52
sg53
(iread_data
Room
p1311
(dp1312
g45
g130
sg47
g131
sbsba(ischedule
Activity
p1313
(dp1314
g8
(lp1315
g206
ag210
ag212
ag207
ag123
ag217
ag218
ag219
ag209
ag216
ag215
ag205
ag213
ag211
ag204
ag220
ag208
asg45
g598
sg47
g221
sg49
g50
sg51
g52
sg53
(iread_data
Room
p1316
(dp1317
g45
g166
sg47
g167
sbsba(ischedule
Activity
p1318
(dp1319
g8
(lp1320
g761
ag137
ag143
ag138
ag760
ag155
ag142
ag442
ag156
ag762
ag73
ag147
ag144
ag136
ag160
ag171
ag159
ag149
ag672
ag119
ag154
ag145
asg45
g914
sg47
g163
sg49
g50
sg51
g52
sg53
(iread_data
Room
p1321
(dp1322
g45
g100
sg47
g101
sbsbaaa(lp1323
(lp1324
a(lp1325
a(lp1326
a(lp1327
a(lp1328
aasS'timeslot_dict'
p1329
(dp1330
I0
S'9:00-11:00'
p1331
sI1
S'11:00-13:00'
p1332
sI2
S'13:00-15:00'
p1333
sI3
S'15:00-17:00'
p1334
sI4
S'17:00-19:00'
p1335
ssS'day_dict'
p1336
(dp1337
I0
S'Monday'
p1338
sI1
S'Tuesday'
p1339
sI2
S'Wednesday'
p1340
sI3
S'Thursday'
p1341
sI4
S'Friday'
p1342
ssb.