(ischedule
Schedule
p0
(dp1
S'timetable'
p2
(lp3
(lp4
(lp5
(ischedule
Activity
p6
(dp7
S'participants'
p8
(lp9
S'32595335'
p10
aS'75005528'
p11
aS'35330349'
p12
aS'23565001'
p13
aS'80998260'
p14
aS'3474870'
p15
aS'79937969'
p16
aS'79617364'
p17
aS'34243356'
p18
aS'80709893'
p19
aS'94955328'
p20
aS'16333449'
p21
aS'38499176'
p22
aS'4921119'
p23
aS'52311353'
p24
aS'83210352'
p25
aS'48308205'
p26
aS'54074680'
p27
aS'74182182'
p28
aS'5517869'
p29
aS'66570705'
p30
aS'55474917'
p31
aS'61060652'
p32
aS'41578612'
p33
aS'87758823'
p34
aS'91196968'
p35
aS'16097870'
p36
aS'37399898'
p37
aS'34588570'
p38
aS'36508571'
p39
aS'42196732'
p40
aS'68409833'
p41
aS'14591033'
p42
aS'56872729'
p43
aS'77896638'
p44
aS'16011419'
p45
aS'62872965'
p46
aS'21311067'
p47
aS'81218347'
p48
aS'94686490'
p49
aS'55412918'
p50
aS'81385263'
p51
aS'10149535'
p52
aS'42115591'
p53
aS'36527838'
p54
aS'42778953'
p55
aS'26172512'
p56
aS'31416266'
p57
aS'71839156'
p58
aS'96118484'
p59
aS'90743504'
p60
aS'670011'
p61
aS'58866007'
p62
aS'93566383'
p63
asS'capacity'
p64
I1000
sS'name'
p65
S'Lineaire Algebra'
p66
sS'ttype'
p67
S'lectures'
p68
sS'group_id'
p69
I0
sS'room'
p70
(iread_data
Room
p71
(dp72
g64
S'56'
p73
sg65
S'A1.10'
p74
sbsba(ischedule
Activity
p75
(dp76
g8
(lp77
S'74131924'
p78
aS'81022997'
p79
asg64
S'10'
p80
sg65
S'Data Mining'
p81
sg67
S'tutorials'
p82
sg69
S'1'
p83
sg70
(iread_data
Room
p84
(dp85
g64
S'48'
p86
sg65
S'B0.201'
p87
sbsba(ischedule
Activity
p88
(dp89
g8
(lp90
S'22871048'
p91
aS'60352393'
p92
aS'90474003'
p93
aS'3685034'
p94
aS'24277163'
p95
aS'20095994'
p96
aS'92778619'
p97
aS'68286356'
p98
aS'4709948'
p99
aS'36213792'
p100
aS'70844780'
p101
aS'32044893'
p102
aS'13718298'
p103
aS'37110913'
p104
aS'87830198'
p105
aS'99453514'
p106
aS'43680781'
p107
aS'82390428'
p108
aS'27950803'
p109
aS'77960666'
p110
aS'20239127'
p111
aS'5298748'
p112
aS'22826928'
p113
aS'70193386'
p114
aS'42406214'
p115
aS'59753700'
p116
aS'99975346'
p117
asg64
S'20'
p118
sg65
S'Reflectie op de digitale cultuur'
p119
sg67
g82
sg69
g83
sg70
(iread_data
Room
p120
(dp121
g64
S'41'
p122
sg65
S'A1.04'
p123
sbsba(ischedule
Activity
p124
(dp125
g8
(lp126
S'64554442'
p127
aS'14671406'
p128
aS'96453361'
p129
aS'64947290'
p130
aS'58592894'
p131
aS'3707829'
p132
aS'27298319'
p133
aS'78136904'
p134
aS'67817269'
p135
aS'91527663'
p136
aS'23983476'
p137
aS'53585410'
p138
ag51
aS'88596522'
p139
aS'50143947'
p140
aS'72895450'
p141
aS'12077419'
p142
aS'26260141'
p143
aS'44828429'
p144
aS'1665980'
p145
aS'5976174'
p146
aS'66433883'
p147
aS'8522855'
p148
aS'36903574'
p149
aS'23652927'
p150
aS'21964491'
p151
aS'77376714'
p152
aS'40343779'
p153
aS'41527759'
p154
aS'57467488'
p155
aS'43902015'
p156
aS'15902055'
p157
aS'21095566'
p158
aS'34765676'
p159
aS'19540225'
p160
ag15
aS'41585485'
p161
aS'52715680'
p162
aS'82689818'
p163
aS'51509565'
p164
aS'86988337'
p165
aS'51566595'
p166
aS'46701583'
p167
asg64
I1000
sg65
S'Algoritmen en complexiteit'
p168
sg67
g68
sg69
I0
sg70
(iread_data
Room
p169
(dp170
g64
S'117'
p171
sg65
S'C0.110'
p172
sbsba(ischedule
Activity
p173
(dp174
g8
(lp175
S'64246605'
p176
aS'66120270'
p177
aS'51741554'
p178
aS'75664412'
p179
aS'7957843'
p180
aS'7308727'
p181
aS'97136582'
p182
aS'77392404'
p183
aS'1696500'
p184
asg64
S'20'
p185
sg65
S'Netwerken en systeembeveiliging'
p186
sg67
S'labs'
p187
sg69
S'2'
p188
sg70
(iread_data
Room
p189
(dp190
g64
S'20'
p191
sg65
S'A1.08'
p192
sbsba(ischedule
Activity
p193
(dp194
g8
(lp195
S'19958553'
p196
aS'36748818'
p197
aS'13116738'
p198
aS'29718115'
p199
aS'92977271'
p200
aS'11459236'
p201
aS'77636749'
p202
aS'18266644'
p203
aS'70878567'
p204
aS'23257088'
p205
aS'32204977'
p206
aS'62701040'
p207
aS'13658563'
p208
aS'44901052'
p209
aS'8557857'
p210
aS'75521763'
p211
aS'68315599'
p212
aS'17496687'
p213
ag137
aS'58332004'
p214
aS'75585647'
p215
asg64
I1000
sg65
S'Informatie- en organsatieontwerp'
p216
sg67
g68
sg69
I0
sg70
(iread_data
Room
p217
(dp218
g64
S'22'
p219
sg65
S'A1.06'
p220
sbsbaa(lp221
(ischedule
Activity
p222
(dp223
g8
(lp224
g203
ag18
aS'49631542'
p225
aS'31247305'
p226
aS'34262212'
p227
aS'20331158'
p228
aS'28957789'
p229
aS'63634350'
p230
aS'76924297'
p231
aS'5368702'
p232
aS'65003379'
p233
aS'63955238'
p234
aS'79366078'
p235
aS'96054456'
p236
ag35
ag111
aS'7492204'
p237
aS'78735049'
p238
aS'51186803'
p239
aS'54569540'
p240
aS'59544049'
p241
aS'47605891'
p242
ag214
ag53
ag149
aS'84524083'
p243
aS'17823206'
p244
aS'5615125'
p245
aS'69086548'
p246
ag20
ag42
aS'32705005'
p247
aS'58469172'
p248
aS'72547110'
p249
aS'99272880'
p250
aS'14398123'
p251
aS'47462856'
p252
aS'63408522'
p253
aS'11915563'
p254
aS'23391676'
p255
ag134
aS'94467156'
p256
aS'46570285'
p257
aS'31633723'
p258
ag22
aS'56749879'
p259
aS'84110134'
p260
ag48
aS'97019450'
p261
ag161
aS'24875739'
p262
ag128
aS'97371272'
p263
aS'79858178'
p264
aS'37498675'
p265
aS'23798155'
p266
aS'27187154'
p267
aS'58522654'
p268
aS'59075181'
p269
aS'77240949'
p270
ag154
aS'44940353'
p271
aS'39230359'
p272
aS'91139627'
p273
aS'54310617'
p274
ag94
aS'39659121'
p275
aS'89338938'
p276
aS'20883994'
p277
ag202
ag148
aS'39919665'
p278
aS'82688900'
p279
aS'10792879'
p280
aS'10872825'
p281
aS'51542218'
p282
aS'56988998'
p283
ag31
aS'61518436'
p284
aS'64296965'
p285
ag28
aS'22731474'
p286
aS'38329455'
p287
aS'9731271'
p288
asg64
I1000
sg65
S'Kansrekenen 2'
p289
sg67
g68
sg69
I0
sg70
(iread_data
Room
p290
(dp291
g64
g171
sg65
g172
sbsba(ischedule
Activity
p292
(dp293
g8
(lp294
g204
ag78
aS'81200278'
p295
aS'73236988'
p296
aS'3168419'
p297
aS'85335143'
p298
aS'4568018'
p299
ag17
aS'11068043'
p300
aS'30050930'
p301
aS'30195935'
p302
aS'15051051'
p303
aS'77831658'
p304
ag112
aS'56815156'
p305
aS'89985072'
p306
aS'247918'
p307
aS'33930505'
p308
aS'44868097'
p309
ag40
ag129
asg64
S'20'
p310
sg65
S'Bioinformatica'
p311
sg67
g82
sg69
g188
sg70
(iread_data
Room
p312
(dp313
g64
g219
sg65
g220
sbsba(ischedule
Activity
p314
(dp315
g8
(lp316
g166
aS'39459642'
p317
ag29
aS'54026378'
p318
ag41
ag209
ag91
aS'52552718'
p319
ag133
aS'72796858'
p320
aS'70113753'
p321
aS'19858730'
p322
aS'34806836'
p323
ag46
ag104
ag39
asg64
S'10'
p324
sg65
S'Autonomous Agents 2'
p325
sg67
g187
sg69
S'3'
p326
sg70
(iread_data
Room
p327
(dp328
g64
g191
sg65
g192
sbsba(ischedule
Activity
p329
(dp330
g8
(lp331
S'76123484'
p332
aS'49908313'
p333
aS'72577292'
p334
aS'89180944'
p335
aS'14303208'
p336
ag141
ag272
aS'40434933'
p337
aS'1137946'
p338
aS'14847953'
p339
aS'76648468'
p340
aS'22288615'
p341
aS'94930277'
p342
aS'76903244'
p343
ag245
aS'20618153'
p344
aS'53202517'
p345
aS'67073567'
p346
ag183
aS'24891081'
p347
aS'6249823'
p348
ag21
aS'10698627'
p349
aS'64228258'
p350
aS'57086672'
p351
aS'2416751'
p352
aS'41790793'
p353
aS'17092717'
p354
aS'69459473'
p355
aS'61443567'
p356
aS'28358060'
p357
ag15
aS'66034145'
p358
ag156
aS'33877725'
p359
aS'43460038'
p360
aS'27064249'
p361
aS'78243495'
p362
aS'53512831'
p363
asg64
I1000
sg65
S'Webprogrammeren en databases'
p364
sg67
g68
sg69
I0
sg70
(iread_data
Room
p365
(dp366
g64
S'60'
p367
sg65
S'C1.112'
p368
sbsba(ischedule
Activity
p369
(dp370
g8
(lp371
S'73823548'
p372
aS'12430748'
p373
aS'86807027'
p374
ag26
aS'1766560'
p375
asg64
S'15'
p376
sg65
S'Project Numerical Recipes'
p377
sg67
g187
sg69
g83
sg70
(iread_data
Room
p378
(dp379
g64
g73
sg65
g74
sbsba(ischedule
Activity
p380
(dp381
g8
(lp382
g162
aS'13911001'
p383
ag140
ag139
aS'65675896'
p384
aS'55103073'
p385
aS'3407554'
p386
aS'74361881'
p387
aS'5892092'
p388
aS'26406342'
p389
ag201
aS'14138904'
p390
aS'1695839'
p391
ag145
asg64
S'15'
p392
sg65
S'Compilerbouw practicum'
p393
sg67
g187
sg69
g326
sg70
(iread_data
Room
p394
(dp395
g64
g86
sg65
g87
sbsba(ischedule
Activity
p396
(dp397
g8
(lp398
S'88263855'
p399
aS'83415514'
p400
aS'39905995'
p401
aS'44391517'
p402
aS'79167252'
p403
aS'63111000'
p404
aS'85284256'
p405
aS'51593625'
p406
aS'44671041'
p407
aS'23215240'
p408
aS'13996448'
p409
aS'37279234'
p410
asg64
S'20'
p411
sg65
S'Programmeren in Java 2'
p412
sg67
g187
sg69
S'5'
p413
sg70
(iread_data
Room
p414
(dp415
g64
g122
sg65
g123
sbsbaa(lp416
(ischedule
Activity
p417
(dp418
g8
(lp419
g402
ag165
ag317
aS'34110913'
p420
aS'88855695'
p421
aS'14309255'
p422
aS'75599734'
p423
ag212
aS'5595824'
p424
aS'98105190'
p425
ag320
aS'15911353'
p426
aS'95631564'
p427
ag243
ag55
aS'6723948'
p428
aS'86291592'
p429
aS'9067939'
p430
aS'54772132'
p431
ag280
aS'24613625'
p432
aS'49683101'
p433
aS'11741347'
p434
ag26
aS'37770881'
p435
ag109
aS'76802764'
p436
aS'2317551'
p437
aS'46989508'
p438
ag51
ag375
aS'66701209'
p439
aS'76661016'
p440
aS'80135353'
p441
aS'30658799'
p442
aS'94687383'
p443
ag179
aS'60312776'
p444
ag296
aS'79033175'
p445
aS'40791377'
p446
ag18
aS'34872117'
p447
aS'92665222'
p448
aS'8464817'
p449
aS'88636924'
p450
ag386
aS'83266686'
p451
ag44
ag141
ag142
aS'95007221'
p452
aS'65960683'
p453
ag268
aS'13284244'
p454
aS'88752563'
p455
aS'75759231'
p456
ag403
ag345
aS'31194811'
p457
ag180
aS'43689934'
p458
ag254
aS'48503689'
p459
aS'65852230'
p460
aS'2079771'
p461
ag383
ag232
ag267
asg64
I1000
sg65
S'Compilerbouw'
p462
sg67
g68
sg69
I0
sg70
(iread_data
Room
p463
(dp464
g64
g171
sg65
g172
sbsba(ischedule
Activity
p465
(dp466
g8
(lp467
S'29640619'
p468
ag241
aS'4783858'
p469
ag91
ag226
ag103
ag162
ag306
ag299
aS'96554914'
p470
ag300
ag360
ag109
aS'73302736'
p471
ag153
aS'28357474'
p472
aS'4546613'
p473
aS'65318664'
p474
aS'3233378'
p475
aS'3727435'
p476
aS'88176729'
p477
aS'48601268'
p478
aS'14072826'
p479
ag256
ag140
ag146
aS'1048485'
p480
aS'48357272'
p481
aS'27582862'
p482
aS'41153310'
p483
ag276
ag362
ag309
ag359
ag128
ag19
ag31
ag152
aS'31103066'
p484
aS'78443067'
p485
ag53
aS'9287708'
p486
ag258
aS'45915482'
p487
aS'58565406'
p488
ag24
aS'62105897'
p489
ag32
ag335
aS'37830626'
p490
ag260
aS'37744525'
p491
asg64
S'40'
p492
sg65
S'Software engineering'
p493
sg67
g82
sg69
g83
sg70
(iread_data
Room
p494
(dp495
g64
g367
sg65
g368
sbsba(ischedule
Activity
p496
(dp497
g8
(lp498
g298
ag225
aS'78821918'
p499
aS'41489515'
p500
aS'17222374'
p501
aS'70072978'
p502
aS'84449005'
p503
aS'33776961'
p504
ag54
aS'58699305'
p505
asg64
S'20'
p506
sg65
S'Moderne Databases'
p507
sg67
g187
sg69
g188
sg70
(iread_data
Room
p508
(dp509
g64
g122
sg65
g123
sbsba(ischedule
Activity
p510
(dp511
g8
(lp512
S'57595888'
p513
ag270
aS'25106480'
p514
ag350
ag157
ag178
ag389
ag274
asg64
S'20'
p515
sg65
S'Collectieve Intelligentie'
p516
sg67
g187
sg69
g83
sg70
(iread_data
Room
p517
(dp518
g64
g191
sg65
g192
sbsbaa(lp519
(ischedule
Activity
p520
(dp521
g8
(lp522
S'98780382'
p523
ag182
ag204
aS'19337738'
p524
ag295
aS'66122625'
p525
ag78
aS'87900893'
p526
ag491
aS'87314964'
p527
ag166
ag116
ag140
aS'93023961'
p528
aS'22323043'
p529
aS'45414528'
p530
ag106
ag244
aS'68360259'
p531
ag79
ag151
ag104
ag198
ag35
aS'25330192'
p532
ag409
ag24
asg64
I1000
sg65
g81
sg67
g68
sg69
I0
sg70
(iread_data
Room
p533
(dp534
g64
g86
sg65
g87
sbsba(ischedule
Activity
p535
(dp536
g8
g9
sg64
I1000
sg65
g66
sg67
g68
sg69
I0
sg70
(iread_data
Room
p537
(dp538
g64
g171
sg65
g172
sbsba(ischedule
Activity
p539
(dp540
g8
(lp541
g318
aS'6913074'
p542
ag181
ag477
ag428
ag259
ag107
ag236
aS'29526540'
p543
aS'21029457'
p544
ag277
ag268
asg64
g310
sg65
g311
sg67
g82
sg69
g326
sg70
(iread_data
Room
p545
(dp546
g64
g219
sg65
g220
sbsba(ischedule
Activity
p547
(dp548
g8
(lp549
g272
ag245
ag345
ag359
ag358
ag339
ag361
ag353
ag334
ag349
ag336
ag340
ag141
ag346
ag360
ag347
ag343
ag357
ag333
ag362
ag350
ag337
ag354
ag332
ag156
ag351
ag183
asg64
S'20'
p550
sg65
g364
sg67
g187
sg69
g83
sg70
(iread_data
Room
p551
(dp552
g64
g122
sg65
g123
sbsba(ischedule
Activity
p553
(dp554
g8
(lp555
S'28618400'
p556
aS'97135019'
p557
aS'62736669'
p558
ag251
aS'5590289'
p559
ag209
ag269
ag226
ag203
ag148
asg64
g185
sg65
g186
sg67
g187
sg69
S'4'
p560
sg70
(iread_data
Room
p561
(dp562
g64
g73
sg65
g74
sbsba(ischedule
Activity
p563
(dp564
g8
(lp565
S'33760909'
p566
aS'43027916'
p567
aS'31897288'
p568
aS'58736785'
p569
ag356
ag243
ag117
aS'48678993'
p570
aS'83869542'
p571
aS'72652638'
p572
aS'7106649'
p573
aS'58040377'
p574
aS'27925117'
p575
aS'1886996'
p576
ag230
asg64
S'20'
p577
sg65
S'Heuristieken 2'
p578
sg67
g82
sg69
g188
sg70
(iread_data
Room
p579
(dp580
g64
g367
sg65
g368
sbsba(ischedule
Activity
p581
(dp582
g8
(lp583
S'41644639'
p584
aS'5526560'
p585
asg64
S'15'
p586
sg65
S'Project Genetic Algorithms'
p587
sg67
g187
sg69
g326
sg70
(iread_data
Room
p588
(dp589
g64
g191
sg65
g192
sbsbaa(lp590
(ischedule
Activity
p591
(dp592
g8
(lp593
g104
ag166
ag532
ag526
ag106
ag529
ag198
ag525
ag116
ag528
asg64
g80
sg65
g81
sg67
g82
sg69
g188
sg70
(iread_data
Room
p594
(dp595
g64
g191
sg65
g192
sbsba(ischedule
Activity
p596
(dp597
g8
(lp598
g302
ag305
aS'14816774'
p599
ag297
ag542
ag177
aS'28359697'
p600
ag432
ag299
ag477
ag428
ag304
ag107
ag308
ag296
ag151
ag300
ag318
ag306
ag236
ag286
ag544
ag303
ag181
ag112
ag543
ag204
ag298
ag268
ag309
ag277
ag307
ag17
ag78
ag40
ag345
ag359
ag241
aS'64600457'
p601
ag42
ag259
ag295
ag129
ag113
ag301
asg64
I1000
sg65
g311
sg67
g68
sg69
I0
sg70
(iread_data
Room
p602
(dp603
g64
g73
sg65
g74
sbsba(ischedule
Activity
p604
(dp605
g8
(lp606
g15
ag21
ag356
ag341
ag338
ag348
ag352
ag335
ag363
ag355
ag344
ag342
asg64
g550
sg65
g364
sg67
g187
sg69
g188
sg70
(iread_data
Room
p607
(dp608
g64
g122
sg65
g123
sbsba(ischedule
Activity
p609
(dp610
g8
g224
sg64
I1000
sg65
g289
sg67
g68
sg69
I0
sg70
(iread_data
Room
p611
(dp612
g64
g171
sg65
g172
sbsba(ischedule
Activity
p613
(dp614
g8
(lp615
g162
ag137
asg64
S'25'
p616
sg65
g168
sg67
g82
sg69
g188
sg70
(iread_data
Room
p617
(dp618
g64
g86
sg65
g87
sbsba(ischedule
Activity
p619
(dp620
g8
(lp621
g207
ag184
ag29
ag444
ag178
ag469
aS'9332762'
p622
ag163
aS'34773179'
p623
ag334
ag475
ag157
aS'29474737'
p624
ag567
ag140
aS'73980360'
p625
ag95
ag211
ag145
asg64
S'20'
p626
sg65
g516
sg67
g82
sg69
g326
sg70
(iread_data
Room
p627
(dp628
g64
g219
sg65
g220
sbsba(ischedule
Activity
p629
(dp630
g8
(lp631
S'69634191'
p632
ag37
ag358
ag144
ag159
aS'20374340'
p633
ag51
aS'81155296'
p634
aS'2550487'
p635
ag132
aS'38179241'
p636
ag232
ag473
aS'21677389'
p637
aS'19214659'
p638
aS'28055464'
p639
ag339
ag231
aS'23547619'
p640
ag63
ag440
aS'37701751'
p641
ag384
aS'64768422'
p642
ag295
asg64
I1000
sg65
S'Interactie-ontwerp'
p643
sg67
g68
sg69
I0
sg70
(iread_data
Room
p644
(dp645
g64
g367
sg65
g368
sbsbaaa(lp646
(lp647
(ischedule
Activity
p648
(dp649
g8
(lp650
g42
ag50
ag215
ag43
aS'79888156'
p651
ag238
aS'33672995'
p652
aS'10609762'
p653
ag410
ag157
aS'34173695'
p654
ag526
aS'87602030'
p655
aS'31306819'
p656
ag143
ag350
ag298
ag131
aS'93361408'
p657
aS'47932106'
p658
ag440
aS'23658570'
p659
aS'56544130'
p660
ag566
ag28
ag544
aS'6709529'
p661
ag267
aS'3678531'
p662
aS'56348773'
p663
ag599
ag469
ag505
ag257
aS'59220392'
p664
aS'53139134'
p665
ag400
ag575
aS'78544592'
p666
aS'22168693'
p667
aS'82412626'
p668
ag471
aS'23628642'
p669
ag374
aS'14179347'
p670
ag229
ag52
ag288
aS'86180471'
p671
asg64
S'40'
p672
sg65
S'Calculus 2'
p673
sg67
g82
sg69
g83
sg70
(iread_data
Room
p674
(dp675
g64
g73
sg65
g74
sbsba(ischedule
Activity
p676
(dp677
g8
(lp678
g107
ag640
ag389
ag211
aS'11996292'
p679
ag622
ag573
ag246
ag373
ag263
ag142
ag488
aS'4697362'
p680
ag202
ag529
ag206
ag457
ag298
ag33
aS'70336464'
p681
aS'36785409'
p682
aS'77264363'
p683
aS'21192048'
p684
aS'47982619'
p685
aS'93041523'
p686
ag179
aS'76487754'
p687
ag337
asg64
S'20'
p688
sg65
S'Technology for games'
p689
sg67
g82
sg69
g188
sg70
(iread_data
Room
p690
(dp691
g64
g86
sg65
g87
sbsba(ischedule
Activity
p692
(dp693
g8
(lp694
S'62363761'
p695
ag489
ag403
ag49
ag230
ag247
ag451
ag13
ag361
aS'72526473'
p696
ag481
ag601
aS'77306636'
p697
ag485
aS'86000192'
p698
ag455
ag36
aS'80188025'
p699
aS'70939718'
p700
ag557
aS'38296757'
p701
aS'47477884'
p702
ag487
aS'6939933'
p703
aS'61520025'
p704
ag542
ag309
ag236
ag421
ag473
ag428
aS'65978354'
p705
aS'65408517'
p706
ag17
ag636
ag167
ag634
aS'19717077'
p707
ag574
aS'40141996'
p708
aS'75997788'
p709
aS'55530367'
p710
aS'58253841'
p711
aS'75623387'
p712
ag248
aS'75446434'
p713
ag178
ag372
aS'11593163'
p714
asg64
g672
sg65
g673
sg67
g82
sg69
g188
sg70
(iread_data
Room
p715
(dp716
g64
g171
sg65
g172
sbsba(ischedule
Activity
p717
(dp718
g8
(lp719
g204
ag151
ag35
ag140
ag24
ag530
ag409
ag295
ag244
ag182
ag524
ag523
ag491
ag531
ag527
asg64
g80
sg65
g81
sg67
g82
sg69
g326
sg70
(iread_data
Room
p720
(dp721
g64
g367
sg65
g368
sbsba(ischedule
Activity
p722
(dp723
g8
(lp724
g322
ag133
ag319
ag41
ag318
ag36
ag320
ag91
ag104
ag166
ag209
aS'61611295'
p725
ag323
ag254
aS'88627897'
p726
ag317
ag29
ag321
aS'62356458'
p727
ag46
ag39
ag78
asg64
I1000
sg65
g325
sg67
g68
sg69
I0
sg70
(iread_data
Room
p728
(dp729
g64
g219
sg65
g220
sbsba(ischedule
Activity
p730
(dp731
g8
(lp732
g433
ag375
ag447
ag422
ag212
ag438
ag383
ag55
ag460
ag442
ag437
ag296
ag51
ag280
ag243
ag424
ag444
ag443
ag445
ag402
ag441
ag458
ag450
asg64
S'40'
p733
sg65
g462
sg67
g82
sg69
g188
sg70
(iread_data
Room
p734
(dp735
g64
g122
sg65
g123
sbsba(ischedule
Activity
p736
(dp737
g8
(lp738
g208
ag165
aS'13092455'
p739
ag503
ag240
ag162
ag183
asg64
g118
sg65
g119
sg67
g82
sg69
g326
sg70
(iread_data
Room
p740
(dp741
g64
g191
sg65
g192
sbsbaa(lp742
(ischedule
Activity
p743
(dp744
g8
(lp745
g29
ag332
ag389
ag44
ag599
ag641
ag236
ag259
ag567
ag501
ag95
ag156
ag739
ag297
ag702
ag40
ag130
ag43
aS'56191333'
p746
ag163
ag558
ag354
ag708
ag317
ag585
ag61
ag447
ag468
aS'58083680'
p747
ag499
ag285
aS'25077484'
p748
aS'12091019'
p749
aS'13132925'
p750
ag543
ag165
ag93
ag155
ag23
ag571
ag92
aS'59397895'
p751
aS'54540997'
p752
ag110
ag455
ag658
aS'4529208'
p753
ag131
ag225
ag282
aS'15187217'
p754
aS'72456780'
p755
ag438
ag136
ag166
ag49
aS'5085194'
p756
ag671
ag659
aS'56121590'
p757
ag372
ag502
aS'26207525'
p758
ag337
ag11
ag320
ag307
asg64
S'40'
p759
sg65
S'Databases 2'
p760
sg67
g82
sg69
g188
sg70
(iread_data
Room
p761
(dp762
g64
g171
sg65
g172
sbsba(ischedule
Activity
p763
(dp764
g8
(lp765
g254
ag725
asg64
g324
sg65
g325
sg67
g187
sg69
g83
sg70
(iread_data
Room
p766
(dp767
g64
g191
sg65
g192
sbsba(ischedule
Activity
p768
(dp769
g8
(lp770
g475
ag296
ag359
ag477
ag309
ag318
ag478
ag146
ag241
ag469
ag140
ag362
ag514
ag306
ag472
ag300
ag299
ag491
ag422
ag471
ag480
ag276
ag529
ag260
ag19
ag444
ag483
ag24
ag423
aS'58074656'
p771
aS'70015932'
p772
ag489
ag91
ag53
ag128
ag25
ag335
ag256
ag31
ag490
ag427
ag153
ag32
aS'99283252'
p773
ag360
ag487
ag482
ag406
aS'82872148'
p774
ag258
ag468
ag41
ag476
ag488
ag226
ag485
ag154
ag143
ag474
asg64
S'40'
p775
sg65
g493
sg67
g187
sg69
g83
sg70
(iread_data
Room
p776
(dp777
g64
g367
sg65
g368
sbsba(ischedule
Activity
p778
(dp779
g8
(lp780
g284
ag682
aS'51415617'
p781
ag351
aS'51052738'
p782
ag470
ag33
aS'60661905'
p783
ag542
ag37
ag243
ag134
aS'27805666'
p784
aS'27370083'
p785
aS'49922855'
p786
ag701
ag504
asg64
g118
sg65
g119
sg67
g82
sg69
g188
sg70
(iread_data
Room
p787
(dp788
g64
g219
sg65
g220
sbsba(ischedule
Activity
p789
(dp790
g8
g195
sg64
I1000
sg65
g216
sg67
g68
sg69
I0
sg70
(iread_data
Room
p791
(dp792
g64
g86
sg65
g87
sbsba(ischedule
Activity
p793
(dp794
g8
(lp795
g425
ag268
ag453
ag429
ag435
ag55
ag420
ag451
ag375
ag432
ag461
ag448
ag180
ag424
ag428
ag280
ag457
asg64
S'40'
p796
sg65
g462
sg67
g187
sg69
g188
sg70
(iread_data
Room
p797
(dp798
g64
g73
sg65
g74
sbsba(ischedule
Activity
p799
(dp800
g8
(lp801
g36
ag78
ag726
ag727
asg64
g324
sg65
g325
sg67
g187
sg69
g188
sg70
(iread_data
Room
p802
(dp803
g64
g122
sg65
g123
sbsbaa(lp804
(ischedule
Activity
p805
(dp806
g8
(lp807
g53
ag499
aS'97838175'
p808
aS'83443653'
p809
aS'34900967'
p810
ag659
aS'58480929'
p811
aS'18477924'
p812
aS'72586808'
p813
ag304
ag103
ag91
aS'78822885'
p814
ag652
ag18
ag203
ag282
aS'62613937'
p815
ag709
ag783
ag298
ag756
aS'14637758'
p816
ag114
ag20
ag567
ag105
ag23
ag33
aS'88737765'
p817
ag24
ag36
ag474
ag305
ag481
ag261
ag570
ag471
ag266
aS'73350019'
p818
ag660
ag755
aS'82854435'
p819
ag424
ag351
ag682
ag285
ag699
ag13
asg64
I1000
sg65
S'Analysemethoden en -technieken'
p820
sg67
g68
sg69
I0
sg70
(iread_data
Room
p821
(dp822
g64
g73
sg65
g74
sbsba(ischedule
Activity
p823
(dp824
g8
(lp825
g41
ag323
ag317
ag104
ag39
asg64
S'10'
p826
sg65
g325
sg67
g82
sg69
g188
sg70
(iread_data
Room
p827
(dp828
g64
g219
sg65
g220
sbsba(ischedule
Activity
p829
(dp830
g8
(lp831
g51
ag144
ag148
ag15
ag149
ag128
ag154
ag159
ag134
ag132
ag166
ag161
ag151
ag129
ag156
ag138
ag153
ag131
ag150
ag163
ag145
ag135
ag130
ag152
ag155
ag147
ag139
ag157
ag141
ag146
ag133
ag127
ag140
ag167
ag136
ag160
ag164
ag165
ag143
ag142
ag158
asg64
g616
sg65
g168
sg67
g82
sg69
g83
sg70
(iread_data
Room
p832
(dp833
g64
g171
sg65
g172
sbsba(ischedule
Activity
p834
(dp835
g8
(lp836
g236
ag574
ag441
ag635
aS'28943658'
p837
asg64
g411
sg65
g412
sg67
g187
sg69
g560
sg70
(iread_data
Room
p838
(dp839
g64
g122
sg65
g123
sbsba(ischedule
Activity
p840
(dp841
g8
(lp842
g212
ag422
ag375
ag107
ag211
ag451
ag95
ag543
aS'18144425'
p843
ag679
ag214
aS'66621166'
p844
ag485
aS'49219163'
p845
aS'27241113'
p846
ag257
ag252
aS'51650744'
p847
ag773
ag404
ag666
ag434
ag335
ag400
aS'59111489'
p848
aS'27916487'
p849
aS'48198668'
p850
ag99
ag601
ag303
aS'1181560'
p851
asg64
g506
sg65
g507
sg67
g187
sg69
g83
sg70
(iread_data
Room
p852
(dp853
g64
g86
sg65
g87
sbsba(ischedule
Activity
p854
(dp855
g8
(lp856
g468
ag444
ag44
ag625
ag207
ag435
ag469
ag622
aS'42171678'
p857
ag34
aS'50184318'
p858
aS'68601184'
p859
ag501
aS'53107172'
p860
ag640
ag40
aS'64393888'
p861
asg64
g515
sg65
g516
sg67
g187
sg69
g188
sg70
(iread_data
Room
p862
(dp863
g64
g367
sg65
g368
sbsbaa(lp864
(ischedule
Activity
p865
(dp866
g8
(lp867
g268
ag207
ag624
ag739
ag468
ag429
ag861
ag44
ag514
ag566
ag513
ag567
ag623
ag859
ag178
ag444
ag181
ag478
ag453
ag12
ag57
ag29
ag475
ag469
ag435
aS'45556081'
p868
ag557
aS'1075391'
p869
aS'22699561'
p870
ag472
aS'13534377'
p871
aS'46052388'
p872
ag140
aS'96104167'
p873
ag211
ag95
ag151
ag625
ag145
ag270
ag332
ag858
ag501
ag285
ag698
ag334
ag55
ag857
ag40
ag274
ag356
ag860
ag163
ag184
ag350
ag157
aS'17575088'
p874
ag34
ag389
ag640
ag622
asg64
I1000
sg65
g516
sg67
g68
sg69
I0
sg70
(iread_data
Room
p875
(dp876
g64
g171
sg65
g172
sbsba(ischedule
Activity
p877
(dp878
g8
(lp879
g529
ag679
ag469
ag228
aS'14941752'
p880
ag211
ag809
ag42
aS'97417002'
p881
ag374
ag299
ag149
aS'76393508'
p882
ag48
ag200
ag155
ag208
aS'79879876'
p883
ag261
ag569
aS'87210640'
p884
aS'20830477'
p885
ag259
ag342
ag860
ag568
ag269
ag390
ag104
ag425
ag599
aS'53775014'
p886
aS'45660925'
p887
ag709
ag58
ag184
aS'4353500'
p888
ag525
ag91
ag322
ag32
ag209
ag857
ag481
asg64
I1000
sg65
S'Heuristieken 1'
p889
sg67
g68
sg69
I0
sg70
(iread_data
Room
p890
(dp891
g64
g86
sg65
g87
sbsba(ischedule
Activity
p892
(dp893
g8
(lp894
g438
ag296
ag254
ag165
ag212
ag320
ag422
ag455
ag436
ag317
ag447
ag423
ag141
ag421
ag444
ag440
ag18
ag439
ag179
ag430
ag450
ag386
ag427
ag345
ag402
ag109
ag44
ag460
ag243
ag232
ag452
ag26
ag441
ag456
ag459
ag383
ag454
ag431
ag51
ag449
ag426
ag267
ag434
ag446
ag403
ag437
ag433
ag142
ag445
ag443
ag458
ag442
asg64
g796
sg65
g462
sg67
g187
sg69
g83
sg70
(iread_data
Room
p895
(dp896
g64
g73
sg65
g74
sbsba(ischedule
Activity
p897
(dp898
g8
(lp899
g61
ag79
ag295
ag166
ag36
ag655
ag362
ag146
aS'35315956'
p900
ag351
ag286
aS'82968410'
p901
ag159
aS'52304977'
p902
aS'15249775'
p903
aS'5739011'
p904
aS'85236626'
p905
asg64
g577
sg65
g578
sg67
g82
sg69
g83
sg70
(iread_data
Room
p906
(dp907
g64
g122
sg65
g123
sbsbaa(lp908
(ischedule
Activity
p909
(dp910
g8
g419
sg64
I1000
sg65
g462
sg67
g68
sg69
I0
sg70
(iread_data
Room
p911
(dp912
g64
g367
sg65
g368
sbsba(ischedule
Activity
p913
(dp914
g8
(lp915
g475
ag41
ag158
ag444
ag360
ag335
ag152
ag422
ag727
ag423
ag296
ag774
ag128
ag143
ag359
ag306
ag468
ag471
ag479
ag474
ag477
ag254
ag481
ag103
ag24
ag406
ag771
ag488
ag309
ag319
ag318
ag299
ag478
ag427
ag153
ag300
ag491
ag53
ag146
ag482
ag489
ag485
ag476
ag226
ag109
ag472
ag473
ag407
ag260
ag470
ag773
ag486
ag154
ag256
ag490
ag487
ag31
ag483
ag484
ag480
ag241
ag162
ag32
ag706
ag529
ag25
ag258
ag772
ag469
ag91
ag140
ag514
ag362
ag276
ag19
asg64
I1000
sg65
g493
sg67
g68
sg69
I0
sg70
g290
sba(ischedule
Activity
p916
(dp917
g8
(lp918
g151
ag739
ag163
ag356
ag567
ag145
ag181
ag870
ag557
ag874
ag12
ag566
ag285
ag95
asg64
g515
sg65
g516
sg67
g187
sg69
g560
sg70
(iread_data
Room
p919
(dp920
g64
g122
sg65
g123
sbsba(ischedule
Activity
p921
(dp922
g8
(lp923
g104
asg64
S'10'
p924
sg65
g81
sg67
g187
sg69
g83
sg70
(iread_data
Room
p925
(dp926
g64
g191
sg65
g192
sbsba(ischedule
Activity
p927
(dp928
g8
(lp929
g199
ag137
ag203
ag209
ag197
ag213
ag211
ag200
ag198
ag202
ag196
ag208
ag214
asg64
S'15'
p930
sg65
g216
sg67
g187
sg69
g83
sg70
(iread_data
Room
p931
(dp932
g64
g86
sg65
g87
sbsba(ischedule
Activity
p933
(dp934
g8
(lp935
g576
ag640
ag709
ag556
aS'40633534'
p936
ag702
ag92
ag334
ag448
ag277
ag297
ag134
ag361
aS'39429093'
p937
ag815
ag374
aS'72683344'
p938
ag339
ag101
aS'72665524'
p939
asg64
I1000
sg65
S'Advanced Heuristics'
p940
sg67
g68
sg69
I0
sg70
(iread_data
Room
p941
(dp942
g64
g219
sg65
g220
sbsba(ischedule
Activity
p943
(dp944
g8
(lp945
g36
ag726
ag29
ag725
ag166
ag322
asg64
g826
sg65
g325
sg67
g82
sg69
g83
sg70
(iread_data
Room
p946
(dp947
g64
g73
sg65
g74
sbsbaaa(lp948
(lp949
(ischedule
Activity
p950
(dp951
g8
g331
sg64
I1000
sg65
g364
sg67
g68
sg69
I0
sg70
(iread_data
Room
p952
(dp953
g64
g86
sg65
g87
sbsba(ischedule
Activity
p954
(dp955
g8
(lp956
g404
ag451
aS'13218321'
p957
ag434
ag298
ag505
ag844
ag99
ag485
aS'96082155'
p958
ag709
ag847
ag383
ag257
ag375
ag858
ag54
ag846
ag212
ag848
ag773
ag843
ag850
ag499
ag851
ag152
ag197
ag666
ag543
aS'3883025'
p959
ag849
ag29
ag422
ag845
ag500
ag504
ag107
ag335
ag442
ag400
ag502
ag501
ag95
ag503
ag252
ag214
ag131
ag362
ag303
ag857
ag211
ag225
ag601
ag679
asg64
I1000
sg65
g507
sg67
g68
sg69
I0
sg70
(iread_data
Room
p960
(dp961
g64
g73
sg65
g74
sbsba(ischedule
Activity
p962
(dp963
g8
(lp964
g317
aS'67625383'
p965
ag461
ag446
ag256
aS'33252501'
p966
ag94
ag404
ag270
ag905
ag433
ag266
ag167
ag267
aS'90067329'
p967
ag146
ag283
ag491
ag303
ag284
aS'26857113'
p968
ag701
asg64
I1000
sg65
S'Machine Learning'
p969
sg67
g68
sg69
I0
sg70
(iread_data
Room
p970
(dp971
g64
g219
sg65
g220
sbsba(ischedule
Activity
p972
(dp973
g8
(lp974
g105
ag163
ag51
ag758
ag405
ag308
ag431
ag570
ag468
ag18
ag302
ag480
ag153
ag755
aS'25557516'
p975
aS'53267490'
p976
asg64
g185
sg65
g186
sg67
g187
sg69
g326
sg70
(iread_data
Room
p977
(dp978
g64
g191
sg65
g192
sbsba(ischedule
Activity
p979
(dp980
g8
(lp981
g531
ag409
ag524
ag529
ag35
ag527
ag116
ag79
ag526
ag532
ag166
ag198
ag78
asg64
g924
sg65
g81
sg67
g187
sg69
g188
sg70
(iread_data
Room
p982
(dp983
g64
g122
sg65
g123
sbsba(ischedule
Activity
p984
(dp985
g8
(lp986
g299
ag599
ag42
ag469
ag569
ag860
ag568
ag259
ag184
ag104
ag209
ag155
ag425
ag525
ag261
ag888
ag374
ag200
ag211
ag481
ag886
ag884
ag882
ag885
ag857
ag58
ag390
ag880
ag149
ag208
ag269
ag887
asg64
S'25'
p987
sg65
g889
sg67
g82
sg69
g83
sg70
(iread_data
Room
p988
(dp989
g64
g367
sg65
g368
sbsba(ischedule
Activity
p990
(dp991
g8
(lp992
S'81116418'
p993
ag276
ag556
ag739
ag11
ag102
ag638
aS'40911986'
p994
ag55
ag455
ag703
ag260
ag459
asg64
g376
sg65
g377
sg67
g187
sg69
g188
sg70
(iread_data
Room
p995
(dp996
g64
g171
sg65
g172
sbsbaa(lp997
(ischedule
Activity
p998
(dp999
g8
g867
sg64
I1000
sg65
g516
sg67
g68
sg69
I0
sg70
(iread_data
Room
p1000
(dp1001
g64
g171
sg65
g172
sbsba(ischedule
Activity
p1002
(dp1003
g8
(lp1004
g205
ag214
ag319
ag679
aS'27123462'
p1005
asg64
g759
sg65
g760
sg67
g82
sg69
g83
sg70
(iread_data
Room
p1006
(dp1007
g64
g219
sg65
g220
sbsba(ischedule
Activity
p1008
(dp1009
g8
(lp1010
g938
ag556
ag361
ag448
ag92
ag702
ag576
ag277
ag709
ag101
ag297
ag936
ag815
asg64
S'10'
p1011
sg65
g940
sg67
g187
sg69
g83
sg70
(iread_data
Room
p1012
(dp1013
g64
g122
sg65
g123
sbsba(ischedule
Activity
p1014
(dp1015
g8
g631
sg64
I1000
sg65
g643
sg67
g68
sg69
I0
sg70
(iread_data
Room
p1016
(dp1017
g64
g367
sg65
g368
sbsba(ischedule
Activity
p1018
(dp1019
g8
(lp1020
g601
ag204
ag309
ag303
ag345
ag299
ag17
ag428
ag305
ag359
ag259
ag308
ag599
ag544
ag296
ag298
ag543
ag241
asg64
S'20'
p1021
sg65
g311
sg67
g187
sg69
g83
sg70
(iread_data
Room
p1022
(dp1023
g64
g191
sg65
g192
sbsba(ischedule
Activity
p1024
(dp1025
g8
(lp1026
g236
ag107
ag600
ag113
ag112
ag42
ag306
ag542
ag286
ag432
asg64
g1021
sg65
g311
sg67
g187
sg69
g326
sg70
(iread_data
Room
p1027
(dp1028
g64
g73
sg65
g74
sbsbaa(lp1029
(ischedule
Activity
p1030
(dp1031
g8
(lp1032
g151
ag163
ag15
ag155
ag166
ag156
ag149
ag141
ag127
ag129
ag133
ag159
ag152
ag130
ag146
ag132
ag164
ag157
ag139
ag148
ag131
ag144
asg64
S'25'
p1033
sg65
g168
sg67
g187
sg69
g188
sg70
(iread_data
Room
p1034
(dp1035
g64
g367
sg65
g368
sbsba(ischedule
Activity
p1036
(dp1037
g8
(lp1038
g784
ag114
ag99
ag96
ag351
ag33
ag183
ag165
ag103
ag701
ag37
ag504
ag542
ag682
ag162
ag107
ag101
ag108
ag782
ag781
ag93
ag243
ag783
ag104
ag470
ag95
ag284
ag91
ag102
ag116
ag503
ag110
ag208
ag785
ag106
ag100
ag112
ag134
ag94
ag113
ag109
ag739
ag786
ag105
ag111
ag115
ag97
ag92
ag98
ag117
ag240
asg64
I1000
sg65
g119
sg67
g68
sg69
I0
sg70
(iread_data
Room
p1039
(dp1040
g64
g73
sg65
g74
sbsba(ischedule
Activity
p1041
(dp1042
g8
(lp1043
g22
ag230
ag250
ag408
aS'535689'
p1044
aS'25994016'
p1045
aS'51472074'
p1046
aS'51673172'
p1047
aS'64418623'
p1048
aS'91250534'
p1049
aS'44151631'
p1050
ag584
aS'42297781'
p1051
ag939
ag300
aS'47260040'
p1052
ag306
ag206
ag336
ag138
ag299
aS'14383795'
p1053
ag756
asg64
g392
sg65
g393
sg67
g187
sg69
g83
sg70
(iread_data
Room
p1054
(dp1055
g64
g86
sg65
g87
sbsba(ischedule
Activity
p1056
(dp1057
g8
(lp1058
g444
ag422
ag427
ag254
ag423
ag296
ag158
ag406
ag25
ag514
ag771
ag773
ag154
ag407
ag774
ag319
ag706
ag143
ag772
ag727
ag318
ag41
ag529
asg64
g492
sg65
g493
sg67
g82
sg69
g188
sg70
(iread_data
Room
p1059
(dp1060
g64
g122
sg65
g123
sbsba(ischedule
Activity
p1061
(dp1062
g8
(lp1063
g868
ag332
ag453
ag140
ag871
ag475
ag624
ag698
ag478
ag268
ag55
ag872
ag29
ag869
ag184
ag873
ag57
ag211
ag429
ag623
ag472
ag334
asg64
g515
sg65
g516
sg67
g187
sg69
g326
sg70
(iread_data
Room
p1064
(dp1065
g64
g171
sg65
g172
sbsba(ischedule
Activity
p1066
(dp1067
g8
(lp1068
g513
ag58
aS'82066165'
p1069
asg64
g392
sg65
g393
sg67
g187
sg69
g188
sg70
(iread_data
Room
p1070
(dp1071
g64
g191
sg65
g192
sbsbaa(lp1072
(ischedule
Activity
p1073
(dp1074
g8
(lp1075
g248
ag36
ag703
ag659
ag143
ag705
ag653
ag309
ag712
ag178
ag131
ag473
ag487
ag698
ag257
ag336
ag133
ag666
ag657
ag421
ag138
ag267
ag428
ag704
ag542
ag667
ag229
ag481
ag455
ag372
ag707
ag52
ag575
ag42
ag238
ag247
ag665
ag288
ag236
ag361
ag655
ag652
ag709
ag440
ag661
ag471
ag699
ag636
ag939
ag658
ag298
ag701
ag485
ag700
ag49
ag601
ag668
ag662
ag157
ag669
ag599
ag400
ag17
ag651
ag505
ag713
ag374
ag544
ag695
ag50
ag262
ag749
ag714
ag230
ag663
ag245
ag711
ag526
ag28
ag702
ag656
ag654
ag557
ag13
ag710
ag671
ag566
ag215
ag670
ag451
ag574
ag43
ag489
ag410
ag350
ag708
ag664
ag660
ag706
ag469
ag280
ag634
ag696
ag167
ag403
ag697
asg64
I1000
sg65
g673
sg67
g68
sg69
I0
sg70
(iread_data
Room
p1076
(dp1077
g64
g171
sg65
g172
sbsba(ischedule
Activity
p1078
(dp1079
g8
(lp1080
g196
ag205
ag206
ag201
ag197
ag213
asg64
S'15'
p1081
sg65
g216
sg67
g82
sg69
g188
sg70
(iread_data
Room
p1082
(dp1083
g64
g86
sg65
g87
sbsba(ischedule
Activity
p1084
(dp1085
g8
g1038
sg64
I1000
sg65
g119
sg67
g68
sg69
I0
sg70
(iread_data
Room
p1086
(dp1087
g64
g73
sg65
g74
sbsba(ischedule
Activity
p1088
(dp1089
g8
(lp1090
g268
ag151
ag295
ag181
ag40
ag297
ag277
ag302
ag477
ag177
ag304
ag78
ag307
ag318
ag129
ag300
ag301
asg64
g1021
sg65
g311
sg67
g187
sg69
g188
sg70
(iread_data
Room
p1091
(dp1092
g64
g191
sg65
g192
sbsba(ischedule
Activity
p1093
(dp1094
g8
(lp1095
g335
ag360
ag337
ag334
ag356
ag352
ag354
ag338
ag363
ag21
ag332
ag362
ag339
ag333
ag347
ag343
ag348
asg64
S'20'
p1096
sg65
g364
sg67
g82
sg69
g188
sg70
(iread_data
Room
p1097
(dp1098
g64
g219
sg65
g220
sbsbaa(lp1099
(ischedule
Activity
p1100
(dp1101
g8
(lp1102
g749
ag130
ag756
ag155
ag11
ag307
ag165
ag136
ag567
ag468
ag166
ag750
ag319
ag29
ag95
ag332
ag501
ag389
ag438
ag754
ag748
ag708
ag205
ag23
ag92
ag499
ag156
ag571
ag259
ag679
ag317
ag110
ag40
ag372
ag739
ag214
ag1005
ag49
ag43
ag753
ag746
ag757
ag447
ag44
ag543
ag671
ag93
ag755
ag320
ag585
ag752
ag282
ag659
ag502
ag455
ag599
ag747
ag641
ag285
ag354
ag337
ag225
ag163
ag751
ag297
ag131
ag658
ag236
ag558
ag758
ag61
ag702
asg64
I1000
sg65
g760
sg67
g68
sg69
I0
sg70
(iread_data
Room
p1103
(dp1104
g64
g171
sg65
g172
sbsba(ischedule
Activity
p1105
(dp1106
g8
(lp1107
g335
ag434
asg64
S'20'
p1108
sg65
g507
sg67
g82
sg69
g83
sg70
(iread_data
Room
p1109
(dp1110
g64
g219
sg65
g220
sbsba(ischedule
Activity
p1111
(dp1112
g8
(lp1113
g94
ag286
ag79
ag444
ag115
aS'19662602'
p1114
ag28
aS'34691309'
p1115
aS'21070547'
p1116
aS'32183908'
p1117
aS'63939720'
p1118
ag296
ag141
ag880
aS'90103047'
p1119
ag180
ag304
aS'63573738'
p1120
ag635
ag429
ag727
ag181
aS'37419523'
p1121
ag409
ag300
ag454
asg64
g376
sg65
g377
sg67
g187
sg69
g326
sg70
(iread_data
Room
p1122
(dp1123
g64
g86
sg65
g87
sbsba(ischedule
Activity
p1124
(dp1125
g8
(lp1126
g491
ag24
ag182
ag525
ag528
ag151
ag140
ag204
ag106
ag295
ag244
ag530
ag523
asg64
g924
sg65
g81
sg67
g187
sg69
g326
sg70
(iread_data
Room
p1127
(dp1128
g64
g73
sg65
g74
sbsba(ischedule
Activity
p1129
(dp1130
g8
(lp1131
g263
ag104
aS'92496780'
p1132
ag26
ag573
ag683
ag680
ag684
ag33
ag107
ag681
ag298
ag209
ag142
ag211
ag488
ag687
ag52
ag202
ag622
ag337
ag206
ag422
ag348
ag686
ag276
ag389
ag640
ag679
ag1053
ag212
ag685
ag373
ag246
ag457
ag529
ag179
ag682
asg64
I1000
sg65
g689
sg67
g68
sg69
I0
sg70
(iread_data
Room
p1133
(dp1134
g64
g367
sg65
g368
sbsba(ischedule
Activity
p1135
(dp1136
g8
(lp1137
g709
ag857
ag601
ag851
ag451
ag957
ag197
asg64
g1108
sg65
g507
sg67
g82
sg69
g188
sg70
(iread_data
Room
p1138
(dp1139
g64
g122
sg65
g123
sbsba(ischedule
Activity
p1140
(dp1141
g8
(lp1142
g41
ag231
ag817
ag432
ag440
ag256
ag670
ag503
ag575
aS'55480737'
p1143
ag936
ag109
ag435
ag167
ag105
ag1069
ag387
asg64
g586
sg65
g587
sg67
g187
sg69
g83
sg70
(iread_data
Room
p1144
(dp1145
g64
g191
sg65
g192
sbsbaaa(lp1146
(lp1147
(ischedule
Activity
p1148
(dp1149
g8
g598
sg64
I1000
sg65
g311
sg67
g68
sg69
I0
sg70
(iread_data
Room
p1150
(dp1151
g64
g86
sg65
g87
sbsba(ischedule
Activity
p1152
(dp1153
g8
g867
sg64
I1000
sg65
g516
sg67
g68
sg69
I0
sg70
(iread_data
Room
p1154
(dp1155
g64
g171
sg65
g172
sbsba(ischedule
Activity
p1156
(dp1157
g8
(lp1158
g709
ag679
ag342
ag529
ag48
ag322
ag91
ag881
ag228
ag883
ag32
ag809
asg64
g987
sg65
g889
sg67
g82
sg69
g188
sg70
(iread_data
Room
p1159
(dp1160
g64
g191
sg65
g192
sbsba(ischedule
Activity
p1161
(dp1162
g8
(lp1163
g566
ag567
ag901
ag569
ag230
ag146
ag570
ag900
ag36
ag362
ag356
ag904
ag159
ag575
ag286
ag295
ag573
ag655
ag903
ag351
ag61
ag166
ag117
ag243
ag79
ag571
ag902
ag574
ag905
ag568
ag572
ag576
asg64
I1000
sg65
g578
sg67
g68
sg69
I0
sg70
(iread_data
Room
p1164
(dp1165
g64
g367
sg65
g368
sbsba(ischedule
Activity
p1166
(dp1167
g8
(lp1168
g254
ag319
ag727
ag407
ag486
ag162
ag470
ag103
ag481
ag152
ag484
ag706
ag158
ag109
ag479
ag473
asg64
g775
sg65
g493
sg67
g187
sg69
g188
sg70
(iread_data
Room
p1169
(dp1170
g64
g219
sg65
g220
sbsba(ischedule
Activity
p1171
(dp1172
g8
(lp1173
g52
ag104
ag209
ag422
ag212
ag26
ag276
ag1132
ag348
ag1053
asg64
g688
sg65
g689
sg67
g82
sg69
g83
sg70
(iread_data
Room
p1174
(dp1175
g64
g73
sg65
g74
sbsba(ischedule
Activity
p1176
(dp1177
g8
(lp1178
g280
ag133
ag939
ag749
ag336
ag138
ag245
ag262
asg64
g672
sg65
g673
sg67
g82
sg69
g326
sg70
(iread_data
Room
p1179
(dp1180
g64
g122
sg65
g123
sbsbaa(lp1181
(ischedule
Activity
p1182
(dp1183
g8
(lp1184
g938
ag772
ag868
ag433
ag447
ag266
ag575
ag334
ag556
ag337
ag360
ag62
aS'13798030'
p1185
ag52
ag199
ag335
ag228
aS'59289233'
p1186
ag390
ag163
ag451
asg64
I1000
sg65
S'Architectuur en computerorganisatie'
p1187
sg67
g68
sg69
I0
sg70
(iread_data
Room
p1188
(dp1189
g64
g122
sg65
g123
sbsba(ischedule
Activity
p1190
(dp1191
g8
g522
sg64
I1000
sg65
g81
sg67
g68
sg69
I0
sg70
(iread_data
Room
p1192
(dp1193
g64
g367
sg65
g368
sbsba(ischedule
Activity
p1194
(dp1195
g8
(lp1196
g339
ag640
ag374
ag134
ag937
ag939
ag334
asg64
g1011
sg65
g940
sg67
g187
sg69
g188
sg70
(iread_data
Room
p1197
(dp1198
g64
g219
sg65
g220
sbsba(ischedule
Activity
p1199
(dp1200
g8
(lp1201
g662
ag113
ag255
ag321
aS'51791169'
p1202
ag810
ag601
ag259
ag137
ag237
ag861
ag205
ag248
ag483
asg64
g411
sg65
g412
sg67
g187
sg69
g326
sg70
(iread_data
Room
p1203
(dp1204
g64
g191
sg65
g192
sbsba(ischedule
Activity
p1205
(dp1206
g8
(lp1207
g317
ag320
ag254
ag457
ag432
ag459
ag421
ag403
ag179
ag439
ag267
ag455
ag440
ag446
ag429
ag142
ag109
ag426
ag461
ag141
ag434
ag453
ag165
ag454
ag232
ag428
ag448
ag44
ag427
ag435
ag180
ag268
ag420
ag431
ag386
ag456
ag449
ag452
ag423
ag436
ag26
ag18
ag345
ag451
ag430
ag425
asg64
g733
sg65
g462
sg67
g82
sg69
g83
sg70
(iread_data
Room
p1208
(dp1209
g64
g86
sg65
g87
sbsba(ischedule
Activity
p1210
(dp1211
g8
(lp1212
g375
ag499
ag501
ag679
ag95
ag298
ag845
ag29
ag422
ag131
ag543
ag211
ag212
ag502
ag214
ag666
ag225
ag107
ag773
ag504
ag383
ag404
ag848
ag152
ag99
ag849
ag54
ag843
ag846
ag959
ag503
ag303
ag442
ag362
ag858
ag844
ag500
ag847
ag257
ag505
ag252
ag850
ag485
ag958
ag400
asg64
g1108
sg65
g507
sg67
g82
sg69
g326
sg70
(iread_data
Room
p1213
(dp1214
g64
g73
sg65
g74
sbsbaa(lp1215
(ischedule
Activity
p1216
(dp1217
g8
g598
sg64
I1000
sg65
g311
sg67
g68
sg69
I0
sg70
(iread_data
Room
p1218
(dp1219
g64
g367
sg65
g368
sbsba(ischedule
Activity
p1220
(dp1221
g8
(lp1222
g317
ag23
ag20
ag698
ag702
aS'64053722'
p1223
ag256
ag110
ag161
ag244
ag230
ag35
ag22
ag885
ag429
ag344
ag138
ag468
aS'90296821'
p1224
ag99
ag214
ag443
ag431
ag267
ag659
ag783
aS'10702778'
p1225
ag349
ag261
ag491
ag905
ag449
aS'88519892'
p1226
asg64
g411
sg65
g412
sg67
g187
sg69
g188
sg70
(iread_data
Room
p1227
(dp1228
g64
g122
sg65
g123
sbsba(ischedule
Activity
p1229
(dp1230
g8
(lp1231
g152
ag442
ag857
ag959
ag957
ag29
ag958
ag383
ag709
ag858
ag131
ag362
ag197
asg64
g506
sg65
g507
sg67
g187
sg69
g326
sg70
(iread_data
Room
p1232
(dp1233
g64
g191
sg65
g192
sbsba(ischedule
Activity
p1234
(dp1235
g8
(lp1236
S'88597745'
p1237
ag288
aS'12782624'
p1238
ag200
ag207
ag968
ag167
aS'7386961'
p1239
ag250
ag883
asg64
g411
sg65
g412
sg67
g187
sg69
g83
sg70
(iread_data
Room
p1240
(dp1241
g64
g219
sg65
g220
sbsba(ischedule
Activity
p1242
(dp1243
g8
(lp1244
g557
ag274
ag44
ag566
asg64
g626
sg65
g516
sg67
g82
sg69
g560
sg70
(iread_data
Room
p1245
(dp1246
g64
g171
sg65
g172
sbsba(ischedule
Activity
p1247
(dp1248
g8
g1131
sg64
I1000
sg65
g689
sg67
g68
sg69
I0
sg70
(iread_data
Room
p1249
(dp1250
g64
g73
sg65
g74
sbsbaa(lp1251
(ischedule
Activity
p1252
(dp1253
g8
(lp1254
S'54395877'
p1255
ag903
ag530
ag57
ag352
ag459
ag482
ag622
aS'73893840'
p1256
ag147
ag63
ag31
ag374
aS'63096281'
p1257
ag489
ag157
ag61
ag165
ag502
ag542
ag685
ag44
ag149
ag428
ag37
ag227
ag151
ag437
ag341
ag504
ag480
aS'73196865'
p1258
ag356
ag130
ag97
ag859
asg64
g411
sg65
g412
sg67
g187
sg69
S'6'
p1259
sg70
(iread_data
Room
p1260
(dp1261
g64
g73
sg65
g74
sbsba(ischedule
Activity
p1262
(dp1263
g8
g964
sg64
I1000
sg65
g969
sg67
g68
sg69
I0
sg70
(iread_data
Room
p1264
(dp1265
g64
g86
sg65
g87
sbsba(ischedule
Activity
p1266
(dp1267
g8
(lp1268
g359
ag345
ag42
ag286
ag432
ag599
ag113
ag241
ag600
ag151
ag601
ag177
asg64
g310
sg65
g311
sg67
g82
sg69
g83
sg70
(iread_data
Room
p1269
(dp1270
g64
g171
sg65
g172
sbsba(ischedule
Activity
p1271
(dp1272
g8
(lp1273
g33
ag623
ag570
ag748
aS'75680261'
p1274
ag514
ag655
ag251
ag355
ag773
ag1047
ag148
ag1045
ag499
ag671
ag711
ag439
asg64
g586
sg65
g587
sg67
g187
sg69
g188
sg70
(iread_data
Room
p1275
(dp1276
g64
g122
sg65
g123
sbsba(ischedule
Activity
p1277
(dp1278
g8
(lp1279
g861
ag868
ag332
ag389
ag350
ag34
ag501
ag429
asg64
g626
sg65
g516
sg67
g82
sg69
g188
sg70
(iread_data
Room
p1280
(dp1281
g64
g191
sg65
g192
sbsba(ischedule
Activity
p1282
(dp1283
g8
g724
sg64
I1000
sg65
g325
sg67
g68
sg69
I0
sg70
(iread_data
Room
p1284
(dp1285
g64
g219
sg65
g220
sbsba(ischedule
Activity
p1286
(dp1287
g8
(lp1288
g208
ag207
ag209
ag210
ag214
ag203
ag215
ag137
ag202
ag199
ag198
ag200
ag212
ag204
ag211
asg64
g1081
sg65
g216
sg67
g82
sg69
g83
sg70
(iread_data
Room
p1289
(dp1290
g64
g367
sg65
g368
sbsbaa(lp1291
(ischedule
Activity
p1292
(dp1293
g8
(lp1294
g91
ag78
ag321
ag254
ag318
ag320
ag133
ag46
ag319
ag727
ag209
asg64
g826
sg65
g325
sg67
g82
sg69
g326
sg70
(iread_data
Room
p1295
(dp1296
g64
g367
sg65
g368
sbsba(ischedule
Activity
p1297
(dp1298
g8
g1184
sg64
I1000
sg65
g1187
sg67
g68
sg69
I0
sg70
(iread_data
Room
p1299
(dp1300
g64
g219
sg65
g220
sbsba(ischedule
Activity
p1301
(dp1302
g8
(lp1303
g212
ag207
ag204
ag201
ag215
ag206
ag205
ag210
asg64
g930
sg65
g216
sg67
g187
sg69
g188
sg70
(iread_data
Room
p1304
(dp1305
g64
g191
sg65
g192
sbsba(ischedule
Activity
p1306
(dp1307
g8
(lp1308
g22
ag99
ag155
ag700
ag92
ag79
ag532
ag1044
ag491
aS'16912993'
p1309
aS'19058315'
p1310
ag959
aS'123355'
p1311
ag101
ag149
ag757
ag813
ag888
ag637
ag1120
ag295
ag746
ag288
ag939
ag429
ag695
aS'59887191'
p1312
ag774
aS'12170832'
p1313
asg64
g185
sg65
g186
sg67
g187
sg69
g83
sg70
(iread_data
Room
p1314
(dp1315
g64
g171
sg65
g172
sbsba(ischedule
Activity
p1316
(dp1317
g8
(lp1318
g151
ag40
ag270
ag871
ag869
ag468
ag12
ag285
ag640
ag268
ag356
ag873
ag857
ag57
ag860
ag859
ag513
ag874
ag870
ag698
ag55
ag514
ag739
ag478
ag453
ag872
ag181
ag435
ag472
ag858
asg64
g626
sg65
g516
sg67
g82
sg69
g83
sg70
(iread_data
Room
p1319
(dp1320
g64
g122
sg65
g123
sbsba(ischedule
Activity
p1321
(dp1322
g8
(lp1323
g140
ag153
ag162
ag165
ag134
ag154
ag142
ag158
ag137
ag147
ag160
ag51
ag145
ag161
ag135
ag150
ag143
ag138
ag136
ag128
ag167
asg64
g1033
sg65
g168
sg67
g187
sg69
g83
sg70
(iread_data
Room
p1324
(dp1325
g64
g73
sg65
g74
sbsba(ischedule
Activity
p1326
(dp1327
g8
(lp1328
g336
ag245
ag361
ag351
ag350
ag340
ag349
ag357
ag344
ag156
ag15
ag353
ag355
ag141
ag346
ag183
ag345
ag342
ag358
ag359
ag272
ag341
asg64
g1096
sg65
g364
sg67
g82
sg69
g83
sg70
(iread_data
Room
p1329
(dp1330
g64
g86
sg65
g87
sbsbaaa(lp1331
(lp1332
a(lp1333
a(lp1334
a(lp1335
a(lp1336
aasS'timeslot_dict'
p1337
(dp1338
I0
S'9:00-11:00'
p1339
sI1
S'11:00-13:00'
p1340
sI2
S'13:00-15:00'
p1341
sI3
S'15:00-17:00'
p1342
sI4
S'17:00-19:00'
p1343
ssS'day_dict'
p1344
(dp1345
I0
S'Monday'
p1346
sI1
S'Tuesday'
p1347
sI2
S'Wednesday'
p1348
sI3
S'Thursday'
p1349
sI4
S'Friday'
p1350
ssb.