(ischedule
Schedule
p0
(dp1
S'timetable'
p2
(lp3
(lp4
(lp5
(ischedule
Activity
p6
(dp7
S'participants'
p8
(lp9
S'35330349'
p10
aS'61443567'
p11
aS'45556081'
p12
aS'77896638'
p13
aS'62701040'
p14
aS'48601268'
p15
aS'42171678'
p16
aS'54310617'
p17
aS'9332762'
p18
aS'37770881'
p19
aS'34773179'
p20
aS'97135019'
p21
aS'24277163'
p22
aS'53107172'
p23
aS'13092455'
p24
aS'51741554'
p25
aS'96104167'
p26
aS'29474737'
p27
aS'82689818'
p28
aS'46052388'
p29
aS'76123484'
p30
aS'5517869'
p31
aS'50184318'
p32
aS'77240949'
p33
aS'60312776'
p34
aS'21964491'
p35
aS'75521763'
p36
aS'42778953'
p37
aS'3233378'
p38
aS'87758823'
p39
aS'65960683'
p40
aS'58522654'
p41
aS'4783858'
p42
aS'22699561'
p43
aS'17222374'
p44
aS'57595888'
p45
aS'1665980'
p46
aS'73980360'
p47
aS'43027916'
p48
aS'64393888'
p49
aS'29640619'
p50
aS'23547619'
p51
aS'15902055'
p52
aS'72577292'
p53
aS'28357474'
p54
aS'64228258'
p55
aS'31416266'
p56
aS'17575088'
p57
aS'1075391'
p58
aS'25106480'
p59
aS'1696500'
p60
aS'13534377'
p61
aS'7308727'
p62
aS'42196732'
p63
aS'68601184'
p64
aS'86291592'
p65
aS'26406342'
p66
aS'86000192'
p67
aS'50143947'
p68
aS'64296965'
p69
aS'33760909'
p70
asS'capacity'
p71
I1000
sS'group'
p72
NsS'room'
p73
(iread_data
Room
p74
(dp75
g71
S'117'
p76
sS'name'
p77
S'C0.110'
p78
sbsS'ttype'
p79
S'lectures'
p80
sS'group_id'
p81
I0
sg77
S'Collectieve Intelligentie'
p82
sba(ischedule
Activity
p83
(dp84
g8
(lp85
S'38296757'
p86
aS'94467156'
p87
aS'26857113'
p88
aS'63111000'
p89
aS'40791377'
p90
aS'67625383'
p91
aS'90067329'
p92
aS'5976174'
p93
aS'3685034'
p94
aS'37744525'
p95
aS'27187154'
p96
aS'56988998'
p97
aS'33252501'
p98
aS'23798155'
p99
aS'39459642'
p100
aS'46701583'
p101
ag33
aS'85236626'
p102
aS'49683101'
p103
aS'61518436'
p104
aS'15051051'
p105
aS'2079771'
p106
asg71
I1000
sg72
Nsg73
(iread_data
Room
p107
(dp108
g71
S'41'
p109
sg77
S'A1.04'
p110
sbsg79
g80
sg81
I0
sg77
S'Machine Learning'
p111
sba(ischedule
Activity
p112
(dp113
g8
(lp114
S'68360259'
p115
aS'13996448'
p116
aS'25330192'
p117
aS'87900893'
p118
aS'13116738'
p119
aS'98780382'
p120
ag95
aS'93023961'
p121
aS'59753700'
p122
asg71
S'10'
p123
sg72
(ischedule
Group
p124
(dp125
g8
g114
sg77
S'Data Mining1'
p126
sbsg73
(iread_data
Room
p127
(dp128
g71
S'56'
p129
sg77
S'A1.10'
p130
sbsg79
S'labs'
p131
sg81
S'1'
p132
sg77
S'Data Mining'
p133
sba(ischedule
Activity
p134
(dp135
g8
(lp136
g35
aS'20883994'
p137
aS'43680781'
p138
ag41
aS'29526540'
p139
ag62
aS'24613625'
p140
ag105
aS'5298748'
p141
asg71
S'20'
p142
sg72
(ischedule
Group
p143
(dp144
g8
g136
sg77
S'Bioinformatica1'
p145
sbsg73
(iread_data
Room
p146
(dp147
g71
S'22'
p148
sg77
S'A1.06'
p149
sbsg79
S'tutorials'
p150
sg81
g132
sg77
S'Bioinformatica'
p151
sba(ischedule
Activity
p152
(dp153
g8
(lp154
S'73236988'
p155
aS'86988337'
p156
aS'72796858'
p157
aS'75599734'
p158
aS'68315599'
p159
aS'11915563'
p160
ag34
ag65
aS'53202517'
p161
aS'43689934'
p162
aS'98105190'
p163
ag140
ag103
ag13
aS'11741347'
p164
ag40
aS'94687383'
p165
aS'76661016'
p166
aS'31194811'
p167
aS'88752563'
p168
aS'88855695'
p169
aS'27950803'
p170
aS'80135353'
p171
aS'72895450'
p172
aS'8464817'
p173
aS'81385263'
p174
aS'12077419'
p175
aS'34243356'
p176
aS'88636924'
p177
aS'44391517'
p178
aS'9067939'
p179
aS'34110913'
p180
aS'92665222'
p181
aS'1766560'
p182
ag106
aS'15911353'
p183
ag19
aS'79033175'
p184
ag90
aS'5368702'
p185
ag100
aS'79167252'
p186
aS'7957843'
p187
aS'10792879'
p188
aS'48308205'
p189
aS'95631564'
p190
aS'14309255'
p191
aS'6723948'
p192
aS'46989508'
p193
aS'84524083'
p194
aS'95007221'
p195
aS'3407554'
p196
aS'2317551'
p197
aS'66701209'
p198
asg71
S'40'
p199
sg72
(ischedule
Group
p200
(dp201
g8
g154
sg77
S'Compilerbouw2'
p202
sbsg73
(iread_data
Room
p203
(dp204
g71
S'60'
p205
sg77
S'C1.112'
p206
sbsg79
g150
sg81
S'2'
p207
sg77
S'Compilerbouw'
p208
sba(ischedule
Activity
p209
(dp210
g8
(lp211
g65
aS'1048485'
p212
aS'88263855'
p213
ag87
aS'33776961'
p214
ag52
aS'54772132'
p215
aS'7386961'
p216
ag116
aS'64600457'
p217
aS'53585410'
p218
aS'41585485'
p219
aS'94955328'
p220
aS'88597745'
p221
aS'28943658'
p222
aS'48503689'
p223
aS'92778619'
p224
aS'73196865'
p225
aS'63634350'
p226
aS'34900967'
p227
aS'12782624'
p228
aS'73893840'
p229
aS'51791169'
p230
aS'7492204'
p231
aS'56749879'
p232
aS'20830477'
p233
ag95
ag178
aS'2416751'
p234
asg71
S'20'
p235
sg72
(ischedule
Group
p236
(dp237
g8
g211
sg77
S'Programmeren in Java 24'
p238
sbsg73
(iread_data
Room
p239
(dp240
g71
S'20'
p241
sg77
S'A1.08'
p242
sbsg79
g131
sg81
S'4'
p243
sg77
S'Programmeren in Java 2'
p244
sba(ischedule
Activity
p245
(dp246
g8
(lp247
S'27582862'
p248
aS'670011'
p249
aS'86807027'
p250
ag64
aS'93566383'
p251
aS'63096281'
p252
aS'47477884'
p253
aS'55474917'
p254
aS'3678531'
p255
aS'66433883'
p256
aS'2550487'
p257
aS'70113753'
p258
aS'20618153'
p259
aS'37399898'
p260
ag88
ag165
aS'54395877'
p261
ag100
aS'10702778'
p262
aS'23983476'
p263
ag13
ag197
aS'23391676'
p264
aS'79879876'
p265
aS'23215240'
p266
aS'4921119'
p267
aS'77960666'
p268
aS'47982619'
p269
aS'9731271'
p270
ag11
aS'97019450'
p271
ag18
aS'91196968'
p272
aS'58332004'
p273
ag67
asg71
g235
sg72
(ischedule
Group
p274
(dp275
g8
g247
sg77
S'Programmeren in Java 22'
p276
sbsg73
(iread_data
Room
p277
(dp278
g71
S'48'
p279
sg77
S'B0.201'
p280
sbsg79
g131
sg81
g207
sg77
g244
sbaa(lp281
(ischedule
Activity
p282
(dp283
g8
(lp284
g22
aS'4709948'
p285
aS'13658563'
p286
aS'99975346'
p287
aS'78136904'
p288
ag214
aS'87830198'
p289
aS'96554914'
p290
aS'54569540'
p291
aS'22871048'
p292
ag122
aS'41578612'
p293
ag141
aS'52715680'
p294
aS'70193386'
p295
ag224
aS'60352393'
p296
aS'60661905'
p297
asg71
S'20'
p298
sg72
(ischedule
Group
p299
(dp300
g8
g284
sg77
S'Reflectie op de digitale cultuur1'
p301
sbsg73
(iread_data
Room
p302
(dp303
g71
g279
sg77
g280
sbsg79
g150
sg81
g132
sg77
S'Reflectie op de digitale cultuur'
p304
sba(ischedule
Activity
p305
(dp306
g8
(lp307
S'74182182'
p308
aS'89338938'
p309
aS'73823548'
p310
aS'14941752'
p311
aS'34691309'
p312
aS'32183908'
p313
aS'11068043'
p314
ag94
aS'90103047'
p315
ag168
aS'21070547'
p316
aS'63573738'
p317
ag155
ag62
aS'22731474'
p318
asg71
S'15'
p319
sg72
(ischedule
Group
p320
(dp321
g8
g307
sg77
S'Project Numerical Recipes2'
p322
sbsg73
(iread_data
Room
p323
(dp324
g71
S'41'
p325
sg77
S'A1.04'
p326
sbsg79
g131
sg81
g207
sg77
S'Project Numerical Recipes'
p327
sba(ischedule
Activity
p328
(dp329
g8
(lp330
S'38499176'
p331
ag45
ag68
aS'41644639'
p332
aS'25994016'
p333
aS'51673172'
p334
aS'5892092'
p335
aS'51472074'
p336
aS'44151631'
p337
aS'11459236'
p338
aS'71839156'
p339
ag196
aS'42297781'
p340
ag226
ag46
aS'5085194'
p341
aS'32204977'
p342
aS'99272880'
p343
aS'14383795'
p344
aS'14303208'
p345
ag218
aS'13911001'
p346
aS'89985072'
p347
asg71
S'15'
p348
sg72
(ischedule
Group
p349
(dp350
g8
g330
sg77
S'Compilerbouw practicum2'
p351
sbsg73
(iread_data
Room
p352
(dp353
g71
g148
sg77
g149
sbsg79
g131
sg81
g207
sg77
S'Compilerbouw practicum'
p354
sba(ischedule
Activity
p355
(dp356
g8
(lp357
g66
ag47
ag61
ag54
ag14
ag25
ag60
ag19
ag35
asg71
S'20'
p358
sg72
(ischedule
Group
p359
(dp360
g8
g357
sg77
S'Collectieve Intelligentie2'
p361
sbsg73
(iread_data
Room
p362
(dp363
g71
g129
sg77
g130
sbsg79
g150
sg81
g207
sg77
g82
sba(ischedule
Activity
p364
(dp365
g8
(lp366
S'56121590'
p367
aS'14816774'
p368
ag267
aS'51542218'
p369
ag44
ag168
aS'23257088'
p370
aS'58592894'
p371
ag310
aS'40141996'
p372
aS'37701751'
p373
aS'57467488'
p374
aS'40434933'
p375
aS'5526560'
p376
ag48
ag139
aS'58083680'
p377
ag63
ag249
ag31
ag193
aS'59397895'
p378
ag30
aS'54540997'
p379
aS'15187217'
p380
aS'52552718'
p381
aS'23658570'
p382
ag341
aS'51566595'
p383
aS'64947290'
p384
aS'247918'
p385
aS'75005528'
p386
aS'83869542'
p387
aS'34872117'
p388
aS'96054456'
p389
ag296
aS'78821918'
p390
aS'62736669'
p391
ag66
ag22
aS'86180471'
p392
aS'26207525'
p393
aS'90474003'
p394
aS'27123462'
p395
aS'17092717'
p396
ag156
aS'12091019'
p397
aS'11996292'
p398
aS'49631542'
p399
aS'70072978'
p400
ag50
ag253
ag100
aS'56191333'
p401
aS'56872729'
p402
ag268
aS'13132925'
p403
aS'47932106'
p404
aS'72456780'
p405
ag232
ag69
ag24
aS'3168419'
p406
aS'43902015'
p407
aS'4529208'
p408
ag13
ag273
aS'91527663'
p409
aS'25077484'
p410
ag157
ag28
aS'94686490'
p411
asg71
I1000
sg72
Nsg73
(iread_data
Room
p412
(dp413
g71
S'117'
p414
sg77
S'C0.110'
p415
sbsg79
g80
sg81
I0
sg77
S'Databases 2'
p416
sba(ischedule
Activity
p417
(dp418
g8
(lp419
g34
ag386
ag65
aS'63939720'
p420
aS'32044893'
p421
aS'19662602'
p422
ag37
aS'81022997'
p423
ag182
ag189
ag172
asg71
g319
sg72
(ischedule
Group
p424
(dp425
g8
g419
sg77
S'Project Numerical Recipes3'
p426
sbsg73
(iread_data
Room
p427
(dp428
g71
g205
sg77
g206
sbsg79
g131
sg81
S'3'
p429
sg77
g327
sbaa(lp430
(ischedule
Activity
p431
(dp432
g8
(lp433
S'36508571'
p434
aS'68409833'
p435
aS'27298319'
p436
aS'16097870'
p437
ag31
ag258
aS'54026378'
p438
ag381
aS'74131924'
p439
aS'34806836'
p440
aS'44901052'
p441
aS'88627897'
p442
ag100
aS'62356458'
p443
aS'61611295'
p444
ag383
aS'19858730'
p445
ag160
ag157
ag292
aS'37110913'
p446
aS'62872965'
p447
asg71
I1000
sg72
Nsg73
(iread_data
Room
p448
(dp449
g71
g241
sg77
g242
sbsg79
g80
sg81
I0
sg77
S'Autonomous Agents 2'
p450
sba(ischedule
Activity
p451
(dp452
g8
(lp453
S'27064249'
p454
ag55
ag345
ag168
ag308
ag226
aS'79617364'
p455
aS'70939718'
p456
aS'44868097'
p457
aS'5615125'
p458
aS'72526473'
p459
aS'62105897'
p460
aS'75446434'
p461
aS'65408517'
p462
aS'83415514'
p463
ag402
ag96
aS'6939933'
p464
ag310
ag186
ag253
ag411
aS'80188025'
p465
aS'28957789'
p466
ag372
aS'78735049'
p467
aS'58040377'
p468
asg71
S'40'
p469
sg72
(ischedule
Group
p470
(dp471
g8
g453
sg77
S'Calculus 21'
p472
sbsg73
(iread_data
Room
p473
(dp474
g71
g414
sg77
g415
sbsg79
g150
sg81
g132
sg77
S'Calculus 2'
p475
sba(ischedule
Activity
p476
(dp477
g8
(lp478
S'88596522'
p479
aS'74361881'
p480
aS'535689'
p481
aS'14138904'
p482
aS'82066165'
p483
ag66
aS'4568018'
p484
aS'55103073'
p485
ag266
aS'47260040'
p486
ag314
asg71
g348
sg72
(ischedule
Group
p487
(dp488
g8
g478
sg77
S'Compilerbouw practicum1'
p489
sbsg73
(iread_data
Room
p490
(dp491
g71
g129
sg77
g130
sbsg79
g131
sg81
g132
sg77
g354
sba(ischedule
Activity
p492
(dp493
g8
g9
sg71
I1000
sg72
Nsg73
(iread_data
Room
p494
(dp495
g71
g325
sg77
g326
sbsg79
g80
sg81
I0
sg77
g82
sba(ischedule
Activity
p496
(dp497
g8
(lp498
S'77831658'
p499
ag187
aS'84110134'
p500
ag443
aS'19214659'
p501
aS'42406214'
p502
aS'12430748'
p503
ag257
aS'37419523'
p504
ag116
ag464
aS'40911986'
p505
aS'13284244'
p506
aS'81116418'
p507
ag250
aS'28618400'
p508
ag223
ag24
asg71
g319
sg72
(ischedule
Group
p509
(dp510
g8
g498
sg77
S'Project Numerical Recipes1'
p511
sbsg73
(iread_data
Room
p512
(dp513
g71
g279
sg77
g280
sbsg79
g131
sg81
g132
sg77
g327
sba(ischedule
Activity
p514
(dp515
g8
(lp516
S'70878567'
p517
ag159
aS'18266644'
p518
ag14
ag370
ag273
aS'36748818'
p519
aS'19958553'
p520
ag263
ag36
ag342
aS'17496687'
p521
aS'77636749'
p522
aS'75585647'
p523
ag441
asg71
S'15'
p524
sg72
(ischedule
Group
p525
(dp526
g8
g516
sg77
S'Informatie- en organsatieontwerp2'
p527
sbsg73
(iread_data
Room
p528
(dp529
g71
g148
sg77
g149
sbsg79
g150
sg81
g207
sg77
S'Informatie- en organsatieontwerp'
p530
sbaa(lp531
(ischedule
Activity
p532
(dp533
g8
(lp534
g311
aS'75997788'
p535
aS'22323043'
p536
aS'61060652'
p537
aS'94930277'
p538
ag368
aS'36903574'
p539
ag163
aS'58736785'
p540
aS'48357272'
p541
ag60
ag42
ag482
aS'59075181'
p542
ag339
aS'92977271'
p543
ag398
ag446
aS'76393508'
p544
ag250
ag16
aS'20331158'
p545
ag23
aS'81218347'
p546
aS'87210640'
p547
aS'66122625'
p548
ag441
ag286
aS'31897288'
p549
aS'4353500'
p550
ag484
aS'45660925'
p551
aS'53775014'
p552
aS'14591033'
p553
ag292
aS'97417002'
p554
ag445
ag36
ag374
ag265
ag233
ag271
aS'83443653'
p555
ag232
asg71
I1000
sg72
Nsg73
(iread_data
Room
p556
(dp557
g71
g205
sg77
g206
sbsg79
g80
sg81
I0
sg77
S'Heuristieken 1'
p558
sba(ischedule
Activity
p559
(dp560
g8
g85
sg71
I1000
sg72
Nsg73
(iread_data
Room
p561
(dp562
g71
g325
sg77
g326
sbsg79
g80
sg81
I0
sg77
g111
sba(ischedule
Activity
p563
(dp564
g8
(lp565
S'16333449'
p566
ag11
aS'39230359'
p567
aS'77392404'
p568
aS'43460038'
p569
aS'57086672'
p570
aS'10698627'
p571
aS'6249823'
p572
ag53
ag458
aS'49908313'
p573
aS'33877725'
p574
aS'22288615'
p575
aS'76648468'
p576
ag407
ag345
ag161
ag259
aS'28358060'
p577
ag172
aS'78243495'
p578
aS'24891081'
p579
aS'14847953'
p580
aS'53512831'
p581
aS'66034145'
p582
aS'76903244'
p583
aS'89180944'
p584
aS'69459473'
p585
aS'1137946'
p586
ag538
ag234
aS'41790793'
p587
ag396
ag30
aS'3474870'
p588
ag55
ag454
ag375
aS'67073567'
p589
asg71
I1000
sg72
Nsg73
(iread_data
Room
p590
(dp591
g71
g279
sg77
g280
sbsg79
g80
sg81
I0
sg77
S'Webprogrammeren en databases'
p592
sba(ischedule
Activity
p593
(dp594
g8
(lp595
g468
ag96
ag56
ag389
ag50
ag156
ag463
aS'45414528'
p596
aS'64053722'
p597
ag543
ag571
ag171
aS'58469172'
p598
ag460
aS'6913074'
p599
ag297
aS'17823206'
p600
asg71
g235
sg72
(ischedule
Group
p601
(dp602
g8
g595
sg77
S'Programmeren in Java 21'
p603
sbsg73
(iread_data
Room
p604
(dp605
g71
g414
sg77
g415
sbsg79
g131
sg81
g132
sg77
g244
sba(ischedule
Activity
p606
(dp607
g8
(lp608
g157
ag435
ag438
ag439
ag442
asg71
S'10'
p609
sg72
(ischedule
Group
p610
(dp611
g8
g608
sg77
S'Autonomous Agents 23'
p612
sbsg73
(iread_data
Room
p613
(dp614
g71
g148
sg77
g149
sbsg79
g150
sg81
g429
sg77
g450
sba(ischedule
Activity
p615
(dp616
g8
(lp617
g406
aS'40633534'
p618
aS'62613937'
p619
asg71
S'10'
p620
sg72
(ischedule
Group
p621
(dp622
g8
g617
sg77
S'Advanced Heuristics2'
p623
sbsg73
(iread_data
Room
p624
(dp625
g71
g129
sg77
g130
sbsg79
g131
sg81
g207
sg77
S'Advanced Heuristics'
p626
sba(ischedule
Activity
p627
(dp628
g8
(lp629
g293
asg71
S'15'
p630
sg72
(ischedule
Group
p631
(dp632
g8
g629
sg77
S'Project Genetic Algorithms3'
p633
sbsg73
(iread_data
Room
p634
(dp635
g71
g241
sg77
g242
sbsg79
g131
sg81
g429
sg77
S'Project Genetic Algorithms'
p636
sbaa(lp637
(ischedule
Activity
p638
(dp639
g8
(lp640
g260
aS'38179241'
p641
aS'81200278'
p642
aS'76924297'
p643
ag257
aS'65675896'
p644
aS'44828429'
p645
aS'69634191'
p646
aS'34765676'
p647
ag501
ag174
aS'4546613'
p648
aS'21677389'
p649
aS'28055464'
p650
ag51
ag251
ag185
ag582
aS'81155296'
p651
ag373
aS'20374340'
p652
ag580
ag166
aS'3707829'
p653
aS'64768422'
p654
asg71
I1000
sg72
Nsg73
(iread_data
Room
p655
(dp656
g71
g148
sg77
g149
sbsg79
g80
sg81
I0
sg77
S'Interactie-ontwerp'
p657
sba(ischedule
Activity
p658
(dp659
g8
(lp660
g36
ag159
ag371
ag16
aS'36527838'
p661
aS'27916487'
p662
aS'3883025'
p663
aS'58699305'
p664
aS'48198668'
p665
ag578
aS'30658799'
p666
ag400
ag584
ag273
ag164
ag217
ag463
ag191
ag399
aS'83266686'
p667
aS'78443067'
p668
ag535
aS'66621166'
p669
aS'27241113'
p670
ag31
ag346
ag105
ag22
aS'96082155'
p671
aS'13218321'
p672
ag139
ag89
aS'84449005'
p673
ag214
aS'59111489'
p674
aS'78544592'
p675
aS'1181560'
p676
aS'18144425'
p677
ag44
aS'47462856'
p678
ag398
aS'41489515'
p679
aS'46570285'
p680
aS'49219163'
p681
ag390
ag285
aS'85335143'
p682
ag182
aS'99283252'
p683
ag32
aS'77376714'
p684
ag519
aS'51650744'
p685
ag138
asg71
I1000
sg72
Nsg73
(iread_data
Room
p686
(dp687
g71
g414
sg77
g415
sbsg79
g80
sg81
I0
sg77
S'Moderne Databases'
p688
sba(ischedule
Activity
p689
(dp690
g8
(lp691
g263
ag588
aS'8522855'
p692
ag219
aS'23652927'
p693
ag374
ag218
ag68
ag256
ag46
ag174
ag93
aS'96453361'
p694
ag409
aS'14671406'
p695
ag288
ag383
ag175
ag407
ag52
ag539
asg71
S'25'
p696
sg72
(ischedule
Group
p697
(dp698
g8
g691
sg77
S'Algoritmen en complexiteit2'
p699
sbsg73
(iread_data
Room
p700
(dp701
g71
g129
sg77
g130
sbsg79
g131
sg81
g207
sg77
S'Algoritmen en complexiteit'
p702
sba(ischedule
Activity
p703
(dp704
g8
(lp705
g103
ag12
ag569
aS'59289233'
p706
aS'58866007'
p707
ag388
ag584
ag667
ag375
aS'10149535'
p708
aS'72683344'
p709
aS'27925117'
p710
ag53
ag545
aS'70015932'
p711
ag99
aS'29718115'
p712
ag28
ag482
aS'13798030'
p713
ag508
asg71
I1000
sg72
Nsg73
(iread_data
Room
p714
(dp715
g71
g241
sg77
g242
sbsg79
g80
sg81
I0
sg77
S'Architectuur en computerorganisatie'
p716
sba(ischedule
Activity
p717
(dp718
g8
(lp719
g382
ag35
aS'39905995'
p720
aS'41153310'
p721
aS'37279234'
p722
aS'15249775'
p723
aS'85284256'
p724
ag186
ag331
ag102
ag370
aS'44671041'
p725
ag285
aS'34262212'
p726
aS'90296821'
p727
ag89
ag539
asg71
g235
sg72
(ischedule
Group
p728
(dp729
g8
g719
sg77
S'Programmeren in Java 23'
p730
sbsg73
(iread_data
Room
p731
(dp732
g71
g279
sg77
g280
sbsg79
g131
sg81
g429
sg77
g244
sbaaa(lp733
(lp734
(ischedule
Activity
p735
(dp736
g8
(lp737
g220
ag692
ag270
ag600
ag104
aS'72547110'
p738
aS'91139627'
p739
ag176
ag399
ag273
ag226
ag94
ag33
ag232
ag99
ag466
ag288
ag69
aS'32705005'
p740
ag231
ag545
aS'44940353'
p741
aS'39919665'
p742
ag678
ag137
aS'41527759'
p743
ag389
ag308
aS'79858178'
p744
ag467
aS'97371272'
p745
aS'37498675'
p746
aS'59544049'
p747
aS'14398123'
p748
ag87
aS'31247305'
p749
aS'65003379'
p750
ag500
ag160
ag194
aS'51186803'
p751
ag343
ag726
ag331
ag458
aS'63955238'
p752
ag96
aS'42115591'
p753
aS'69086548'
p754
ag291
aS'79366078'
p755
ag17
ag522
ag309
ag41
ag188
ag254
aS'31633723'
p756
aS'63408522'
p757
ag598
ag680
ag369
ag271
aS'20239127'
p758
ag219
aS'10872825'
p759
ag264
ag567
aS'38329455'
p760
ag518
ag643
ag695
ag97
ag553
aS'39659121'
p761
ag272
ag542
ag185
aS'47605891'
p762
ag546
aS'82688900'
p763
ag539
aS'24875739'
p764
ag318
asg71
I1000
sg72
Nsg73
(iread_data
Room
p765
(dp766
g71
g76
sg77
g78
sbsg79
g80
sg81
I0
sg77
S'Kansrekenen 2'
p767
sba(ischedule
Activity
p768
(dp769
g8
(lp770
g292
ag546
ag232
ag542
ag548
ag544
ag271
ag16
asg71
S'25'
p771
sg72
(ischedule
Group
p772
(dp773
g8
g770
sg77
S'Heuristieken 11'
p774
sbsg73
(iread_data
Room
p775
(dp776
g71
S'48'
p777
sg77
S'B0.201'
p778
sbsg79
g150
sg81
g132
sg77
g558
sba(ischedule
Activity
p779
(dp780
g8
(lp781
S'36785409'
p782
ag51
aS'75664412'
p783
aS'76487754'
p784
ag159
ag138
ag522
ag446
aS'4697362'
p785
ag375
aS'58565406'
p786
ag342
ag708
ag344
aS'77264363'
p787
ag536
ag503
aS'92496780'
p788
ag191
ag175
aS'7106649'
p789
ag398
ag309
ag269
ag754
ag66
aS'70336464'
p790
ag293
ag682
ag745
aS'93041523'
p791
ag18
ag36
aS'21192048'
p792
ag167
ag572
ag441
ag189
asg71
I1000
sg72
Nsg73
(iread_data
Room
p793
(dp794
g71
S'60'
p795
sg77
S'C1.112'
p796
sbsg79
g80
sg81
I0
sg77
S'Technology for games'
p797
sba(ischedule
Activity
p798
(dp799
g8
(lp800
g585
ag566
ag375
ag259
ag569
ag575
ag578
ag574
ag583
ag576
ag582
ag570
ag172
ag568
ag573
ag53
ag407
ag588
ag454
ag396
asg71
S'20'
p801
sg72
(ischedule
Group
p802
(dp803
g8
g800
sg77
S'Webprogrammeren en databases2'
p804
sbsg73
(iread_data
Room
p805
(dp806
g71
g241
sg77
g242
sbsg79
g131
sg81
g207
sg77
g592
sba(ischedule
Activity
p807
(dp808
g8
(lp809
g460
ag541
ag191
ag54
ag721
ag50
ag93
ag668
ag438
aS'80709893'
p810
ag537
aS'40343779'
p811
aS'52311353'
p812
ag749
aS'9287708'
p813
aS'21095566'
p814
aS'58074656'
p815
ag725
ag212
ag500
ag484
aS'3727435'
p816
ag290
ag347
ag569
aS'14072826'
p817
ag756
ag294
aS'45915482'
p818
ag190
aS'13718298'
p819
ag15
ag381
asg71
S'40'
p820
sg72
(ischedule
Group
p821
(dp822
g8
g809
sg77
S'Software engineering2'
p823
sbsg73
(iread_data
Room
p824
(dp825
g71
g325
sg77
g326
sbsg79
g131
sg81
g207
sg77
S'Software engineering'
p826
sba(ischedule
Activity
p827
(dp828
g8
(lp829
g712
aS'8557857'
p830
ag286
ag543
ag119
ag338
asg71
g524
sg72
(ischedule
Group
p831
(dp832
g8
g829
sg77
S'Informatie- en organsatieontwerp1'
p833
sbsg73
(iread_data
Room
p834
(dp835
g71
g129
sg77
g130
sbsg79
g150
sg81
g132
sg77
g530
sba(ischedule
Activity
p836
(dp837
g8
(lp838
g294
aS'72665524'
p839
aS'91250534'
p840
aS'64418623'
p841
aS'1695839'
p842
ag644
asg71
g348
sg72
(ischedule
Group
p843
(dp844
g8
g838
sg77
S'Compilerbouw practicum3'
p845
sbsg73
(iread_data
Room
p846
(dp847
g71
g148
sg77
g149
sbsg79
g131
sg81
g429
sg77
g354
sbaa(lp848
(ischedule
Activity
p849
(dp850
g8
(lp851
g342
ag441
ag523
ag119
ag518
ag273
ag286
ag14
ag712
ag522
ag830
ag370
ag263
ag520
ag521
ag159
ag36
ag519
ag338
ag517
ag543
asg71
I1000
sg72
Nsg73
(iread_data
Room
p852
(dp853
g71
g76
sg77
g78
sbsg79
g80
sg81
I0
sg77
g530
sba(ischedule
Activity
p854
(dp855
g8
(lp856
g368
ag63
ag347
aS'21029457'
p857
ag455
ag406
ag389
ag318
aS'56815156'
p858
aS'88176729'
p859
ag642
aS'28359697'
p860
ag155
ag747
ag217
ag138
aS'30050930'
p861
aS'22826928'
p862
ag192
ag140
ag385
ag139
ag457
ag35
ag439
ag682
ag438
ag574
ag314
ag232
ag161
ag553
ag141
ag62
aS'66120270'
p863
ag599
aS'33930505'
p864
aS'30195935'
p865
ag517
ag137
ag694
ag484
ag41
ag499
ag105
asg71
I1000
sg72
Nsg73
(iread_data
Room
p866
(dp867
g71
g777
sg77
g778
sbsg79
g80
sg81
I0
sg77
g151
sba(ischedule
Activity
p868
(dp869
g8
(lp870
g168
ag372
ag411
ag382
ag402
ag397
ag379
ag374
ag387
ag267
ag403
ag296
ag395
ag375
ag369
ag31
ag404
ag373
ag368
ag63
ag401
ag378
ag394
ag398
ag48
ag30
ag386
ag249
ag341
ag22
ag66
ag388
ag28
asg71
S'40'
p871
sg72
(ischedule
Group
p872
(dp873
g8
g870
sg77
S'Databases 22'
p874
sbsg73
(iread_data
Room
p875
(dp876
g71
g325
sg77
g326
sbsg79
g150
sg81
g207
sg77
g416
sba(ischedule
Activity
p877
(dp878
g8
g640
sg71
I1000
sg72
Nsg73
(iread_data
Room
p879
(dp880
g71
g148
sg77
g149
sbsg79
g80
sg81
I0
sg77
g657
sba(ischedule
Activity
p881
(dp882
g8
(lp883
g441
ag446
ag258
ag445
ag383
ag292
ag160
ag440
ag100
ag436
ag31
ag447
asg71
S'10'
p884
sg72
(ischedule
Group
p885
(dp886
g8
g883
sg77
S'Autonomous Agents 22'
p887
sbsg73
(iread_data
Room
p888
(dp889
g71
g205
sg77
g206
sbsg79
g131
sg81
g207
sg77
g450
sba(ischedule
Activity
p890
(dp891
g8
(lp892
g68
ag52
ag37
ag24
ag22
ag16
ag70
ag18
ag42
ag49
ag26
ag31
ag23
ag11
ag41
ag36
ag53
ag63
ag69
ag29
ag39
asg71
S'20'
p893
sg72
(ischedule
Group
p894
(dp895
g8
g892
sg77
S'Collectieve Intelligentie4'
p896
sbsg73
(iread_data
Room
p897
(dp898
g71
g241
sg77
g242
sbsg79
g131
sg81
g243
sg77
g82
sba(ischedule
Activity
p899
(dp900
g8
(lp901
g64
ag58
ag33
ag30
ag59
ag67
ag34
ag32
ag50
ag55
ag51
ag15
ag12
ag17
ag40
ag65
ag57
asg71
g358
sg72
(ischedule
Group
p902
(dp903
g8
g901
sg77
S'Collectieve Intelligentie3'
p904
sbsg73
(iread_data
Room
p905
(dp906
g71
g129
sg77
g130
sbsg79
g150
sg81
g429
sg77
g82
sbaa(lp907
(ischedule
Activity
p908
(dp909
g8
(lp910
g682
ag44
ag671
ag390
ag36
ag674
ag685
ag578
ag191
ag664
ag159
ag89
ag663
ag371
ag22
ag182
asg71
S'20'
p911
sg72
(ischedule
Group
p912
(dp913
g8
g910
sg77
S'Moderne Databases2'
p914
sbsg73
(iread_data
Room
p915
(dp916
g71
g148
sg77
g149
sbsg79
g150
sg81
g207
sg77
g688
sba(ischedule
Activity
p917
(dp918
g8
(lp919
g253
aS'70844780'
p920
ag709
ag508
ag618
ag580
ag53
ag181
ag296
ag288
aS'1886996'
p921
ag51
aS'39429093'
p922
ag250
ag535
ag839
ag619
ag406
ag454
ag137
asg71
I1000
sg72
Nsg73
(iread_data
Room
p923
(dp924
g71
g279
sg77
g280
sbsg79
g80
sg81
I0
sg77
g626
sba(ischedule
Activity
p925
(dp926
g8
(lp927
S'48678993'
p928
ag166
ag710
ag333
ag410
aS'55480737'
p929
aS'14179347'
p930
ag392
ag334
ag170
ag20
ag289
ag692
ag140
ag332
ag585
ag376
ag435
ag683
aS'75680261'
p931
aS'88737765'
p932
aS'58253841'
p933
ag618
ag483
asg71
g630
sg72
(ischedule
Group
p934
(dp935
g8
g927
sg77
S'Project Genetic Algorithms1'
p936
sbsg73
(iread_data
Room
p937
(dp938
g71
g205
sg77
g206
sbsg79
g131
sg81
g132
sg77
g636
sba(ischedule
Activity
p939
(dp940
g8
(lp941
g481
aS'5590289'
p942
aS'53267490'
p943
ag839
aS'72586808'
p944
aS'25557516'
p945
ag649
ag920
aS'82872148'
p946
ag568
ag174
ag663
aS'12170832'
p947
ag117
ag21
ag393
ag60
ag289
asg71
S'20'
p948
sg72
(ischedule
Group
p949
(dp950
g8
g941
sg77
S'Netwerken en systeembeveiliging4'
p951
sbsg73
(iread_data
Room
p952
(dp953
g71
g241
sg77
g242
sbsg79
g131
sg81
g243
sg77
S'Netwerken en systeembeveiliging'
p954
sba(ischedule
Activity
p955
(dp956
g8
(lp957
g642
ag578
aS'87602030'
p958
ag318
aS'72652638'
p959
aS'52304977'
p960
ag423
aS'5739011'
p961
ag710
ag48
ag549
ag789
ag570
ag383
ag287
ag194
ag387
ag249
ag540
aS'35315956'
p962
ag647
ag70
asg71
S'20'
p963
sg72
(ischedule
Group
p964
(dp965
g8
g957
sg77
S'Heuristieken 21'
p966
sbsg73
(iread_data
Room
p967
(dp968
g71
g414
sg77
g415
sbsg79
g150
sg81
g132
sg77
S'Heuristieken 2'
p969
sba(ischedule
Activity
p970
(dp971
g8
(lp972
S'83210352'
p973
ag292
ag68
ag684
ag309
ag753
ag160
ag95
ag248
aS'51593625'
p974
ag859
aS'31103066'
p975
ag578
ag747
aS'37830626'
p976
ag158
ag946
ag34
ag711
ag38
ag457
ag683
aS'73302736'
p977
ag254
ag443
ag87
ag170
ag42
ag314
ag574
ag435
ag584
aS'26260141'
p978
ag462
ag536
ag155
aS'65318664'
p979
ag648
ag786
ag743
ag695
ag59
asg71
S'40'
p980
sg72
(ischedule
Group
p981
(dp982
g8
g972
sg77
S'Software engineering1'
p983
sbsg73
(iread_data
Room
p984
(dp985
g71
g325
sg77
g326
sbsg79
g150
sg81
g132
sg77
g826
sba(ischedule
Activity
p986
(dp987
g8
(lp988
g139
ag676
ag670
ag678
ag273
ag661
ag31
ag666
ag662
ag535
ag668
ag673
ag105
ag669
ag399
ag398
ag138
ag463
ag346
ag684
ag680
ag400
ag519
ag665
ag672
asg71
g911
sg72
(ischedule
Group
p989
(dp990
g8
g988
sg77
S'Moderne Databases3'
p991
sbsg73
(iread_data
Room
p992
(dp993
g71
g129
sg77
g130
sbsg79
g150
sg81
g429
sg77
g688
sbaa(lp994
(ischedule
Activity
p995
(dp996
g8
g883
sg71
g609
sg72
g885
sg73
(iread_data
Room
p997
(dp998
g71
g414
sg77
g415
sbsg79
g150
sg81
g207
sg77
g450
sba(ischedule
Activity
p999
(dp1000
g8
(lp1001
g161
ag574
ag389
ag385
ag863
ag192
ag438
ag859
ag517
ag232
ag858
ag864
ag314
ag865
ag642
ag499
ag457
asg71
g142
sg72
(ischedule
Group
p1002
(dp1003
g8
g1001
sg77
S'Bioinformatica3'
p1004
sbsg73
(iread_data
Room
p1005
(dp1006
g71
g148
sg77
g149
sbsg79
g150
sg81
g429
sg77
g151
sba(ischedule
Activity
p1007
(dp1008
g8
(lp1009
g747
ag682
ag455
ag155
ag553
ag857
ag217
ag368
ag439
ag318
ag347
ag599
ag862
ag484
ag406
ag860
ag694
ag861
ag63
asg71
S'20'
p1010
sg72
(ischedule
Group
p1011
(dp1012
g8
g1009
sg77
S'Bioinformatica2'
p1013
sbsg73
(iread_data
Room
p1014
(dp1015
g71
g241
sg77
g242
sbsg79
g131
sg81
g207
sg77
g151
sba(ischedule
Activity
p1016
(dp1017
g8
g114
sg71
S'10'
p1018
sg72
g124
sg73
(iread_data
Room
p1019
(dp1020
g71
g205
sg77
g206
sbsg79
g150
sg81
g132
sg77
g133
sba(ischedule
Activity
p1021
(dp1022
g8
(lp1023
g667
ag677
ag164
ag16
ag681
ag214
ag32
ag584
ag217
ag683
ag679
ag675
ag285
asg71
g911
sg72
(ischedule
Group
p1024
(dp1025
g8
g1023
sg77
S'Moderne Databases1'
p1026
sbsg73
(iread_data
Room
p1027
(dp1028
g71
g279
sg77
g280
sbsg79
g150
sg81
g132
sg77
g688
sba(ischedule
Activity
p1029
(dp1030
g8
g901
sg71
g893
sg72
g902
sg73
(iread_data
Room
p1031
(dp1032
g71
g325
sg77
g326
sbsg79
g131
sg81
g429
sg77
g82
sba(ischedule
Activity
p1033
(dp1034
g8
(lp1035
g580
ag250
ag51
ag535
ag137
ag921
ag53
ag922
ag508
ag253
ag920
ag709
ag454
ag181
ag839
ag288
ag296
asg71
g620
sg72
(ischedule
Group
p1036
(dp1037
g8
g1035
sg77
S'Advanced Heuristics1'
p1038
sbsg73
(iread_data
Room
p1039
(dp1040
g71
g129
sg77
g130
sbsg79
g131
sg81
g132
sg77
g626
sbaa(lp1041
(ischedule
Activity
p1042
(dp1043
g8
g1009
sg71
g142
sg72
g1011
sg73
(iread_data
Room
p1044
(dp1045
g71
g205
sg77
g206
sbsg79
g150
sg81
g207
sg77
g151
sba(ischedule
Activity
p1046
(dp1047
g8
g9
sg71
I1000
sg72
Nsg73
(iread_data
Room
p1048
(dp1049
g71
g129
sg77
g130
sbsg79
g80
sg81
I0
sg77
g82
sba(ischedule
Activity
p1050
(dp1051
g8
(lp1052
g189
ag536
ag572
ag269
ag293
ag754
ag785
ag138
ag788
asg71
S'20'
p1053
sg72
(ischedule
Group
p1054
(dp1055
g8
g1052
sg77
S'Technology for games2'
p1056
sbsg73
(iread_data
Room
p1057
(dp1058
g71
g241
sg77
g242
sbsg79
g150
sg81
g207
sg77
g797
sba(ischedule
Activity
p1059
(dp1060
g8
(lp1061
g437
ag102
ag11
ag921
ag93
aS'82968410'
p1062
ag928
ag468
ag723
ag226
asg71
g963
sg72
(ischedule
Group
p1063
(dp1064
g8
g1061
sg77
S'Heuristieken 22'
p1065
sbsg73
(iread_data
Room
p1066
(dp1067
g71
g325
sg77
g326
sbsg79
g150
sg81
g207
sg77
g969
sba(ischedule
Activity
p1068
(dp1069
g8
(lp1070
g642
ag65
ag423
ag783
aS'59887191'
p1071
ag28
ag542
ag215
ag928
ag374
ag518
ag367
ag863
ag317
ag391
asg71
g948
sg72
(ischedule
Group
p1072
(dp1073
g8
g1070
sg77
S'Netwerken en systeembeveiliging3'
p1074
sbsg73
(iread_data
Room
p1075
(dp1076
g71
g148
sg77
g149
sbsg79
g131
sg81
g429
sg77
g954
sba(ischedule
Activity
p1077
(dp1078
g8
(lp1079
S'88519892'
p1080
ag862
ag384
ag14
ag974
ag343
ag192
ag49
ag575
asg71
g235
sg72
(ischedule
Group
p1081
(dp1082
g8
g1079
sg77
S'Programmeren in Java 26'
p1083
sbsg73
(iread_data
Room
p1084
(dp1085
g71
g414
sg77
g415
sbsg79
g131
sg81
S'6'
p1086
sg77
g244
sbaaa(lp1087
(lp1088
(ischedule
Activity
p1089
(dp1090
g8
(lp1091
g260
ag758
aS'51415617'
p1092
ag673
ag170
ag285
aS'27370083'
p1093
ag86
ag289
ag599
ag156
ag394
ag291
aS'36213792'
p1094
aS'27805666'
p1095
ag446
ag819
ag292
ag286
ag293
ag141
aS'51052738'
p1096
ag421
ag287
aS'49922855'
p1097
ag94
ag194
ag920
ag296
ag570
aS'99453514'
p1098
aS'82390428'
p1099
ag122
ag224
aS'68286356'
p1100
ag214
ag290
ag22
ag24
ag568
aS'20095994'
p1101
ag782
ag288
ag502
ag268
ag294
ag862
ag297
ag104
ag138
ag295
asg71
I1000
sg72
Nsg73
(iread_data
Room
p1102
(dp1103
g71
g76
sg77
g78
sbsg79
g80
sg81
I0
sg77
g304
sba(ischedule
Activity
p1104
(dp1105
g8
(lp1106
S'55412918'
p1107
ag176
ag272
ag63
ag13
ag411
aS'80998260'
p1108
ag553
ag973
aS'34588570'
p1109
ag455
ag10
ag251
ag546
ag254
ag56
aS'90743504'
p1110
aS'96118484'
p1111
aS'79937969'
p1112
ag331
ag37
ag260
ag588
ag386
ag293
ag437
ag566
ag220
ag434
ag810
aS'54074680'
p1113
ag39
ag174
aS'32595335'
p1114
ag267
ag339
ag189
ag661
ag31
ag447
ag402
aS'21311067'
p1115
ag708
ag537
ag753
ag707
aS'23565001'
p1116
aS'26172512'
p1117
ag812
ag435
aS'66570705'
p1118
ag308
ag249
aS'16011419'
p1119
asg71
I1000
sg72
Nsg73
(iread_data
Room
p1120
(dp1121
g71
g795
sg77
g796
sbsg79
g80
sg81
I0
sg77
S'Lineaire Algebra'
p1122
sba(ischedule
Activity
p1123
(dp1124
g8
(lp1125
g539
ag52
ag172
aS'64554442'
p1126
ag814
ag695
ag288
ag653
ag263
ag68
ag588
ag647
ag384
ag383
ag174
ag978
ag28
aS'51509565'
p1127
ag743
aS'67817269'
p1128
ag811
ag46
ag407
ag101
ag479
ag35
ag256
ag93
ag693
ag374
ag294
ag219
ag694
aS'19540225'
p1129
ag218
ag684
ag645
ag156
ag436
ag371
ag409
ag175
ag692
asg71
I1000
sg72
Nsg73
(iread_data
Room
p1130
(dp1131
g71
S'56'
p1132
sg77
S'A1.10'
p1133
sbsg79
g80
sg81
I0
sg77
g702
sba(ischedule
Activity
p1134
(dp1135
g8
(lp1136
g506
ag783
ag666
ag96
ag667
ag41
ag346
ag388
ag223
aS'5595824'
p1137
ag37
ag215
aS'76802764'
p1138
aS'75759231'
p1139
aS'65852230'
p1140
asg71
S'40'
p1141
sg72
(ischedule
Group
p1142
(dp1143
g8
g1136
sg77
S'Compilerbouw1'
p1144
sbsg73
(iread_data
Room
p1145
(dp1146
g71
g279
sg77
g280
sbsg79
g131
sg81
g132
sg77
g208
sba(ischedule
Activity
p1147
(dp1148
g8
g433
sg71
I1000
sg72
Nsg73
(iread_data
Room
p1149
(dp1150
g71
g325
sg77
g326
sbsg79
g80
sg81
I0
sg77
g450
sba(ischedule
Activity
p1151
(dp1152
g8
(lp1153
g458
ag577
ag11
ag161
ag538
ag30
ag587
ag345
ag572
ag55
ag589
ag581
ag567
ag584
ag234
ag580
ag586
ag571
ag579
asg71
S'20'
p1154
sg72
(ischedule
Group
p1155
(dp1156
g8
g1153
sg77
S'Webprogrammeren en databases1'
p1157
sbsg73
(iread_data
Room
p1158
(dp1159
g71
g241
sg77
g242
sbsg79
g150
sg81
g132
sg77
g592
sbaa(lp1160
(ischedule
Activity
p1161
(dp1162
g8
(lp1163
g839
ag392
ag464
aS'33672995'
p1164
ag169
ag118
ag933
ag535
ag455
ag52
ag668
ag740
ag667
ag250
ag42
ag404
ag523
ag310
ag978
aS'55530367'
p1165
ag101
ag255
ag25
aS'11593163'
p1166
aS'6709529'
p1167
ag21
ag708
aS'62363761'
p1168
ag641
ag67
ag818
ag675
aS'53139134'
p1169
ag168
ag648
ag371
aS'56348773'
p1170
ag218
ag461
ag186
aS'77306636'
p1171
ag460
ag468
ag466
ag372
aS'61520025'
p1172
ag598
ag253
ag188
aS'82412626'
p1173
ag682
ag664
ag226
ag217
ag382
ag436
aS'22168693'
p1174
aS'93361408'
p1175
aS'19717077'
p1176
aS'34173695'
p1177
ag764
ag1107
ag463
ag977
ag345
ag308
ag680
ag541
ag437
aS'59220392'
p1178
ag454
ag456
ag467
aS'56544130'
p1179
ag651
ag397
ag722
ag55
ag857
aS'75623387'
p1180
ag465
ag411
aS'79888156'
p1181
ag457
ag86
ag710
aS'10609762'
p1182
ag96
ag1116
ag402
ag459
ag599
ag553
ag270
ag192
ag368
ag930
ag958
aS'65978354'
p1183
ag70
aS'23628642'
p1184
ag166
ag389
aS'31306819'
p1185
ag462
ag458
asg71
I1000
sg72
Nsg73
(iread_data
Room
p1186
(dp1187
g71
g76
sg77
g78
sbsg79
g80
sg81
I0
sg77
g475
sba(ischedule
Activity
p1188
(dp1189
g8
g972
sg71
g820
sg72
g981
sg73
(iread_data
Room
p1190
(dp1191
g71
g205
sg77
g206
sbsg79
g131
sg81
g132
sg77
g826
sba(ischedule
Activity
p1192
(dp1193
g8
(lp1194
g272
ag548
ag35
aS'97136582'
p1195
ag642
ag439
ag68
aS'87314964'
p1196
ag383
ag596
ag446
ag812
ag600
asg71
g1018
sg72
(ischedule
Group
p1197
(dp1198
g8
g1194
sg77
S'Data Mining3'
p1199
sbsg73
(iread_data
Room
p1200
(dp1201
g71
g148
sg77
g149
sbsg79
g150
sg81
g429
sg77
g133
sba(ischedule
Activity
p1202
(dp1203
g8
g357
sg71
g893
sg72
g359
sg73
(iread_data
Room
p1204
(dp1205
g71
g325
sg77
g326
sbsg79
g131
sg81
g207
sg77
g82
sba(ischedule
Activity
p1206
(dp1207
g8
g1136
sg71
g199
sg72
g1142
sg73
(iread_data
Room
p1208
(dp1209
g71
g279
sg77
g280
sbsg79
g150
sg81
g132
sg77
g208
sbaa(lp1210
(ischedule
Activity
p1211
(dp1212
g8
g781
sg71
I1000
sg72
Nsg73
(iread_data
Room
p1213
(dp1214
g71
g205
sg77
g206
sbsg79
g80
sg81
I0
sg77
g797
sba(ischedule
Activity
p1215
(dp1216
g8
(lp1217
g423
ag517
aS'19337738'
p1218
ag1098
ag536
asg71
g123
sg72
(ischedule
Group
p1219
(dp1220
g8
g1217
sg77
S'Data Mining2'
p1221
sbsg73
(iread_data
Room
p1222
(dp1223
g71
g241
sg77
g242
sbsg79
g131
sg81
g207
sg77
g133
sba(ischedule
Activity
p1224
(dp1225
g8
(lp1226
g684
ag436
ag653
ag479
ag101
ag743
ag294
ag35
ag1126
ag647
ag811
ag645
ag384
ag1128
ag156
ag814
ag172
ag28
ag978
ag371
ag1129
ag1127
asg71
g696
sg72
(ischedule
Group
p1227
(dp1228
g8
g1226
sg77
S'Algoritmen en complexiteit1'
p1229
sbsg73
(iread_data
Room
p1230
(dp1231
g71
g129
sg77
g130
sbsg79
g131
sg81
g132
sg77
g702
sba(ischedule
Activity
p1232
(dp1233
g8
(lp1234
g27
ag45
ag44
ag21
ag48
ag20
ag10
ag56
ag62
ag38
ag28
ag13
ag43
ag46
asg71
g893
sg72
(ischedule
Group
p1235
(dp1236
g8
g1234
sg77
S'Collectieve Intelligentie1'
p1237
sbsg73
(iread_data
Room
p1238
(dp1239
g71
g325
sg77
g326
sbsg79
g131
sg81
g132
sg77
g82
sba(ischedule
Activity
p1240
(dp1241
g8
g1153
sg71
g801
sg72
g1155
sg73
(iread_data
Room
p1242
(dp1243
g71
g414
sg77
g415
sbsg79
g131
sg81
g132
sg77
g592
sba(ischedule
Activity
p1244
(dp1245
g8
g1194
sg71
g123
sg72
g1197
sg73
(iread_data
Room
p1246
(dp1247
g71
g279
sg77
g280
sbsg79
g131
sg81
g429
sg77
g133
sbaa(lp1248
(ischedule
Activity
p1249
(dp1250
g8
g154
sg71
g1141
sg72
g200
sg73
(iread_data
Room
p1251
(dp1252
g71
g1132
sg77
g1133
sbsg79
g131
sg81
g207
sg77
g208
sba(ischedule
Activity
p1253
(dp1254
g8
g737
sg71
I1000
sg72
Nsg73
(iread_data
Room
p1255
(dp1256
g71
g241
sg77
g242
sbsg79
g80
sg81
I0
sg77
g767
sba(ischedule
Activity
p1257
(dp1258
g8
(lp1259
g668
ag437
ag1181
ag101
ag553
ag1165
ag1179
ag1177
ag680
ag404
ag930
ag218
ag382
ag371
ag1116
ag169
ag978
ag958
ag1170
ag21
ag818
ag1176
ag740
ag1173
ag1180
ag118
ag535
ag270
ag648
ag192
ag436
ag1171
ag25
ag1185
ag1178
ag52
ag1166
ag651
ag368
ag664
ag682
ag977
ag389
ag217
ag86
ag67
ag397
ag250
ag764
ag933
ag599
ag541
ag392
ag839
ag1172
ag1174
ag675
ag166
ag523
ag708
ag255
ag1182
ag1168
ag710
ag1169
ag1107
ag188
ag1164
asg71
g469
sg72
(ischedule
Group
p1260
(dp1261
g8
g1259
sg77
S'Calculus 23'
p1262
sbsg73
(iread_data
Room
p1263
(dp1264
g71
g414
sg77
g415
sbsg79
g150
sg81
g429
sg77
g475
sba(ischedule
Activity
p1265
(dp1266
g8
g705
sg71
I1000
sg72
Nsg73
(iread_data
Room
p1267
(dp1268
g71
g325
sg77
g326
sbsg79
g80
sg81
I0
sg77
g716
sba(ischedule
Activity
p1269
(dp1270
g8
g1217
sg71
g1018
sg72
g1219
sg73
(iread_data
Room
p1271
(dp1272
g71
g205
sg77
g206
sbsg79
g150
sg81
g207
sg77
g133
sba(ischedule
Activity
p1273
(dp1274
g8
g910
sg71
S'20'
p1275
sg72
g912
sg73
(iread_data
Room
p1276
(dp1277
g71
g148
sg77
g149
sbsg79
g131
sg81
g207
sg77
g688
sba(ischedule
Activity
p1278
(dp1279
g8
(lp1280
g50
ag864
ag296
ag1195
aS'64246605'
p1281
ag749
ag811
ag331
ag285
ag456
ag401
ag550
aS'123355'
p1282
ag748
ag405
ag692
ag865
ag441
ag176
ag724
ag1168
aS'19058315'
p1283
asg71
g948
sg72
(ischedule
Group
p1284
(dp1285
g8
g1280
sg77
S'Netwerken en systeembeveiliging1'
p1286
sbsg73
(iread_data
Room
p1287
(dp1288
g71
g279
sg77
g280
sbsg79
g131
sg81
g132
sg77
g954
sbaa(lp1289
(ischedule
Activity
p1290
(dp1291
g8
g565
sg71
I1000
sg72
Nsg73
(iread_data
Room
p1292
(dp1293
g71
g777
sg77
g778
sbsg79
g80
sg81
I0
sg77
g592
sba(ischedule
Activity
p1294
(dp1295
g8
g851
sg71
I1000
sg72
Nsg73
(iread_data
Room
p1296
(dp1297
g71
g148
sg77
g149
sbsg79
g80
sg81
I0
sg77
g530
sba(ischedule
Activity
p1298
(dp1299
g8
g608
sg71
g884
sg72
g610
sg73
(iread_data
Room
p1300
(dp1301
g71
g325
sg77
g326
sbsg79
g131
sg81
g429
sg77
g450
sba(ischedule
Activity
p1302
(dp1303
g8
(lp1304
g381
ag443
ag437
ag444
ag434
asg71
g609
sg72
(ischedule
Group
p1305
(dp1306
g8
g1304
sg77
S'Autonomous Agents 21'
p1307
sbsg73
(iread_data
Room
p1308
(dp1309
g71
g129
sg77
g130
sbsg79
g150
sg81
g132
sg77
g450
sba(ischedule
Activity
p1310
(dp1311
g8
(lp1312
g570
ag541
ag405
ag289
ag1164
aS'58480929'
p1313
ag176
ag369
aS'82854435'
p1314
aS'18477924'
p1315
ag977
ag682
ag753
aS'97838175'
p1316
ag297
ag382
ag819
ag390
ag535
ag437
ag267
aS'78822885'
p1317
ag499
ag99
ag293
ag292
ag782
ag812
ag227
ag69
ag341
ag271
ag555
ag1137
ag220
ag932
ag1116
ag979
ag48
ag619
aS'14637758'
p1318
ag928
ag1179
ag944
ag858
ag295
aS'73350019'
p1319
ag518
ag465
asg71
I1000
sg72
Nsg73
(iread_data
Room
p1320
(dp1321
g71
g241
sg77
g242
sbsg79
g80
sg81
I0
sg77
S'Analysemethoden en -technieken'
p1322
sba(ischedule
Activity
p1323
(dp1324
g8
(lp1325
g118
ag1196
ag439
ag1098
ag95
ag121
ag1218
ag548
ag596
ag1195
ag642
ag536
ag120
ag117
ag122
ag116
ag272
ag423
ag68
ag517
ag600
ag119
ag446
ag115
ag35
ag812
ag383
asg71
I1000
sg72
Nsg73
(iread_data
Room
p1326
(dp1327
g71
g205
sg77
g206
sbsg79
g80
sg81
I0
sg77
g133
sba(ischedule
Activity
p1328
(dp1329
g8
g809
sg71
g980
sg72
g821
sg73
(iread_data
Room
p1330
(dp1331
g71
g414
sg77
g415
sbsg79
g150
sg81
g207
sg77
g826
sbaaa(lp1332
(lp1333
(ischedule
Activity
p1334
(dp1335
g8
(lp1336
g165
ag186
ag189
ag215
ag159
ag65
ag170
ag172
ag388
ag187
ag192
ag19
ag188
ag184
ag177
ag155
ag190
ag156
ag181
ag183
ag41
ag191
ag162
ag223
ag179
ag195
ag174
ag166
ag90
ag40
ag34
ag1140
ag506
ag157
ag783
ag198
ag140
ag158
ag180
ag163
ag13
ag37
ag1137
ag167
ag176
ag346
ag171
ag197
ag160
ag161
ag193
ag106
ag666
ag194
ag169
ag667
ag196
ag1139
ag175
ag182
ag178
ag185
ag1138
ag103
ag164
ag100
ag96
ag173
ag168
asg71
I1000
sg72
Nsg73
(iread_data
Room
p1337
(dp1338
g71
g76
sg77
g78
sbsg79
g80
sg81
I0
sg77
g208
sba(ischedule
Activity
p1339
(dp1340
g8
g1304
sg71
g884
sg72
g1305
sg73
(iread_data
Room
p1341
(dp1342
g71
g205
sg77
g206
sbsg79
g131
sg81
g132
sg77
g450
sba(ischedule
Activity
p1343
(dp1344
g8
g988
sg71
g1275
sg72
g989
sg73
(iread_data
Room
p1345
(dp1346
g71
g129
sg77
g130
sbsg79
g131
sg81
g429
sg77
g688
sba(ischedule
Activity
p1347
(dp1348
g8
g829
sg71
S'15'
p1349
sg72
g831
sg73
(iread_data
Room
p1350
(dp1351
g71
g241
sg77
g242
sbsg79
g131
sg81
g132
sg77
g530
sba(ischedule
Activity
p1352
(dp1353
g8
g1001
sg71
g1010
sg72
g1002
sg73
(iread_data
Room
p1354
(dp1355
g71
g325
sg77
g326
sbsg79
g131
sg81
g429
sg77
g151
sba(ischedule
Activity
p1356
(dp1357
g8
g1023
sg71
g1275
sg72
g1024
sg73
(iread_data
Room
p1358
(dp1359
g71
g148
sg77
g149
sbsg79
g131
sg81
g132
sg77
g688
sba(ischedule
Activity
p1360
(dp1361
g8
(lp1362
S'16912993'
p1363
ag508
ag95
ag187
ag539
ag212
ag62
ag270
ag25
asg71
g948
sg72
(ischedule
Group
p1364
(dp1365
g8
g1362
sg77
S'Netwerken en systeembeveiliging2'
p1366
sbsg73
(iread_data
Room
p1367
(dp1368
g71
g279
sg77
g280
sbsg79
g131
sg81
g207
sg77
g954
sbaa(lp1369
(ischedule
Activity
p1370
(dp1371
g8
g1336
sg71
I1000
sg72
Nsg73
(iread_data
Room
p1372
(dp1373
g71
g76
sg77
g78
sbsg79
g80
sg81
I0
sg77
g208
sba(ischedule
Activity
p1374
(dp1375
g8
g800
sg71
g1154
sg72
g802
sg73
(iread_data
Room
p1376
(dp1377
g71
g325
sg77
g326
sbsg79
g150
sg81
g207
sg77
g592
sba(ischedule
Activity
p1378
(dp1379
g8
g892
sg71
g358
sg72
g894
sg73
(iread_data
Room
p1380
(dp1381
g71
g205
sg77
g206
sbsg79
g150
sg81
g243
sg77
g82
sba(ischedule
Activity
p1382
(dp1383
g8
g1325
sg71
I1000
sg72
Nsg73
(iread_data
Room
p1384
(dp1385
g71
g241
sg77
g242
sbsg79
g80
sg81
I0
sg77
g133
sba(ischedule
Activity
p1386
(dp1387
g8
g691
sg71
S'25'
p1388
sg72
g697
sg73
(iread_data
Room
p1389
(dp1390
g71
g279
sg77
g280
sbsg79
g150
sg81
g207
sg77
g702
sba(ischedule
Activity
p1391
(dp1392
g8
(lp1393
g961
ag540
ag960
ag318
ag723
ag249
ag789
ag962
ag93
ag437
ag194
ag48
ag226
ag959
ag468
ag570
ag642
ag11
ag287
ag958
ag647
ag102
ag578
ag70
ag549
ag928
ag383
ag921
ag387
ag423
ag710
ag1062
asg71
I1000
sg72
Nsg73
(iread_data
Room
p1394
(dp1395
g71
g129
sg77
g130
sbsg79
g80
sg81
I0
sg77
g969
sba(ischedule
Activity
p1396
(dp1397
g8
g1226
sg71
g1388
sg72
g1227
sg73
(iread_data
Room
p1398
(dp1399
g71
g148
sg77
g149
sbsg79
g150
sg81
g132
sg77
g702
sbaa(lp1400
(ischedule
Activity
p1401
(dp1402
g8
g856
sg71
I1000
sg72
Nsg73
(iread_data
Room
p1403
(dp1404
g71
g1132
sg77
g1133
sbsg79
g80
sg81
I0
sg77
g151
sba(ischedule
Activity
p1405
(dp1406
g8
(lp1407
g421
ag86
ag1101
ag570
ag268
ag502
ag920
ag1098
ag1094
ag1093
ag782
asg71
g298
sg72
(ischedule
Group
p1408
(dp1409
g8
g1407
sg77
S'Reflectie op de digitale cultuur2'
p1410
sbsg73
(iread_data
Room
p1411
(dp1412
g71
g414
sg77
g415
sbsg79
g150
sg81
g207
sg77
g304
sba(ischedule
Activity
p1413
(dp1414
g8
g1234
sg71
g358
sg72
g1235
sg73
(iread_data
Room
p1415
(dp1416
g71
g241
sg77
g242
sbsg79
g150
sg81
g132
sg77
g82
sba(ischedule
Activity
p1417
(dp1418
g8
(lp1419
g958
ag59
ag748
ag101
ag198
ag673
ag19
ag390
ag643
ag87
ag480
asg71
g630
sg72
(ischedule
Group
p1420
(dp1421
g8
g1419
sg77
S'Project Genetic Algorithms2'
p1422
sbsg73
(iread_data
Room
p1423
(dp1424
g71
g148
sg77
g149
sbsg79
g131
sg81
g207
sg77
g636
sba(ischedule
Activity
p1425
(dp1426
g8
(lp1427
g545
ag553
ag441
ag446
ag536
ag398
ag482
ag23
ag374
ag42
ag554
ag484
ag339
ag535
ag537
ag538
ag549
ag551
ag445
ag540
ag539
ag60
ag543
ag250
ag163
ag552
ag311
ag286
ag368
ag541
ag233
ag265
ag36
ag555
ag550
ag547
asg71
g771
sg72
(ischedule
Group
p1428
(dp1429
g8
g1427
sg77
S'Heuristieken 12'
p1430
sbsg73
(iread_data
Room
p1431
(dp1432
g71
g279
sg77
g280
sbsg79
g150
sg81
g207
sg77
g558
sbaa(lp1433
(ischedule
Activity
p1434
(dp1435
g8
(lp1436
g398
ag36
ag375
ag783
ag784
ag792
ag745
ag786
ag708
ag446
ag18
ag159
ag51
ag309
ag66
ag191
ag342
ag503
ag791
ag787
ag522
ag782
ag682
ag441
ag790
ag175
ag344
ag789
ag167
asg71
g1053
sg72
(ischedule
Group
p1437
(dp1438
g8
g1436
sg77
S'Technology for games1'
p1439
sbsg73
(iread_data
Room
p1440
(dp1441
g71
g279
sg77
g280
sbsg79
g150
sg81
g132
sg77
g797
sba(ischedule
Activity
p1442
(dp1443
g8
g856
sg71
I1000
sg72
Nsg73
(iread_data
Room
p1444
(dp1445
g71
g241
sg77
g242
sbsg79
g80
sg81
I0
sg77
g151
sba(ischedule
Activity
p1446
(dp1447
g8
g1106
sg71
I1000
sg72
Nsg73
(iread_data
Room
p1448
(dp1449
g71
g129
sg77
g130
sbsg79
g80
sg81
I0
sg77
g1122
sba(ischedule
Activity
p1450
(dp1451
g8
g1091
sg71
I1000
sg72
Nsg73
(iread_data
Room
p1452
(dp1453
g71
g414
sg77
g415
sbsg79
g80
sg81
I0
sg77
g304
sba(ischedule
Activity
p1454
(dp1455
g8
(lp1456
g370
ag383
ag385
ag100
ag406
ag273
ag13
ag139
ag381
ag24
ag157
ag390
ag405
ag407
ag380
ag367
ag391
ag399
ag396
ag410
ag384
ag193
ag268
ag50
ag232
ag409
ag400
ag44
ag156
ag253
ag393
ag392
ag376
ag408
ag377
ag69
ag371
ag389
ag310
asg71
g871
sg72
(ischedule
Group
p1457
(dp1458
g8
g1456
sg77
S'Databases 21'
p1459
sbsg73
(iread_data
Room
p1460
(dp1461
g71
g325
sg77
g326
sbsg79
g150
sg81
g132
sg77
g416
sbaa(lp1462
(ischedule
Activity
p1463
(dp1464
g8
(lp1465
g973
ag725
ag484
ag290
ag292
ag248
ag569
ag976
ag38
ag34
ag811
ag462
ag381
ag457
ag42
ag574
ag743
ag155
ag443
ag817
ag648
ag816
ag68
ag711
ag684
ag668
ag536
ag979
ag438
ag747
ag95
ag435
ag815
ag584
ag859
ag975
ag254
ag683
ag190
ag786
ag158
ag721
ag309
ag15
ag59
ag812
ag695
ag749
ag974
ag946
ag160
ag54
ag537
ag500
ag818
ag294
ag347
ag93
ag756
ag819
ag170
ag978
ag977
ag50
ag541
ag191
ag813
ag460
ag578
ag753
ag87
ag814
ag314
ag212
ag810
asg71
I1000
sg72
Nsg73
(iread_data
Room
p1466
(dp1467
g71
g76
sg77
g78
sbsg79
g80
sg81
I0
sg77
g826
sba(ischedule
Activity
p1468
(dp1469
g8
g516
sg71
g1349
sg72
g525
sg73
(iread_data
Room
p1470
(dp1471
g71
g109
sg77
g110
sbsg79
g131
sg81
g207
sg77
g530
sba(ischedule
Activity
p1472
(dp1473
g8
g136
sg71
g1010
sg72
g143
sg73
(iread_data
Room
p1474
(dp1475
g71
g795
sg77
g796
sbsg79
g131
sg81
g132
sg77
g151
sba(ischedule
Activity
p1476
(dp1477
g8
(lp1478
g1167
ag667
ag598
ag70
ag641
ag1175
ag1183
ag857
ag42
ag722
ag1184
asg71
g469
sg72
(ischedule
Group
p1479
(dp1480
g8
g1478
sg77
S'Calculus 22'
p1481
sbsg73
(iread_data
Room
p1482
(dp1483
g71
g279
sg77
g280
sbsg79
g150
sg81
g207
sg77
g475
sba(ischedule
Activity
p1484
(dp1485
g8
(lp1486
g101
ag400
ag173
asg71
g235
sg72
(ischedule
Group
p1487
(dp1488
g8
g1486
sg77
S'Programmeren in Java 25'
p1489
sbsg73
(iread_data
Room
p1490
(dp1491
g71
g129
sg77
g130
sbsg79
g131
sg81
S'5'
p1492
sg77
g244
sba(ischedule
Activity
p1493
(dp1494
g8
(lp1495
g156
ag1095
ag819
ag862
ag194
ag1096
ag1099
ag138
ag260
ag24
ag94
ag1097
ag568
ag394
ag673
ag104
ag599
ag1092
ag758
ag170
ag446
ag1100
asg71
g298
sg72
(ischedule
Group
p1496
(dp1497
g8
g1495
sg77
S'Reflectie op de digitale cultuur3'
p1498
sbsg73
(iread_data
Room
p1499
(dp1500
g71
g148
sg77
g149
sbsg79
g150
sg81
g429
sg77
g304
sbaaa(lp1501
(lp1502
a(lp1503
a(lp1504
a(lp1505
a(lp1506
aasS'timeslot_dict'
p1507
(dp1508
I0
S'9:00-11:00'
p1509
sI1
S'11:00-13:00'
p1510
sI2
S'13:00-15:00'
p1511
sI3
S'15:00-17:00'
p1512
sI4
S'17:00-19:00'
p1513
ssS'day_dict'
p1514
(dp1515
I0
S'Monday'
p1516
sI1
S'Tuesday'
p1517
sI2
S'Wednesday'
p1518
sI3
S'Thursday'
p1519
sI4
S'Friday'
p1520
ssb.