(ischedule
Schedule
p0
(dp1
S'timetable'
p2
(lp3
(lp4
(lp5
(ischedule
Activity
p6
(dp7
S'participants'
p8
(lp9
S'53202517'
p10
aS'72577292'
p11
aS'57086672'
p12
aS'41790793'
p13
aS'67073567'
p14
aS'14847953'
p15
aS'49908313'
p16
aS'16333449'
p17
aS'5615125'
p18
aS'53512831'
p19
aS'66034145'
p20
aS'89180944'
p21
aS'69459473'
p22
aS'72895450'
p23
aS'10698627'
p24
aS'20618153'
p25
aS'78243495'
p26
aS'40434933'
p27
aS'2416751'
p28
aS'1137946'
p29
aS'77392404'
p30
aS'28358060'
p31
aS'64228258'
p32
aS'6249823'
p33
asS'capacity'
p34
S'20'
p35
sS'name'
p36
S'Webprogrammeren en databases'
p37
sS'ttype'
p38
S'tutorials'
p39
sS'group_id'
p40
S'1'
p41
sS'room'
p42
(iread_data
Room
p43
(dp44
g34
S'48'
p45
sg36
S'B0.201'
p46
sbsba(ischedule
Activity
p47
(dp48
g8
(lp49
S'11068043'
p50
aS'29526540'
p51
aS'74131924'
p52
aS'58522654'
p53
aS'5298748'
p54
aS'56815156'
p55
aS'81200278'
p56
aS'247918'
p57
aS'64600457'
p58
aS'96453361'
p59
aS'21029457'
p60
ag10
aS'6913074'
p61
aS'73236988'
p62
aS'77831658'
p63
aS'22826928'
p64
aS'30050930'
p65
aS'79617364'
p66
aS'43680781'
p67
asg34
S'20'
p68
sg36
S'Bioinformatica'
p69
sg38
g39
sg40
g41
sg42
(iread_data
Room
p70
(dp71
g34
S'117'
p72
sg36
S'C0.110'
p73
sbsba(ischedule
Activity
p74
(dp75
g8
(lp76
S'66122625'
p77
aS'99453514'
p78
aS'52311353'
p79
aS'22323043'
p80
aS'21964491'
p81
aS'13116738'
p82
aS'59753700'
p83
aS'50143947'
p84
ag52
aS'97136582'
p85
aS'98780382'
p86
aS'68360259'
p87
aS'13996448'
p88
aS'25330192'
p89
aS'51566595'
p90
asg34
S'10'
p91
sg36
S'Data Mining'
p92
sg38
S'labs'
p93
sg40
S'3'
p94
sg42
(iread_data
Room
p95
(dp96
g34
S'56'
p97
sg36
S'A1.10'
p98
sbsba(ischedule
Activity
p99
(dp100
g8
(lp101
S'98105190'
p102
aS'65960683'
p103
aS'77896638'
p104
aS'27187154'
p105
aS'86291592'
p106
aS'7957843'
p107
aS'30658799'
p108
aS'92665222'
p109
aS'75599734'
p110
aS'86988337'
p111
aS'11915563'
p112
aS'84524083'
p113
aS'81385263'
p114
aS'11741347'
p115
aS'72796858'
p116
aS'9067939'
p117
aS'95631564'
p118
ag23
aS'66701209'
p119
aS'5368702'
p120
aS'40791377'
p121
aS'95007221'
p122
aS'34872117'
p123
aS'48503689'
p124
aS'31194811'
p125
aS'88855695'
p126
aS'13284244'
p127
aS'80135353'
p128
aS'83266686'
p129
aS'24613625'
p130
aS'27950803'
p131
aS'60312776'
p132
aS'76802764'
p133
aS'2079771'
p134
aS'88752563'
p135
aS'68315599'
p136
aS'79033175'
p137
aS'10792879'
p138
aS'88636924'
p139
aS'75664412'
p140
aS'14309255'
p141
aS'6723948'
p142
aS'46989508'
p143
asg34
S'40'
p144
sg36
S'Compilerbouw'
p145
sg38
g39
sg40
S'2'
p146
sg42
(iread_data
Room
p147
(dp148
g34
S'60'
p149
sg36
S'C1.112'
p150
sbsba(ischedule
Activity
p151
(dp152
g8
(lp153
S'44868097'
p154
aS'83415514'
p155
aS'28957789'
p156
aS'65408517'
p157
aS'47477884'
p158
aS'75997788'
p159
aS'26260141'
p160
aS'27925117'
p161
aS'55530367'
p162
aS'48357272'
p163
aS'96054456'
p164
aS'58040377'
p165
aS'78735049'
p166
aS'27064249'
p167
aS'22168693'
p168
aS'62105897'
p169
aS'14816774'
p170
aS'58699305'
p171
aS'56544130'
p172
aS'14591033'
p173
ag60
aS'86180471'
p174
aS'72526473'
p175
aS'85335143'
p176
ag138
aS'9731271'
p177
aS'33672995'
p178
aS'72665524'
p179
aS'75585647'
p180
aS'47932106'
p181
ag135
aS'6709529'
p182
aS'16097870'
p183
aS'82412626'
p184
aS'87602030'
p185
ag126
asg34
S'40'
p186
sg36
S'Calculus 2'
p187
sg38
g39
sg40
g41
sg42
(iread_data
Room
p188
(dp189
g34
S'22'
p190
sg36
S'A1.06'
p191
sbsbaa(lp192
(ischedule
Activity
p193
(dp194
g8
(lp195
S'48601268'
p196
ag80
ag84
ag132
aS'44671041'
p197
aS'96554914'
p198
aS'4783858'
p199
aS'25106480'
p200
ag112
aS'41153310'
p201
aS'55474917'
p202
aS'54026378'
p203
aS'43460038'
p204
aS'45915482'
p205
ag160
ag163
aS'4568018'
p206
ag169
aS'42115591'
p207
aS'37830626'
p208
aS'89985072'
p209
aS'31633723'
p210
aS'62356458'
p211
aS'21095566'
p212
aS'22871048'
p213
aS'77376714'
p214
ag79
aS'83210352'
p215
aS'94467156'
p216
aS'99283252'
p217
aS'1048485'
p218
aS'88176729'
p219
ag131
aS'80709893'
p220
aS'61060652'
p221
aS'3727435'
p222
aS'78443067'
p223
aS'58074656'
p224
ag21
aS'3233378'
p225
aS'73302736'
p226
aS'5976174'
p227
ag157
aS'4546613'
p228
ag50
aS'31247305'
p229
aS'58565406'
p230
ag154
aS'84110134'
p231
aS'59544049'
p232
ag62
aS'14671406'
p233
ag110
aS'28357474'
p234
aS'52715680'
p235
aS'13718298'
p236
aS'51593625'
p237
aS'31103066'
p238
aS'82872148'
p239
aS'40343779'
p240
aS'37744525'
p241
aS'89338938'
p242
aS'9287708'
p243
aS'41527759'
p244
ag141
aS'52552718'
p245
aS'14072826'
p246
aS'29640619'
p247
aS'33877725'
p248
ag26
aS'70015932'
p249
aS'65318664'
p250
ag118
aS'27582862'
p251
aS'68409833'
p252
asg34
I1000
sg36
S'Software engineering'
p253
sg38
S'lectures'
p254
sg40
I0
sg42
(iread_data
Room
p255
(dp256
g34
g190
sg36
g191
sbsba(ischedule
Activity
p257
(dp258
g8
(lp259
g116
ag57
aS'13092455'
p260
aS'5517869'
p261
aS'23658570'
p262
aS'4529208'
p263
aS'43902015'
p264
aS'25077484'
p265
aS'73823548'
p266
aS'56191333'
p267
ag27
aS'51542218'
p268
aS'42196732'
p269
aS'4921119'
p270
aS'56749879'
p271
aS'17092717'
p272
aS'64947290'
p273
aS'670011'
p274
ag170
aS'75005528'
p275
aS'72456780'
p276
aS'13132925'
p277
ag123
ag104
ag164
ag247
aS'43027916'
p278
aS'15187217'
p279
aS'54540997'
p280
aS'58592894'
p281
aS'39459642'
p282
aS'17222374'
p283
aS'57467488'
p284
aS'94686490'
p285
aS'56121590'
p286
aS'76123484'
p287
aS'70072978'
p288
ag158
aS'40141996'
p289
aS'3168419'
p290
aS'37701751'
p291
aS'82689818'
p292
aS'11996292'
p293
aS'90474003'
p294
aS'23257088'
p295
aS'27123462'
p296
aS'26406342'
p297
aS'83869542'
p298
ag245
aS'5085194'
p299
aS'49631542'
p300
ag181
aS'26207525'
p301
aS'56872729'
p302
aS'78821918'
p303
aS'60352393'
p304
aS'77960666'
p305
aS'62736669'
p306
aS'24277163'
p307
aS'5526560'
p308
ag143
ag90
ag135
aS'64296965'
p309
aS'58332004'
p310
aS'91527663'
p311
ag174
ag111
aS'58083680'
p312
aS'59397895'
p313
ag51
aS'12091019'
p314
asg34
I1000
sg36
S'Databases 2'
p315
sg38
g254
sg40
I0
sg42
(iread_data
Room
p316
(dp317
g34
g97
sg36
g98
sbsba(ischedule
Activity
p318
(dp319
g8
(lp320
g299
aS'25994016'
p321
aS'99272880'
p322
aS'14303208'
p323
aS'51673172'
p324
aS'91250534'
p325
aS'14138904'
p326
aS'11459236'
p327
aS'82066165'
p328
aS'51472074'
p329
aS'64418623'
p330
ag179
aS'5892092'
p331
aS'71839156'
p332
aS'55103073'
p333
aS'74361881'
p334
aS'1695839'
p335
ag50
aS'42297781'
p336
aS'1665980'
p337
ag235
aS'88596522'
p338
ag297
asg34
S'15'
p339
sg36
S'Compilerbouw practicum'
p340
sg38
g93
sg40
g41
sg42
(iread_data
Room
p341
(dp342
g34
S'20'
p343
sg36
S'A1.08'
p344
sbsba(ischedule
Activity
p345
(dp346
g8
(lp347
g15
aS'23547619'
p348
ag120
aS'37399898'
p349
aS'93566383'
p350
aS'20374340'
p351
aS'76661016'
p352
aS'3707829'
p353
aS'64768422'
p354
aS'19214659'
p355
aS'81155296'
p356
aS'28055464'
p357
aS'69634191'
p358
aS'21677389'
p359
aS'34765676'
p360
ag291
aS'76924297'
p361
aS'44828429'
p362
ag228
aS'38179241'
p363
ag56
aS'65675896'
p364
ag20
ag114
aS'2550487'
p365
asg34
I1000
sg36
S'Interactie-ontwerp'
p366
sg38
g254
sg40
I0
sg42
(iread_data
Room
p367
(dp368
g34
g149
sg36
g150
sbsba(ischedule
Activity
p369
(dp370
g8
(lp371
g10
aS'76903244'
p372
aS'61443567'
p373
ag204
ag287
ag31
aS'76648468'
p374
aS'94930277'
p375
ag11
ag272
ag248
ag29
ag12
ag33
ag13
ag23
ag14
aS'22288615'
p376
ag15
ag32
ag28
ag30
ag16
ag25
ag17
aS'24891081'
p377
aS'3474870'
p378
ag167
ag264
ag27
ag18
ag323
ag19
ag26
ag20
ag24
ag21
aS'39230359'
p379
ag22
asg34
I1000
sg36
g37
sg38
g254
sg40
I0
sg42
(iread_data
Room
p380
(dp381
g34
g72
sg36
g73
sbsba(ischedule
Activity
p382
(dp383
g8
(lp384
S'63573738'
p385
aS'30195935'
p386
aS'4709948'
p387
aS'53267490'
p388
ag301
aS'34243356'
p389
ag304
aS'70939718'
p390
aS'38499176'
p391
ag267
asg34
S'20'
p392
sg36
S'Netwerken en systeembeveiliging'
p393
sg38
g93
sg40
g146
sg42
(iread_data
Room
p394
(dp395
g34
S'41'
p396
sg36
S'A1.04'
p397
sbsba(ischedule
Activity
p398
(dp399
g8
(lp400
S'53585410'
p401
aS'535689'
p402
aS'57595888'
p403
aS'23215240'
p404
aS'41644639'
p405
aS'63634350'
p406
ag364
ag391
ag206
ag84
aS'32204977'
p407
aS'3407554'
p408
asg34
g339
sg36
g340
sg38
g93
sg40
g94
sg42
(iread_data
Room
p409
(dp410
g34
g45
sg36
g46
sbsbaa(lp411
(ischedule
Activity
p412
(dp413
g8
(lp414
g78
aS'37110913'
p415
aS'19337738'
p416
asg34
S'10'
p417
sg36
g92
sg38
g39
sg40
g94
sg42
(iread_data
Room
p418
(dp419
g34
g149
sg36
g150
sbsba(ischedule
Activity
p420
(dp421
g8
(lp422
S'67817269'
p423
aS'78136904'
p424
ag160
aS'15902055'
p425
ag244
ag81
ag90
ag378
aS'66433883'
p426
aS'27298319'
p427
aS'19540225'
p428
ag401
aS'64554442'
p429
ag23
ag233
ag240
ag212
ag59
aS'23983476'
p430
ag284
asg34
S'25'
p431
sg36
S'Algoritmen en complexiteit'
p432
sg38
g39
sg40
g41
sg42
g43
sba(ischedule
Activity
p433
(dp434
g8
(lp435
S'24875739'
p436
aS'87900893'
p437
ag61
ag199
aS'11593163'
p438
aS'62363761'
p439
aS'86000192'
p440
aS'51741554'
p441
ag363
aS'78544592'
p442
aS'61520025'
p443
ag302
aS'74182182'
p444
ag323
aS'37279234'
p445
ag406
aS'23565001'
p446
aS'46570285'
p447
aS'77306636'
p448
ag266
aS'97135019'
p449
aS'55412918'
p450
ag129
aS'10609762'
p451
aS'65978354'
p452
aS'3678531'
p453
ag66
ag352
ag226
ag281
aS'38296757'
p454
asg34
g186
sg36
g187
sg38
g39
sg40
g146
sg42
(iread_data
Room
p455
(dp456
g34
g190
sg36
g191
sbsba(ischedule
Activity
p457
(dp458
g8
(lp459
S'62701040'
p460
aS'44901052'
p461
aS'19958553'
p462
aS'8557857'
p463
aS'29718115'
p464
asg34
S'15'
p465
sg36
S'Informatie- en organsatieontwerp'
p466
sg38
g39
sg40
g41
sg42
(iread_data
Room
p467
(dp468
g34
g97
sg36
g98
sbsba(ischedule
Activity
p469
(dp470
g8
(lp471
S'27241113'
p472
aS'36527838'
p473
aS'96082155'
p474
aS'63111000'
p475
ag21
ag261
aS'13218321'
p476
ag141
ag214
ag129
ag176
ag293
aS'66621166'
p477
ag67
ag307
aS'18144425'
p478
aS'48198668'
p479
asg34
S'20'
p480
sg36
S'Moderne Databases'
p481
sg38
g39
sg40
g146
sg42
(iread_data
Room
p482
(dp483
g34
g343
sg36
g344
sbsba(ischedule
Activity
p484
(dp485
g8
(lp486
g307
aS'27916487'
p487
ag387
aS'42171678'
p488
ag447
aS'50184318'
p489
aS'33776961'
p490
ag288
ag171
ag477
ag300
aS'1766560'
p491
aS'1181560'
p492
ag283
ag51
aS'59111489'
p493
ag159
ag223
ag478
aS'51650744'
p494
aS'36748818'
p495
ag293
aS'41489515'
p496
asg34
S'20'
p497
sg36
g481
sg38
g93
sg40
g94
sg42
(iread_data
Room
p498
(dp499
g34
g72
sg36
g73
sbsba(ischedule
Activity
p500
(dp501
g8
(lp502
g88
aS'85284256'
p503
aS'23391676'
p504
ag490
aS'46701583'
p505
aS'2317551'
p506
ag310
aS'54395877'
p507
aS'79879876'
p508
ag142
ag218
ag61
aS'64393888'
p509
ag251
ag247
ag440
ag197
asg34
S'20'
p510
sg36
S'Programmeren in Java 2'
p511
sg38
g93
sg40
g41
sg42
(iread_data
Room
p512
(dp513
g34
g396
sg36
g397
sbsbaa(lp514
(ischedule
Activity
p515
(dp516
g8
(lp517
g84
ag199
ag112
ag202
ag204
ag160
ag206
ag209
ag211
ag213
ag79
ag216
ag131
ag221
ag223
ag21
ag226
ag157
ag50
ag230
ag231
ag62
ag235
ag237
ag239
ag241
ag243
ag141
ag246
ag248
ag249
ag118
ag252
ag229
ag210
ag245
ag110
ag218
ag198
asg34
S'40'
p518
sg36
g253
sg38
g39
sg40
g41
sg42
(iread_data
Room
p519
(dp520
g34
g45
sg36
g46
sbsba(ischedule
Activity
p521
(dp522
g8
(lp523
g260
aS'68601184'
p524
ag199
ag292
aS'31416266'
p525
aS'77240949'
p526
ag309
aS'17575088'
p527
aS'7308727'
p528
ag103
aS'87758823'
p529
ag196
aS'1696500'
p530
ag283
ag278
ag403
ag234
aS'53107172'
p531
aS'73980360'
p532
ag425
ag104
ag53
ag449
aS'29474737'
p533
aS'13534377'
p534
ag261
ag225
ag509
ag441
ag269
ag307
ag337
aS'46052388'
p535
ag32
ag132
ag373
aS'96104167'
p536
ag106
ag297
ag200
aS'9332762'
p537
aS'35330349'
p538
aS'33760909'
p539
aS'75521763'
p540
aS'1075391'
p541
aS'42778953'
p542
aS'37770881'
p543
aS'22699561'
p544
aS'54310617'
p545
ag488
aS'34773179'
p546
ag81
ag440
ag84
ag11
ag287
ag460
ag247
ag489
ag348
aS'45556081'
p547
asg34
I1000
sg36
S'Collectieve Intelligentie'
p548
sg38
g254
sg40
I0
sg42
(iread_data
Room
p549
(dp550
g34
g72
sg36
g73
sbsba(ischedule
Activity
p551
(dp552
g8
(lp553
g460
aS'88597745'
p554
aS'63096281'
p555
ag165
aS'44391517'
p556
aS'26857113'
p557
aS'12782624'
p558
ag58
ag164
aS'47982619'
p559
ag24
ag262
ag537
ag241
ag453
aS'34262212'
p560
aS'41585485'
p561
aS'60661905'
p562
ag295
aS'73196865'
p563
asg34
g510
sg36
g511
sg38
g93
sg40
g146
sg42
(iread_data
Room
p564
(dp565
g34
g396
sg36
g397
sbsba(ischedule
Activity
p566
(dp567
g8
(lp568
g298
ag185
aS'85236626'
p569
ag161
aS'22731474'
p570
ag90
aS'48678993'
p571
ag183
ag113
aS'1886996'
p572
aS'31897288'
p573
asg34
S'20'
p574
sg36
S'Heuristieken 2'
p575
sg38
g39
sg40
g41
sg42
(iread_data
Room
p576
(dp577
g34
g190
sg36
g191
sbsba(ischedule
Activity
p578
(dp579
g8
g371
sg34
I1000
sg36
g37
sg38
g254
sg40
I0
sg42
(iread_data
Room
p580
(dp581
g34
g149
sg36
g150
sbsba(ischedule
Activity
p582
(dp583
g8
(lp584
g112
aS'36508571'
p585
aS'70113753'
p586
ag213
ag211
aS'88627897'
p587
ag415
ag461
asg34
S'10'
p588
sg36
S'Autonomous Agents 2'
p589
sg38
g39
sg40
g146
sg42
(iread_data
Room
p590
(dp591
g34
g97
sg36
g98
sbsbaa(lp592
(ischedule
Activity
p593
(dp594
g8
(lp595
g64
aS'3685034'
p596
ag490
ag83
aS'20239127'
p597
ag235
ag415
ag131
aS'49922855'
p598
aS'87830198'
p599
aS'70844780'
p600
aS'99975346'
p601
ag562
aS'41578612'
p602
ag305
ag304
ag113
ag67
aS'13658563'
p603
ag61
aS'84449005'
p604
ag307
ag12
ag387
ag54
aS'82390428'
p605
ag213
aS'51415617'
p606
aS'20095994'
p607
ag454
ag424
ag30
aS'51052738'
p608
ag236
ag78
aS'32044893'
p609
aS'36213792'
p610
ag294
ag198
aS'54569540'
p611
aS'42406214'
p612
aS'61518436'
p613
aS'27805666'
p614
aS'36785409'
p615
ag111
ag349
aS'70193386'
p616
aS'68286356'
p617
ag260
aS'27370083'
p618
aS'92778619'
p619
asg34
I1000
sg36
S'Reflectie op de digitale cultuur'
p620
sg38
g254
sg40
I0
sg42
(iread_data
Room
p621
(dp622
g34
g45
sg36
g46
sbsba(ischedule
Activity
p623
(dp624
g8
(lp625
g86
ag89
ag77
ag56
ag52
ag241
aS'81022997'
p626
aS'45414528'
p627
ag78
ag88
aS'91196968'
p628
ag79
ag87
ag416
ag80
ag84
ag85
ag81
aS'70878567'
p629
aS'93023961'
p630
ag415
ag90
ag437
ag82
aS'87314964'
p631
aS'17823206'
p632
ag83
asg34
I1000
sg36
g92
sg38
g254
sg40
I0
sg42
(iread_data
Room
p633
(dp634
g34
g149
sg36
g150
sbsba(ischedule
Activity
p635
(dp636
g8
(lp637
g473
aS'49219163'
p638
ag474
ag475
ag58
ag21
ag476
ag141
ag214
ag479
ag129
ag176
ag540
ag217
ag310
aS'3883025'
p639
ag155
asg34
g497
sg36
g481
sg38
g93
sg40
g146
sg42
(iread_data
Room
p640
(dp641
g34
g97
sg36
g98
sbsba(ischedule
Activity
p642
(dp643
g8
(lp644
g260
ag528
ag234
ag104
ag534
ag441
ag535
ag537
ag541
ag545
ag440
ag460
ag547
ag542
ag200
ag81
asg34
S'20'
p645
sg36
g548
sg38
g93
sg40
g41
sg42
(iread_data
Room
p646
(dp647
g34
g343
sg36
g344
sbsba(ischedule
Activity
p648
(dp649
g8
(lp650
g352
aS'15911353'
p651
ag542
aS'8464817'
p652
aS'65852230'
p653
ag53
aS'5595824'
p654
aS'13911001'
p655
ag491
ag282
ag10
aS'54772132'
p656
aS'34110913'
p657
ag543
aS'79167252'
p658
aS'49683101'
p659
aS'12077419'
p660
ag506
aS'48308205'
p661
aS'43689934'
p662
ag408
ag389
aS'94687383'
p663
aS'75759231'
p664
ag62
ag556
asg34
g144
sg36
g145
sg38
g39
sg40
g41
sg42
(iread_data
Room
p665
(dp666
g34
g72
sg36
g73
sbsba(ischedule
Activity
p667
(dp668
g8
(lp669
g373
ag539
ag298
ag601
ag406
aS'35315956'
p670
ag626
ag56
ag360
aS'15249775'
p671
ag185
aS'7106649'
p672
ag12
aS'52304977'
p673
ag569
ag90
ag26
ag165
ag183
ag113
aS'82968410'
p674
aS'72652638'
p675
ag161
ag572
ag573
aS'5739011'
p676
ag570
ag571
ag278
ag274
aS'58736785'
p677
ag227
asg34
I1000
sg36
g575
sg38
g254
sg40
I0
sg42
(iread_data
Room
p678
(dp679
g34
g396
sg36
g397
sbsba(ischedule
Activity
p680
(dp681
g8
(lp682
g310
ag463
aS'17496687'
p683
ag462
aS'92977271'
p684
ag603
ag540
aS'18266644'
p685
ag464
ag461
aS'77636749'
p686
ag180
ag430
ag629
ag407
ag136
ag295
ag495
ag82
ag327
ag460
asg34
I1000
sg36
g466
sg38
g254
sg40
I0
sg42
(iread_data
Room
p687
(dp688
g34
g190
sg36
g191
sbsbaaa(lp689
(lp690
(ischedule
Activity
p691
(dp692
g8
(lp693
g199
ag309
ag529
ag532
ag449
ag225
ag307
ag132
ag297
ag546
ag11
ag292
ag489
ag530
asg34
g645
sg36
g548
sg38
g93
sg40
g94
sg42
g43
sba(ischedule
Activity
p694
(dp695
g8
(lp696
g672
ag297
aS'77264363'
p697
ag140
ag67
aS'93041523'
p698
ag80
ag242
aS'12430748'
p699
aS'14383795'
p700
aS'21192048'
p701
ag686
ag27
ag33
ag415
aS'76487754'
p702
ag540
aS'10149535'
p703
aS'92496780'
p704
ag136
ag230
ag602
ag176
ag407
aS'4697362'
p705
ag615
ag348
ag660
ag559
ag141
aS'70336464'
p706
ag661
ag461
aS'69086548'
p707
ag293
aS'97371272'
p708
ag537
ag125
asg34
I1000
sg36
S'Technology for games'
p709
sg38
g254
sg40
I0
sg42
(iread_data
Room
p710
(dp711
g34
g190
sg36
g191
sbsba(ischedule
Activity
p712
(dp713
g8
(lp714
g196
ag84
ag197
ag112
ag202
ag204
ag160
ag206
ag207
ag209
ag211
ag213
ag216
ag218
ag221
ag223
ag21
ag226
ag50
ag230
ag62
ag110
ag235
ag237
ag241
ag243
ag141
ag246
ag248
ag249
ag118
ag252
ag154
ag26
ag205
ag215
ag169
ag200
ag245
asg34
S'40'
p715
sg36
g253
sg38
g93
sg40
g41
sg42
(iread_data
Room
p716
(dp717
g34
g149
sg36
g150
sbsba(ischedule
Activity
p718
(dp719
g8
(lp720
g303
ag655
ag108
ag26
aS'15051051'
p721
ag136
ag281
ag604
ag67
ag472
ag261
aS'47462856'
p722
ag115
ag442
asg34
g497
sg36
g481
sg38
g93
sg40
g41
sg42
(iread_data
Room
p723
(dp724
g34
g72
sg36
g73
sbsba(ischedule
Activity
p725
(dp726
g8
(lp727
g183
ag116
aS'62872965'
p728
ag90
ag203
aS'19858730'
p729
asg34
g588
sg36
g589
sg38
g39
sg40
g41
sg42
(iread_data
Room
p730
(dp731
g34
g343
sg36
g344
sbsba(ischedule
Activity
p732
(dp733
g8
(lp734
g50
ag67
ag206
ag51
ag269
ag271
ag52
ag66
ag248
ag53
ag170
ag164
ag219
ag81
aS'66120270'
p735
ag54
ag62
ag721
ag55
ag386
ag570
ag56
aS'33930505'
p736
ag64
ag65
ag203
ag154
ag57
ag173
ag130
ag58
aS'20883994'
p737
ag176
ag59
ag290
ag63
ag60
ag142
ag528
ag10
ag629
ag232
ag61
aS'28359697'
p738
ag209
asg34
I1000
sg36
g69
sg38
g254
sg40
I0
sg42
(iread_data
Room
p739
(dp740
g34
g97
sg36
g98
sbsba(ischedule
Activity
p741
(dp742
g8
(lp743
g527
ag196
ag403
ag425
ag533
ag509
ag337
ag373
ag540
ag544
ag287
ag348
ag53
ag525
ag278
ag543
asg34
g645
sg36
g548
sg38
g93
sg40
S'4'
p744
sg42
(iread_data
Room
p745
(dp746
g34
g396
sg36
g397
sbsbaa(lp747
(ischedule
Activity
p748
(dp749
g8
(lp750
g303
ag472
ag307
ag655
ag473
ag487
ag108
ag722
ag387
ag494
ag638
ag488
ag26
ag474
ag447
ag721
ag475
ag489
ag136
ag58
ag490
ag155
ag21
ag288
ag478
ag261
ag310
ag217
ag115
ag171
ag281
ag476
ag477
ag604
ag141
ag300
ag223
ag214
ag442
ag639
ag479
ag491
ag67
ag129
ag492
ag495
ag176
ag283
ag496
ag540
ag51
ag159
ag293
ag493
asg34
I1000
sg36
g481
sg38
g254
sg40
I0
sg42
(iread_data
Room
p751
(dp752
g34
g97
sg36
g98
sbsba(ischedule
Activity
p753
(dp754
g8
(lp755
g252
aS'81218347'
p756
aS'58866007'
p757
ag332
ag529
aS'80998260'
p758
aS'79937969'
p759
ag628
aS'90743504'
p760
ag207
aS'94955328'
p761
ag728
ag391
ag525
ag79
ag183
aS'66570705'
p762
ag220
ag261
aS'96118484'
p763
ag270
ag542
ag173
aS'21311067'
p764
ag350
ag661
ag585
ag202
ag114
ag274
ag703
ag104
ag66
ag446
ag215
ag473
ag450
ag221
ag302
ag538
ag444
ag378
ag389
aS'16011419'
p765
ag602
aS'26172512'
p766
ag275
aS'32595335'
p767
ag285
ag269
aS'54074680'
p768
aS'34588570'
p769
ag349
ag17
asg34
I1000
sg36
S'Lineaire Algebra'
p770
sg38
g254
sg40
I0
sg42
(iread_data
Room
p771
(dp772
g34
g72
sg36
g73
sbsba(ischedule
Activity
p773
(dp774
g8
(lp775
g213
ag112
ag261
ag183
ag585
ag52
ag587
ag586
ag415
ag90
ag461
ag427
ag245
ag728
ag116
ag211
ag282
ag203
ag252
aS'34806836'
p776
aS'61611295'
p777
ag729
asg34
I1000
sg36
g589
sg38
g254
sg40
I0
sg42
(iread_data
Room
p778
(dp779
g34
g149
sg36
g150
sbsba(ischedule
Activity
p780
(dp781
g8
g523
sg34
I1000
sg36
g548
sg38
g254
sg40
I0
sg42
(iread_data
Room
p782
(dp783
g34
g190
sg36
g191
sbsba(ischedule
Activity
p784
(dp785
g8
(lp786
g260
ag264
ag266
ag269
ag273
ag170
ag276
ag123
ag164
ag280
ag282
ag284
ag286
ag288
ag291
ag297
ag245
ag300
ag301
ag303
ag305
ag307
ag143
ag135
ag174
ag312
ag51
ag111
ag277
ag290
ag272
asg34
S'40'
p787
sg36
g315
sg38
g39
sg40
g41
sg42
(iread_data
Room
p788
(dp789
g34
g45
sg36
g46
sbsba(ischedule
Activity
p790
(dp791
g8
(lp792
g524
ag526
ag103
ag283
ag531
ag261
ag269
ag32
ag106
ag538
ag488
ag84
ag247
ag536
ag539
asg34
g645
sg36
g548
sg38
g93
sg40
g146
sg42
(iread_data
Room
p793
(dp794
g34
g396
sg36
g397
sbsbaa(lp795
(ischedule
Activity
p796
(dp797
g8
(lp798
g349
ag524
ag271
ag663
ag322
aS'7386961'
p799
ag128
ag81
ag404
ag124
ag586
aS'20830477'
p800
ag350
aS'51791169'
p801
ag658
ag425
ag177
ag158
ag270
ag64
aS'88263855'
p802
aS'73893840'
p803
ag202
asg34
g510
sg36
g511
sg38
g93
sg40
g744
sg42
(iread_data
Room
p804
(dp805
g34
g72
sg36
g73
sbsba(ischedule
Activity
p806
(dp807
g8
(lp808
g626
ag629
ag437
ag415
ag631
ag416
ag241
asg34
g91
sg36
g92
sg38
g93
sg40
g41
sg42
(iread_data
Room
p809
(dp810
g34
g149
sg36
g150
sbsba(ischedule
Activity
p811
(dp812
g8
(lp813
g170
ag81
ag386
ag203
ag173
ag737
ag290
ag142
ag629
ag738
ag154
ag248
ag570
asg34
g68
sg36
g69
sg38
g39
sg40
g146
sg42
(iread_data
Room
p814
(dp815
g34
g190
sg36
g191
sbsba(ischedule
Activity
p816
(dp817
g8
(lp818
g321
ag543
ag131
ag217
ag324
ag22
ag604
ag216
ag361
ag174
asg34
S'15'
p819
sg36
S'Project Genetic Algorithms'
p820
sg38
g93
sg40
g94
sg42
(iread_data
Room
p821
(dp822
g34
g45
sg36
g46
sbsba(ischedule
Activity
p823
(dp824
g8
g734
sg34
I1000
sg36
g69
sg38
g254
sg40
I0
sg42
(iread_data
Room
p825
(dp826
g34
g343
sg36
g344
sbsba(ischedule
Activity
p827
(dp828
g8
(lp829
g261
ag52
ag427
ag777
ag252
ag282
ag245
ag776
asg34
g588
sg36
g589
sg38
g39
sg40
g94
sg42
(iread_data
Room
p830
(dp831
g34
g396
sg36
g397
sbsba(ischedule
Activity
p832
(dp833
g8
(lp834
g597
ag131
ag600
ag602
ag61
ag12
ag605
ag607
ag78
ag615
ag616
ag618
ag305
asg34
S'20'
p835
sg36
g620
sg38
g39
sg40
g146
sg42
(iread_data
Room
p836
(dp837
g34
g97
sg36
g98
sbsbaa(lp838
(ischedule
Activity
p839
(dp840
g8
(lp841
g373
ag287
ag374
ag248
ag13
ag14
ag15
ag378
ag264
ag19
ag20
ag21
ag22
ag24
ag375
ag27
ag25
ag323
ag30
ag33
ag16
ag376
asg34
S'20'
p842
sg36
g37
sg38
g93
sg40
g41
sg42
g751
sba(ischedule
Activity
p843
(dp844
g8
g523
sg34
I1000
sg36
g548
sg38
g254
sg40
I0
sg42
(iread_data
Room
p845
(dp846
g34
g72
sg36
g73
sbsba(ischedule
Activity
p847
(dp848
g8
(lp849
g423
ag353
ag424
ag160
ag244
ag281
aS'23652927'
p850
ag292
ag426
ag427
ag428
ag284
ag84
ag360
aS'8522855'
p851
ag429
ag212
ag23
ag337
ag273
ag240
ag264
ag114
ag214
ag111
ag505
asg34
S'25'
p852
sg36
g432
sg38
g93
sg40
g41
sg42
(iread_data
Room
p853
(dp854
g34
g149
sg36
g150
sbsba(ischedule
Activity
p855
(dp856
g8
(lp857
g213
aS'18477924'
p858
ag178
ag270
ag55
aS'62613937'
p859
ag446
aS'73350019'
p860
ag159
ag615
ag299
ag602
ag183
aS'97019450'
p861
ag276
ag176
ag761
ag303
aS'23798155'
p862
aS'80188025'
p863
ag571
ag79
aS'34900967'
p864
ag262
ag207
ag226
aS'97838175'
p865
ag599
aS'83443653'
p866
ag309
ag268
ag172
ag236
ag250
ag685
aS'72586808'
p867
aS'58480929'
p868
ag278
ag63
ag616
ag12
ag562
ag163
aS'82854435'
p869
aS'78822885'
p870
aS'88737765'
p871
ag389
aS'14637758'
p872
ag654
asg34
I1000
sg36
S'Analysemethoden en -technieken'
p873
sg38
g254
sg40
I0
sg42
(iread_data
Room
p874
(dp875
g34
g343
sg36
g344
sbsba(ischedule
Activity
p876
(dp877
g8
(lp878
g86
ag56
ag87
ag84
ag631
ag241
ag626
ag85
asg34
g417
sg36
g92
sg38
g39
sg40
g41
sg42
(iread_data
Room
p879
(dp880
g34
g45
sg36
g46
sbsbaa(lp881
(ischedule
Activity
p882
(dp883
g8
(lp884
g103
ag104
ag105
ag389
ag62
ag107
ag108
ag109
ag111
ag112
ag113
ag114
ag115
ag116
ag117
ag118
ag23
ag136
ag120
ag122
ag124
ag125
ag664
ag126
ag127
ag128
ag137
ag138
ag130
ag651
ag10
ag134
ag657
ag143
asg34
S'40'
p885
sg36
g145
sg38
g93
sg40
g146
sg42
g710
sba(ischedule
Activity
p886
(dp887
g8
(lp888
g871
ag303
ag334
ag265
ag200
ag599
ag130
ag571
ag851
ag185
aS'14398123'
p889
aS'55480737'
p890
ag161
ag602
aS'75680261'
p891
ag328
asg34
g819
sg36
g820
sg38
g93
sg40
g41
sg42
g804
sba(ischedule
Activity
p892
(dp893
g8
(lp894
g57
ag261
ag263
ag265
ag267
ag268
ag270
ag274
ag275
ag104
ag247
ag279
ag281
ag283
ag285
ag287
ag158
ag292
ag294
ag296
ag298
ag299
ag181
ag302
ag306
ag308
ag90
ag309
ag311
ag313
ag314
ag289
ag293
ag116
ag310
ag27
ag262
ag278
ag295
ag271
ag304
asg34
g787
sg36
g315
sg38
g39
sg40
g146
sg42
(iread_data
Room
p895
(dp896
g34
g97
sg36
g98
sbsba(ischedule
Activity
p897
(dp898
g8
(lp899
g461
ag282
ag587
ag112
asg34
S'10'
p900
sg36
g589
sg38
g93
sg40
g146
sg42
(iread_data
Room
p901
(dp902
g34
g149
sg36
g150
sbsba(ischedule
Activity
p903
(dp904
g8
(lp905
S'59289233'
p906
ag703
ag129
ag757
ag123
ag161
ag326
ag292
aS'72683344'
p907
ag464
ag547
ag862
aS'20331158'
p908
ag11
ag27
aS'28618400'
p909
ag659
aS'13798030'
p910
ag21
ag249
ag204
asg34
I1000
sg36
S'Architectuur en computerorganisatie'
p911
sg38
g254
sg40
I0
sg42
(iread_data
Room
p912
(dp913
g34
g396
sg36
g397
sbsba(ischedule
Activity
p914
(dp915
g8
(lp916
g206
ag271
ag164
ag735
ag721
ag130
ag176
ag528
ag232
ag209
ag736
ag269
ag219
asg34
g68
sg36
g69
sg38
g39
sg40
g94
sg42
(iread_data
Room
p917
(dp918
g34
g343
sg36
g344
sbsba(ischedule
Activity
p919
(dp920
g8
(lp921
g659
ag105
ag216
ag121
ag557
ag282
ag454
aS'33252501'
p922
aS'67625383'
p923
ag526
ag134
ag596
ag862
ag227
ag241
aS'56988998'
p924
ag569
ag505
ag475
ag613
aS'90067329'
p925
ag721
asg34
I1000
sg36
S'Machine Learning'
p926
sg38
g254
sg40
I0
sg42
(iread_data
Room
p927
(dp928
g34
g45
sg36
g46
sbsbaaa(lp929
(lp930
(ischedule
Activity
p931
(dp932
g8
(lp933
g23
aS'37419523'
p934
ag50
ag124
ag242
aS'6939933'
p935
aS'21070547'
p936
ag609
ag596
asg34
S'15'
p937
sg36
S'Project Numerical Recipes'
p938
sg38
g93
sg40
g94
sg42
g43
sba(ischedule
Activity
p939
(dp940
g8
(lp941
g603
ag136
ag495
ag430
ag310
ag82
ag684
ag327
ag686
asg34
S'15'
p942
sg36
g466
sg38
g93
sg40
g146
sg42
(iread_data
Room
p943
(dp944
g34
g343
sg36
g344
sbsba(ischedule
Activity
p945
(dp946
g8
(lp947
S'90103047'
p948
ag491
ag275
ag612
ag699
aS'40911986'
p949
aS'34691309'
p950
ag909
ag260
ag661
ag135
aS'19662602'
p951
aS'81116418'
p952
aS'86807027'
p953
ag570
ag62
asg34
g937
sg36
g938
sg38
g93
sg40
g146
sg42
(iread_data
Room
p954
(dp955
g34
g149
sg36
g150
sbsba(ischedule
Activity
p956
(dp957
g8
(lp958
g137
ag102
ag134
ag103
ag352
ag104
ag651
ag105
ag542
ag389
ag141
ag62
ag652
ag106
ag653
ag107
ag138
ag108
ag53
ag109
ag135
ag110
ag129
ag111
ag140
ag112
ag654
ag113
ag655
ag114
ag131
ag115
ag491
ag556
ag282
ag116
ag10
ag117
ag656
ag118
ag657
ag23
ag132
ag136
ag543
ag119
ag133
ag663
ag143
ag120
ag658
ag121
ag659
ag122
ag660
ag123
ag506
ag124
ag139
ag125
ag142
ag664
ag130
ag126
ag661
ag127
ag662
ag128
ag408
asg34
I1000
sg36
g145
sg38
g254
sg40
I0
sg42
(iread_data
Room
p959
(dp960
g34
g396
sg36
g397
sbsba(ischedule
Activity
p961
(dp962
g8
g905
sg34
I1000
sg36
g911
sg38
g254
sg40
I0
sg42
(iread_data
Room
p963
(dp964
g34
g190
sg36
g191
sbsba(ischedule
Activity
p965
(dp966
g8
(lp967
g627
ag628
ag630
ag632
ag56
asg34
g91
sg36
g92
sg38
g93
sg40
g146
sg42
(iread_data
Room
p968
(dp969
g34
g72
sg36
g73
sbsba(ischedule
Activity
p970
(dp971
g8
(lp972
g158
ag859
ag600
ag167
ag290
ag15
asg34
S'10'
p973
sg36
S'Advanced Heuristics'
p974
sg38
g93
sg40
g41
sg42
(iread_data
Room
p975
(dp976
g34
g97
sg36
g98
sbsbaa(lp977
(ischedule
Activity
p978
(dp979
g8
(lp980
g426
aS'36903574'
p981
ag373
ag273
ag111
ag656
ag430
aS'88519892'
p982
ag445
ag105
ag376
ag387
ag391
ag652
aS'28943658'
p983
ag861
asg34
g510
sg36
g511
sg38
g93
sg40
g94
sg42
(iread_data
Room
p984
(dp985
g34
g149
sg36
g150
sbsba(ischedule
Activity
p986
(dp987
g8
(lp988
g372
ag204
ag31
ag272
ag29
ag32
ag377
ag167
ag26
ag379
ag28
ag12
ag10
ag18
ag17
ag11
ag23
asg34
g842
sg36
g37
sg38
g93
sg40
g146
sg42
(iread_data
Room
p989
(dp990
g34
g97
sg36
g98
sbsba(ischedule
Activity
p991
(dp992
g8
g775
sg34
I1000
sg36
g589
sg38
g254
sg40
I0
sg42
(iread_data
Room
p993
(dp994
g34
g190
sg36
g191
sbsba(ischedule
Activity
p995
(dp996
g8
(lp997
S'90296821'
p998
ag25
aS'10702778'
p999
ag401
aS'39905995'
p1000
aS'58469172'
p1001
ag282
ag684
ag627
ag569
ag155
ag406
aS'64053722'
p1002
ag201
ag761
ag628
ag305
ag864
ag28
ag475
ag216
asg34
g510
sg36
g511
sg38
g93
sg40
S'6'
p1003
sg42
(iread_data
Room
p1004
(dp1005
g34
g343
sg36
g344
sbsba(ischedule
Activity
p1006
(dp1007
g8
(lp1008
g89
ag52
ag627
ag628
ag630
ag437
ag632
ag90
ag88
ag83
ag82
ag79
ag80
ag77
ag81
ag629
asg34
g417
sg36
g92
sg38
g39
sg40
g146
sg42
(iread_data
Room
p1009
(dp1010
g34
g45
sg36
g46
sbsba(ischedule
Activity
p1011
(dp1012
g8
(lp1013
g77
ag159
ag375
ag213
ag293
ag170
ag573
ag530
ag756
ag284
ag80
ag677
aS'53775014'
p1014
aS'4353500'
p1015
ag199
ag206
ag332
asg34
S'25'
p1016
sg36
S'Heuristieken 1'
p1017
sg38
g39
sg40
g41
sg42
(iread_data
Room
p1018
(dp1019
g34
g72
sg36
g73
sbsba(ischedule
Activity
p1020
(dp1021
g8
(lp1022
g539
ag601
ag670
ag56
ag671
ag673
ag165
ag675
ag676
ag227
ag12
ag360
ag406
ag677
ag274
ag278
ag373
ag626
ag26
ag674
ag672
asg34
g574
sg36
g575
sg38
g39
sg40
g146
sg42
(iread_data
Room
p1023
(dp1024
g34
g396
sg36
g397
sbsbaa(lp1025
(ischedule
Activity
p1026
(dp1027
g8
(lp1028
g50
ag51
ag52
ag53
ag219
ag54
ag55
ag56
ag59
ag60
ag10
ag737
asg34
S'20'
p1029
sg36
g69
sg38
g93
sg40
g41
sg42
(iread_data
Room
p1030
(dp1031
g34
g45
sg36
g46
sbsba(ischedule
Activity
p1032
(dp1033
g8
(lp1034
S'97417002'
p1035
ag800
ag77
ag461
ag508
ag271
ag488
ag908
ag159
ag861
ag981
ag531
ag415
ag1015
ag375
ag163
aS'76393508'
p1036
ag1014
ag213
aS'14941752'
p1037
ag603
ag677
ag293
ag206
ag684
ag332
ag170
ag326
ag573
ag102
ag530
ag953
ag540
aS'87210640'
p1038
ag866
ag729
ag173
ag221
ag756
ag199
ag284
aS'45660925'
p1039
ag80
aS'59075181'
p1040
asg34
I1000
sg36
g1017
sg38
g254
sg40
I0
sg42
(iread_data
Room
p1041
(dp1042
g34
g72
sg36
g73
sbsba(ischedule
Activity
p1043
(dp1044
g8
(lp1045
g525
ag619
ag237
ag104
ag632
ag671
ag169
ag106
aS'7492204'
p1046
ag953
ag288
ag274
ag365
asg34
g510
sg36
g511
sg38
g93
sg40
S'5'
p1047
sg42
(iread_data
Room
p1048
(dp1049
g34
g97
sg36
g98
sbsba(ischedule
Activity
p1050
(dp1051
g8
(lp1052
g449
ag106
ag177
ag239
ag981
ag1040
ag247
ag140
ag107
ag306
ag600
ag241
ag909
asg34
g392
sg36
g393
sg38
g93
sg40
g744
sg42
(iread_data
Room
p1053
(dp1054
g34
g343
sg36
g344
sbsba(ischedule
Activity
p1055
(dp1056
g8
(lp1057
g264
ag338
ag981
ag214
aS'51509565'
p1058
ag337
ag311
ag505
ag235
ag114
ag561
ag362
ag273
ag84
ag660
ag227
ag353
ag281
ag850
ag360
ag851
ag111
ag292
asg34
g431
sg36
g432
sg38
g39
sg40
g146
sg42
(iread_data
Room
p1059
(dp1060
g34
g149
sg36
g150
sbsba(ischedule
Activity
p1061
(dp1062
g8
(lp1063
g303
ag655
ag108
ag494
ag26
ag721
ag136
ag217
ag604
ag223
ag639
ag495
ag496
ag159
ag722
ag58
ag447
ag115
ag281
ag493
ag638
asg34
g480
sg36
g481
sg38
g39
sg40
g41
sg42
(iread_data
Room
p1064
(dp1065
g34
g396
sg36
g397
sbsbaa(lp1066
(ischedule
Activity
p1067
(dp1068
g8
g734
sg34
I1000
sg36
g69
sg38
g254
sg40
I0
sg42
(iread_data
Room
p1069
(dp1070
g34
g149
sg36
g150
sbsba(ischedule
Activity
p1071
(dp1072
g8
(lp1073
g80
ag132
ag198
ag201
ag203
ag163
ag208
ag210
ag212
ag214
ag217
ag219
ag220
ag222
ag224
ag225
ag227
ag228
ag229
ag232
ag233
ag234
ag236
ag238
ag240
ag242
ag244
ag247
ag250
ag251
ag231
ag131
ag199
ag157
ag79
ag239
asg34
g715
sg36
g253
sg38
g93
sg40
g146
sg42
(iread_data
Room
p1074
(dp1075
g34
g45
sg36
g46
sbsba(ischedule
Activity
p1076
(dp1077
g8
(lp1078
g304
ag737
ag11
ag348
ag159
ag572
aS'39429093'
p1079
ag907
ag424
ag109
ag909
aS'40633534'
p1080
ag179
ag953
asg34
g973
sg36
g974
sg38
g93
sg40
g146
sg42
(iread_data
Room
p1081
(dp1082
g34
g72
sg36
g73
sbsba(ischedule
Activity
p1083
(dp1084
g8
(lp1085
g372
ag204
ag375
ag272
ag376
ag377
ag167
ag323
ag379
ag373
ag378
ag374
ag264
ag248
ag287
asg34
g35
sg36
g37
sg38
g39
sg40
g146
sg42
(iread_data
Room
p1086
(dp1087
g34
g190
sg36
g191
sbsba(ischedule
Activity
p1088
(dp1089
g8
g682
sg34
I1000
sg36
g466
sg38
g254
sg40
I0
sg42
(iread_data
Room
p1090
(dp1091
g34
g343
sg36
g344
sbsba(ischedule
Activity
p1092
(dp1093
g8
(lp1094
g260
ag525
ag528
ag530
ag234
ag104
ag534
ag441
ag535
ag536
ag541
ag545
ag440
ag547
ag527
ag309
asg34
S'20'
p1095
sg36
g548
sg38
g39
sg40
g41
sg42
(iread_data
Room
p1096
(dp1097
g34
g396
sg36
g397
sbsba(ischedule
Activity
p1098
(dp1099
g8
g595
sg34
I1000
sg36
g620
sg38
g254
sg40
I0
sg42
(iread_data
Room
p1100
(dp1101
g34
g97
sg36
g98
sbsbaa(lp1102
(ischedule
Activity
p1103
(dp1104
g8
(lp1105
g199
ag278
ag449
ag225
ag307
ag132
ag539
ag543
ag546
ag11
ag489
ag261
ag537
ag32
ag544
asg34
g1095
sg36
g548
sg38
g39
sg40
g94
sg42
(iread_data
Room
p1106
(dp1107
g34
g343
sg36
g344
sbsba(ischedule
Activity
p1108
(dp1109
g8
g755
sg34
I1000
sg36
g770
sg38
g254
sg40
I0
sg42
(iread_data
Room
p1110
(dp1111
g34
g396
sg36
g397
sbsba(ischedule
Activity
p1112
(dp1113
g8
(lp1114
g800
ag461
ag271
ag908
ag531
ag163
ag1037
ag326
ag102
ag953
ag1038
ag729
ag221
ag1039
ag1040
ag603
ag981
ag684
ag1035
ag508
ag173
ag866
ag1036
ag861
ag415
ag540
ag488
asg34
g1016
sg36
g1017
sg38
g39
sg40
g146
sg42
(iread_data
Room
p1115
(dp1116
g34
g190
sg36
g191
sbsba(ischedule
Activity
p1117
(dp1118
g8
(lp1119
g80
ag132
ag200
ag201
ag203
ag205
ag163
ag169
ag212
ag214
ag215
ag217
ag219
ag220
ag222
ag224
ag225
ag227
ag228
ag154
ag232
ag234
ag236
ag238
ag240
ag242
ag244
ag247
ag26
ag250
ag251
ag207
ag197
ag196
ag208
ag233
asg34
g518
sg36
g253
sg38
g39
sg40
g146
sg42
(iread_data
Room
p1120
(dp1121
g34
g72
sg36
g73
sbsba(ischedule
Activity
p1122
(dp1123
g8
(lp1124
g64
ag83
ag415
ag599
ag562
ag304
ag603
ag307
ag54
ag606
ag424
ag236
ag610
ag611
ag614
ag349
ag260
ag609
ag213
ag608
ag612
ag67
ag294
asg34
g835
sg36
g620
sg38
g39
sg40
g41
sg42
(iread_data
Room
p1125
(dp1126
g34
g149
sg36
g150
sbsba(ischedule
Activity
p1127
(dp1128
g8
(lp1129
S'47260040'
p1130
ag655
aS'44151631'
p1131
ag209
ag700
asg34
g339
sg36
g340
sg38
g93
sg40
g146
sg42
(iread_data
Room
p1132
(dp1133
g34
g97
sg36
g98
sbsba(ischedule
Activity
p1134
(dp1135
g8
(lp1136
g490
ag235
ag598
ag601
ag604
ag387
ag454
ag198
ag613
ag111
ag617
ag619
ag596
ag30
ag113
asg34
g835
sg36
g620
sg38
g39
sg40
g94
sg42
(iread_data
Room
p1137
(dp1138
g34
g45
sg36
g46
sbsbaaa(lp1139
(lp1140
(ischedule
Activity
p1141
(dp1142
g8
g958
sg34
I1000
sg36
g145
sg38
g254
sg40
I0
sg42
(iread_data
Room
p1143
(dp1144
g34
g72
sg36
g73
sbsba(ischedule
Activity
p1145
(dp1146
g8
(lp1147
g109
ag304
ag909
ag737
ag859
ag907
ag953
ag11
ag600
ag348
ag158
ag159
ag290
ag15
ag1080
ag572
ag424
ag179
ag167
ag1079
asg34
I1000
sg36
g974
sg38
g254
sg40
I0
sg42
(iread_data
Room
p1148
(dp1149
g34
g45
sg36
g46
sbsba(ischedule
Activity
p1150
(dp1151
g8
g625
sg34
I1000
sg36
g92
sg38
g254
sg40
I0
sg42
(iread_data
Room
p1152
(dp1153
g34
g190
sg36
g191
sbsbaa(lp1154
(ischedule
Activity
p1155
(dp1156
g8
(lp1157
g981
ag737
ag596
ag861
ag379
ag210
ag233
ag310
ag216
ag851
ag613
aS'32705005'
p1158
ag686
aS'82688900'
p1159
ag862
ag138
ag322
ag268
ag447
aS'39919665'
p1160
aS'72547110'
p1161
ag105
ag444
ag526
ag53
ag561
ag597
aS'51186803'
p1162
ag229
aS'63408522'
p1163
ag707
ag1040
ag1046
ag207
ag173
aS'10872825'
p1164
ag271
ag309
ag685
aS'63955238'
p1165
ag908
ag231
ag113
ag628
ag722
ag436
ag156
ag924
ag166
ag632
ag232
aS'79858178'
p1166
aS'44940353'
p1167
aS'39659121'
p1168
aS'79366078'
p1169
aS'47605891'
p1170
aS'65003379'
p1171
ag177
ag560
aS'37498675'
p1172
ag112
ag761
ag361
ag120
ag202
ag708
ag545
ag611
ag1001
ag18
ag244
ag164
ag756
ag889
ag389
aS'91139627'
p1173
ag504
ag406
ag391
ag424
ag570
ag300
aS'38329455'
p1174
ag242
asg34
I1000
sg36
S'Kansrekenen 2'
p1175
sg38
g254
sg40
I0
sg42
(iread_data
Room
p1176
(dp1177
g34
g149
sg36
g150
sbsba(ischedule
Activity
p1178
(dp1179
g8
(lp1180
g180
ag629
ag136
ag495
ag327
ag540
ag407
ag683
ag310
ag295
ag603
ag686
ag684
ag430
ag685
ag82
asg34
g465
sg36
g466
sg38
g39
sg40
g146
sg42
(iread_data
Room
p1181
(dp1182
g34
g343
sg36
g344
sbsba(ischedule
Activity
p1183
(dp1184
g8
(lp1185
g524
ag526
ag103
ag531
ag53
ag269
ag106
ag538
ag542
ag488
ag84
ag247
ag403
ag532
ag283
asg34
g1095
sg36
g548
sg38
g39
sg40
g146
sg42
(iread_data
Room
p1186
(dp1187
g34
g97
sg36
g98
sbsba(ischedule
Activity
p1188
(dp1189
g8
(lp1190
g338
ag981
ag1058
ag233
ag227
ag311
ag235
ag561
ag362
ag59
ag660
ag81
ag378
ag425
ag90
ag401
ag430
asg34
g852
sg36
g432
sg38
g93
sg40
g146
sg42
(iread_data
Room
p1191
(dp1192
g34
g396
sg36
g397
sbsba(ischedule
Activity
p1193
(dp1194
g8
(lp1195
g269
ag66
ag62
ag173
ag142
ag629
ag209
asg34
g1029
sg36
g69
sg38
g93
sg40
g146
sg42
(iread_data
Room
p1196
(dp1197
g34
g72
sg36
g73
sbsba(ischedule
Activity
p1198
(dp1199
g8
g921
sg34
I1000
sg36
g926
sg38
g254
sg40
I0
sg42
(iread_data
Room
p1200
(dp1201
g34
g190
sg36
g191
sbsbaa(lp1202
(ischedule
Activity
p1203
(dp1204
g8
g696
sg34
I1000
sg36
g709
sg38
g254
sg40
I0
sg42
g43
sba(ischedule
Activity
p1205
(dp1206
g8
(lp1207
g127
ag266
ag88
ag528
ag106
ag132
ag444
ag231
ag385
ag107
ag542
ag1037
aS'63939720'
p1208
ag355
ag626
aS'32183908'
p1209
ag63
ag211
ag365
asg34
g937
sg36
g938
sg38
g93
sg40
g41
sg42
g751
sba(ischedule
Activity
p1210
(dp1211
g8
g1157
sg34
I1000
sg36
g1175
sg38
g254
sg40
I0
sg42
(iread_data
Room
p1212
(dp1213
g34
g149
sg36
g150
sbsba(ischedule
Activity
p1214
(dp1215
g8
(lp1216
S'16912993'
p1217
ag114
ag735
aS'123355'
p1218
ag656
ag1015
ag89
aS'5590289'
p1219
ag179
ag528
ag284
ag685
ag889
ag359
ag851
ag218
ag599
ag240
aS'59887191'
p1220
ag402
ag626
asg34
g392
sg36
g393
sg38
g93
sg40
g94
sg42
(iread_data
Room
p1221
(dp1222
g34
g396
sg36
g397
sbsba(ischedule
Activity
p1223
(dp1224
g8
(lp1225
g867
ag639
ag286
ag30
ag56
aS'19058315'
p1226
aS'12170832'
p1227
ag530
ag571
ag503
ag292
ag229
ag276
ag461
ag441
aS'64246605'
p1228
ag85
aS'25557516'
p1229
ag439
ag736
asg34
g392
sg36
g393
sg38
g93
sg40
g41
sg42
(iread_data
Room
p1230
(dp1231
g34
g190
sg36
g191
sbsbaa(lp1232
(ischedule
Activity
p1233
(dp1234
g8
g347
sg34
I1000
sg36
g366
sg38
g254
sg40
I0
sg42
(iread_data
Room
p1235
(dp1236
g34
g396
sg36
g397
sbsba(ischedule
Activity
p1237
(dp1238
g8
(lp1239
g464
ag295
ag461
ag463
ag540
ag462
ag685
ag180
ag629
ag407
ag683
ag460
asg34
g942
sg36
g466
sg38
g93
sg40
g41
sg42
g43
sba(ischedule
Activity
p1240
(dp1241
g8
(lp1242
g213
ag245
ag211
ag729
ag183
ag728
ag586
ag585
ag252
ag203
ag776
asg34
g900
sg36
g589
sg38
g93
sg40
g41
sg42
(iread_data
Room
p1243
(dp1244
g34
g72
sg36
g73
sbsba(ischedule
Activity
p1245
(dp1246
g8
(lp1247
g292
ag196
ag425
ag533
ag509
ag337
ag373
ag200
ag540
ag81
ag287
ag348
ag297
ag460
ag529
asg34
g1095
sg36
g548
sg38
g39
sg40
g744
sg42
(iread_data
Room
p1248
(dp1249
g34
g97
sg36
g98
sbsba(ischedule
Activity
p1250
(dp1251
g8
(lp1252
g352
ag542
ag141
ag652
ag653
ag53
ag135
ag129
ag140
ag654
ag655
ag131
ag491
ag656
ag132
ag543
ag133
ag658
ag659
ag660
ag506
ag139
ag142
ag661
ag662
ag408
ag106
ag110
ag121
ag556
ag663
ag102
ag123
ag282
ag119
asg34
g885
sg36
g145
sg38
g93
sg40
g41
sg42
(iread_data
Room
p1253
(dp1254
g34
g149
sg36
g150
sbsba(ischedule
Activity
p1255
(dp1256
g8
(lp1257
g487
ag387
ag488
ag489
ag490
ag288
ag310
ag171
ag300
ag442
ag491
ag492
ag283
ag51
ag155
ag540
asg34
g480
sg36
g481
sg38
g39
sg40
g94
sg42
(iread_data
Room
p1258
(dp1259
g34
g190
sg36
g191
sbsba(ischedule
Activity
p1260
(dp1261
g8
(lp1262
g261
ag52
ag415
ag427
ag116
ag777
ag90
asg34
g900
sg36
g589
sg38
g93
sg40
g94
sg42
(iread_data
Room
p1263
(dp1264
g34
g343
sg36
g344
sbsbaa(lp1265
(ischedule
Activity
p1266
(dp1267
g8
(lp1268
g697
ag67
ag701
ag27
ag415
ag540
ag704
ag176
ag705
ag348
ag461
ag293
ag80
ag703
ag686
ag700
ag602
ag698
ag407
ag615
asg34
S'20'
p1269
sg36
g709
sg38
g39
sg40
g41
sg42
g1235
sba(ischedule
Activity
p1270
(dp1271
g8
(lp1272
S'93361408'
p1273
ag356
ag223
ag425
ag390
aS'19717077'
p1274
ag658
aS'14179347'
p1275
ag285
aS'79888156'
p1276
aS'58253841'
p1277
ag935
ag1001
ag1158
aS'59220392'
p1278
ag401
aS'23628642'
p1279
ag863
ag58
ag262
aS'75623387'
p1280
ag32
ag289
ag228
ag142
ag427
ag105
aS'31306819'
p1281
ag703
ag953
ag18
ag505
aS'56348773'
p1282
aS'53139134'
p1283
ag205
ag314
aS'75446434'
p1284
aS'34173695'
p1285
ag539
asg34
g186
sg36
g187
sg38
g39
sg40
g94
sg42
(iread_data
Room
p1286
(dp1287
g34
g45
sg36
g46
sbsba(ischedule
Activity
p1288
(dp1289
g8
(lp1290
g352
ag119
ag308
ag1080
ag1277
ag405
ag505
ag252
ag546
ag1275
asg34
g819
sg36
g820
sg38
g93
sg40
g146
sg42
(iread_data
Room
p1291
(dp1292
g34
g343
sg36
g344
sbsba(ischedule
Activity
p1293
(dp1294
g8
(lp1295
g206
ag271
ag248
ag164
ag735
ag721
ag570
ag64
ag154
ag130
ag176
ag63
ag528
ag232
ag290
ag65
ag81
ag58
ag67
ag736
ag386
ag57
ag203
ag170
ag61
ag738
asg34
g1029
sg36
g69
sg38
g93
sg40
g94
sg42
(iread_data
Room
p1296
(dp1297
g34
g190
sg36
g191
sbsba(ischedule
Activity
p1298
(dp1299
g8
(lp1300
g423
ag264
ag353
ag338
ag424
ag981
ag160
ag111
ag425
ag214
ag430
ag1058
ag244
ag212
ag81
ag337
ag90
ag233
ag281
ag227
ag850
ag311
ag378
ag505
ag292
ag235
ag426
ag114
ag427
ag23
ag428
ag561
ag284
ag362
ag84
ag273
ag401
ag240
ag360
ag59
ag851
ag660
ag429
asg34
I1000
sg36
g432
sg38
g254
sg40
I0
sg42
(iread_data
Room
p1301
(dp1302
g34
g72
sg36
g73
sbsba(ischedule
Activity
p1303
(dp1304
g8
(lp1305
g297
ag140
ag242
ag33
ag702
ag136
ag660
ag141
ag707
ag708
ag125
ag537
ag699
ag559
ag230
ag672
ag706
ag661
asg34
g1269
sg36
g709
sg38
g39
sg40
g146
sg42
(iread_data
Room
p1306
(dp1307
g34
g149
sg36
g150
sbsbaaa(lp1308
(lp1309
a(lp1310
(ischedule
Activity
p1311
(dp1312
g8
(lp1313
g154
ag184
ag1273
ag155
ag436
ag356
ag1283
ag437
ag223
ag156
ag61
ag425
ag157
ag199
ag390
ag158
ag438
ag1274
ag159
ag439
ag658
ag160
ag440
ag1275
ag161
ag441
ag285
ag162
ag363
ag183
ag1284
ag442
ag1276
ag163
ag443
ag1277
ag164
ag302
ag935
ag165
ag444
ag1001
ag539
ag323
ag1158
ag166
ag445
ag1278
ag167
ag406
ag401
ag168
ag446
ag1279
ag169
ag447
ag863
ag170
ag448
ag58
ag171
ag266
ag262
ag172
ag449
ag1280
ag173
ag450
ag32
ag60
ag1282
ag289
ag174
ag1285
ag228
ag175
ag129
ag142
ag176
ag451
ag427
ag205
ag314
ag105
ag138
ag452
ag1281
ag177
ag453
ag703
ag178
ag66
ag953
ag179
ag185
ag454
ag180
ag352
ag126
ag181
ag226
ag18
ag135
ag281
ag505
ag182
asg34
I1000
sg36
g187
sg38
g254
sg40
I0
sg42
(iread_data
Room
p1314
(dp1315
g34
g72
sg36
g73
sbsbaa(lp1316
a(lp1317
a(lp1318
aasS'timeslot_dict'
p1319
(dp1320
I0
S'9:00-11:00'
p1321
sI1
S'11:00-13:00'
p1322
sI2
S'13:00-15:00'
p1323
sI3
S'15:00-17:00'
p1324
sI4
S'17:00-19:00'
p1325
ssS'day_dict'
p1326
(dp1327
I0
S'Monday'
p1328
sI1
S'Tuesday'
p1329
sI2
S'Wednesday'
p1330
sI3
S'Thursday'
p1331
sI4
S'Friday'
p1332
ssb.