(ischedule
Schedule
p0
(dp1
S'timetable'
p2
(lp3
(lp4
(lp5
(ischedule
Activity
p6
(dp7
S'participants'
p8
(lp9
S'35330349'
p10
aS'61443567'
p11
aS'45556081'
p12
aS'77896638'
p13
aS'62701040'
p14
aS'48601268'
p15
aS'42171678'
p16
aS'54310617'
p17
aS'9332762'
p18
aS'37770881'
p19
aS'34773179'
p20
aS'97135019'
p21
aS'24277163'
p22
aS'53107172'
p23
aS'13092455'
p24
aS'51741554'
p25
aS'96104167'
p26
aS'29474737'
p27
aS'82689818'
p28
aS'46052388'
p29
aS'76123484'
p30
aS'5517869'
p31
aS'50184318'
p32
aS'77240949'
p33
aS'60312776'
p34
aS'21964491'
p35
aS'75521763'
p36
aS'42778953'
p37
aS'3233378'
p38
aS'87758823'
p39
aS'65960683'
p40
aS'58522654'
p41
aS'4783858'
p42
aS'22699561'
p43
aS'17222374'
p44
aS'57595888'
p45
aS'1665980'
p46
aS'73980360'
p47
aS'43027916'
p48
aS'64393888'
p49
aS'29640619'
p50
aS'23547619'
p51
aS'15902055'
p52
aS'72577292'
p53
aS'28357474'
p54
aS'64228258'
p55
aS'31416266'
p56
aS'17575088'
p57
aS'1075391'
p58
aS'25106480'
p59
aS'1696500'
p60
aS'13534377'
p61
aS'7308727'
p62
aS'42196732'
p63
aS'68601184'
p64
aS'86291592'
p65
aS'26406342'
p66
aS'86000192'
p67
aS'50143947'
p68
aS'64296965'
p69
aS'33760909'
p70
asS'capacity'
p71
I1000
sS'group'
p72
NsS'room'
p73
(iread_data
Room
p74
(dp75
g71
S'117'
p76
sS'name'
p77
S'C0.110'
p78
sbsS'ttype'
p79
S'lectures'
p80
sS'group_id'
p81
I0
sg77
S'Collectieve Intelligentie'
p82
sba(ischedule
Activity
p83
(dp84
g8
(lp85
S'37399898'
p86
aS'38179241'
p87
aS'81200278'
p88
aS'76924297'
p89
aS'2550487'
p90
aS'65675896'
p91
aS'44828429'
p92
aS'69634191'
p93
aS'34765676'
p94
aS'19214659'
p95
aS'81385263'
p96
aS'4546613'
p97
aS'21677389'
p98
aS'28055464'
p99
ag51
aS'93566383'
p100
aS'5368702'
p101
aS'66034145'
p102
aS'81155296'
p103
aS'37701751'
p104
aS'20374340'
p105
aS'14847953'
p106
aS'76661016'
p107
aS'3707829'
p108
aS'64768422'
p109
asg71
I1000
sg72
Nsg73
(iread_data
Room
p110
(dp111
g71
S'60'
p112
sg77
S'C1.112'
p113
sbsg79
g80
sg81
I0
sg77
S'Interactie-ontwerp'
p114
sba(ischedule
Activity
p115
(dp116
g8
(lp117
S'68315599'
p118
aS'13658563'
p119
aS'23983476'
p120
aS'44901052'
p121
aS'58332004'
p122
aS'75585647'
p123
aS'77636749'
p124
aS'70878567'
p125
aS'17496687'
p126
aS'32204977'
p127
aS'23257088'
p128
ag14
aS'18266644'
p129
aS'8557857'
p130
aS'13116738'
p131
ag36
aS'19958553'
p132
aS'36748818'
p133
aS'11459236'
p134
aS'92977271'
p135
asg71
S'15'
p136
sg72
(ischedule
Group
p137
(dp138
g8
g117
sg77
S'Informatie- en organsatieontwerp2'
p139
sbsg73
(iread_data
Room
p140
(dp141
g71
S'22'
p142
sg77
S'A1.06'
p143
sbsg79
S'tutorials'
p144
sg81
S'2'
p145
sg77
S'Informatie- en organsatieontwerp'
p146
sba(ischedule
Activity
p147
(dp148
g8
(lp149
S'57086672'
p150
aS'48357272'
p151
aS'72456780'
p152
aS'87830198'
p153
aS'33672995'
p154
aS'58480929'
p155
aS'34243356'
p156
aS'51542218'
p157
aS'82854435'
p158
aS'18477924'
p159
aS'73302736'
p160
aS'85335143'
p161
aS'42115591'
p162
aS'97838175'
p163
aS'60661905'
p164
aS'23658570'
p165
aS'13718298'
p166
aS'78821918'
p167
aS'75997788'
p168
aS'16097870'
p169
aS'4921119'
p170
aS'78822885'
p171
aS'77831658'
p172
aS'23798155'
p173
aS'41578612'
p174
aS'22871048'
p175
aS'36785409'
p176
aS'52311353'
p177
aS'34900967'
p178
ag69
aS'5085194'
p179
aS'97019450'
p180
aS'83443653'
p181
aS'5595824'
p182
aS'94955328'
p183
aS'88737765'
p184
aS'23565001'
p185
aS'65318664'
p186
ag48
aS'62613937'
p187
aS'14637758'
p188
aS'48678993'
p189
aS'56544130'
p190
aS'72586808'
p191
aS'56815156'
p192
aS'70193386'
p193
aS'73350019'
p194
ag129
aS'80188025'
p195
asg71
I1000
sg72
Nsg73
(iread_data
Room
p196
(dp197
g71
S'56'
p198
sg77
S'A1.10'
p199
sbsg79
g80
sg81
I0
sg77
S'Analysemethoden en -technieken'
p200
sba(ischedule
Activity
p201
(dp202
g8
(lp203
S'51673172'
p204
aS'5892092'
p205
aS'71839156'
p206
aS'53585410'
p207
aS'38499176'
p208
aS'13911001'
p209
aS'51472074'
p210
aS'99272880'
p211
aS'4568018'
p212
ag127
ag179
aS'55103073'
p213
aS'44151631'
p214
aS'25994016'
p215
aS'52715680'
p216
aS'1695839'
p217
aS'3407554'
p218
aS'47260040'
p219
aS'14138904'
p220
aS'74361881'
p221
aS'64418623'
p222
aS'14383795'
p223
aS'14303208'
p224
aS'41644639'
p225
ag91
aS'91250534'
p226
asg71
S'15'
p227
sg72
(ischedule
Group
p228
(dp229
g8
g203
sg77
S'Compilerbouw practicum2'
p230
sbsg73
(iread_data
Room
p231
(dp232
g71
S'48'
p233
sg77
S'B0.201'
p234
sbsg79
S'labs'
p235
sg81
g145
sg77
S'Compilerbouw practicum'
p236
sba(ischedule
Activity
p237
(dp238
g8
(lp239
S'47477884'
p240
aS'70844780'
p241
aS'72683344'
p242
aS'28618400'
p243
aS'40633534'
p244
ag106
ag53
aS'92665222'
p245
aS'60352393'
p246
aS'78136904'
p247
aS'1886996'
p248
ag51
aS'39429093'
p249
aS'86807027'
p250
ag168
aS'72665524'
p251
ag187
aS'3168419'
p252
aS'27064249'
p253
aS'20883994'
p254
asg71
I1000
sg72
Nsg73
(iread_data
Room
p255
(dp256
g71
S'41'
p257
sg77
S'A1.04'
p258
sbsg79
g80
sg81
I0
sg77
S'Advanced Heuristics'
p259
sba(ischedule
Activity
p260
(dp261
g8
(lp262
S'22323043'
p263
aS'99453514'
p264
ag35
ag125
aS'66122625'
p265
ag177
asg71
S'10'
p266
sg72
(ischedule
Group
p267
(dp268
g8
g262
sg77
S'Data Mining3'
p269
sbsg73
(iread_data
Room
p270
(dp271
g71
S'20'
p272
sg77
S'A1.08'
p273
sbsg79
g235
sg81
S'3'
p274
sg77
S'Data Mining'
p275
sbaa(lp276
(ischedule
Activity
p277
(dp278
g8
(lp279
S'5739011'
p280
aS'58736785'
p281
aS'52304977'
p282
aS'22731474'
p283
aS'15249775'
p284
aS'670011'
p285
aS'7106649'
p286
aS'35315956'
p287
aS'5976174'
p288
ag169
aS'84524083'
p289
ag48
aS'63634350'
p290
aS'72652638'
p291
aS'58040377'
p292
ag150
ag88
ag11
aS'99975346'
p293
aS'87602030'
p294
ag94
aS'85236626'
p295
aS'78243495'
p296
ag70
aS'31897288'
p297
ag189
aS'51566595'
p298
ag248
aS'83869542'
p299
aS'81022997'
p300
aS'27925117'
p301
aS'82968410'
p302
asg71
I1000
sg72
Nsg73
(iread_data
Room
p303
(dp304
g71
S'117'
p305
sg77
S'C0.110'
p306
sbsg79
g80
sg81
I0
sg77
S'Heuristieken 2'
p307
sba(ischedule
Activity
p308
(dp309
g8
(lp310
S'56191333'
p311
aS'54540997'
p312
aS'86988337'
p313
aS'91527663'
p314
aS'90474003'
p315
ag167
ag31
ag298
aS'40141996'
p316
aS'73823548'
p317
ag240
aS'14816774'
p318
ag24
ag165
ag246
aS'86180471'
p319
aS'58083680'
p320
aS'56872729'
p321
ag152
aS'96054456'
p322
ag28
ag170
aS'12091019'
p323
aS'88752563'
p324
aS'75005528'
p325
aS'94686490'
p326
ag104
aS'59397895'
p327
aS'39459642'
p328
aS'26207525'
p329
aS'13132925'
p330
aS'34872117'
p331
aS'47932106'
p332
asg71
S'40'
p333
sg72
(ischedule
Group
p334
(dp335
g8
g310
sg77
S'Databases 22'
p336
sbsg73
(iread_data
Room
p337
(dp338
g71
g198
sg77
g199
sbsg79
g144
sg81
g145
sg77
S'Databases 2'
p339
sba(ischedule
Activity
p340
(dp341
g8
(lp342
S'38296757'
p343
aS'94467156'
p344
aS'26857113'
p345
aS'63111000'
p346
aS'40791377'
p347
aS'67625383'
p348
aS'90067329'
p349
ag288
aS'3685034'
p350
aS'37744525'
p351
aS'27187154'
p352
aS'56988998'
p353
aS'33252501'
p354
ag173
ag328
aS'46701583'
p355
ag33
ag295
aS'49683101'
p356
aS'61518436'
p357
aS'15051051'
p358
aS'2079771'
p359
asg71
I1000
sg72
Nsg73
(iread_data
Room
p360
(dp361
g71
S'22'
p362
sg77
S'A1.06'
p363
sbsg79
g80
sg81
I0
sg77
S'Machine Learning'
p364
sba(ischedule
Activity
p365
(dp366
g8
(lp367
g61
ag70
ag42
ag35
ag22
ag67
ag20
ag65
ag47
ag50
ag52
ag16
ag39
ag64
ag32
ag44
ag19
ag46
ag62
ag12
ag10
asg71
S'20'
p368
sg72
(ischedule
Group
p369
(dp370
g8
g367
sg77
S'Collectieve Intelligentie3'
p371
sbsg73
(iread_data
Room
p372
(dp373
g71
S'60'
p374
sg77
S'C1.112'
p375
sbsg79
g144
sg81
g274
sg77
g82
sba(ischedule
Activity
p376
(dp377
g8
(lp378
g45
ag29
ag55
ag40
ag31
ag56
ag17
ag60
ag26
ag63
ag14
ag57
ag28
ag66
ag58
ag48
ag68
ag25
ag33
ag11
ag18
ag43
ag51
ag59
ag23
ag15
ag49
ag30
ag37
ag36
ag53
ag69
ag54
ag13
ag27
ag21
asg71
g368
sg72
(ischedule
Group
p379
(dp380
g8
g378
sg77
S'Collectieve Intelligentie4'
p381
sbsg73
(iread_data
Room
p382
(dp383
g71
g233
sg77
g234
sbsg79
g144
sg81
S'4'
p384
sg77
g82
sba(ischedule
Activity
p385
(dp386
g8
(lp387
g127
ag121
ag123
ag131
ag129
ag122
ag119
ag14
aS'29718115'
p388
ag124
ag130
ag128
ag120
ag132
ag126
ag118
ag36
ag133
ag134
ag125
ag135
asg71
I1000
sg72
Nsg73
(iread_data
Room
p389
(dp390
g71
g257
sg77
g258
sbsg79
g80
sg81
I0
sg77
g146
sba(ischedule
Activity
p391
(dp392
g8
(lp393
g38
ag34
ag24
asg71
S'20'
p394
sg72
(ischedule
Group
p395
(dp396
g8
g393
sg77
S'Collectieve Intelligentie2'
p397
sbsg73
(iread_data
Room
p398
(dp399
g71
g272
sg77
g273
sbsg79
g235
sg81
g145
sg77
g82
sbaa(lp400
(ischedule
Activity
p401
(dp402
g8
g9
sg71
I1000
sg72
Nsg73
(iread_data
Room
p403
(dp404
g71
g305
sg77
g306
sbsg79
g80
sg81
I0
sg77
g82
sba(ischedule
Activity
p405
(dp406
g8
(lp407
g350
ag150
aS'77960666'
p408
aS'27370083'
p409
ag216
aS'92778619'
p410
ag241
ag193
aS'5298748'
p411
aS'49922855'
p412
asg71
S'20'
p413
sg72
(ischedule
Group
p414
(dp415
g8
g407
sg77
S'Reflectie op de digitale cultuur2'
p416
sbsg73
(iread_data
Room
p417
(dp418
g71
g257
sg77
g258
sbsg79
g144
sg81
g145
sg77
S'Reflectie op de digitale cultuur'
p419
sba(ischedule
Activity
p420
(dp421
g8
(lp422
S'25330192'
p423
aS'13996448'
p424
aS'93023961'
p425
ag351
aS'87900893'
p426
ag131
asg71
g266
sg72
(ischedule
Group
p427
(dp428
g8
g422
sg77
S'Data Mining2'
p429
sbsg73
(iread_data
Room
p430
(dp431
g71
g272
sg77
g273
sbsg79
g235
sg81
g145
sg77
g275
sba(ischedule
Activity
p432
(dp433
g8
(lp434
g263
aS'61060652'
p435
ag177
ag162
aS'68409833'
p436
aS'31633723'
p437
aS'1048485'
p438
ag186
aS'52552718'
p439
aS'14671406'
p440
aS'27582862'
p441
ag54
ag38
aS'43460038'
p442
aS'37830626'
p443
aS'31247305'
p444
aS'31103066'
p445
aS'83210352'
p446
aS'80709893'
p447
aS'75599734'
p448
aS'58074656'
p449
ag50
aS'88176729'
p450
aS'77376714'
p451
aS'11915563'
p452
aS'78443067'
p453
ag166
aS'27950803'
p454
ag175
aS'33877725'
p455
aS'44671041'
p456
aS'54026378'
p457
ag344
aS'41527759'
p458
aS'40343779'
p459
ag216
ag160
aS'3727435'
p460
aS'51593625'
p461
aS'62105897'
p462
aS'45915482'
p463
aS'59544049'
p464
aS'96554914'
p465
ag42
aS'26260141'
p466
aS'89338938'
p467
aS'21095566'
p468
aS'70015932'
p469
ag34
ag151
aS'58565406'
p470
aS'44868097'
p471
aS'14072826'
p472
aS'89985072'
p473
asg71
S'40'
p474
sg72
(ischedule
Group
p475
(dp476
g8
g434
sg77
S'Software engineering1'
p477
sbsg73
(iread_data
Room
p478
(dp479
g71
g374
sg77
g375
sbsg79
g144
sg81
S'1'
p480
sg77
S'Software engineering'
p481
sba(ischedule
Activity
p482
(dp483
g8
(lp484
S'58699305'
p485
aS'47462856'
p486
ag122
ag358
ag296
aS'48198668'
p487
aS'18144425'
p488
aS'70072978'
p489
aS'89180944'
p490
ag16
ag168
ag209
ag133
aS'4709948'
p491
ag346
aS'29526540'
p492
asg71
S'20'
p493
sg72
(ischedule
Group
p494
(dp495
g8
g484
sg77
S'Moderne Databases3'
p496
sbsg73
(iread_data
Room
p497
(dp498
g71
g362
sg77
g363
sbsg79
g235
sg81
g274
sg77
S'Moderne Databases'
p499
sbaa(lp500
(ischedule
Activity
p501
(dp502
g8
(lp503
S'55412918'
p504
ag156
aS'91196968'
p505
ag63
ag13
ag326
aS'80998260'
p506
aS'14591033'
p507
ag446
aS'34588570'
p508
aS'79617364'
p509
ag10
ag100
aS'81218347'
p510
aS'55474917'
p511
ag56
aS'90743504'
p512
aS'96118484'
p513
aS'79937969'
p514
ag208
ag37
ag86
aS'3474870'
p515
ag325
ag174
ag169
aS'16333449'
p516
ag183
aS'36508571'
p517
ag447
aS'54074680'
p518
ag39
ag96
aS'32595335'
p519
ag170
ag206
aS'48308205'
p520
aS'36527838'
p521
ag31
aS'62872965'
p522
ag321
aS'21311067'
p523
aS'10149535'
p524
ag435
ag162
aS'58866007'
p525
ag185
aS'26172512'
p526
ag177
ag436
aS'66570705'
p527
aS'74182182'
p528
ag285
aS'16011419'
p529
asg71
I1000
sg72
Nsg73
(iread_data
Room
p530
(dp531
g71
g112
sg77
g113
sbsg79
g80
sg81
I0
sg77
S'Lineaire Algebra'
p532
sba(ischedule
Activity
p533
(dp534
g8
(lp535
g242
ag247
ag240
ag106
ag245
ag254
ag53
ag253
ag249
ag241
ag250
ag243
ag244
ag187
ag246
ag251
ag168
ag248
ag252
asg71
S'10'
p536
sg72
(ischedule
Group
p537
(dp538
g8
g535
sg77
S'Advanced Heuristics2'
p539
sbsg73
(iread_data
Room
p540
(dp541
g71
g198
sg77
g199
sbsg79
g235
sg81
g145
sg77
g259
sba(ischedule
Activity
p542
(dp543
g8
(lp544
S'99283252'
p545
aS'59111489'
p546
aS'33776961'
p547
ag22
aS'27916487'
p548
ag451
aS'27241113'
p549
ag521
ag44
aS'96082155'
p550
aS'84449005'
p551
aS'64600457'
p552
aS'58592894'
p553
ag453
aS'49631542'
p554
ag36
aS'83266686'
p555
aS'43680781'
p556
ag167
ag32
aS'13218321'
p557
aS'51650744'
p558
aS'41489515'
p559
aS'46570285'
p560
aS'1766560'
p561
asg71
g493
sg72
(ischedule
Group
p562
(dp563
g8
g544
sg77
S'Moderne Databases1'
p564
sbsg73
(iread_data
Room
p565
(dp566
g71
g233
sg77
g234
sbsg79
g235
sg81
g480
sg77
g499
sba(ischedule
Activity
p567
(dp568
g8
g387
sg71
I1000
sg72
Nsg73
(iread_data
Room
p569
(dp570
g71
g362
sg77
g363
sbsg79
g80
sg81
I0
sg77
g146
sba(ischedule
Activity
p571
(dp572
g8
(lp573
S'73236988'
p574
ag473
ag62
aS'11068043'
p575
ag471
ag125
ag450
aS'247918'
p576
ag455
ag464
aS'6723948'
p577
ag411
ag212
ag358
ag509
ag318
aS'24613625'
p578
asg71
S'20'
p579
sg72
(ischedule
Group
p580
(dp581
g8
g573
sg77
S'Bioinformatica3'
p582
sbsg73
(iread_data
Room
p583
(dp584
g71
g305
sg77
g306
sbsg79
g235
sg81
g274
sg77
S'Bioinformatica'
p585
sba(ischedule
Activity
p586
(dp587
g8
(lp588
g65
ag25
ag21
aS'14398123'
p589
aS'62736669'
p590
aS'64246605'
p591
aS'33930505'
p592
ag311
ag444
aS'59887191'
p593
aS'12170832'
p594
aS'7957843'
p595
aS'5590289'
p596
aS'56121590'
p597
aS'25557516'
p598
aS'85284256'
p599
ag189
ag98
ag152
ag246
asg71
S'20'
p600
sg72
(ischedule
Group
p601
(dp602
g8
g588
sg77
S'Netwerken en systeembeveiliging3'
p603
sbsg73
(iread_data
Room
p604
(dp605
g71
g272
sg77
g273
sbsg79
g235
sg81
g274
sg77
S'Netwerken en systeembeveiliging'
p606
sbaa(lp607
(ischedule
Activity
p608
(dp609
g8
(lp610
S'64947290'
p611
ag247
ag207
ag46
ag466
ag96
aS'64554442'
p612
aS'67817269'
p613
aS'43902015'
p614
aS'51509565'
p615
aS'12077419'
p616
ag458
asg71
S'25'
p617
sg72
(ischedule
Group
p618
(dp619
g8
g610
sg77
S'Algoritmen en complexiteit2'
p620
sbsg73
(iread_data
Room
p621
(dp622
g71
g112
sg77
g113
sbsg79
g235
sg81
g145
sg77
S'Algoritmen en complexiteit'
p623
sba(ischedule
Activity
p624
(dp625
g8
(lp626
g224
aS'9731271'
p627
ag332
ag322
ag161
asg71
S'40'
p628
sg72
(ischedule
Group
p629
(dp630
g8
g626
sg77
S'Calculus 21'
p631
sbsg73
(iread_data
Room
p632
(dp633
g71
S'41'
p634
sg77
S'A1.04'
p635
sbsg79
g144
sg81
g480
sg77
S'Calculus 2'
p636
sba(ischedule
Activity
p637
(dp638
g8
(lp639
g459
aS'88596522'
p640
ag298
ag28
aS'36903574'
p641
ag468
aS'19540225'
p642
ag515
ag52
ag120
aS'57467488'
p643
aS'72895450'
p644
ag451
ag92
aS'41585485'
p645
ag440
aS'27298319'
p646
ag314
ag68
aS'8522855'
p647
ag108
ag35
ag216
aS'23652927'
p648
aS'66433883'
p649
ag553
ag313
aS'96453361'
p650
ag355
ag94
ag288
asg71
g617
sg72
(ischedule
Group
p651
(dp652
g8
g639
sg77
S'Algoritmen en complexiteit1'
p653
sbsg73
(iread_data
Room
p654
(dp655
g71
g76
sg77
g78
sbsg79
g235
sg81
g480
sg77
g623
sba(ischedule
Activity
p656
(dp657
g8
(lp658
S'11996292'
p659
ag66
ag51
ag118
ag124
ag524
ag263
aS'75664412'
p660
aS'97371272'
p661
ag36
aS'31194811'
p662
aS'37110913'
p663
aS'92496780'
p664
aS'93041523'
p665
aS'40434933'
p666
ag470
aS'69086548'
p667
ag520
aS'4697362'
p668
aS'21192048'
p669
aS'12430748'
p670
aS'6249823'
p671
aS'76487754'
p672
ag121
ag161
ag467
ag556
aS'14309255'
p673
aS'77264363'
p674
ag223
ag18
asg71
S'20'
p675
sg72
(ischedule
Group
p676
(dp677
g8
g658
sg77
S'Technology for games1'
p678
sbsg73
(iread_data
Room
p679
(dp680
g71
g233
sg77
g234
sbsg79
g144
sg81
g480
sg77
S'Technology for games'
p681
sba(ischedule
Activity
p682
(dp683
g8
(lp684
g426
aS'87314964'
p685
aS'74131924'
p686
ag264
ag351
ag425
aS'19337738'
p687
ag265
aS'45414528'
p688
aS'97136582'
p689
ag88
ag263
aS'98780382'
p690
ag423
aS'59753700'
p691
ag424
ag505
ag300
ag68
ag125
aS'17823206'
p692
ag131
ag663
aS'68360259'
p693
ag35
ag177
ag298
asg71
I1000
sg72
Nsg73
(iread_data
Room
p694
(dp695
g71
g362
sg77
g363
sbsg79
g80
sg81
I0
sg77
g275
sba(ischedule
Activity
p696
(dp697
g8
(lp698
g41
asg71
g394
sg72
(ischedule
Group
p699
(dp700
g8
g698
sg77
S'Collectieve Intelligentie1'
p701
sbsg73
(iread_data
Room
p702
(dp703
g71
g272
sg77
g273
sbsg79
g235
sg81
g480
sg77
g82
sba(ischedule
Activity
p704
(dp705
g8
(lp706
g25
ag552
ag169
aS'65408517'
p707
aS'3678531'
p708
ag107
ag316
ag471
ag524
aS'70939718'
p709
ag485
aS'32705005'
p710
ag343
asg71
g628
sg72
(ischedule
Group
p711
(dp712
g8
g706
sg77
S'Calculus 22'
p713
sbsg73
(iread_data
Room
p714
(dp715
g71
g198
sg77
g199
sbsg79
g144
sg81
g145
sg77
g636
sbaaa(lp716
(lp717
(ischedule
Activity
p718
(dp719
g8
(lp720
g183
ag647
ag627
ag692
ag357
aS'72547110'
p721
aS'91139627'
p722
ag156
ag554
ag122
ag290
ag350
ag33
aS'56749879'
p723
ag173
aS'28957789'
p724
ag247
ag69
ag710
aS'7492204'
p725
aS'20331158'
p726
aS'44940353'
p727
aS'39919665'
p728
ag486
ag254
ag458
ag322
ag528
aS'79858178'
p729
aS'78735049'
p730
ag661
aS'37498675'
p731
ag464
ag589
ag344
ag444
aS'65003379'
p732
aS'84110134'
p733
ag452
ag289
aS'51186803'
p734
ag211
aS'34262212'
p735
ag208
aS'5615125'
p736
aS'63955238'
p737
ag352
ag162
ag667
aS'54569540'
p738
aS'79366078'
p739
ag17
ag124
ag467
ag41
aS'10792879'
p740
ag511
ag437
aS'63408522'
p741
aS'58469172'
p742
ag560
ag157
ag180
aS'20239127'
p743
ag645
aS'10872825'
p744
aS'23391676'
p745
aS'39230359'
p746
aS'38329455'
p747
ag129
ag89
ag440
ag353
ag507
aS'39659121'
p748
ag505
aS'59075181'
p749
ag101
aS'47605891'
p750
ag510
aS'82688900'
p751
ag641
aS'24875739'
p752
ag283
asg71
I1000
sg72
Nsg73
(iread_data
Room
p753
(dp754
g71
g76
sg77
g78
sbsg79
g80
sg81
I0
sg77
S'Kansrekenen 2'
p755
sba(ischedule
Activity
p756
(dp757
g8
(lp758
S'28358060'
p759
ag666
aS'94930277'
p760
ag516
aS'69459473'
p761
aS'53202517'
p762
ag644
ag102
ag490
ag53
ag614
aS'41790793'
p763
ag442
ag150
aS'67073567'
p764
ag515
ag106
aS'1137946'
p765
aS'24891081'
p766
aS'76648468'
p767
ag253
aS'49908313'
p768
aS'76903244'
p769
aS'10698627'
p770
aS'17092717'
p771
aS'2416751'
p772
aS'53512831'
p773
ag296
aS'20618153'
p774
aS'22288615'
p775
asg71
S'20'
p776
sg72
(ischedule
Group
p777
(dp778
g8
g758
sg77
S'Webprogrammeren en databases2'
p779
sbsg73
(iread_data
Room
p780
(dp781
g71
g634
sg77
g635
sbsg79
g144
sg81
g145
sg77
S'Webprogrammeren en databases'
p782
sba(ischedule
Activity
p783
(dp784
g8
(lp785
g176
ag51
ag660
ag672
ag118
ag556
ag124
ag663
ag668
ag666
ag470
ag127
ag524
ag223
ag674
ag263
ag670
ag664
ag673
ag616
ag286
ag659
ag467
aS'47982619'
p786
ag667
ag66
aS'70336464'
p787
ag174
ag161
ag661
ag665
ag18
ag36
ag669
ag662
ag671
ag121
ag520
asg71
I1000
sg72
Nsg73
(iread_data
Room
p788
(dp789
g71
g112
sg77
g113
sbsg79
g80
sg81
I0
sg77
g681
sba(ischedule
Activity
p790
(dp791
g8
(lp792
g439
ag121
asg71
S'10'
p793
sg72
(ischedule
Group
p794
(dp795
g8
g792
sg77
S'Autonomous Agents 21'
p796
sbsg73
(iread_data
Room
p797
(dp798
g71
g233
sg77
g234
sbsg79
g144
sg81
g480
sg77
S'Autonomous Agents 2'
p799
sba(ischedule
Activity
p800
(dp801
g8
(lp802
g436
aS'70113753'
p803
ag175
ag328
aS'72796858'
p804
ag169
aS'88627897'
p805
ag663
ag457
ag31
aS'34806836'
p806
ag517
aS'62356458'
p807
ag522
ag646
asg71
g793
sg72
(ischedule
Group
p808
(dp809
g8
g802
sg77
S'Autonomous Agents 23'
p810
sbsg73
(iread_data
Room
p811
(dp812
g71
g362
sg77
g363
sbsg79
g144
sg81
g274
sg77
g799
sba(ischedule
Activity
p813
(dp814
g8
(lp815
g688
ag300
ag690
ag692
ag685
ag693
ag88
ag505
ag663
ag68
ag687
ag298
ag689
ag686
ag691
asg71
g266
sg72
(ischedule
Group
p816
(dp817
g8
g815
sg77
S'Data Mining1'
p818
sbsg73
(iread_data
Room
p819
(dp820
g71
g272
sg77
g273
sbsg79
g235
sg81
g480
sg77
g275
sba(ischedule
Activity
p821
(dp822
g8
g573
sg71
S'20'
p823
sg72
g580
sg73
(iread_data
Room
p824
(dp825
g71
g198
sg77
g199
sbsg79
g144
sg81
g274
sg77
g585
sbaa(lp826
(ischedule
Activity
p827
(dp828
g8
(lp829
g318
ag63
ag473
aS'21029457'
p830
ag509
ag252
ag322
ag283
ag192
ag450
ag88
aS'28359697'
p831
ag574
ag464
ag552
ag556
aS'30050930'
p832
aS'22826928'
p833
ag577
ag578
ag576
ag492
ag471
ag35
ag686
ag161
ag457
ag455
ag575
ag723
ag762
ag507
ag411
ag62
aS'66120270'
p834
aS'6913074'
p835
ag592
aS'30195935'
p836
ag125
ag254
ag650
ag212
ag41
ag172
ag358
asg71
I1000
sg72
Nsg73
(iread_data
Room
p837
(dp838
g71
g305
sg77
g306
sbsg79
g80
sg81
I0
sg77
g585
sba(ischedule
Activity
p839
(dp840
g8
g792
sg71
S'10'
p841
sg72
g794
sg73
(iread_data
Room
p842
(dp843
g71
g233
sg77
g234
sbsg79
g235
sg81
g480
sg77
g799
sba(ischedule
Activity
p844
(dp845
g8
(lp846
g742
ag725
ag284
ag599
aS'79167252'
p847
ag833
ag208
ag180
ag786
aS'83415514'
p848
ag645
aS'80135353'
p849
aS'63096281'
p850
ag745
ag49
ag90
ag352
ag351
ag441
ag240
ag128
ag211
aS'8464817'
p851
asg71
S'20'
p852
sg72
(ischedule
Group
p853
(dp854
g8
g846
sg77
S'Programmeren in Java 23'
p855
sbsg73
(iread_data
Room
p856
(dp857
g71
g374
sg77
g375
sbsg79
g235
sg81
g274
sg77
S'Programmeren in Java 2'
p858
sba(ischedule
Activity
p859
(dp860
g8
g544
sg71
S'20'
p861
sg72
g562
sg73
(iread_data
Room
p862
(dp863
g71
g257
sg77
g258
sbsg79
g144
sg81
g480
sg77
g499
sba(ischedule
Activity
p864
(dp865
g8
(lp866
S'88263855'
p867
ag547
ag462
ag52
ag552
aS'88597745'
p868
ag355
aS'73196865'
p869
ag18
ag627
ag165
ag775
ag135
ag14
ag13
ag292
ag345
ag410
ag178
ag170
aS'88519892'
p870
aS'39905995'
p871
ag183
ag708
ag641
ag692
ag491
ag772
aS'51791169'
p872
aS'44391517'
p873
ag803
ag56
aS'54772132'
p874
asg71
g852
sg72
(ischedule
Group
p875
(dp876
g8
g866
sg77
S'Programmeren in Java 24'
p877
sbsg73
(iread_data
Room
p878
(dp879
g71
g198
sg77
g199
sbsg79
g235
sg81
g384
sg77
g858
sba(ischedule
Activity
p880
(dp881
g8
(lp882
g30
ag736
ag11
ag671
ag224
ag455
ag55
ag746
aS'77392404'
p883
asg71
g776
sg72
(ischedule
Group
p884
(dp885
g8
g882
sg77
S'Webprogrammeren en databases1'
p886
sbsg73
(iread_data
Room
p887
(dp888
g71
g272
sg77
g273
sbsg79
g144
sg81
g480
sg77
g782
sba(ischedule
Activity
p889
(dp890
g8
(lp891
g505
ag313
aS'20830477'
p892
ag207
asg71
g852
sg72
(ischedule
Group
p893
(dp894
g8
g891
sg77
S'Programmeren in Java 25'
p895
sbsg73
(iread_data
Room
p896
(dp897
g71
g362
sg77
g363
sbsg79
g235
sg81
S'5'
p898
sg77
g858
sbaa(lp899
(ischedule
Activity
p900
(dp901
g8
g9
sg71
I1000
sg72
Nsg73
(iread_data
Room
p902
(dp903
g71
g76
sg77
g78
sbsg79
g80
sg81
I0
sg77
g82
sba(ischedule
Activity
p904
(dp905
g8
(lp906
g670
ag575
aS'37419523'
p907
ag95
ag90
aS'48503689'
p908
ag733
aS'34691309'
p909
ag317
ag324
aS'90103047'
p910
ag172
ag574
ag424
ag595
ag65
ag243
ag528
aS'6939933'
p911
aS'32044893'
p912
asg71
S'15'
p913
sg72
(ischedule
Group
p914
(dp915
g8
g906
sg77
S'Project Numerical Recipes3'
p916
sbsg73
(iread_data
Room
p917
(dp918
g71
g374
sg77
g375
sbsg79
g235
sg81
g274
sg77
S'Project Numerical Recipes'
p919
sba(ischedule
Activity
p920
(dp921
g8
g610
sg71
S'25'
p922
sg72
g618
sg73
(iread_data
Room
p923
(dp924
g71
g272
sg77
g273
sbsg79
g144
sg81
g145
sg77
g623
sba(ischedule
Activity
p925
(dp926
g8
(lp927
g289
ag119
aS'42406214'
p928
ag174
ag454
ag166
ag663
aS'82390428'
p929
ag86
ag246
ag247
ag315
ag153
ag176
ag835
aS'68286356'
p930
ag357
ag343
ag883
aS'27805666'
p931
ag833
ag738
asg71
g413
sg72
(ischedule
Group
p932
(dp933
g8
g927
sg77
S'Reflectie op de digitale cultuur3'
p934
sbsg73
(iread_data
Room
p935
(dp936
g71
g257
sg77
g258
sbsg79
g144
sg81
g274
sg77
g419
sba(ischedule
Activity
p937
(dp938
g8
(lp939
g659
ag848
ag161
ag673
aS'78544592'
p940
aS'49219163'
p941
ag31
aS'1181560'
p942
aS'11741347'
p943
aS'30658799'
p944
ag118
aS'3883025'
p945
aS'66621166'
p946
asg71
g493
sg72
(ischedule
Group
p947
(dp948
g8
g939
sg77
S'Moderne Databases2'
p949
sbsg73
(iread_data
Room
p950
(dp951
g71
g233
sg77
g234
sbsg79
g235
sg81
g145
sg77
g499
sbaa(lp952
(ischedule
Activity
p953
(dp954
g8
(lp955
g847
ag740
ag804
ag762
ag41
ag65
ag644
ag873
aS'66701209'
p956
ag352
ag209
ag107
ag13
ag289
aS'15911353'
p957
ag359
ag324
ag578
asg71
S'40'
p958
sg72
(ischedule
Group
p959
(dp960
g8
g955
sg77
S'Compilerbouw1'
p961
sbsg73
(iread_data
Room
p962
(dp963
g71
g362
sg77
g363
sbsg79
g235
sg81
g480
sg77
S'Compilerbouw'
p964
sba(ischedule
Activity
p965
(dp966
g8
(lp967
g356
ag12
ag442
aS'59289233'
p968
ag525
ag331
ag490
ag555
ag666
ag524
ag242
ag301
ag53
ag726
ag469
ag173
ag388
ag28
ag220
aS'13798030'
p969
ag243
asg71
I1000
sg72
Nsg73
(iread_data
Room
p970
(dp971
g71
g272
sg77
g273
sbsg79
g80
sg81
I0
sg77
S'Architectuur en computerorganisatie'
p972
sba(ischedule
Activity
p973
(dp974
g8
g684
sg71
I1000
sg72
Nsg73
(iread_data
Room
p975
(dp976
g71
g233
sg77
g234
sbsg79
g80
sg81
I0
sg77
g275
sba(ischedule
Activity
p977
(dp978
g8
g378
sg71
g394
sg72
g379
sg73
(iread_data
Room
p979
(dp980
g71
g257
sg77
g258
sbsg79
g235
sg81
g384
sg77
g82
sba(ischedule
Activity
p981
(dp982
g8
(lp983
S'55480737'
p984
ag355
ag204
ag761
ag215
ag294
ag174
ag225
ag436
ag20
asg71
S'15'
p985
sg72
(ischedule
Group
p986
(dp987
g8
g983
sg77
S'Project Genetic Algorithms1'
p988
sbsg73
(iread_data
Room
p989
(dp990
g71
g305
sg77
g306
sbsg79
g235
sg81
g480
sg77
S'Project Genetic Algorithms'
p991
sba(ischedule
Activity
p992
(dp993
g8
(lp994
g285
ag649
ag774
aS'54395877'
p995
ag577
aS'2317551'
p996
aS'23215240'
p997
ag611
ag67
ag250
ag122
ag489
ag328
ag64
aS'41153310'
p998
aS'64053722'
p999
ag346
ag723
ag688
aS'37279234'
p1000
ag322
ag408
ag461
ag424
ag835
aS'12782624'
p1001
asg71
g852
sg72
(ischedule
Group
p1002
(dp1003
g8
g994
sg77
S'Programmeren in Java 22'
p1004
sbsg73
(iread_data
Room
p1005
(dp1006
g71
g374
sg77
g375
sbsg79
g235
sg81
g145
sg77
g858
sba(ischedule
Activity
p1007
(dp1008
g8
g393
sg71
g368
sg72
g395
sg73
(iread_data
Room
p1009
(dp1010
g71
g198
sg77
g199
sbsg79
g144
sg81
g145
sg77
g82
sbaa(lp1011
(ischedule
Activity
p1012
(dp1013
g8
(lp1014
g597
ag318
ag170
ag157
ag44
ag324
ag128
ag553
ag317
ag316
ag104
ag643
ag666
aS'5526560'
p1015
ag48
ag492
ag320
ag63
ag285
ag31
aS'46989508'
p1016
ag327
ag30
ag312
aS'15187217'
p1017
ag439
ag165
ag179
ag298
ag611
ag576
ag325
ag299
ag331
ag322
ag246
ag167
ag590
ag66
ag22
ag319
ag329
ag315
aS'27123462'
p1018
ag771
ag313
ag323
ag659
ag554
ag489
ag50
ag240
ag328
ag311
ag321
ag408
ag330
ag332
ag152
ag723
ag69
ag24
ag252
ag614
aS'4529208'
p1019
ag13
ag122
ag314
aS'25077484'
p1020
ag804
ag28
ag326
asg71
I1000
sg72
Nsg73
(iread_data
Room
p1021
(dp1022
g71
g76
sg77
g78
sbsg79
g80
sg81
I0
sg77
g339
sba(ischedule
Activity
p1023
(dp1024
g8
(lp1025
g127
ag786
ag176
ag286
ag787
ag174
ag616
asg71
g675
sg72
(ischedule
Group
p1026
(dp1027
g8
g1025
sg77
S'Technology for games2'
p1028
sbsg73
(iread_data
Room
p1029
(dp1030
g71
g233
sg77
g234
sbsg79
g144
sg81
g145
sg77
g681
sba(ischedule
Activity
p1031
(dp1032
g8
g939
sg71
g861
sg72
g947
sg73
(iread_data
Room
p1033
(dp1034
g71
g257
sg77
g258
sbsg79
g144
sg81
g145
sg77
g499
sba(ischedule
Activity
p1035
(dp1036
g8
(lp1037
S'14941752'
p1038
ag168
ag263
ag435
ag760
ag318
ag641
aS'98105190'
p1039
ag281
ag151
ag60
ag42
ag220
ag749
ag206
ag135
ag659
ag663
aS'76393508'
p1040
ag250
ag16
ag726
ag23
ag510
aS'87210640'
p1041
ag265
ag121
ag119
ag297
aS'4353500'
p1042
ag212
aS'45660925'
p1043
aS'53775014'
p1044
ag507
ag175
aS'97417002'
p1045
aS'19858730'
p1046
ag36
ag643
aS'79879876'
p1047
ag892
ag180
ag181
ag723
asg71
I1000
sg72
Nsg73
(iread_data
Room
p1048
(dp1049
g71
g374
sg77
g375
sbsg79
g80
sg81
I0
sg77
S'Heuristieken 1'
p1050
sba(ischedule
Activity
p1051
(dp1052
g8
g342
sg71
I1000
sg72
Nsg73
(iread_data
Room
p1053
(dp1054
g71
g198
sg77
g199
sbsg79
g80
sg81
I0
sg77
g364
sba(ischedule
Activity
p1055
(dp1056
g8
(lp1057
g388
asg71
g136
sg72
(ischedule
Group
p1058
(dp1059
g8
g1057
sg77
S'Informatie- en organsatieontwerp1'
p1060
sbsg73
(iread_data
Room
p1061
(dp1062
g71
g362
sg77
g363
sbsg79
g144
sg81
g480
sg77
g146
sbaaa(lp1063
(lp1064
(ischedule
Activity
p1065
(dp1066
g8
(lp1067
g86
ag743
aS'51415617'
p1068
ag551
ag454
ag491
ag409
ag343
ag153
ag835
ag313
ag315
ag738
aS'36213792'
p1069
ag931
ag663
ag166
ag175
ag119
ag174
ag411
aS'51052738'
p1070
ag912
ag293
ag412
ag350
ag289
ag241
ag246
ag150
ag264
ag929
ag691
ag410
ag930
ag547
ag465
ag22
ag24
ag883
aS'20095994'
p1071
ag176
ag247
ag928
ag408
ag216
ag833
ag164
ag357
ag556
ag193
asg71
I1000
sg72
Nsg73
(iread_data
Room
p1072
(dp1073
g71
g76
sg77
g78
sbsg79
g80
sg81
I0
sg77
g419
sba(ischedule
Activity
p1074
(dp1075
g8
g503
sg71
I1000
sg72
Nsg73
(iread_data
Room
p1076
(dp1077
g71
g112
sg77
g113
sbsg79
g80
sg81
I0
sg77
g532
sba(ischedule
Activity
p1078
(dp1079
g8
(lp1080
g641
ag52
ag644
ag612
ag468
ag440
ag247
ag108
ag120
ag68
ag515
ag94
ag611
ag298
ag96
ag466
ag28
ag615
ag458
ag613
ag459
ag46
ag614
ag355
ag640
ag35
ag649
ag288
ag648
ag643
ag216
ag645
ag650
ag642
ag207
ag451
ag92
ag313
ag646
ag553
ag314
ag616
ag647
asg71
I1000
sg72
Nsg73
(iread_data
Room
p1081
(dp1082
g71
S'56'
p1083
sg77
S'A1.10'
p1084
sbsg79
g80
sg81
I0
sg77
g623
sba(ischedule
Activity
p1085
(dp1086
g8
g1057
sg71
S'15'
p1087
sg72
g1058
sg73
(iread_data
Room
p1088
(dp1089
g71
g142
sg77
g143
sbsg79
g235
sg81
g480
sg77
g146
sba(ischedule
Activity
p1090
(dp1091
g8
(lp1092
g36
ag118
ag553
ag16
ag521
ag548
ag945
ag485
ag487
ag296
ag944
ag489
ag490
ag122
ag943
ag552
ag848
ag673
ag554
ag555
ag453
ag168
ag946
ag549
ag31
ag209
ag358
ag22
ag550
ag557
ag492
ag346
ag551
ag547
ag546
ag940
ag942
ag488
ag44
ag486
ag659
ag559
ag560
ag941
ag167
ag491
ag161
ag561
ag545
ag32
ag451
ag133
ag558
ag556
asg71
I1000
sg72
Nsg73
(iread_data
Room
p1093
(dp1094
g71
g233
sg77
g234
sbsg79
g80
sg81
I0
sg77
g499
sba(ischedule
Activity
p1095
(dp1096
g8
g882
sg71
S'20'
p1097
sg72
g884
sg73
(iread_data
Room
p1098
(dp1099
g71
g272
sg77
g273
sbsg79
g235
sg81
g480
sg77
g782
sba(ischedule
Activity
p1100
(dp1101
g8
(lp1102
g836
ag686
ag161
ag283
ag457
ag252
ag832
asg71
g579
sg72
(ischedule
Group
p1103
(dp1104
g8
g1102
sg77
S'Bioinformatica2'
p1105
sbsg73
(iread_data
Room
p1106
(dp1107
g71
g257
sg77
g258
sbsg79
g235
sg81
g145
sg77
g585
sbaa(lp1108
(ischedule
Activity
p1109
(dp1110
g8
(lp1111
g251
ag319
ag911
ag154
aS'88855695'
p1112
ag426
aS'58253841'
p1113
ag168
ag509
ag52
ag453
ag710
ag555
ag250
ag42
ag332
ag123
ag317
ag466
aS'55530367'
p1114
ag355
ag708
ag25
aS'11593163'
p1115
aS'6709529'
p1116
ag21
ag524
aS'62363761'
p1117
ag87
ag67
ag463
ag940
aS'53139134'
p1118
ag324
ag97
ag553
aS'56348773'
p1119
ag207
aS'75446434'
p1120
ag847
aS'77306636'
p1121
ag462
ag292
ag724
ag316
aS'61520025'
p1122
ag742
ag240
ag740
aS'82412626'
p1123
ag161
ag485
ag290
ag552
ag165
ag646
aS'22168693'
p1124
aS'93361408'
p1125
aS'19717077'
p1126
aS'34173695'
p1127
ag752
ag504
ag848
ag160
ag224
ag528
ag560
ag151
ag169
aS'59220392'
p1128
ag253
ag709
ag730
ag190
ag103
ag323
ag1000
ag55
ag830
aS'75623387'
p1129
ag195
ag326
aS'79888156'
p1130
ag471
ag343
ag301
aS'10609762'
p1131
ag352
ag185
ag321
aS'72526473'
p1132
ag835
ag507
ag627
ag577
ag318
aS'14179347'
p1133
ag294
aS'65978354'
p1134
ag70
aS'23628642'
p1135
ag107
ag322
aS'31306819'
p1136
ag707
ag736
asg71
I1000
sg72
Nsg73
(iread_data
Room
p1137
(dp1138
g71
g76
sg77
g78
sbsg79
g80
sg81
I0
sg77
g636
sba(ischedule
Activity
p1139
(dp1140
g8
(lp1141
g576
ag439
ag723
ag22
ag30
ag285
ag590
ag553
ag1015
ag1016
ag408
ag44
ag66
ag179
ag50
ag1019
ag252
ag13
ag1020
ag1017
ag1018
ag299
ag128
ag69
ag122
ag614
ag48
ag666
ag771
ag63
ag643
ag492
ag611
ag804
ag157
ag597
ag489
ag659
ag554
asg71
g333
sg72
(ischedule
Group
p1142
(dp1143
g8
g1141
sg77
S'Databases 21'
p1144
sbsg73
(iread_data
Room
p1145
(dp1146
g71
S'48'
p1147
sg77
S'B0.201'
p1148
sbsg79
g144
sg81
g480
sg77
g339
sba(ischedule
Activity
p1149
(dp1150
g8
g758
sg71
g1097
sg72
g777
sg73
(iread_data
Room
p1151
(dp1152
g71
g374
sg77
g375
sbsg79
g235
sg81
g145
sg77
g782
sba(ischedule
Activity
p1153
(dp1154
g8
g262
sg71
S'10'
p1155
sg72
g267
sg73
(iread_data
Room
p1156
(dp1157
g71
g257
sg77
g258
sbsg79
g144
sg81
g274
sg77
g275
sba(ischedule
Activity
p1158
(dp1159
g8
(lp1160
S'61611295'
p1161
ag298
ag1046
ag686
ag452
asg71
g841
sg72
(ischedule
Group
p1162
(dp1163
g8
g1160
sg77
S'Autonomous Agents 22'
p1164
sbsg73
(iread_data
Room
p1165
(dp1166
g71
g198
sg77
g199
sbsg79
g235
sg81
g145
sg77
g799
sba(ischedule
Activity
p1167
(dp1168
g8
g698
sg71
g368
sg72
g699
sg73
(iread_data
Room
p1169
(dp1170
g71
g362
sg77
g363
sbsg79
g144
sg81
g480
sg77
g82
sba(ischedule
Activity
p1171
(dp1172
g8
g802
sg71
g841
sg72
g808
sg73
(iread_data
Room
p1173
(dp1174
g71
g272
sg77
g273
sbsg79
g235
sg81
g274
sg77
g799
sbaa(lp1175
(ischedule
Activity
p1176
(dp1177
g8
(lp1178
g15
ag68
ag707
ag296
ag673
ag807
aS'95631564'
p1179
ag998
aS'9287708'
p1180
aS'82872148'
p1181
ag59
ag490
ag733
ag97
ag545
ag288
ag574
ag351
ag575
ag511
ag212
asg71
S'40'
p1182
sg72
(ischedule
Group
p1183
(dp1184
g8
g1178
sg77
S'Software engineering2'
p1185
sbsg73
(iread_data
Room
p1186
(dp1187
g71
g257
sg77
g258
sbsg79
g235
sg81
g145
sg77
g481
sba(ischedule
Activity
p1188
(dp1189
g8
(lp1190
g556
ag547
ag22
ag175
ag1068
ag164
ag912
ag691
ag24
ag551
ag465
ag313
ag743
ag491
ag1069
ag293
ag264
ag1070
ag1071
asg71
g413
sg72
(ischedule
Group
p1191
(dp1192
g8
g1190
sg77
S'Reflectie op de digitale cultuur1'
p1193
sbsg73
(iread_data
Room
p1194
(dp1195
g71
g305
sg77
g306
sbsg79
g144
sg81
g480
sg77
g419
sba(ischedule
Activity
p1196
(dp1197
g8
(lp1198
g62
ag627
ag834
ag1042
ag300
ag121
aS'19058315'
p1199
ag153
ag88
asg71
g600
sg72
(ischedule
Group
p1200
(dp1201
g8
g1198
sg77
S'Netwerken en systeembeveiliging1'
p1202
sbsg73
(iread_data
Room
p1203
(dp1204
g71
g374
sg77
g375
sbsg79
g235
sg81
g480
sg77
g606
sba(ischedule
Activity
p1205
(dp1206
g8
g639
sg71
g922
sg72
g651
sg73
(iread_data
Room
p1207
(dp1208
g71
g233
sg77
g234
sbsg79
g144
sg81
g480
sg77
g623
sbaa(lp1209
(ischedule
Activity
p1210
(dp1211
g8
g720
sg71
I1000
sg72
Nsg73
(iread_data
Room
p1212
(dp1213
g71
g76
sg77
g78
sbsg79
g80
sg81
I0
sg77
g755
sba(ischedule
Activity
p1214
(dp1215
g8
(lp1216
g347
ag1112
ag245
ag943
aS'34110913'
p1217
ag454
ag331
ag574
ag555
aS'79033175'
p1218
ag356
ag34
ag1016
ag595
ag182
aS'88636924'
p1219
ag328
aS'13284244'
p1220
ag874
aS'75759231'
p1221
ag660
ag452
aS'94687383'
p1222
ag561
ag218
ag520
ag313
ag37
ag19
aS'43689934'
p1223
ag662
ag1179
ag156
ag908
ag851
ag448
aS'9067939'
p1224
ag101
ag1039
ag616
ag40
ag673
ag944
ag118
ag849
ag577
ag96
aS'95007221'
p1225
aS'76802764'
p1226
aS'65852230'
p1227
ag996
asg71
g958
sg72
(ischedule
Group
p1228
(dp1229
g8
g1216
sg77
S'Compilerbouw2'
p1230
sbsg73
(iread_data
Room
p1231
(dp1232
g71
g1083
sg77
g1084
sbsg79
g235
sg81
g145
sg77
g964
sba(ischedule
Activity
p1233
(dp1234
g8
(lp1235
g516
ag11
ag746
ag883
ag442
ag150
ag770
ag671
ag53
ag736
ag768
ag455
ag775
ag767
ag614
ag224
ag762
ag774
ag759
ag644
ag296
ag766
ag106
ag773
ag102
ag769
ag490
ag761
ag765
ag760
ag772
ag763
ag771
ag30
ag515
ag55
ag253
ag666
ag764
asg71
I1000
sg72
Nsg73
(iread_data
Room
p1236
(dp1237
g71
g374
sg77
g375
sbsg79
g80
sg81
I0
sg77
g782
sba(ischedule
Activity
p1238
(dp1239
g8
(lp1240
g517
ag436
ag646
ag169
ag31
ag803
ag457
ag439
ag686
ag806
ag121
ag805
ag328
ag807
ag1161
ag298
ag1046
ag452
ag804
ag175
ag663
ag522
asg71
I1000
sg72
Nsg73
(iread_data
Room
p1241
(dp1242
g71
g233
sg77
g234
sbsg79
g80
sg81
I0
sg77
g799
sba(ischedule
Activity
p1243
(dp1244
g8
g367
sg71
g394
sg72
g369
sg73
(iread_data
Room
p1245
(dp1246
g71
g362
sg77
g363
sbsg79
g235
sg81
g274
sg77
g82
sba(ischedule
Activity
p1247
(dp1248
g8
(lp1249
S'82066165'
p1250
ag473
asg71
g227
sg72
(ischedule
Group
p1251
(dp1252
g8
g1249
sg77
S'Compilerbouw practicum1'
p1253
sbsg73
(iread_data
Room
p1254
(dp1255
g71
g272
sg77
g273
sbsg79
g235
sg81
g480
sg77
g236
sbaa(lp1256
(ischedule
Activity
p1257
(dp1258
g8
g1216
sg71
S'40'
p1259
sg72
g1228
sg73
(iread_data
Room
p1260
(dp1261
g71
g112
sg77
g113
sbsg79
g144
sg81
g145
sg77
g964
sba(ischedule
Activity
p1262
(dp1263
g8
(lp1264
g730
ag453
ag195
ag355
ag1125
ag507
ag1114
ag190
ag560
ag1133
ag42
ag165
ag553
ag185
ag1112
ag466
ag294
ag848
ag292
ag740
ag463
ag1126
ag1123
ag1129
ag1131
ag426
ag168
ag97
ag1128
ag103
ag240
ag160
ag67
ag323
ag752
ag1113
ag1117
ag151
ag1122
ag317
ag940
ag253
ag290
ag154
ag1135
ag251
ag70
ag742
ag835
ag55
ag318
ag324
ag724
ag1116
ag1120
ag321
ag736
ag830
ag528
ag21
ag1124
ag326
ag462
ag319
ag52
ag1127
ag1000
ag301
ag847
ag504
ag1132
ag250
ag509
ag207
ag1136
ag555
ag1121
ag123
ag646
ag1134
ag1115
ag577
ag1130
ag352
ag87
ag1119
ag1118
ag911
asg71
g628
sg72
(ischedule
Group
p1265
(dp1266
g8
g1264
sg77
S'Calculus 23'
p1267
sbsg73
(iread_data
Room
p1268
(dp1269
g71
g76
sg77
g78
sbsg79
g144
sg81
g274
sg77
g636
sba(ischedule
Activity
p1270
(dp1271
g8
g1235
sg71
I1000
sg72
Nsg73
(iread_data
Room
p1272
(dp1273
g71
g1147
sg77
g1148
sbsg79
g80
sg81
I0
sg77
g782
sba(ischedule
Activity
p1274
(dp1275
g8
g1240
sg71
I1000
sg72
Nsg73
(iread_data
Room
p1276
(dp1277
g71
g257
sg77
g258
sbsg79
g80
sg81
I0
sg77
g799
sba(ischedule
Activity
p1278
(dp1279
g8
g829
sg71
I1000
sg72
Nsg73
(iread_data
Room
p1280
(dp1281
g71
g198
sg77
g199
sbsg79
g80
sg81
I0
sg77
g585
sba(ischedule
Activity
p1282
(dp1283
g8
(lp1284
g956
ag89
ag244
ag1015
ag184
asg71
g985
sg72
(ischedule
Group
p1285
(dp1286
g8
g1284
sg77
S'Project Genetic Algorithms3'
p1287
sbsg73
(iread_data
Room
p1288
(dp1289
g71
g272
sg77
g273
sbsg79
g235
sg81
g274
sg77
g991
sba(ischedule
Activity
p1290
(dp1291
g8
(lp1292
g51
asg71
g536
sg72
(ischedule
Group
p1293
(dp1294
g8
g1292
sg77
S'Advanced Heuristics1'
p1295
sbsg73
(iread_data
Room
p1296
(dp1297
g71
g362
sg77
g363
sbsg79
g235
sg81
g480
sg77
g259
sbaaa(lp1298
(lp1299
(ischedule
Activity
p1300
(dp1301
g8
(lp1302
g1222
ag847
ag520
ag874
ag118
ag65
ag454
ag644
ag331
ag595
ag577
ag19
ag740
ag1218
ag1219
ag574
ag1179
ag313
ag245
ag957
ag41
ag673
ag1223
ag908
ag1224
ag1225
ag96
ag107
ag347
ag40
ag34
ag1227
ag1220
ag804
ag660
ag956
ag578
ag448
ag1217
ag1039
ag13
ag37
ag182
ag662
ag156
ag209
ag849
ag996
ag452
ag762
ag1016
ag359
ag944
ag289
ag1112
ag555
ag218
ag1221
ag616
ag561
ag873
ag101
ag1226
ag356
ag943
ag328
ag352
ag851
ag324
asg71
I1000
sg72
Nsg73
(iread_data
Room
p1303
(dp1304
g71
g76
sg77
g78
sbsg79
g80
sg81
I0
sg77
g964
sba(ischedule
Activity
p1305
(dp1306
g8
g967
sg71
I1000
sg72
Nsg73
(iread_data
Room
p1307
(dp1308
g71
g233
sg77
g234
sbsg79
g80
sg81
I0
sg77
g972
sba(ischedule
Activity
p1309
(dp1310
g8
g434
sg71
g1182
sg72
g475
sg73
(iread_data
Room
p1311
(dp1312
g71
g374
sg77
g375
sbsg79
g235
sg81
g480
sg77
g481
sba(ischedule
Activity
p1313
(dp1314
g8
(lp1315
g831
ag172
ag762
ag41
ag88
ag322
ag35
ag192
ag723
ag830
ag835
ag492
ag834
ag650
ag507
ag552
ag556
ag254
ag592
ag63
ag833
asg71
g579
sg72
(ischedule
Group
p1316
(dp1317
g8
g1315
sg77
S'Bioinformatica1'
p1318
sbsg73
(iread_data
Room
p1319
(dp1320
g71
g198
sg77
g199
sbsg79
g235
sg81
g480
sg77
g585
sba(ischedule
Activity
p1321
(dp1322
g8
g1160
sg71
g793
sg72
g1162
sg73
(iread_data
Room
p1323
(dp1324
g71
g362
sg77
g363
sbsg79
g144
sg81
g145
sg77
g799
sba(ischedule
Activity
p1325
(dp1326
g8
g1178
sg71
g474
sg72
g1183
sg73
(iread_data
Room
p1327
(dp1328
g71
g257
sg77
g258
sbsg79
g144
sg81
g145
sg77
g481
sba(ischedule
Activity
p1329
(dp1330
g8
(lp1331
g86
asg71
g852
sg72
(ischedule
Group
p1332
(dp1333
g8
g1331
sg77
S'Programmeren in Java 26'
p1334
sbsg73
(iread_data
Room
p1335
(dp1336
g71
g272
sg77
g273
sbsg79
g235
sg81
S'6'
p1337
sg77
g858
sbaa(lp1338
(ischedule
Activity
p1339
(dp1340
g8
g1302
sg71
I1000
sg72
Nsg73
(iread_data
Room
p1341
(dp1342
g71
g76
sg77
g78
sbsg79
g80
sg81
I0
sg77
g964
sba(ischedule
Activity
p1343
(dp1344
g8
(lp1345
g663
ag36
ag119
ag1040
ag1043
ag726
ag23
ag168
ag723
ag220
ag60
ag181
ag435
ag135
ag1042
ag121
ag297
ag1038
ag507
ag263
ag659
asg71
S'25'
p1346
sg72
(ischedule
Group
p1347
(dp1348
g8
g1345
sg77
S'Heuristieken 12'
p1349
sbsg73
(iread_data
Room
p1350
(dp1351
g71
g1083
sg77
g1084
sbsg79
g144
sg81
g145
sg77
g1050
sba(ischedule
Activity
p1352
(dp1353
g8
g815
sg71
g1155
sg72
g816
sg73
(iread_data
Room
p1354
(dp1355
g71
g362
sg77
g363
sbsg79
g144
sg81
g480
sg77
g275
sba(ischedule
Activity
p1356
(dp1357
g8
g422
sg71
g1155
sg72
g427
sg73
(iread_data
Room
p1358
(dp1359
g71
g257
sg77
g258
sbsg79
g144
sg81
g145
sg77
g275
sba(ischedule
Activity
p1360
(dp1361
g8
(lp1362
g42
ag250
ag1041
ag1046
ag760
ag16
ag206
ag281
ag180
ag318
ag1039
ag749
ag175
ag1045
ag643
ag1044
ag151
ag892
ag212
ag510
ag641
ag265
ag1047
asg71
g1346
sg72
(ischedule
Group
p1363
(dp1364
g8
g1362
sg77
S'Heuristieken 11'
p1365
sbsg73
(iread_data
Room
p1366
(dp1367
g71
g374
sg77
g375
sbsg79
g144
sg81
g480
sg77
g1050
sba(ischedule
Activity
p1368
(dp1369
g8
(lp1370
g50
ag735
ag908
ag1047
aS'73893840'
p1371
aS'90296821'
p1372
ag164
ag344
aS'28943658'
p1373
ag295
ag11
ag290
ag120
ag100
ag511
ag770
aS'7386961'
p1374
aS'10702778'
p1375
ag65
ag35
ag456
ag438
ag1222
asg71
g852
sg72
(ischedule
Group
p1376
(dp1377
g8
g1370
sg77
S'Programmeren in Java 21'
p1378
sbsg73
(iread_data
Room
p1379
(dp1380
g71
g233
sg77
g234
sbsg79
g235
sg81
g480
sg77
g858
sbaa(lp1381
(ischedule
Activity
p1382
(dp1383
g8
g829
sg71
I1000
sg72
Nsg73
(iread_data
Room
p1384
(dp1385
g71
g233
sg77
g234
sbsg79
g80
sg81
I0
sg77
g585
sba(ischedule
Activity
p1386
(dp1387
g8
g785
sg71
I1000
sg72
Nsg73
(iread_data
Room
p1388
(dp1389
g71
g257
sg77
g258
sbsg79
g80
sg81
I0
sg77
g681
sba(ischedule
Activity
p1390
(dp1391
g8
(lp1392
g150
ag70
ag291
ag287
ag293
ag289
ag288
ag297
ag285
ag296
ag189
ag300
ag284
ag248
ag169
ag298
ag11
ag94
ag48
ag283
ag282
ag290
ag295
ag280
ag294
asg71
S'20'
p1393
sg72
(ischedule
Group
p1394
(dp1395
g8
g1392
sg77
S'Heuristieken 21'
p1396
sbsg73
(iread_data
Room
p1397
(dp1398
g71
g374
sg77
g375
sbsg79
g144
sg81
g480
sg77
g307
sba(ischedule
Activity
p1399
(dp1400
g8
(lp1401
g438
aS'53267490'
p1402
ag749
ag647
aS'63573738'
p1403
ag491
asg71
g600
sg72
(ischedule
Group
p1404
(dp1405
g8
g1401
sg77
S'Netwerken en systeembeveiliging2'
p1406
sbsg73
(iread_data
Room
p1407
(dp1408
g71
g272
sg77
g273
sbsg79
g235
sg81
g145
sg77
g606
sba(ischedule
Activity
p1409
(dp1410
g8
(lp1411
S'535689'
p1412
ag251
ag241
ag1181
ag96
ag945
ag709
ag243
ag874
ag423
ag129
ag1117
aS'16912993'
p1413
ag689
ag50
ag208
ag883
ag351
ag641
ag643
ag836
ag660
ag459
aS'123355'
p1414
ag329
ag28
ag191
ag156
ag60
asg71
g600
sg72
(ischedule
Group
p1415
(dp1416
g8
g1411
sg77
S'Netwerken en systeembeveiliging4'
p1417
sbsg73
(iread_data
Room
p1418
(dp1419
g71
g305
sg77
g306
sbsg79
g235
sg81
g384
sg77
g606
sbaa(lp1420
(ischedule
Activity
p1421
(dp1422
g8
g85
sg71
I1000
sg72
Nsg73
(iread_data
Room
p1423
(dp1424
g71
g198
sg77
g199
sbsg79
g80
sg81
I0
sg77
g114
sba(ischedule
Activity
p1425
(dp1426
g8
(lp1427
g1220
aS'32183908'
p1428
ag300
ag644
ag62
ag520
ag250
ag34
ag1403
ag928
aS'63939720'
p1429
ag807
aS'81116418'
p1430
ag1038
ag325
ag24
aS'40911986'
p1431
ag467
asg71
g913
sg72
(ischedule
Group
p1432
(dp1433
g8
g1427
sg77
S'Project Numerical Recipes1'
p1434
sbsg73
(iread_data
Room
p1435
(dp1436
g71
g272
sg77
g273
sbsg79
g235
sg81
g480
sg77
g919
sba(ischedule
Activity
p1437
(dp1438
g8
(lp1439
g589
ag19
ag551
ag454
ag647
ag189
ag344
ag1250
aS'75680261'
p1440
ag1113
ag107
ag153
ag221
ag578
ag319
ag1020
ag301
ag167
ag545
ag1133
ag59
asg71
g985
sg72
(ischedule
Group
p1441
(dp1442
g8
g1439
sg77
S'Project Genetic Algorithms2'
p1443
sbsg73
(iread_data
Room
p1444
(dp1445
g71
g362
sg77
g363
sbsg79
g235
sg81
g145
sg77
g991
sba(ischedule
Activity
p1446
(dp1447
g8
g1315
sg71
g823
sg72
g1316
sg73
(iread_data
Room
p1448
(dp1449
g71
g374
sg77
g375
sbsg79
g144
sg81
g480
sg77
g585
sba(ischedule
Activity
p1450
(dp1451
g8
(lp1452
g37
ag350
aS'19662602'
p1453
ag561
ag283
aS'21070547'
p1454
asg71
g913
sg72
(ischedule
Group
p1455
(dp1456
g8
g1452
sg77
S'Project Numerical Recipes2'
p1457
sbsg73
(iread_data
Room
p1458
(dp1459
g71
g233
sg77
g234
sbsg79
g235
sg81
g145
sg77
g919
sba(ischedule
Activity
p1460
(dp1461
g8
g1102
sg71
g823
sg72
g1103
sg73
(iread_data
Room
p1462
(dp1463
g71
g305
sg77
g306
sbsg79
g144
sg81
g145
sg77
g585
sba(ischedule
Activity
p1464
(dp1465
g8
(lp1466
g640
ag997
ag1412
ag251
aS'42297781'
p1467
ag68
ag46
ag134
ag290
ag66
ag45
ag575
asg71
g227
sg72
(ischedule
Group
p1468
(dp1469
g8
g1466
sg77
S'Compilerbouw practicum3'
p1470
sbsg73
(iread_data
Room
p1471
(dp1472
g71
g257
sg77
g258
sbsg79
g235
sg81
g274
sg77
g236
sbaa(lp1473
(ischedule
Activity
p1474
(dp1475
g8
(lp1476
g446
ag456
ag212
ag465
ag175
ag441
ag442
ag443
ag38
ag34
ag459
ag707
ag439
ag471
ag42
ag455
ag458
ag574
ag807
ag472
ag97
ag460
ag68
ag469
ag451
ag453
ag263
ag186
ag457
ag464
ag351
ag436
ag449
ag490
ag450
ag445
ag511
ag545
ag1179
ag470
ag448
ag998
ag467
ag15
ag59
ag177
ag440
ag444
ag461
ag1181
ag452
ag54
ag435
ag733
ag463
ag216
ag473
ag288
ag437
ag166
ag454
ag466
ag160
ag50
ag151
ag673
ag1180
ag462
ag296
ag162
ag344
ag468
ag575
ag438
ag447
asg71
I1000
sg72
Nsg73
(iread_data
Room
p1477
(dp1478
g71
g76
sg77
g78
sbsg79
g80
sg81
I0
sg77
g481
sba(ischedule
Activity
p1479
(dp1480
g8
g1067
sg71
I1000
sg72
Nsg73
(iread_data
Room
p1481
(dp1482
g71
g1083
sg77
g1084
sbsg79
g80
sg81
I0
sg77
g419
sba(ischedule
Activity
p1483
(dp1484
g8
g117
sg71
g1087
sg72
g137
sg73
(iread_data
Room
p1485
(dp1486
g71
g634
sg77
g635
sbsg79
g235
sg81
g145
sg77
g146
sba(ischedule
Activity
p1487
(dp1488
g8
(lp1489
g88
ag286
ag301
ag292
ag302
ag299
ag281
asg71
g1393
sg72
(ischedule
Group
p1490
(dp1491
g8
g1489
sg77
S'Heuristieken 22'
p1492
sbsg73
(iread_data
Room
p1493
(dp1494
g71
g233
sg77
g234
sbsg79
g144
sg81
g145
sg77
g307
sba(ischedule
Activity
p1495
(dp1496
g8
g484
sg71
g861
sg72
g494
sg73
(iread_data
Room
p1497
(dp1498
g71
g272
sg77
g273
sbsg79
g144
sg81
g274
sg77
g499
sba(ischedule
Activity
p1499
(dp1500
g8
g955
sg71
g1259
sg72
g959
sg73
(iread_data
Room
p1501
(dp1502
g71
g374
sg77
g375
sbsg79
g144
sg81
g480
sg77
g964
sbaaa(lp1503
(lp1504
a(lp1505
a(lp1506
a(lp1507
a(lp1508
aasS'timeslot_dict'
p1509
(dp1510
I0
S'9:00-11:00'
p1511
sI1
S'11:00-13:00'
p1512
sI2
S'13:00-15:00'
p1513
sI3
S'15:00-17:00'
p1514
sI4
S'17:00-19:00'
p1515
ssS'day_dict'
p1516
(dp1517
I0
S'Monday'
p1518
sI1
S'Tuesday'
p1519
sI2
S'Wednesday'
p1520
sI3
S'Thursday'
p1521
sI4
S'Friday'
p1522
ssb.