(ischedule
Schedule
p0
(dp1
S'timetable'
p2
(lp3
(lp4
(lp5
(ischedule
Activity
p6
(dp7
S'participants'
p8
(lp9
S'10149535'
p10
aS'43460038'
p11
aS'70015932'
p12
aS'29718115'
p13
aS'23798155'
p14
aS'83266686'
p15
aS'59289233'
p16
aS'89180944'
p17
aS'14138904'
p18
aS'58866007'
p19
aS'27925117'
p20
aS'20331158'
p21
aS'72683344'
p22
aS'40434933'
p23
aS'13798030'
p24
aS'34872117'
p25
aS'72577292'
p26
aS'82689818'
p27
aS'28618400'
p28
aS'45556081'
p29
aS'49683101'
p30
asS'capacity'
p31
I1000
sS'name'
p32
S'Architectuur en computerorganisatie'
p33
sS'ttype'
p34
S'lectures'
p35
sS'group_id'
p36
I0
sS'room'
p37
(iread_data
Room
p38
(dp39
g31
S'41'
p40
sg32
S'A1.04'
p41
sbsba(ischedule
Activity
p42
(dp43
g8
(lp44
S'3883025'
p45
aS'31247305'
p46
aS'5590289'
p47
aS'9731271'
p48
aS'70939718'
p49
aS'36903574'
p50
aS'48678993'
p51
aS'72665524'
p52
aS'70844780'
p53
aS'29640619'
p54
aS'4709948'
p55
ag28
aS'44901052'
p56
aS'14398123'
p57
aS'59075181'
p58
asg31
S'20'
p59
sg32
S'Netwerken en systeembeveiliging'
p60
sg34
S'labs'
p61
sg36
S'1'
p62
sg37
(iread_data
Room
p63
(dp64
g31
S'48'
p65
sg32
S'B0.201'
p66
sbsba(ischedule
Activity
p67
(dp68
g8
(lp69
S'34243356'
p70
aS'23658570'
p71
aS'77831658'
p72
aS'23565001'
p73
aS'65318664'
p74
aS'5595824'
p75
aS'33672995'
p76
ag51
aS'73302736'
p77
aS'62613937'
p78
aS'41578612'
p79
aS'97838175'
p80
aS'72456780'
p81
aS'60661905'
p82
aS'48357272'
p83
aS'14637758'
p84
aS'72586808'
p85
aS'13718298'
p86
aS'83443653'
p87
aS'70193386'
p88
aS'43027916'
p89
aS'80188025'
p90
aS'56815156'
p91
aS'18266644'
p92
aS'78822885'
p93
aS'64296965'
p94
aS'42115591'
p95
aS'56544130'
p96
aS'88737765'
p97
aS'73350019'
p98
aS'52311353'
p99
aS'16097870'
p100
aS'87830198'
p101
aS'75997788'
p102
aS'5085194'
p103
aS'18477924'
p104
aS'51542218'
p105
aS'82854435'
p106
aS'57086672'
p107
aS'58480929'
p108
aS'78821918'
p109
aS'97019450'
p110
aS'4921119'
p111
aS'34900967'
p112
aS'94955328'
p113
aS'22871048'
p114
aS'36785409'
p115
ag14
aS'85335143'
p116
asg31
I1000
sg32
S'Analysemethoden en -technieken'
p117
sg34
g35
sg36
I0
sg37
(iread_data
Room
p118
(dp119
g31
S'56'
p120
sg32
S'A1.10'
p121
sbsba(ischedule
Activity
p122
(dp123
g8
(lp124
S'81385263'
p125
aS'13911001'
p126
aS'9067939'
p127
aS'60312776'
p128
aS'5368702'
p129
aS'24613625'
p130
aS'6723948'
p131
ag75
aS'7957843'
p132
aS'3407554'
p133
aS'88855695'
p134
aS'73236988'
p135
aS'65852230'
p136
aS'2317551'
p137
aS'27187154'
p138
aS'2079771'
p139
aS'79033175'
p140
aS'48503689'
p141
aS'75664412'
p142
aS'94687383'
p143
aS'80135353'
p144
aS'98105190'
p145
aS'10792879'
p146
aS'31194811'
p147
aS'39459642'
p148
aS'42778953'
p149
aS'66701209'
p150
aS'84524083'
p151
aS'88636924'
p152
aS'86291592'
p153
aS'27950803'
p154
aS'48308205'
p155
aS'11915563'
p156
aS'15911353'
p157
aS'53202517'
p158
aS'68315599'
p159
aS'95007221'
p160
ag25
ag30
aS'14309255'
p161
aS'72895450'
p162
aS'37770881'
p163
aS'54772132'
p164
asg31
S'40'
p165
sg32
S'Compilerbouw'
p166
sg34
g61
sg36
g62
sg37
(iread_data
Room
p167
(dp168
g31
S'117'
p169
sg32
S'C0.110'
p170
sbsba(ischedule
Activity
p171
(dp172
g8
(lp173
S'37110913'
p174
aS'45414528'
p175
aS'81022997'
p176
aS'74131924'
p177
aS'17823206'
p178
aS'22323043'
p179
aS'13996448'
p180
ag99
aS'50143947'
p181
aS'37744525'
p182
aS'93023961'
p183
aS'98780382'
p184
aS'68360259'
p185
aS'59753700'
p186
aS'70878567'
p187
aS'91196968'
p188
aS'19337738'
p189
aS'97136582'
p190
aS'13116738'
p191
aS'21964491'
p192
aS'87900893'
p193
aS'81200278'
p194
aS'87314964'
p195
aS'51566595'
p196
aS'99453514'
p197
aS'25330192'
p198
aS'66122625'
p199
asg31
I1000
sg32
S'Data Mining'
p200
sg34
g35
sg36
I0
sg37
(iread_data
Room
p201
(dp202
g31
S'22'
p203
sg32
S'A1.06'
p204
sbsba(ischedule
Activity
p205
(dp206
g8
(lp207
S'59544049'
p208
aS'30195935'
p209
aS'247918'
p210
aS'56749879'
p211
ag130
aS'42196732'
p212
aS'14591033'
p213
aS'3168419'
p214
aS'15051051'
p215
aS'5298748'
p216
aS'21029457'
p217
aS'54026378'
p218
aS'79617364'
p219
aS'22826928'
p220
aS'7308727'
p221
asg31
S'20'
p222
sg32
S'Bioinformatica'
p223
sg34
g61
sg36
S'3'
p224
sg37
(iread_data
Room
p225
(dp226
g31
S'60'
p227
sg32
S'C1.112'
p228
sbsbaa(lp229
(ischedule
Activity
p230
(dp231
g8
(lp232
S'87602030'
p233
aS'35315956'
p234
ag176
aS'5739011'
p235
ag151
ag100
aS'82968410'
p236
aS'670011'
p237
ag89
aS'1886996'
p238
aS'31897288'
p239
ag194
aS'22731474'
p240
aS'85236626'
p241
aS'5976174'
p242
aS'34765676'
p243
aS'63634350'
p244
aS'33760909'
p245
aS'78243495'
p246
aS'58040377'
p247
aS'7106649'
p248
aS'58736785'
p249
ag20
aS'99975346'
p250
aS'52304977'
p251
aS'72652638'
p252
aS'15249775'
p253
aS'83869542'
p254
aS'61443567'
p255
ag107
ag196
ag51
asg31
I1000
sg32
S'Heuristieken 2'
p256
sg34
g35
sg36
I0
sg37
(iread_data
Room
p257
(dp258
g31
g227
sg32
g228
sbsba(ischedule
Activity
p259
(dp260
g8
(lp261
S'19958553'
p262
ag92
ag13
aS'11459236'
p263
aS'23257088'
p264
ag159
ag191
aS'17496687'
p265
aS'23983476'
p266
ag187
ag56
aS'8557857'
p267
aS'77636749'
p268
aS'75585647'
p269
asg31
S'15'
p270
sg32
S'Informatie- en organsatieontwerp'
p271
sg34
S'tutorials'
p272
sg36
g62
sg37
g167
sba(ischedule
Activity
p273
(dp274
g8
(lp275
S'69459473'
p276
aS'5615125'
p277
aS'41790793'
p278
ag23
aS'27064249'
p279
ag26
aS'14847953'
p280
ag158
aS'33877725'
p281
ag162
aS'94930277'
p282
ag11
ag107
aS'1137946'
p283
aS'43902015'
p284
aS'3474870'
p285
aS'16333449'
p286
ag255
ag17
aS'2416751'
p287
aS'76123484'
p288
aS'28358060'
p289
asg31
S'20'
p290
sg32
S'Webprogrammeren en databases'
p291
sg34
g272
sg36
g62
sg37
(iread_data
Room
p292
(dp293
g31
g203
sg32
g204
sbsba(ischedule
Activity
p294
(dp295
g8
(lp296
S'81116418'
p297
ag149
aS'90103047'
p298
aS'19662602'
p299
aS'89338938'
p300
aS'63573738'
p301
aS'42406214'
p302
aS'34691309'
p303
aS'19214659'
p304
aS'62356458'
p305
aS'13092455'
p306
ag180
aS'40911986'
p307
ag162
aS'12430748'
p308
aS'1766560'
p309
ag141
aS'37419523'
p310
ag72
aS'32183908'
p311
asg31
S'15'
p312
sg32
S'Project Numerical Recipes'
p313
sg34
g61
sg36
g62
sg37
(iread_data
Room
p314
(dp315
g31
S'20'
p316
sg32
S'A1.08'
p317
sbsba(ischedule
Activity
p318
(dp319
g8
(lp320
S'43680781'
p321
ag281
aS'30050930'
p322
aS'6913074'
p323
aS'28359697'
p324
aS'11068043'
p325
aS'88176729'
p326
ag220
ag194
ag135
aS'89985072'
p327
ag131
ag158
aS'33930505'
p328
asg31
S'20'
p329
sg32
g223
sg34
g272
sg36
g62
sg37
(iread_data
Room
p330
(dp331
g31
g120
sg32
g121
sbsba(ischedule
Activity
p332
(dp333
g8
(lp334
g10
ag99
aS'21311067'
p335
ag213
ag70
ag111
ag149
aS'79937969'
p336
aS'81218347'
p337
aS'93566383'
p338
aS'54074680'
p339
aS'31416266'
p340
aS'96118484'
p341
aS'66570705'
p342
ag219
ag19
ag286
ag113
aS'55474917'
p343
ag237
aS'75005528'
p344
aS'71839156'
p345
ag155
aS'36508571'
p346
aS'32595335'
p347
aS'38499176'
p348
ag285
aS'80998260'
p349
ag125
ag212
aS'26172512'
p350
aS'56872729'
p351
aS'61060652'
p352
aS'94686490'
p353
aS'68409833'
p354
aS'55412918'
p355
aS'16011419'
p356
ag95
ag100
ag73
aS'90743504'
p357
aS'83210352'
p358
aS'80709893'
p359
aS'77896638'
p360
aS'87758823'
p361
aS'5517869'
p362
aS'74182182'
p363
aS'37399898'
p364
aS'34588570'
p365
aS'62872965'
p366
ag188
ag79
aS'35330349'
p367
aS'36527838'
p368
asg31
I1000
sg32
S'Lineaire Algebra'
p369
sg34
g35
sg36
I0
sg37
(iread_data
Room
p370
(dp371
g31
g40
sg32
g41
sbsba(ischedule
Activity
p372
(dp373
g8
(lp374
S'73980360'
p375
ag245
aS'29474737'
p376
aS'34773179'
p377
ag192
aS'23547619'
p378
aS'42171678'
p379
aS'53107172'
p380
aS'3233378'
p381
ag54
aS'28357474'
p382
aS'1075391'
p383
ag89
aS'75521763'
p384
aS'64228258'
p385
asg31
S'20'
p386
sg32
S'Collectieve Intelligentie'
p387
sg34
g61
sg36
S'4'
p388
sg37
(iread_data
Room
p389
(dp390
g31
g65
sg32
g66
sbsbaa(lp391
(ischedule
Activity
p392
(dp393
g8
(lp394
g115
aS'26406342'
p395
ag321
ag161
aS'6249823'
p396
aS'4697362'
p397
ag79
ag56
aS'14383795'
p398
ag142
ag268
aS'76487754'
p399
ag10
ag159
aS'9332762'
p400
ag116
ag308
ag300
aS'70336464'
p401
ag155
aS'58565406'
p402
ag179
aS'92496780'
p403
aS'12077419'
p404
ag384
aS'11996292'
p405
ag174
aS'32204977'
p406
aS'47982619'
p407
aS'69086548'
p408
aS'77264363'
p409
aS'93041523'
p410
ag378
aS'97371272'
p411
ag23
ag248
ag147
aS'21192048'
p412
asg31
I1000
sg32
S'Technology for games'
p413
sg34
g35
sg36
I0
sg37
g257
sba(ischedule
Activity
p414
(dp415
g8
(lp416
S'99283252'
p417
ag128
ag218
aS'65408517'
p418
ag54
aS'96554914'
p419
ag114
aS'94467156'
p420
aS'40343779'
p421
ag154
ag179
ag327
aS'52552718'
p422
aS'77376714'
p423
ag246
aS'37830626'
p424
aS'9287708'
p425
aS'58074656'
p426
aS'44671041'
p427
aS'27582862'
p428
ag83
aS'78443067'
p429
aS'3727435'
p430
ag182
aS'14671406'
p431
ag135
ag358
ag74
ag359
aS'31103066'
p432
ag11
aS'48601268'
p433
aS'1048485'
p434
ag181
ag12
asg31
S'40'
p435
sg32
S'Software engineering'
p436
sg34
g272
sg36
S'2'
p437
sg37
(iread_data
Room
p438
(dp439
g31
g65
sg32
g66
sbsba(ischedule
Activity
p440
(dp441
g8
(lp442
g321
ag216
ag323
ag82
aS'24277163'
p443
aS'77960666'
p444
ag88
aS'20239127'
p445
aS'27370083'
p446
aS'36213792'
p447
aS'32044893'
p448
aS'86988337'
p449
aS'82390428'
p450
ag79
aS'27805666'
p451
ag250
aS'52715680'
p452
asg31
S'20'
p453
sg32
S'Reflectie op de digitale cultuur'
p454
sg34
g272
sg36
g224
sg37
g38
sba(ischedule
Activity
p455
(dp456
g8
(lp457
g174
ag177
ag185
ag188
ag194
ag197
ag189
asg31
S'10'
p458
sg32
g200
sg34
g61
sg36
g62
sg37
g167
sba(ischedule
Activity
p459
(dp460
g8
(lp461
g419
aS'92778619'
p462
ag197
aS'20095994'
p463
aS'49922855'
p464
aS'60352393'
p465
ag186
ag53
ag107
aS'51052738'
p466
aS'68286356'
p467
ag86
ag114
ag302
aS'61518436'
p468
ag174
asg31
g453
sg32
g454
sg34
g272
sg36
g437
sg37
(iread_data
Room
p469
(dp470
g31
g203
sg32
g204
sbsba(ischedule
Activity
p471
(dp472
g8
(lp473
g163
aS'4783858'
p474
ag181
aS'62701040'
p475
ag221
ag360
ag340
aS'64393888'
p476
aS'25106480'
p477
ag362
ag433
aS'46052388'
p478
aS'22699561'
p479
asg31
g386
sg32
g387
sg34
g61
sg36
g437
sg37
(iread_data
Room
p480
(dp481
g31
g316
sg32
g317
sbsbaa(lp482
(ischedule
Activity
p483
(dp484
g8
(lp485
g125
ag15
ag126
aS'11741347'
p486
ag127
aS'8464817'
p487
ag128
ag70
ag129
aS'40791377'
p488
ag130
ag309
ag131
aS'58522654'
p489
ag75
aS'13284244'
p490
ag132
aS'76802764'
p491
ag133
ag160
ag134
ag449
ag135
aS'88752563'
p492
ag136
aS'92665222'
p493
ag137
ag164
ag138
aS'65960683'
p494
ag139
ag163
ag140
ag159
ag141
aS'76661016'
p495
ag142
ag404
ag143
aS'72796858'
p496
ag144
ag161
ag145
aS'34110913'
p497
ag146
aS'75759231'
p498
ag147
aS'79167252'
p499
ag148
aS'75599734'
p500
ag149
aS'43689934'
p501
ag150
aS'95631564'
p502
ag151
aS'30658799'
p503
ag152
ag30
ag153
aS'44391517'
p504
ag154
aS'46989508'
p505
ag155
ag25
ag156
ag162
ag157
ag360
ag158
asg31
I1000
sg32
g166
sg34
g35
sg36
I0
sg37
g118
sba(ischedule
Activity
p506
(dp507
g8
(lp508
g208
ag277
aS'91139627'
p509
aS'72547110'
p510
aS'47462856'
p511
aS'28957789'
p512
ag211
aS'99272880'
p513
aS'8522855'
p514
ag244
aS'78735049'
p515
ag151
ag58
ag411
aS'77240949'
p516
aS'58332004'
p517
ag348
ag129
aS'37498675'
p518
ag138
aS'54569540'
p519
aS'47605891'
p520
aS'10872825'
p521
aS'78136904'
p522
ag408
ag420
ag156
ag95
aS'84110134'
p523
aS'31633723'
p524
aS'44940353'
p525
ag178
aS'32705005'
p526
ag188
aS'96054456'
p527
ag92
ag431
aS'46570285'
p528
aS'56988998'
p529
aS'39230359'
p530
ag46
ag337
aS'34262212'
p531
ag57
aS'79366078'
p532
ag445
ag94
ag14
aS'79858178'
p533
ag213
ag343
aS'82688900'
p534
aS'65003379'
p535
ag50
ag105
ag113
aS'7492204'
p536
ag146
aS'24875739'
p537
ag268
aS'3685034'
p538
ag363
ag48
aS'51186803'
p539
aS'49631542'
p540
aS'39919665'
p541
aS'63955238'
p542
aS'20883994'
p543
aS'76924297'
p544
aS'23391676'
p545
ag468
aS'63408522'
p546
aS'41527759'
p547
aS'39659121'
p548
aS'38329455'
p549
aS'41585485'
p550
ag21
ag489
aS'58469172'
p551
ag70
ag110
ag240
aS'54310617'
p552
ag300
asg31
I1000
sg32
S'Kansrekenen 2'
p553
sg34
g35
sg36
I0
sg37
g167
sba(ischedule
Activity
p554
(dp555
g8
(lp556
S'97135019'
p557
aS'1696500'
p558
ag153
aS'96104167'
p559
aS'51741554'
p560
aS'1665980'
p561
aS'68601184'
p562
ag212
ag552
ag494
ag516
aS'13534377'
p563
ag306
aS'86000192'
p564
aS'57595888'
p565
ag489
asg31
S'20'
p566
sg32
g387
sg34
g272
sg36
g62
sg37
(iread_data
Room
p567
(dp568
g31
g40
sg32
g41
sbsba(ischedule
Activity
p569
(dp570
g8
g9
sg31
I1000
sg32
g33
sg34
g35
sg36
I0
sg37
g257
sba(ischedule
Activity
p571
(dp572
g8
(lp573
g406
ag475
ag517
ag384
aS'36748818'
p574
aS'13658563'
p575
aS'92977271'
p576
asg31
g270
sg32
g271
sg34
g272
sg36
g437
sg37
(iread_data
Room
p577
(dp578
g31
g316
sg32
g317
sbsbaa(lp579
(ischedule
Activity
p580
(dp581
g8
g394
sg31
I1000
sg32
g413
sg34
g35
sg36
I0
sg37
g438
sba(ischedule
Activity
p582
(dp583
g8
(lp584
g234
ag235
ag100
ag237
ag194
ag241
ag245
ag249
ag250
ag252
ag107
ag51
ag242
ag246
ag253
ag176
ag255
asg31
S'20'
p585
sg32
g256
sg34
g272
sg36
g437
sg37
(iread_data
Room
p586
(dp587
g31
g316
sg32
g317
sbsba(ischedule
Activity
p588
(dp589
g8
(lp590
S'64947290'
p591
ag476
ag400
aS'10702778'
p592
ag364
ag360
aS'53585410'
p593
ag137
ag348
aS'63111000'
p594
ag562
aS'20618153'
p595
ag164
ag178
ag182
ag504
asg31
S'20'
p596
sg32
S'Programmeren in Java 2'
p597
sg34
g61
sg36
g388
sg37
g38
sba(ischedule
Activity
p598
(dp599
g8
(lp600
g175
ag99
ag183
ag189
ag192
ag195
ag198
ag176
asg31
S'10'
p601
sg32
g200
sg34
g272
sg36
g437
sg37
g118
sba(ischedule
Activity
p602
(dp603
g8
(lp604
g527
aS'14816774'
p605
aS'29526540'
p606
aS'66120270'
p607
aS'96453361'
p608
ag543
ag72
ag91
ag192
ag219
aS'44868097'
p609
aS'4568018'
p610
ag221
ag187
ag240
ag213
asg31
g329
sg32
g223
sg34
g272
sg36
g437
sg37
g257
sba(ischedule
Activity
p611
(dp612
g8
(lp613
g262
ag406
ag92
ag269
ag576
ag475
ag13
ag517
ag263
ag384
ag264
ag267
ag159
ag574
ag191
ag56
ag265
ag268
ag266
ag575
ag187
asg31
I1000
sg32
g271
sg34
g35
sg36
I0
sg37
(iread_data
Room
p614
(dp615
g31
g203
sg32
g204
sbsba(ischedule
Activity
p616
(dp617
g8
(lp618
g233
ag151
ag236
ag239
ag240
ag244
ag248
ag20
ag251
ag196
ag247
ag243
ag254
ag238
ag89
asg31
g585
sg32
g256
sg34
g272
sg36
g62
sg37
(iread_data
Room
p619
(dp620
g31
g169
sg32
g170
sbsbaaa(lp621
(lp622
(ischedule
Activity
p623
(dp624
g8
(lp625
g395
ag161
ag397
ag56
ag142
ag399
ag159
ag116
ag300
ag155
ag179
ag404
ag405
ag406
ag408
ag410
ag411
ag248
ag79
ag402
ag308
asg31
S'20'
p626
sg32
g413
sg34
g272
sg36
g437
sg37
(iread_data
Room
p627
(dp628
g31
g65
sg32
g66
sbsba(ischedule
Activity
p629
(dp630
g8
(lp631
S'37279234'
p632
ag48
aS'79879876'
p633
ag487
ag113
ag138
aS'66433883'
p634
aS'88597745'
p635
ag513
aS'26857113'
p636
aS'7386961'
p637
ag50
ag531
ag192
aS'85284256'
p638
ag175
aS'20830477'
p639
aS'28943658'
p640
ag255
asg31
g596
sg32
g597
sg34
g61
sg36
S'6'
p641
sg37
g257
sba(ischedule
Activity
p642
(dp643
g8
(lp644
g276
ag288
ag277
aS'22288615'
p645
ag278
aS'49908313'
p646
ag23
ag595
ag279
ag246
ag26
ag287
ag280
aS'53512831'
p647
ag158
ag530
ag281
aS'17092717'
p648
ag162
aS'76648468'
p649
aS'24891081'
p650
ag289
ag282
aS'76903244'
p651
ag11
aS'10698627'
p652
ag107
ag17
ag283
aS'67073567'
p653
ag284
aS'66034145'
p654
ag285
ag396
ag286
aS'14303208'
p655
ag385
aS'77392404'
p656
ag255
asg31
I1000
sg32
g291
sg34
g35
sg36
I0
sg37
g118
sba(ischedule
Activity
p657
(dp658
g8
(lp659
g557
ag163
ag128
ag375
ag558
ag474
aS'15902055'
p660
ag385
ag153
ag181
ag400
ag245
ag559
ag475
ag367
ag376
ag560
ag221
aS'50184318'
p661
ag377
ag561
ag360
aS'17222374'
p662
ag192
ag562
ag340
ag288
ag378
ag212
ag476
ag443
ag379
ag552
ag477
aS'17575088'
p663
ag380
ag494
ag395
ag361
ag381
ag516
ag362
ag255
ag54
ag563
ag433
ag26
ag382
ag306
ag478
ag149
ag383
ag564
ag479
ag94
ag89
ag565
ag29
ag27
ag384
ag489
asg31
I1000
sg32
g387
sg34
g35
sg36
I0
sg37
g167
sba(ischedule
Activity
p664
(dp665
g8
(lp666
g281
ag381
aS'82872148'
p667
ag300
aS'51593625'
p668
ag343
ag502
ag46
ag500
ag95
aS'26260141'
p669
aS'62105897'
p670
ag325
aS'41153310'
p671
ag523
ag305
ag326
ag86
ag77
aS'21095566'
p672
aS'14072826'
p673
aS'4546613'
p674
ag17
ag99
ag609
ag524
ag452
ag352
ag474
ag610
ag354
ag161
ag242
ag477
ag156
ag382
aS'45915482'
p675
ag547
ag208
ag402
asg31
g435
sg32
g436
sg34
g272
sg36
g62
sg37
(iread_data
Room
p676
(dp677
g31
g40
sg32
g41
sbsba(ischedule
Activity
p678
(dp679
g8
(lp680
g148
aS'19858730'
p681
ag174
ag366
aS'34806836'
p682
ag346
ag100
ag114
asg31
S'10'
p683
sg32
S'Autonomous Agents 2'
p684
sg34
g61
sg36
g62
sg37
(iread_data
Room
p685
(dp686
g31
g316
sg32
g317
sbsba(ischedule
Activity
p687
(dp688
g8
(lp689
g78
ag214
aS'40633534'
p690
ag102
ag378
ag493
ag279
aS'39429093'
p691
ag26
aS'47477884'
p692
ag22
ag465
ag543
ag28
ag238
ag280
ag52
ag53
aS'86807027'
p693
ag522
asg31
I1000
sg32
S'Advanced Heuristics'
p694
sg34
g35
sg36
I0
sg37
(iread_data
Room
p695
(dp696
g31
g203
sg32
g204
sbsbaa(lp697
(ischedule
Activity
p698
(dp699
g8
(lp700
g163
ag474
ag181
ag475
ag221
ag360
ag340
ag476
ag477
ag395
ag362
ag433
ag478
ag479
ag29
ag94
ag255
asg31
g566
sg32
g387
sg34
g272
sg36
g437
sg37
g438
sba(ischedule
Activity
p701
(dp702
g8
(lp703
g305
aS'88627897'
p704
ag56
ag174
asg31
S'10'
p705
sg32
g684
sg34
g272
sg36
g224
sg37
g118
sba(ischedule
Activity
p706
(dp707
g8
(lp708
g667
ag434
ag27
ag125
ag92
aS'26207525'
p709
aS'4353500'
p710
aS'21677389'
p711
ag101
aS'19058315'
p712
ag85
aS'57467488'
p713
ag81
ag560
aS'62736669'
p714
ag328
aS'16912993'
p715
ag558
ag656
aS'123355'
p716
asg31
g59
sg32
g60
sg34
g61
sg36
g224
sg37
g38
sba(ischedule
Activity
p717
(dp718
g8
(lp719
g344
ag132
aS'2550487'
p720
ag363
ag490
ag176
aS'6939933'
p721
aS'14941752'
p722
ag240
ag135
ag693
asg31
g312
sg32
g313
sg34
g61
sg36
g224
sg37
(iread_data
Room
p723
(dp724
g31
g203
sg32
g204
sbsba(ischedule
Activity
p725
(dp726
g8
(lp727
g417
ag384
aS'1181560'
p728
aS'83415514'
p729
ag517
aS'96082155'
p730
aS'27241113'
p731
ag429
aS'33776961'
p732
ag102
aS'18144425'
p733
ag405
ag126
aS'58699305'
p734
ag159
ag45
ag17
ag362
ag574
aS'78544592'
p735
ag215
ag15
ag511
aS'59111489'
p736
ag486
aS'41489515'
p737
ag116
aS'84449005'
p738
aS'51650744'
p739
ag503
aS'49219163'
p740
ag662
ag443
ag368
aS'13218321'
p741
ag661
ag379
ag161
aS'66621166'
p742
ag606
ag528
aS'70072978'
p743
aS'48198668'
p744
ag309
aS'58592894'
p745
aS'27916487'
p746
ag540
ag246
ag423
ag321
ag55
ag109
ag594
aS'64600457'
p747
asg31
I1000
sg32
S'Moderne Databases'
p748
sg34
g35
sg36
I0
sg37
g167
sba(ischedule
Activity
p749
(dp750
g8
(lp751
g527
ag605
ag606
ag607
ag608
ag240
ag543
ag72
ag192
ag609
ag610
ag187
ag281
ag489
asg31
g222
sg32
g223
sg34
g61
sg36
g437
sg37
g257
sbaa(lp752
(ischedule
Activity
p753
(dp754
g8
(lp755
g15
ag486
ag487
ag488
ag309
ag490
ag491
ag160
ag449
ag492
ag164
ag494
ag163
ag159
ag495
ag404
ag496
ag161
ag497
ag498
ag499
ag500
ag501
ag502
ag503
ag504
ag25
ag162
ag360
ag154
ag140
ag133
ag30
asg31
S'40'
p756
sg32
g166
sg34
g272
sg36
g437
sg37
g38
sba(ischedule
Activity
p757
(dp758
g8
(lp759
g15
ag669
aS'77306636'
p760
aS'34173695'
p761
ag134
ag660
ag729
aS'61520025'
p762
ag385
ag277
ag90
ag557
ag10
ag219
ag495
ag138
ag609
aS'86180471'
p763
aS'82412626'
p764
ag512
ag692
ag77
aS'6709529'
p765
ag670
ag73
aS'65978354'
p766
aS'56348773'
p767
ag353
aS'58253841'
p768
ag675
ag71
ag233
aS'72526473'
p769
ag747
ag83
ag269
ag492
aS'19717077'
p770
aS'53139134'
p771
ag564
ag96
aS'79888156'
p772
ag537
ag193
ag213
aS'62363761'
p773
aS'73823548'
p774
ag735
ag49
aS'38179241'
p775
ag244
ag102
ag593
aS'27298319'
p776
aS'55530367'
p777
ag745
aS'40141996'
p778
aS'59220392'
p779
ag351
ag245
ag323
ag474
ag363
ag721
aS'11593163'
p780
ag734
aS'10609762'
p781
aS'47932106'
p782
ag131
ag551
aS'31306819'
p783
ag418
ag693
ag515
ag655
aS'93361408'
p784
ag429
ag632
ag146
ag674
ag279
ag526
ag355
ag76
aS'81155296'
p785
aS'22168693'
p786
ag217
aS'75446434'
p787
aS'14179347'
p788
aS'23628642'
p789
ag247
ag528
aS'46701583'
p790
ag100
ag605
ag48
ag560
aS'3678531'
p791
aS'38296757'
p792
ag20
ag52
aS'12091019'
p793
ag527
aS'75623387'
p794
ag499
ag116
asg31
I1000
sg32
S'Calculus 2'
p795
sg34
g35
sg36
I0
sg37
g167
sba(ischedule
Activity
p796
(dp797
g8
(lp798
g406
ag269
ag475
ag517
ag574
ag56
ag268
ag187
ag263
ag92
ag191
asg31
S'15'
p799
sg32
g271
sg34
g61
sg36
g437
sg37
(iread_data
Room
p800
(dp801
g31
g227
sg32
g228
sbsba(ischedule
Activity
p802
(dp803
g8
(lp804
g278
ag23
ag279
ag26
ag280
ag158
ag281
ag162
ag650
ag282
ag11
ag107
ag283
ag285
ag286
ag287
ag649
ag595
ag246
asg31
S'20'
p805
sg32
g291
sg34
g61
sg36
g62
sg37
g118
sba(ischedule
Activity
p806
(dp807
g8
(lp808
g115
ag321
ag396
ag398
ag268
ag10
ag400
ag401
ag403
ag384
ag174
ag409
ag378
ag23
ag147
ag412
ag407
asg31
g626
sg32
g413
sg34
g272
sg36
g62
sg37
g292
sba(ischedule
Activity
p809
(dp810
g8
(lp811
g321
ag527
ag208
ag281
ag605
ag209
ag322
ag606
ag210
ag323
ag607
ag211
ag324
ag608
ag130
ag116
ag240
ag212
ag325
ag543
ag213
ag326
ag72
ag214
ag220
ag91
ag215
ag747
ag192
ag489
ag194
ag219
ag216
ag135
ag609
ag328
ag327
ag610
ag177
ag131
ag221
ag217
ag158
ag187
ag218
asg31
I1000
sg32
g223
sg34
g35
sg36
I0
sg37
g438
sba(ischedule
Activity
p812
(dp813
g8
(lp814
g452
ag660
ag192
ag745
ag242
aS'67817269'
p815
aS'88596522'
p816
ag243
aS'3707829'
p817
aS'44828429'
p818
ag423
ag561
ag285
ag50
aS'19540225'
p819
ag27
ag669
asg31
S'25'
p820
sg32
S'Algoritmen en complexiteit'
p821
sg34
g61
sg36
g437
sg37
(iread_data
Room
p822
(dp823
g31
g316
sg32
g317
sbsbaa(lp824
(ischedule
Activity
p825
(dp826
g8
(lp827
S'12782624'
p828
ag427
ag54
ag144
ag732
ag220
ag668
ag729
ag693
ag645
ag82
ag434
ag671
ag462
ag499
ag141
ag720
ag180
asg31
g596
sg32
g597
sg34
g61
sg36
g437
sg37
g292
sba(ischedule
Activity
p829
(dp830
g8
(lp831
g513
aS'91250534'
p832
ag565
aS'51472074'
p833
ag816
ag655
aS'65675896'
p834
aS'25994016'
p835
ag126
ag593
aS'41644639'
p836
ag348
aS'42297781'
p837
asg31
S'15'
p838
sg32
S'Compilerbouw practicum'
p839
sg34
g61
sg36
g62
sg37
(iread_data
Room
p840
(dp841
g31
g40
sg32
g41
sbsba(ischedule
Activity
p842
(dp843
g8
(lp844
g345
aS'55103073'
p845
ag395
aS'5892092'
p846
aS'1695839'
p847
aS'44151631'
p848
aS'47260040'
p849
ag103
ag18
aS'82066165'
p850
ag181
ag327
asg31
g838
sg32
g839
sg34
g61
sg36
g437
sg37
(iread_data
Room
p851
(dp852
g31
g316
sg32
g317
sbsba(ischedule
Activity
p853
(dp854
g8
(lp855
g384
ag429
ag733
ag734
ag17
ag735
ag511
ag739
ag662
ag741
ag161
ag528
ag540
ag321
ag594
ag732
asg31
S'20'
p856
sg32
g748
sg34
g272
sg36
g437
sg37
g257
sba(ischedule
Activity
p857
(dp858
g8
(lp859
g728
ag730
ag405
ag159
ag362
ag215
ag736
ag116
ag503
ag443
ag742
ag743
ag745
ag246
ag55
ag747
ag517
ag309
asg31
g856
sg32
g748
sg34
g272
sg36
g224
sg37
g438
sba(ischedule
Activity
p860
(dp861
g8
(lp862
g405
ag605
ag102
ag83
ag174
aS'53775014'
p863
ag249
ag710
ag239
ag352
ag213
aS'45660925'
p864
ag576
ag50
ag379
ag722
aS'87210640'
p865
ag345
ag681
ag610
aS'97417002'
p866
ag114
ag199
ag110
ag21
ag639
ag558
ag58
ag474
ag145
ag337
ag693
ag179
ag56
ag633
ag87
ag575
ag713
ag380
aS'76393508'
p867
ag211
ag18
ag282
ag384
asg31
I1000
sg32
S'Heuristieken 1'
p868
sg34
g35
sg36
I0
sg37
(iread_data
Room
p869
(dp870
g31
g169
sg32
g170
sbsbaa(lp871
(ischedule
Activity
p872
(dp873
g8
g659
sg31
I1000
sg32
g387
sg34
g35
sg36
I0
sg37
g167
sba(ischedule
Activity
p874
(dp875
g8
g811
sg31
I1000
sg32
g223
sg34
g35
sg36
I0
sg37
g257
sba(ischedule
Activity
p876
(dp877
g8
(lp878
S'69634191'
p879
ag785
ag720
ag775
ag674
ag280
ag243
ag304
ag834
aS'64768422'
p880
ag194
ag378
aS'20374340'
p881
ag129
ag544
ag495
ag654
ag364
ag338
ag818
ag125
ag817
aS'28055464'
p882
ag711
aS'37701751'
p883
asg31
I1000
sg32
S'Interactie-ontwerp'
p884
sg34
g35
sg36
I0
sg37
g118
sba(ischedule
Activity
p885
(dp886
g8
g644
sg31
I1000
sg32
g291
sg34
g35
sg36
I0
sg37
g38
sba(ischedule
Activity
p887
(dp888
g8
(lp889
g266
ag181
aS'51509565'
p890
ag125
ag776
ag522
ag547
ag284
ag672
ag550
ag421
ag196
aS'23652927'
p891
ag591
ag634
aS'91527663'
p892
ag608
ag431
ag790
aS'64554442'
p893
ag449
ag593
ag713
ag514
ag404
ag162
asg31
g820
sg32
g821
sg34
g61
sg36
g62
sg37
(iread_data
Room
p894
(dp895
g31
g316
sg32
g317
sbsba(ischedule
Activity
p896
(dp897
g8
(lp898
g15
ag486
ag487
ag70
ag488
ag309
ag489
ag490
ag491
ag449
ag492
ag493
ag494
ag495
ag404
ag496
ag497
ag498
ag499
ag500
ag501
ag502
ag503
ag504
ag505
ag360
asg31
g165
sg32
g166
sg34
g61
sg36
g437
sg37
g438
sbaaa(lp899
(lp900
(ischedule
Activity
p901
(dp902
g8
(lp903
g239
ag213
ag576
ag379
ag865
ag681
ag866
ag199
ag21
ag558
ag474
ag337
ag179
ag633
ag380
ag211
ag282
ag710
ag639
ag145
ag384
ag722
asg31
S'25'
p904
sg32
g868
sg34
g272
sg36
g62
sg37
g438
sba(ischedule
Activity
p905
(dp906
g8
(lp907
g519
ag419
ag656
ag55
ag462
ag321
aS'51415617'
p908
ag197
ag216
ag538
ag463
ag323
ag575
ag452
ag82
ag115
ag464
ag443
ag154
ag465
ag444
ag101
ag186
ag88
ag306
ag53
ag445
ag250
ag107
ag220
ag792
ag466
ag446
ag364
ag467
ag447
ag738
ag86
ag448
ag732
ag114
ag449
ag522
ag302
ag450
aS'90474003'
p909
ag468
ag79
ag151
ag174
ag451
asg31
I1000
sg32
g454
sg34
g35
sg36
I0
sg37
g118
sba(ischedule
Activity
p910
(dp911
g8
(lp912
g593
ag452
ag266
ag660
ag181
ag192
ag890
ag745
ag125
ag242
ag776
ag893
ag522
ag713
ag547
ag815
ag669
ag514
ag284
ag816
ag672
ag243
ag27
ag817
ag550
ag162
ag421
ag404
ag196
ag818
ag891
ag449
ag591
ag423
ag634
ag561
ag892
ag285
ag608
ag50
ag431
ag819
ag790
asg31
I1000
sg32
g821
sg34
g35
sg36
I0
sg37
g167
sbaa(lp913
(ischedule
Activity
p914
(dp915
g8
(lp916
g782
ag745
ag103
aS'15187217'
p917
ag212
ag288
ag605
ag351
ag89
ag517
ag909
ag883
ag362
ag109
ag443
ag778
ag713
ag527
aS'56121590'
p918
aS'59397895'
p919
ag54
ag496
ag71
aS'25077484'
p920
ag214
ag284
ag662
ag360
ag648
aS'56191333'
p921
aS'4529208'
p922
ag444
ag449
ag395
ag105
ag111
ag714
aS'13132925'
p923
asg31
S'40'
p924
sg32
S'Databases 2'
p925
sg34
g272
sg36
g437
sg37
g118
sba(ischedule
Activity
p926
(dp927
g8
g485
sg31
I1000
sg32
g166
sg34
g35
sg36
I0
sg37
g438
sba(ischedule
Activity
p928
(dp929
g8
g878
sg31
I1000
sg32
g884
sg34
g35
sg36
I0
sg37
g292
sba(ischedule
Activity
p930
(dp931
g8
g173
sg31
I1000
sg32
g200
sg34
g35
sg36
I0
sg37
(iread_data
Room
p932
(dp933
g31
g40
sg32
g41
sbsba(ischedule
Activity
p934
(dp935
g8
(lp936
g148
ag681
ag196
ag156
ag366
ag682
ag346
aS'61611295'
p937
ag114
ag422
asg31
g705
sg32
g684
sg34
g272
sg36
g62
sg37
(iread_data
Room
p938
(dp939
g31
g316
sg32
g317
sbsba(ischedule
Activity
p940
(dp941
g8
(lp942
g78
ag690
ag279
ag26
ag22
ag52
ag28
ag378
ag693
ag465
ag238
ag53
asg31
S'10'
p943
sg32
g694
sg34
g61
sg36
g62
sg37
g167
sba(ischedule
Activity
p944
(dp945
g8
g811
sg31
I1000
sg32
g223
sg34
g35
sg36
I0
sg37
(iread_data
Room
p946
(dp947
g31
g227
sg32
g228
sbsbaa(lp948
(ischedule
Activity
p949
(dp950
g8
(lp951
g281
ag417
ag381
ag128
ag667
ag218
ag300
ag418
ag668
ag54
ag343
ag419
ag502
ag114
ag46
ag420
ag500
ag421
ag95
ag154
ag669
ag179
ag670
ag327
ag325
ag422
ag671
ag423
ag523
ag246
ag305
ag424
ag326
ag425
ag86
ag426
ag77
ag427
ag672
ag428
ag673
ag83
ag674
ag429
ag17
ag430
ag99
ag182
ag609
ag431
ag524
ag208
ag452
ag135
ag352
ag547
ag474
ag358
ag610
ag402
ag354
ag74
ag161
ag359
ag242
ag432
ag477
ag11
ag156
ag433
ag12
ag434
ag382
ag181
ag675
asg31
I1000
sg32
g436
sg34
g35
sg36
I0
sg37
g167
sba(ischedule
Activity
p952
(dp953
g8
(lp954
g728
ag732
ag405
ag159
ag362
ag215
ag736
ag116
ag503
ag443
ag661
ag742
ag743
ag745
ag246
ag55
ag747
ag594
ag738
ag746
asg31
S'20'
p955
sg32
g748
sg34
g61
sg36
g224
sg37
g851
sba(ischedule
Activity
p956
(dp957
g8
(lp958
g288
ag645
ag646
ag647
ag530
ag648
ag289
ag651
ag652
ag17
ag653
ag654
ag396
ag655
ag656
ag277
ag276
ag255
ag385
ag284
asg31
g805
sg32
g291
sg34
g61
sg36
g437
sg37
(iread_data
Room
p959
(dp960
g31
g120
sg32
g121
sbsba(ischedule
Activity
p961
(dp962
g8
(lp963
g417
ag729
ag731
ag102
ag126
ag45
ag574
ag15
ag486
ag740
ag368
ag379
ag606
ag744
ag423
ag109
ag730
ag734
asg31
g955
sg32
g748
sg34
g61
sg36
g62
sg37
(iread_data
Room
p964
(dp965
g31
g203
sg32
g204
sbsbaa(lp966
(ischedule
Activity
p967
(dp968
g8
(lp969
g208
ag209
ag210
ag211
ag130
ag212
ag214
ag215
ag489
ag216
ag177
ag217
ag218
ag116
ag747
asg31
g329
sg32
g223
sg34
g272
sg36
g224
sg37
g257
sba(ischedule
Activity
p970
(dp971
g8
(lp972
g241
ag529
ag636
ag139
ag790
ag538
ag594
ag182
ag138
ag148
ag14
ag468
aS'67625383'
p973
aS'90067329'
p974
ag516
ag488
ag792
ag420
ag215
ag30
aS'33252501'
p975
ag242
asg31
I1000
sg32
S'Machine Learning'
p976
sg34
g35
sg36
I0
sg37
(iread_data
Room
p977
(dp978
g31
g65
sg32
g66
sbsba(ischedule
Activity
p979
(dp980
g8
(lp981
g354
ag154
ag97
aS'55480737'
p982
ag477
ag276
ag514
ag690
ag836
ag163
aS'74361881'
p983
asg31
S'15'
p984
sg32
S'Project Genetic Algorithms'
p985
sg34
g61
sg36
g62
sg37
(iread_data
Room
p986
(dp987
g31
g40
sg32
g41
sbsba(ischedule
Activity
p988
(dp989
g8
(lp990
g417
ag729
ag731
ag102
ag126
ag45
ag574
ag15
ag486
ag738
ag740
ag368
ag379
ag606
ag744
ag746
ag423
ag109
ag661
ag737
asg31
g856
sg32
g748
sg34
g272
sg36
g62
sg37
g851
sba(ischedule
Activity
p991
(dp992
g8
g907
sg31
I1000
sg32
g454
sg34
g35
sg36
I0
sg37
(iread_data
Room
p993
(dp994
g31
g169
sg32
g170
sbsba(ischedule
Activity
p995
(dp996
g8
(lp997
g375
ag385
ag245
ag376
ag377
ag192
ag378
ag379
ag380
ag381
ag54
ag382
ag383
ag89
ag384
asg31
g566
sg32
g387
sg34
g272
sg36
g388
sg37
g118
sba(ischedule
Activity
p998
(dp999
g8
(lp1000
g175
ag178
ag99
ag183
ag186
ag195
ag198
ag190
ag191
ag181
asg31
g458
sg32
g200
sg34
g61
sg36
g437
sg37
(iread_data
Room
p1001
(dp1002
g31
g203
sg32
g204
sbsbaa(lp1003
(ischedule
Activity
p1004
(dp1005
g8
(lp1006
g384
ag517
ag429
ag733
ag17
ag735
ag511
ag737
ag739
ag662
ag741
ag161
ag528
ag309
ag540
ag321
asg31
g955
sg32
g748
sg34
g61
sg36
g437
sg37
(iread_data
Room
p1007
(dp1008
g31
g203
sg32
g204
sbsba(ischedule
Activity
p1009
(dp1010
g8
(lp1011
g660
ag192
ag745
ag242
ag893
ag514
ag816
ag243
ag162
ag404
ag818
ag449
ag423
ag561
ag285
ag50
ag819
ag550
ag790
ag431
ag27
ag284
ag608
ag266
ag892
asg31
S'25'
p1012
sg32
g821
sg34
g272
sg36
g437
sg37
g38
sba(ischedule
Activity
p1013
(dp1014
g8
(lp1015
g15
ag761
ag729
ag277
ag10
ag138
ag764
ag73
ag353
ag71
ag747
ag492
ag564
ag537
ag773
ag49
ag102
ag777
ag779
ag323
ag721
ag781
ag551
ag693
ag784
ag146
ag526
ag785
ag787
ag247
ag100
ag560
ag527
ag116
ag90
asg31
S'40'
p1016
sg32
g795
sg34
g272
sg36
g62
sg37
g118
sba(ischedule
Activity
p1017
(dp1018
g8
(lp1019
g519
ag55
ag908
ag538
ag575
ag115
ag154
ag101
ag306
ag792
ag364
ag738
ag732
ag522
ag909
ag151
ag220
ag656
asg31
g453
sg32
g454
sg34
g272
sg36
g62
sg37
(iread_data
Room
p1020
(dp1021
g31
g316
sg32
g317
sbsba(ischedule
Activity
p1022
(dp1023
g8
(lp1024
g148
ag177
ag305
ag681
aS'70113753'
p1025
ag704
ag174
ag218
ag362
ag196
ag354
ag56
ag156
ag776
ag100
ag366
ag422
ag114
ag682
ag496
ag937
ag346
asg31
I1000
sg32
g684
sg34
g35
sg36
I0
sg37
(iread_data
Room
p1026
(dp1027
g31
g65
sg32
g66
sbsba(ischedule
Activity
p1028
(dp1029
g8
(lp1030
g983
ag561
ag610
ag452
ag398
ag133
aS'51673172'
p1031
aS'64418623'
p1032
ag406
ag263
ag52
ag244
aS'23215240'
p1033
aS'535689'
p1034
ag325
asg31
g838
sg32
g839
sg34
g61
sg36
g224
sg37
g167
sba(ischedule
Activity
p1035
(dp1036
g8
(lp1037
g669
ag134
ag762
ag219
ag609
ag512
ag765
ag766
ag768
ag233
ag83
ag770
ag96
ag193
ag774
ag775
ag593
ag745
ag351
ag474
ag780
ag782
ag783
ag515
ag429
ag674
ag355
ag786
ag788
ag528
ag605
ag791
ag52
ag794
ag20
ag269
asg31
g1016
sg32
g795
sg34
g272
sg36
g437
sg37
(iread_data
Room
p1038
(dp1039
g31
g227
sg32
g228
sbsbaaa(lp1040
(lp1041
(ischedule
Activity
p1042
(dp1043
g8
(lp1044
g321
ag322
ag323
ag324
ag116
ag325
ag326
ag747
ag194
ag135
ag327
ag131
ag158
ag91
ag328
ag177
asg31
g222
sg32
g223
sg34
g61
sg36
g62
sg37
(iread_data
Room
p1045
(dp1046
g31
g316
sg32
g317
sbsba(ischedule
Activity
p1047
(dp1048
g8
(lp1049
g760
ag660
ag385
ag557
ag495
ag763
ag692
ag670
ag767
ag675
ag769
ag771
ag772
ag213
ag735
ag244
ag776
ag778
ag245
ag363
ag734
ag131
ag418
ag655
ag632
ag279
ag76
ag217
ag789
ag790
ag48
ag792
ag793
ag499
ag77
asg31
g1016
sg32
g795
sg34
g272
sg36
g224
sg37
g438
sba(ischedule
Activity
p1050
(dp1051
g8
g508
sg31
I1000
sg32
g553
sg34
g35
sg36
I0
sg37
(iread_data
Room
p1052
(dp1053
g31
g169
sg32
g170
sbsba(ischedule
Activity
p1054
(dp1055
g8
(lp1056
g704
ag362
ag56
ag937
asg31
g683
sg32
g684
sg34
g61
sg36
g224
sg37
g257
sba(ischedule
Activity
p1057
(dp1058
g8
g972
sg31
I1000
sg32
g976
sg34
g35
sg36
I0
sg37
g118
sba(ischedule
Activity
p1059
(dp1060
g8
g613
sg31
I1000
sg32
g271
sg34
g35
sg36
I0
sg37
(iread_data
Room
p1061
(dp1062
g31
g203
sg32
g204
sbsba(ischedule
Activity
p1063
(dp1064
g8
(lp1065
g417
ag128
ag218
ag418
ag54
ag419
ag114
ag421
ag154
ag179
ag422
ag423
ag246
ag424
ag425
ag426
ag427
ag428
ag83
ag429
ag430
ag431
ag208
ag547
ag358
ag402
ag74
ag359
ag432
ag11
ag433
ag434
ag181
ag326
ag242
ag305
ag502
ag671
ag86
asg31
S'40'
p1066
sg32
g436
sg34
g61
sg36
g437
sg37
(iread_data
Room
p1067
(dp1068
g31
g40
sg32
g41
sbsbaa(lp1069
(ischedule
Activity
p1070
(dp1071
g8
g659
sg31
I1000
sg32
g387
sg34
g35
sg36
I0
sg37
g257
sba(ischedule
Activity
p1072
(dp1073
g8
(lp1074
g177
ag1025
ag218
ag776
ag496
ag354
ag305
ag422
ag156
ag196
asg31
g683
sg32
g684
sg34
g61
sg36
g437
sg37
g292
sba(ischedule
Activity
p1075
(dp1076
g8
(lp1077
g605
ag83
ag863
ag352
ag864
ag50
ag345
ag610
ag114
ag110
ag58
ag693
ag56
ag87
ag713
ag867
ag18
ag575
ag174
ag249
ag102
ag405
asg31
g904
sg32
g868
sg34
g272
sg36
g437
sg37
g118
sba(ischedule
Activity
p1078
(dp1079
g8
(lp1080
g128
ag660
ag400
ag367
ag661
ag662
ag288
ag443
ag663
ag361
ag26
ag149
ag27
asg31
g566
sg32
g387
sg34
g272
sg36
g224
sg37
(iread_data
Room
p1081
(dp1082
g31
g169
sg32
g170
sbsba(ischedule
Activity
p1083
(dp1084
g8
(lp1085
S'63939720'
p1086
ag448
ag325
ag221
ag523
ag153
ag155
ag538
ag492
ag28
ag774
aS'21070547'
p1087
ag128
asg31
g312
sg32
g313
sg34
g61
sg36
g437
sg37
(iread_data
Room
p1088
(dp1089
g31
g65
sg32
g66
sbsba(ischedule
Activity
p1090
(dp1091
g8
(lp1092
g109
ag420
ag377
ag788
aS'5526560'
p1093
ag495
ag150
ag768
aS'75680261'
p1094
ag920
ag763
ag1031
ag101
ag51
asg31
g984
sg32
g985
sg34
g61
sg36
g224
sg37
(iread_data
Room
p1095
(dp1096
g31
g40
sg32
g41
sbsba(ischedule
Activity
p1097
(dp1098
g8
(lp1099
g557
ag182
ag153
ag176
ag194
aS'64246605'
p1100
ag70
ag1034
ag301
aS'25557516'
p1101
ag918
ag421
ag164
ag514
ag190
asg31
g59
sg32
g60
sg34
g61
sg36
g388
sg37
(iread_data
Room
p1102
(dp1103
g31
g316
sg32
g317
sbsbaa(lp1104
(ischedule
Activity
p1105
(dp1106
g8
(lp1107
g177
ag1025
ag218
ag354
ag776
ag496
ag100
ag362
asg31
g705
sg32
g684
sg34
g272
sg36
g437
sg37
g438
sba(ischedule
Activity
p1108
(dp1109
g8
(lp1110
S'39905995'
p1111
ag266
ag241
ag112
ag153
ag407
ag444
ag545
ag652
ag1033
ag143
ag428
ag551
aS'64053722'
p1112
ag791
ag244
ag340
ag670
ag449
aS'63096281'
p1113
asg31
g596
sg32
g597
sg34
g61
sg36
g62
sg37
(iread_data
Room
p1114
(dp1115
g31
g40
sg32
g41
sbsba(ischedule
Activity
p1116
(dp1117
g8
(lp1118
g214
ag102
ag493
ag691
ag692
ag280
ag522
ag543
asg31
g943
sg32
g694
sg34
g61
sg36
g437
sg37
(iread_data
Room
p1119
(dp1120
g31
g227
sg32
g228
sbsba(ischedule
Activity
p1121
(dp1122
g8
(lp1123
g148
aS'73196865'
p1124
ag747
ag338
ag576
ag55
ag790
ag211
ag110
aS'90296821'
p1125
ag475
ag420
ag517
ag743
ag343
ag237
ag692
ag287
aS'88519892'
p1126
asg31
g596
sg32
g597
sg34
g61
sg36
S'5'
p1127
sg37
g851
sba(ischedule
Activity
p1128
(dp1129
g8
(lp1130
g128
ag660
ag400
ag367
ag661
ag662
ag288
ag443
ag663
ag361
ag255
ag26
ag149
ag94
ag27
ag395
asg31
g386
sg32
g387
sg34
g61
sg36
g224
sg37
g118
sba(ischedule
Activity
p1131
(dp1132
g8
(lp1133
S'59887191'
p1134
ag607
ag209
aS'12170832'
p1135
ag773
ag142
ag132
ag198
ag921
ag348
ag221
ag638
ag465
aS'53267490'
p1136
asg31
g59
sg32
g60
sg34
g61
sg36
g437
sg37
(iread_data
Room
p1137
(dp1138
g31
g169
sg32
g170
sbsba(ischedule
Activity
p1139
(dp1140
g8
(lp1141
g593
ag181
ag890
ag125
ag776
ag522
ag547
ag669
ag672
ag421
ag196
ag891
ag591
ag634
ag817
ag452
ag815
ag713
asg31
g1012
sg32
g821
sg34
g272
sg36
g62
sg37
(iread_data
Room
p1142
(dp1143
g31
g203
sg32
g204
sbsbaa(lp1144
(ischedule
Activity
p1145
(dp1146
g8
(lp1147
g557
ag558
ag153
ag559
ag560
ag561
ag562
ag212
ag552
ag494
ag516
ag563
ag306
ag564
ag565
ag489
ag29
asg31
g386
sg32
g387
sg34
g61
sg36
g62
sg37
g118
sba(ischedule
Activity
p1148
(dp1149
g8
(lp1150
g281
ag381
ag667
ag300
ag668
ag343
ag46
ag500
ag95
ag669
ag670
ag325
ag523
ag77
ag672
ag673
ag674
ag17
ag99
ag609
ag524
ag452
ag352
ag474
ag610
ag354
ag161
ag477
ag156
ag12
ag382
ag675
ag420
ag327
ag182
ag135
asg31
g1066
sg32
g436
sg34
g61
sg36
g62
sg37
(iread_data
Room
p1151
(dp1152
g31
g65
sg32
g66
sbsba(ischedule
Activity
p1153
(dp1154
g8
(lp1155
g262
ag576
ag13
ag264
ag159
ag265
ag266
ag575
ag384
ag267
asg31
g799
sg32
g271
sg34
g61
sg36
g62
sg37
g292
sba(ischedule
Activity
p1156
(dp1157
g8
(lp1158
g179
ag181
ag184
ag187
ag190
ag193
ag196
ag199
ag182
ag178
ag186
asg31
g601
sg32
g200
sg34
g272
sg36
g224
sg37
g167
sba(ischedule
Activity
p1159
(dp1160
g8
(lp1161
g465
ag27
ag237
ag25
aS'54540997'
p1162
ag344
ag709
ag606
ag196
ag692
aS'27123462'
p1163
ag264
ag743
ag492
ag353
ag1093
ag211
ag254
ag81
ag505
ag210
aS'58083680'
p1164
ag422
ag306
ag148
ag892
ag774
ag540
ag591
ag405
ag763
ag23
ag94
ag793
asg31
g924
sg32
g925
sg34
g272
sg36
g62
sg37
g257
sba(ischedule
Activity
p1165
(dp1166
g8
g1024
sg31
I1000
sg32
g684
sg34
g35
sg36
I0
sg37
(iread_data
Room
p1167
(dp1168
g31
g40
sg32
g41
sbsba(ischedule
Activity
p1169
(dp1170
g8
(lp1171
g57
ag850
ag20
ag233
ag79
ag835
ag790
ag417
ag544
ag130
ag738
asg31
g984
sg32
g985
sg34
g61
sg36
g437
sg37
(iread_data
Room
p1172
(dp1173
g31
g316
sg32
g317
sbsbaa(lp1174
(ischedule
Activity
p1175
(dp1176
g8
(lp1177
g465
ag782
ag27
ag745
ag237
ag103
ag111
ag917
ag714
ag212
ag25
ag288
ag1162
ag605
ag344
ag351
ag709
ag89
ag606
ag517
ag923
ag909
ag196
ag883
ag692
ag362
ag1163
ag109
ag264
ag443
ag743
ag778
ag492
ag793
ag353
ag713
ag1093
ag527
ag211
ag918
ag254
ag919
ag81
ag54
ag505
ag496
ag210
ag71
ag1164
ag920
ag422
ag214
ag306
ag284
ag148
ag662
ag892
ag360
ag774
ag648
ag540
ag921
ag591
ag922
ag405
ag444
ag763
ag449
ag23
ag395
ag94
ag105
asg31
I1000
sg32
g925
sg34
g35
sg36
I0
sg37
g167
sba(ischedule
Activity
p1178
(dp1179
g8
(lp1180
g247
aS'73893840'
p1181
ag111
ag527
ag660
ag323
aS'51791169'
p1182
ag564
aS'88263855'
p1183
ag536
ag253
ag71
ag264
ag188
ag550
aS'54395877'
p1184
ag1025
ag131
asg31
g596
sg32
g597
sg34
g61
sg36
g224
sg37
(iread_data
Room
p1185
(dp1186
g31
g65
sg32
g66
sbsba(ischedule
Activity
p1187
(dp1188
g8
(lp1189
g174
ag177
ag180
ag185
ag188
ag191
ag194
ag197
asg31
g601
sg32
g200
sg34
g272
sg36
g62
sg37
(iread_data
Room
p1190
(dp1191
g31
g203
sg32
g204
sbsba(ischedule
Activity
p1192
(dp1193
g8
g334
sg31
I1000
sg32
g369
sg34
g35
sg36
I0
sg37
g257
sba(ischedule
Activity
p1194
(dp1195
g8
(lp1196
g645
ag646
ag595
ag246
ag647
ag530
ag648
ag649
ag651
ag652
ag653
ag654
ag396
ag655
ag656
ag385
ag650
asg31
g290
sg32
g291
sg34
g272
sg36
g437
sg37
(iread_data
Room
p1197
(dp1198
g31
g120
sg32
g121
sbsba(ischedule
Activity
p1199
(dp1200
g8
(lp1201
g176
ag179
ag184
ag187
ag193
ag196
ag199
ag192
ag180
ag182
asg31
g458
sg32
g200
sg34
g61
sg36
g224
sg37
(iread_data
Room
p1202
(dp1203
g31
g316
sg32
g317
sbsba(ischedule
Activity
p1204
(dp1205
g8
(lp1206
g125
ag126
ag127
ag128
ag129
ag130
ag131
ag75
ag132
ag134
ag135
ag136
ag137
ag138
ag139
ag141
ag142
ag143
ag144
ag145
ag146
ag147
ag148
ag149
ag150
ag151
ag152
ag153
ag155
ag156
ag157
ag158
ag489
ag505
ag493
ag70
asg31
g756
sg32
g166
sg34
g272
sg36
g62
sg37
(iread_data
Room
p1207
(dp1208
g31
g40
sg32
g41
sbsbaaa(lp1209
(lp1210
a(lp1211
a(lp1212
a(lp1213
a(lp1214
aasS'timeslot_dict'
p1215
(dp1216
I0
S'9:00-11:00'
p1217
sI1
S'11:00-13:00'
p1218
sI2
S'13:00-15:00'
p1219
sI3
S'15:00-17:00'
p1220
sI4
S'17:00-19:00'
p1221
ssS'day_dict'
p1222
(dp1223
I0
S'Monday'
p1224
sI1
S'Tuesday'
p1225
sI2
S'Wednesday'
p1226
sI3
S'Thursday'
p1227
sI4
S'Friday'
p1228
ssb.