(ischedule
Schedule
p0
(dp1
S'timetable'
p2
(lp3
(lp4
(lp5
(ischedule
Activity
p6
(dp7
S'participants'
p8
(lp9
S'7308727'
p10
aS'61443567'
p11
aS'21964491'
p12
aS'13092455'
p13
aS'37770881'
p14
aS'64393888'
p15
aS'23547619'
p16
aS'64228258'
p17
aS'1075391'
p18
aS'86000192'
p19
aS'87758823'
p20
aS'53107172'
p21
aS'77896638'
p22
asS'capacity'
p23
S'20'
p24
sS'name'
p25
S'Collectieve Intelligentie'
p26
sS'ttype'
p27
S'tutorials'
p28
sS'group_id'
p29
S'1'
p30
sS'room'
p31
(iread_data
Room
p32
(dp33
g23
S'117'
p34
sg25
S'C0.110'
p35
sbsba(ischedule
Activity
p36
(dp37
g8
(lp38
S'27950803'
p39
aS'22871048'
p40
aS'73236988'
p41
aS'58074656'
p42
aS'89985072'
p43
aS'43460038'
p44
aS'11068043'
p45
aS'89180944'
p46
aS'62105897'
p47
aS'4546613'
p48
aS'62356458'
p49
aS'54026378'
p50
aS'70015932'
p51
aS'11915563'
p52
aS'96554914'
p53
aS'44868097'
p54
aS'52552718'
p55
aS'78243495'
p56
aS'68409833'
p57
aS'42115591'
p58
aS'95631564'
p59
aS'88176729'
p60
aS'33877725'
p61
aS'13718298'
p62
aS'75599734'
p63
aS'14671406'
p64
aS'31633723'
p65
aS'48357272'
p66
aS'14072826'
p67
aS'65318664'
p68
aS'73302736'
p69
aS'37744525'
p70
aS'84110134'
p71
aS'31103066'
p72
aS'58565406'
p73
aS'52715680'
p74
aS'59544049'
p75
aS'65408517'
p76
aS'51593625'
p77
aS'1048485'
p78
aS'27582862'
p79
asg23
S'40'
p80
sg25
S'Software engineering'
p81
sg27
g28
sg29
g30
sg31
(iread_data
Room
p82
(dp83
g23
S'41'
p84
sg25
S'A1.04'
p85
sbsba(ischedule
Activity
p86
(dp87
g8
(lp88
S'1665980'
p89
aS'35330349'
p90
aS'1696500'
p91
aS'31416266'
p92
aS'17575088'
p93
aS'82689818'
p94
aS'22699561'
p95
aS'72577292'
p96
aS'97135019'
p97
aS'76123484'
p98
aS'51741554'
p99
aS'29474737'
p100
aS'45556081'
p101
aS'58522654'
p102
aS'46052388'
p103
aS'77240949'
p104
aS'57595888'
p105
aS'54310617'
p106
aS'96104167'
p107
aS'42778953'
p108
asg23
g24
sg25
g26
sg27
g28
sg29
S'3'
p109
sg31
(iread_data
Room
p110
(dp111
g23
S'22'
p112
sg25
S'A1.06'
p113
sbsba(ischedule
Activity
p114
(dp115
g8
(lp116
S'43680781'
p117
aS'12077419'
p118
aS'31194811'
p119
aS'48308205'
p120
aS'85335143'
p121
aS'75664412'
p122
aS'10149535'
p123
aS'70336464'
p124
aS'75521763'
p125
aS'4697362'
p126
aS'14309255'
p127
aS'92496780'
p128
aS'41578612'
p129
aS'89338938'
p130
aS'26406342'
p131
asg23
S'20'
p132
sg25
S'Technology for games'
p133
sg27
g28
sg29
S'2'
p134
sg31
(iread_data
Room
p135
(dp136
g23
S'60'
p137
sg25
S'C1.112'
p138
sbsba(ischedule
Activity
p139
(dp140
g8
(lp141
S'50143947'
p142
aS'81022997'
p143
aS'22323043'
p144
asg23
S'10'
p145
sg25
S'Data Mining'
p146
sg27
g28
sg29
g109
sg31
(iread_data
Room
p147
(dp148
g23
S'20'
p149
sg25
S'A1.08'
p150
sbsba(ischedule
Activity
p151
(dp152
g8
(lp153
S'13116738'
p154
aS'70878567'
p155
aS'92977271'
p156
aS'75585647'
p157
aS'58332004'
p158
aS'77636749'
p159
aS'36748818'
p160
aS'23983476'
p161
aS'29718115'
p162
aS'18266644'
p163
aS'32204977'
p164
aS'11459236'
p165
aS'19958553'
p166
asg23
S'15'
p167
sg25
S'Informatie- en organsatieontwerp'
p168
sg27
S'labs'
p169
sg29
g134
sg31
(iread_data
Room
p170
(dp171
g23
S'56'
p172
sg25
S'A1.10'
p173
sbsba(ischedule
Activity
p174
(dp175
g8
(lp176
S'36527838'
p177
aS'15051051'
p178
aS'24277163'
p179
aS'63111000'
p180
aS'41489515'
p181
aS'13218321'
p182
aS'33776961'
p183
aS'30658799'
p184
aS'27916487'
p185
aS'68315599'
p186
aS'96082155'
p187
aS'78821918'
p188
aS'5517869'
p189
aS'83415514'
p190
aS'99283252'
p191
aS'11996292'
p192
aS'47462856'
p193
aS'13911001'
p194
aS'50184318'
p195
aS'78443067'
p196
aS'64600457'
p197
aS'75997788'
p198
aS'3883025'
p199
aS'58699305'
p200
aS'1181560'
p201
aS'49631542'
p202
aS'77376714'
p203
aS'27241113'
p204
ag121
aS'42171678'
p205
aS'17222374'
p206
aS'78544592'
p207
aS'70072978'
p208
asg23
S'20'
p209
sg25
S'Moderne Databases'
p210
sg27
g169
sg29
g134
sg31
(iread_data
Room
p211
(dp212
g23
S'48'
p213
sg25
S'B0.201'
p214
sbsbaa(lp215
(ischedule
Activity
p216
(dp217
g8
(lp218
S'42196732'
p219
ag60
ag121
ag178
aS'21029457'
p220
aS'28359697'
p221
ag61
aS'5298748'
p222
aS'29526540'
p223
ag10
ag117
asg23
S'20'
p224
sg25
S'Bioinformatica'
p225
sg27
g169
sg29
g30
sg31
g82
sba(ischedule
Activity
p226
(dp227
g8
(lp228
S'3407554'
p229
aS'86291592'
p230
ag119
aS'60312776'
p231
aS'10792879'
p232
aS'24613625'
p233
aS'79033175'
p234
aS'11741347'
p235
aS'7957843'
p236
aS'2079771'
p237
aS'65852230'
p238
aS'44391517'
p239
ag59
aS'34110913'
p240
aS'80135353'
p241
aS'88636924'
p242
ag22
asg23
S'40'
p243
sg25
S'Compilerbouw'
p244
sg27
g169
sg29
g134
sg31
(iread_data
Room
p245
(dp246
g23
g213
sg25
g214
sbsba(ischedule
Activity
p247
(dp248
g8
(lp249
S'39459642'
p250
ag14
aS'5595824'
p251
aS'54772132'
p252
aS'2317551'
p253
ag120
aS'43689934'
p254
ag118
aS'92665222'
p255
aS'15911353'
p256
aS'65960683'
p257
aS'72895450'
p258
aS'46989508'
p259
ag102
aS'95007221'
p260
aS'88752563'
p261
aS'27187154'
p262
aS'94687383'
p263
aS'72796858'
p264
aS'13284244'
p265
aS'34872117'
p266
ag127
aS'81385263'
p267
ag184
aS'84524083'
p268
aS'98105190'
p269
aS'49683101'
p270
ag41
ag194
aS'66701209'
p271
aS'86988337'
p272
aS'48503689'
p273
ag108
aS'83266686'
p274
aS'8464817'
p275
ag122
ag186
aS'75759231'
p276
aS'34243356'
p277
aS'53202517'
p278
aS'88855695'
p279
aS'79167252'
p280
aS'40791377'
p281
aS'76802764'
p282
aS'9067939'
p283
aS'6723948'
p284
aS'1766560'
p285
aS'76661016'
p286
ag52
ag63
aS'5368702'
p287
ag39
asg23
g243
sg25
g244
sg27
g169
sg29
g30
sg31
(iread_data
Room
p288
(dp289
g23
g172
sg25
g173
sbsba(ischedule
Activity
p290
(dp291
g8
(lp292
S'5976174'
p293
aS'58736785'
p294
ag56
aS'85236626'
p295
aS'58040377'
p296
aS'16097870'
p297
aS'31897288'
p298
aS'670011'
p299
aS'82968410'
p300
aS'51566595'
p301
aS'27925117'
p302
aS'99975346'
p303
aS'87602030'
p304
aS'1886996'
p305
aS'83869542'
p306
aS'33760909'
p307
aS'57086672'
p308
aS'52304977'
p309
ag143
asg23
S'20'
p310
sg25
S'Heuristieken 2'
p311
sg27
g28
sg29
g30
sg31
(iread_data
Room
p312
(dp313
g23
g149
sg25
g150
sbsba(ischedule
Activity
p314
(dp315
g8
(lp316
S'43027916'
p317
ag195
ag125
ag142
aS'3233378'
p318
ag179
aS'62701040'
p319
ag131
aS'48601268'
p320
aS'13534377'
p321
aS'4783858'
p322
aS'15902055'
p323
aS'9332762'
p324
aS'73980360'
p325
asg23
g24
sg25
g26
sg27
g28
sg29
S'4'
p326
sg31
(iread_data
Room
p327
(dp328
g23
g112
sg25
g113
sbsba(ischedule
Activity
p329
(dp330
g8
(lp331
S'96453361'
p332
aS'247918'
p333
aS'6913074'
p334
aS'96054456'
p335
ag54
aS'14816774'
p336
ag155
aS'66120270'
p337
ag75
aS'20883994'
p338
aS'56815156'
p339
asg23
g224
sg25
g225
sg27
g169
sg29
g134
sg31
(iread_data
Room
p340
(dp341
g23
g34
sg25
g35
sbsba(ischedule
Activity
p342
(dp343
g8
(lp344
S'59753700'
p345
ag154
aS'93023961'
p346
aS'91196968'
p347
aS'97136582'
p348
aS'68360259'
p349
aS'45414528'
p350
ag144
aS'17823206'
p351
ag12
aS'87900893'
p352
aS'66122625'
p353
aS'25330192'
p354
aS'74131924'
p355
asg23
S'10'
p356
sg25
g146
sg27
g169
sg29
g109
sg31
(iread_data
Room
p357
(dp358
g23
g137
sg25
g138
sbsbaa(lp359
(ischedule
Activity
p360
(dp361
g8
(lp362
g193
aS'38329455'
p363
aS'37498675'
p364
ag159
ag262
aS'82688900'
p365
aS'7492204'
p366
ag287
aS'9731271'
p367
aS'55474917'
p368
aS'22731474'
p369
aS'69086548'
p370
aS'65003379'
p371
aS'94467156'
p372
ag104
aS'5615125'
p373
aS'41527759'
p374
aS'23798155'
p375
aS'94955328'
p376
aS'47605891'
p377
aS'99272880'
p378
aS'97371272'
p379
ag232
aS'39919665'
p380
aS'31247305'
p381
aS'24875739'
p382
aS'8522855'
p383
aS'20239127'
p384
ag335
ag277
aS'74182182'
p385
aS'58469172'
p386
ag64
ag268
aS'3685034'
p387
aS'14398123'
p388
aS'79858178'
p389
ag130
aS'51542218'
p390
ag158
ag163
aS'41585485'
p391
ag65
ag75
aS'78735049'
p392
aS'46570285'
p393
aS'51186803'
p394
ag58
aS'34262212'
p395
ag102
aS'63408522'
p396
aS'56988998'
p397
ag338
ag52
aS'64296965'
p398
aS'63955238'
p399
aS'79366078'
p400
aS'10872825'
p401
aS'61518436'
p402
ag71
aS'56749879'
p403
ag347
aS'38499176'
p404
aS'97019450'
p405
ag202
aS'59075181'
p406
aS'14591033'
p407
aS'32705005'
p408
aS'91139627'
p409
aS'63634350'
p410
aS'81218347'
p411
aS'28957789'
p412
aS'44940353'
p413
aS'78136904'
p414
aS'23391676'
p415
aS'20331158'
p416
ag106
aS'39230359'
p417
aS'76924297'
p418
aS'54569540'
p419
aS'72547110'
p420
ag351
aS'36903574'
p421
aS'39659121'
p422
asg23
I1000
sg25
S'Kansrekenen 2'
p423
sg27
S'lectures'
p424
sg29
I0
sg31
(iread_data
Room
p425
(dp426
g23
g34
sg25
g35
sbsba(ischedule
Activity
p427
(dp428
g8
(lp429
g129
ag370
ag379
aS'93041523'
p430
aS'37110913'
p431
ag117
ag124
ag128
ag121
ag125
ag159
ag118
ag127
ag126
ag73
aS'12430748'
p432
aS'44901052'
p433
aS'14383795'
p434
ag123
aS'40434933'
p435
ag186
aS'6249823'
p436
ag192
ag164
aS'77264363'
p437
aS'76487754'
p438
ag122
ag324
ag120
aS'47982619'
p439
aS'36785409'
p440
ag119
ag144
ag16
aS'21192048'
p441
aS'7106649'
p442
ag131
ag130
asg23
I1000
sg25
g133
sg27
g424
sg29
I0
sg31
(iread_data
Room
p443
(dp444
g23
g84
sg25
g85
sbsba(ischedule
Activity
p445
(dp446
g8
(lp447
g63
aS'26260141'
p448
ag203
ag62
ag59
ag293
ag60
ag320
aS'37830626'
p449
ag61
aS'9287708'
p450
aS'40343779'
p451
ag69
aS'21095566'
p452
aS'83210352'
p453
aS'29640619'
p454
ag39
ag76
ag45
aS'52311353'
p455
ag44
aS'28357474'
p456
aS'45915482'
p457
ag47
ag66
ag51
ag79
ag231
aS'25106480'
p458
ag127
aS'44671041'
p459
ag46
aS'3727435'
p460
ag41
asg23
S'40'
p461
sg25
g81
sg27
g169
sg29
g134
sg31
(iread_data
Room
p462
(dp463
g23
g137
sg25
g138
sbsba(ischedule
Activity
p464
(dp465
g8
(lp466
S'42406214'
p467
aS'2550487'
p468
ag258
aS'73823548'
p469
ag41
aS'75005528'
p470
aS'28618400'
p471
aS'77831658'
p472
ag10
ag13
aS'19662602'
p473
aS'6939933'
p474
aS'14941752'
p475
asg23
S'15'
p476
sg25
S'Project Numerical Recipes'
p477
sg27
g169
sg29
g109
sg31
(iread_data
Room
p478
(dp479
g23
g172
sg25
g173
sbsba(ischedule
Activity
p480
(dp481
g8
(lp482
g184
ag194
ag201
ag285
ag196
ag200
ag208
ag160
ag274
aS'84449005'
p483
ag235
ag191
asg23
S'20'
p484
sg25
g210
sg27
g28
sg29
g30
sg31
(iread_data
Room
p485
(dp486
g23
g112
sg25
g113
sbsba(ischedule
Activity
p487
(dp488
g8
(lp489
S'85284256'
p490
ag280
aS'4709948'
p491
ag230
ag323
aS'79879876'
p492
ag376
ag275
ag161
ag183
ag12
aS'66433883'
p493
asg23
S'20'
p494
sg25
S'Programmeren in Java 2'
p495
sg27
g169
sg29
g109
sg31
(iread_data
Room
p496
(dp497
g23
g213
sg25
g214
sbsbaa(lp498
(ischedule
Activity
p499
(dp500
g8
g362
sg23
I1000
sg25
g423
sg27
g424
sg29
I0
sg31
g32
sba(ischedule
Activity
p501
(dp502
g8
(lp503
g20
ag319
ag22
ag317
ag13
ag95
ag18
ag195
ag230
ag189
ag105
ag98
ag10
aS'68601184'
p504
ag100
ag320
ag91
ag322
ag89
ag104
ag398
ag15
ag131
ag257
ag325
ag205
ag96
ag456
ag11
ag454
ag107
ag125
ag21
ag108
ag206
ag92
ag458
ag97
ag12
aS'34773179'
p505
ag99
ag93
ag231
ag142
ag323
ag103
ag14
ag318
ag16
ag321
ag94
ag179
ag307
ag101
ag324
ag106
ag90
ag219
ag19
ag17
ag102
asg23
I1000
sg25
g26
sg27
g424
sg29
I0
sg31
(iread_data
Room
p506
(dp507
g23
g137
sg25
g138
sbsba(ischedule
Activity
p508
(dp509
g8
(lp510
S'86807027'
p511
ag305
ag255
ag198
aS'40633534'
p512
asg23
S'10'
p513
sg25
S'Advanced Heuristics'
p514
sg27
g169
sg29
g134
sg31
(iread_data
Room
p515
(dp516
g23
g149
sg25
g150
sbsba(ischedule
Activity
p517
(dp518
g8
(lp519
g57
aS'19858730'
p520
ag355
ag264
aS'61611295'
p521
ag250
aS'36508571'
p522
ag301
aS'34806836'
p523
ag49
ag433
aS'62872965'
p524
ag55
ag50
asg23
S'10'
p525
sg25
S'Autonomous Agents 2'
p526
sg27
g28
sg29
g134
sg31
(iread_data
Room
p527
(dp528
g23
g84
sg25
g85
sbsbaa(lp529
(ischedule
Activity
p530
(dp531
g8
(lp532
g11
aS'22288615'
p533
aS'16333449'
p534
ag308
ag61
ag46
aS'76903244'
p535
aS'76648468'
p536
ag417
ag56
aS'28358060'
p537
aS'77392404'
p538
aS'49908313'
p539
aS'1137946'
p540
ag373
ag44
aS'66034145'
p541
aS'3474870'
p542
aS'20618153'
p543
aS'2416751'
p544
asg23
S'20'
p545
sg25
S'Webprogrammeren en databases'
p546
sg27
g169
sg29
g134
sg31
(iread_data
Room
p547
(dp548
g23
g112
sg25
g113
sbsba(ischedule
Activity
p549
(dp550
g8
(lp551
g293
ag402
ag270
aS'67625383'
p552
aS'90067329'
p553
ag250
ag262
ag178
ag397
ag295
aS'38296757'
p554
ag237
ag281
aS'46701583'
p555
aS'33252501'
p556
ag104
aS'26857113'
p557
ag70
ag387
ag180
ag372
ag375
asg23
I1000
sg25
S'Machine Learning'
p558
sg27
g424
sg29
I0
sg31
(iread_data
Room
p559
(dp560
g23
g213
sg25
g214
sbsba(ischedule
Activity
p561
(dp562
g8
(lp563
g267
ag203
ag118
ag272
ag374
ag258
ag64
ag74
aS'91527663'
p564
ag452
ag451
aS'88596522'
p565
aS'34765676'
p566
aS'3707829'
p567
aS'44828429'
p568
aS'64947290'
p569
aS'53585410'
p570
aS'51509565'
p571
aS'43902015'
p572
aS'57467488'
p573
asg23
S'25'
p574
sg25
S'Algoritmen en complexiteit'
p575
sg27
g28
sg29
g30
sg31
(iread_data
Room
p576
(dp577
g23
g149
sg25
g150
sbsba(ischedule
Activity
p578
(dp579
g8
(lp580
g352
aS'47477884'
p581
aS'86180471'
p582
ag97
aS'23658570'
p583
aS'40141996'
p584
aS'47932106'
p585
aS'10609762'
p586
aS'94686490'
p587
ag220
aS'79888156'
p588
aS'59220392'
p589
ag367
aS'72665524'
p590
ag335
ag336
ag121
aS'33672995'
p591
aS'27064249'
p592
ag48
aS'14179347'
p593
ag76
ag54
ag66
ag457
aS'93361408'
p594
aS'22168693'
p595
ag297
ag274
ag190
ag99
aS'56872729'
p596
ag448
aS'31306819'
p597
asg23
S'40'
p598
sg25
S'Calculus 2'
p599
sg27
g28
sg29
g134
sg31
(iread_data
Room
p600
(dp601
g23
g172
sg25
g173
sbsba(ischedule
Activity
p602
(dp603
g8
(lp604
g40
ag55
ag523
ag264
ag52
aS'27298319'
p605
asg23
S'10'
p606
sg25
g526
sg27
g169
sg29
g134
sg31
(iread_data
Room
p607
(dp608
g23
g34
sg25
g35
sbsba(ischedule
Activity
p609
(dp610
g8
(lp611
g189
ag454
ag97
ag103
ag219
ag307
ag323
ag505
ag94
ag142
ag96
ag321
ag17
ag324
ag206
ag98
ag205
ag91
ag257
ag107
ag398
ag317
ag231
ag14
ag108
ag92
ag322
ag125
ag95
asg23
S'20'
p612
sg25
g26
sg27
g169
sg29
g134
sg31
(iread_data
Room
p613
(dp614
g23
g84
sg25
g85
sbsba(ischedule
Activity
p615
(dp616
g8
(lp617
g233
ag41
ag278
ag369
ag284
aS'3168419'
p618
ag403
ag45
aS'81200278'
p619
aS'22826928'
p620
ag43
ag355
ag12
ag472
aS'30050930'
p621
aS'79617364'
p622
aS'30195935'
p623
ag102
aS'33930505'
p624
ag50
ag197
aS'4568018'
p625
ag407
asg23
g224
sg25
g225
sg27
g169
sg29
g109
sg31
(iread_data
Room
p626
(dp627
g23
g137
sg25
g138
sbsbaaa(lp628
(lp629
(ischedule
Activity
p630
(dp631
g8
(lp632
g41
ag59
ag250
ag194
ag266
ag264
ag280
ag281
ag230
ag265
ag277
ag268
ag186
ag256
ag122
ag260
ag278
ag239
ag14
ag267
ag234
ag240
ag285
ag233
ag270
ag275
ag251
ag258
ag242
ag276
ag22
ag279
ag252
ag238
ag286
ag273
ag284
ag255
ag119
ag274
ag253
ag257
ag120
ag235
ag231
ag262
ag241
ag283
ag108
ag63
ag232
ag282
ag184
ag52
ag272
ag39
ag271
ag287
ag127
ag118
ag102
ag269
ag237
ag261
ag254
ag236
ag263
ag259
ag229
asg23
I1000
sg25
g244
sg27
g424
sg29
I0
sg31
(iread_data
Room
p633
(dp634
g23
g172
sg25
g173
sbsba(ischedule
Activity
p635
(dp636
g8
(lp637
g192
ag440
ag16
ag436
ag324
ag144
ag159
ag164
ag434
ag379
ag435
ag73
ag439
ag438
ag441
ag437
ag433
ag431
ag430
ag432
ag370
ag186
ag442
asg23
g132
sg25
g133
sg27
g28
sg29
g30
sg31
(iread_data
Room
p638
(dp639
g23
g84
sg25
g85
sbsba(ischedule
Activity
p640
(dp641
g8
(lp642
g454
ag92
aS'51791169'
p643
aS'7386961'
p644
ag405
aS'34900967'
p645
aS'41153310'
p646
aS'10702778'
p647
ag299
ag395
ag459
ag570
ag543
aS'4921119'
p648
ag334
ag404
aS'15249775'
p649
aS'73893840'
p650
ag197
ag504
aS'37399898'
p651
aS'12782624'
p652
aS'63096281'
p653
asg23
g494
sg25
g495
sg27
g169
sg29
g30
sg31
(iread_data
Room
p654
(dp655
g23
g137
sg25
g138
sbsba(ischedule
Activity
p656
(dp657
g8
(lp658
g12
ag353
aS'13996448'
p659
ag345
aS'99453514'
p660
ag301
aS'87314964'
p661
ag155
ag70
ag619
ag350
ag455
aS'19337738'
p662
ag348
ag355
ag352
ag347
asg23
g145
sg25
g146
sg27
g28
sg29
g30
sg31
(iread_data
Room
p663
(dp664
g23
g149
sg25
g150
sbsba(ischedule
Activity
p665
(dp666
g8
(lp667
g491
ag56
ag193
ag46
aS'66621166'
p668
ag206
ag117
ag205
ag195
ag179
ag178
aS'58592894'
p669
ag183
ag158
ag223
ag182
ag393
ag127
asg23
g484
sg25
g210
sg27
g28
sg29
g109
sg31
(iread_data
Room
p670
(dp671
g23
g112
sg25
g113
sbsba(ischedule
Activity
p672
(dp673
g8
(lp674
g625
ag89
aS'65675896'
p675
aS'44151631'
p676
aS'55103073'
p677
ag590
aS'14138904'
p678
ag74
aS'42297781'
p679
aS'47260040'
p680
ag142
aS'1695839'
p681
aS'71839156'
p682
aS'74361881'
p683
aS'41644639'
p684
asg23
S'15'
p685
sg25
S'Compilerbouw practicum'
p686
sg27
g169
sg29
g30
sg31
(iread_data
Room
p687
(dp688
g23
g213
sg25
g214
sbsbaa(lp689
(ischedule
Activity
p690
(dp691
g8
(lp692
g11
ag308
ag46
ag56
ag44
ag543
ag538
ag541
ag544
asg23
S'20'
p693
sg25
g546
sg27
g28
sg29
g134
sg31
(iread_data
Room
p694
(dp695
g23
g137
sg25
g138
sbsba(ischedule
Activity
p696
(dp697
g8
(lp698
g98
aS'41790793'
p699
ag258
ag278
ag96
ag592
ag17
aS'17092717'
p700
aS'67073567'
p701
ag572
aS'14303208'
p702
ag435
ag436
aS'14847953'
p703
aS'53512831'
p704
aS'69459473'
p705
aS'24891081'
p706
aS'10698627'
p707
aS'94930277'
p708
asg23
g545
sg25
g546
sg27
g169
sg29
g30
sg31
(iread_data
Room
p709
(dp710
g23
g149
sg25
g150
sbsba(ischedule
Activity
p711
(dp712
g8
(lp713
g431
ag346
aS'98780382'
p714
ag354
ag154
ag349
ag351
asg23
g145
sg25
g146
sg27
g28
sg29
g134
sg31
(iread_data
Room
p715
(dp716
g23
g112
sg25
g113
sbsba(ischedule
Activity
p717
(dp718
g8
(lp719
g219
ag625
ag197
ag222
ag284
ag178
ag618
ag117
ag337
ag50
ag220
ag620
ag339
ag102
ag369
ag10
ag61
ag621
ag12
ag403
ag221
asg23
S'20'
p720
sg25
g225
sg27
g28
sg29
g109
sg31
(iread_data
Room
p721
(dp722
g23
g34
sg25
g35
sbsba(ischedule
Activity
p723
(dp724
g8
(lp725
g108
aS'34588570'
p726
aS'58866007'
p727
ag542
ag347
ag651
ag177
ag648
ag376
ag596
ag368
aS'16011419'
p728
ag129
aS'93566383'
p729
ag524
ag123
ag90
ag470
aS'55412918'
p730
aS'26172512'
p731
ag587
aS'21311067'
p732
aS'54074680'
p733
ag407
aS'79937969'
p734
ag297
ag299
ag622
ag277
ag682
aS'32595335'
p735
aS'61060652'
p736
ag453
ag57
ag219
aS'23565001'
p737
aS'96118484'
p738
aS'66570705'
p739
ag534
ag20
ag92
ag404
aS'80709893'
p740
aS'80998260'
p741
ag385
ag120
ag411
ag22
ag522
ag189
ag267
ag58
ag455
aS'90743504'
p742
asg23
I1000
sg25
S'Lineaire Algebra'
p743
sg27
g424
sg29
I0
sg31
(iread_data
Room
p744
(dp745
g23
g172
sg25
g173
sbsba(ischedule
Activity
p746
(dp747
g8
(lp748
S'77960666'
p749
ag272
ag22
ag583
ag319
ag557
ag324
ag410
ag335
ag378
aS'20830477'
p750
aS'70113753'
p751
ag273
aS'88263855'
p752
ag439
ag468
aS'92778619'
p753
ag263
ag190
ag15
ag511
ag421
asg23
g494
sg25
g495
sg27
g169
sg29
g134
sg31
(iread_data
Room
p754
(dp755
g23
g84
sg25
g85
sbsba(ischedule
Activity
p756
(dp757
g8
(lp758
g142
ag155
ag660
ag301
ag662
ag661
ag619
ag70
asg23
g356
sg25
g146
sg27
g169
sg29
g30
sg31
(iread_data
Room
p759
(dp760
g23
g213
sg25
g214
sbsbaa(lp761
(ischedule
Activity
p762
(dp763
g8
g503
sg23
I1000
sg25
g26
sg27
g424
sg29
I0
sg31
(iread_data
Room
p764
(dp765
g23
g34
sg25
g35
sbsba(ischedule
Activity
p766
(dp767
g8
(lp768
S'58480929'
p769
aS'88737765'
p770
ag440
ag376
ag317
ag645
aS'56544130'
p771
ag339
ag277
ag188
aS'83443653'
p772
aS'72456780'
p773
aS'70193386'
p774
aS'73350019'
p775
ag69
ag737
ag375
aS'87830198'
p776
aS'82854435'
p777
aS'60661905'
p778
ag129
ag583
ag648
ag121
ag62
ag390
ag251
aS'62613937'
p779
ag398
ag163
ag308
aS'80188025'
p780
aS'18477924'
p781
ag40
ag68
aS'78822885'
p782
aS'97838175'
p783
ag405
aS'48678993'
p784
ag58
ag455
aS'72586808'
p785
aS'5085194'
p786
ag198
ag472
ag297
ag66
ag591
aS'14637758'
p787
asg23
I1000
sg25
S'Analysemethoden en -technieken'
p788
sg27
g424
sg29
I0
sg31
(iread_data
Room
p789
(dp790
g23
g172
sg25
g173
sbsba(ischedule
Activity
p791
(dp792
g8
(lp793
g239
aS'23257088'
p794
ag253
ag158
ag368
ag347
ag729
aS'88519892'
p795
aS'73196865'
p796
ag250
ag415
ag262
ag156
ag70
ag351
ag252
aS'54395877'
p797
ag366
ag620
aS'3678531'
p798
asg23
g494
sg25
g495
sg27
g169
sg29
g326
sg31
(iread_data
Room
p799
(dp800
g23
g112
sg25
g113
sbsba(ischedule
Activity
p801
(dp802
g8
(lp803
g43
aS'23215240'
p804
aS'51472074'
p805
ag45
ag570
ag434
aS'51673172'
p806
ag404
aS'82066165'
p807
ag565
asg23
g685
sg25
g686
sg27
g169
sg29
g134
sg31
(iread_data
Room
p808
(dp809
g23
g213
sg25
g214
sbsba(ischedule
Activity
p810
(dp811
g8
(lp812
g117
ag491
ag223
ag46
ag56
aS'48198668'
p813
ag127
ag669
ag393
ag274
ag483
aS'18144425'
p814
ag235
aS'59111489'
p815
aS'51650744'
p816
ag668
aS'49219163'
p817
asg23
g209
sg25
g210
sg27
g169
sg29
g109
sg31
(iread_data
Room
p818
(dp819
g23
g149
sg25
g150
sbsba(ischedule
Activity
p820
(dp821
g8
(lp822
g180
ag241
ag208
ag386
ag79
ag284
ag659
ag77
aS'39905995'
p823
ag569
ag295
ag350
aS'90296821'
p824
ag581
ag533
ag367
aS'37279234'
p825
aS'28943658'
p826
ag78
ag707
aS'88597745'
p827
ag555
ag403
ag544
asg23
g494
sg25
g495
sg27
g169
sg29
S'5'
p828
sg31
(iread_data
Room
p829
(dp830
g23
g84
sg25
g85
sbsbaa(lp831
(ischedule
Activity
p832
(dp833
g8
(lp834
g41
ag266
ag230
ag122
ag14
ag234
ag270
ag22
ag252
ag119
ag253
ag231
ag108
ag127
ag102
ag237
ag120
ag269
ag265
ag239
ag274
ag262
ag254
ag52
ag250
ag281
ag59
ag260
ag256
ag273
ag257
ag261
ag282
ag240
ag287
ag283
ag278
ag184
ag241
ag251
ag259
ag268
ag267
ag275
ag279
ag280
ag118
ag235
ag285
ag286
ag272
ag263
ag238
asg23
S'40'
p835
sg25
g244
sg27
g28
sg29
g30
sg31
g633
sba(ischedule
Activity
p836
(dp837
g8
(lp838
g662
ag431
ag455
ag143
ag355
ag354
ag12
ag350
ag348
ag353
ag714
ag345
ag619
ag144
ag70
ag659
ag351
ag346
ag347
ag154
ag661
ag352
ag142
ag660
ag349
ag301
ag155
asg23
I1000
sg25
g146
sg27
g424
sg29
I0
sg31
(iread_data
Room
p839
(dp840
g23
g137
sg25
g138
sbsba(ischedule
Activity
p841
(dp842
g8
(lp843
g16
ag96
ag414
ag618
ag592
aS'39429093'
p844
ag471
ag338
ag779
ag590
ag703
aS'60352393'
p845
ag581
aS'70844780'
p846
aS'72683344'
p847
asg23
g513
sg25
g514
sg27
g169
sg29
g30
sg31
(iread_data
Room
p848
(dp849
g23
g213
sg25
g214
sbsba(ischedule
Activity
p850
(dp851
g8
(lp852
g125
ag186
aS'8557857'
p853
ag794
ag319
aS'13658563'
p854
ag433
aS'17496687'
p855
asg23
g167
sg25
g168
sg27
g169
sg29
g30
sg31
(iread_data
Room
p856
(dp857
g23
g34
sg25
g35
sbsba(ischedule
Activity
p858
(dp859
g8
(lp860
g188
ag418
ag286
ag302
ag57
ag458
ag39
ag271
ag383
aS'25994016'
p861
aS'55480737'
p862
ag304
ag191
aS'58253841'
p863
ag505
ag684
aS'25077484'
p864
ag555
ag512
asg23
S'15'
p865
sg25
S'Project Genetic Algorithms'
p866
sg27
g169
sg29
g134
sg31
(iread_data
Room
p867
(dp868
g23
g112
sg25
g113
sbsba(ischedule
Activity
p869
(dp870
g8
(lp871
g11
ag804
ag47
ag391
ag778
aS'64053722'
p872
ag19
ag372
ag296
asg23
g494
sg25
g495
sg27
g169
sg29
S'6'
p873
sg31
(iread_data
Room
p874
(dp875
g23
g149
sg25
g150
sbsba(ischedule
Activity
p876
(dp877
g8
(lp878
g233
ag784
ag683
ag770
ag593
aS'5526560'
p879
ag705
ag776
ag388
aS'75680261'
p880
asg23
g865
sg25
g866
sg27
g169
sg29
g30
sg31
(iread_data
Room
p881
(dp882
g23
g84
sg25
g85
sbsbaa(lp883
(ischedule
Activity
p884
(dp885
g8
(lp886
g433
ag162
ag853
ag158
ag854
ag319
ag160
ag125
ag855
ag186
ag163
ag156
ag794
ag161
ag155
ag165
ag164
ag166
ag159
ag154
ag157
asg23
I1000
sg25
g168
sg27
g424
sg29
I0
sg31
g32
sba(ischedule
Activity
p887
(dp888
g8
(lp889
g649
ag143
ag11
ag298
ag293
ag305
ag268
ag300
ag296
aS'35315956'
p890
ag294
ag299
ag317
ag619
ag301
ag302
ag56
ag303
aS'5739011'
p891
ag309
ag784
ag369
ag295
ag566
ag308
ag306
ag307
ag442
ag304
aS'72652638'
p892
ag297
ag410
asg23
I1000
sg25
g311
sg27
g424
sg29
I0
sg31
(iread_data
Room
p893
(dp894
g23
g137
sg25
g138
sbsba(ischedule
Activity
p895
(dp896
g8
(lp897
g205
ag200
ag121
ag160
ag817
ag117
ag195
ag177
ag191
ag207
ag178
ag491
ag208
ag192
ag223
ag127
ag483
ag188
ag813
ag56
ag187
ag814
ag179
ag189
ag184
ag196
ag202
ag186
ag204
ag668
ag194
ag180
ag815
ag158
ag816
ag199
ag669
ag181
ag235
ag183
ag198
ag46
ag190
ag125
ag203
ag185
ag182
ag193
ag206
ag285
ag274
ag197
ag201
ag393
asg23
I1000
sg25
g210
sg27
g424
sg29
I0
sg31
(iread_data
Room
p898
(dp899
g23
g172
sg25
g173
sbsba(ischedule
Activity
p900
(dp901
g8
g725
sg23
I1000
sg25
g743
sg27
g424
sg29
I0
sg31
(iread_data
Room
p902
(dp903
g23
g213
sg25
g214
sbsba(ischedule
Activity
p904
(dp905
g8
(lp906
g98
ag700
ag699
ag436
ag542
ag258
ag701
ag61
ag435
ag17
ag592
ag278
ag96
ag704
ag539
ag572
ag702
ag706
ag703
ag534
ag707
ag540
ag705
ag535
ag708
ag536
ag533
ag417
ag537
ag373
asg23
g693
sg25
g546
sg27
g28
sg29
g30
sg31
(iread_data
Room
p907
(dp908
g23
g84
sg25
g85
sbsba(ischedule
Activity
p909
(dp910
g8
(lp911
g334
ag414
aS'90474003'
p912
ag13
ag345
ag272
ag431
ag40
aS'49922855'
p913
ag749
aS'27370083'
p914
ag660
aS'68286356'
p915
ag620
ag774
ag554
ag467
ag419
aS'36213792'
p916
ag753
asg23
S'20'
p917
sg25
S'Reflectie op de digitale cultuur'
p918
sg27
g28
sg29
g109
sg31
(iread_data
Room
p919
(dp920
g23
g112
sg25
g113
sbsba(ischedule
Activity
p921
(dp922
g8
(lp923
g432
ag130
aS'32183908'
p924
aS'34691309'
p925
ag230
ag231
aS'81116418'
p926
ag45
ag49
ag387
ag511
aS'32044893'
p927
ag273
aS'19214659'
p928
aS'37419523'
p929
aS'21070547'
p930
ag71
asg23
g476
sg25
g477
sg27
g169
sg29
g134
sg31
(iread_data
Room
p931
(dp932
g23
g149
sg25
g150
sbsbaaa(lp933
(lp934
(ischedule
Activity
p935
(dp936
g8
(lp937
g417
ag592
ag543
ag539
ag536
ag703
ag706
ag705
ag98
ag11
ag700
ag702
ag56
ag704
ag699
ag544
ag436
ag533
ag572
ag17
ag373
ag540
ag538
ag541
ag542
ag534
ag258
ag308
ag537
ag707
ag701
ag278
ag46
ag96
ag535
ag708
ag61
ag44
ag435
asg23
I1000
sg25
g546
sg27
g424
sg29
I0
sg31
(iread_data
Room
p938
(dp939
g23
g34
sg25
g35
sbsba(ischedule
Activity
p940
(dp941
g8
(lp942
g458
aS'82872148'
p943
ag196
ag448
ag130
ag191
ag456
ag322
ag320
ag460
ag374
ag231
ag372
ag451
ag457
ag203
ag736
ag453
ag459
ag142
ag381
ag368
ag293
ag450
ag455
ag318
ag127
ag449
ag625
ag452
ag740
ag646
ag454
ag144
asg23
g80
sg25
g81
sg27
g28
sg29
g134
sg31
(iread_data
Room
p944
(dp945
g23
g84
sg25
g85
sbsba(ischedule
Activity
p946
(dp947
g8
(lp948
g158
ag160
ag125
ag285
asg23
g209
sg25
g210
sg27
g169
sg29
g30
sg31
(iread_data
Room
p949
(dp950
g23
g149
sg25
g150
sbsba(ischedule
Activity
p951
(dp952
g8
(lp953
S'38179241'
p954
ag928
aS'81155296'
p955
ag286
ag468
aS'37701751'
p956
ag567
ag675
ag568
ag703
aS'21677389'
p957
ag16
aS'64768422'
p958
aS'20374340'
p959
ag619
ag48
ag729
ag287
ag267
ag566
ag418
aS'69634191'
p960
ag541
aS'28055464'
p961
ag651
asg23
I1000
sg25
S'Interactie-ontwerp'
p962
sg27
g424
sg29
I0
sg31
(iread_data
Room
p963
(dp964
g23
g137
sg25
g138
sbsba(ischedule
Activity
p965
(dp966
g8
(lp967
g278
ag197
ag624
ag407
ag12
ag620
ag336
ag178
ag220
ag121
ag284
ag45
ag219
ag622
ag233
ag75
ag43
ag335
ag337
ag222
ag338
ag54
ag355
ag60
ag623
ag333
ag625
ag334
ag102
ag41
ag50
ag155
ag332
ag339
ag221
ag621
ag10
ag61
ag223
ag403
ag472
ag618
ag117
ag619
ag369
asg23
I1000
sg25
g225
sg27
g424
sg29
I0
sg31
(iread_data
Room
p968
(dp969
g23
g172
sg25
g173
sbsba(ischedule
Activity
p970
(dp971
g8
(lp972
g55
ag301
ag189
ag521
ag520
ag50
ag52
ag355
ag250
ag433
ag49
aS'88627897'
p973
ag57
ag522
ag297
ag751
ag523
ag605
ag40
ag264
ag431
ag524
asg23
I1000
sg25
g526
sg27
g424
sg29
I0
sg31
(iread_data
Room
p974
(dp975
g23
g112
sg25
g113
sbsba(ischedule
Activity
p976
(dp977
g8
(lp978
g620
aS'82390428'
p979
ag62
ag39
ag845
ag74
ag651
ag53
ag334
ag431
ag749
ag384
ag440
ag402
aS'20095994'
p980
ag40
ag467
aS'51415617'
p981
ag387
ag308
ag129
ag854
aS'51052738'
p982
ag419
ag753
ag554
ag183
ag303
ag117
ag414
ag660
aS'27805666'
p983
ag912
ag268
ag776
ag927
ag483
ag179
ag13
ag914
ag222
ag345
ag774
ag538
ag916
ag778
ag915
ag846
ag913
ag491
ag272
asg23
I1000
sg25
g918
sg27
g424
sg29
I0
sg31
(iread_data
Room
p984
(dp985
g23
g213
sg25
g214
sbsbaa(lp986
(ischedule
Activity
p987
(dp988
g8
g972
sg23
I1000
sg25
g526
sg27
g424
sg29
I0
sg31
(iread_data
Room
p989
(dp990
g23
g112
sg25
g113
sbsba(ischedule
Activity
p991
(dp992
g8
(lp993
g572
ag879
aS'56121590'
p994
ag573
ag435
ag454
ag188
ag189
ag192
ag317
ag794
ag272
ag158
aS'59397895'
p995
aS'58083680'
p996
ag299
aS'62736669'
p997
ag333
ag250
ag618
aS'4529208'
p998
ag98
ag259
aS'56191333'
p999
ag569
ag470
ag336
aS'54540997'
p1000
ag564
ag223
asg23
S'40'
p1001
sg25
S'Databases 2'
p1002
sg27
g28
sg29
g30
sg31
(iread_data
Room
p1003
(dp1004
g23
g137
sg25
g138
sbsba(ischedule
Activity
p1005
(dp1006
g8
(lp1007
g854
aS'4353500'
p1008
aS'45660925'
p1009
ag403
ag144
ag156
ag736
ag625
ag353
ag40
aS'97417002'
p1010
ag750
ag492
ag475
aS'53775014'
p1011
ag682
ag294
ag421
ag411
ag91
ag322
ag416
ag269
ag66
asg23
S'25'
p1012
sg25
S'Heuristieken 1'
p1013
sg27
g28
sg29
g30
sg31
(iread_data
Room
p1014
(dp1015
g23
g84
sg25
g85
sbsba(ischedule
Activity
p1016
(dp1017
g8
(lp1018
g13
ag10
ag16
ag93
ag456
ag106
ag325
ag90
ag320
ag179
ag89
ag18
ag458
ag195
ag11
ag105
ag101
ag318
asg23
g612
sg25
g26
sg27
g169
sg29
g30
sg31
(iread_data
Room
p1019
(dp1020
g23
g149
sg25
g150
sbsba(ischedule
Activity
p1021
(dp1022
g8
(lp1023
g22
ag12
ag20
ag319
ag99
ag100
ag104
ag504
ag21
ag230
asg23
g612
sg25
g26
sg27
g169
sg29
g109
sg31
(iread_data
Room
p1024
(dp1025
g23
g213
sg25
g214
sbsba(ischedule
Activity
p1026
(dp1027
g8
(lp1028
g592
ag352
ag669
ag392
ag274
ag410
ag297
ag157
ag261
ag307
ag511
ag622
ag262
ag448
ag407
aS'72526473'
p1029
ag54
ag48
aS'62363761'
p1030
ag581
aS'11593163'
p1031
ag591
ag582
ag412
ag863
ag97
ag825
ag385
ag583
aS'75446434'
p1032
ag386
ag737
ag555
ag280
ag584
ag554
ag593
aS'77306636'
p1033
aS'34173695'
p1034
ag47
ag99
aS'12091019'
p1035
ag590
ag585
ag196
aS'70939718'
p1036
aS'65978354'
p1037
ag121
aS'19717077'
p1038
ag586
ag595
ag469
aS'75623387'
p1039
ag284
ag17
ag587
aS'55530367'
p1040
ag232
ag198
ag322
ag335
ag200
ag19
ag408
ag220
ag393
ag382
ag279
ag474
ag323
ag304
aS'61520025'
p1041
ag367
ag597
ag286
ag76
ag594
ag334
aS'6709529'
p1042
ag69
ag730
ag197
aS'82412626'
p1043
ag702
ag570
ag207
ag596
ag954
ag780
ag296
ag457
aS'53139134'
p1044
ag955
ag336
ag588
ag302
ag771
aS'56348773'
p1045
aS'23628642'
p1046
ag190
ag589
ag798
ag605
ag66
ag123
ag373
asg23
I1000
sg25
g599
sg27
g424
sg29
I0
sg31
(iread_data
Room
p1047
(dp1048
g23
g34
sg25
g35
sbsbaa(lp1049
(ischedule
Activity
p1050
(dp1051
g8
g632
sg23
I1000
sg25
g244
sg27
g424
sg29
I0
sg31
g32
sba(ischedule
Activity
p1052
(dp1053
g8
(lp1054
g192
ag180
ag181
ag185
ag198
ag121
ag203
ag814
ag197
ag189
ag188
ag817
ag207
ag813
ag187
ag816
ag125
ag177
ag815
ag186
ag204
ag190
ag199
ag202
asg23
g484
sg25
g210
sg27
g28
sg29
g134
sg31
(iread_data
Room
p1055
(dp1056
g23
g137
sg25
g138
sbsba(ischedule
Activity
p1057
(dp1058
g8
(lp1059
g323
ag448
ag94
ag161
ag293
ag555
aS'19540225'
p1060
ag493
ag142
aS'67817269'
p1061
ag605
ag12
ag414
aS'64554442'
p1062
ag391
ag383
ag89
ag301
ag542
ag669
ag421
aS'23652927'
p1063
ag332
asg23
g574
sg25
g575
sg27
g28
sg29
g134
sg31
(iread_data
Room
p1064
(dp1065
g23
g213
sg25
g214
sbsba(ischedule
Activity
p1066
(dp1067
g8
(lp1068
g40
ag42
ag43
ag374
ag142
ag53
ag65
ag54
ag372
ag381
ag72
ag625
ag73
ag64
ag58
ag55
ag736
ag144
ag71
ag130
ag67
ag50
ag646
ag56
ag74
ag196
ag322
ag78
ag75
ag57
ag318
ag191
ag48
ag52
ag943
ag740
ag68
ag49
ag70
ag77
ag368
asg23
g461
sg25
g81
sg27
g169
sg29
g30
sg31
(iread_data
Room
p1069
(dp1070
g23
g84
sg25
g85
sbsbaa(lp1071
(ischedule
Activity
p1072
(dp1073
g8
(lp1074
g189
ag50
ag431
ag433
ag973
ag301
ag522
ag297
ag57
ag520
ag751
ag250
ag521
ag49
asg23
g606
sg25
g526
sg27
g169
sg29
g109
sg31
g82
sba(ischedule
Activity
p1075
(dp1076
g8
g937
sg23
I1000
sg25
g546
sg27
g424
sg29
I0
sg31
(iread_data
Room
p1077
(dp1078
g23
g34
sg25
g35
sbsba(ischedule
Activity
p1079
(dp1080
g8
(lp1081
g162
ag125
ag161
ag156
ag160
ag157
ag854
ag158
ag794
ag319
asg23
S'15'
p1082
sg25
g168
sg27
g28
sg29
g134
sg31
(iread_data
Room
p1083
(dp1084
g23
g149
sg25
g150
sbsba(ischedule
Activity
p1085
(dp1086
g8
(lp1087
g14
ag372
ag483
ag129
ag806
ag582
ag807
asg23
g865
sg25
g866
sg27
g169
sg29
g109
sg31
(iread_data
Room
p1088
(dp1089
g23
g213
sg25
g214
sbsba(ischedule
Activity
p1090
(dp1091
g8
g967
sg23
I1000
sg25
g225
sg27
g424
sg29
I0
sg31
(iread_data
Room
p1092
(dp1093
g23
g137
sg25
g138
sbsba(ischedule
Activity
p1094
(dp1095
g8
(lp1096
g784
ag1030
ag70
ag994
ag199
ag785
ag99
ag354
ag367
ag773
ag491
ag999
ag236
ag471
ag91
aS'25557516'
p1097
aS'12170832'
p1098
aS'16912993'
p1099
ag381
ag451
ag454
ag421
ag845
ag230
asg23
S'20'
p1100
sg25
S'Netwerken en systeembeveiliging'
p1101
sg27
g169
sg29
g134
sg31
(iread_data
Room
p1102
(dp1103
g23
g172
sg25
g173
sbsba(ischedule
Activity
p1104
(dp1105
g8
(lp1106
g997
ag94
aS'59887191'
p1107
ag252
ag267
ag97
ag404
aS'26207525'
p1108
aS'64246605'
p1109
ag406
ag78
ag143
ag776
ag573
ag590
asg23
g1100
sg25
g1101
sg27
g169
sg29
g326
sg31
(iread_data
Room
p1110
(dp1111
g23
g112
sg25
g113
sbsbaa(lp1112
(ischedule
Activity
p1113
(dp1114
g8
(lp1115
g298
ag511
ag772
ag294
ag40
ag406
ag854
ag192
ag411
ag336
ag1011
ag573
ag66
aS'76393508'
p1116
ag205
ag21
ag1008
ag736
ag1010
ag91
ag1009
ag475
ag678
ag520
ag269
ag708
aS'87210640'
p1117
ag353
ag433
ag407
ag421
ag125
ag403
ag405
ag416
ag492
ag431
ag198
ag144
ag322
ag750
ag625
ag156
ag682
asg23
I1000
sg25
g1013
sg27
g424
sg29
I0
sg31
(iread_data
Room
p1118
(dp1119
g23
g137
sg25
g138
sbsba(ischedule
Activity
p1120
(dp1121
g8
(lp1122
g619
ag155
ag335
ag623
ag334
ag338
ag45
ag622
ag121
ag233
ag60
ag41
ag75
ag223
ag43
ag54
asg23
g720
sg25
g225
sg27
g28
sg29
g134
sg31
(iread_data
Room
p1123
(dp1124
g23
g213
sg25
g214
sbsba(ischedule
Activity
p1125
(dp1126
g8
(lp1127
g189
ag297
asg23
g525
sg25
g526
sg27
g28
sg29
g109
sg31
(iread_data
Room
p1128
(dp1129
g23
g149
sg25
g150
sbsba(ischedule
Activity
p1130
(dp1131
g8
(lp1132
g845
ag402
ag982
ag117
ag983
ag179
ag491
ag129
ag979
ag384
ag387
ag846
ag268
ag927
ag303
ag483
ag440
ag53
ag538
ag778
ag651
ag39
ag308
ag222
ag776
asg23
g917
sg25
g918
sg27
g28
sg29
g134
sg31
(iread_data
Room
p1133
(dp1134
g23
g34
sg25
g35
sbsba(ischedule
Activity
p1135
(dp1136
g8
(lp1137
g355
ag524
asg23
g606
sg25
g526
sg27
g169
sg29
g30
sg31
(iread_data
Room
p1138
(dp1139
g23
g84
sg25
g85
sbsba(ischedule
Activity
p1140
(dp1141
g8
(lp1142
g74
ag332
ag1063
ag414
ag142
ag272
ag572
ag12
ag564
ag568
ag569
ag89
ag555
ag323
ag493
ag1060
ag258
ag605
ag64
ag1061
ag267
ag118
ag161
ag391
ag571
ag570
ag565
ag293
ag383
ag203
ag669
ag567
ag566
ag448
asg23
S'25'
p1143
sg25
g575
sg27
g169
sg29
g134
sg31
(iread_data
Room
p1144
(dp1145
g23
g172
sg25
g173
sbsba(ischedule
Activity
p1146
(dp1147
g8
(lp1148
S'63573738'
p1149
ag120
ag369
ag143
ag659
ag285
ag236
aS'63939720'
p1150
ag385
ag108
ag265
ag261
aS'40911986'
p1151
aS'90103047'
p1152
asg23
g476
sg25
g477
sg27
g169
sg29
g30
sg31
(iread_data
Room
p1153
(dp1154
g23
g112
sg25
g113
sbsbaaa(lp1155
(lp1156
(ischedule
Activity
p1157
(dp1158
g8
(lp1159
g421
ag323
ag89
ag448
ag573
ag572
ag301
ag605
ag452
ag669
ag555
ag493
ag383
ag94
ag12
ag74
ag571
ag332
ag267
ag161
ag203
ag451
ag568
ag1063
ag118
ag1061
ag1060
ag414
ag272
ag1062
ag565
ag564
ag391
ag293
ag542
ag566
ag374
ag567
ag570
ag569
ag258
ag142
ag64
asg23
I1000
sg25
g575
sg27
g424
sg29
I0
sg31
(iread_data
Room
p1160
(dp1161
g23
g213
sg25
g214
sbsba(ischedule
Activity
p1162
(dp1163
g8
(lp1164
g102
ag19
ag131
ag15
asg23
g612
sg25
g26
sg27
g169
sg29
g326
sg31
(iread_data
Room
p1165
(dp1166
g23
g149
sg25
g150
sbsba(ischedule
Activity
p1167
(dp1168
g8
(lp1169
g433
ag163
ag155
ag154
ag186
ag853
ag855
ag166
ag165
ag159
ag164
asg23
g1082
sg25
g168
sg27
g28
sg29
g30
sg31
(iread_data
Room
p1170
(dp1171
g23
g112
sg25
g113
sbsba(ischedule
Activity
p1172
(dp1173
g8
(lp1174
g189
ag454
ag219
ag458
ag398
ag257
ag205
ag230
ag505
ag307
ag206
ag456
ag231
ag504
asg23
g24
sg25
g26
sg27
g28
sg29
g134
sg31
(iread_data
Room
p1175
(dp1176
g23
g172
sg25
g173
sbsba(ischedule
Activity
p1177
(dp1178
g8
(lp1179
g455
ag431
ag659
ag714
ag143
asg23
g356
sg25
g146
sg27
g169
sg29
g134
sg31
(iread_data
Room
p1180
(dp1181
g23
g137
sg25
g138
sbsba(ischedule
Activity
p1182
(dp1183
g8
(lp1184
g846
ag511
ag590
ag414
ag16
ag305
ag618
ag198
ag779
ag338
ag844
ag845
ag703
ag847
ag512
ag592
ag96
ag471
ag255
ag581
asg23
I1000
sg25
g514
sg27
g424
sg29
I0
sg31
(iread_data
Room
p1185
(dp1186
g23
g34
sg25
g35
sbsba(ischedule
Activity
p1187
(dp1188
g8
(lp1189
g678
ag96
ag266
ag274
ag51
ag46
aS'13798030'
p1190
ag94
ag270
ag727
ag123
ag847
ag375
ag101
ag471
ag302
aS'59289233'
p1191
ag435
ag416
ag162
ag44
asg23
I1000
sg25
S'Architectuur en computerorganisatie'
p1192
sg27
g424
sg29
I0
sg31
(iread_data
Room
p1193
(dp1194
g23
g84
sg25
g85
sbsbaa(lp1195
(ischedule
Activity
p1196
(dp1197
g8
g886
sg23
I1000
sg25
g168
sg27
g424
sg29
I0
sg31
(iread_data
Room
p1198
(dp1199
g23
g213
sg25
g214
sbsba(ischedule
Activity
p1200
(dp1201
g8
(lp1202
g623
ag538
ag122
ag277
aS'123355'
p1203
ag1008
ag1036
ag348
ag388
aS'5590289'
p1204
asg23
g1100
sg25
g1101
sg27
g169
sg29
g30
sg31
(iread_data
Room
p1205
(dp1206
g23
g149
sg25
g150
sbsba(ischedule
Activity
p1207
(dp1208
g8
g551
sg23
I1000
sg25
g558
sg27
g424
sg29
I0
sg31
(iread_data
Room
p1209
(dp1210
g23
g137
sg25
g138
sbsba(ischedule
Activity
p1211
(dp1212
g8
(lp1213
g619
ag442
ag317
ag784
ag268
ag410
ag892
ag566
ag891
ag890
ag649
ag369
ag11
asg23
g310
sg25
g311
sg27
g28
sg29
g134
sg31
(iread_data
Room
p1214
(dp1215
g23
g112
sg25
g113
sbsba(ischedule
Activity
p1216
(dp1217
g8
(lp1218
g511
ag192
ag336
ag573
ag21
ag520
ag407
ag125
ag198
ag431
ag298
ag678
ag772
ag406
ag1116
ag205
ag405
ag1117
ag708
ag433
asg23
g1012
sg25
g1013
sg27
g28
sg29
g134
sg31
(iread_data
Room
p1219
(dp1220
g23
g172
sg25
g173
sbsba(ischedule
Activity
p1221
(dp1222
g8
(lp1223
g301
ag669
ag219
ag587
ag22
ag581
ag335
ag13
ag398
ag264
aS'13132925'
p1224
ag596
ag403
ag584
ag585
ag582
ag864
ag179
ag261
ag648
ag1035
ag773
aS'15187217'
p1225
ag390
ag956
ag208
ag94
ag786
ag55
ag206
ag306
ag583
ag912
ag845
ag202
ag266
ag700
aS'27123462'
p1226
ag749
ag1108
ag131
ag469
asg23
g1001
sg25
g1002
sg27
g28
sg29
g134
sg31
(iread_data
Room
p1227
(dp1228
g23
g84
sg25
g85
sbsba(ischedule
Activity
p1229
(dp1230
g8
(lp1231
g452
ag63
ag39
ag458
ag78
ag57
ag40
ag943
ag41
ag196
ag42
ag64
ag451
ag448
ag318
ag203
ag43
ag74
ag450
ag130
ag44
ag191
ag374
ag456
ag45
ag736
ag46
ag70
ag368
ag144
ag47
ag55
ag231
ag62
ag48
ag75
ag49
ag56
ag69
ag455
ag457
ag58
ag142
ag67
ag50
ag68
ag625
ag322
ag66
ag59
ag51
ag293
ag127
ag71
ag52
ag60
ag53
ag320
ag65
ag73
ag54
ag646
ag79
ag453
ag372
ag449
ag454
ag72
ag459
ag76
ag381
ag460
ag77
ag61
ag740
asg23
I1000
sg25
g81
sg27
g424
sg29
I0
sg31
(iread_data
Room
p1232
(dp1233
g23
g34
sg25
g35
sbsbaa(lp1234
(ischedule
Activity
p1235
(dp1236
g8
g967
sg23
I1000
sg25
g225
sg27
g424
sg29
I0
sg31
(iread_data
Room
p1237
(dp1238
g23
g137
sg25
g138
sbsba(ischedule
Activity
p1239
(dp1240
g8
(lp1241
g702
aS'5892092'
p1242
ag105
aS'535689'
p1243
ag378
ag786
ag229
ag164
ag861
aS'91250534'
p1244
aS'64418623'
p1245
ag194
ag131
ag165
ag410
asg23
g685
sg25
g686
sg27
g169
sg29
g109
sg31
(iread_data
Room
p1246
(dp1247
g23
g213
sg25
g214
sbsba(ischedule
Activity
p1248
(dp1249
g8
g978
sg23
I1000
sg25
g918
sg27
g424
sg29
I0
sg31
(iread_data
Room
p1250
(dp1251
g23
g172
sg25
g173
sbsba(ischedule
Activity
p1252
(dp1253
g8
(lp1254
g421
ag573
ag542
ag94
ag374
ag301
ag452
ag1062
ag451
asg23
g1143
sg25
g575
sg27
g169
sg29
g30
sg31
(iread_data
Room
p1255
(dp1256
g23
g112
sg25
g113
sbsbaa(lp1257
(ischedule
Activity
p1258
(dp1259
g8
(lp1260
g233
ag255
ag39
ag186
ag277
ag271
ag229
ag63
ag276
ag194
ag258
ag242
ag284
ag264
ag232
ag236
asg23
g835
sg25
g244
sg27
g28
sg29
g134
sg31
(iread_data
Room
p1261
(dp1262
g23
g213
sg25
g214
sbsba(ischedule
Activity
p1263
(dp1264
g8
g953
sg23
I1000
sg25
g962
sg27
g424
sg29
I0
sg31
(iread_data
Room
p1265
(dp1266
g23
g84
sg25
g85
sbsba(ischedule
Activity
p1267
(dp1268
g8
g503
sg23
I1000
sg25
g26
sg27
g424
sg29
I0
sg31
(iread_data
Room
p1269
(dp1270
g23
g137
sg25
g138
sbsba(ischedule
Activity
p1271
(dp1272
g8
(lp1273
g407
ag355
ag472
ag333
ag332
ag624
ag336
ag278
asg23
g720
sg25
g225
sg27
g28
sg29
g30
sg31
(iread_data
Room
p1274
(dp1275
g23
g149
sg25
g150
sbsba(ischedule
Activity
p1276
(dp1277
g8
(lp1278
g40
ag52
ag751
ag431
ag605
ag973
asg23
g525
sg25
g526
sg27
g28
sg29
g30
sg31
(iread_data
Room
p1279
(dp1280
g23
g172
sg25
g173
sbsba(ischedule
Activity
p1281
(dp1282
g8
g1189
sg23
I1000
sg25
g1192
sg27
g424
sg29
I0
sg31
(iread_data
Room
p1283
(dp1284
g23
g112
sg25
g113
sbsbaa(lp1285
(ischedule
Activity
p1286
(dp1287
g8
(lp1288
g569
ag223
ag585
ag250
ag583
ag648
ag469
ag997
ag572
ag864
ag879
ag301
ag336
ag669
ag179
ag219
ag996
ag618
ag786
ag773
ag582
ag587
ag1000
ag22
ag994
ag333
ag1226
ag794
ag845
ag912
ag403
ag470
ag573
ag272
ag749
ag581
ag564
ag335
ag261
ag1225
ag435
ag317
ag1035
ag999
ag454
ag13
ag306
ag98
ag188
ag398
ag956
ag55
ag189
ag206
ag995
ag390
ag266
ag158
ag998
ag264
ag208
ag700
ag202
ag1224
ag1108
ag94
ag584
ag596
ag192
ag259
ag131
ag299
asg23
I1000
sg25
g1002
sg27
g424
sg29
I0
sg31
g32
sba(ischedule
Activity
p1289
(dp1290
g8
g838
sg23
I1000
sg25
g146
sg27
g424
sg29
I0
sg31
(iread_data
Room
p1291
(dp1292
g23
g213
sg25
g214
sbsba(ischedule
Activity
p1293
(dp1294
g8
(lp1295
g555
ag554
ag1034
ag1035
ag196
ag284
ag1040
ag322
ag286
ag302
ag798
ag123
ag47
ag262
ag207
ag304
ag200
ag198
ag19
ag570
ag334
ag469
ag280
ag702
ag1032
ag1043
ag863
ag1045
ag393
ag1030
ag1044
ag232
ag1029
ag408
ag737
ag1033
asg23
g598
sg25
g599
sg27
g28
sg29
g109
sg31
(iread_data
Room
p1296
(dp1297
g23
g84
sg25
g85
sbsba(ischedule
Activity
p1298
(dp1299
g8
(lp1300
g854
ag183
ag62
ag980
ag74
ag981
asg23
g917
sg25
g918
sg27
g28
sg29
g30
sg31
(iread_data
Room
p1301
(dp1302
g23
g149
sg25
g150
sbsba(ischedule
Activity
p1303
(dp1304
g8
(lp1305
g392
ag307
ag1036
ag17
ag382
ag323
ag1042
ag197
ag954
ag771
ag373
ag1041
ag157
ag1039
ag669
ag407
ag955
ag511
ag1031
ag69
ag622
ag825
ag1037
ag1046
ag386
ag410
ag296
ag730
ag279
ag1038
ag261
ag780
ag474
ag605
ag385
ag412
asg23
g598
sg25
g599
sg27
g28
sg29
g30
sg31
(iread_data
Room
p1306
(dp1307
g23
g137
sg25
g138
sbsba(ischedule
Activity
p1308
(dp1309
g8
g429
sg23
I1000
sg25
g133
sg27
g424
sg29
I0
sg31
(iread_data
Room
p1310
(dp1311
g23
g172
sg25
g173
sbsba(ischedule
Activity
p1312
(dp1313
g8
(lp1314
g337
ag490
ag433
ag943
ag383
ag10
aS'19058315'
p1315
ag846
ag957
ag624
ag619
ag1149
ag163
aS'53267490'
p1316
ag1243
asg23
g1100
sg25
g1101
sg27
g169
sg29
g109
sg31
(iread_data
Room
p1317
(dp1318
g23
g112
sg25
g113
sbsbaaa(lp1319
(lp1320
a(lp1321
a(lp1322
a(lp1323
a(lp1324
aasS'timeslot_dict'
p1325
(dp1326
I0
S'9:00-11:00'
p1327
sI1
S'11:00-13:00'
p1328
sI2
S'13:00-15:00'
p1329
sI3
S'15:00-17:00'
p1330
sI4
S'17:00-19:00'
p1331
ssS'day_dict'
p1332
(dp1333
I0
S'Monday'
p1334
sI1
S'Tuesday'
p1335
sI2
S'Wednesday'
p1336
sI3
S'Thursday'
p1337
sI4
S'Friday'
p1338
ssb.