(ischedule
Schedule
p0
(dp1
S'timetable'
p2
(lp3
(lp4
(lp5
(ischedule
Activity
p6
(dp7
S'participants'
p8
(lp9
S'31897288'
p10
aS'81022997'
p11
aS'7106649'
p12
aS'48678993'
p13
aS'63634350'
p14
aS'81200278'
p15
aS'35315956'
p16
aS'58736785'
p17
aS'15249775'
p18
aS'99975346'
p19
aS'52304977'
p20
aS'1886996'
p21
aS'61443567'
p22
aS'84524083'
p23
aS'33760909'
p24
aS'22731474'
p25
asS'capacity'
p26
S'20'
p27
sS'group'
p28
(ischedule
Group
p29
(dp30
g8
g9
sS'name'
p31
S'Heuristieken 22'
p32
sbsS'room'
p33
(iread_data
Room
p34
(dp35
g26
S'41'
p36
sg31
S'A1.04'
p37
sbsS'ttype'
p38
S'tutorials'
p39
sS'group_id'
p40
S'2'
p41
sg31
S'Heuristieken 2'
p42
sba(ischedule
Activity
p43
(dp44
g8
(lp45
S'97019450'
p46
aS'57467488'
p47
aS'53775014'
p48
aS'48357272'
p49
aS'87210640'
p50
aS'14816774'
p51
aS'14138904'
p52
aS'4568018'
p53
ag10
aS'75997788'
p54
aS'98105190'
p55
aS'92977271'
p56
aS'14591033'
p57
aS'20830477'
p58
aS'66122625'
p59
aS'76393508'
p60
aS'97417002'
p61
aS'86807027'
p62
aS'59075181'
p63
aS'53107172'
p64
aS'37110913'
p65
aS'13658563'
p66
aS'14941752'
p67
aS'81218347'
p68
aS'83443653'
p69
aS'4353500'
p70
ag17
aS'4783858'
p71
aS'22871048'
p72
aS'44901052'
p73
aS'45660925'
p74
aS'20331158'
p75
aS'19858730'
p76
aS'71839156'
p77
aS'22323043'
p78
aS'61060652'
p79
aS'79879876'
p80
aS'56749879'
p81
aS'42171678'
p82
aS'94930277'
p83
aS'75521763'
p84
aS'1696500'
p85
aS'11996292'
p86
aS'36903574'
p87
asg26
I1000
sg28
Nsg33
(iread_data
Room
p88
(dp89
g26
S'117'
p90
sg31
S'C0.110'
p91
sbsg38
S'lectures'
p92
sg40
S'1'
p93
sg31
S'Heuristieken 1'
p94
sba(ischedule
Activity
p95
(dp96
g8
(lp97
S'30658799'
p98
aS'88752563'
p99
aS'46989508'
p100
aS'94687383'
p101
aS'54772132'
p102
aS'15911353'
p103
aS'27187154'
p104
aS'53202517'
p105
aS'5595824'
p106
aS'77896638'
p107
aS'10792879'
p108
aS'75759231'
p109
aS'42778953'
p110
aS'65960683'
p111
aS'39459642'
p112
aS'49683101'
p113
aS'6723948'
p114
aS'95631564'
p115
aS'72895450'
p116
aS'3407554'
p117
aS'92665222'
p118
aS'86291592'
p119
aS'27950803'
p120
aS'68315599'
p121
aS'66701209'
p122
aS'80135353'
p123
aS'2317551'
p124
aS'72796858'
p125
aS'79033175'
p126
aS'13284244'
p127
aS'65852230'
p128
ag55
aS'73236988'
p129
aS'48503689'
p130
ag23
asg26
S'40'
p131
sg28
(ischedule
Group
p132
(dp133
g8
g97
sg31
S'Compilerbouw1'
p134
sbsg33
(iread_data
Room
p135
(dp136
g26
S'48'
p137
sg31
S'B0.201'
p138
sbsg38
g39
sg40
g93
sg31
S'Compilerbouw'
p139
sba(ischedule
Activity
p140
(dp141
g8
(lp142
S'20095994'
p143
aS'51052738'
p144
aS'5298748'
p145
aS'43680781'
p146
aS'61518436'
p147
aS'13718298'
p148
aS'37399898'
p149
ag72
aS'6913074'
p150
aS'20239127'
p151
ag66
aS'32044893'
p152
aS'70844780'
p153
aS'33776961'
p154
ag120
aS'84449005'
p155
aS'68286356'
p156
aS'59753700'
p157
aS'24277163'
p158
aS'57086672'
p159
aS'96554914'
p160
aS'78136904'
p161
aS'3685034'
p162
aS'13092455'
p163
aS'36213792'
p164
aS'77392404'
p165
ag19
aS'38296757'
p166
aS'27805666'
p167
aS'82390428'
p168
aS'41578612'
p169
aS'52715680'
p170
aS'27370083'
p171
aS'60661905'
p172
aS'36785409'
p173
aS'42406214'
p174
aS'51415617'
p175
aS'54569540'
p176
aS'22826928'
p177
aS'86988337'
p178
ag23
aS'87830198'
p179
aS'70193386'
p180
aS'90474003'
p181
aS'60352393'
p182
aS'92778619'
p183
aS'4709948'
p184
ag65
aS'99453514'
p185
aS'77960666'
p186
aS'49922855'
p187
asg26
I1000
sg28
Nsg33
(iread_data
Room
p188
(dp189
g26
S'22'
p190
sg31
S'A1.06'
p191
sbsg38
g92
sg40
g41
sg31
S'Reflectie op de digitale cultuur'
p192
sba(ischedule
Activity
p193
(dp194
g8
(lp195
S'26406342'
p196
ag84
aS'60312776'
p197
aS'13534377'
p198
ag119
aS'73980360'
p199
aS'76123484'
p200
aS'35330349'
p201
aS'97135019'
p202
aS'77240949'
p203
aS'82689818'
p204
aS'54310617'
p205
ag24
aS'22699561'
p206
aS'58522654'
p207
asg26
S'20'
p208
sg28
(ischedule
Group
p209
(dp210
g8
g195
sg31
S'Collectieve Intelligentie3'
p211
sbsg33
(iread_data3
Room
p212
(dp213
g26
S'60'
p214
sg31
S'C1.112'
p215
sbsg38
g39
sg40
S'3'
p216
sg31
S'Collectieve Intelligentie'
p217
sba(ischedule
Activity
p218
(dp219
g8
(lp220
S'33877725'
p221
aS'66120270'
p222
ag105
ag15
aS'28359697'
p223
aS'21029457'
p224
ag177
aS'3168419'
p225
aS'247918'
p226
aS'89985072'
p227
aS'33930505'
p228
ag145
aS'77831658'
p229
aS'24613625'
p230
aS'7308727'
p231
asg26
S'20'
p232
sg28
(ischedule
Group
p233
(dp234
g8
g220
sg31
S'Bioinformatica2'
p235
sbsg33
(iread_data3
Room
p236
(dp237
g26
S'56'
p238
sg31
S'A1.10'
p239
sbsg38
g39
sg40
g41
sg31
S'Bioinformatica'
p240
sbaa(lp241
(ischedule
Activity
p242
(dp243
g8
(lp244
g52
aS'58866007'
p245
aS'43460038'
p246
aS'34872117'
p247
aS'10149535'
p248
aS'70015932'
p249
aS'27925117'
p250
aS'29718115'
p251
ag113
aS'23798155'
p252
aS'45556081'
p253
aS'72577292'
p254
aS'40434933'
p255
ag204
aS'89180944'
p256
aS'13798030'
p257
ag75
aS'59289233'
p258
aS'72683344'
p259
aS'83266686'
p260
aS'28618400'
p261
asg26
I1000
sg28
Nsg33
g188
sg38
g92
sg40
g41
sg31
S'Architectuur en computerorganisatie'
p262
sba(ischedule
Activity
p263
(dp264
g8
(lp265
g207
ag221
aS'30195935'
p266
ag81
ag222
ag53
aS'11068043'
p267
ag105
ag129
ag51
ag15
aS'56815156'
p268
aS'64600457'
p269
ag223
aS'15051051'
p270
aS'74131924'
p271
ag224
ag146
aS'20883994'
p272
ag177
aS'88176729'
p273
aS'96054456'
p274
ag225
ag25
aS'79617364'
p275
ag226
aS'29526540'
p276
ag150
ag227
aS'21964491'
p277
ag57
ag228
aS'70878567'
p278
aS'96453361'
p279
ag145
aS'42196732'
p280
ag114
ag229
aS'54026378'
p281
aS'44868097'
p282
ag230
aS'85335143'
p283
aS'59544049'
p284
ag231
aS'30050930'
p285
asg26
I1000
sg28
Nsg33
(iread_data
Room
p286
(dp287
g26
S'60'
p288
sg31
S'C1.112'
p289
sbsg38
g92
sg40
g216
sg31
g240
sba(ischedule
Activity
p290
(dp291
g8
(lp292
g98
aS'12077419'
p293
ag99
ag197
ag100
aS'11915563'
p294
ag101
aS'75599734'
p295
ag102
aS'8464817'
p296
ag103
aS'81385263'
p297
ag104
aS'13911001'
p298
ag105
aS'76661016'
p299
ag106
aS'9067939'
p300
ag107
aS'44391517'
p301
ag108
ag178
ag109
aS'76802764'
p302
ag110
aS'37770881'
p303
ag111
aS'5368702'
p304
ag112
aS'1766560'
p305
ag113
ag247
ag114
ag207
ag115
ag260
ag116
aS'11741347'
p306
ag117
aS'88636924'
p307
ag118
aS'79167252'
p308
ag119
aS'34110913'
p309
ag120
aS'34243356'
p310
ag121
aS'48308205'
p311
ag122
aS'43689934'
p312
ag123
aS'31194811'
p313
ag124
aS'75664412'
p314
ag125
aS'95007221'
p315
ag126
aS'40791377'
p316
ag127
aS'14309255'
p317
ag128
aS'88855695'
p318
ag55
aS'2079771'
p319
ag129
ag230
ag130
aS'7957843'
p320
ag23
asg26
I1000
sg28
Nsg33
g88
sg38
g92
sg40
g93
sg31
g139
sba(ischedule
Activity
p321
(dp322
g8
(lp323
g99
aS'75623387'
p324
ag250
aS'23565001'
p325
ag108
aS'6939933'
p326
aS'78544592'
p327
aS'32705005'
p328
aS'79888156'
p329
aS'40141996'
p330
aS'65408517'
p331
aS'72665524'
p332
aS'46701583'
p333
aS'55530367'
p334
aS'14303208'
p335
aS'75446434'
p336
aS'75585647'
p337
ag308
aS'22168693'
p338
aS'86000192'
p339
aS'45915482'
p340
aS'47477884'
p341
ag202
aS'19717077'
p342
ag275
aS'64228258'
p343
aS'82412626'
p344
ag283
aS'78443067'
p345
aS'70939718'
p346
aS'23628642'
p347
ag248
aS'56872729'
p348
ag269
ag166
asg26
S'40'
p349
sg28
(ischedule
Group
p350
(dp351
g8
g323
sg31
S'Calculus 22'
p352
sbsg33
g135
sg38
g39
sg40
g41
sg31
S'Calculus 2'
p353
sba(ischedule
Activity
p354
(dp355
g8
(lp356
S'41527759'
p357
ag79
aS'58565406'
p358
aS'52552718'
p359
aS'37744525'
p360
aS'31103066'
p361
ag249
aS'80709893'
p362
ag331
aS'41153310'
p363
ag294
aS'31247305'
p364
aS'29640619'
p365
ag53
aS'3233378'
p366
aS'77376714'
p367
aS'58074656'
p368
ag120
aS'62356458'
p369
aS'21095566'
p370
aS'84110134'
p371
ag49
aS'52311353'
p372
ag221
aS'65318664'
p373
aS'1048485'
p374
ag72
ag129
aS'14072826'
p375
aS'83210352'
p376
aS'37830626'
p377
aS'50143947'
p378
aS'14671406'
p379
ag71
ag340
aS'4546613'
p380
ag317
asg26
S'40'
p381
sg28
(ischedule
Group
p382
(dp383
g8
g356
sg31
S'Software engineering2'
p384
sbsg33
(iread_data3
Room
p385
(dp386
g26
S'20'
p387
sg31
S'A1.08'
p388
sbsg38
S'labs'
p389
sg40
g41
sg31
S'Software engineering'
p390
sba(ischedule
Activity
p391
(dp392
g8
(lp393
g271
aS'27298319'
p394
aS'61611295'
p395
ag281
aS'88627897'
p396
ag76
ag65
aS'36508571'
p397
asg26
S'10'
p398
sg28
(ischedule
Group
p399
(dp400
g8
g393
sg31
S'Autonomous Agents 21'
p401
sbsg33
(iread_data3
Room
p402
(dp403
g26
S'41'
p404
sg31
S'A1.04'
p405
sbsg38
g39
sg40
g93
sg31
S'Autonomous Agents 2'
p406
sba(ischedule
Activity
p407
(dp408
g8
(lp409
S'43027916'
p410
aS'64296965'
p411
ag339
aS'31416266'
p412
aS'23547619'
p413
ag85
aS'9332762'
p414
aS'46052388'
p415
ag231
aS'34773179'
p416
ag158
aS'25106480'
p417
ag107
ag277
aS'87758823'
p418
asg26
S'20'
p419
sg28
(ischedule
Group
p420
(dp421
g8
g409
sg31
S'Collectieve Intelligentie2'
p422
sbsg33
(iread_data3
Room
p423
(dp424
g26
g238
sg31
g239
sbsg38
g389
sg40
g41
sg31
g217
sbaa(lp425
(ischedule
Activity
p426
(dp427
g8
(lp428
S'57595888'
p429
ag410
ag196
aS'48601268'
p430
aS'96104167'
p431
ag411
ag84
aS'64393888'
p432
ag366
ag339
ag197
ag82
aS'1665980'
p433
ag412
ag198
ag303
ag110
ag413
ag119
aS'29474737'
p434
ag378
ag85
ag199
ag253
aS'1075391'
p435
ag414
ag200
aS'50184318'
p436
ag71
ag415
ag201
ag64
aS'5517869'
p437
ag231
ag202
aS'68601184'
p438
aS'62701040'
p439
ag416
ag203
ag280
ag22
ag158
ag204
aS'15902055'
p440
aS'17575088'
p441
ag417
ag205
ag343
ag111
ag107
ag24
aS'17222374'
p442
ag365
ag277
ag206
aS'51741554'
p443
aS'28357474'
p444
ag418
ag207
ag254
ag163
asg26
I1000
sg28
Nsg33
g34
sg38
g92
sg40
g41
sg31
g217
sba(ischedule
Activity
p445
(dp446
g8
(lp447
S'86180471'
p448
ag99
aS'11593163'
p449
aS'16097870'
p450
ag324
aS'14179347'
p451
aS'81155296'
p452
ag250
ag282
ag14
ag325
aS'55412918'
p453
aS'34173695'
p454
ag108
ag224
aS'93361408'
p455
ag326
aS'56348773'
p456
aS'27064249'
p457
ag327
ag49
aS'58699305'
p458
ag328
aS'62105897'
p459
aS'58469172'
p460
ag329
aS'53585410'
p461
aS'65978354'
p462
ag330
aS'9731271'
p463
aS'38179241'
p464
ag331
aS'46570285'
p465
aS'77306636'
p466
ag332
ag24
ag318
ag333
aS'59220392'
p467
ag104
ag334
aS'78735049'
p468
aS'24875739'
p469
ag335
ag380
aS'74182182'
p470
ag336
aS'73302736'
p471
aS'3678531'
p472
ag337
aS'87602030'
p473
ag62
ag308
ag114
ag394
ag338
aS'72526473'
p474
aS'53139134'
p475
ag339
ag150
aS'28957789'
p476
ag340
aS'87900893'
p477
aS'6709529'
p478
ag341
aS'61520025'
p479
aS'56544130'
p480
ag202
ag71
ag260
ag342
aS'62363761'
p481
aS'47932106'
p482
ag275
aS'33672995'
p483
aS'5615125'
p484
ag343
aS'73823548'
p485
aS'23658570'
p486
ag344
ag443
ag51
ag283
ag57
ag54
ag345
aS'83415514'
p487
aS'10609762'
p488
ag346
aS'37279234'
p489
ag440
ag347
aS'31306819'
p490
ag274
ag248
aS'80188025'
p491
aS'26260141'
p492
ag348
aS'58040377'
p493
aS'94686490'
p494
ag269
aS'12091019'
p495
aS'58592894'
p496
ag166
aS'58253841'
p497
ag299
asg26
I1000
sg28
Nsg33
g135
sg38
g92
sg40
g93
sg31
g353
sba(ischedule
Activity
p498
(dp499
g8
(lp500
S'82872148'
p501
ag357
ag256
ag79
aS'89338938'
p502
ag358
ag115
ag359
aS'94467156'
p503
ag360
ag148
ag361
aS'9287708'
p504
ag249
ag282
ag362
aS'3727435'
p505
ag331
ag170
ag363
ag417
ag294
aS'55474917'
p506
ag364
ag492
ag365
aS'5976174'
p507
ag53
ag430
ag366
aS'40343779'
p508
ag367
ag273
ag368
ag281
ag120
aS'44671041'
p509
ag369
ag471
ag370
aS'99283252'
p510
ag371
ag284
ag49
aS'51593625'
p511
ag372
aS'31633723'
p512
ag221
ag444
ag373
ag295
ag374
ag160
ag72
ag459
ag129
aS'78243495'
p513
ag375
ag197
ag376
ag78
ag377
aS'68409833'
p514
ag378
aS'27582862'
p515
ag379
aS'42115591'
p516
ag71
ag345
ag340
ag227
ag380
ag267
ag317
ag246
asg26
I1000
sg28
Nsg33
(iread_data
Room
p517
(dp518
g26
S'20'
p519
sg31
S'A1.08'
p520
sbsg38
g92
sg40
g93
sg31
g390
sba(ischedule
Activity
p521
(dp522
g8
(lp523
g66
aS'58332004'
p524
ag251
aS'23257088'
p525
ag84
ag337
aS'13116738'
p526
ag278
aS'32204977'
p527
aS'77636749'
p528
aS'19958553'
p529
ag56
aS'11459236'
p530
aS'18266644'
p531
aS'23983476'
p532
aS'17496687'
p533
ag121
ag73
aS'36748818'
p534
aS'8557857'
p535
ag439
asg26
I1000
sg28
Nsg33
(iread_data
Room
p536
(dp537
g26
S'56'
p538
sg31
S'A1.10'
p539
sbsg38
g92
sg40
g93
sg31
S'Informatie- en organsatieontwerp'
p540
sba(ischedule
Activity
p541
(dp542
g8
(lp543
S'62613937'
p544
ag341
ag62
ag54
ag259
ag457
ag254
aS'14847953'
p545
aS'40633534'
p546
aS'39429093'
p547
ag153
ag182
ag261
ag225
ag118
ag21
ag272
ag413
ag161
ag332
asg26
I1000
sg28
Nsg33
g88
sg38
g92
sg40
g93
sg31
S'Advanced Heuristics'
p548
sba(ischedule
Activity
p549
(dp550
g8
(lp551
S'17823206'
p552
ag360
ag15
aS'45414528'
p553
ag271
ag372
ag185
aS'87314964'
p554
aS'68360259'
p555
asg26
S'10'
p556
sg28
(ischedule
Group
p557
(dp558
g8
g551
sg31
S'Data Mining1'
p559
sbsg33
g286
sg38
g39
sg40
g93
sg31
S'Data Mining'
p560
sbaa(lp561
(ischedule
Activity
p562
(dp563
g8
g220
sg26
S'20'
p564
sg28
g233
sg33
g517
sg38
g389
sg40
g41
sg31
g240
sba(ischedule
Activity
p565
(dp566
g8
(lp567
g448
ag450
ag452
ag14
ag454
ag455
ag457
ag458
ag460
ag462
ag464
ag466
ag318
ag104
ag469
ag470
ag472
ag62
ag394
ag475
ag476
ag478
ag480
ag260
ag482
ag484
ag486
ag51
ag54
ag488
ag440
ag274
ag492
ag494
ag496
ag299
asg26
g349
sg28
(ischedule
Group
p568
(dp569
g8
g567
sg31
S'Calculus 21'
p570
sbsg33
g135
sg38
g39
sg40
g93
sg31
g353
sba(ischedule
Activity
p571
(dp572
g8
(lp573
S'22288615'
p574
aS'23391676'
p575
aS'70072978'
p576
aS'85236626'
p577
ag308
ag506
ag463
ag360
aS'88597745'
p578
aS'34262212'
p579
ag178
ag296
ag277
ag124
aS'39905995'
p580
aS'85284256'
p581
ag119
aS'93566383'
p582
asg26
S'20'
p583
sg28
(ischedule
Group
p584
(dp585
g8
g573
sg31
S'Programmeren in Java 23'
p586
sbsg33
g188
sg38
g389
sg40
g216
sg31
S'Programmeren in Java 2'
p587
sba(ischedule
Activity
p588
(dp589
g8
(lp590
g107
ag46
ag553
ag104
aS'26857113'
p591
ag114
aS'7492204'
p592
ag150
ag87
ag130
ag81
ag472
ag552
aS'88519892'
p593
aS'34900967'
p594
ag58
ag274
ag341
asg26
g583
sg28
(ischedule
Group
p595
(dp596
g8
g590
sg31
S'Programmeren in Java 25'
p597
sbsg33
g286
sg38
g389
sg40
S'5'
p598
sg31
g587
sba(ischedule
Activity
p599
(dp600
g8
(lp601
g503
aS'64947290'
p602
ag102
ag525
ag80
ag172
ag460
ag414
ag486
aS'2550487'
p603
ag489
aS'28943658'
p604
ag374
ag56
ag509
ag515
aS'91196968'
p605
aS'99272880'
p606
asg26
g583
sg28
(ischedule
Group
p607
(dp608
g8
g601
sg31
S'Programmeren in Java 26'
p609
sbsg33
g34
sg38
g389
sg40
S'6'
p610
sg31
g587
sba(ischedule
Activity
p611
(dp612
g8
(lp613
g477
aS'97136582'
p614
aS'13996448'
p615
ag605
ag378
aS'19337738'
p616
aS'25330192'
p617
aS'51566595'
p618
ag278
asg26
S'10'
p619
sg28
(ischedule
Group
p620
(dp621
g8
g613
sg31
S'Data Mining2'
p622
sbsg33
g88
sg38
g389
sg40
g41
sg31
g560
sba(ischedule
Activity
p623
(dp624
g8
(lp625
g77
aS'64418623'
p626
aS'74361881'
p627
aS'14383795'
p628
ag461
ag14
aS'91250534'
p629
ag606
aS'25994016'
p630
ag378
aS'23215240'
p631
ag335
ag53
asg26
S'15'
p632
sg28
(ischedule
Group
p633
(dp634
g8
g625
sg31
S'Compilerbouw practicum2'
p635
sbsg33
g536
sg38
g389
sg40
g41
sg31
S'Compilerbouw practicum'
p636
sbaa(lp637
(ischedule
Activity
p638
(dp639
g8
(lp640
g311
ag297
ag470
aS'75005528'
p641
ag248
ag450
ag110
aS'4921119'
p642
aS'21311067'
p643
aS'16011419'
p644
ag605
ag437
ag325
ag245
aS'34588570'
p645
ag372
ag514
ag362
ag169
ag201
ag453
aS'26172512'
p646
aS'79937969'
p647
ag68
ag149
aS'80998260'
p648
ag77
ag79
ag275
ag418
ag494
ag582
aS'3474870'
p649
aS'94955328'
p650
ag397
aS'96118484'
p651
ag348
ag516
ag506
ag280
aS'38499176'
p652
aS'90743504'
p653
ag57
aS'62872965'
p654
aS'36527838'
p655
ag107
aS'54074680'
p656
aS'32595335'
p657
ag412
aS'66570705'
p658
ag310
aS'670011'
p659
ag376
aS'16333449'
p660
asg26
I1000
sg28
Nsg33
g88
sg38
g92
sg40
g93
sg31
S'Lineaire Algebra'
p661
sba(ischedule
Activity
p662
(dp663
g8
(lp664
g654
aS'70113753'
p665
ag359
ag294
ag450
ag125
ag618
asg26
g398
sg28
(ischedule
Group
p666
(dp667
g8
g664
sg31
S'Autonomous Agents 23'
p668
sbsg33
g188
sg38
g39
sg40
g216
sg31
g406
sba(ischedule
Activity
p669
(dp670
g8
(lp671
g119
ag197
aS'12430748'
p672
ag326
ag615
ag99
ag603
ag67
ag470
ag485
aS'63939720'
p673
ag110
ag162
ag152
ag129
asg26
S'15'
p674
sg28
(ischedule
Group
p675
(dp676
g8
g671
sg31
S'Project Numerical Recipes2'
p677
sbsg33
g135
sg38
g389
sg40
g41
sg31
S'Project Numerical Recipes'
p678
sba(ischedule
Activity
p679
(dp680
g8
(lp681
g317
ag54
ag306
ag436
ag576
aS'49631542'
p682
aS'27916487'
p683
ag487
aS'96082155'
p684
aS'63111000'
p685
ag465
aS'1181560'
p686
aS'66621166'
p687
ag270
ag283
aS'48198668'
p688
ag655
ag260
ag158
ag98
ag269
ag154
aS'13218321'
p689
ag367
ag437
ag513
aS'51650744'
p690
ag510
ag496
ag146
ag155
ag276
ag534
ag305
ag442
ag524
aS'59111489'
p691
ag345
ag458
ag256
ag82
ag121
ag298
aS'27241113'
p692
aS'18144425'
p693
aS'3883025'
p694
ag184
aS'49219163'
p695
aS'47462856'
p696
ag84
ag327
aS'41489515'
p697
aS'78821918'
p698
ag86
asg26
I1000
sg28
Nsg33
g536
sg38
g92
sg40
g93
sg31
S'Moderne Databases'
p699
sba(ischedule
Activity
p700
(dp701
g8
(lp702
g165
aS'41790793'
p703
ag343
aS'76903244'
p704
ag159
ag457
ag484
ag255
ag83
ag513
aS'1137946'
p705
aS'6249823'
p706
ag335
aS'39230359'
p707
aS'69459473'
p708
aS'10698627'
p709
ag200
ag649
aS'53512831'
p710
ag574
asg26
S'20'
p711
sg28
(ischedule
Group
p712
(dp713
g8
g702
sg31
S'Webprogrammeren en databases1'
p714
sbsg33
g34
sg38
g39
sg40
g93
sg31
S'Webprogrammeren en databases'
p715
sba(ischedule
Activity
p716
(dp717
g8
(lp718
g552
ag477
ag526
ag360
ag614
ag11
ag15
ag615
ag277
ag553
ag605
ag78
ag271
ag378
aS'93023961'
p719
ag372
ag616
ag65
ag185
ag617
ag157
ag554
ag618
ag59
ag555
ag278
aS'98780382'
p720
asg26
I1000
sg28
Nsg33
(iread_data3
Room
p721
(dp722
g26
g214
sg31
g215
sbsg38
g92
sg40
g93
sg31
g560
sba(ischedule
Activity
p723
(dp724
g8
(lp725
g250
ag473
ag410
aS'72652638'
p726
ag507
aS'82968410'
p727
aS'5739011'
p728
ag659
ag513
ag159
aS'34765676'
p729
ag450
ag493
ag618
aS'83869542'
p730
ag577
asg26
g27
sg28
(ischedule
Group
p731
(dp732
g8
g725
sg31
S'Heuristieken 21'
p733
sbsg33
(iread_data3
Room
p734
(dp735
g26
g387
sg31
g388
sbsg38
g39
sg40
g93
sg31
g42
sbaaa(lp736
(lp737
(ischedule
Activity
p738
(dp739
g8
g292
sg26
I1000
sg28
Nsg33
g188
sg38
g92
sg40
g41
sg31
g139
sba(ischedule
Activity
p740
(dp741
g8
g142
sg26
I1000
sg28
Nsg33
g88
sg38
g92
sg40
g93
sg31
g192
sba(ischedule
Activity
p742
(dp743
g8
(lp744
g618
ag507
ag277
ag508
aS'66433883'
p745
aS'41585485'
p746
ag461
ag492
ag293
aS'8522855'
p747
ag170
ag357
ag87
ag496
aS'43902015'
p748
aS'88596522'
p749
ag379
aS'3707829'
p750
ag204
aS'19540225'
p751
aS'67817269'
p752
ag370
asg26
S'25'
p753
sg28
(ischedule
Group
p754
(dp755
g8
g744
sg31
S'Algoritmen en complexiteit1'
p756
sbsg33
g517
sg38
g39
sg40
g93
sg31
S'Algoritmen en complexiteit'
p757
sba(ischedule
Activity
p758
(dp759
g8
g428
sg26
I1000
sg28
Nsg33
(iread_data3
Room
p760
(dp761
g26
S'48'
p762
sg31
S'B0.201'
p763
sbsg38
g92
sg40
g93
sg31
g217
sbaa(lp764
(ischedule
Activity
p765
(dp766
g8
g244
sg26
I1000
sg28
Nsg33
g88
sg38
g92
sg40
g93
sg31
g262
sba(ischedule
Activity
p767
(dp768
g8
(lp769
g501
ag256
ag502
ag115
ag503
ag148
ag504
ag282
ag505
ag170
ag417
ag506
ag492
ag507
ag430
ag508
ag273
ag281
ag509
ag471
ag510
ag284
ag511
ag512
ag444
ag295
ag160
ag459
ag513
ag197
ag78
ag514
ag515
ag516
ag345
ag227
ag267
ag246
asg26
g381
sg28
(ischedule
Group
p770
(dp771
g8
g769
sg31
S'Software engineering1'
p772
sbsg33
g536
sg38
g389
sg40
g93
sg31
g390
sba(ischedule
Activity
p773
(dp774
g8
(lp775
g317
ag436
ag683
ag685
ag687
ag688
ag158
ag154
ag437
ag510
ag155
ag305
ag691
ag256
ag298
ag694
ag696
ag697
asg26
S'20'
p776
sg28
(ischedule
Group
p777
(dp778
g8
g775
sg31
S'Moderne Databases1'
p779
sbsg33
g286
sg38
g389
sg40
g93
sg31
g699
sba(ischedule
Activity
p780
(dp781
g8
g744
sg26
S'25'
p782
sg28
g754
sg33
g34
sg38
g389
sg40
g93
sg31
g757
sba(ischedule
Activity
p783
(dp784
g8
(lp785
g169
ag531
ag516
ag410
ag698
ag594
ag310
ag325
aS'5085194'
p786
aS'82854435'
p787
aS'51542218'
p788
ag106
ag650
aS'58480929'
p789
aS'18477924'
p790
ag72
ag544
aS'73350019'
p791
ag411
ag471
ag480
ag69
ag179
ag450
ag180
ag13
aS'14637758'
p792
ag491
aS'88737765'
p793
ag283
aS'72586808'
p794
ag642
ag229
ag252
ag268
ag46
aS'78822885'
p795
ag49
ag148
ag372
ag483
ag486
aS'72456780'
p796
aS'97838175'
p797
ag172
ag173
ag373
ag54
ag159
asg26
I1000
sg28
Nsg33
g135
sg38
g92
sg40
g93
sg31
S'Analysemethoden en -technieken'
p798
sbaa(lp799
(ischedule
Activity
p800
(dp801
g8
(lp802
g429
ag431
ag366
ag433
ag110
ag378
ag435
ag71
ag437
ag439
ag22
ag441
ag111
ag365
ag444
ag163
asg26
g419
sg28
(ischedule
Group
p803
(dp804
g8
g802
sg31
S'Collectieve Intelligentie1'
p805
sbsg33
g286
sg38
g389
sg40
g93
sg31
g217
sba(ischedule
Activity
p806
(dp807
g8
(lp808
g430
ag432
ag82
ag303
ag434
ag253
ag436
ag64
ag438
ag280
ag440
ag343
ag442
ag443
ag254
asg26
g419
sg28
(ischedule
Group
p809
(dp810
g8
g808
sg31
S'Collectieve Intelligentie4'
p811
sbsg33
g88
sg38
g389
sg40
S'4'
p812
sg31
g217
sba(ischedule
Activity
p813
(dp814
g8
(lp815
g47
ag49
ag51
ag53
ag54
ag56
ag58
ag60
ag62
ag64
ag66
ag68
ag70
ag71
ag73
ag75
ag77
ag79
ag81
ag83
ag85
ag87
asg26
S'25'
p816
sg28
(ischedule
Group
p817
(dp818
g8
g815
sg31
S'Heuristieken 12'
p819
sbsg33
g536
sg38
g39
sg40
g41
sg31
g94
sba(ischedule
Activity
p820
(dp821
g8
g523
sg26
I1000
sg28
Nsg33
g34
sg38
g92
sg40
g41
sg31
g540
sba(ischedule
Activity
p822
(dp823
g8
g702
sg26
S'20'
p824
sg28
g712
sg33
g135
sg38
g389
sg40
g93
sg31
g715
sba(ischedule
Activity
p825
(dp826
g8
(lp827
g256
ag660
ag254
aS'24891081'
p828
ag116
aS'2416751'
p829
aS'20618153'
p830
aS'76648468'
p831
ag105
ag748
aS'67073567'
p832
aS'49908313'
p833
ag22
aS'17092717'
p834
ag221
ag545
ag246
aS'66034145'
p835
aS'28358060'
p836
asg26
g824
sg28
(ischedule
Group
p837
(dp838
g8
g827
sg31
S'Webprogrammeren en databases2'
p839
sbsg33
g517
sg38
g389
sg40
g41
sg31
g715
sba(ischedule
Activity
p840
(dp841
g8
(lp842
g271
ag514
ag654
ag394
ag112
ag665
ag395
aS'34806836'
p843
ag359
ag281
ag369
ag294
ag396
ag73
ag450
ag76
ag437
ag125
ag65
ag72
ag618
ag397
asg26
I1000
sg28
Nsg33
(iread_data3
Room
p844
(dp845
g26
S'22'
p846
sg31
S'A1.06'
p847
sbsg38
g92
sg40
g93
sg31
g406
sbaa(lp848
(ischedule
Activity
p849
(dp850
g8
(lp851
g341
ag54
ag457
ag545
ag547
ag182
ag225
ag21
ag413
ag332
asg26
S'10'
p852
sg28
(ischedule
Group
p853
(dp854
g8
g851
sg31
S'Advanced Heuristics2'
p855
sbsg33
g135
sg38
g389
sg40
g41
sg31
g548
sba(ischedule
Activity
p856
(dp857
g8
g718
sg26
I1000
sg28
Nsg33
g286
sg38
g92
sg40
g41
sg31
g560
sba(ischedule
Activity
p858
(dp859
g8
(lp860
g429
aS'44151631'
p861
ag52
aS'1695839'
p862
ag530
aS'5892092'
p863
ag227
ag749
ag786
aS'55103073'
p864
ag267
ag170
ag332
aS'51673172'
p865
asg26
g632
sg28
(ischedule
Group
p866
(dp867
g8
g860
sg31
S'Compilerbouw practicum1'
p868
sbsg33
g34
sg38
g389
sg40
g93
sg31
g636
sba(ischedule
Activity
p869
(dp870
g8
(lp871
g371
aS'19214659'
p872
aS'90103047'
p873
ag163
ag231
ag641
ag62
aS'21070547'
p874
ag229
aS'34691309'
p875
ag11
aS'81116418'
p876
ag127
ag25
aS'40911986'
p877
asg26
g674
sg28
(ischedule
Group
p878
(dp879
g8
g871
sg31
S'Project Numerical Recipes1'
p880
sbsg33
(iread_data3
Room
p881
(dp882
g26
g387
sg31
g388
sbsg38
g389
sg40
g93
sg31
g678
sba(ischedule
Activity
p883
(dp884
g8
(lp885
g524
ag525
ag337
ag278
ag528
ag56
ag531
ag533
ag73
ag535
asg26
S'15'
p886
sg28
(ischedule
Group
p887
(dp888
g8
g885
sg31
S'Informatie- en organsatieontwerp2'
p889
sbsg33
(iread_data3
Room
p890
(dp891
g26
S'117'
p892
sg31
S'C0.110'
p893
sbsg38
g389
sg40
g41
sg31
g540
sba(ischedule
Activity
p894
(dp895
g8
(lp896
g162
aS'67625383'
p897
ag252
aS'90067329'
p898
ag591
ag685
ag203
ag112
ag507
ag166
aS'56988998'
p899
ag333
ag503
ag270
ag104
ag577
ag113
ag316
ag360
ag319
ag147
aS'33252501'
p900
asg26
I1000
sg28
Nsg33
(iread_data3
Room
p901
(dp902
g26
g846
sg31
g847
sbsg38
g92
sg40
g93
sg31
S'Machine Learning'
p903
sba(ischedule
Activity
p904
(dp905
g8
g885
sg26
S'15'
p906
sg28
g887
sg33
(iread_data3
Room
p907
(dp908
g26
g238
sg31
g239
sbsg38
g39
sg40
g41
sg31
g540
sbaa(lp909
(ischedule
Activity
p910
(dp911
g8
(lp912
g73
ag204
aS'14398123'
p913
ag47
aS'64246605'
p914
ag463
ag652
ag63
ag87
ag747
ag443
ag184
aS'21677389'
p915
ag481
aS'59887191'
p916
ag261
asg26
S'20'
p917
sg28
(ischedule
Group
p918
(dp919
g8
g912
sg31
S'Netwerken en systeembeveiliging3'
p920
sbsg33
g34
sg38
g389
sg40
g216
sg31
S'Netwerken en systeembeveiliging'
p921
sba(ischedule
Activity
p922
(dp923
g8
(lp924
g293
ag197
ag294
ag295
ag296
ag297
ag298
ag299
ag300
ag301
ag178
ag302
ag303
ag304
ag305
ag247
ag207
ag260
ag306
ag307
ag308
ag309
ag310
ag311
ag312
ag313
ag314
ag315
ag316
ag317
ag318
ag319
ag230
ag320
asg26
g131
sg28
(ischedule
Group
p925
(dp926
g8
g924
sg31
S'Compilerbouw2'
p927
sbsg33
g517
sg38
g39
sg40
g41
sg31
g139
sba(ischedule
Activity
p928
(dp929
g8
g97
sg26
S'40'
p930
sg28
g132
sg33
g286
sg38
g389
sg40
g93
sg31
g139
sba(ischedule
Activity
p931
(dp932
g8
(lp933
g464
ag413
aS'69634191'
p934
ag582
ag380
aS'37701751'
p935
ag835
ag452
aS'65675896'
p936
ag297
ag872
ag915
aS'64768422'
p937
aS'28055464'
p938
ag603
ag750
aS'76924297'
p939
ag299
ag729
ag304
aS'20374340'
p940
ag15
ag545
aS'44828429'
p941
ag149
asg26
I1000
sg28
Nsg33
g188
sg38
g92
sg40
g93
sg31
S'Interactie-ontwerp'
p942
sba(ischedule
Activity
p943
(dp944
g8
(lp945
S'73196865'
p946
ag685
ag154
ag487
ag745
ag659
ag62
ag746
aS'7386961'
p947
ag149
ag22
ag650
ag829
ag112
ag493
aS'63096281'
p948
ag631
ag177
asg26
g583
sg28
(ischedule
Group
p949
(dp950
g8
g945
sg31
S'Programmeren in Java 24'
p951
sbsg33
g135
sg38
g389
sg40
g812
sg31
g587
sba(ischedule
Activity
p952
(dp953
g8
(lp954
g526
ag11
ag277
ag78
ag719
ag65
ag157
ag59
ag720
asg26
g619
sg28
(ischedule
Group
p955
(dp956
g8
g954
sg31
S'Data Mining3'
p957
sbsg33
g88
sg38
g389
sg40
g216
sg31
g560
sba(ischedule
Activity
p958
(dp959
g8
(lp960
g449
ag451
ag282
ag453
ag224
ag456
ag49
ag459
ag461
ag463
ag465
ag24
ag467
ag468
ag380
ag471
ag473
ag114
ag474
ag150
ag477
ag479
ag71
ag481
ag483
ag485
ag443
ag57
ag487
ag489
ag490
ag491
ag493
ag495
ag497
asg26
g349
sg28
(ischedule
Group
p961
(dp962
g8
g960
sg31
S'Calculus 23'
p963
sbsg33
(iread_data3
Room
p964
(dp965
g26
g238
sg31
g239
sbsg38
g39
sg40
g216
sg31
g353
sbaaa(lp966
(lp967
(ischedule
Activity
p968
(dp969
g8
g393
sg26
S'10'
p970
sg28
g399
sg33
g286
sg38
g389
sg40
g93
sg31
g406
sba(ischedule
Activity
p971
(dp972
g8
(lp973
S'56121590'
p974
aS'56191333'
p975
ag107
ag642
ag496
ag280
ag225
ag437
ag348
ag47
ag359
ag196
ag834
ag525
ag494
aS'13132925'
p976
ag365
aS'15187217'
p977
ag682
ag255
ag86
aS'58083680'
p978
ag618
aS'25077484'
p979
ag330
ag112
ag482
ag125
aS'27123462'
p980
ag442
ag448
ag730
aS'59397895'
p981
ag796
ag935
ag100
asg26
S'40'
p982
sg28
(ischedule
Group
p983
(dp984
g8
g973
sg31
S'Databases 21'
p985
sbsg33
g536
sg38
g39
sg40
g93
sg31
S'Databases 2'
p986
sba(ischedule
Activity
p987
(dp988
g8
(lp989
g311
ag414
aS'70336464'
p990
aS'47982619'
p991
ag358
ag146
aS'4697362'
p992
aS'97371272'
p993
ag12
ag65
ag528
aS'92496780'
p994
ag706
ag293
ag502
ag121
ag313
ag672
ag255
asg26
S'20'
p995
sg28
(ischedule
Group
p996
(dp997
g8
g989
sg31
S'Technology for games2'
p998
sbsg33
(iread_data3
Room
p999
(dp1000
g26
g892
sg31
g893
sbsg38
g39
sg40
g41
sg31
S'Technology for games'
p1001
sba(ischedule
Activity
p1002
(dp1003
g8
(lp1004
g66
ag251
ag84
ag526
ag527
ag529
ag530
ag532
ag121
ag534
ag439
asg26
g906
sg28
(ischedule
Group
p1005
(dp1006
g8
g1004
sg31
S'Informatie- en organsatieontwerp1'
p1007
sbsg33
(iread_data3
Room
p1008
(dp1009
g26
g762
sg31
g763
sbsg38
g39
sg40
g93
sg31
g540
sbaa(lp1010
(ischedule
Activity
p1011
(dp1012
g8
(lp1013
g78
ag73
aS'69086548'
p1014
ag317
ag196
aS'77264363'
p1015
ag86
ag413
aS'21192048'
p1016
ag248
ag173
ag84
aS'76487754'
p1017
ag169
ag314
ag283
ag527
ag628
aS'93041523'
p1018
asg26
g995
sg28
(ischedule
Group
p1019
(dp1020
g8
g1013
sg31
S'Technology for games1'
p1021
sbsg33
g135
sg38
g39
sg40
g93
sg31
g1001
sba(ischedule
Activity
p1022
(dp1023
g8
(lp1024
g78
ag311
ag73
ag414
ag1014
ag990
ag317
ag991
ag196
ag358
ag1015
ag146
ag86
ag992
ag413
ag993
ag1016
ag12
ag248
ag65
ag173
ag528
ag84
ag994
ag1017
ag706
ag169
ag293
ag314
ag502
ag283
ag121
ag527
ag313
ag628
ag672
ag1018
ag255
asg26
I1000
sg28
Nsg33
g286
sg38
g92
sg40
g41
sg31
g1001
sba(ischedule
Activity
p1025
(dp1026
g8
g827
sg26
g711
sg28
g837
sg33
g34
sg38
g39
sg40
g41
sg31
g715
sba(ischedule
Activity
p1027
(dp1028
g8
(lp1029
g618
ag378
ag507
ag279
ag277
aS'64554442'
p1030
ag508
ag333
ag745
ag161
ag746
ag649
ag461
ag941
ag492
aS'23652927'
p1031
ag293
ag367
ag747
ag178
ag170
ag440
ag357
ag532
ag87
aS'91527663'
p1032
ag496
ag297
ag748
ag394
ag749
ag729
ag379
ag602
ag750
aS'51509565'
p1033
ag204
ag116
ag751
ag433
ag752
ag47
ag370
asg26
I1000
sg28
Nsg33
g88
sg38
g92
sg40
g93
sg31
g757
sba(ischedule
Activity
p1034
(dp1035
g8
(lp1036
g46
ag48
ag50
ag52
ag10
ag55
ag57
ag59
ag61
ag63
ag65
ag67
ag69
ag17
ag72
ag74
ag76
ag78
ag80
ag82
ag84
ag86
asg26
g816
sg28
(ischedule
Group
p1037
(dp1038
g8
g1036
sg31
S'Heuristieken 11'
p1039
sbsg33
(iread_data3
Room
p1040
(dp1041
g26
g387
sg31
g388
sbsg38
g39
sg40
g93
sg31
g94
sba(ischedule
Activity
p1042
(dp1043
g8
(lp1044
g544
ag62
ag259
ag254
ag546
ag153
ag261
ag118
ag272
ag161
asg26
g852
sg28
(ischedule
Group
p1045
(dp1046
g8
g1044
sg31
S'Advanced Heuristics1'
p1047
sbsg33
(iread_data3
Room
p1048
(dp1049
g26
g238
sg31
g239
sbsg38
g389
sg40
g93
sg31
g548
sba(ischedule
Activity
p1050
(dp1051
g8
g896
sg26
I1000
sg28
Nsg33
(iread_data3
Room
p1052
(dp1053
g26
g846
sg31
g847
sbsg38
g92
sg40
g41
sg31
g903
sbaa(lp1054
(ischedule
Activity
p1055
(dp1056
g8
g613
sg26
g556
sg28
g620
sg33
g135
sg38
g39
sg40
g41
sg31
g560
sba(ischedule
Activity
p1057
(dp1058
g8
(lp1059
S'72547110'
p1060
ag899
ag592
ag528
ag176
ag747
ag575
ag272
ag516
ag696
aS'10872825'
p1061
ag484
ag328
ag682
ag913
ag463
ag294
ag304
aS'82688900'
p1062
aS'79366078'
p1063
ag207
ag274
ag75
ag411
ag993
ag465
ag205
ag788
aS'38329455'
p1064
ag147
ag460
ag606
aS'91139627'
p1065
aS'44940353'
p1066
aS'39659121'
p1067
ag46
ag310
ag650
ag68
ag476
aS'65003379'
p1068
ag524
aS'63408522'
p1069
ag502
aS'47605891'
p1070
ag203
ag23
ag364
ag14
ag63
aS'37498675'
p1071
ag506
ag357
ag371
ag503
ag162
ag470
ag104
ag605
ag161
ag531
ag284
ag1014
ag108
ag87
ag746
ag552
aS'39919665'
p1072
ag57
ag939
ag379
ag707
aS'51186803'
p1073
ag81
aS'79858178'
p1074
ag512
ag468
ag151
ag25
ag652
ag252
ag579
aS'63955238'
p1075
ag469
asg26
I1000
sg28
Nsg33
g34
sg38
g92
sg40
g93
sg31
S'Kansrekenen 2'
p1076
sba(ischedule
Activity
p1077
(dp1078
g8
(lp1079
g165
ag256
ag703
ag660
ag343
ag254
ag704
ag828
ag159
ag116
ag457
ag829
ag484
ag830
ag255
ag831
ag83
ag105
ag513
ag748
ag705
ag832
ag706
ag833
ag335
ag22
ag707
ag834
ag708
ag221
ag709
ag545
ag200
ag246
ag649
ag835
ag710
ag836
ag574
asg26
I1000
sg28
Nsg33
g188
sg38
g92
sg40
g41
sg31
g715
sba(ischedule
Activity
p1080
(dp1081
g8
(lp1082
S'75680261'
p1083
ag451
aS'5526560'
p1084
ag473
ag913
ag250
ag299
ag120
ag416
ag122
ag417
aS'82066165'
p1085
asg26
S'15'
p1086
sg28
(ischedule
Group
p1087
(dp1088
g8
g1082
sg31
S'Project Genetic Algorithms1'
p1089
sbsg33
g88
sg38
g389
sg40
g93
sg31
S'Project Genetic Algorithms'
p1090
sba(ischedule
Activity
p1091
(dp1092
g8
(lp1093
g514
ag112
ag843
ag369
ag73
ag437
ag72
asg26
g398
sg28
(ischedule
Group
p1094
(dp1095
g8
g1093
sg31
S'Autonomous Agents 22'
p1096
sbsg33
(iread_data3
Room
p1097
(dp1098
g26
g387
sg31
g388
sbsg38
g39
sg40
g41
sg31
g406
sbaa(lp1099
(ischedule
Activity
p1100
(dp1101
g8
g842
sg26
I1000
sg28
Nsg33
g536
sg38
g92
sg40
g41
sg31
g406
sba(ischedule
Activity
p1102
(dp1103
g8
(lp1104
g1084
ag182
ag576
ag495
ag411
ag1032
ag641
ag748
ag524
ag602
aS'62736669'
p1105
ag200
aS'26207525'
p1106
ag274
ag81
ag485
ag698
ag158
aS'54540997'
p1107
ag486
ag178
ag659
ag163
ag51
ag204
ag276
ag247
aS'4529208'
p1108
ag341
ag788
ag226
ag786
ag99
ag181
ag410
ag186
asg26
g982
sg28
(ischedule
Group
p1109
(dp1110
g8
g1104
sg31
S'Databases 22'
p1111
sbsg33
g286
sg38
g39
sg40
g41
sg31
g986
sba(ischedule
Activity
p1112
(dp1113
g8
g924
sg26
g930
sg28
g925
sg33
g88
sg38
g389
sg40
g41
sg31
g139
sba(ischedule
Activity
p1114
(dp1115
g8
(lp1116
g459
ag339
aS'73893840'
p1117
ag412
ag440
ag652
ag991
ag432
ag511
ag830
aS'90296821'
p1118
ag439
ag461
ag642
ag438
ag709
ag532
aS'88263855'
p1119
ag184
asg26
g583
sg28
(ischedule
Group
p1120
(dp1121
g8
g1116
sg31
S'Programmeren in Java 21'
p1122
sbsg33
g135
sg38
g389
sg40
g93
sg31
g587
sba(ischedule
Activity
p1123
(dp1124
g8
(lp1125
g306
ag682
ag684
ag686
ag283
ag260
ag269
ag367
ag690
ag146
ag534
ag524
ag458
ag121
ag693
ag695
ag327
ag86
asg26
S'20'
p1126
sg28
(ischedule
Group
p1127
(dp1128
g8
g1125
sg31
S'Moderne Databases3'
p1129
sbsg33
g188
sg38
g39
sg40
g216
sg31
g699
sba(ischedule
Activity
p1130
(dp1131
g8
(lp1132
g230
ag939
ag303
ag333
ag13
ag546
ag747
ag708
ag698
ag448
ag179
ag627
asg26
g1086
sg28
(ischedule
Group
p1133
(dp1134
g8
g1132
sg31
S'Project Genetic Algorithms3'
p1135
sbsg33
g517
sg38
g389
sg40
g216
sg31
g1090
sbaa(lp1136
(ischedule
Activity
p1137
(dp1138
g8
g802
sg26
g208
sg28
g803
sg33
g88
sg38
g39
sg40
g93
sg31
g217
sba(ischedule
Activity
p1139
(dp1140
g8
g409
sg26
g208
sg28
g420
sg33
g286
sg38
g39
sg40
g41
sg31
g217
sba(ischedule
Activity
p1141
(dp1142
g8
g933
sg26
I1000
sg28
Nsg33
g536
sg38
g92
sg40
g41
sg31
g942
sba(ischedule
Activity
p1143
(dp1144
g8
(lp1145
g123
ag183
ag665
aS'54395877'
p1146
ag186
aS'51791169'
p1147
aS'64053722'
p1148
ag615
ag365
aS'12782624'
p1149
ag333
ag101
ag269
ag301
ag524
ag363
aS'10702778'
p1150
ag18
ag14
asg26
g583
sg28
(ischedule
Group
p1151
(dp1152
g8
g1145
sg31
S'Programmeren in Java 22'
p1153
sbsg33
g135
sg38
g389
sg40
g41
sg31
g587
sba(ischedule
Activity
p1154
(dp1155
g8
(lp1156
g207
ag81
ag267
ag51
ag269
ag271
ag272
ag274
ag275
ag150
ag57
ag279
ag114
ag282
ag284
asg26
g232
sg28
(ischedule
Group
p1157
(dp1158
g8
g1156
sg31
S'Bioinformatica1'
p1159
sbsg33
(iread_data3
Room
p1160
(dp1161
g26
g387
sg31
g388
sbsg38
g39
sg40
g93
sg31
g240
sba(ischedule
Activity
p1162
(dp1163
g8
g769
sg26
S'40'
p1164
sg28
g770
sg33
(iread_data3
Room
p1165
(dp1166
g26
g404
sg31
g405
sbsg38
g39
sg40
g93
sg31
g390
sba(ischedule
Activity
p1167
(dp1168
g8
g808
sg26
g208
sg28
g809
sg33
(iread_data3
Room
p1169
(dp1170
g26
g846
sg31
g847
sbsg38
g39
sg40
g812
sg31
g217
sbaaa(lp1171
(lp1172
(ischedule
Activity
p1173
(dp1174
g8
(lp1175
g974
ag1084
ag975
ag182
ag107
ag576
ag642
ag495
ag496
ag411
ag280
ag1032
ag225
ag641
ag437
ag748
ag348
ag524
ag47
ag602
ag359
ag1105
ag196
ag200
ag834
ag1106
ag525
ag274
ag494
ag81
ag976
ag485
ag365
ag698
ag977
ag158
ag682
ag1107
ag255
ag486
ag86
ag178
ag978
ag659
ag618
ag163
ag979
ag51
ag330
ag204
ag112
ag276
ag482
ag247
ag125
ag1108
ag980
ag341
ag442
ag788
ag448
ag226
ag730
ag786
ag981
ag99
ag796
ag181
ag935
ag410
ag100
ag186
asg26
I1000
sg28
Nsg33
g517
sg38
g92
sg40
g93
sg31
g986
sba(ischedule
Activity
p1176
(dp1177
g8
(lp1178
S'32183908'
p1179
ag261
aS'37419523'
p1180
ag267
ag369
ag502
ag130
ag320
aS'19662602'
p1181
ag305
ag311
ag174
aS'63573738'
p1182
ag116
asg26
g674
sg28
(ischedule
Group
p1183
(dp1184
g8
g1178
sg31
S'Project Numerical Recipes3'
p1185
sbsg33
g34
sg38
g389
sg40
g216
sg31
g678
sba(ischedule
Activity
p1186
(dp1187
g8
(lp1188
g652
aS'47260040'
p1189
ag117
ag936
ag1085
aS'41644639'
p1190
aS'51472074'
p1191
aS'42297781'
p1192
ag433
ag298
ag527
aS'535689'
p1193
ag196
asg26
g632
sg28
(ischedule
Group
p1194
(dp1195
g8
g1188
sg31
S'Compilerbouw practicum3'
p1196
sbsg33
g286
sg38
g389
sg40
g216
sg31
g636
sba(ischedule
Activity
p1197
(dp1198
g8
g1059
sg26
I1000
sg28
Nsg33
g135
sg38
g92
sg40
g41
sg31
g1076
sba(ischedule
Activity
p1199
(dp1200
g8
(lp1201
g54
ag576
ag487
ag465
ag270
ag655
ag98
ag689
ag513
ag496
ag276
ag442
ag345
ag82
ag692
ag184
ag84
ag698
asg26
g1126
sg28
(ischedule
Group
p1202
(dp1203
g8
g1201
sg31
S'Moderne Databases2'
p1204
sbsg33
g88
sg38
g39
sg40
g41
sg31
g699
sba(ischedule
Activity
p1205
(dp1206
g8
g1201
sg26
g776
sg28
g1202
sg33
g188
sg38
g389
sg40
g41
sg31
g699
sba(ischedule
Activity
p1207
(dp1208
g8
g1079
sg26
I1000
sg28
Nsg33
g536
sg38
g92
sg40
g93
sg31
g715
sbaa(lp1209
(ischedule
Activity
p1210
(dp1211
g8
g1024
sg26
I1000
sg28
Nsg33
g88
sg38
g92
sg40
g93
sg31
g1001
sba(ischedule
Activity
p1212
(dp1213
g8
(lp1214
g250
ag10
ag473
ag11
ag410
ag12
ag726
ag13
ag507
ag14
ag727
ag15
ag728
ag16
ag659
ag17
ag513
ag18
ag159
ag19
ag729
ag20
ag450
ag21
ag493
ag22
ag618
ag23
ag730
ag24
ag577
ag25
asg26
I1000
sg28
Nsg33
g286
sg38
g92
sg40
g93
sg31
g42
sba(ischedule
Activity
p1215
(dp1216
g8
g265
sg26
I1000
sg28
Nsg33
g135
sg38
g92
sg40
g93
sg31
g240
sba(ischedule
Activity
p1217
(dp1218
g8
(lp1219
g143
ag146
ag149
ag151
ag153
ag155
ag158
ag161
ag164
ag166
ag169
ag172
ag175
ag178
ag180
ag183
ag185
asg26
S'20'
p1220
sg28
(ischedule
Group
p1221
(dp1222
g8
g1219
sg31
S'Reflectie op de digitale cultuur1'
p1223
sbsg33
g517
sg38
g39
sg40
g93
sg31
g192
sba(ischedule
Activity
p1224
(dp1225
g8
(lp1226
g144
ag147
ag72
ag66
ag154
ag156
ag159
ag162
ag165
ag167
ag170
ag173
ag176
ag23
ag181
ag184
ag186
asg26
g1220
sg28
(ischedule
Group
p1227
(dp1228
g8
g1226
sg31
S'Reflectie op de digitale cultuur2'
p1229
sbsg33
g536
sg38
g39
sg40
g41
sg31
g192
sba(ischedule
Activity
p1230
(dp1231
g8
g775
sg26
g1126
sg28
g777
sg33
g34
sg38
g39
sg40
g93
sg31
g699
sba(ischedule
Activity
p1232
(dp1233
g8
g664
sg26
g970
sg28
g666
sg33
(iread_data3
Room
p1234
(dp1235
g26
g846
sg31
g847
sbsg38
g389
sg40
g216
sg31
g406
sbaa(lp1236
(ischedule
Activity
p1237
(dp1238
g8
g428
sg26
I1000
sg28
Nsg33
g88
sg38
g92
sg40
g216
sg31
g217
sba(ischedule
Activity
p1239
(dp1240
g8
(lp1241
g365
ag314
ag222
ag320
ag179
ag228
ag694
ag975
ag310
ag165
ag332
ag15
aS'25557516'
p1242
aS'53267490'
p1243
ag202
aS'12170832'
p1244
asg26
g917
sg28
(ischedule
Group
p1245
(dp1246
g8
g1241
sg31
S'Netwerken en systeembeveiliging2'
p1247
sbsg33
g188
sg38
g389
sg40
g41
sg31
g921
sba(ischedule
Activity
p1248
(dp1249
g8
g954
sg26
g556
sg28
g955
sg33
g286
sg38
g39
sg40
g216
sg31
g560
sba(ischedule
Activity
p1250
(dp1251
g8
g551
sg26
g619
sg28
g557
sg33
g34
sg38
g389
sg40
g93
sg31
g560
sba(ischedule
Activity
p1252
(dp1253
g8
(lp1254
g378
ag279
ag1030
ag333
ag161
ag649
ag941
ag1031
ag367
ag178
ag440
ag532
ag1032
ag297
ag394
ag729
ag602
ag1033
ag116
ag433
ag47
asg26
g753
sg28
(ischedule
Group
p1255
(dp1256
g8
g1254
sg31
S'Algoritmen en complexiteit2'
p1257
sbsg33
g517
sg38
g39
sg40
g41
sg31
g757
sba(ischedule
Activity
p1258
(dp1259
g8
g640
sg26
I1000
sg28
Nsg33
(iread_data3
Room
p1260
(dp1261
g26
g238
sg31
g239
sbsg38
g92
sg40
g41
sg31
g661
sbaa(lp1262
(ischedule
Activity
p1263
(dp1264
g8
(lp1265
g796
ag614
ag346
ag70
ag1193
ag364
ag374
ag119
ag531
ag360
ag581
ag1106
ag85
ag974
aS'5590289'
p1266
ag297
asg26
g917
sg28
(ischedule
Group
p1267
(dp1268
g8
g1265
sg31
S'Netwerken en systeembeveiliging4'
p1269
sbsg33
g517
sg38
g389
sg40
g812
sg31
g921
sba(ischedule
Activity
p1270
(dp1271
g8
g356
sg26
g1164
sg28
g382
sg33
g286
sg38
g39
sg40
g41
sg31
g390
sba(ischedule
Activity
p1272
(dp1273
g8
g1004
sg26
g886
sg28
g1005
sg33
g34
sg38
g389
sg40
g93
sg31
g540
sba(ischedule
Activity
p1274
(dp1275
g8
(lp1276
g145
ag148
ag150
ag152
ag120
ag157
ag160
ag163
ag19
ag168
ag171
ag174
ag177
ag179
ag182
ag65
ag187
asg26
g1220
sg28
(ischedule
Group
p1277
(dp1278
g8
g1276
sg31
S'Reflectie op de digitale cultuur3'
p1279
sbsg33
g536
sg38
g39
sg40
g216
sg31
g192
sba(ischedule
Activity
p1280
(dp1281
g8
g1125
sg26
g776
sg28
g1127
sg33
g135
sg38
g389
sg40
g216
sg31
g699
sba(ischedule
Activity
p1282
(dp1283
g8
g1254
sg26
g782
sg28
g1255
sg33
g188
sg38
g389
sg40
g41
sg31
g757
sba(ischedule
Activity
p1284
(dp1285
g8
(lp1286
S'55480737'
p1287
ag514
ag1190
ag503
ag169
ag510
ag979
ag865
ag155
ag793
ag630
ag497
asg26
g1086
sg28
(ischedule
Group
p1288
(dp1289
g8
g1286
sg31
S'Project Genetic Algorithms2'
p1290
sbsg33
g88
sg38
g389
sg40
g41
sg31
g1090
sbaa(lp1291
(ischedule
Activity
p1292
(dp1293
g8
g195
sg26
g419
sg28
g209
sg33
g135
sg38
g389
sg40
g216
sg31
g217
sba(ischedule
Activity
p1294
(dp1295
g8
g1093
sg26
g970
sg28
g1094
sg33
g536
sg38
g389
sg40
g41
sg31
g406
sba(ischedule
Activity
p1296
(dp1297
g8
(lp1298
g266
ag53
ag129
ag268
ag270
ag146
ag273
ag25
ag276
ag277
ag278
ag280
ag281
ag283
ag285
asg26
g232
sg28
(ischedule
Group
p1299
(dp1300
g8
g1298
sg31
S'Bioinformatica3'
p1301
sbsg33
g517
sg38
g39
sg40
g216
sg31
g240
sba(ischedule
Activity
p1302
(dp1303
g8
g265
sg26
I1000
sg28
Nsg33
g34
sg38
g92
sg40
g41
sg31
g240
sba(ischedule
Activity
p1304
(dp1305
g8
g1156
sg26
g564
sg28
g1157
sg33
g88
sg38
g389
sg40
g93
sg31
g240
sba(ischedule
Activity
p1306
(dp1307
g8
g1298
sg26
g564
sg28
g1299
sg33
g188
sg38
g389
sg40
g216
sg31
g240
sba(ischedule
Activity
p1308
(dp1309
g8
(lp1310
g11
ag508
ag1182
ag231
aS'123355'
p1311
ag182
ag266
ag617
ag1105
aS'19058315'
p1312
ag102
ag13
ag153
ag794
aS'16912993'
p1313
ag501
asg26
g917
sg28
(ischedule
Group
p1314
(dp1315
g8
g1310
sg31
S'Netwerken en systeembeveiliging1'
p1316
sbsg33
(iread_data3
Room
p1317
(dp1318
g26
g214
sg31
g215
sbsg38
g389
sg40
g93
sg31
g921
sbaaa(lp1319
(lp1320
a(lp1321
a(lp1322
a(lp1323
a(lp1324
aasS'timeslot_dict'
p1325
(dp1326
I0
S'9:00-11:00'
p1327
sI1
S'11:00-13:00'
p1328
sI2
S'13:00-15:00'
p1329
sI3
S'15:00-17:00'
p1330
sI4
S'17:00-19:00'
p1331
ssS'day_dict'
p1332
(dp1333
I0
S'Monday'
p1334
sI1
S'Tuesday'
p1335
sI2
S'Wednesday'
p1336
sI3
S'Thursday'
p1337
sI4
S'Friday'
p1338
ssb.