(ischedule
Schedule
p0
(dp1
S'timetable'
p2
(lp3
(lp4
(lp5
(ischedule
Activity
p6
(dp7
S'participants'
p8
(lp9
S'27187154'
p10
aS'3407554'
p11
aS'5368702'
p12
aS'73236988'
p13
aS'80135353'
p14
aS'53202517'
p15
aS'65960683'
p16
aS'15911353'
p17
aS'72895450'
p18
aS'65852230'
p19
aS'48503689'
p20
aS'37770881'
p21
aS'1766560'
p22
aS'79167252'
p23
aS'95007221'
p24
aS'54772132'
p25
aS'81385263'
p26
aS'11741347'
p27
aS'49683101'
p28
aS'75664412'
p29
aS'34872117'
p30
aS'83266686'
p31
aS'13911001'
p32
aS'72796858'
p33
aS'8464817'
p34
aS'92665222'
p35
aS'88752563'
p36
aS'60312776'
p37
aS'9067939'
p38
aS'5595824'
p39
aS'98105190'
p40
aS'6723948'
p41
aS'46989508'
p42
aS'75599734'
p43
aS'2079771'
p44
asS'capacity'
p45
S'40'
p46
sS'group'
p47
(ischedule
Group
p48
(dp49
g8
g9
sS'name'
p50
S'Compilerbouw1'
p51
sbsS'room'
p52
(iread_data3
Room
p53
(dp54
g45
S'117'
p55
sg50
S'C0.110'
p56
sbsS'ttype'
p57
S'labs'
p58
sS'group_id'
p59
S'1'
p60
sg50
S'Compilerbouw'
p61
sba(ischedule
Activity
p62
(dp63
g8
(lp64
S'22323043'
p65
aS'58565406'
p66
aS'9332762'
p67
aS'40434933'
p68
aS'44901052'
p69
aS'41578612'
p70
aS'77264363'
p71
aS'97371272'
p72
aS'12430748'
p73
aS'26406342'
p74
aS'37110913'
p75
aS'10149535'
p76
aS'6249823'
p77
aS'48308205'
p78
aS'21192048'
p79
aS'69086548'
p80
aS'76487754'
p81
aS'32204977'
p82
aS'23547619'
p83
aS'31194811'
p84
aS'36785409'
p85
aS'43680781'
p86
aS'4697362'
p87
aS'75521763'
p88
aS'7106649'
p89
aS'70336464'
p90
aS'14309255'
p91
aS'68315599'
p92
ag29
aS'77636749'
p93
aS'47982619'
p94
aS'11996292'
p95
aS'93041523'
p96
aS'14383795'
p97
aS'12077419'
p98
aS'89338938'
p99
aS'92496780'
p100
aS'85335143'
p101
asg45
I1000
sg47
Nsg52
(iread_data3
Room
p102
(dp103
g45
S'48'
p104
sg50
S'B0.201'
p105
sbsg57
S'lectures'
p106
sg59
S'2'
p107
sg50
S'Technology for games'
p108
sba(ischedule
Activity
p109
(dp110
g8
(lp111
S'51566595'
p112
aS'19858730'
p113
aS'61611295'
p114
aS'70113753'
p115
aS'11915563'
p116
aS'39459642'
p117
ag75
asg45
S'10'
p118
sg47
(ischedule
Group
p119
(dp120
g8
g111
sg50
S'Autonomous Agents 22'
p121
sbsg52
(iread_data3
Room
p122
(dp123
g45
S'20'
p124
sg50
S'A1.08'
p125
sbsg57
S'tutorials'
p126
sg59
g107
sg50
S'Autonomous Agents 2'
p127
sba(ischedule
Activity
p128
(dp129
g8
(lp130
S'68409833'
p131
aS'62872965'
p132
aS'34806836'
p133
ag33
aS'54026378'
p134
aS'27298319'
p135
aS'52552718'
p136
aS'74131924'
p137
asg45
S'10'
p138
sg47
(ischedule
Group
p139
(dp140
g8
g130
sg50
S'Autonomous Agents 21'
p141
sbsg52
(iread_data3
Room
p142
(dp143
g45
S'22'
p144
sg50
S'A1.06'
p145
sbsg57
g58
sg59
g60
sg50
g127
sba(ischedule
Activity
p146
(dp147
g8
(lp148
S'79937969'
p149
aS'90743504'
p150
aS'54074680'
p151
aS'74182182'
p152
ag78
aS'4921119'
p153
aS'80998260'
p154
aS'61060652'
p155
ag132
aS'42778953'
p156
aS'81218347'
p157
aS'37399898'
p158
aS'91196968'
p159
ag26
aS'42196732'
p160
aS'93566383'
p161
aS'35330349'
p162
aS'14591033'
p163
ag131
aS'16011419'
p164
aS'38499176'
p165
aS'26172512'
p166
aS'16097870'
p167
aS'58866007'
p168
aS'55474917'
p169
aS'55412918'
p170
aS'36508571'
p171
aS'79617364'
p172
aS'80709893'
p173
ag70
aS'94686490'
p174
aS'3474870'
p175
aS'75005528'
p176
aS'16333449'
p177
aS'31416266'
p178
aS'21311067'
p179
aS'56872729'
p180
aS'36527838'
p181
aS'670011'
p182
aS'96118484'
p183
aS'87758823'
p184
aS'52311353'
p185
aS'34243356'
p186
aS'71839156'
p187
aS'23565001'
p188
aS'42115591'
p189
aS'32595335'
p190
aS'5517869'
p191
aS'94955328'
p192
ag76
aS'66570705'
p193
aS'77896638'
p194
aS'83210352'
p195
aS'34588570'
p196
asg45
I1000
sg47
Nsg52
(iread_data3
Room
p197
(dp198
g45
S'60'
p199
sg50
S'C1.112'
p200
sbsg57
g106
sg59
g107
sg50
S'Lineaire Algebra'
p201
sba(ischedule
Activity
p202
(dp203
g8
(lp204
S'76903244'
p205
ag68
aS'20618153'
p206
aS'17092717'
p207
aS'22288615'
p208
aS'53512831'
p209
aS'57086672'
p210
aS'67073567'
p211
aS'64228258'
p212
aS'78243495'
p213
ag175
aS'43902015'
p214
aS'39230359'
p215
aS'33877725'
p216
ag177
aS'61443567'
p217
aS'76123484'
p218
aS'69459473'
p219
aS'94930277'
p220
aS'1137946'
p221
ag18
aS'77392404'
p222
aS'43460038'
p223
aS'24891081'
p224
aS'76648468'
p225
ag77
aS'66034145'
p226
aS'41790793'
p227
aS'2416751'
p228
aS'89180944'
p229
aS'14303208'
p230
aS'72577292'
p231
aS'10698627'
p232
aS'5615125'
p233
aS'49908313'
p234
aS'27064249'
p235
aS'14847953'
p236
ag15
aS'28358060'
p237
asg45
I1000
sg47
Nsg52
(iread_data3
Room
p238
(dp239
g45
S'56'
p240
sg50
S'A1.10'
p241
sbsg57
g106
sg59
g60
sg50
S'Webprogrammeren en databases'
p242
sbaa(lp243
(ischedule
Activity
p244
(dp245
g8
(lp246
S'27950803'
p247
ag84
aS'95631564'
p248
aS'79033175'
p249
aS'10792879'
p250
aS'76802764'
p251
aS'40791377'
p252
ag92
ag116
aS'13284244'
p253
ag117
aS'43689934'
p254
ag186
aS'94687383'
p255
aS'66701209'
p256
ag78
aS'76661016'
p257
aS'84524083'
p258
aS'86988337'
p259
aS'24613625'
p260
ag194
ag98
aS'86291592'
p261
aS'75759231'
p262
aS'44391517'
p263
aS'34110913'
p264
ag91
aS'7957843'
p265
ag156
aS'58522654'
p266
aS'88636924'
p267
aS'2317551'
p268
aS'88855695'
p269
aS'30658799'
p270
asg45
S'40'
p271
sg47
(ischedule
Group
p272
(dp273
g8
g246
sg50
S'Compilerbouw2'
p274
sbsg52
(iread_data
Room
p275
(dp276
g45
S'117'
p277
sg50
S'C0.110'
p278
sbsg57
g126
sg59
g107
sg50
g61
sba(ischedule
Activity
p279
(dp280
g8
(lp281
S'70878567'
p282
ag216
ag172
ag137
aS'21029457'
p283
aS'30050930'
p284
aS'56749879'
p285
aS'247918'
p286
ag266
aS'66120270'
p287
ag86
aS'89985072'
p288
aS'14816774'
p289
aS'15051051'
p290
ag41
asg45
S'20'
p291
sg47
(ischedule
Group
p292
(dp293
g8
g281
sg50
S'Bioinformatica2'
p294
sbsg52
(iread_data3
Room
p295
(dp296
g45
g104
sg50
g105
sbsg57
g58
sg59
g107
sg50
S'Bioinformatica'
p297
sba(ischedule
Activity
p298
(dp299
g8
(lp300
g210
ag39
aS'64296965'
p301
aS'87830198'
p302
aS'60661905'
p303
aS'5085194'
p304
aS'23798155'
p305
aS'77831658'
p306
aS'70193386'
p307
ag186
aS'23658570'
p308
aS'78822885'
p309
ag167
aS'82854435'
p310
aS'72456780'
p311
aS'97019450'
p312
aS'34900967'
p313
aS'18266644'
p314
aS'80188025'
p315
aS'48678993'
p316
aS'83443653'
p317
ag101
ag185
aS'75997788'
p318
aS'33672995'
p319
aS'65318664'
p320
aS'97838175'
p321
ag188
aS'62613937'
p322
ag70
aS'48357272'
p323
aS'58480929'
p324
ag189
aS'22871048'
p325
aS'73350019'
p326
aS'78821918'
p327
aS'51542218'
p328
aS'73302736'
p329
aS'14637758'
p330
aS'72586808'
p331
ag153
aS'56544130'
p332
ag192
aS'43027916'
p333
ag85
aS'18477924'
p334
aS'56815156'
p335
aS'13718298'
p336
aS'88737765'
p337
asg45
I1000
sg47
Nsg52
(iread_data3
Room
p338
(dp339
g45
S'41'
p340
sg50
S'A1.04'
p341
sbsg57
g106
sg59
g60
sg50
S'Analysemethoden en -technieken'
p342
sba(ischedule
Activity
p343
(dp344
g8
(lp345
S'37744525'
p346
ag137
ag185
ag75
aS'97136582'
p347
aS'25330192'
p348
aS'50143947'
p349
aS'98780382'
p350
aS'81200278'
p351
asg45
S'10'
p352
sg47
(ischedule
Group
p353
(dp354
g8
g345
sg50
S'Data Mining1'
p355
sbsg52
(iread_data3
Room
p356
(dp357
g45
g124
sg50
g125
sbsg57
g126
sg59
g60
sg50
S'Data Mining'
p358
sba(ischedule
Activity
p359
(dp360
g8
(lp361
g82
aS'11459236'
p362
ag282
ag88
ag69
aS'75585647'
p363
aS'8557857'
p364
aS'13116738'
p365
aS'17496687'
p366
ag93
asg45
S'15'
p367
sg47
(ischedule
Group
p368
(dp369
g8
g361
sg50
S'Informatie- en organsatieontwerp2'
p370
sbsg52
(iread_data3
Room
p371
(dp372
g45
g199
sg50
g200
sbsg57
g126
sg59
g107
sg50
S'Informatie- en organsatieontwerp'
p373
sba(ischedule
Activity
p374
(dp375
g8
(lp376
S'22826928'
p377
aS'27582862'
p378
aS'15249775'
p379
aS'12782624'
p380
aS'85284256'
p381
aS'73893840'
p382
aS'33776961'
p383
aS'73196865'
p384
aS'64947290'
p385
ag208
ag14
aS'63111000'
p386
aS'13996448'
p387
ag25
aS'86000192'
p388
aS'96054456'
p389
ag217
aS'86807027'
p390
asg45
S'20'
p391
sg47
(ischedule
Group
p392
(dp393
g8
g376
sg50
S'Programmeren in Java 24'
p394
sbsg52
(iread_data3
Room
p395
(dp396
g45
g240
sg50
g241
sbsg57
g58
sg59
S'4'
p397
sg50
S'Programmeren in Java 2'
p398
sba(ischedule
Activity
p399
(dp400
g8
(lp401
S'7308727'
p402
ag218
aS'54310617'
p403
aS'15902055'
p404
aS'96104167'
p405
ag191
aS'13534377'
p406
aS'17575088'
p407
aS'24277163'
p408
ag194
aS'33760909'
p409
aS'21964491'
p410
aS'53107172'
p411
aS'57595888'
p412
ag178
aS'45556081'
p413
asg45
S'20'
p414
sg47
(ischedule
Group
p415
(dp416
g8
g401
sg50
S'Collectieve Intelligentie1'
p417
sbsg52
(iread_data3
Room
p418
(dp419
g45
g144
sg50
g145
sbsg57
g126
sg59
g60
sg50
S'Collectieve Intelligentie'
p420
sbaa(lp421
(ischedule
Activity
p422
(dp423
g8
g111
sg45
g138
sg47
g119
sg52
g275
sg57
g58
sg59
g107
sg50
g127
sba(ischedule
Activity
p424
(dp425
g8
(lp426
S'33930505'
p427
ag282
ag351
aS'96453361'
p428
ag216
ag306
ag260
ag172
aS'4568018'
p429
aS'11068043'
p430
ag137
ag15
ag402
ag283
aS'88176729'
p431
aS'3168419'
p432
ag284
aS'20883994'
p433
aS'30195935'
p434
ag285
aS'59544049'
p435
aS'5298748'
p436
ag286
ag335
aS'29526540'
p437
ag266
ag163
aS'6913074'
p438
ag287
aS'28359697'
p439
aS'44868097'
p440
ag86
aS'64600457'
p441
ag377
ag288
ag134
ag389
ag289
ag410
ag160
ag290
aS'22731474'
p442
ag101
ag41
ag13
asg45
I1000
sg47
Nsg52
(iread_data3
Room
p443
(dp444
g45
g199
sg50
g200
sbsg57
g106
sg59
g60
sg50
g297
sba(ischedule
Activity
p445
(dp446
g8
(lp447
g314
ag82
aS'19958553'
p448
ag362
aS'13658563'
p449
ag282
aS'62701040'
p450
ag88
aS'58332004'
p451
ag69
aS'29718115'
p452
ag363
ag92
ag364
aS'23983476'
p453
ag365
aS'36748818'
p454
ag366
aS'92977271'
p455
ag93
aS'23257088'
p456
asg45
I1000
sg47
Nsg52
(iread_data3
Room
p457
(dp458
g45
g104
sg50
g105
sbsg57
g106
sg59
g107
sg50
g373
sba(ischedule
Activity
p459
(dp460
g8
(lp461
g408
aS'99453514'
p462
ag449
ag259
aS'59753700'
p463
aS'90474003'
p464
ag247
ag436
ag302
aS'52715680'
p465
aS'92778619'
p466
ag303
ag383
aS'96554914'
p467
aS'27805666'
p468
aS'68286356'
p469
aS'82390428'
p470
asg45
S'20'
p471
sg47
(ischedule
Group
p472
(dp473
g8
g461
sg50
S'Reflectie op de digitale cultuur3'
p474
sbsg52
(iread_data3
Room
p475
(dp476
g45
g124
sg50
g125
sbsg57
g126
sg59
S'3'
p477
sg50
S'Reflectie op de digitale cultuur'
p478
sba(ischedule
Activity
p479
(dp480
g8
(lp481
g404
ag389
ag323
aS'59220392'
p482
ag269
ag170
aS'6709529'
p483
aS'97135019'
p484
aS'19717077'
p485
ag318
aS'75446434'
p486
aS'75623387'
p487
aS'22168693'
p488
aS'31306819'
p489
aS'58699305'
p490
aS'47477884'
p491
ag315
aS'10609762'
p492
aS'93361408'
p493
aS'26260141'
p494
ag329
ag235
ag250
aS'65408517'
p495
ag257
aS'82412626'
p496
aS'65978354'
p497
aS'87602030'
p498
aS'51741554'
p499
ag172
ag440
ag319
aS'9731271'
p500
aS'86180471'
p501
aS'81155296'
p502
asg45
S'40'
p503
sg47
(ischedule
Group
p504
(dp505
g8
g481
sg50
S'Calculus 23'
p506
sbsg52
(iread_data3
Room
p507
(dp508
g45
g240
sg50
g241
sbsg57
g126
sg59
g477
sg50
S'Calculus 2'
p509
sba(ischedule
Activity
p510
(dp511
g8
(lp512
g266
ag231
aS'22699561'
p513
aS'28357474'
p514
ag162
aS'50184318'
p515
ag21
ag37
aS'68601184'
p516
ag333
aS'1696500'
p517
ag388
aS'73980360'
p518
ag156
aS'48601268'
p519
asg45
S'20'
p520
sg47
(ischedule
Group
p521
(dp522
g8
g512
sg50
S'Collectieve Intelligentie4'
p523
sbsg52
(iread_data3
Room
p524
(dp525
g45
g144
sg50
g145
sbsg57
g58
sg59
g397
sg50
g420
sba(ischedule
Activity
p526
(dp527
g8
(lp528
g191
ag325
ag69
aS'62356458'
p529
aS'88627897'
p530
ag171
ag167
asg45
g118
sg47
(ischedule
Group
p531
(dp532
g8
g528
sg50
S'Autonomous Agents 23'
p533
sbsg52
(iread_data3
Room
p534
(dp535
g45
g340
sg50
g341
sbsg57
g126
sg59
g477
sg50
g127
sbaa(lp536
(ischedule
Activity
p537
(dp538
g8
(lp539
g351
ag306
ag429
ag15
ag431
ag433
ag435
ag335
ag163
ag439
ag441
ag134
ag410
ag442
ag13
asg45
S'20'
p540
sg47
(ischedule
Group
p541
(dp542
g8
g539
sg50
S'Bioinformatica3'
p543
sbsg52
(iread_data3
Room
p544
(dp545
g45
g340
sg50
g341
sbsg57
g126
sg59
g477
sg50
g297
sba(ischedule
Activity
p546
(dp547
g8
(lp548
g402
aS'42171678'
p549
ag450
ag266
ag218
ag67
ag217
ag231
ag403
aS'4783858'
p550
aS'3233378'
p551
ag513
ag404
ag160
ag212
ag514
ag405
ag74
ag484
ag162
ag191
ag184
ag301
ag515
ag406
aS'77240949'
p552
ag16
ag21
ag407
aS'1665980'
p553
aS'1075391'
p554
ag37
ag408
aS'29640619'
p555
ag88
ag516
ag194
aS'82689818'
p556
aS'64393888'
p557
ag333
ag409
ag261
aS'29474737'
p558
ag517
ag410
ag499
aS'13092455'
p559
ag388
ag411
aS'46052388'
p560
aS'17222374'
p561
ag518
ag412
ag83
ag349
ag156
ag178
aS'34773179'
p562
aS'25106480'
p563
ag519
ag413
asg45
I1000
sg47
Nsg52
(iread_data3
Room
p564
(dp565
g45
g240
sg50
g241
sbsg57
g106
sg59
g107
sg50
g420
sba(ischedule
Activity
p566
(dp567
g8
(lp568
g318
ag163
ag455
ag65
ag88
aS'20331158'
p569
ag157
ag549
aS'36903574'
p570
aS'97417002'
p571
ag220
aS'14138904'
p572
aS'4353500'
p573
aS'59075181'
p574
ag40
ag75
ag69
ag317
ag289
ag285
ag325
aS'58736785'
p575
asg45
S'25'
p576
sg47
(ischedule
Group
p577
(dp578
g8
g568
sg50
S'Heuristieken 12'
p579
sbsg52
(iread_data3
Room
p580
(dp581
g45
g104
sg50
g105
sbsg57
g126
sg59
g107
sg50
S'Heuristieken 1'
p582
sba(ischedule
Activity
p583
(dp584
g8
(lp585
g430
aS'55103073'
p586
ag74
aS'23215240'
p587
ag288
ag412
ag32
ag230
aS'41644639'
p588
aS'51472074'
p589
ag11
aS'1695839'
p590
aS'65675896'
p591
asg45
S'15'
p592
sg47
(ischedule
Group
p593
(dp594
g8
g585
sg50
S'Compilerbouw practicum2'
p595
sbsg52
(iread_data3
Room
p596
(dp597
g45
g124
sg50
g125
sbsg57
g58
sg59
g107
sg50
S'Compilerbouw practicum'
p598
sba(ischedule
Activity
p599
(dp600
g8
g148
sg45
I1000
sg47
Nsg52
(iread_data3
Room
p601
(dp602
g45
g55
sg50
g56
sbsg57
g106
sg59
g60
sg50
g201
sba(ischedule
Activity
p603
(dp604
g8
(lp605
S'72683344'
p606
ag390
ag231
aS'28618400'
p607
ag35
aS'78136904'
p608
ag432
ag322
aS'70844780'
p609
ag491
asg45
S'10'
p610
sg47
(ischedule
Group
p611
(dp612
g8
g605
sg50
S'Advanced Heuristics2'
p613
sbsg52
(iread_data3
Room
p614
(dp615
g45
g144
sg50
g145
sbsg57
g58
sg59
g107
sg50
S'Advanced Heuristics'
p616
sba(ischedule
Activity
p617
(dp618
g8
(lp619
g327
aS'76924297'
p620
aS'25077484'
p621
ag257
aS'94467156'
p622
aS'58253841'
p623
aS'82066165'
p624
aS'55480737'
p625
aS'40633534'
p626
aS'84449005'
p627
ag501
aS'46701583'
p628
asg45
S'15'
p629
sg47
(ischedule
Group
p630
(dp631
g8
g619
sg50
S'Project Genetic Algorithms2'
p632
sbsg52
(iread_data3
Room
p633
(dp634
g45
g199
sg50
g200
sbsg57
g58
sg59
g107
sg50
S'Project Genetic Algorithms'
p635
sbaa(lp636
(ischedule
Activity
p637
(dp638
g8
(lp639
S'14671406'
p640
ag440
ag43
aS'44671041'
p641
ag519
aS'41153310'
p642
aS'77376714'
p643
ag430
ag329
aS'58074656'
p644
ag429
ag431
ag99
ag189
ag551
ag288
aS'9287708'
p645
aS'99283252'
p646
ag65
ag494
ag169
ag66
aS'70015932'
p647
ag216
aS'3727435'
p648
aS'51593625'
p649
ag37
ag378
aS'40343779'
p650
ag336
ag529
aS'31247305'
p651
ag247
ag13
ag323
ag346
ag223
aS'82872148'
p652
aS'41527759'
p653
aS'4546613'
p654
ag550
ag325
ag248
aS'37830626'
p655
ag229
aS'5976174'
p656
aS'31103066'
p657
aS'14072826'
p658
aS'31633723'
p659
aS'1048485'
p660
ag155
ag349
ag320
ag555
ag435
ag173
ag116
ag514
ag622
ag467
ag131
ag91
ag185
aS'21095566'
p661
aS'62105897'
p662
aS'84110134'
p663
ag134
ag563
ag136
ag213
ag465
aS'78443067'
p664
ag195
aS'45915482'
p665
ag495
asg45
I1000
sg47
Nsg52
(iread_data3
Room
p666
(dp667
g45
g340
sg50
g341
sbsg57
g106
sg59
g60
sg50
S'Software engineering'
p668
sba(ischedule
Activity
p669
(dp670
g8
(lp671
g314
ag448
ag449
ag450
ag451
ag452
ag92
ag453
ag454
ag455
ag456
asg45
S'15'
p672
sg47
(ischedule
Group
p673
(dp674
g8
g671
sg50
S'Informatie- en organsatieontwerp1'
p675
sbsg52
(iread_data3
Room
p676
(dp677
g45
g144
sg50
g145
sbsg57
g58
sg59
g60
sg50
g373
sba(ischedule
Activity
p678
(dp679
g8
g9
sg45
g271
sg47
g48
sg52
(iread_data3
Room
p680
(dp681
g45
g199
sg50
g200
sbsg57
g126
sg59
g60
sg50
g61
sba(ischedule
Activity
p682
(dp683
g8
(lp684
g92
ag290
aS'96082155'
p685
ag318
ag270
aS'59111489'
p686
ag437
ag643
ag408
aS'49219163'
p687
ag561
ag454
ag91
aS'58592894'
p688
ag86
ag181
ag213
ag451
ag31
ag383
aS'47462856'
p689
aS'78544592'
p690
ag32
ag490
aS'83415514'
p691
aS'3883025'
p692
aS'41489515'
p693
ag664
ag386
aS'27241113'
p694
ag515
ag95
ag88
ag327
aS'66621166'
p695
aS'48198668'
p696
ag191
aS'27916487'
p697
ag646
aS'13218321'
p698
ag549
aS'4709948'
p699
aS'51650744'
p700
aS'70072978'
p701
ag27
aS'1181560'
p702
aS'49631542'
p703
ag627
ag22
ag441
aS'46570285'
p704
ag101
aS'18144425'
p705
ag229
asg45
I1000
sg47
Nsg52
(iread_data3
Room
p706
(dp707
g45
g55
sg50
g56
sbsg57
g106
sg59
g60
sg50
S'Moderne Databases'
p708
sba(ischedule
Activity
p709
(dp710
g8
g361
sg45
g672
sg47
g368
sg52
(iread_data3
Room
p711
(dp712
g45
g240
sg50
g241
sbsg57
g58
sg59
g107
sg50
g373
sba(ischedule
Activity
p713
(dp714
g8
(lp715
S'91250534'
p716
ag304
ag624
aS'72665524'
p717
aS'25994016'
p718
ag97
aS'53585410'
p719
ag572
ag165
aS'63634350'
p720
aS'535689'
p721
ag187
aS'5892092'
p722
ag553
asg45
g592
sg47
(ischedule
Group
p723
(dp724
g8
g715
sg50
S'Compilerbouw practicum1'
p725
sbsg52
(iread_data3
Room
p726
(dp727
g45
g124
sg50
g125
sbsg57
g58
sg59
g60
sg50
g598
sba(ischedule
Activity
p728
(dp729
g8
g426
sg45
I1000
sg47
Nsg52
(iread_data3
Room
p730
(dp731
g45
g104
sg50
g105
sbsg57
g106
sg59
g107
sg50
g297
sbaaa(lp732
(lp733
(ischedule
Activity
p734
(dp735
g8
g246
sg45
g46
sg47
g272
sg52
(iread_data
Room
p736
(dp737
g45
S'48'
p738
sg50
S'B0.201'
p739
sbsg57
g58
sg59
g107
sg50
g61
sba(ischedule
Activity
p740
(dp741
g8
g204
sg45
I1000
sg47
Nsg52
g275
sg57
g106
sg59
g107
sg50
g242
sba(ischedule
Activity
p742
(dp743
g8
(lp744
g346
ag112
ag65
ag137
aS'19337738'
p745
ag462
ag185
ag159
aS'93023961'
p746
ag75
aS'45414528'
p747
aS'68360259'
p748
ag347
ag410
ag365
ag348
aS'87314964'
p749
ag387
ag349
ag463
aS'81022997'
p750
ag350
aS'66122625'
p751
aS'17823206'
p752
ag351
aS'87900893'
p753
ag282
asg45
I1000
sg47
Nsg52
(iread_data3
Room
p754
(dp755
g45
g240
sg50
g241
sbsg57
g106
sg59
g107
sg50
g358
sba(ischedule
Activity
p756
(dp757
g8
(lp758
g717
ag69
aS'57467488'
p759
aS'62363761'
p760
ag434
ag484
ag25
ag699
aS'70939718'
p761
ag692
aS'25557516'
p762
aS'26207525'
p763
ag302
ag609
ag402
ag607
asg45
S'20'
p764
sg47
(ischedule
Group
p765
(dp766
g8
g758
sg50
S'Netwerken en systeembeveiliging1'
p767
sbsg52
(iread_data3
Room
p768
(dp769
g45
g124
sg50
g125
sbsg57
g58
sg59
g60
sg50
S'Netwerken en systeembeveiliging'
p770
sba(ischedule
Activity
p771
(dp772
g8
(lp773
g549
ag67
ag550
ag160
ag74
ag184
ag552
ag553
ag555
ag556
ag261
ag499
ag560
ag83
ag562
asg45
g520
sg47
(ischedule
Group
p774
(dp775
g8
g773
sg50
S'Collectieve Intelligentie2'
p776
sbsg52
(iread_data3
Room
p777
(dp778
g45
g144
sg50
g145
sbsg57
g58
sg59
g107
sg50
g420
sba(ischedule
Activity
p779
(dp780
g8
(lp781
S'99272880'
p782
ag466
ag516
aS'58040377'
p783
aS'66433883'
p784
aS'34262212'
p785
ag628
ag410
ag192
ag34
ag701
ag268
ag67
aS'88263855'
p786
ag641
ag747
ag41
aS'54395877'
p787
asg45
g391
sg47
(ischedule
Group
p788
(dp789
g8
g781
sg50
S'Programmeren in Java 23'
p790
sbsg52
(iread_data3
Room
p791
(dp792
g45
g340
sg50
g341
sbsg57
g58
sg59
g477
sg50
g398
sbaa(lp793
(ischedule
Activity
p794
(dp795
g8
(lp796
g83
aS'44828429'
p797
aS'64768422'
p798
aS'19214659'
p799
aS'3707829'
p800
aS'21677389'
p801
aS'2550487'
p802
aS'38179241'
p803
ag12
ag620
ag351
aS'69634191'
p804
ag502
aS'37701751'
p805
ag591
ag226
aS'20374340'
p806
ag161
ag158
ag26
aS'34765676'
p807
ag654
ag257
ag236
aS'28055464'
p808
asg45
I1000
sg47
Nsg52
(iread_data
Room
p809
(dp810
g45
S'56'
p811
sg50
S'A1.10'
p812
sbsg57
g106
sg59
g60
sg50
S'Interactie-ontwerp'
p813
sba(ischedule
Activity
p814
(dp815
g8
(lp816
g259
ag557
ag802
aS'28943658'
p817
ag570
ag94
aS'85236626'
p818
aS'88519892'
p819
aS'51791169'
p820
ag194
aS'63096281'
p821
aS'77960666'
p822
aS'58469172'
p823
aS'64053722'
p824
ag165
ag491
ag346
aS'41585485'
p825
ag720
asg45
g391
sg47
(ischedule
Group
p826
(dp827
g8
g816
sg50
S'Programmeren in Java 21'
p828
sbsg52
(iread_data
Room
p829
(dp830
g45
S'60'
p831
sg50
S'C1.112'
p832
sbsg57
g58
sg59
g60
sg50
g398
sba(ischedule
Activity
p833
(dp834
g8
(lp835
g112
ag745
ag159
ag747
ag410
ag749
ag463
ag751
ag753
asg45
S'10'
p836
sg47
(ischedule
Group
p837
(dp838
g8
g835
sg50
S'Data Mining2'
p839
sbsg52
g736
sg57
g58
sg59
g107
sg50
g358
sba(ischedule
Activity
p840
(dp841
g8
(lp842
g92
ag318
ag437
ag687
ag91
ag181
ag31
ag690
ag691
ag664
ag515
ag327
ag191
ag698
ag700
ag702
ag22
ag101
asg45
S'20'
p843
sg47
(ischedule
Group
p844
(dp845
g8
g842
sg50
S'Moderne Databases1'
p846
sbsg52
(iread_data3
Room
p847
(dp848
g45
g124
sg50
g125
sbsg57
g58
sg59
g60
sg50
g708
sba(ischedule
Activity
p849
(dp850
g8
(lp851
g131
ag112
ag191
ag132
ag113
ag325
ag133
ag114
ag69
ag33
ag115
ag529
ag134
ag116
ag530
ag135
ag117
ag171
ag136
ag75
ag167
ag137
asg45
I1000
sg47
Nsg52
(iread_data3
Room
p852
(dp853
g45
g144
sg50
g145
sbsg57
g106
sg59
g60
sg50
g127
sba(ischedule
Activity
p854
(dp855
g8
g773
sg45
g414
sg47
g774
sg52
(iread_data3
Room
p856
(dp857
g45
g340
sg50
g341
sbsg57
g126
sg59
g107
sg50
g420
sba(ischedule
Activity
p858
(dp859
g8
(lp860
g290
ag270
ag643
ag561
ag688
ag213
ag383
ag32
ag692
ag386
ag95
ag695
ag697
ag549
ag701
ag703
ag441
ag705
asg45
g843
sg47
(ischedule
Group
p861
(dp862
g8
g860
sg50
S'Moderne Databases2'
p863
sbsg52
(iread_data3
Room
p864
(dp865
g45
g55
sg50
g56
sbsg57
g58
sg59
g107
sg50
g708
sbaa(lp866
(ischedule
Activity
p867
(dp868
g8
g548
sg45
I1000
sg47
Nsg52
(iread_data3
Room
p869
(dp870
g45
g55
sg50
g56
sbsg57
g106
sg59
g477
sg50
g420
sba(ischedule
Activity
p871
(dp872
g8
g426
sg45
I1000
sg47
Nsg52
(iread_data3
Room
p873
(dp874
g45
g199
sg50
g200
sbsg57
g106
sg59
g477
sg50
g297
sba(ischedule
Activity
p875
(dp876
g8
(lp877
g65
ag462
ag746
ag748
ag365
ag387
ag750
ag752
ag282
asg45
g836
sg47
(ischedule
Group
p878
(dp879
g8
g877
sg50
S'Data Mining3'
p880
sbsg52
(iread_data3
Room
p881
(dp882
g45
g340
sg50
g341
sbsg57
g58
sg59
g477
sg50
g358
sba(ischedule
Activity
p883
(dp884
g8
(lp885
g570
aS'51186803'
p886
ag266
ag389
ag305
aS'14398123'
p887
ag312
ag165
aS'65003379'
p888
ag703
aS'10872825'
p889
ag12
ag233
ag258
ag704
aS'44940353'
p890
aS'39919665'
p891
ag653
ag169
aS'38329455'
p892
ag157
ag451
ag250
ag659
ag328
aS'72547110'
p893
ag163
aS'82688900'
p894
ag663
aS'61518436'
p895
ag500
aS'8522855'
p896
ag608
ag752
aS'3685034'
p897
ag823
ag720
ag640
ag72
aS'91139627'
p898
ag189
ag192
ag651
ag93
ag574
aS'63955238'
p899
ag301
ag782
ag314
aS'39659121'
p900
ag825
ag403
ag215
ag285
ag442
ag785
ag622
ag433
ag186
aS'32705005'
p901
aS'7492204'
p902
ag552
aS'79858178'
p903
aS'78735049'
p904
ag116
ag10
aS'28957789'
p905
ag152
ag689
aS'63408522'
p906
ag620
aS'47605891'
p907
ag80
ag569
ag435
ag99
aS'24875739'
p908
aS'54569540'
p909
aS'23391676'
p910
aS'37498675'
p911
aS'56988998'
p912
aS'20239127'
p913
aS'79366078'
p914
ag159
asg45
I1000
sg47
Nsg52
(iread_data3
Room
p915
(dp916
g45
g240
sg50
g241
sbsg57
g106
sg59
g60
sg50
S'Kansrekenen 2'
p917
sba(ischedule
Activity
p918
(dp919
g8
(lp920
g65
ag67
ag69
ag71
ag73
ag75
ag77
ag79
ag81
ag83
ag85
ag87
ag89
ag91
ag29
ag94
ag96
ag98
ag100
asg45
S'20'
p921
sg47
(ischedule
Group
p922
(dp923
g8
g920
sg50
S'Technology for games1'
p924
sbsg52
(iread_data3
Room
p925
(dp926
g45
g104
sg50
g105
sbsg57
g126
sg59
g60
sg50
g108
sbaa(lp927
(ischedule
Activity
p928
(dp929
g8
(lp930
g427
ag428
ag260
ag430
ag402
ag432
ag434
ag436
ag437
ag438
ag440
ag377
ag389
ag160
ag101
asg45
g540
sg47
(ischedule
Group
p931
(dp932
g8
g930
sg50
S'Bioinformatica1'
p933
sbsg52
(iread_data
Room
p934
(dp935
g45
S'41'
p936
sg50
S'A1.04'
p937
sbsg57
g126
sg59
g60
sg50
g297
sba(ischedule
Activity
p938
(dp939
g8
(lp940
g387
ag402
ag663
aS'14941752'
p941
ag265
ag529
aS'73823548'
p942
aS'63573738'
p943
ag156
aS'32044893'
p944
aS'21070547'
p945
ag20
ag99
ag22
aS'6939933'
p946
asg45
S'15'
p947
sg47
(ischedule
Group
p948
(dp949
g8
g940
sg50
S'Project Numerical Recipes1'
p950
sbsg52
g275
sg57
g58
sg59
g60
sg50
S'Project Numerical Recipes'
p951
sba(ischedule
Activity
p952
(dp953
g8
g130
sg45
g118
sg47
g139
sg52
(iread_data3
Room
p954
(dp955
g45
g124
sg50
g125
sbsg57
g126
sg59
g60
sg50
g127
sba(ischedule
Activity
p956
(dp957
g8
(lp958
g451
ag228
ag206
ag587
ag660
ag719
ag232
ag438
ag699
aS'39905995'
p959
ag285
ag158
aS'7386961'
p960
ag159
aS'79879876'
p961
ag622
ag453
ag642
asg45
g391
sg47
(ischedule
Group
p962
(dp963
g8
g958
sg50
S'Programmeren in Java 26'
p964
sbsg52
(iread_data3
Room
p965
(dp966
g45
g104
sg50
g105
sbsg57
g58
sg59
S'6'
p967
sg50
g398
sba(ischedule
Activity
p968
(dp969
g8
(lp970
g656
aS'52304977'
p971
aS'82968410'
p972
ag750
ag409
ag807
ag818
aS'83869542'
p973
ag213
ag217
ag720
ag316
ag258
ag182
aS'27925117'
p974
aS'72652638'
p975
aS'1886996'
p976
aS'31897288'
p977
ag783
ag442
aS'35315956'
p978
ag379
ag167
ag89
ag333
ag498
aS'5739011'
p979
ag575
ag210
ag351
ag112
aS'99975346'
p980
asg45
I1000
sg47
Nsg52
(iread_data3
Room
p981
(dp982
g45
g199
sg50
g200
sbsg57
g106
sg59
g60
sg50
S'Heuristieken 2'
p983
sba(ischedule
Activity
p984
(dp985
g8
(lp986
g450
ag217
ag551
ag212
ag484
ag301
ag16
ag554
ag88
ag557
ag558
ag559
ag561
ag349
ag563
asg45
g414
sg47
(ischedule
Group
p987
(dp988
g8
g986
sg50
S'Collectieve Intelligentie3'
p989
sbsg52
(iread_data3
Room
p990
(dp991
g45
g144
sg50
g145
sbsg57
g126
sg59
g477
sg50
g420
sbaa(lp992
(ischedule
Activity
p993
(dp994
g8
(lp995
g656
ag972
ag409
ag818
ag213
ag720
ag258
ag974
ag976
ag783
ag978
ag167
ag333
ag979
ag210
ag112
asg45
S'20'
p996
sg47
(ischedule
Group
p997
(dp998
g8
g995
sg50
S'Heuristieken 21'
p999
sbsg52
g809
sg57
g126
sg59
g60
sg50
g983
sba(ischedule
Activity
p1000
(dp1001
g8
(lp1002
g961
ag318
ag312
ag163
ag429
ag455
ag95
ag65
ag323
ag88
ag187
ag569
ag759
ag157
ag449
ag549
ag977
ag570
aS'53775014'
p1003
ag571
ag550
ag220
ag517
ag572
ag411
ag573
aS'45660925'
p1004
ag574
ag751
ag40
aS'87210640'
p1005
ag75
ag155
ag69
ag941
ag317
ag390
ag289
aS'20830477'
p1006
ag285
ag113
ag325
aS'76393508'
p1007
ag575
asg45
I1000
sg47
Nsg52
g934
sg57
g106
sg59
g60
sg50
g582
sba(ischedule
Activity
p1008
(dp1009
g8
(lp1010
g643
ag98
ag640
ag175
ag784
ag553
ag385
ag628
ag688
ag428
aS'64554442'
p1011
ag465
aS'19540225'
p1012
aS'67817269'
p1013
ag650
ag135
aS'88596522'
p1014
ag800
ag807
ag404
ag653
ag570
ag26
aS'51509565'
p1015
ag661
ag494
ag759
aS'91527663'
p1016
ag656
ag556
ag719
ag349
ag214
ag453
ag112
ag259
aS'23652927'
p1017
ag797
ag896
ag825
ag608
ag18
ag410
asg45
I1000
sg47
Nsg52
(iread_data3
Room
p1018
(dp1019
g45
g199
sg50
g200
sbsg57
g106
sg59
g60
sg50
S'Algoritmen en complexiteit'
p1020
sba(ischedule
Activity
p1021
(dp1022
g8
g986
sg45
g520
sg47
g987
sg52
(iread_data3
Room
p1023
(dp1024
g45
g104
sg50
g105
sbsg57
g58
sg59
g477
sg50
g420
sba(ischedule
Activity
p1025
(dp1026
g8
(lp1027
g685
ag686
ag408
ag454
ag86
ag451
ag689
ag490
ag693
ag694
ag88
ag696
ag646
ag699
ag27
ag627
ag704
ag229
asg45
S'20'
p1028
sg47
(ischedule
Group
p1029
(dp1030
g8
g1027
sg50
S'Moderne Databases3'
p1031
sbsg52
(iread_data3
Room
p1032
(dp1033
g45
g124
sg50
g125
sbsg57
g126
sg59
g477
sg50
g708
sbaaa(lp1034
(lp1035
(ischedule
Activity
p1036
(dp1037
g8
g860
sg45
g1028
sg47
g861
sg52
g829
sg57
g126
sg59
g107
sg50
g708
sba(ischedule
Activity
p1038
(dp1039
g8
(lp1040
g98
ag175
ag553
ag628
ag428
ag465
ag1013
ag135
ag800
ag404
ag570
ag1015
ag494
ag1016
ag556
ag349
ag453
ag259
ag797
ag825
ag18
asg45
S'25'
p1041
sg47
(ischedule
Group
p1042
(dp1043
g8
g1040
sg50
S'Algoritmen en complexiteit2'
p1044
sbsg52
g934
sg57
g58
sg59
g107
sg50
g1020
sba(ischedule
Activity
p1045
(dp1046
g8
(lp1047
g640
ag43
ag519
ag643
ag329
ag429
ag99
ag551
ag645
ag65
ag169
ag647
ag648
ag37
ag650
ag529
ag247
ag323
ag223
ag653
ag550
ag248
ag229
ag657
ag659
ag155
ag320
ag435
ag116
ag622
ag131
ag185
ag662
ag134
ag136
ag465
ag195
ag495
asg45
S'40'
p1048
sg47
(ischedule
Group
p1049
(dp1050
g8
g1047
sg50
S'Software engineering1'
p1051
sbsg52
(iread_data3
Room
p1052
(dp1053
g45
g104
sg50
g105
sbsg57
g126
sg59
g60
sg50
g668
sba(ischedule
Activity
p1054
(dp1055
g8
(lp1056
g556
aS'60352393'
p1057
ag381
ag261
ag750
ag314
ag500
ag311
ag896
ag499
ag721
ag943
ag650
ag351
ag652
ag222
asg45
g764
sg47
(ischedule
Group
p1058
(dp1059
g8
g1056
sg50
S'Netwerken en systeembeveiliging2'
p1060
sbsg52
(iread_data3
Room
p1061
(dp1062
g45
g55
sg50
g56
sbsg57
g58
sg59
g107
sg50
g770
sba(ischedule
Activity
p1063
(dp1064
g8
g842
sg45
g1028
sg47
g844
sg52
(iread_data3
Room
p1065
(dp1066
g45
g240
sg50
g241
sbsg57
g126
sg59
g60
sg50
g708
sba(ischedule
Activity
p1067
(dp1068
g8
g1027
sg45
g843
sg47
g1029
sg52
(iread_data3
Room
p1069
(dp1070
g45
g124
sg50
g125
sbsg57
g58
sg59
g477
sg50
g708
sba(ischedule
Activity
p1071
(dp1072
g8
g930
sg45
g291
sg47
g931
sg52
(iread_data3
Room
p1073
(dp1074
g45
g144
sg50
g145
sbsg57
g58
sg59
g60
sg50
g297
sbaa(lp1075
(ischedule
Activity
p1076
(dp1077
g8
(lp1078
g628
ag305
ag10
ag28
ag386
ag252
ag622
aS'38296757'
p1079
aS'33252501'
p1080
ag912
ag656
ag346
ag818
ag290
aS'90067329'
p1081
ag44
ag552
ag895
aS'26857113'
p1082
aS'67625383'
p1083
ag897
ag117
asg45
I1000
sg47
Nsg52
g275
sg57
g106
sg59
g60
sg50
S'Machine Learning'
p1084
sba(ischedule
Activity
p1085
(dp1086
g8
g851
sg45
I1000
sg47
Nsg52
(iread_data3
Room
p1087
(dp1088
g45
g340
sg50
g341
sbsg57
g106
sg59
g107
sg50
g127
sba(ischedule
Activity
p1089
(dp1090
g8
(lp1091
g191
ag703
aS'15187217'
p1092
ag822
ag973
ag389
aS'59397895'
p1093
ag559
aS'54540997'
p1094
aS'13132925'
p1095
ag194
aS'62736669'
p1096
ag308
ag68
ag437
ag304
ag74
ag36
ag327
ag30
ag759
ag556
aS'5526560'
p1097
ag464
ag491
ag311
ag174
ag176
aS'27123462'
p1098
ag285
aS'40141996'
p1099
ag763
aS'58083680'
p1100
ag561
ag701
ag432
asg45
S'40'
p1101
sg47
(ischedule
Group
p1102
(dp1103
g8
g1091
sg50
S'Databases 21'
p1104
sbsg52
(iread_data3
Room
p1105
(dp1106
g45
g199
sg50
g200
sbsg57
g126
sg59
g60
sg50
S'Databases 2'
p1107
sba(ischedule
Activity
p1108
(dp1109
g8
(lp1110
g68
ag207
ag209
ag211
ag213
ag214
ag216
ag217
ag219
ag221
ag222
ag224
ag77
ag227
ag229
ag231
ag233
ag235
ag15
asg45
S'20'
p1111
sg47
(ischedule
Group
p1112
(dp1113
g8
g1110
sg50
S'Webprogrammeren en databases2'
p1114
sbsg52
(iread_data3
Room
p1115
(dp1116
g45
g104
sg50
g105
sbsg57
g58
sg59
g107
sg50
g242
sba(ischedule
Activity
p1117
(dp1118
g8
(lp1119
g626
ag606
ag717
ag390
ag976
ag231
ag236
ag607
ag1057
ag35
ag83
ag608
ag235
ag432
ag433
ag322
ag318
ag609
aS'39429093'
p1120
ag491
asg45
I1000
sg47
Nsg52
(iread_data3
Room
p1121
(dp1122
g45
g124
sg50
g125
sbsg57
g106
sg59
g60
sg50
g616
sba(ischedule
Activity
p1123
(dp1124
g8
(lp1125
g971
ag750
ag807
ag973
ag217
ag316
ag182
ag975
ag977
ag442
ag379
ag89
ag498
ag575
ag351
ag980
asg45
g996
sg47
(ischedule
Group
p1126
(dp1127
g8
g1125
sg50
S'Heuristieken 22'
p1128
sbsg52
(iread_data3
Room
p1129
(dp1130
g45
g240
sg50
g241
sbsg57
g126
sg59
g107
sg50
g983
sbaa(lp1131
(ischedule
Activity
p1132
(dp1133
g8
(lp1134
g332
ag550
ag404
ag233
aS'3678531'
p1135
ag389
ag101
ag905
ag323
ag904
ag761
ag482
ag289
ag942
ag269
ag823
ag974
ag170
aS'53139134'
p1136
ag720
ag483
ag760
ag665
ag484
ag212
ag662
ag485
ag41
ag441
ag318
ag163
ag719
ag486
aS'79888156'
p1137
ag623
ag487
ag390
ag717
ag488
ag363
ag946
ag489
ag1099
ag1079
ag490
aS'72526473'
p1138
aS'55530367'
p1139
ag491
ag753
aS'14179347'
p1140
ag315
ag31
aS'47932106'
p1141
ag492
ag688
ag691
ag493
ag704
ag283
ag494
ag690
ag308
ag329
ag438
ag180
ag235
aS'37279234'
p1142
ag135
ag250
ag783
aS'56348773'
p1143
ag495
ag36
aS'61520025'
p1144
ag257
aS'34173695'
p1145
ag10
ag496
ag654
ag908
ag497
ag803
aS'11593163'
p1146
ag498
aS'77306636'
p1147
aS'12091019'
p1148
ag499
ag167
ag628
ag172
ag901
ag76
ag440
ag23
ag230
ag319
ag409
ag188
ag500
ag152
ag174
ag501
ag388
aS'23628642'
p1149
ag502
ag664
asg45
I1000
sg47
Nsg52
(iread_data3
Room
p1150
(dp1151
g45
g55
sg50
g56
sbsg57
g106
sg59
g60
sg50
g509
sba(ischedule
Activity
p1152
(dp1153
g8
(lp1154
g643
ag640
ag784
ag385
ag688
ag1011
ag1012
ag650
ag1014
ag807
ag653
ag26
ag661
ag759
ag656
ag719
ag214
ag112
ag1017
ag896
ag608
ag410
asg45
g1041
sg47
(ischedule
Group
p1155
(dp1156
g8
g1154
sg50
S'Algoritmen en complexiteit1'
p1157
sbsg52
(iread_data3
Room
p1158
(dp1159
g45
g144
sg50
g145
sbsg57
g58
sg59
g60
sg50
g1020
sba(ischedule
Activity
p1160
(dp1161
g8
g548
sg45
I1000
sg47
Nsg52
(iread_data3
Room
p1162
(dp1163
g45
g199
sg50
g200
sbsg57
g106
sg59
g60
sg50
g420
sba(ischedule
Activity
p1164
(dp1165
g8
g744
sg45
I1000
sg47
Nsg52
(iread_data3
Room
p1166
(dp1167
g45
g104
sg50
g105
sbsg57
g106
sg59
g60
sg50
g358
sbaa(lp1168
(ischedule
Activity
p1169
(dp1170
g8
(lp1171
g66
ag68
ag70
ag72
ag74
ag76
ag78
ag80
ag82
ag84
ag86
ag88
ag90
ag92
ag93
ag95
ag97
ag99
ag101
asg45
g921
sg47
(ischedule
Group
p1172
(dp1173
g8
g1171
sg50
S'Technology for games2'
p1174
sbsg52
g809
sg57
g126
sg59
g107
sg50
g108
sba(ischedule
Activity
p1175
(dp1176
g8
(lp1177
g261
ag169
ag182
ag450
ag441
ag649
ag303
ag1006
aS'88597745'
p1178
ag404
ag23
ag1135
ag263
ag555
ag1082
ag662
ag308
ag10
aS'90296821'
p1179
asg45
g391
sg47
(ischedule
Group
p1180
(dp1181
g8
g1177
sg50
S'Programmeren in Java 22'
p1182
sbsg52
(iread_data
Room
p1183
(dp1184
g45
S'20'
p1185
sg50
S'A1.08'
p1186
sbsg57
g58
sg59
g107
sg50
g398
sba(ischedule
Activity
p1187
(dp1188
g8
(lp1189
g205
ag206
ag208
ag210
ag212
ag175
ag215
ag177
ag218
ag220
ag18
ag223
ag225
ag226
ag228
ag230
ag232
ag234
ag236
ag237
asg45
g1111
sg47
(ischedule
Group
p1190
(dp1191
g8
g1189
sg50
S'Webprogrammeren en databases1'
p1192
sbsg52
g736
sg57
g58
sg59
g60
sg50
g242
sba(ischedule
Activity
p1193
(dp1194
g8
g1078
sg45
I1000
sg47
Nsg52
g829
sg57
g106
sg59
g107
sg50
g1084
sba(ischedule
Activity
p1195
(dp1196
g8
(lp1197
g70
ag563
ag21
ag718
ag256
ag646
ag896
ag316
ag498
ag131
ag562
ag302
asg45
g629
sg47
(ischedule
Group
p1198
(dp1199
g8
g1197
sg50
S'Project Genetic Algorithms3'
p1200
sbsg52
g275
sg57
g58
sg59
g477
sg50
g635
sba(ischedule
Activity
p1201
(dp1202
g8
g345
sg45
g836
sg47
g353
sg52
(iread_data3
Room
p1203
(dp1204
g45
g340
sg50
g341
sbsg57
g58
sg59
g60
sg50
g358
sba(ischedule
Activity
p1205
(dp1206
g8
(lp1207
g219
aS'75680261'
p1208
ag588
ag337
ag887
ag260
ag1140
ag1097
aS'51673172'
p1209
aS'74361881'
p1210
ag247
ag974
asg45
g629
sg47
(ischedule
Group
p1211
(dp1212
g8
g1207
sg50
S'Project Genetic Algorithms1'
p1213
sbsg52
(iread_data3
Room
p1214
(dp1215
g45
g144
sg50
g145
sbsg57
g58
sg59
g60
sg50
g635
sbaa(lp1216
(ischedule
Activity
p1217
(dp1218
g8
(lp1219
g895
ag70
ag822
aS'49922855'
p1220
ag980
ag158
ag913
ag438
ag222
ag1079
ag325
aS'42406214'
p1221
ag307
ag627
ag85
aS'36213792'
p1222
ag944
asg45
g471
sg47
(ischedule
Group
p1223
(dp1224
g8
g1219
sg50
S'Reflectie op de digitale cultuur1'
p1225
sbsg52
(iread_data3
Room
p1226
(dp1227
g45
g124
sg50
g125
sbsg57
g126
sg59
g60
sg50
g478
sba(ischedule
Activity
p1228
(dp1229
g8
(lp1230
g10
ag247
ag11
ag84
ag12
ag248
ag13
ag249
ag14
ag250
ag15
ag251
ag16
ag252
ag17
ag92
ag18
ag116
ag19
ag253
ag20
ag117
ag21
ag254
ag22
ag186
ag23
ag255
ag24
ag256
ag25
ag78
ag26
ag257
ag27
ag258
ag28
ag259
ag29
ag260
ag30
ag194
ag31
ag98
ag32
ag261
ag33
ag262
ag34
ag263
ag35
ag264
ag36
ag91
ag37
ag265
ag38
ag156
ag39
ag266
ag40
ag267
ag41
ag268
ag42
ag269
ag43
ag270
ag44
asg45
I1000
sg47
Nsg52
(iread_data3
Room
p1231
(dp1232
g45
g55
sg50
g56
sbsg57
g106
sg59
g60
sg50
g61
sba(ischedule
Activity
p1233
(dp1234
g8
(lp1235
g86
ag608
aS'51415617'
p1236
ag336
ag897
ag1057
aS'51052738'
p1237
aS'20095994'
p1238
ag258
ag210
ag699
aS'27370083'
p1239
ag609
ag909
ag75
ag377
ag559
asg45
g471
sg47
(ischedule
Group
p1240
(dp1241
g8
g1235
sg50
S'Reflectie op de digitale cultuur2'
p1242
sbsg52
(iread_data3
Room
p1243
(dp1244
g45
g104
sg50
g105
sbsg57
g126
sg59
g107
sg50
g478
sba(ischedule
Activity
p1245
(dp1246
g8
(lp1247
g440
ag641
ag642
ag430
ag644
ag431
ag189
ag288
ag646
ag494
ag66
ag216
ag649
ag378
ag336
ag651
ag13
ag346
ag652
ag654
ag325
ag655
ag656
ag658
ag660
ag349
ag555
ag173
ag514
ag467
ag91
ag661
ag663
ag563
ag213
ag664
ag665
asg45
S'40'
p1248
sg47
(ischedule
Group
p1249
(dp1250
g8
g1247
sg50
S'Software engineering2'
p1251
sbsg52
(iread_data3
Room
p1252
(dp1253
g45
g340
sg50
g341
sbsg57
g58
sg59
g107
sg50
g668
sba(ischedule
Activity
p1254
(dp1255
g8
(lp1256
g626
ag717
ag976
ag236
ag1057
ag83
ag235
ag433
ag318
ag1120
asg45
g610
sg47
(ischedule
Group
p1257
(dp1258
g8
g1256
sg50
S'Advanced Heuristics1'
p1259
sbsg52
(iread_data3
Room
p1260
(dp1261
g45
g144
sg50
g145
sbsg57
g58
sg59
g60
sg50
g616
sba(ischedule
Activity
p1262
(dp1263
g8
(lp1264
g974
ag556
ag68
ag231
ag607
ag168
ag452
aS'13798030'
p1265
ag305
ag569
ag30
ag76
ag28
ag223
ag229
ag413
ag572
ag647
aS'59289233'
p1266
ag606
ag31
asg45
I1000
sg47
Nsg52
(iread_data3
Room
p1267
(dp1268
g45
g199
sg50
g200
sbsg57
g106
sg59
g107
sg50
S'Architectuur en computerorganisatie'
p1269
sba(ischedule
Activity
p1270
(dp1271
g8
g877
sg45
g352
sg47
g878
sg52
(iread_data3
Room
p1272
(dp1273
g45
g240
sg50
g241
sbsg57
g126
sg59
g477
sg50
g358
sbaaa(lp1274
(lp1275
(ischedule
Activity
p1276
(dp1277
g8
g1154
sg45
S'25'
p1278
sg47
g1155
sg52
g275
sg57
g126
sg59
g60
sg50
g1020
sba(ischedule
Activity
p1279
(dp1280
g8
g885
sg45
I1000
sg47
Nsg52
(iread_data3
Room
p1281
(dp1282
g45
g104
sg50
g105
sbsg57
g106
sg59
g107
sg50
g917
sba(ischedule
Activity
p1283
(dp1284
g8
g447
sg45
I1000
sg47
Nsg52
(iread_data3
Room
p1285
(dp1286
g45
g124
sg50
g125
sbsg57
g106
sg59
g60
sg50
g373
sba(ischedule
Activity
p1287
(dp1288
g8
(lp1289
g253
ag390
ag73
ag18
ag37
ag559
ag799
aS'63939720'
p1290
ag152
ag750
aS'32183908'
p1291
aS'34691309'
p1292
aS'37419523'
p1293
ag430
ag802
asg45
g947
sg47
(ischedule
Group
p1294
(dp1295
g8
g1289
sg50
S'Project Numerical Recipes2'
p1296
sbsg52
(iread_data3
Room
p1297
(dp1298
g45
g340
sg50
g341
sbsg57
g58
sg59
g107
sg50
g951
sba(ischedule
Activity
p1299
(dp1300
g8
(lp1301
g78
ag1221
aS'90103047'
p1302
ag36
aS'81116418'
p1303
ag442
ag261
aS'40911986'
p1304
ag13
aS'19662602'
p1305
ag306
ag897
ag176
ag607
asg45
g947
sg47
(ischedule
Group
p1306
(dp1307
g8
g1301
sg50
S'Project Numerical Recipes3'
p1308
sbsg52
(iread_data3
Room
p1309
(dp1310
g45
g144
sg50
g145
sbsg57
g58
sg59
g477
sg50
g951
sba(ischedule
Activity
p1311
(dp1312
g8
g512
sg45
g414
sg47
g521
sg52
(iread_data3
Room
p1313
(dp1314
g45
g240
sg50
g241
sbsg57
g126
sg59
g397
sg50
g420
sbaa(lp1315
(ischedule
Activity
p1316
(dp1317
g8
(lp1318
g895
ag86
ag408
ag70
ag608
ag462
ag822
ag1236
ag449
ag1220
ag336
ag259
ag980
ag897
ag463
ag158
ag1057
ag464
ag913
ag1237
ag247
ag438
ag1238
ag436
ag222
ag258
ag302
ag1079
ag210
ag465
ag325
ag699
ag466
ag1221
ag1239
ag303
ag307
ag609
ag383
ag627
ag909
ag467
ag85
ag75
ag468
ag1222
ag377
ag469
ag944
ag559
ag470
asg45
I1000
sg47
Nsg52
(iread_data3
Room
p1319
(dp1320
g45
g55
sg50
g56
sbsg57
g106
sg59
g107
sg50
g478
sba(ischedule
Activity
p1321
(dp1322
g8
(lp1323
g961
ag312
ag429
ag95
ag323
ag187
ag759
ag449
ag977
ag1003
ag550
ag517
ag411
ag1004
ag751
ag1005
ag155
ag941
ag390
ag1006
ag113
ag1007
asg45
g576
sg47
(ischedule
Group
p1324
(dp1325
g8
g1323
sg50
S'Heuristieken 11'
p1326
sbsg52
(iread_data3
Room
p1327
(dp1328
g45
g340
sg50
g341
sbsg57
g126
sg59
g60
sg50
g582
sba(ischedule
Activity
p1329
(dp1330
g8
(lp1331
g887
ag316
ag574
ag573
ag570
aS'5590289'
p1332
ag331
aS'53267490'
p1333
ag265
aS'56191333'
p1334
aS'12170832'
p1335
ag555
ag427
ag165
ag29
ag801
asg45
g764
sg47
(ischedule
Group
p1336
(dp1337
g8
g1331
sg50
S'Netwerken en systeembeveiliging4'
p1338
sbsg52
(iread_data3
Room
p1339
(dp1340
g45
g144
sg50
g145
sbsg57
g58
sg59
g397
sg50
g770
sba(ischedule
Activity
p1341
(dp1342
g8
(lp1343
g550
ag1135
ag905
ag761
ag942
ag974
ag720
ag665
ag662
ag441
ag719
ag623
ag717
ag946
ag1079
ag1139
ag1140
ag1141
ag691
ag283
ag308
ag180
ag135
ag1143
ag1144
ag10
ag908
ag1146
ag1148
ag628
ag76
ag230
ag188
ag174
ag1149
asg45
g503
sg47
(ischedule
Group
p1344
(dp1345
g8
g1343
sg50
S'Calculus 22'
p1346
sbsg52
(iread_data3
Room
p1347
(dp1348
g45
g199
sg50
g200
sbsg57
g126
sg59
g107
sg50
g509
sba(ischedule
Activity
p1349
(dp1350
g8
g1247
sg45
g1048
sg47
g1249
sg52
(iread_data3
Room
p1351
(dp1352
g45
g104
sg50
g105
sbsg57
g126
sg59
g107
sg50
g668
sba(ischedule
Activity
p1353
(dp1354
g8
(lp1355
g153
ag20
ag910
ag500
ag752
ag117
ag1142
ag312
ag691
aS'10702778'
p1356
ag115
ag178
ag255
ag161
ag313
ag456
ag902
ag455
asg45
g391
sg47
(ischedule
Group
p1357
(dp1358
g8
g1355
sg50
S'Programmeren in Java 25'
p1359
sbsg52
(iread_data3
Room
p1360
(dp1361
g45
g240
sg50
g241
sbsg57
g58
sg59
S'5'
p1362
sg50
g398
sba(ischedule
Activity
p1363
(dp1364
g8
(lp1365
g332
ag233
ag101
ag904
ag289
ag823
ag1136
ag760
ag212
ag41
ag163
ag1137
ag390
ag363
ag1099
ag1138
ag753
ag31
ag688
ag704
ag690
ag438
ag1142
ag783
ag36
ag1145
ag654
ag803
ag1147
ag167
ag901
ag23
ag409
ag152
ag388
ag664
asg45
g503
sg47
(ischedule
Group
p1366
(dp1367
g8
g1365
sg50
S'Calculus 21'
p1368
sbsg52
(iread_data3
Room
p1369
(dp1370
g45
g124
sg50
g125
sbsg57
g126
sg59
g60
sg50
g509
sbaa(lp1371
(ischedule
Activity
p1372
(dp1373
g8
g1047
sg45
g1248
sg47
g1049
sg52
g809
sg57
g58
sg59
g60
sg50
g668
sba(ischedule
Activity
p1374
(dp1375
g8
g281
sg45
g540
sg47
g292
sg52
(iread_data3
Room
p1376
(dp1377
g45
g340
sg50
g341
sbsg57
g126
sg59
g107
sg50
g297
sba(ischedule
Activity
p1378
(dp1379
g8
(lp1380
g42
ag621
ag385
ag117
ag160
ag501
ag451
ag33
ag259
ag805
ag942
ag456
ag95
ag1016
ag112
aS'56121590'
p1381
ag688
ag1141
ag1057
ag301
ag333
aS'4529208'
p1382
ag207
ag289
ag136
ag182
ag408
ag214
ag555
ag1148
ag286
ag1334
ag218
ag153
ag328
ag180
asg45
g1101
sg47
(ischedule
Group
p1383
(dp1384
g8
g1380
sg50
S'Databases 22'
p1385
sbsg52
(iread_data3
Room
p1386
(dp1387
g45
g55
sg50
g56
sbsg57
g126
sg59
g107
sg50
g1107
sba(ischedule
Activity
p1388
(dp1389
g8
g1110
sg45
S'20'
p1390
sg47
g1112
sg52
(iread_data3
Room
p1391
(dp1392
g45
g144
sg50
g145
sbsg57
g126
sg59
g107
sg50
g242
sba(ischedule
Activity
p1393
(dp1394
g8
g1318
sg45
I1000
sg47
Nsg52
(iread_data3
Room
p1395
(dp1396
g45
g199
sg50
g200
sbsg57
g106
sg59
g60
sg50
g478
sba(ischedule
Activity
p1397
(dp1398
g8
g1189
sg45
g1390
sg47
g1190
sg52
(iread_data3
Room
p1399
(dp1400
g45
g104
sg50
g105
sbsg57
g126
sg59
g60
sg50
g242
sbaa(lp1401
(ischedule
Activity
p1402
(dp1403
g8
g671
sg45
g367
sg47
g673
sg52
(iread_data3
Room
p1404
(dp1405
g45
g340
sg50
g341
sbsg57
g126
sg59
g60
sg50
g373
sba(ischedule
Activity
p1406
(dp1407
g8
g1230
sg45
I1000
sg47
Nsg52
(iread_data3
Room
p1408
(dp1409
g45
g199
sg50
g200
sbsg57
g106
sg59
g107
sg50
g61
sba(ischedule
Activity
p1410
(dp1411
g8
g64
sg45
I1000
sg47
Nsg52
(iread_data3
Room
p1412
(dp1413
g45
g240
sg50
g241
sbsg57
g106
sg59
g60
sg50
g108
sba(ischedule
Activity
p1414
(dp1415
g8
g1040
sg45
g1278
sg47
g1042
sg52
(iread_data3
Room
p1416
(dp1417
g45
g55
sg50
g56
sbsg57
g126
sg59
g107
sg50
g1020
sba(ischedule
Activity
p1418
(dp1419
g8
g401
sg45
g520
sg47
g415
sg52
(iread_data3
Room
p1420
(dp1421
g45
g104
sg50
g105
sbsg57
g58
sg59
g60
sg50
g420
sba(ischedule
Activity
p1422
(dp1423
g8
(lp1424
g651
ag346
aS'59887191'
p1425
ag26
aS'64246605'
p1426
ag347
ag287
aS'123355'
p1427
ag660
ag517
aS'16912993'
p1428
ag348
aS'19058315'
p1429
ag1096
ag186
ag1381
asg45
g764
sg47
(ischedule
Group
p1430
(dp1431
g8
g1424
sg50
S'Netwerken en systeembeveiliging3'
p1432
sbsg52
(iread_data3
Room
p1433
(dp1434
g45
g144
sg50
g145
sbsg57
g58
sg59
g477
sg50
g770
sba(ischedule
Activity
p1435
(dp1436
g8
g835
sg45
g352
sg47
g837
sg52
(iread_data3
Room
p1437
(dp1438
g45
g124
sg50
g125
sbsg57
g126
sg59
g107
sg50
g358
sbaa(lp1439
(ischedule
Activity
p1440
(dp1441
g8
g796
sg45
I1000
sg47
Nsg52
g809
sg57
g106
sg59
g107
sg50
g813
sba(ischedule
Activity
p1442
(dp1443
g8
g528
sg45
g138
sg47
g531
sg52
(iread_data3
Room
p1444
(dp1445
g45
g104
sg50
g105
sbsg57
g58
sg59
g477
sg50
g127
sba(ischedule
Activity
p1446
(dp1447
g8
g1264
sg45
I1000
sg47
Nsg52
(iread_data3
Room
p1448
(dp1449
g45
g124
sg50
g125
sbsg57
g106
sg59
g60
sg50
g1269
sba(ischedule
Activity
p1450
(dp1451
g8
(lp1452
g191
ag42
ag703
ag621
ag1092
ag385
ag822
ag117
ag973
ag160
ag389
ag501
ag1093
ag451
ag559
ag33
ag1094
ag259
ag1095
ag805
ag194
ag942
ag1096
ag456
ag308
ag95
ag68
ag1016
ag437
ag112
ag304
ag1381
ag74
ag688
ag36
ag1141
ag327
ag1057
ag30
ag301
ag759
ag333
ag556
ag1382
ag1097
ag207
ag464
ag289
ag491
ag136
ag311
ag182
ag174
ag408
ag176
ag214
ag1098
ag555
ag285
ag1148
ag1099
ag286
ag763
ag1334
ag1100
ag218
ag561
ag153
ag701
ag328
ag432
ag180
asg45
I1000
sg47
Nsg52
(iread_data3
Room
p1453
(dp1454
g45
g199
sg50
g200
sbsg57
g106
sg59
g60
sg50
g1107
sba(ischedule
Activity
p1455
(dp1456
g8
g539
sg45
g291
sg47
g541
sg52
(iread_data3
Room
p1457
(dp1458
g45
g144
sg50
g145
sbsg57
g58
sg59
g477
sg50
g297
sba(ischedule
Activity
p1459
(dp1460
g8
(lp1461
g429
ag1014
ag465
ag349
aS'42297781'
p1462
aS'47260040'
p1463
ag782
ag1210
aS'44151631'
p1464
aS'64418623'
p1465
ag362
ag82
ag1209
asg45
g592
sg47
(ischedule
Group
p1466
(dp1467
g8
g1461
sg50
S'Compilerbouw practicum3'
p1468
sbsg52
(iread_data3
Room
p1469
(dp1470
g45
g340
sg50
g341
sbsg57
g58
sg59
g477
sg50
g598
sbaaa(lp1471
(lp1472
a(lp1473
a(lp1474
a(lp1475
a(lp1476
aasS'timeslot_dict'
p1477
(dp1478
I0
S'9:00-11:00'
p1479
sI1
S'11:00-13:00'
p1480
sI2
S'13:00-15:00'
p1481
sI3
S'15:00-17:00'
p1482
sI4
S'17:00-19:00'
p1483
ssS'day_dict'
p1484
(dp1485
I0
S'Monday'
p1486
sI1
S'Tuesday'
p1487
sI2
S'Wednesday'
p1488
sI3
S'Thursday'
p1489
sI4
S'Friday'
p1490
ssb.