(ischedule
Schedule
p0
(dp1
S'timetable'
p2
(lp3
(lp4
(lp5
(ischedule
Activity
p6
(dp7
S'participants'
p8
(lp9
S'40141996'
p10
aS'23257088'
p11
aS'34872117'
p12
aS'56872729'
p13
aS'29640619'
p14
aS'88752563'
p15
aS'15187217'
p16
aS'37701751'
p17
aS'43027916'
p18
aS'11996292'
p19
aS'96054456'
p20
aS'247918'
p21
aS'60352393'
p22
aS'26207525'
p23
aS'42196732'
p24
aS'91527663'
p25
aS'670011'
p26
aS'86988337'
p27
aS'5526560'
p28
aS'4529208'
p29
aS'72456780'
p30
aS'39459642'
p31
aS'59397895'
p32
aS'77960666'
p33
aS'17092717'
p34
aS'24277163'
p35
aS'5085194'
p36
aS'5517869'
p37
aS'86180471'
p38
aS'46989508'
p39
aS'75005528'
p40
aS'56191333'
p41
aS'3168419'
p42
aS'14816774'
p43
aS'57467488'
p44
aS'58083680'
p45
aS'58332004'
p46
aS'43902015'
p47
aS'51542218'
p48
aS'64947290'
p49
aS'49631542'
p50
aS'70072978'
p51
aS'76123484'
p52
aS'64296965'
p53
aS'52552718'
p54
aS'94686490'
p55
aS'13092455'
p56
aS'13132925'
p57
aS'73823548'
p58
aS'62736669'
p59
aS'17222374'
p60
aS'4921119'
p61
aS'26406342'
p62
aS'23658570'
p63
aS'47932106'
p64
aS'72796858'
p65
aS'25077484'
p66
aS'47477884'
p67
aS'82689818'
p68
aS'40434933'
p69
aS'27123462'
p70
aS'51566595'
p71
aS'58592894'
p72
aS'54540997'
p73
aS'12091019'
p74
aS'90474003'
p75
aS'78821918'
p76
aS'29526540'
p77
aS'83869542'
p78
aS'56121590'
p79
aS'77896638'
p80
aS'56749879'
p81
asS'capacity'
p82
I1000
sS'group'
p83
NsS'room'
p84
(iread_data
Room
p85
(dp86
g82
S'117'
p87
sS'name'
p88
S'C0.110'
p89
sbsS'ttype'
p90
S'lectures'
p91
sS'group_id'
p92
I0
sg88
S'Databases 2'
p93
sba(ischedule
Activity
p94
(dp95
g8
(lp96
S'76661016'
p97
aS'5368702'
p98
aS'11915563'
p99
aS'10792879'
p100
aS'84524083'
p101
aS'95631564'
p102
aS'27187154'
p103
aS'34110913'
p104
aS'11741347'
p105
aS'95007221'
p106
aS'66701209'
p107
aS'72895450'
p108
aS'27950803'
p109
aS'76802764'
p110
aS'7957843'
p111
aS'15911353'
p112
aS'9067939'
p113
aS'75759231'
p114
aS'14309255'
p115
aS'79167252'
p116
asg82
S'40'
p117
sg83
(ischedule
Group
p118
(dp119
g8
g96
sg88
S'Compilerbouw2'
p120
sbsg84
(iread_data
Room
p121
(dp122
g82
S'22'
p123
sg88
S'A1.06'
p124
sbsg90
S'tutorials'
p125
sg92
S'2'
p126
sg88
S'Compilerbouw'
p127
sba(ischedule
Activity
p128
(dp129
g8
(lp130
g24
aS'4568018'
p131
aS'64600457'
p132
aS'66120270'
p133
aS'59544049'
p134
aS'21029457'
p135
aS'70878567'
p136
aS'54026378'
p137
aS'53202517'
p138
aS'85335143'
p139
aS'22731474'
p140
aS'79617364'
p141
ag77
aS'58522654'
p142
ag20
aS'20883994'
p143
aS'6723948'
p144
aS'96453361'
p145
aS'11068043'
p146
aS'22826928'
p147
aS'56815156'
p148
aS'81200278'
p149
aS'43680781'
p150
aS'28359697'
p151
aS'15051051'
p152
ag43
aS'30050930'
p153
aS'6913074'
p154
aS'24613625'
p155
aS'77831658'
p156
aS'14591033'
p157
aS'73236988'
p158
aS'33877725'
p159
aS'7308727'
p160
aS'33930505'
p161
aS'74131924'
p162
ag21
aS'88176729'
p163
ag81
aS'89985072'
p164
aS'21964491'
p165
aS'5298748'
p166
aS'44868097'
p167
ag42
aS'30195935'
p168
asg82
I1000
sg83
Nsg84
(iread_data
Room
p169
(dp170
g82
S'48'
p171
sg88
S'B0.201'
p172
sbsg90
g91
sg92
I0
sg88
S'Bioinformatica'
p173
sba(ischedule
Activity
p174
(dp175
g8
(lp176
S'17823206'
p177
aS'50143947'
p178
aS'91196968'
p179
aS'68360259'
p180
asg82
S'10'
p181
sg83
(ischedule
Group
p182
(dp183
g8
g176
sg88
S'Data Mining1'
p184
sbsg84
(iread_data
Room
p185
(dp186
g82
S'20'
p187
sg88
S'A1.08'
p188
sbsg90
S'labs'
p189
sg92
S'1'
p190
sg88
S'Data Mining'
p191
sba(ischedule
Activity
p192
(dp193
g8
(lp194
S'46701583'
p195
aS'56348773'
p196
aS'51741554'
p197
aS'23565001'
p198
aS'87602030'
p199
aS'58253841'
p200
aS'62105897'
p201
aS'53585410'
p202
aS'33672995'
p203
asg82
S'40'
p204
sg83
(ischedule
Group
p205
(dp206
g8
g194
sg88
S'Calculus 23'
p207
sbsg84
(iread_data
Room
p208
(dp209
g82
S'56'
p210
sg88
S'A1.10'
p211
sbsg90
g125
sg92
S'3'
p212
sg88
S'Calculus 2'
p213
sba(ischedule
Activity
p214
(dp215
g8
(lp216
S'75521763'
p217
aS'41578612'
p218
aS'77636749'
p219
aS'32204977'
p220
aS'12077419'
p221
aS'68315599'
p222
aS'37110913'
p223
aS'36785409'
p224
aS'21192048'
p225
aS'75664412'
p226
ag115
aS'47982619'
p227
aS'92496780'
p228
aS'22323043'
p229
aS'76487754'
p230
aS'58565406'
p231
aS'23547619'
p232
aS'6249823'
p233
aS'70336464'
p234
aS'4697362'
p235
aS'12430748'
p236
aS'48308205'
p237
aS'97371272'
p238
aS'69086548'
p239
aS'89338938'
p240
aS'14383795'
p241
asg82
S'20'
p242
sg83
(ischedule
Group
p243
(dp244
g8
g216
sg88
S'Technology for games1'
p245
sbsg84
(iread_data
Room
p246
(dp247
g82
S'41'
p248
sg88
S'A1.04'
p249
sbsg90
g125
sg92
g190
sg88
S'Technology for games'
p250
sba(ischedule
Activity
p251
(dp252
g8
(lp253
g12
aS'72577292'
p254
ag69
aS'14138904'
p255
aS'13798030'
p256
aS'45556081'
p257
aS'59289233'
p258
ag68
aS'83266686'
p259
aS'27925117'
p260
aS'43460038'
p261
aS'29718115'
p262
aS'89180944'
p263
aS'28618400'
p264
aS'20331158'
p265
aS'10149535'
p266
aS'49683101'
p267
aS'58866007'
p268
aS'70015932'
p269
aS'23798155'
p270
aS'72683344'
p271
asg82
I1000
sg83
Nsg84
(iread_data
Room
p272
(dp273
g82
S'60'
p274
sg88
S'C1.112'
p275
sbsg90
g91
sg92
I0
sg88
S'Architectuur en computerorganisatie'
p276
sbaa(lp277
(ischedule
Activity
p278
(dp279
g8
(lp280
S'64228258'
p281
aS'9332762'
p282
ag62
aS'34773179'
p283
ag52
aS'57595888'
p284
aS'54310617'
p285
ag56
aS'61443567'
p286
aS'25106480'
p287
aS'42171678'
p288
aS'1075391'
p289
aS'1665980'
p290
ag53
ag35
ag68
aS'15902055'
p291
ag18
ag178
ag160
aS'96104167'
p292
aS'37770881'
p293
aS'50184318'
p294
ag257
ag217
aS'29474737'
p295
aS'35330349'
p296
ag37
aS'46052388'
p297
aS'62701040'
p298
ag80
aS'17575088'
p299
aS'42778953'
p300
aS'53107172'
p301
aS'65960683'
p302
ag60
aS'86000192'
p303
aS'77240949'
p304
aS'87758823'
p305
aS'68601184'
p306
ag232
ag24
ag14
ag254
ag197
ag142
aS'86291592'
p307
aS'31416266'
p308
aS'22699561'
p309
aS'3233378'
p310
aS'33760909'
p311
ag165
aS'28357474'
p312
aS'4783858'
p313
aS'13534377'
p314
aS'1696500'
p315
aS'73980360'
p316
aS'97135019'
p317
aS'48601268'
p318
aS'60312776'
p319
aS'64393888'
p320
asg82
I1000
sg83
Nsg84
(iread_data
Room
p321
(dp322
g82
g87
sg88
g89
sbsg90
g91
sg92
I0
sg88
S'Collectieve Intelligentie'
p323
sba(ischedule
Activity
p324
(dp325
g8
(lp326
g136
aS'13116738'
p327
ag222
aS'13658563'
p328
aS'8557857'
p329
ag219
ag262
ag11
aS'75585647'
p330
aS'17496687'
p331
aS'92977271'
p332
aS'11459236'
p333
asg82
S'15'
p334
sg83
(ischedule
Group
p335
(dp336
g8
g326
sg88
S'Informatie- en organisatieontwerp1'
p337
sbsg84
(iread_data
Room
p338
(dp339
g82
g248
sg88
g249
sbsg90
g189
sg92
g190
sg88
S'Informatie- en organisatieontwerp'
p340
sba(ischedule
Activity
p341
(dp342
g8
(lp343
S'36508571'
p344
aS'70113753'
p345
aS'62872965'
p346
ag37
aS'19858730'
p347
aS'44901052'
p348
aS'34806836'
p349
ag137
ag162
aS'61611295'
p350
aS'88627897'
p351
ag65
aS'16097870'
p352
aS'62356458'
p353
ag54
ag99
aS'68409833'
p354
ag71
aS'27298319'
p355
aS'22871048'
p356
ag223
ag31
asg82
I1000
sg83
Nsg84
(iread_data
Room
p357
(dp358
g82
g274
sg88
g275
sbsg90
g91
sg92
I0
sg88
S'Autonomous Agents 2'
p359
sba(ischedule
Activity
p360
(dp361
g8
(lp362
S'67625383'
p363
aS'2079771'
p364
aS'3685034'
p365
aS'5976174'
p366
aS'26857113'
p367
ag304
ag31
aS'38296757'
p368
ag152
aS'37744525'
p369
aS'85236626'
p370
ag270
ag267
aS'94467156'
p371
aS'61518436'
p372
aS'40791377'
p373
ag103
aS'56988998'
p374
aS'33252501'
p375
ag195
aS'90067329'
p376
aS'63111000'
p377
asg82
I1000
sg83
Nsg84
(iread_data
Room
p378
(dp379
g82
S'22'
p380
sg88
S'A1.06'
p381
sbsg90
g91
sg92
I0
sg88
S'Machine Learning'
p382
sba(ischedule
Activity
p383
(dp384
g8
(lp385
S'66034145'
p386
aS'21677389'
p387
aS'37399898'
p388
aS'81385263'
p389
ag232
aS'64768422'
p390
aS'44828429'
p391
aS'4546613'
p392
aS'69634191'
p393
aS'38179241'
p394
aS'3707829'
p395
ag98
aS'14847953'
p396
aS'19214659'
p397
aS'2550487'
p398
aS'81155296'
p399
aS'76924297'
p400
aS'28055464'
p401
ag97
aS'93566383'
p402
aS'20374340'
p403
ag17
aS'34765676'
p404
ag149
aS'65675896'
p405
asg82
I1000
sg83
Nsg84
(iread_data
Room
p406
(dp407
g82
S'48'
p408
sg88
S'B0.201'
p409
sbsg90
g91
sg92
I0
sg88
S'Interactie-ontwerp'
p410
sbaa(lp411
(ischedule
Activity
p412
(dp413
g8
g280
sg82
I1000
sg83
Nsg84
(iread_data
Room
p414
(dp415
g82
g87
sg88
g89
sbsg90
g91
sg92
I0
sg88
g323
sba(ischedule
Activity
p416
(dp417
g8
(lp418
g115
aS'93041523'
p419
ag235
ag231
ag139
ag241
ag239
ag237
ag226
ag220
ag230
ag221
ag240
ag150
ag223
ag219
ag234
aS'31194811'
p420
ag238
ag69
ag232
ag218
ag19
ag228
ag224
ag222
ag225
ag227
ag233
aS'77264363'
p421
ag236
aS'7106649'
p422
ag282
ag62
ag266
ag229
ag217
ag348
asg82
I1000
sg83
Nsg84
(iread_data
Room
p423
(dp424
g82
g210
sg88
g211
sbsg90
g91
sg92
I0
sg88
g250
sba(ischedule
Activity
p425
(dp426
g8
(lp427
S'57086672'
p428
aS'42406214'
p429
aS'60661905'
p430
ag33
aS'87830198'
p431
aS'82390428'
p432
aS'54569540'
p433
ag328
aS'52715680'
p434
aS'33776961'
p435
aS'27805666'
p436
ag368
aS'36213792'
p437
aS'78136904'
p438
ag75
ag147
asg82
S'20'
p439
sg83
(ischedule
Group
p440
(dp441
g8
g427
sg88
S'Reflectie op de digitale cultuur3'
p442
sbsg84
(iread_data
Room
p443
(dp444
g82
g187
sg88
g188
sbsg90
g125
sg92
g212
sg88
S'Reflectie op de digitale cultuur'
p445
sba(ischedule
Activity
p446
(dp447
g8
(lp448
S'59753700'
p449
ag166
aS'92778619'
p450
aS'70844780'
p451
asg82
g439
sg83
(ischedule
Group
p452
(dp453
g8
g448
sg88
S'Reflectie op de digitale cultuur2'
p454
sbsg84
(iread_data
Room
p455
(dp456
g82
S'60'
p457
sg88
S'C1.112'
p458
sbsg90
g125
sg92
g126
sg88
g445
sba(ischedule
Activity
p459
(dp460
g8
(lp461
g144
aS'54772132'
p462
aS'85284256'
p463
aS'80135353'
p464
aS'97019450'
p465
aS'2416751'
p466
aS'22288615'
p467
ag31
aS'23983476'
p468
aS'45414528'
p469
aS'34900967'
p470
ag154
ag11
aS'66433883'
p471
aS'20830477'
p472
aS'58040377'
p473
ag14
aS'55474917'
p474
ag367
aS'28943658'
p475
aS'86807027'
p476
aS'88597745'
p477
ag61
aS'9731271'
p478
aS'58469172'
p479
aS'51593625'
p480
asg82
S'20'
p481
sg83
(ischedule
Group
p482
(dp483
g8
g461
sg88
S'Programmeren in Java 24'
p484
sbsg84
(iread_data
Room
p485
(dp486
g82
g408
sg88
g409
sbsg90
g189
sg92
S'4'
p487
sg88
S'Programmeren in Java 2'
p488
sbaa(lp489
(ischedule
Activity
p490
(dp491
g8
(lp492
g149
ag142
ag136
ag20
ag138
ag162
ag164
ag145
ag167
ag134
ag143
ag168
ag148
ag144
ag132
ag24
ag42
ag77
ag21
asg82
S'20'
p493
sg83
(ischedule
Group
p494
(dp495
g8
g492
sg88
S'Bioinformatica1'
p496
sbsg84
(iread_data
Room
p497
(dp498
g82
g171
sg88
g172
sbsg90
g125
sg92
g190
sg88
g173
sba(ischedule
Activity
p499
(dp500
g8
(lp501
S'96554914'
p502
aS'20239127'
p503
ag432
ag328
ag147
ag33
ag436
ag27
ag365
ag223
aS'70193386'
p504
ag218
ag22
aS'84449005'
p505
ag75
ag372
ag437
ag434
ag430
ag388
ag368
ag166
aS'13718298'
p506
ag154
aS'20095994'
p507
ag56
ag101
ag224
ag435
ag150
aS'51052738'
p508
aS'77392404'
p509
aS'49922855'
p510
ag450
ag109
ag449
aS'99975346'
p511
aS'27370083'
p512
ag35
ag356
ag431
ag429
aS'68286356'
p513
ag438
aS'99453514'
p514
ag428
aS'51415617'
p515
aS'32044893'
p516
aS'4709948'
p517
ag433
ag451
asg82
I1000
sg83
Nsg84
(iread_data
Room
p518
(dp519
g82
S'56'
p520
sg88
S'A1.10'
p521
sbsg90
g91
sg92
I0
sg88
g445
sba(ischedule
Activity
p522
(dp523
g8
(lp524
g304
ag281
ag307
ag80
ag37
ag286
ag285
ag306
ag303
ag298
ag295
ag296
ag287
ag301
ag318
ag52
ag18
ag300
ag320
ag315
ag289
asg82
S'20'
p525
sg83
(ischedule
Group
p526
(dp527
g8
g524
sg88
S'Collectieve Intelligentie2'
p528
sbsg84
(iread_data
Room
p529
(dp530
g82
g457
sg88
g458
sbsg90
g125
sg92
g126
sg88
g323
sba(ischedule
Activity
p531
(dp532
g8
(lp533
S'1766560'
p534
ag353
ag158
ag476
aS'32183908'
p535
aS'63573738'
p536
asg82
S'15'
p537
sg83
(ischedule
Group
p538
(dp539
g8
g533
sg88
S'Project Numerical Recipes3'
p540
sbsg84
(iread_data
Room
p541
(dp542
g82
S'41'
p543
sg88
S'A1.04'
p544
sbsg90
g189
sg92
g212
sg88
S'Project Numerical Recipes'
p545
sba(ischedule
Activity
p546
(dp547
g8
g253
sg82
I1000
sg83
Nsg84
(iread_data
Room
p548
(dp549
g82
S'117'
p550
sg88
S'C0.110'
p551
sbsg90
g91
sg92
I0
sg88
g276
sba(ischedule
Activity
p552
(dp553
g8
(lp554
g99
ag354
ag350
ag31
ag349
ag347
asg82
S'10'
p555
sg83
(ischedule
Group
p556
(dp557
g8
g554
sg88
S'Autonomous Agents 21'
p558
sbsg84
(iread_data
Room
p559
(dp560
g82
g380
sg88
g381
sbsg90
g189
sg92
g190
sg88
g359
sba(ischedule
Activity
p561
(dp562
g8
g176
sg82
S'10'
p563
sg83
g182
sg84
(iread_data
Room
p564
(dp565
g82
S'20'
p566
sg88
S'A1.08'
p567
sbsg90
g125
sg92
g190
sg88
g191
sbaa(lp568
(ischedule
Activity
p569
(dp570
g8
(lp571
g369
aS'52311353'
p572
ag158
ag319
ag178
ag131
ag229
ag164
ag240
ag231
aS'75599734'
p573
ag201
aS'84110134'
p574
aS'42115591'
p575
ag134
aS'44671041'
p576
aS'26260141'
p577
ag506
ag318
ag159
aS'41527759'
p578
aS'40343779'
p579
ag167
ag109
aS'9287708'
p580
aS'83210352'
p581
ag312
ag261
ag392
aS'58074656'
p582
aS'80709893'
p583
aS'48357272'
p584
ag269
aS'21095566'
p585
ag102
ag474
ag480
aS'61060652'
p586
aS'65318664'
p587
asg82
S'40'
p588
sg83
(ischedule
Group
p589
(dp590
g8
g571
sg88
S'Software engineering1'
p591
sbsg84
(iread_data
Room
p592
(dp593
g82
g274
sg88
g275
sbsg90
g125
sg92
g190
sg88
S'Software engineering'
p594
sba(ischedule
Activity
p595
(dp596
g8
(lp597
S'36527838'
p598
aS'48198668'
p599
aS'13218321'
p600
ag152
ag259
aS'78443067'
p601
aS'77376714'
p602
aS'1181560'
p603
ag150
aS'27241113'
p604
ag534
ag72
ag77
ag294
aS'58699305'
p605
aS'46570285'
p606
aS'83415514'
p607
ag60
ag46
ag377
ag115
ag517
ag222
ag50
ag76
aS'51650744'
p608
aS'30658799'
p609
ag288
ag37
ag105
aS'59111489'
p610
aS'96082155'
p611
ag505
ag51
ag35
aS'47462856'
p612
ag132
aS'99283252'
p613
ag435
ag19
aS'27916487'
p614
aS'78243495'
p615
aS'36748818'
p616
aS'66621166'
p617
aS'78544592'
p618
ag217
aS'13911001'
p619
aS'3883025'
p620
aS'75997788'
p621
ag139
aS'49219163'
p622
ag263
aS'41489515'
p623
aS'18144425'
p624
asg82
I1000
sg83
Nsg84
(iread_data
Room
p625
(dp626
g82
g210
sg88
g211
sbsg90
g91
sg92
I0
sg88
S'Moderne Databases'
p627
sba(ischedule
Activity
p628
(dp629
g8
g343
sg82
I1000
sg83
Nsg84
(iread_data
Room
p630
(dp631
g82
g171
sg88
g172
sbsg90
g91
sg92
I0
sg88
g359
sba(ischedule
Activity
p632
(dp633
g8
(lp634
g221
ag44
aS'36903574'
p635
ag195
ag404
ag366
aS'8522855'
p636
ag389
ag468
ag434
ag471
ag145
aS'41585485'
p637
aS'67817269'
p638
ag395
ag391
ag27
ag108
ag68
aS'23652927'
p639
ag202
ag165
aS'51509565'
p640
aS'14671406'
p641
ag290
aS'88596522'
p642
asg82
S'25'
p643
sg83
(ischedule
Group
p644
(dp645
g8
g634
sg88
S'Algoritmen en complexiteit2'
p646
sbsg84
(iread_data
Room
p647
(dp648
g82
g543
sg88
g544
sbsg90
g189
sg92
g126
sg88
S'Algoritmen en complexiteit'
p649
sba(ischedule
Activity
p650
(dp651
g8
(lp652
g232
ag22
ag438
asg82
S'10'
p653
sg83
(ischedule
Group
p654
(dp655
g8
g652
sg88
S'Advanced Heuristics2'
p656
sbsg84
(iread_data
Room
p657
(dp658
g82
g550
sg88
g551
sbsg90
g189
sg92
g126
sg88
S'Advanced Heuristics'
p659
sba(ischedule
Activity
p660
(dp661
g8
(lp662
S'92665222'
p663
aS'40633534'
p664
aS'62613937'
p665
aS'1886996'
p666
ag42
ag264
ag451
ag143
ag67
aS'72665524'
p667
aS'39429093'
p668
ag476
ag271
aS'27064249'
p669
ag396
ag621
ag254
asg82
g653
sg83
(ischedule
Group
p670
(dp671
g8
g662
sg88
S'Advanced Heuristics1'
p672
sbsg84
(iread_data
Room
p673
(dp674
g82
g566
sg88
g567
sbsg90
g189
sg92
g190
sg88
g659
sba(ischedule
Activity
p675
(dp676
g8
(lp677
g615
ag26
ag286
ag101
ag140
aS'5739011'
p678
ag18
aS'52304977'
p679
aS'63634350'
p680
ag352
aS'31897288'
p681
ag311
ag260
aS'58736785'
p682
aS'81022997'
p683
ag199
ag422
ag428
ag78
aS'48678993'
p684
aS'72652638'
p685
aS'35315956'
p686
asg82
S'20'
p687
sg83
(ischedule
Group
p688
(dp689
g8
g677
sg88
S'Heuristieken 21'
p690
sbsg84
(iread_data
Room
p691
(dp692
g82
g380
sg88
g381
sbsg90
g125
sg92
g190
sg88
S'Heuristieken 2'
p693
sbaaa(lp694
(lp695
(ischedule
Activity
p696
(dp697
g8
(lp698
S'3474870'
p699
ag27
ag404
ag641
ag395
ag355
ag71
ag471
ag221
ag178
ag145
ag638
ag637
aS'19540225'
p700
ag108
ag577
ag202
ag636
ag195
ag585
ag578
ag44
ag640
ag291
ag366
ag602
ag438
ag47
ag290
ag642
ag579
ag434
ag165
ag639
aS'64554442'
p701
ag389
ag68
ag468
ag72
ag49
ag635
ag391
ag25
asg82
I1000
sg83
Nsg84
(iread_data
Room
p702
(dp703
g82
g274
sg88
g275
sbsg90
g91
sg92
I0
sg88
g649
sba(ischedule
Activity
p704
(dp705
g8
(lp706
S'73302736'
p707
ag667
aS'87900893'
p708
ag67
ag260
ag15
ag38
ag132
ag64
aS'56544130'
p709
ag100
ag621
ag473
ag43
ag157
ag669
ag13
ag476
aS'32705005'
p710
ag10
aS'72526473'
p711
aS'59220392'
p712
ag303
ag141
ag368
aS'55530367'
p713
ag618
aS'75623387'
p714
aS'3678531'
p715
ag311
aS'80188025'
p716
ag103
aS'11593163'
p717
aS'74182182'
p718
aS'14303208'
p719
ag399
aS'31306819'
p720
aS'19717077'
p721
ag55
ag20
aS'61520025'
p722
aS'82412626'
p723
ag478
aS'24875739'
p724
aS'10609762'
p725
aS'65408517'
p726
ag313
aS'79888156'
p727
ag680
aS'5615125'
p728
ag607
aS'75446434'
p729
ag259
aS'34173695'
p730
ag394
aS'28957789'
p731
aS'23628642'
p732
ag167
ag63
aS'65978354'
p733
ag135
aS'22168693'
p734
aS'62363761'
p735
ag74
aS'37279234'
p736
ag352
aS'93361408'
p737
asg82
g204
sg83
(ischedule
Group
p738
(dp739
g8
g706
sg88
S'Calculus 21'
p740
sbsg84
(iread_data
Room
p741
(dp742
g82
g87
sg88
g89
sbsg90
g125
sg92
g190
sg88
g213
sba(ischedule
Activity
p743
(dp744
g8
(lp745
g222
ag329
ag136
ag46
ag327
ag217
ag348
ag331
ag332
ag11
ag328
ag219
ag468
ag333
ag262
ag330
ag220
aS'19958553'
p746
aS'18266644'
p747
ag616
ag298
asg82
I1000
sg83
Nsg84
(iread_data
Room
p748
(dp749
g82
g248
sg88
g249
sbsg90
g91
sg92
I0
sg88
g340
sba(ischedule
Activity
p750
(dp751
g8
(lp752
g613
ag615
ag601
ag263
ag115
ag602
ag619
ag614
ag77
ag611
ag622
ag606
ag50
ag600
ag609
ag435
asg82
S'20'
p753
sg83
(ischedule
Group
p754
(dp755
g8
g752
sg88
S'Moderne Databases2'
p756
sbsg84
(iread_data
Room
p757
(dp758
g82
g123
sg88
g124
sbsg90
g189
sg92
g126
sg88
g627
sba(ischedule
Activity
p759
(dp760
g8
(lp761
g69
ag62
ag19
ag139
ag266
ag348
ag421
ag422
ag150
ag420
ag419
ag282
asg82
g242
sg83
(ischedule
Group
p762
(dp763
g8
g761
sg88
S'Technology for games2'
p764
sbsg84
(iread_data
Room
p765
(dp766
g82
g187
sg88
g188
sbsg90
g125
sg92
g126
sg88
g250
sba(ischedule
Activity
p767
(dp768
g8
(lp769
g35
ag218
ag223
ag150
ag224
ag517
ag56
ag109
ag154
ag509
ag510
ag372
ag27
ag505
ag101
ag388
ag22
ag512
ag506
ag503
ag504
ag508
ag514
ag507
ag511
ag513
ag516
ag365
ag356
ag515
ag502
asg82
g439
sg83
(ischedule
Group
p770
(dp771
g8
g769
sg88
S'Reflectie op de digitale cultuur1'
p772
sbsg84
(iread_data
Room
p773
(dp774
g82
g210
sg88
g211
sbsg90
g125
sg92
g190
sg88
g445
sba(ischedule
Activity
p775
(dp776
g8
g554
sg82
S'10'
p777
sg83
g556
sg84
(iread_data
Room
p778
(dp779
g82
g171
sg88
g172
sbsg90
g125
sg92
g190
sg88
g359
sbaa(lp780
(ischedule
Activity
p781
(dp782
g8
(lp783
g199
ag78
ag260
ag101
aS'15249775'
p784
ag71
ag683
ag678
ag149
ag422
ag366
ag681
ag428
ag686
ag18
ag680
ag370
ag473
ag26
ag615
aS'82968410'
p785
ag140
ag286
ag685
ag679
ag682
ag352
ag511
ag311
ag666
ag684
ag404
asg82
I1000
sg83
Nsg84
(iread_data
Room
p786
(dp787
g82
g171
sg88
g172
sbsg90
g91
sg92
I0
sg88
g693
sba(ischedule
Activity
p788
(dp789
g8
(lp790
g72
ag139
ag154
ag577
ag355
aS'78735049'
p791
ag144
ag601
ag479
ag330
ag266
ag291
ag97
aS'70939718'
p792
aS'55412918'
p793
ag116
aS'45915482'
p794
ag281
aS'6939933'
p795
ag584
ag58
aS'88855695'
p796
ag317
ag605
aS'53139134'
p797
aS'77306636'
p798
aS'6709529'
p799
ag606
aS'14179347'
p800
ag392
asg82
g204
sg83
(ischedule
Group
p801
(dp802
g8
g790
sg88
S'Calculus 22'
p803
sbsg84
(iread_data
Room
p804
(dp805
g82
g274
sg88
g275
sbsg90
g125
sg92
g126
sg88
g213
sba(ischedule
Activity
p806
(dp807
g8
(lp808
g180
aS'97136582'
p809
aS'87314964'
p810
ag229
ag178
ag177
ag369
ag572
aS'25330192'
p811
aS'66122625'
p812
ag162
aS'13996448'
p813
ag708
aS'98780382'
p814
ag223
ag136
ag165
ag149
ag179
ag514
ag683
aS'93023961'
p815
ag449
ag469
aS'19337738'
p816
ag327
ag71
asg82
I1000
sg83
Nsg84
(iread_data
Room
p817
(dp818
g82
g210
sg88
g211
sbsg90
g91
sg92
I0
sg88
g191
sba(ischedule
Activity
p819
(dp820
g8
(lp821
g22
ag42
ag396
ag663
ag451
ag668
ag254
ag271
ag264
ag438
ag666
ag664
ag665
ag621
ag67
ag143
ag232
ag667
ag669
ag476
asg82
I1000
sg83
Nsg84
(iread_data
Room
p822
(dp823
g82
g543
sg88
g544
sbsg90
g91
sg92
I0
sg88
g659
sba(ischedule
Activity
p824
(dp825
g8
(lp826
g293
ag66
ag431
ag107
ag505
aS'14398123'
p827
ag109
aS'69459473'
p828
asg82
S'15'
p829
sg83
(ischedule
Group
p830
(dp831
g8
g826
sg88
S'Project Genetic Algorithms3'
p832
sbsg84
(iread_data
Room
p833
(dp834
g82
g566
sg88
g567
sbsg90
g189
sg92
g212
sg88
S'Project Genetic Algorithms'
p835
sba(ischedule
Activity
p836
(dp837
g8
(lp838
g217
ag298
ag348
ag468
ag616
ag220
ag747
ag46
ag746
asg82
g334
sg83
(ischedule
Group
p839
(dp840
g8
g838
sg88
S'Informatie- en organisatieontwerp2'
p841
sbsg84
(iread_data
Room
p842
(dp843
g82
g550
sg88
g551
sbsg90
g189
sg92
g126
sg88
g340
sbaa(lp844
(ischedule
Activity
p845
(dp846
g8
(lp847
g504
aS'82854435'
p848
ag572
ag53
ag48
ag575
ag707
ag470
ag352
aS'5595824'
p849
ag428
ag218
aS'14637758'
p850
aS'94955328'
p851
ag430
ag76
ag63
aS'83443653'
p852
ag198
ag356
ag684
ag747
ag506
aS'18477924'
p853
aS'73350019'
p854
ag224
ag61
ag30
ag621
ag465
aS'34243356'
p855
ag36
ag431
aS'88737765'
p856
aS'97838175'
p857
aS'58480929'
p858
ag148
ag709
ag584
ag156
ag203
aS'78822885'
p859
ag587
ag665
aS'72586808'
p860
ag716
ag270
ag139
ag18
asg82
I1000
sg83
Nsg84
(iread_data
Room
p861
(dp862
g82
g274
sg88
g275
sbsg90
g91
sg92
I0
sg88
S'Analysemethoden en -technieken'
p863
sba(ischedule
Activity
p864
(dp865
g8
(lp866
g72
ag355
ag178
ag602
ag438
ag579
ag577
ag49
ag578
ag25
ag71
ag291
ag585
ag700
ag47
ag699
ag701
asg82
g643
sg83
(ischedule
Group
p867
(dp868
g8
g866
sg88
S'Algoritmen en complexiteit1'
p869
sbsg84
(iread_data
Room
p870
(dp871
g82
g566
sg88
g567
sbsg90
g189
sg92
g190
sg88
g649
sba(ischedule
Activity
p872
(dp873
g8
g524
sg82
S'20'
p874
sg83
g526
sg84
(iread_data
Room
p875
(dp876
g82
g408
sg88
g409
sbsg90
g189
sg92
g126
sg88
g323
sba(ischedule
Activity
p877
(dp878
g8
(lp879
g576
ag282
ag116
aS'99272880'
p880
aS'94687383'
p881
aS'64053722'
p882
aS'20618153'
p883
asg82
g481
sg83
(ischedule
Group
p884
(dp885
g8
g879
sg88
S'Programmeren in Java 22'
p886
sbsg84
(iread_data
Room
p887
(dp888
g82
g380
sg88
g381
sbsg90
g189
sg92
g126
sg88
g488
sba(ischedule
Activity
p889
(dp890
g8
g634
sg82
S'25'
p891
sg83
g644
sg84
(iread_data
Room
p892
(dp893
g82
g543
sg88
g544
sbsg90
g125
sg92
g126
sg88
g649
sba(ischedule
Activity
p894
(dp895
g8
g130
sg82
I1000
sg83
Nsg84
(iread_data
Room
p896
(dp897
g82
g550
sg88
g551
sbsg90
g91
sg92
I0
sg88
g173
sba(ischedule
Activity
p898
(dp899
g8
(lp900
S'24167153'
p901
aS'57701414'
p902
asg82
S'15'
p903
sg83
(ischedule
Group
p904
(dp905
g8
g900
sg88
S'Zoeken sturen en bewegen3'
p906
sbsg84
(iread_data
Room
p907
(dp908
g82
g520
sg88
g521
sbsg90
g189
sg92
g212
sg88
S'Zoeken sturen en bewegen'
p909
sbaa(lp910
(ischedule
Activity
p911
(dp912
g8
(lp913
g714
ag20
ag721
ag726
ag266
ag606
ag202
ag730
ag724
ag132
ag713
ag74
ag198
ag201
ag621
ag317
ag10
ag157
ag708
ag368
ag478
ag712
ag352
ag392
ag723
ag103
ag710
ag727
ag709
ag733
ag797
ag313
ag793
ag259
ag799
ag607
ag394
ag63
ag473
ag794
ag479
ag281
ag605
ag737
ag58
ag15
ag13
ag735
ag116
ag618
ag167
ag195
ag399
ag729
ag141
ag291
ag669
ag732
ag200
ag717
ag577
ag731
ag800
ag707
ag716
ag43
ag719
ag601
ag680
ag154
ag64
ag97
ag725
ag38
ag711
ag72
ag199
ag792
ag139
ag203
ag720
ag667
ag584
ag798
ag135
ag728
ag260
ag476
ag718
ag795
ag100
ag55
ag722
ag330
ag144
ag197
ag196
ag736
ag715
ag311
ag355
ag67
ag303
ag791
ag734
ag796
asg82
I1000
sg83
Nsg84
(iread_data
Room
p914
(dp915
g82
g87
sg88
g89
sbsg90
g91
sg92
I0
sg88
g213
sba(ischedule
Activity
p916
(dp917
g8
(lp918
g142
ag53
ag165
ag293
ag232
ag319
ag314
ag24
ag217
ag302
ag284
asg82
g874
sg83
(ischedule
Group
p919
(dp920
g8
g918
sg88
S'Collectieve Intelligentie4'
p921
sbsg84
(iread_data
Room
p922
(dp923
g82
g248
sg88
g249
sbsg90
g189
sg92
g487
sg88
g323
sba(ischedule
Activity
p924
(dp925
g8
(lp926
g223
ag71
ag356
ag37
ag137
ag162
ag353
ag345
ag54
ag348
ag346
ag344
asg82
g777
sg83
(ischedule
Group
p927
(dp928
g8
g926
sg88
S'Autonomous Agents 22'
p929
sbsg84
(iread_data
Room
p930
(dp931
g82
g171
sg88
g172
sbsg90
g125
sg92
g126
sg88
g359
sba(ischedule
Activity
p932
(dp933
g8
(lp934
S'38499176'
p935
aS'64246605'
p936
ag369
ag226
aS'82872148'
p937
ag579
ag451
ag160
ag620
ag41
aS'53267490'
p938
ag431
ag635
aS'25557516'
p939
aS'59887191'
p940
ag22
ag509
ag168
ag389
ag811
ag462
aS'123355'
p941
ag264
ag315
ag463
aS'535689'
p942
asg82
S'20'
p943
sg83
(ischedule
Group
p944
(dp945
g8
g934
sg88
S'Netwerken en systeembeveiliging1'
p946
sbsg84
(iread_data
Room
p947
(dp948
g82
g210
sg88
g211
sbsg90
g189
sg92
g190
sg88
S'Netwerken en systeembeveiliging'
p949
sba(ischedule
Activity
p950
(dp951
g8
(lp952
g254
ag283
ag305
ag308
ag316
ag178
ag56
ag297
asg82
g525
sg83
(ischedule
Group
p953
(dp954
g8
g952
sg88
S'Collectieve Intelligentie3'
p955
sbsg84
(iread_data
Room
p956
(dp957
g82
g274
sg88
g275
sbsg90
g125
sg92
g212
sg88
g323
sba(ischedule
Activity
p958
(dp959
g8
(lp960
g11
ag27
ag65
ag80
ag81
ag28
ag46
ag44
ag12
ag62
ag39
ag51
ag30
ag32
ag42
ag52
asg82
S'40'
p961
sg83
(ischedule
Group
p962
(dp963
g8
g960
sg88
S'Databases 22'
p964
sbsg84
(iread_data
Room
p965
(dp966
g82
g566
sg88
g567
sbsg90
g125
sg92
g126
sg88
g93
sba(ischedule
Activity
p967
(dp968
g8
(lp969
g79
ag111
ag307
asg82
g943
sg83
(ischedule
Group
p970
(dp971
g8
g969
sg88
S'Netwerken en systeembeveiliging2'
p972
sbsg84
(iread_data
Room
p973
(dp974
g82
g380
sg88
g381
sbsg90
g189
sg92
g126
sg88
g949
sbaa(lp975
(ischedule
Activity
p976
(dp977
g8
g838
sg82
S'15'
p978
sg83
g839
sg84
(iread_data
Room
p979
(dp980
g82
g187
sg88
g188
sbsg90
g125
sg92
g126
sg88
g340
sba(ischedule
Activity
p981
(dp982
g8
g385
sg82
I1000
sg83
Nsg84
(iread_data
Room
p983
(dp984
g82
g171
sg88
g172
sbsg90
g91
sg92
I0
sg88
g410
sba(ischedule
Activity
p985
(dp986
g8
(lp987
g354
ag602
ag613
ag615
ag115
ag601
ag353
ag263
ag99
ag366
ag794
ag14
aS'41153310'
p988
aS'27582862'
p989
ag137
ag641
aS'1048485'
p990
aS'3727435'
p991
ag371
ag356
ag434
ag54
ag937
aS'14072826'
p992
ag310
ag707
aS'37830626'
p993
aS'31247305'
p994
aS'31103066'
p995
ag146
ag726
aS'31633723'
p996
ag163
ag502
ag287
ag313
asg82
S'40'
p997
sg83
(ischedule
Group
p998
(dp999
g8
g987
sg88
S'Software engineering2'
p1000
sbsg84
(iread_data
Room
p1001
(dp1002
g82
g274
sg88
g275
sbsg90
g189
sg92
g126
sg88
g594
sba(ischedule
Activity
p1003
(dp1004
g8
(lp1005
g52
ag286
aS'39230359'
p1006
ag699
aS'16333449'
p1007
ag254
ag281
ag34
aS'1137946'
p1008
ag138
ag728
aS'67073567'
p1009
aS'53512831'
p1010
ag428
aS'94930277'
p1011
ag108
aS'10698627'
p1012
ag467
aS'28358060'
p1013
ag233
ag69
ag47
aS'49908313'
p1014
asg82
S'20'
p1015
sg83
(ischedule
Group
p1016
(dp1017
g8
g1005
sg88
S'Webprogrammeren en databases1'
p1018
sbsg84
(iread_data
Room
p1019
(dp1020
g82
g248
sg88
g249
sbsg90
g125
sg92
g190
sg88
S'Webprogrammeren en databases'
p1021
sba(ischedule
Activity
p1022
(dp1023
g8
(lp1024
g80
ag144
ag15
ag12
ag65
ag142
ag39
ag155
ag158
ag319
ag302
ag300
ag237
ag27
ag293
ag222
ag420
ag226
aS'44391517'
p1025
ag881
aS'3407554'
p1026
ag855
ag31
aS'48503689'
p1027
aS'98105190'
p1028
aS'43689934'
p1029
ag573
ag267
ag619
ag307
aS'8464817'
p1030
ag221
ag389
ag534
ag364
ag259
aS'65852230'
p1031
ag796
aS'79033175'
p1032
ag373
ag849
ag462
ag609
ag663
ag138
aS'2317551'
p1033
ag464
aS'88636924'
p1034
aS'13284244'
p1035
asg82
S'40'
p1036
sg83
(ischedule
Group
p1037
(dp1038
g8
g1024
sg88
S'Compilerbouw1'
p1039
sbsg84
(iread_data
Room
p1040
(dp1041
g82
g87
sg88
g89
sbsg90
g189
sg92
g190
sg88
g127
sba(ischedule
Activity
p1042
(dp1043
g8
(lp1044
g157
ag140
ag81
ag159
ag160
ag141
ag165
ag166
ag133
ag156
ag152
asg82
S'20'
p1045
sg83
(ischedule
Group
p1046
(dp1047
g8
g1044
sg88
S'Bioinformatica3'
p1048
sbsg84
(iread_data
Room
p1049
(dp1050
g82
g123
sg88
g124
sbsg90
g189
sg92
g212
sg88
g173
sba(ischedule
Activity
p1051
(dp1052
g8
g808
sg82
I1000
sg83
Nsg84
(iread_data
Room
p1053
(dp1054
g82
g210
sg88
g211
sbsg90
g91
sg92
I0
sg88
g191
sbaaa(lp1055
(lp1056
(ischedule
Activity
p1057
(dp1058
g8
(lp1059
g101
ag747
ag478
ag680
aS'47605891'
p1060
ag827
ag465
ag578
ag731
ag240
aS'44940353'
p1061
ag479
ag157
ag142
aS'37498675'
p1062
aS'63955238'
p1063
ag637
ag143
ag265
ag574
ag612
ag438
ag53
ag81
ag140
ag718
ag219
ag636
ag1006
aS'72547110'
p1064
ag270
aS'79858178'
p1065
ag238
aS'39919665'
p1066
ag99
ag50
ag996
ag851
ag103
ag100
ag728
ag372
ag606
aS'34262212'
p1067
aS'82688900'
p1068
ag98
aS'81218347'
p1069
ag400
ag239
ag635
ag46
ag179
ag935
ag474
ag710
ag177
ag724
ag791
ag371
aS'7492204'
p1070
ag374
aS'51186803'
p1071
aS'38329455'
p1072
ag641
aS'65003379'
p1073
ag134
ag433
ag575
ag503
aS'39659121'
p1074
aS'59075181'
p1075
aS'23391676'
p1076
ag285
ag880
ag365
ag20
ag304
ag855
aS'91139627'
p1077
aS'63408522'
p1078
aS'10872825'
p1079
aS'79366078'
p1080
ag48
ag994
asg82
I1000
sg83
Nsg84
(iread_data
Room
p1081
(dp1082
g82
g87
sg88
g89
sbsg90
g91
sg92
I0
sg88
S'Kansrekenen 2'
p1083
sba(ischedule
Activity
p1084
(dp1085
g8
(lp1086
g159
ag615
ag396
ag263
ag261
ag386
ag828
aS'41790793'
p1087
ag466
aS'76648468'
p1088
ag509
ag719
ag883
ag669
aS'76903244'
p1089
aS'24891081'
p1090
asg82
S'20'
p1091
sg83
(ischedule
Group
p1092
(dp1093
g8
g1086
sg88
S'Webprogrammeren en databases2'
p1094
sbsg84
(iread_data
Room
p1095
(dp1096
g82
g171
sg88
g172
sbsg90
g189
sg92
g126
sg88
g1021
sba(ischedule
Activity
p1097
(dp1098
g8
g1024
sg82
g117
sg83
g1037
sg84
(iread_data
Room
p1099
(dp1100
g82
g274
sg88
g275
sbsg90
g125
sg92
g190
sg88
g127
sba(ischedule
Activity
p1101
(dp1102
g8
g952
sg82
g874
sg83
g953
sg84
(iread_data
Room
p1103
(dp1104
g82
g123
sg88
g124
sbsg90
g189
sg92
g212
sg88
g323
sba(ischedule
Activity
p1105
(dp1106
g8
g926
sg82
g555
sg83
g927
sg84
(iread_data
Room
p1107
(dp1108
g82
g248
sg88
g249
sbsg90
g189
sg92
g126
sg88
g359
sba(ischedule
Activity
p1109
(dp1110
g8
(lp1111
g229
ag165
ag449
ag816
ag369
ag327
ag572
ag811
ag683
ag708
ag469
ag812
ag809
ag813
ag814
ag810
asg82
g181
sg83
(ischedule
Group
p1112
(dp1113
g8
g1111
sg88
S'Data Mining2'
p1114
sbsg84
(iread_data
Room
p1115
(dp1116
g82
g187
sg88
g188
sbsg90
g189
sg92
g126
sg88
g191
sba(ischedule
Activity
p1117
(dp1118
g8
(lp1119
g291
ag310
ag311
ag313
ag282
ag160
ag317
ag257
ag35
ag14
ag60
ag290
ag288
ag68
ag62
ag197
ag309
ag312
ag292
ag294
ag299
asg82
g874
sg83
(ischedule
Group
p1120
(dp1121
g8
g1119
sg88
S'Collectieve Intelligentie1'
p1122
sbsg84
(iread_data
Room
p1123
(dp1124
g82
g520
sg88
g521
sbsg90
g189
sg92
g190
sg88
g323
sbaa(lp1125
(ischedule
Activity
p1126
(dp1127
g8
(lp1128
g237
ag1028
ag609
ag31
ag259
ag100
ag107
ag108
ag855
ag849
ag1030
ag364
ag80
ag97
ag158
ag114
ag267
ag222
ag113
ag881
ag1032
ag302
ag144
ag1029
ag389
ag98
ag101
ag1026
ag307
ag300
ag1025
ag115
ag293
ag111
ag663
ag373
ag1031
ag221
ag138
ag106
ag15
ag102
ag12
ag420
ag464
ag103
ag65
ag1033
ag142
ag116
ag27
ag319
ag1027
ag104
ag109
ag1035
ag99
ag110
ag105
ag573
ag39
ag796
ag619
ag112
ag534
ag462
ag1034
ag155
ag226
asg82
I1000
sg83
Nsg84
(iread_data
Room
p1129
(dp1130
g82
g87
sg88
g89
sbsg90
g91
sg92
I0
sg88
g127
sba(ischedule
Activity
p1131
(dp1132
g8
(lp1133
g396
ag108
ag1090
ag699
ag509
ag1088
ag52
ag883
ag286
ag1008
ag719
ag467
ag1087
ag828
ag34
ag1010
ag281
ag1006
ag263
ag159
ag1011
ag428
ag466
ag261
ag386
ag1013
ag1089
ag254
ag1012
ag1014
ag669
ag615
ag69
ag47
ag728
ag138
ag1009
ag1007
ag233
asg82
I1000
sg83
Nsg84
(iread_data
Room
p1134
(dp1135
g82
g248
sg88
g249
sbsg90
g91
sg92
I0
sg88
g1021
sba(ischedule
Activity
p1136
(dp1137
g8
(lp1138
g51
ag195
ag298
ag435
ag371
ag369
ag303
ag132
ag430
aS'73893840'
p1139
ag370
ag20
ag813
ag517
ag147
asg82
g481
sg83
(ischedule
Group
p1140
(dp1141
g8
g1138
sg88
S'Programmeren in Java 25'
p1142
sbsg84
(iread_data
Room
p1143
(dp1144
g82
g123
sg88
g124
sbsg90
g189
sg92
S'5'
p1145
sg88
g488
sba(ischedule
Activity
p1146
(dp1147
g8
(lp1148
S'71839156'
p1149
ag347
aS'53775014'
p1150
ag852
ag301
ag586
ag288
ag465
ag315
aS'14941752'
p1151
ag681
ag472
ag1011
ag1075
ag81
ag229
ag621
ag584
ag812
ag635
ag217
aS'79879876'
p1152
ag332
aS'97417002'
p1153
ag313
aS'76393508'
p1154
ag157
ag356
ag348
aS'45660925'
p1155
ag19
ag223
ag682
ag265
ag131
ag1069
ag1028
ag255
ag476
ag44
ag43
aS'87210640'
p1156
ag328
aS'4353500'
p1157
asg82
I1000
sg83
Nsg84
(iread_data
Room
p1158
(dp1159
g82
g457
sg88
g458
sbsg90
g91
sg92
I0
sg88
S'Heuristieken 1'
p1160
sba(ischedule
Activity
p1161
(dp1162
g8
(lp1163
g434
ag146
asg82
S'15'
p1164
sg83
(ischedule
Group
p1165
(dp1166
g8
g1163
sg88
S'Compilerbouw practicum2'
p1167
sbsg84
(iread_data
Room
p1168
(dp1169
g82
g566
sg88
g567
sbsg90
g189
sg92
g126
sg88
S'Compilerbouw practicum'
p1170
sbaa(lp1171
(ischedule
Activity
p1172
(dp1173
g8
(lp1174
g1030
ag306
ag103
ag27
ag307
ag398
ag179
ag67
ag308
ag26
ag33
ag388
ag202
ag935
ag1076
ag715
ag784
aS'10702778'
p1175
ag1012
ag291
ag1027
ag286
ag81
ag1025
ag988
aS'23215240'
p1176
aS'12782624'
p1177
ag607
aS'39905995'
p1178
aS'88263855'
p1179
ag402
aS'54395877'
p1180
ag332
ag680
aS'7386961'
p1181
ag637
aS'73196865'
p1182
asg82
g481
sg83
(ischedule
Group
p1183
(dp1184
g8
g1174
sg88
S'Programmeren in Java 23'
p1185
sbsg84
(iread_data
Room
p1186
(dp1187
g82
g248
sg88
g249
sbsg90
g189
sg92
g212
sg88
g488
sba(ischedule
Activity
p1188
(dp1189
g8
(lp1190
S'16912993'
p1191
ag1075
ag14
ag197
ag636
ag478
ag348
ag317
ag860
ag855
ag747
ag827
ag667
ag149
ag44
ag809
ag387
ag23
ag684
ag536
asg82
g943
sg83
(ischedule
Group
p1192
(dp1193
g8
g1190
sg88
S'Netwerken en systeembeveiliging3'
p1194
sbsg84
(iread_data
Room
p1195
(dp1196
g82
g187
sg88
g188
sbsg90
g189
sg92
g212
sg88
g949
sba(ischedule
Activity
p1197
(dp1198
g8
g571
sg82
g997
sg83
g589
sg84
(iread_data
Room
p1199
(dp1200
g82
g171
sg88
g172
sbsg90
g189
sg92
g190
sg88
g594
sba(ischedule
Activity
p1201
(dp1202
g8
(lp1203
g165
ag80
aS'90296821'
p1204
ag227
ag320
ag177
ag49
ag635
ag1067
aS'88519892'
p1205
ag851
ag63
ag46
ag989
ag345
ag450
asg82
g481
sg83
(ischedule
Group
p1206
(dp1207
g8
g1203
sg88
S'Programmeren in Java 26'
p1208
sbsg84
(iread_data
Room
p1209
(dp1210
g82
g123
sg88
g124
sbsg90
g189
sg92
S'6'
p1211
sg88
g488
sba(ischedule
Activity
p1212
(dp1213
g8
(lp1214
g222
ag449
ag288
ag151
ag148
ag145
aS'33946407'
p1215
ag794
ag598
ag22
aS'41644639'
p1216
ag395
ag144
ag305
ag857
ag138
ag327
ag152
ag75
asg82
g903
sg83
(ischedule
Group
p1217
(dp1218
g8
g1214
sg88
S'Zoeken sturen en bewegen2'
p1219
sbsg84
(iread_data
Room
p1220
(dp1221
g82
g87
sg88
g89
sbsg90
g189
sg92
g126
sg88
g909
sba(ischedule
Activity
p1222
(dp1223
g8
g752
sg82
S'20'
p1224
sg83
g754
sg84
(iread_data
Room
p1225
(dp1226
g82
g210
sg88
g211
sbsg90
g125
sg92
g126
sg88
g627
sba(ischedule
Activity
p1227
(dp1228
g8
(lp1229
g792
ag735
aS'19058315'
p1230
ag161
ag683
ag1157
ag30
aS'12170832'
p1231
ag68
ag133
ag59
ag994
ag517
ag990
aS'5590289'
p1232
asg82
g943
sg83
(ischedule
Group
p1233
(dp1234
g8
g1229
sg88
S'Netwerken en systeembeveiliging4'
p1235
sbsg84
(iread_data
Room
p1236
(dp1237
g82
g274
sg88
g275
sbsg90
g189
sg92
g487
sg88
g949
sbaa(lp1238
(ischedule
Activity
p1239
(dp1240
g8
g1059
sg82
I1000
sg83
Nsg84
(iread_data
Room
p1241
(dp1242
g82
g87
sg88
g89
sbsg90
g91
sg92
I0
sg88
g1083
sba(ischedule
Activity
p1243
(dp1244
g8
(lp1245
g71
ag223
ag162
ag136
ag815
ag514
ag149
asg82
g563
sg83
(ischedule
Group
p1246
(dp1247
g8
g1245
sg88
S'Data Mining3'
p1248
sbsg84
(iread_data
Room
p1249
(dp1250
g82
g187
sg88
g188
sbsg90
g125
sg92
g212
sg88
g191
sba(ischedule
Activity
p1251
(dp1252
g8
g1133
sg82
I1000
sg83
Nsg84
(iread_data
Room
p1253
(dp1254
g82
g520
sg88
g521
sbsg90
g91
sg92
I0
sg88
g1021
sba(ischedule
Activity
p1255
(dp1256
g8
g1119
sg82
g525
sg83
g1120
sg84
(iread_data
Room
p1257
(dp1258
g82
g408
sg88
g409
sbsg90
g125
sg92
g190
sg88
g323
sba(ischedule
Activity
p1259
(dp1260
g8
g1111
sg82
g563
sg83
g1112
sg84
(iread_data
Room
p1261
(dp1262
g82
g543
sg88
g544
sbsg90
g125
sg92
g126
sg88
g191
sba(ischedule
Activity
p1263
(dp1264
g8
(lp1265
g43
ag137
ag155
ag146
ag154
ag139
ag158
ag161
ag163
ag147
ag151
ag150
ag131
ag135
ag153
asg82
g493
sg83
(ischedule
Group
p1266
(dp1267
g8
g1265
sg88
S'Bioinformatica2'
p1268
sbsg84
(iread_data
Room
p1269
(dp1270
g82
g380
sg88
g381
sbsg90
g125
sg92
g126
sg88
g173
sba(ischedule
Activity
p1271
(dp1272
g8
(lp1273
g65
ag352
ag355
ag351
asg82
g777
sg83
(ischedule
Group
p1274
(dp1275
g8
g1273
sg88
S'Autonomous Agents 23'
p1276
sbsg84
(iread_data
Room
p1277
(dp1278
g82
g457
sg88
g458
sbsg90
g125
sg92
g212
sg88
g359
sbaa(lp1279
(ischedule
Activity
p1280
(dp1281
g8
(lp1282
g328
ag265
ag131
ag255
ag288
ag43
ag1156
ag682
ag852
ag313
ag635
ag1150
ag1154
ag157
ag465
ag472
ag586
ag348
ag19
ag476
ag301
ag1149
ag1151
ag1028
ag621
ag223
ag812
ag681
ag584
ag81
ag1069
ag1153
ag332
ag356
ag1157
ag1011
ag1155
ag315
ag44
ag1075
asg82
S'25'
p1283
sg83
(ischedule
Group
p1284
(dp1285
g8
g1282
sg88
S'Heuristieken 11'
p1286
sbsg84
(iread_data
Room
p1287
(dp1288
g82
g248
sg88
g249
sbsg90
g125
sg92
g190
sg88
g1160
sba(ischedule
Activity
p1289
(dp1290
g8
g362
sg82
I1000
sg83
Nsg84
(iread_data
Room
p1291
(dp1292
g82
g210
sg88
g211
sbsg90
g91
sg92
I0
sg88
g382
sba(ischedule
Activity
p1293
(dp1294
g8
g418
sg82
I1000
sg83
Nsg84
(iread_data
Room
p1295
(dp1296
g82
g87
sg88
g89
sbsg90
g91
sg92
I0
sg88
g250
sba(ischedule
Activity
p1297
(dp1298
g8
g492
sg82
g1045
sg83
g494
sg84
(iread_data
Room
p1299
(dp1300
g82
g274
sg88
g275
sbsg90
g189
sg92
g190
sg88
g173
sba(ischedule
Activity
p1301
(dp1302
g8
(lp1303
g1152
ag347
ag229
ag217
asg82
g1283
sg83
(ischedule
Group
p1304
(dp1305
g8
g1303
sg88
S'Heuristieken 12'
p1306
sbsg84
(iread_data
Room
p1307
(dp1308
g82
g187
sg88
g188
sbsg90
g125
sg92
g126
sg88
g1160
sba(ischedule
Activity
p1309
(dp1310
g8
g866
sg82
g891
sg83
g867
sg84
(iread_data
Room
p1311
(dp1312
g82
g408
sg88
g409
sbsg90
g125
sg92
g190
sg88
g649
sbaaa(lp1313
(lp1314
(ischedule
Activity
p1315
(dp1316
g8
(lp1317
g434
ag994
ag115
ag586
ag263
ag287
ag369
ag585
ag989
ag54
ag480
ag584
ag576
ag137
ag641
ag163
ag353
ag131
ag988
ag109
ag164
ag580
ag178
ag158
ag319
ag583
ag146
ag992
ag937
ag310
ag312
ag794
ag587
ag581
ag582
ag575
ag572
ag201
ag990
ag474
ag615
ag502
ag995
ag134
ag318
ag99
ag261
ag313
ag231
ag14
ag371
ag726
ag159
ag601
ag574
ag240
ag102
ag354
ag229
ag506
ag269
ag356
ag366
ag577
ag573
ag707
ag392
ag996
ag579
ag602
ag578
ag991
ag167
ag613
ag993
asg82
I1000
sg83
Nsg84
g914
sg90
g91
sg92
I0
sg88
g594
sba(ischedule
Activity
p1318
(dp1319
g8
(lp1320
g534
ag607
ag46
ag517
ag60
ag599
ag51
ag288
ag37
ag259
ag222
ag152
ag616
ag76
ag505
ag19
ag217
ag604
ag603
asg82
g753
sg83
(ischedule
Group
p1321
(dp1322
g8
g1320
sg88
S'Moderne Databases1'
p1323
sbsg84
(iread_data
Room
p1324
(dp1325
g82
g123
sg88
g124
sbsg90
g189
sg92
g190
sg88
g627
sba(ischedule
Activity
p1326
(dp1327
g8
g1005
sg82
g1091
sg83
g1016
sg84
(iread_data
Room
p1328
(dp1329
g82
g248
sg88
g249
sbsg90
g189
sg92
g190
sg88
g1021
sba(ischedule
Activity
p1330
(dp1331
g8
g1273
sg82
g555
sg83
g1274
sg84
(iread_data
Room
p1332
(dp1333
g82
g187
sg88
g188
sbsg90
g189
sg92
g212
sg88
g359
sba(ischedule
Activity
p1334
(dp1335
g8
g1245
sg82
g181
sg83
g1246
sg84
(iread_data
Room
p1336
(dp1337
g82
g210
sg88
g211
sbsg90
g189
sg92
g212
sg88
g191
sba(ischedule
Activity
p1338
(dp1339
g8
(lp1340
g35
ag620
ag617
ag608
ag132
ag294
ag72
ag624
ag605
ag105
ag621
ag139
ag610
ag150
ag618
ag623
ag612
ag598
ag377
asg82
g1224
sg83
(ischedule
Group
p1341
(dp1342
g8
g1340
sg88
S'Moderne Databases3'
p1343
sbsg84
(iread_data
Room
p1344
(dp1345
g82
g171
sg88
g172
sbsg90
g125
sg92
g212
sg88
g627
sba(ischedule
Activity
p1346
(dp1347
g8
g918
sg82
g525
sg83
g919
sg84
(iread_data
Room
p1348
(dp1349
g82
g274
sg88
g275
sbsg90
g125
sg92
g487
sg88
g323
sbaa(lp1350
(ischedule
Activity
p1351
(dp1352
g8
g130
sg82
I1000
sg83
Nsg84
(iread_data
Room
p1353
(dp1354
g82
g171
sg88
g172
sbsg90
g91
sg92
I0
sg88
g173
sba(ischedule
Activity
p1355
(dp1356
g8
g501
sg82
I1000
sg83
Nsg84
(iread_data
Room
p1357
(dp1358
g82
g520
sg88
g521
sbsg90
g91
sg92
I0
sg88
g445
sba(ischedule
Activity
p1359
(dp1360
g8
(lp1361
g1069
ag935
ag24
ag80
ag583
aS'90743504'
p1362
ag198
ag296
ag157
ag572
aS'80998260'
p1363
ag718
ag352
ag855
aS'26172512'
p1364
ag40
ag179
ag344
ag474
ag851
aS'96118484'
p1365
aS'66570705'
p1366
ag218
ag308
ag1149
ag300
ag305
ag575
ag55
aS'54074680'
p1367
aS'32595335'
p1368
ag354
ag237
ag37
aS'34588570'
p1369
ag388
ag586
ag598
aS'21311067'
p1370
ag402
ag699
ag1007
ag13
ag793
aS'16011419'
p1371
ag581
ag268
ag266
ag141
aS'79937969'
p1372
ag26
ag346
ag61
ag389
asg82
I1000
sg83
Nsg84
(iread_data
Room
p1373
(dp1374
g82
g550
sg88
g551
sbsg90
g91
sg92
I0
sg88
S'Lineaire Algebra'
p1375
sba(ischedule
Activity
p1376
(dp1377
g8
(lp1378
S'51791169'
p1379
ag1070
ag736
ag201
ag990
ag1152
ag377
aS'63096281'
p1380
ag1033
asg82
g481
sg83
(ischedule
Group
p1381
(dp1382
g8
g1378
sg88
S'Programmeren in Java 21'
p1383
sbsg84
(iread_data
Room
p1384
(dp1385
g82
g566
sg88
g567
sbsg90
g189
sg92
g190
sg88
g488
sba(ischedule
Activity
p1386
(dp1387
g8
(lp1388
g1216
ag856
ag97
aS'51673172'
p1389
aS'25994016'
p1390
ag38
ag287
ag260
aS'82066165'
p1391
ag354
aS'75680261'
p1392
ag195
ag283
ag800
ag76
ag28
ag371
ag218
aS'55480737'
p1393
ag155
ag684
aS'74361881'
p1394
asg82
g829
sg83
(ischedule
Group
p1395
(dp1396
g8
g1388
sg88
S'Project Genetic Algorithms1'
p1397
sbsg84
(iread_data
Room
p1398
(dp1399
g82
g543
sg88
g544
sbsg90
g189
sg92
g190
sg88
g835
sbaa(lp1400
(ischedule
Activity
p1401
(dp1402
g8
(lp1403
g719
ag1026
aS'42297781'
p1404
ag667
ag36
ag255
aS'55103073'
p1405
ag1216
ag220
ag1149
ag333
ag1390
ag290
ag284
ag62
ag164
ag131
ag619
ag680
aS'47260040'
p1406
ag178
ag935
aS'44151631'
p1407
aS'51472074'
p1408
aS'5892092'
p1409
ag880
ag642
ag942
ag202
ag1394
asg82
g1164
sg83
(ischedule
Group
p1410
(dp1411
g8
g1403
sg88
S'Compilerbouw practicum3'
p1412
sbsg84
(iread_data
Room
p1413
(dp1414
g82
g274
sg88
g275
sbsg90
g189
sg92
g212
sg88
g1170
sba(ischedule
Activity
p1415
(dp1416
g8
g987
sg82
g588
sg83
g998
sg84
(iread_data
Room
p1417
(dp1418
g82
g248
sg88
g249
sbsg90
g125
sg92
g126
sg88
g594
sba(ischedule
Activity
p1419
(dp1420
g8
g1320
sg82
g1224
sg83
g1321
sg84
(iread_data
Room
p1421
(dp1422
g82
g171
sg88
g172
sbsg90
g125
sg92
g190
sg88
g627
sba(ischedule
Activity
p1423
(dp1424
g8
(lp1425
g146
ag140
ag156
aS'81116418'
p1426
ag365
ag429
ag813
aS'37419523'
p1427
ag307
aS'63939720'
p1428
ag516
ag240
ag574
ag15
ag236
ag319
aS'19662602'
p1429
ag237
ag398
ag40
ag1027
ag795
aS'90103047'
p1430
aS'40911986'
p1431
asg82
g537
sg83
(ischedule
Group
p1432
(dp1433
g8
g1425
sg88
S'Project Numerical Recipes2'
p1434
sbsg84
(iread_data
Room
p1435
(dp1436
g82
g87
sg88
g89
sbsg90
g189
sg92
g126
sg88
g545
sba(ischedule
Activity
p1437
(dp1438
g8
(lp1439
g1025
ag328
ag317
ag477
ag731
aS'37804282'
p1440
ag113
ag355
ag450
aS'57419039'
p1441
ag232
ag200
ag29
ag351
aS'13210212'
p1442
aS'82233873'
p1443
ag52
ag388
ag940
ag1063
ag712
asg82
g903
sg83
(ischedule
Group
p1444
(dp1445
g8
g1439
sg88
S'Zoeken sturen en bewegen1'
p1446
sbsg84
(iread_data
Room
p1447
(dp1448
g82
g520
sg88
g521
sbsg90
g189
sg92
g190
sg88
g909
sba(ischedule
Activity
p1449
(dp1450
g8
g1340
sg82
g753
sg83
g1341
sg84
(iread_data
Room
p1451
(dp1452
g82
g380
sg88
g381
sbsg90
g189
sg92
g212
sg88
g627
sba(ischedule
Activity
p1453
(dp1454
g8
(lp1455
g56
ag264
ag58
ag683
ag300
aS'21070547'
p1456
ag1151
aS'34691309'
p1457
ag160
ag718
ag111
ag1035
ag397
ag108
asg82
g537
sg83
(ischedule
Group
p1458
(dp1459
g8
g1455
sg88
S'Project Numerical Recipes1'
p1460
sbsg84
(iread_data
Room
p1461
(dp1462
g82
g566
sg88
g567
sbsg90
g189
sg92
g190
sg88
g545
sbaa(lp1463
(ischedule
Activity
p1464
(dp1465
g8
g1128
sg82
I1000
sg83
Nsg84
(iread_data
Room
p1466
(dp1467
g82
g87
sg88
g89
sbsg90
g91
sg92
I0
sg88
g127
sba(ischedule
Activity
p1468
(dp1469
g8
(lp1470
g20
ag38
ag54
ag56
ag58
ag64
ag72
ag74
ag67
ag63
ag43
ag13
ag37
ag68
ag71
ag55
ag22
ag40
ag41
ag53
ag25
ag73
ag29
ag19
ag75
ag47
ag34
ag57
ag14
ag23
ag10
ag16
ag66
ag36
ag31
ag33
ag59
ag50
ag79
ag77
ag49
ag78
ag76
ag21
ag45
ag35
ag15
ag24
ag61
ag26
ag48
ag18
ag17
ag69
ag60
ag70
asg82
g961
sg83
(ischedule
Group
p1471
(dp1472
g8
g1470
sg88
S'Databases 21'
p1473
sbsg84
(iread_data
Room
p1474
(dp1475
g82
g210
sg88
g211
sbsg90
g125
sg92
g190
sg88
g93
sba(ischedule
Activity
p1476
(dp1477
g8
g745
sg82
I1000
sg83
Nsg84
(iread_data
Room
p1478
(dp1479
g82
g274
sg88
g275
sbsg90
g91
sg92
I0
sg88
g340
sba(ischedule
Activity
p1480
(dp1481
g8
g1044
sg82
g493
sg83
g1046
sg84
(iread_data
Room
p1482
(dp1483
g82
g566
sg88
g567
sbsg90
g125
sg92
g212
sg88
g173
sba(ischedule
Activity
p1484
(dp1485
g8
(lp1486
g400
ag200
ag199
ag664
ag613
ag636
asg82
g829
sg83
(ischedule
Group
p1487
(dp1488
g8
g1486
sg88
S'Project Genetic Algorithms2'
p1489
sbsg84
(iread_data
Room
p1490
(dp1491
g82
g408
sg88
g409
sbsg90
g189
sg92
g126
sg88
g835
sba(ischedule
Activity
p1492
(dp1493
g8
(lp1494
S'91250534'
p1495
ag1391
ag1176
aS'1695839'
p1496
ag1389
ag241
aS'64418623'
p1497
ag405
asg82
g1164
sg83
(ischedule
Group
p1498
(dp1499
g8
g1494
sg88
S'Compilerbouw practicum1'
p1500
sbsg84
(iread_data
Room
p1501
(dp1502
g82
g380
sg88
g381
sbsg90
g189
sg92
g190
sg88
g1170
sbaa(lp1503
(ischedule
Activity
p1504
(dp1505
g8
(lp1506
g149
ag71
ag366
ag370
ag473
ag404
ag785
ag784
ag511
ag666
asg82
g687
sg83
(ischedule
Group
p1507
(dp1508
g8
g1506
sg88
S'Heuristieken 22'
p1509
sbsg84
(iread_data
Room
p1510
(dp1511
g82
g123
sg88
g124
sbsg90
g125
sg92
g126
sg88
g693
sba(ischedule
Activity
p1512
(dp1513
g8
g280
sg82
I1000
sg83
Nsg84
g914
sg90
g91
sg92
I0
sg88
g323
sba(ischedule
Activity
p1514
(dp1515
g8
g1361
sg82
I1000
sg83
Nsg84
(iread_data
Room
p1516
(dp1517
g82
g210
sg88
g211
sbsg90
g91
sg92
I0
sg88
g1375
sba(ischedule
Activity
p1518
(dp1519
g8
g1265
sg82
g1045
sg83
g1266
sg84
(iread_data
Room
p1520
(dp1521
g82
g274
sg88
g275
sbsg90
g189
sg92
g126
sg88
g173
sba(ischedule
Activity
p1522
(dp1523
g8
g96
sg82
g1036
sg83
g118
sg84
(iread_data
Room
p1524
(dp1525
g82
g248
sg88
g249
sbsg90
g189
sg92
g126
sg88
g127
sba(ischedule
Activity
p1526
(dp1527
g8
g1086
sg82
g1015
sg83
g1092
sg84
(iread_data
Room
p1528
(dp1529
g82
g171
sg88
g172
sbsg90
g125
sg92
g126
sg88
g1021
sba(ischedule
Activity
p1530
(dp1531
g8
g326
sg82
g978
sg83
g335
sg84
(iread_data
Room
p1532
(dp1533
g82
g187
sg88
g188
sbsg90
g125
sg92
g190
sg88
g340
sbaaa(lp1534
(lp1535
a(lp1536
a(lp1537
a(lp1538
a(lp1539
aasS'timeslot_dict'
p1540
(dp1541
I0
S'9:00-11:00'
p1542
sI1
S'11:00-13:00'
p1543
sI2
S'13:00-15:00'
p1544
sI3
S'15:00-17:00'
p1545
sI4
S'17:00-19:00'
p1546
ssS'day_dict'
p1547
(dp1548
I0
S'Monday'
p1549
sI1
S'Tuesday'
p1550
sI2
S'Wednesday'
p1551
sI3
S'Thursday'
p1552
sI4
S'Friday'
p1553
ssb.