(ischedule
Schedule
p0
(dp1
S'timetable'
p2
(lp3
(lp4
(lp5
(ischedule
Activity
p6
(dp7
S'participants'
p8
(lp9
S'4568018'
p10
aS'88176729'
p11
aS'30195935'
p12
aS'24613625'
p13
aS'44868097'
p14
aS'3168419'
p15
aS'21029457'
p16
aS'7308727'
p17
aS'96054456'
p18
aS'66120270'
p19
aS'89985072'
p20
aS'28359697'
p21
aS'247918'
p22
aS'29526540'
p23
aS'56749879'
p24
aS'33877725'
p25
aS'56815156'
p26
aS'64600457'
p27
aS'74131924'
p28
aS'85335143'
p29
aS'5298748'
p30
aS'33930505'
p31
aS'73236988'
p32
aS'58522654'
p33
aS'20883994'
p34
aS'70878567'
p35
aS'21964491'
p36
aS'6913074'
p37
aS'6723948'
p38
aS'81200278'
p39
aS'53202517'
p40
aS'11068043'
p41
aS'79617364'
p42
aS'22731474'
p43
aS'54026378'
p44
aS'43680781'
p45
aS'30050930'
p46
aS'15051051'
p47
aS'77831658'
p48
aS'42196732'
p49
aS'96453361'
p50
aS'14816774'
p51
aS'22826928'
p52
aS'59544049'
p53
aS'14591033'
p54
asS'capacity'
p55
I1000
sS'group'
p56
NsS'room'
p57
(iread_data
Room
p58
(dp59
g55
S'117'
p60
sS'name'
p61
S'C0.110'
p62
sbsS'ttype'
p63
S'lectures'
p64
sS'group_id'
p65
I0
sg61
S'Bioinformatica'
p66
sba(ischedule
Activity
p67
(dp68
g8
(lp69
S'38296757'
p70
aS'4783858'
p71
aS'23658570'
p72
aS'4546613'
p73
aS'78735049'
p74
aS'79888156'
p75
aS'11593163'
p76
aS'51741554'
p77
aS'87900893'
p78
aS'6939933'
p79
aS'23565001'
p80
aS'78544592'
p81
aS'73823548'
p82
aS'97135019'
p83
aS'32705005'
p84
aS'53139134'
p85
aS'65408517'
p86
aS'63634350'
p87
aS'14303208'
p88
aS'56544130'
p89
aS'40141996'
p90
aS'16097870'
p91
aS'3678531'
p92
aS'86000192'
p93
aS'27187154'
p94
aS'87602030'
p95
aS'22168693'
p96
asg55
S'40'
p97
sg56
(ischedule
Group
p98
(dp99
g8
g69
sg61
S'Calculus 21'
p100
sbsg57
(iread_data
Room
p101
(dp102
g55
S'60'
p103
sg61
S'C1.112'
p104
sbsg63
S'tutorials'
p105
sg65
S'1'
p106
sg61
S'Calculus 2'
p107
sba(ischedule
Activity
p108
(dp109
g8
(lp110
S'36903574'
p111
aS'78136904'
p112
aS'8522855'
p113
aS'41527759'
p114
aS'14671406'
p115
aS'41585485'
p116
aS'12077419'
p117
aS'15902055'
p118
aS'43902015'
p119
aS'53585410'
p120
aS'91527663'
p121
aS'21095566'
p122
aS'82689818'
p123
aS'64554442'
p124
aS'86988337'
p125
aS'57467488'
p126
aS'19540225'
p127
ag36
aS'64947290'
p128
aS'66433883'
p129
asg55
S'25'
p130
sg56
(ischedule
Group
p131
(dp132
g8
g110
sg61
S'Algoritmen en complexiteit1'
p133
sbsg57
(iread_data
Room
p134
(dp135
g55
S'22'
p136
sg61
S'A1.06'
p137
sbsg63
g105
sg65
g106
sg61
S'Algoritmen en complexiteit'
p138
sba(ischedule
Activity
p139
(dp140
g8
(lp141
g50
aS'27298319'
p142
aS'52715680'
p143
aS'5976174'
p144
aS'51566595'
p145
aS'3474870'
p146
aS'72895450'
p147
aS'40343779'
p148
aS'77376714'
p149
aS'1665980'
p150
aS'81385263'
p151
aS'58592894'
p152
aS'88596522'
p153
aS'50143947'
p154
aS'23983476'
p155
aS'44828429'
p156
aS'23652927'
p157
aS'67817269'
p158
aS'3707829'
p159
aS'46701583'
p160
aS'34765676'
p161
aS'26260141'
p162
aS'51509565'
p163
asg55
g130
sg56
(ischedule
Group
p164
(dp165
g8
g141
sg61
S'Algoritmen en complexiteit2'
p166
sbsg57
(iread_data
Room
p167
(dp168
g55
S'56'
p169
sg61
S'A1.10'
p170
sbsg63
g105
sg65
S'2'
p171
sg61
g138
sba(ischedule
Activity
p172
(dp173
g8
(lp174
S'68315599'
p175
aS'22323043'
p176
aS'58565406'
p177
aS'77636749'
p178
aS'44901052'
p179
aS'32204977'
p180
aS'14309255'
p181
aS'89338938'
p182
aS'11996292'
p183
aS'23547619'
p184
aS'75664412'
p185
aS'47982619'
p186
aS'9332762'
p187
aS'21192048'
p188
aS'7106649'
p189
aS'12430748'
p190
aS'40434933'
p191
aS'75521763'
p192
aS'31194811'
p193
aS'76487754'
p194
aS'4697362'
p195
aS'26406342'
p196
aS'97371272'
p197
aS'70336464'
p198
ag29
aS'36785409'
p199
aS'93041523'
p200
aS'10149535'
p201
asg55
S'20'
p202
sg56
(ischedule
Group
p203
(dp204
g8
g174
sg61
S'Technology for games1'
p205
sbsg57
(iread_data
Room
p206
(dp207
g55
S'48'
p208
sg61
S'B0.201'
p209
sbsg63
g105
sg65
g106
sg61
S'Technology for games'
p210
sba(ischedule
Activity
p211
(dp212
g8
(lp213
S'41578612'
p214
aS'37770881'
p215
aS'25106480'
p216
aS'76661016'
p217
aS'69459473'
p218
aS'25077484'
p219
ag160
aS'68409833'
p220
aS'78821918'
p221
asg55
S'15'
p222
sg56
(ischedule
Group
p223
(dp224
g8
g213
sg61
S'Project Genetic Algorithms2'
p225
sbsg57
(iread_data
Room
p226
(dp227
g55
S'41'
p228
sg61
S'A1.04'
p229
sbsg63
S'labs'
p230
sg65
g171
sg61
S'Project Genetic Algorithms'
p231
sbaa(lp232
(ischedule
Activity
p233
(dp234
g8
(lp235
S'11915563'
p236
ag53
ag181
ag32
ag44
ag20
ag182
ag115
ag114
ag11
ag10
ag177
aS'62356458'
p237
aS'37744525'
p238
aS'1048485'
p239
aS'94467156'
p240
aS'27582862'
p241
ag176
aS'44671041'
p242
ag25
aS'60312776'
p243
ag14
ag216
ag220
aS'3233378'
p244
ag162
ag154
ag122
ag41
aS'51593625'
p245
aS'48601268'
p246
ag71
aS'28357474'
p247
aS'73302736'
p248
aS'65318664'
p249
aS'80709893'
p250
aS'75599734'
p251
aS'37830626'
p252
aS'41153310'
p253
aS'95631564'
p254
aS'83210352'
p255
aS'82872148'
p256
aS'29640619'
p257
aS'52552718'
p258
aS'78443067'
p259
asg55
S'40'
p260
sg56
(ischedule
Group
p261
(dp262
g8
g235
sg61
S'Software engineering1'
p263
sbsg57
(iread_data
Room
p264
(dp265
g55
g103
sg61
g104
sbsg63
g105
sg65
g106
sg61
S'Software engineering'
p266
sba(ischedule
Activity
p267
(dp268
g8
(lp269
S'33760909'
p270
aS'24875739'
p271
ag118
aS'5615125'
p272
aS'74182182'
p273
ag120
aS'12091019'
p274
aS'82412626'
p275
aS'75585647'
p276
aS'64228258'
p277
ag152
ag142
ag16
aS'75623387'
p278
aS'58040377'
p279
aS'62105897'
p280
aS'27064249'
p281
aS'37279234'
p282
aS'77306636'
p283
aS'86807027'
p284
aS'33672995'
p285
ag27
aS'83415514'
p286
aS'93361408'
p287
aS'94686490'
p288
aS'47932106'
p289
asg55
g97
sg56
(ischedule
Group
p290
(dp291
g8
g269
sg61
S'Calculus 23'
p292
sbsg57
(iread_data
Room
p293
(dp294
g55
g228
sg61
g229
sbsg63
g105
sg65
S'3'
p295
sg61
g107
sba(ischedule
Activity
p296
(dp297
g8
(lp298
S'37399898'
p299
aS'77392404'
p300
aS'3685034'
p301
aS'13658563'
p302
aS'61518436'
p303
aS'84524083'
p304
ag45
aS'27805666'
p305
aS'60352393'
p306
ag214
aS'13092455'
p307
aS'24277163'
p308
aS'37110913'
p309
aS'27370083'
p310
aS'36213792'
p311
ag199
aS'20239127'
p312
aS'51415617'
p313
aS'82390428'
p314
aS'13718298'
p315
aS'33776961'
p316
ag70
aS'68286356'
p317
aS'99453514'
p318
aS'59753700'
p319
ag112
aS'42406214'
p320
aS'77960666'
p321
aS'70844780'
p322
aS'20095994'
p323
aS'57086672'
p324
ag30
aS'4709948'
p325
ag125
ag52
aS'54569540'
p326
aS'22871048'
p327
ag37
aS'87830198'
p328
ag143
aS'32044893'
p329
aS'99975346'
p330
aS'60661905'
p331
aS'70193386'
p332
aS'49922855'
p333
aS'27950803'
p334
aS'96554914'
p335
aS'84449005'
p336
aS'92778619'
p337
aS'51052738'
p338
aS'90474003'
p339
asg55
I1000
sg56
Nsg57
(iread_data
Room
p340
(dp341
g55
g169
sg61
g170
sbsg63
g64
sg65
I0
sg61
S'Reflectie op de digitale cultuur'
p342
sba(ischedule
Activity
p343
(dp344
g8
(lp345
S'42171678'
p346
ag192
aS'5517869'
p347
aS'36527838'
p348
aS'50184318'
p349
aS'70072978'
p350
aS'17222374'
p351
ag183
aS'58332004'
p352
aS'27916487'
p353
aS'75997788'
p354
aS'11741347'
p355
aS'51650744'
p356
ag175
aS'49219163'
p357
aS'18144425'
p358
aS'41489515'
p359
aS'46570285'
p360
aS'58699305'
p361
aS'1766560'
p362
asg55
S'20'
p363
sg56
(ischedule
Group
p364
(dp365
g8
g345
sg61
S'Moderne Databases2'
p366
sbsg57
(iread_data
Room
p367
(dp368
g55
S'20'
p369
sg61
S'A1.08'
p370
sbsg63
g230
sg65
g171
sg61
S'Moderne Databases'
p371
sba(ischedule
Activity
p372
(dp373
g8
(lp374
S'29718115'
p375
aS'83266686'
p376
aS'45556081'
p377
aS'59289233'
p378
aS'27925117'
p379
aS'58866007'
p380
aS'70015932'
p381
aS'13798030'
p382
aS'28618400'
p383
ag123
aS'72683344'
p384
aS'34872117'
p385
aS'72577292'
p386
aS'20331158'
p387
aS'23798155'
p388
aS'49683101'
p389
aS'89180944'
p390
aS'14138904'
p391
ag191
ag201
aS'43460038'
p392
asg55
I1000
sg56
Nsg57
(iread_data
Room
p393
(dp394
g55
g60
sg61
g62
sbsg63
g64
sg65
I0
sg61
S'Architectuur en computerorganisatie'
p395
sba(ischedule
Activity
p396
(dp397
g8
(lp398
g179
ag12
aS'19058315'
p399
aS'5590289'
p400
aS'26207525'
p401
aS'56121590'
p402
aS'64246605'
p403
aS'25330192'
p404
aS'54772132'
p405
aS'31247305'
p406
aS'59075181'
p407
aS'97136582'
p408
aS'1696500'
p409
aS'16912993'
p410
ag148
aS'25557516'
p411
aS'48678993'
p412
aS'81022997'
p413
ag77
aS'3883025'
p414
aS'63573738'
p415
ag39
aS'38499176'
p416
ag31
aS'21677389'
p417
aS'34243356'
p418
aS'14398123'
p419
asg55
S'20'
p420
sg56
(ischedule
Group
p421
(dp422
g8
g398
sg61
S'Netwerken en systeembeveiliging3'
p423
sbsg57
(iread_data
Room
p424
(dp425
g55
g208
sg61
g209
sbsg63
g230
sg65
g295
sg61
S'Netwerken en systeembeveiliging'
p426
sba(ischedule
Activity
p427
(dp428
g8
(lp429
g145
aS'98780382'
p430
aS'91196968'
p431
asg55
S'10'
p432
sg56
(ischedule
Group
p433
(dp434
g8
g429
sg61
S'Data Mining3'
p435
sbsg57
(iread_data
Room
p436
(dp437
g55
g136
sg61
g137
sbsg63
g105
sg65
g295
sg61
S'Data Mining'
p438
sbaa(lp439
(ischedule
Activity
p440
(dp441
g8
(lp442
g192
aS'77240949'
p443
ag386
aS'31416266'
p444
ag270
aS'42778953'
p445
ag277
ag184
ag187
ag77
aS'61443567'
p446
aS'29474737'
p447
aS'87758823'
p448
ag246
ag71
ag409
aS'46052388'
p449
aS'57595888'
p450
ag216
ag93
aS'68601184'
p451
aS'96104167'
p452
ag377
aS'77896638'
p453
aS'62701040'
p454
aS'34773179'
p455
ag308
aS'76123484'
p456
aS'73980360'
p457
ag307
aS'64393888'
p458
ag215
asg55
S'20'
p459
sg56
(ischedule
Group
p460
(dp461
g8
g442
sg61
S'Collectieve Intelligentie2'
p462
sbsg57
(iread_data
Room
p463
(dp464
g55
g228
sg61
g229
sbsg63
g230
sg65
g171
sg61
S'Collectieve Intelligentie'
p465
sba(ischedule
Activity
p466
(dp467
g8
(lp468
g49
ag347
ag83
ag118
ag349
aS'86291592'
p469
aS'35330349'
p470
aS'1075391'
p471
ag247
ag346
asg55
g459
sg56
(ischedule
Group
p472
(dp473
g8
g468
sg61
S'Collectieve Intelligentie4'
p474
sbsg57
(iread_data
Room
p475
(dp476
g55
g136
sg61
g137
sbsg63
g230
sg65
S'4'
p477
sg61
g465
sba(ischedule
Activity
p478
(dp479
g8
(lp480
S'72586808'
p481
ag327
ag332
ag388
ag214
ag418
aS'43027916'
p482
aS'64296965'
p483
ag26
aS'48357272'
p484
aS'72456780'
p485
aS'62613937'
p486
aS'51542218'
p487
aS'88737765'
p488
aS'5085194'
p489
ag199
ag72
ag324
ag80
ag412
aS'83443653'
p490
ag221
aS'5595824'
p491
ag91
aS'94955328'
p492
ag285
aS'97019450'
p493
aS'18266644'
p494
aS'14637758'
p495
aS'80188025'
p496
aS'82854435'
p497
aS'78822885'
p498
aS'52311353'
p499
ag29
ag331
aS'73350019'
p500
ag315
aS'42115591'
p501
aS'97838175'
p502
ag328
aS'18477924'
p503
aS'34900967'
p504
ag354
aS'4921119'
p505
aS'58480929'
p506
ag89
ag249
ag48
ag248
asg55
I1000
sg56
Nsg57
(iread_data
Room
p507
(dp508
g55
g60
sg61
g62
sbsg63
g64
sg65
I0
sg61
S'Analysemethoden en -technieken'
p509
sba(ischedule
Activity
p510
(dp511
g8
(lp512
S'72796858'
p513
ag125
ag385
ag151
aS'46989508'
p514
ag217
ag175
aS'39459642'
p515
ag251
ag236
ag334
aS'5368702'
p516
ag117
ag254
ag181
aS'88752563'
p517
ag32
aS'75759231'
p518
ag389
ag453
aS'44391517'
p519
ag405
aS'48308205'
p520
aS'80135353'
p521
ag193
aS'9067939'
p522
ag13
ag362
aS'7957843'
p523
aS'30658799'
p524
aS'88855695'
p525
asg55
S'40'
p526
sg56
(ischedule
Group
p527
(dp528
g8
g512
sg61
S'Compilerbouw2'
p529
sbsg57
(iread_data
Room
p530
(dp531
g55
g169
sg61
g170
sbsg63
g105
sg65
g171
sg61
S'Compilerbouw'
p532
sba(ischedule
Activity
p533
(dp534
g8
(lp535
g36
ag27
ag45
ag29
ag33
ag16
ag23
ag52
ag46
ag24
ag48
ag17
ag50
ag51
ag19
ag47
ag21
asg55
S'20'
p536
sg56
(ischedule
Group
p537
(dp538
g8
g535
sg61
S'Bioinformatica3'
p539
sbsg57
(iread_data
Room
p540
(dp541
g55
g369
sg61
g370
sbsg63
g105
sg65
g295
sg61
g66
sba(ischedule
Activity
p542
(dp543
g8
(lp544
S'13911001'
p545
aS'71839156'
p546
aS'14383795'
p547
ag88
ag196
ag416
ag87
aS'51673172'
p548
ag20
ag120
aS'1695839'
p549
aS'91250534'
p550
ag10
aS'25994016'
p551
aS'3407554'
p552
ag150
aS'74361881'
p553
aS'535689'
p554
aS'11459236'
p555
aS'72665524'
p556
ag391
ag41
aS'65675896'
p557
aS'64418623'
p558
aS'99272880'
p559
asg55
S'15'
p560
sg56
(ischedule
Group
p561
(dp562
g8
g544
sg61
S'Compilerbouw practicum1'
p563
sbsg57
(iread_data
Room
p564
(dp565
g55
g208
sg61
g209
sbsg63
g230
sg65
g106
sg61
S'Compilerbouw practicum'
p566
sba(ischedule
Activity
p567
(dp568
g8
(lp569
S'85236626'
p570
aS'34262212'
p571
aS'28943658'
p572
aS'22288615'
p573
ag325
ag350
aS'2416751'
p574
aS'2550487'
p575
aS'88597745'
p576
aS'23391676'
p577
ag18
aS'12782624'
p578
aS'23215240'
p579
aS'63096281'
p580
asg55
S'20'
p581
sg56
(ischedule
Group
p582
(dp583
g8
g569
sg61
S'Programmeren in Java 25'
p584
sbsg57
(iread_data
Room
p585
(dp586
g55
g103
sg61
g104
sbsg63
g230
sg65
S'5'
p587
sg61
S'Programmeren in Java 2'
p588
sbaa(lp589
(ischedule
Activity
p590
(dp591
g8
(lp592
g179
ag180
aS'8557857'
p593
ag352
aS'13116738'
p594
ag454
ag178
aS'36748818'
p595
ag276
aS'17496687'
p596
ag192
ag35
ag375
ag494
ag302
aS'23257088'
p597
ag155
ag555
aS'92977271'
p598
ag175
aS'19958553'
p599
asg55
I1000
sg56
Nsg57
(iread_data
Room
p600
(dp601
g55
g136
sg61
g137
sbsg63
g64
sg65
I0
sg61
S'Informatie- en organisatieontwerp'
p602
sba(ischedule
Activity
p603
(dp604
g8
g235
sg55
S'40'
p605
sg56
g261
sg57
(iread_data
Room
p606
(dp607
g55
g103
sg61
g104
sbsg63
g230
sg65
g106
sg61
g266
sba(ischedule
Activity
p608
(dp609
g8
(lp610
g556
aS'92665222'
p611
ag354
ag34
ag386
ag112
ag486
ag322
ag184
aS'14847953'
p612
aS'47477884'
p613
asg55
S'10'
p614
sg56
(ischedule
Group
p615
(dp616
g8
g610
sg61
S'Advanced Heuristics1'
p617
sbsg57
(iread_data
Room
p618
(dp619
g55
g169
sg61
g170
sbsg63
g230
sg65
g106
sg61
S'Advanced Heuristics'
p620
sba(ischedule
Activity
p621
(dp622
g8
(lp623
g145
ag43
aS'72652638'
p624
ag91
ag279
aS'78243495'
p625
ag324
ag482
ag161
ag570
ag39
aS'31897288'
p626
ag270
ag144
ag379
ag87
ag304
aS'5739011'
p627
ag446
ag189
aS'1886996'
p628
ag412
aS'52304977'
p629
ag413
ag95
aS'58736785'
p630
aS'15249775'
p631
aS'83869542'
p632
aS'82968410'
p633
aS'670011'
p634
ag330
aS'35315956'
p635
asg55
I1000
sg56
Nsg57
(iread_data
Room
p636
(dp637
g55
g208
sg61
g209
sbsg63
g64
sg65
I0
sg61
S'Heuristieken 2'
p638
sba(ischedule
Activity
p639
(dp640
g8
g535
sg55
S'20'
p641
sg56
g537
sg57
(iread_data
Room
p642
(dp643
g55
g228
sg61
g229
sbsg63
g230
sg65
g295
sg61
g66
sba(ischedule
Activity
p644
(dp645
g8
(lp646
g93
ag416
aS'70113753'
p647
asg55
g581
sg56
(ischedule
Group
p648
(dp649
g8
g646
sg61
S'Programmeren in Java 22'
p650
sbsg57
(iread_data
Room
p651
(dp652
g55
g369
sg61
g370
sbsg63
g230
sg65
g171
sg61
g588
sbaa(lp653
(ischedule
Activity
p654
(dp655
g8
g141
sg55
S'25'
p656
sg56
g164
sg57
(iread_data
Room
p657
(dp658
g55
S'60'
p659
sg61
S'C1.112'
p660
sbsg63
g230
sg65
g171
sg61
g138
sba(ischedule
Activity
p661
(dp662
g8
(lp663
g44
ag28
ag327
ag258
aS'62872965'
p664
ag91
ag647
aS'88627897'
p665
aS'34806836'
p666
ag513
aS'36508571'
p667
ag515
asg55
S'10'
p668
sg56
(ischedule
Group
p669
(dp670
g8
g663
sg61
S'Autonomous Agents 22'
p671
sbsg57
(iread_data
Room
p672
(dp673
g55
S'20'
p674
sg61
S'A1.08'
p675
sbsg63
g230
sg65
g171
sg61
S'Autonomous Agents 2'
p676
sba(ischedule
Activity
p677
(dp678
g8
(lp679
g547
aS'69086548'
p680
aS'6249823'
p681
ag520
ag176
ag196
ag117
ag179
ag200
ag309
ag178
ag188
ag194
ag197
ag177
ag45
ag187
aS'92496780'
p682
ag182
aS'77264363'
p683
ag181
ag175
ag193
ag198
ag189
ag195
ag199
ag183
ag180
ag184
ag201
ag29
ag185
ag214
ag192
ag190
ag186
ag191
asg55
I1000
sg56
Nsg57
(iread_data
Room
p684
(dp685
g55
S'41'
p686
sg61
S'A1.04'
p687
sbsg63
g64
sg65
I0
sg61
g210
sba(ischedule
Activity
p688
(dp689
g8
g468
sg55
S'20'
p690
sg56
g472
sg57
(iread_data
Room
p691
(dp692
g55
S'56'
p693
sg61
S'A1.10'
p694
sbsg63
g105
sg65
g477
sg61
g465
sba(ischedule
Activity
p695
(dp696
g8
g374
sg55
I1000
sg56
Nsg57
(iread_data
Room
p697
(dp698
g55
S'48'
p699
sg61
S'B0.201'
p700
sbsg63
g64
sg65
I0
sg61
g395
sba(ischedule
Activity
p701
(dp702
g8
(lp703
g39
ag594
ag238
ag413
ag319
ag35
ag404
aS'13996448'
p704
aS'45414528'
p705
ag36
ag499
asg55
g432
sg56
(ischedule
Group
p706
(dp707
g8
g703
sg61
S'Data Mining1'
p708
sbsg57
(iread_data
Room
p709
(dp710
g55
S'22'
p711
sg61
S'A1.06'
p712
sbsg63
g105
sg65
g106
sg61
g438
sba(ischedule
Activity
p713
(dp714
g8
(lp715
S'91139627'
p716
aS'82688900'
p717
ag326
ag407
aS'51186803'
p718
ag559
ag33
ag197
ag182
aS'65003379'
p719
ag304
aS'81218347'
p720
ag352
aS'7492204'
p721
ag240
ag406
aS'79858178'
p722
ag418
ag113
ag34
aS'49631542'
p723
aS'39230359'
p724
aS'56988998'
p725
ag387
ag53
aS'76924297'
p726
aS'84110134'
p727
ag388
ag114
ag416
aS'63408522'
p728
ag571
aS'10792879'
p729
aS'10872825'
p730
ag577
ag483
ag303
ag43
ag443
aS'9731271'
p731
ag24
aS'39659121'
p732
ag271
ag360
ag312
ag94
aS'72547110'
p733
ag501
ag301
ag419
ag112
ag487
aS'39919665'
p734
aS'38329455'
p735
aS'44940353'
p736
ag431
ag178
ag493
aS'79366078'
p737
aS'54310617'
p738
aS'55474917'
p739
ag74
ag115
aS'37498675'
p740
aS'31633723'
p741
ag492
aS'28957789'
p742
aS'47605891'
p743
aS'63955238'
p744
aS'58469172'
p745
ag111
ag494
ag272
ag236
ag54
ag84
ag680
ag18
ag273
aS'47462856'
p746
ag116
ag87
aS'17823206'
p747
ag516
asg55
I1000
sg56
Nsg57
(iread_data
Room
p748
(dp749
g55
S'117'
p750
sg61
S'C0.110'
p751
sbsg63
g64
sg65
I0
sg61
S'Kansrekenen 2'
p752
sbaaa(lp753
(lp754
(ischedule
Activity
p755
(dp756
g8
(lp757
g181
ag20
ag25
ag216
ag501
ag244
aS'99283252'
p758
ag148
ag177
ag182
aS'58074656'
p759
ag245
ag392
ag237
ag250
ag249
aS'14072826'
p760
ag256
ag73
ag143
ag236
ag625
ag247
ag10
aS'9287708'
p761
ag32
ag162
ag381
ag484
aS'31103066'
p762
ag11
ag251
ag243
ag741
aS'3727435'
p763
ag334
ag41
ag238
ag259
ag254
aS'45915482'
p764
ag240
ag241
ag114
ag144
ag253
ag258
ag176
ag335
ag14
aS'61060652'
p765
ag315
ag115
ag406
ag71
ag122
ag239
ag739
ag149
ag44
ag86
ag252
ag255
ag327
ag727
ag390
ag499
ag242
ag248
ag246
ag257
ag220
ag280
ag154
ag53
asg55
I1000
sg56
Nsg57
(iread_data
Room
p766
(dp767
g55
g750
sg61
g751
sbsg63
g64
sg65
I0
sg61
g266
sba(ischedule
Activity
p768
(dp769
g8
(lp770
g446
ag482
ag270
ag628
ag145
ag412
ag189
ag95
ag330
ag632
ag87
ag627
ag413
ag570
ag630
ag626
ag633
ag631
ag279
ag629
ag324
asg55
S'20'
p771
sg56
(ischedule
Group
p772
(dp773
g8
g770
sg61
S'Heuristieken 21'
p774
sbsg57
(iread_data
Room
p775
(dp776
g55
g136
sg61
g137
sbsg63
g105
sg65
g106
sg61
g638
sba(ischedule
Activity
p777
(dp778
g8
(lp779
g45
ag117
ag214
ag682
ag309
ag683
ag681
ag680
ag520
ag547
asg55
g202
sg56
(ischedule
Group
p780
(dp781
g8
g779
sg61
S'Technology for games2'
p782
sbsg57
(iread_data
Room
p783
(dp784
g55
g369
sg61
g370
sbsg63
g105
sg65
g171
sg61
g210
sba(ischedule
Activity
p785
(dp786
g8
(lp787
g125
ag385
ag513
ag126
ag514
ag24
ag119
ag183
ag456
ag517
ag515
ag90
ag51
ag489
ag453
ag128
ag347
aS'5526560'
p788
ag18
aS'17092717'
p789
aS'59397895'
p790
aS'15187217'
p791
aS'56872729'
p792
ag487
aS'86180471'
p793
ag72
ag152
ag22
ag485
aS'27123462'
p794
ag219
aS'4529208'
p795
ag82
ag289
aS'54540997'
p796
ag339
ag307
ag351
ag321
ag49
ag15
ag402
ag308
asg55
S'40'
p797
sg56
(ischedule
Group
p798
(dp799
g8
g787
sg61
S'Databases 21'
p800
sbsg57
(iread_data
Room
p801
(dp802
g55
g169
sg61
g170
sbsg63
g105
sg65
g106
sg61
S'Databases 2'
p803
sba(ischedule
Activity
p804
(dp805
g8
(lp806
g215
ag445
aS'65960683'
p807
ag469
ag491
ag611
ag33
ag418
ag243
ag40
ag545
ag304
aS'2317551'
p808
aS'2079771'
p809
ag376
aS'94687383'
p810
ag38
aS'65852230'
p811
aS'40791377'
p812
ag552
aS'34110913'
p813
aS'79033175'
p814
ag729
ag355
aS'13284244'
p815
aS'66701209'
p816
aS'15911353'
p817
aS'76802764'
p818
aS'98105190'
p819
aS'79167252'
p820
aS'88636924'
p821
aS'43689934'
p822
ag147
ag185
aS'48503689'
p823
aS'95007221'
p824
ag94
aS'8464817'
p825
asg55
g526
sg56
(ischedule
Group
p826
(dp827
g8
g806
sg61
S'Compilerbouw1'
p828
sbsg57
(iread_data
Room
p829
(dp830
g55
g208
sg61
g209
sbsg63
g105
sg65
g106
sg61
g532
sba(ischedule
Activity
p831
(dp832
g8
g592
sg55
I1000
sg56
Nsg57
(iread_data
Room
p833
(dp834
g55
g228
sg61
g229
sbsg63
g64
sg65
I0
sg61
g602
sba(ischedule
Activity
p835
(dp836
g8
(lp837
g184
aS'69634191'
p838
ag156
aS'20374340'
p839
ag516
aS'19214659'
p840
aS'37701751'
p841
ag39
ag417
ag575
aS'64768422'
p842
ag612
ag73
aS'38179241'
p843
ag161
ag299
ag151
ag726
ag217
aS'66034145'
p844
aS'93566383'
p845
ag557
ag159
aS'28055464'
p846
aS'81155296'
p847
asg55
I1000
sg56
Nsg57
(iread_data
Room
p848
(dp849
g55
g103
sg61
g104
sbsg63
g64
sg65
I0
sg61
S'Interactie-ontwerp'
p850
sbaa(lp851
(ischedule
Activity
p852
(dp853
g8
(lp854
g520
ag13
ag519
ag523
ag514
ag33
ag217
ag517
ag405
ag355
ag809
ag818
ag254
ag816
ag812
ag552
ag811
ag147
ag518
ag513
ag215
ag38
ag445
ag469
ag522
ag125
ag825
ag181
ag389
ag545
ag807
ag453
ag521
ag821
ag822
ag524
ag117
ag611
ag251
ag824
ag810
ag185
ag820
ag175
ag515
ag243
ag729
ag817
ag418
ag32
ag808
ag525
ag94
ag385
ag813
ag304
ag516
ag819
ag491
ag151
ag362
ag815
ag814
ag40
ag823
ag236
ag334
ag376
ag193
asg55
I1000
sg56
Nsg57
g766
sg63
g64
sg65
I0
sg61
g532
sba(ischedule
Activity
p855
(dp856
g8
(lp857
g352
ag597
ag482
ag257
ag258
ag841
ag145
ag634
ag306
ag221
ag196
ag23
ag613
ag191
ag483
ag123
ag288
ag632
ag401
ag274
aS'13132925'
p858
aS'62736669'
p859
ag350
ag121
ag723
ag505
aS'75005528'
p860
aS'56191333'
p861
aS'58083680'
p862
asg55
g797
sg56
(ischedule
Group
p863
(dp864
g8
g857
sg61
S'Databases 22'
p865
sbsg57
(iread_data
Room
p866
(dp867
g55
g169
sg61
g170
sbsg63
g105
sg65
g171
sg61
g803
sba(ischedule
Activity
p868
(dp869
g8
(lp870
g179
ag54
ag24
ag720
ag192
ag765
ag546
ag598
ag284
ag51
aS'19858730'
p871
aS'14941752'
p872
ag10
aS'94930277'
p873
ag302
aS'4353500'
p874
ag126
ag391
ag327
aS'45660925'
p875
aS'87210640'
p876
aS'53775014'
p877
ag626
ag354
aS'20830477'
p878
aS'79879876'
p879
aS'97417002'
p880
ag183
ag490
ag407
ag111
ag387
ag484
ag71
ag493
ag409
asg55
S'25'
p881
sg56
(ischedule
Group
p882
(dp883
g8
g870
sg61
S'Heuristieken 12'
p884
sbsg57
(iread_data
Room
p885
(dp886
g55
g208
sg61
g209
sbsg63
g105
sg65
g171
sg61
S'Heuristieken 1'
p887
sba(ischedule
Activity
p888
(dp889
g8
(lp890
g392
ag390
ag386
ag625
ag25
ag446
ag277
ag456
ag119
ag574
ag573
aS'20618153'
p891
aS'76648468'
p892
ag324
aS'28358060'
p893
ag612
ag681
ag281
ag724
ag844
ag300
aS'76903244'
p894
aS'49908313'
p895
ag789
aS'24891081'
p896
aS'1137946'
p897
asg55
S'20'
p898
sg56
(ischedule
Group
p899
(dp900
g8
g890
sg61
S'Webprogrammeren en databases1'
p901
sbsg57
(iread_data
Room
p902
(dp903
g55
g103
sg61
g104
sbsg63
g230
sg65
g106
sg61
S'Webprogrammeren en databases'
p904
sba(ischedule
Activity
p905
(dp906
g8
(lp907
g309
ag176
ag318
ag408
ag28
ag154
aS'93023961'
p908
aS'66122625'
p909
aS'19337738'
p910
ag78
aS'68360259'
p911
ag747
aS'87314964'
p912
asg55
g432
sg56
(ischedule
Group
p913
(dp914
g8
g907
sg61
S'Data Mining2'
p915
sbsg57
(iread_data
Room
p916
(dp917
g55
g369
sg61
g370
sbsg63
g105
sg65
g171
sg61
g438
sba(ischedule
Activity
p918
(dp919
g8
g703
sg55
S'10'
p920
sg56
g706
sg57
(iread_data
Room
p921
(dp922
g55
g136
sg61
g137
sbsg63
g230
sg65
g106
sg61
g438
sba(ischedule
Activity
p923
(dp924
g8
(lp925
g27
ag731
ag631
ag253
aS'88519892'
p926
ag118
ag257
ag745
asg55
g581
sg56
(ischedule
Group
p927
(dp928
g8
g925
sg61
S'Programmeren in Java 24'
p929
sbsg57
(iread_data
Room
p930
(dp931
g55
g228
sg61
g229
sbsg63
g230
sg65
g477
sg61
g588
sbaa(lp932
(ischedule
Activity
p933
(dp934
g8
(lp935
g146
ag116
ag157
ag151
ag142
ag128
ag118
ag163
ag50
ag152
ag149
ag147
ag145
ag144
ag159
ag154
ag123
ag124
ag113
ag114
ag155
ag122
ag160
ag126
ag36
ag117
ag148
ag143
ag127
ag153
ag129
ag162
ag125
ag112
ag111
ag120
ag156
ag161
ag119
ag150
ag121
ag115
ag158
asg55
I1000
sg56
Nsg57
(iread_data
Room
p936
(dp937
g55
g169
sg61
g170
sbsg63
g64
sg65
I0
sg61
g138
sba(ischedule
Activity
p938
(dp939
g8
(lp940
g390
aS'13218321'
p941
ag625
aS'63111000'
p942
ag414
ag545
ag286
aS'59111489'
p943
ag47
ag723
ag81
ag746
ag181
ag376
asg55
g363
sg56
(ischedule
Group
p944
(dp945
g8
g940
sg61
S'Moderne Databases1'
p946
sbsg57
(iread_data
Room
p947
(dp948
g55
g208
sg61
g209
sbsg63
g230
sg65
g106
sg61
g371
sba(ischedule
Activity
p949
(dp950
g8
(lp951
g469
ag190
ag575
ag79
ag237
ag520
ag383
ag445
ag815
ag415
ag872
aS'63939720'
p952
aS'40911986'
p953
ag301
aS'19662602'
p954
ag182
ag273
aS'81116418'
p955
ag329
ag48
ag727
ag823
aS'21070547'
p956
ag517
asg55
S'15'
p957
sg56
(ischedule
Group
p958
(dp959
g8
g951
sg61
S'Project Numerical Recipes1'
p960
sbsg57
(iread_data
Room
p961
(dp962
g55
g228
sg61
g229
sbsg63
g230
sg65
g106
sg61
S'Project Numerical Recipes'
p963
sba(ischedule
Activity
p964
(dp965
g8
g345
sg55
S'20'
p966
sg56
g364
sg57
(iread_data
Room
p967
(dp968
g55
g136
sg61
g137
sbsg63
g105
sg65
g171
sg61
g371
sba(ischedule
Activity
p969
(dp970
g8
(lp971
g14
ag49
ag44
ag38
ag11
ag31
ag20
ag28
ag26
ag53
ag37
ag35
ag54
ag42
ag13
ag18
ag30
ag39
ag22
ag12
ag32
asg55
g641
sg56
(ischedule
Group
p972
(dp973
g8
g971
sg61
S'Bioinformatica1'
p974
sbsg57
(iread_data
Room
p975
(dp976
g55
g103
sg61
g104
sbsg63
g230
sg65
g106
sg61
g66
sba(ischedule
Activity
p977
(dp978
g8
(lp979
g94
aS'73196865'
p980
aS'26857113'
p981
ag279
ag597
ag598
aS'88263855'
p982
ag739
aS'90296821'
p983
aS'64053722'
p984
ag492
ag613
asg55
g581
sg56
(ischedule
Group
p985
(dp986
g8
g979
sg61
S'Programmeren in Java 26'
p987
sbsg57
(iread_data
Room
p988
(dp989
g55
g369
sg61
g370
sbsg63
g230
sg65
S'6'
p990
sg61
g588
sba(ischedule
Activity
p991
(dp992
g8
(lp993
S'58253841'
p994
ag339
asg55
S'15'
p995
sg56
(ischedule
Group
p996
(dp997
g8
g993
sg61
S'Zoeken sturen en bewegen3'
p998
sbsg57
(iread_data
Room
p999
(dp1000
g55
g60
sg61
g62
sbsg63
g230
sg65
g295
sg61
S'Zoeken sturen en bewegen'
p1001
sbaa(lp1002
(ischedule
Activity
p1003
(dp1004
g8
(lp1005
g346
ag942
ag308
ag362
ag221
ag149
ag353
ag349
ag595
ag336
ag357
ag27
ag524
ag943
ag941
ag723
ag414
aS'27241113'
p1006
ag152
ag352
ag350
aS'48198668'
p1007
ag259
ag545
ag360
aS'96082155'
p1008
ag181
aS'66621166'
p1009
ag625
ag183
ag355
ag358
ag376
ag23
aS'1181560'
p1010
ag390
ag286
ag348
ag359
ag29
ag175
ag746
ag356
ag354
ag347
ag316
ag81
ag45
ag192
ag361
ag351
ag47
ag325
ag758
asg55
I1000
sg56
Nsg57
(iread_data
Room
p1011
(dp1012
g55
g169
sg61
g170
sbsg63
g64
sg65
I0
sg61
g371
sba(ischedule
Activity
p1013
(dp1014
g8
(lp1015
g328
ag306
ag123
aS'59887191'
p1016
ag469
ag494
ag383
ag874
ag554
ag859
ag239
ag322
ag151
ag19
ag238
aS'70939718'
p1017
ag481
ag185
aS'123355'
p1018
ag523
ag113
aS'12170832'
p1019
ag861
ag17
asg55
g420
sg56
(ischedule
Group
p1020
(dp1021
g8
g1015
sg61
S'Netwerken en systeembeveiliging1'
p1022
sbsg57
(iread_data
Room
p1023
(dp1024
g55
g228
sg61
g229
sbsg63
g230
sg65
g106
sg61
g426
sba(ischedule
Activity
p1025
(dp1026
g8
g971
sg55
g536
sg56
g972
sg57
(iread_data
Room
p1027
(dp1028
g55
g208
sg61
g209
sbsg63
g105
sg65
g106
sg61
g66
sba(ischedule
Activity
p1029
(dp1030
g8
(lp1031
g25
ag40
ag191
ag789
aS'53512831'
p1032
ag392
ag324
ag724
aS'10698627'
p1033
ag272
aS'67073567'
p1034
aS'41790793'
p1035
ag386
ag896
ag146
ag612
ag300
ag844
ag119
ag873
ag281
ag891
ag218
ag277
ag897
ag390
ag892
ag625
ag456
ag573
ag88
ag147
aS'16333449'
p1036
ag446
ag895
ag893
ag574
ag681
ag894
asg55
I1000
sg56
Nsg57
(iread_data
Room
p1037
(dp1038
g55
g103
sg61
g104
sbsg63
g64
sg65
I0
sg61
g904
sba(ischedule
Activity
p1039
(dp1040
g8
(lp1041
g145
ag236
ag179
ag220
ag347
ag309
ag237
ag871
ag142
asg55
S'10'
p1042
sg56
(ischedule
Group
p1043
(dp1044
g8
g1041
sg61
S'Autonomous Agents 23'
p1045
sbsg57
(iread_data
Room
p1046
(dp1047
g55
g60
sg61
g62
sbsg63
g105
sg65
g295
sg61
g676
sba(ischedule
Activity
p1048
(dp1049
g8
(lp1050
g199
ag304
ag333
ag70
asg55
S'20'
p1051
sg56
(ischedule
Group
p1052
(dp1053
g8
g1050
sg61
S'Reflectie op de digitale cultuur1'
p1054
sbsg57
(iread_data
Room
p1055
(dp1056
g55
g369
sg61
g370
sbsg63
g105
sg65
g106
sg61
g342
sba(ischedule
Activity
p1057
(dp1058
g8
(lp1059
S'37419523'
p1060
ag320
ag41
ag284
asg55
g957
sg56
(ischedule
Group
p1061
(dp1062
g8
g1059
sg61
S'Project Numerical Recipes2'
p1063
sbsg57
(iread_data
Room
p1064
(dp1065
g55
g136
sg61
g137
sbsg63
g230
sg65
g171
sg61
g963
sbaa(lp1066
(ischedule
Activity
p1067
(dp1068
g8
g1041
sg55
g668
sg56
g1043
sg57
(iread_data
Room
p1069
(dp1070
g55
g711
sg61
g712
sbsg63
g230
sg65
g295
sg61
g676
sba(ischedule
Activity
p1071
(dp1072
g8
g9
sg55
I1000
sg56
Nsg57
(iread_data
Room
p1073
(dp1074
g55
g693
sg61
g694
sbsg63
g64
sg65
I0
sg61
g66
sba(ischedule
Activity
p1075
(dp1076
g8
(lp1077
g625
ag315
ag392
ag390
ag143
ag144
ag334
ag335
ag381
ag327
ag406
ag148
ag739
ag759
ag484
ag86
ag280
ag763
ag73
ag149
ag727
ag761
ag762
ag765
ag501
ag741
ag760
ag764
ag499
ag758
asg55
g260
sg56
(ischedule
Group
p1078
(dp1079
g8
g1077
sg61
S'Software engineering2'
p1080
sbsg57
(iread_data
Room
p1081
(dp1082
g55
g750
sg61
g751
sbsg63
g105
sg65
g171
sg61
g266
sba(ischedule
Activity
p1083
(dp1084
g8
g442
sg55
g690
sg56
g460
sg57
(iread_data
Room
p1085
(dp1086
g55
g659
sg61
g660
sbsg63
g105
sg65
g171
sg61
g465
sba(ischedule
Activity
p1087
(dp1088
g8
(lp1089
S'61611295'
p1090
asg55
g1042
sg56
(ischedule
Group
p1091
(dp1092
g8
g1089
sg61
S'Autonomous Agents 21'
p1093
sbsg57
(iread_data
Room
p1094
(dp1095
g55
g699
sg61
g700
sbsg63
g105
sg65
g106
sg61
g676
sba(ischedule
Activity
p1096
(dp1097
g8
g110
sg55
g656
sg56
g131
sg57
(iread_data
Room
p1098
(dp1099
g55
g674
sg61
g675
sbsg63
g230
sg65
g106
sg61
g138
sba(ischedule
Activity
p1100
(dp1101
g8
(lp1102
g873
ag146
ag1036
ag191
ag147
ag40
ag1032
ag1033
ag218
ag88
ag1034
ag1035
ag272
asg55
g898
sg56
(ischedule
Group
p1103
(dp1104
g8
g1102
sg61
S'Webprogrammeren en databases2'
p1105
sbsg57
(iread_data
Room
p1106
(dp1107
g55
g686
sg61
g687
sbsg63
g230
sg65
g171
sg61
g904
sbaaa(lp1108
(lp1109
(ischedule
Activity
p1110
(dp1111
g8
g715
sg55
I1000
sg56
Nsg57
(iread_data
Room
p1112
(dp1113
g55
g750
sg61
g751
sbsg63
g64
sg65
I0
sg61
g752
sba(ischedule
Activity
p1114
(dp1115
g8
(lp1116
g327
ag145
ag44
ag237
ag647
ag513
ag667
ag871
ag220
ag179
ag236
ag664
ag515
ag347
ag309
ag91
ag665
ag666
ag1090
ag258
ag142
ag28
asg55
I1000
sg56
Nsg57
(iread_data
Room
p1117
(dp1118
g55
g136
sg61
g137
sbsg63
g64
sg65
I0
sg61
g676
sba(ischedule
Activity
p1119
(dp1120
g8
g1031
sg55
I1000
sg56
Nsg57
(iread_data
Room
p1121
(dp1122
g55
g208
sg61
g209
sbsg63
g64
sg65
I0
sg61
g904
sba(ischedule
Activity
p1123
(dp1124
g8
(lp1125
g175
ag184
ag21
ag299
ag306
aS'41644639'
p1126
ag38
ag302
ag47
aS'57419039'
p1127
ag83
ag50
ag576
ag764
ag159
aS'33946407'
p1128
ag448
ag594
ag26
ag502
aS'82233873'
p1129
ag337
aS'59220392'
p1130
ag795
ag346
asg55
g995
sg56
(ischedule
Group
p1131
(dp1132
g8
g1125
sg61
S'Zoeken sturen en bewegen1'
p1133
sbsg57
(iread_data
Room
p1134
(dp1135
g55
g228
sg61
g229
sbsg63
g230
sg65
g106
sg61
g1001
sba(ischedule
Activity
p1136
(dp1137
g8
(lp1138
g308
ag149
ag152
ag325
ag595
ag1008
ag316
ag1010
ag524
ag758
ag1006
ag45
ag336
ag29
ag23
ag1007
ag1009
ag259
ag221
ag27
asg55
g966
sg56
(ischedule
Group
p1139
(dp1140
g8
g1138
sg61
S'Moderne Databases3'
p1141
sbsg57
(iread_data
Room
p1142
(dp1143
g55
g369
sg61
g370
sbsg63
g105
sg65
g295
sg61
g371
sba(ischedule
Activity
p1144
(dp1145
g8
(lp1146
g154
aS'55103073'
p1147
aS'44151631'
p1148
ag489
aS'42297781'
p1149
ag579
aS'82066165'
p1150
asg55
g560
sg56
(ischedule
Group
p1151
(dp1152
g8
g1146
sg61
S'Compilerbouw practicum2'
p1153
sbsg57
(iread_data
Room
p1154
(dp1155
g55
g169
sg61
g170
sbsg63
g230
sg65
g171
sg61
g566
sbaa(lp1156
(ischedule
Activity
p1157
(dp1158
g8
(lp1159
g1036
ag201
ag91
ag664
aS'34588570'
p1160
ag347
ag146
ag250
ag255
ag431
ag492
ag470
ag792
aS'80998260'
p1161
ag416
ag667
ag499
aS'32595335'
p1162
aS'16011419'
p1163
aS'66570705'
p1164
ag448
ag348
ag634
ag520
aS'96118484'
p1165
ag739
ag445
aS'26172512'
p1166
ag444
ag380
ag505
ag220
ag80
ag288
ag765
ag273
ag49
aS'79937969'
p1167
ag299
ag845
ag720
aS'90743504'
p1168
ag860
ag418
ag151
ag42
ag214
ag501
ag546
aS'21311067'
p1169
aS'54074680'
p1170
aS'55412918'
p1171
ag54
ag453
asg55
I1000
sg56
Nsg57
(iread_data
Room
p1172
(dp1173
g55
g103
sg61
g104
sbsg63
g64
sg65
I0
sg61
S'Lineaire Algebra'
p1174
sba(ischedule
Activity
p1175
(dp1176
g8
g9
sg55
I1000
sg56
Nsg57
(iread_data
Room
p1177
(dp1178
g55
g208
sg61
g209
sbsg63
g64
sg65
I0
sg61
g66
sba(ischedule
Activity
p1179
(dp1180
g8
(lp1181
g160
ag70
ag240
aS'90067329'
p1182
ag388
ag725
ag570
ag812
ag94
aS'67625383'
p1183
ag144
ag238
ag515
ag443
ag981
ag389
ag809
ag47
ag303
aS'33252501'
p1184
ag942
ag301
asg55
I1000
sg56
Nsg57
(iread_data
Room
p1185
(dp1186
g55
g169
sg61
g170
sbsg63
g64
sg65
I0
sg61
S'Machine Learning'
p1187
sba(ischedule
Activity
p1188
(dp1189
g8
(lp1190
g819
ag309
ag176
ag909
aS'53107172'
p1191
ag346
aS'76393508'
p1192
ag630
asg55
g881
sg56
(ischedule
Group
p1193
(dp1194
g8
g1190
sg61
S'Heuristieken 11'
p1195
sbsg57
(iread_data
Room
p1196
(dp1197
g55
g228
sg61
g229
sbsg63
g105
sg65
g106
sg61
g887
sba(ischedule
Activity
p1198
(dp1199
g8
(lp1200
g192
ag454
ag179
ag175
ag555
ag598
ag155
ag352
ag597
ag599
ag375
ag594
ag494
ag596
ag593
ag302
ag178
ag276
ag595
asg55
S'15'
p1201
sg56
(ischedule
Group
p1202
(dp1203
g8
g1200
sg61
S'Informatie- en organisatieontwerp1'
p1204
sbsg57
(iread_data
Room
p1205
(dp1206
g55
g369
sg61
g370
sbsg63
g230
sg65
g106
sg61
g602
sba(ischedule
Activity
p1207
(dp1208
g8
(lp1209
g129
ag747
ag521
ag186
ag284
ag280
ag92
ag825
ag823
ag245
ag187
ag519
ag721
ag72
aS'54395877'
p1210
ag321
aS'10702778'
p1211
ag331
asg55
g581
sg56
(ischedule
Group
p1212
(dp1213
g8
g1209
sg61
S'Programmeren in Java 23'
p1214
sbsg57
(iread_data
Room
p1215
(dp1216
g55
g60
sg61
g62
sbsg63
g230
sg65
g295
sg61
g588
sba(ischedule
Activity
p1217
(dp1218
g8
(lp1219
g336
ag113
ag994
ag328
ag488
aS'14179347'
p1220
ag793
ag726
aS'40633534'
p1221
ag334
ag1126
aS'55480737'
p1222
aS'75680261'
p1223
ag379
ag553
ag788
ag412
ag548
ag95
ag758
ag455
asg55
g222
sg56
(ischedule
Group
p1224
(dp1225
g8
g1219
sg61
S'Project Genetic Algorithms3'
p1226
sbsg57
(iread_data
Room
p1227
(dp1228
g55
g136
sg61
g137
sbsg63
g230
sg65
g295
sg61
g231
sbaa(lp1229
(ischedule
Activity
p1230
(dp1231
g8
g679
sg55
I1000
sg56
Nsg57
(iread_data
Room
p1232
(dp1233
g55
g750
sg61
g751
sbsg63
g64
sg65
I0
sg61
g210
sba(ischedule
Activity
p1234
(dp1235
g8
(lp1236
g286
ag36
ag878
ag879
ag820
ag238
ag704
ag352
ag316
aS'7386961'
p1237
ag469
ag239
ag116
ag559
ag241
ag845
ag453
ag155
ag634
ag515
ag444
ag891
ag120
ag493
ag242
ag337
ag38
ag282
aS'39905995'
p1238
ag52
ag454
ag705
ag1033
ag446
ag87
ag505
ag299
ag431
ag504
ag240
aS'85284256'
p1239
ag458
ag942
ag37
ag128
aS'73893840'
p1240
aS'51791169'
p1241
ag125
ag810
ag111
ag808
ag160
ag451
ag24
ag405
asg55
g581
sg56
(ischedule
Group
p1242
(dp1243
g8
g1236
sg61
S'Programmeren in Java 21'
p1244
sbsg57
(iread_data
Room
p1245
(dp1246
g55
g103
sg61
g104
sbsg63
g230
sg65
g106
sg61
g588
sba(ischedule
Activity
p1247
(dp1248
g8
(lp1249
g147
ag307
ag17
ag32
ag43
aS'34691309'
p1250
ag362
ag860
ag243
ag840
aS'90103047'
p1251
aS'32183908'
p1252
ag82
ag413
ag704
ag523
asg55
g957
sg56
(ischedule
Group
p1253
(dp1254
g8
g1249
sg61
S'Project Numerical Recipes3'
p1255
sbsg57
(iread_data
Room
p1256
(dp1257
g55
g169
sg61
g170
sbsg63
g230
sg65
g295
sg61
g963
sba(ischedule
Activity
p1258
(dp1259
g8
(lp1260
g742
ag665
ag40
ag142
ag744
ag456
ag348
aS'57701414'
p1261
aS'24167153'
p1262
ag519
aS'37804282'
p1263
ag522
ag319
ag1016
aS'13210212'
p1264
asg55
g995
sg56
(ischedule
Group
p1265
(dp1266
g8
g1260
sg61
S'Zoeken sturen en bewegen2'
p1267
sbsg57
(iread_data
Room
p1268
(dp1269
g55
g369
sg61
g370
sbsg63
g230
sg65
g171
sg61
g1001
sba(ischedule
Activity
p1270
(dp1271
g8
g1077
sg55
g605
sg56
g1078
sg57
(iread_data
Room
p1272
(dp1273
g55
g228
sg61
g229
sbsg63
g230
sg65
g171
sg61
g266
sbaa(lp1274
(ischedule
Activity
p1275
(dp1276
g8
(lp1277
g192
aS'13534377'
p1278
ag118
ag83
ag196
ag446
ag454
ag215
ag270
ag347
ag257
ag308
ag443
ag456
ag244
aS'17575088'
p1279
ag377
ag346
ag351
ag216
ag452
ag247
ag17
ag386
ag471
ag49
ag33
ag445
ag123
ag807
ag450
ag453
ag455
ag738
ag469
ag243
ag154
ag457
ag71
ag246
ag470
ag184
ag77
ag1191
ag451
ag349
ag483
ag409
ag447
ag93
ag458
ag150
ag482
ag277
ag187
ag449
ag36
aS'22699561'
p1280
ag307
ag448
ag444
asg55
I1000
sg56
Nsg57
g766
sg63
g64
sg65
I0
sg61
g465
sba(ischedule
Activity
p1281
(dp1282
g8
(lp1283
g37
ag484
ag793
ag379
ag201
ag556
aS'56348773'
p1284
ag354
ag162
aS'72526473'
p1285
ag29
ag14
ag847
aS'65978354'
p1286
ag731
ag820
aS'61520025'
p1287
aS'19717077'
p1288
aS'55530367'
p1289
ag160
ag843
ag51
ag792
ag1220
ag54
ag729
aS'62363761'
p1290
aS'31306819'
p1291
ag613
ag1130
aS'6709529'
p1292
aS'23628642'
p1293
ag248
ag496
ag360
ag745
ag1171
ag38
aS'75446434'
p1294
ag376
ag42
ag1017
ag764
ag994
ag742
aS'10609762'
p1295
ag517
ag525
ag217
ag361
ag18
aS'34173695'
p1296
ag259
asg55
g97
sg56
(ischedule
Group
p1297
(dp1298
g8
g1283
sg61
S'Calculus 22'
p1299
sbsg57
(iread_data
Room
p1300
(dp1301
g55
g659
sg61
g660
sbsg63
g105
sg65
g171
sg61
g107
sba(ischedule
Activity
p1302
(dp1303
g8
g663
sg55
g1042
sg56
g669
sg57
(iread_data
Room
p1304
(dp1305
g55
g169
sg61
g170
sbsg63
g105
sg65
g171
sg61
g676
sba(ischedule
Activity
p1306
(dp1307
g8
(lp1308
g309
ag316
ag332
ag319
ag300
ag334
ag318
ag306
ag302
ag311
ag125
ag326
ag337
ag323
ag324
ag325
ag335
ag339
ag317
ag305
ag143
ag321
ag310
ag30
ag331
ag214
ag45
ag112
ag301
ag330
ag299
ag52
ag336
asg55
g1051
sg56
(ischedule
Group
p1309
(dp1310
g8
g1308
sg61
S'Reflectie op de digitale cultuur3'
p1311
sbsg57
(iread_data
Room
p1312
(dp1313
g55
g228
sg61
g229
sbsg63
g105
sg65
g295
sg61
g342
sba(ischedule
Activity
p1314
(dp1315
g8
(lp1316
g25
ag41
ag43
ag10
ag40
ag15
ag34
asg55
g536
sg56
(ischedule
Group
p1317
(dp1318
g8
g1316
sg61
S'Bioinformatica2'
p1319
sbsg57
(iread_data
Room
p1320
(dp1321
g55
g208
sg61
g209
sbsg63
g105
sg65
g171
sg61
g66
sba(ischedule
Activity
p1322
(dp1323
g8
g1089
sg55
g668
sg56
g1091
sg57
(iread_data
Room
p1324
(dp1325
g55
g369
sg61
g370
sbsg63
g230
sg65
g106
sg61
g676
sbaa(lp1326
(ischedule
Activity
p1327
(dp1328
g8
g837
sg55
I1000
sg56
Nsg57
(iread_data
Room
p1329
(dp1330
g55
g693
sg61
g694
sbsg63
g64
sg65
I0
sg61
g850
sba(ischedule
Activity
p1331
(dp1332
g8
(lp1333
g35
ag180
asg55
g1201
sg56
(ischedule
Group
p1334
(dp1335
g8
g1333
sg61
S'Informatie- en organisatieontwerp2'
p1336
sbsg57
(iread_data
Room
p1337
(dp1338
g55
g659
sg61
g660
sbsg63
g230
sg65
g171
sg61
g602
sba(ischedule
Activity
p1339
(dp1340
g8
g1200
sg55
S'15'
p1341
sg56
g1202
sg57
(iread_data
Room
p1342
(dp1343
g55
g674
sg61
g675
sbsg63
g105
sg65
g106
sg61
g602
sba(ischedule
Activity
p1344
(dp1345
g8
g907
sg55
g920
sg56
g913
sg57
(iread_data
Room
p1346
(dp1347
g55
g686
sg61
g687
sbsg63
g230
sg65
g171
sg61
g438
sba(ischedule
Activity
p1348
(dp1349
g8
(lp1350
g125
ag18
ag22
ag515
ag24
ag183
ag794
ag859
ag634
ag219
ag51
ag858
ag841
ag191
ag489
ag288
ag796
ag793
ag788
ag308
ag128
ag23
ag385
ag456
ag514
ag862
ag196
ag613
ag119
ag791
ag347
ag485
ag307
ag257
ag82
ag795
ag90
ag321
ag274
ag121
ag221
ag350
ag487
ag72
ag351
ag860
ag49
ag723
ag483
ag632
ag123
ag145
ag289
ag861
ag790
ag352
ag513
ag517
ag152
ag401
ag792
ag15
ag505
ag789
ag306
ag402
ag453
ag258
ag126
ag482
ag597
ag339
asg55
I1000
sg56
Nsg57
(iread_data
Room
p1351
(dp1352
g55
g750
sg61
g751
sbsg63
g64
sg65
I0
sg61
g803
sba(ischedule
Activity
p1353
(dp1354
g8
g429
sg55
g920
sg56
g433
sg57
(iread_data
Room
p1355
(dp1356
g55
g711
sg61
g712
sbsg63
g230
sg65
g295
sg61
g438
sba(ischedule
Activity
p1357
(dp1358
g8
g806
sg55
S'40'
p1359
sg56
g826
sg57
(iread_data
Room
p1360
(dp1361
g55
g699
sg61
g700
sbsg63
g230
sg65
g106
sg61
g532
sbaaa(lp1362
(lp1363
(ischedule
Activity
p1364
(dp1365
g8
g1277
sg55
I1000
sg56
Nsg57
(iread_data
Room
p1366
(dp1367
g55
g103
sg61
g104
sbsg63
g64
sg65
I0
sg61
g465
sba(ischedule
Activity
p1368
(dp1369
g8
(lp1370
g78
ag408
ag39
ag431
ag499
ag238
ag747
ag908
ag705
ag28
ag911
ag318
ag176
ag145
ag704
ag319
ag36
ag35
ag594
ag154
ag404
ag309
ag430
ag909
ag912
ag413
ag910
asg55
I1000
sg56
Nsg57
(iread_data
Room
p1371
(dp1372
g55
g208
sg61
g209
sbsg63
g64
sg65
I0
sg61
g438
sba(ischedule
Activity
p1373
(dp1374
g8
(lp1375
g625
ag161
ag304
ag144
ag634
ag91
ag39
ag379
ag43
ag624
ag635
asg55
g771
sg56
(ischedule
Group
p1376
(dp1377
g8
g1375
sg61
S'Heuristieken 22'
p1378
sbsg57
(iread_data
Room
p1379
(dp1380
g55
g228
sg61
g229
sbsg63
g105
sg65
g171
sg61
g638
sba(ischedule
Activity
p1381
(dp1382
g8
g512
sg55
g1359
sg56
g527
sg57
(iread_data
Room
p1383
(dp1384
g55
g60
sg61
g62
sbsg63
g230
sg65
g171
sg61
g532
sba(ischedule
Activity
p1385
(dp1386
g8
(lp1387
g384
ag112
ag281
ag628
aS'39429093'
p1388
ag386
ag556
ag383
ag486
ag1221
ag284
ag612
ag354
ag306
ag322
ag611
ag15
ag613
ag34
ag184
asg55
I1000
sg56
Nsg57
(iread_data
Room
p1389
(dp1390
g55
g136
sg61
g137
sbsg63
g64
sg65
I0
sg61
g620
sbaa(lp1391
(ischedule
Activity
p1392
(dp1393
g8
g1277
sg55
I1000
sg56
Nsg57
(iread_data
Room
p1394
(dp1395
g55
g750
sg61
g751
sbsg63
g64
sg65
I0
sg61
g465
sba(ischedule
Activity
p1396
(dp1397
g8
g940
sg55
g966
sg56
g944
sg57
(iread_data
Room
p1398
(dp1399
g55
g369
sg61
g370
sbsg63
g105
sg65
g106
sg61
g371
sba(ischedule
Activity
p1400
(dp1401
g8
g1333
sg55
g1341
sg56
g1334
sg57
(iread_data
Room
p1402
(dp1403
g55
g103
sg61
g104
sbsg63
g105
sg65
g171
sg61
g602
sba(ischedule
Activity
p1404
(dp1405
g8
g1116
sg55
I1000
sg56
Nsg57
(iread_data
Room
p1406
(dp1407
g55
g136
sg61
g137
sbsg63
g64
sg65
I0
sg61
g676
sba(ischedule
Activity
p1408
(dp1409
g8
g1102
sg55
S'20'
p1410
sg56
g1103
sg57
(iread_data
Room
p1411
(dp1412
g55
g208
sg61
g209
sbsg63
g105
sg65
g171
sg61
g904
sba(ischedule
Activity
p1413
(dp1414
g8
(lp1415
g13
ag419
ag1150
ag551
ag240
ag816
asg55
g222
sg56
(ischedule
Group
p1416
(dp1417
g8
g1415
sg61
S'Project Genetic Algorithms1'
p1418
sbsg57
(iread_data
Room
p1419
(dp1420
g55
g169
sg61
g170
sbsg63
g230
sg65
g106
sg61
g231
sbaa(lp1421
(ischedule
Activity
p1422
(dp1423
g8
(lp1424
g259
ag283
ag1289
ag85
ag217
ag72
ag792
ag75
ag16
ag742
ag281
ag731
ag277
ag496
ag1130
ag379
ag82
ag278
ag83
ag270
ag91
ag89
ag484
ag92
ag517
ag793
ag80
ag94
ag29
ag361
ag118
ag38
ag73
ag79
ag287
ag279
ag51
ag745
ag354
ag86
ag70
ag1285
ag248
ag142
ag280
ag282
ag286
ag120
ag360
ag289
ag273
ag1295
ag27
ag77
ag152
ag525
ag272
ag1286
ag81
ag1290
ag96
ag1291
ag556
ag285
ag994
ag276
ag1293
ag1171
ag84
ag1287
ag87
ag275
ag288
ag764
ag843
ag14
ag42
ag160
ag54
ag95
ag284
ag201
ag613
ag90
ag162
ag37
ag847
ag1284
ag88
ag729
ag93
ag71
ag376
ag18
ag1294
ag1288
ag78
ag1292
ag76
ag1017
ag1296
ag74
ag820
ag271
ag274
ag1220
asg55
I1000
sg56
Nsg57
(iread_data
Room
p1425
(dp1426
g55
g750
sg61
g751
sbsg63
g64
sg65
I0
sg61
g107
sba(ischedule
Activity
p1427
(dp1428
g8
g298
sg55
I1000
sg56
Nsg57
(iread_data
Room
p1429
(dp1430
g55
g103
sg61
g104
sbsg63
g64
sg65
I0
sg61
g342
sba(ischedule
Activity
p1431
(dp1432
g8
g1316
sg55
g641
sg56
g1317
sg57
(iread_data
Room
p1433
(dp1434
g55
g228
sg61
g229
sbsg63
g230
sg65
g171
sg61
g66
sba(ischedule
Activity
p1435
(dp1436
g8
(lp1437
g36
ag482
ag483
ag257
ag196
ag1279
ag154
ag243
ag807
asg55
g690
sg56
(ischedule
Group
p1438
(dp1439
g8
g1437
sg61
S'Collectieve Intelligentie1'
p1440
sbsg57
(iread_data
Room
p1441
(dp1442
g55
g208
sg61
g209
sbsg63
g105
sg65
g106
sg61
g465
sba(ischedule
Activity
p1443
(dp1444
g8
(lp1445
g150
ag1280
ag1278
ag123
ag244
ag17
ag1191
ag738
ag351
ag33
asg55
g459
sg56
(ischedule
Group
p1446
(dp1447
g8
g1445
sg61
S'Collectieve Intelligentie3'
p1448
sbsg57
(iread_data
Room
p1449
(dp1450
g55
g136
sg61
g137
sbsg63
g230
sg65
g295
sg61
g465
sbaa(lp1451
(ischedule
Activity
p1452
(dp1453
g8
g854
sg55
I1000
sg56
Nsg57
(iread_data
Room
p1454
(dp1455
g55
g750
sg61
g751
sbsg63
g64
sg65
I0
sg61
g532
sba(ischedule
Activity
p1456
(dp1457
g8
g1370
sg55
I1000
sg56
Nsg57
(iread_data
Room
p1458
(dp1459
g55
g103
sg61
g104
sbsg63
g64
sg65
I0
sg61
g438
sba(ischedule
Activity
p1460
(dp1461
g8
(lp1462
g180
ag450
aS'51472074'
p1463
ag153
ag143
ag1126
aS'47260040'
p1464
aS'5892092'
p1465
asg55
g560
sg56
(ischedule
Group
p1466
(dp1467
g8
g1462
sg61
S'Compilerbouw practicum3'
p1468
sbsg57
(iread_data
Room
p1469
(dp1470
g55
g208
sg61
g209
sbsg63
g230
sg65
g295
sg61
g566
sba(ischedule
Activity
p1471
(dp1472
g8
(lp1473
g1388
ag628
ag1221
ag384
ag15
ag383
ag306
ag281
ag284
asg55
g614
sg56
(ischedule
Group
p1474
(dp1475
g8
g1473
sg61
S'Advanced Heuristics2'
p1476
sbsg57
(iread_data
Room
p1477
(dp1478
g55
g169
sg61
g170
sbsg63
g230
sg65
g171
sg61
g620
sba(ischedule
Activity
p1479
(dp1480
g8
(lp1481
g327
ag308
ag307
ag328
ag313
ag37
ag303
ag312
ag320
ag329
ag338
ag314
ag315
ag322
asg55
g1051
sg56
(ischedule
Group
p1482
(dp1483
g8
g1481
sg61
S'Reflectie op de digitale cultuur2'
p1484
sbsg57
(iread_data
Room
p1485
(dp1486
g55
g369
sg61
g370
sbsg63
g105
sg65
g171
sg61
g342
sba(ischedule
Activity
p1487
(dp1488
g8
(lp1489
g300
ag325
aS'53267490'
p1490
ag1239
ag257
ag256
ag731
ag126
ag1290
ag83
ag485
asg55
g420
sg56
(ischedule
Group
p1491
(dp1492
g8
g1489
sg61
S'Netwerken en systeembeveiliging4'
p1493
sbsg57
(iread_data
Room
p1494
(dp1495
g55
g228
sg61
g229
sbsg63
g230
sg65
g477
sg61
g426
sba(ischedule
Activity
p1496
(dp1497
g8
(lp1498
g556
ag111
asg55
g420
sg56
(ischedule
Group
p1499
(dp1500
g8
g1498
sg61
S'Netwerken en systeembeveiliging2'
p1501
sbsg57
(iread_data
Room
p1502
(dp1503
g55
g136
sg61
g137
sbsg63
g230
sg65
g171
sg61
g426
sbaa(lp1504
(ischedule
Activity
p1505
(dp1506
g8
(lp1507
g183
ag176
ag1192
ag871
ag626
ag873
ag409
ag71
ag284
ag111
ag179
ag51
ag10
ag546
ag354
ag720
ag387
ag1191
ag876
ag192
ag874
ag24
ag879
ag878
ag598
ag490
ag880
ag819
ag54
ag126
ag630
ag877
ag493
ag327
ag875
ag407
ag765
ag309
ag346
ag484
ag909
ag302
ag391
ag872
asg55
I1000
sg56
Nsg57
(iread_data
Room
p1508
(dp1509
g55
g699
sg61
g700
sbsg63
g64
sg65
I0
sg61
g887
sba(ischedule
Activity
p1510
(dp1511
g8
g1159
sg55
I1000
sg56
Nsg57
(iread_data
Room
p1512
(dp1513
g55
g750
sg61
g751
sbsg63
g64
sg65
I0
sg61
g1174
sba(ischedule
Activity
p1514
(dp1515
g8
g1445
sg55
g690
sg56
g1446
sg57
(iread_data
Room
p1516
(dp1517
g55
g711
sg61
g712
sbsg63
g105
sg65
g295
sg61
g465
sba(ischedule
Activity
p1518
(dp1519
g8
g1181
sg55
I1000
sg56
Nsg57
(iread_data
Room
p1520
(dp1521
g55
g686
sg61
g687
sbsg63
g64
sg65
I0
sg61
g1187
sba(ischedule
Activity
p1522
(dp1523
g8
g890
sg55
g1410
sg56
g899
sg57
(iread_data
Room
p1524
(dp1525
g55
g659
sg61
g660
sbsg63
g105
sg65
g106
sg61
g904
sba(ischedule
Activity
p1526
(dp1527
g8
g1138
sg55
g363
sg56
g1139
sg57
g1073
sg63
g230
sg65
g295
sg61
g371
sba(ischedule
Activity
p1528
(dp1529
g8
g1437
sg55
g459
sg56
g1438
sg57
(iread_data
Room
p1530
(dp1531
g55
g674
sg61
g675
sbsg63
g230
sg65
g106
sg61
g465
sbaaa(lp1532
(lp1533
a(lp1534
a(lp1535
a(lp1536
a(lp1537
aasS'timeslot_dict'
p1538
(dp1539
I0
S'9:00-11:00'
p1540
sI1
S'11:00-13:00'
p1541
sI2
S'13:00-15:00'
p1542
sI3
S'15:00-17:00'
p1543
sI4
S'17:00-19:00'
p1544
ssS'day_dict'
p1545
(dp1546
I0
S'Monday'
p1547
sI1
S'Tuesday'
p1548
sI2
S'Wednesday'
p1549
sI3
S'Thursday'
p1550
sI4
S'Friday'
p1551
ssb.