(ischedule
Schedule
p0
(dp1
S'timetable'
p2
(lp3
(lp4
(lp5
(ischedule
Activity
p6
(dp7
S'participants'
p8
(lp9
S'75521763'
p10
aS'37110913'
p11
aS'19858730'
p12
aS'48357272'
p13
aS'4783858'
p14
aS'71839156'
p15
aS'66122625'
p16
aS'31897288'
p17
aS'22323043'
p18
aS'83443653'
p19
aS'94930277'
p20
aS'14816774'
p21
aS'14941752'
p22
aS'4353500'
p23
aS'58736785'
p24
aS'44901052'
p25
aS'57467488'
p26
aS'53775014'
p27
aS'97417002'
p28
aS'87210640'
p29
aS'81218347'
p30
aS'97019450'
p31
aS'36903574'
p32
aS'20331158'
p33
aS'14591033'
p34
aS'98105190'
p35
aS'56749879'
p36
aS'4568018'
p37
aS'45660925'
p38
aS'76393508'
p39
aS'20830477'
p40
aS'22871048'
p41
aS'79879876'
p42
aS'53107172'
p43
aS'14138904'
p44
aS'42171678'
p45
aS'1696500'
p46
aS'75997788'
p47
aS'59075181'
p48
aS'92977271'
p49
aS'86807027'
p50
aS'61060652'
p51
aS'11996292'
p52
aS'13658563'
p53
asS'capacity'
p54
I1000
sS'name'
p55
S'Heuristieken 1'
p56
sS'ttype'
p57
S'lectures'
p58
sS'group_id'
p59
I0
sS'room'
p60
(iread_data
Room
p61
(dp62
g54
S'20'
p63
sg55
S'A1.08'
p64
sbsba(ischedule
Activity
p65
(dp66
g8
(lp67
S'76661016'
p68
aS'40791377'
p69
aS'84524083'
p70
aS'53202517'
p71
aS'77896638'
p72
aS'76802764'
p73
aS'3407554'
p74
aS'66701209'
p75
aS'11915563'
p76
aS'75664412'
p77
aS'34243356'
p78
aS'2079771'
p79
aS'75599734'
p80
aS'27187154'
p81
aS'94687383'
p82
aS'13911001'
p83
aS'92665222'
p84
aS'60312776'
p85
aS'5595824'
p86
aS'8464817'
p87
aS'14309255'
p88
aS'24613625'
p89
aS'95631564'
p90
aS'79167252'
p91
aS'81385263'
p92
aS'2317551'
p93
aS'73236988'
p94
aS'27950803'
p95
aS'13284244'
p96
aS'75759231'
p97
aS'48503689'
p98
aS'6723948'
p99
aS'65960683'
p100
asg54
S'40'
p101
sg55
S'Compilerbouw'
p102
sg57
S'labs'
p103
sg59
S'1'
p104
sg60
(iread_data
Room
p105
(dp106
g54
S'22'
p107
sg55
S'A1.06'
p108
sbsba(ischedule
Activity
p109
(dp110
g8
(lp111
S'49631542'
p112
aS'40434933'
p113
aS'56191333'
p114
aS'60352393'
p115
aS'13132925'
p116
aS'42196732'
p117
aS'64947290'
p118
aS'5517869'
p119
aS'670011'
p120
aS'26406342'
p121
ag72
aS'47477884'
p122
aS'51542218'
p123
aS'56121590'
p124
aS'39459642'
p125
aS'5085194'
p126
aS'40141996'
p127
aS'25077484'
p128
aS'75005528'
p129
aS'17222374'
p130
aS'58592894'
p131
aS'78821918'
p132
aS'94686490'
p133
aS'4921119'
p134
aS'56872729'
p135
aS'64296965'
p136
aS'5526560'
p137
aS'23257088'
p138
aS'29640619'
p139
aS'90474003'
p140
aS'73823548'
p141
aS'51566595'
p142
aS'34872117'
p143
aS'83869542'
p144
aS'76123484'
p145
ag52
aS'47932106'
p146
aS'58332004'
p147
aS'70072978'
p148
aS'72456780'
p149
aS'59397895'
p150
aS'91527663'
p151
aS'43027916'
p152
ag36
aS'13092455'
p153
aS'37701751'
p154
aS'96054456'
p155
ag21
aS'17092717'
p156
aS'26207525'
p157
aS'12091019'
p158
aS'43902015'
p159
aS'54540997'
p160
aS'62736669'
p161
aS'52552718'
p162
aS'88752563'
p163
aS'3168419'
p164
aS'29526540'
p165
aS'82689818'
p166
ag26
aS'58083680'
p167
aS'86180471'
p168
aS'23658570'
p169
aS'46989508'
p170
aS'15187217'
p171
aS'247918'
p172
aS'4529208'
p173
aS'24277163'
p174
aS'77960666'
p175
aS'86988337'
p176
aS'27123462'
p177
aS'72796858'
p178
asg54
I1000
sg55
S'Databases 2'
p179
sg57
g58
sg59
I0
sg60
(iread_data
Room
p180
(dp181
g54
S'117'
p182
sg55
S'C0.110'
p183
sbsba(ischedule
Activity
p184
(dp185
g8
(lp186
S'54310617'
p187
aS'29474737'
p188
aS'97135019'
p189
ag152
aS'1075391'
p190
aS'45556081'
p191
aS'96104167'
p192
aS'21964491'
p193
aS'28357474'
p194
aS'86291592'
p195
aS'42778953'
p196
aS'68601184'
p197
aS'51741554'
p198
asg54
S'20'
p199
sg55
S'Collectieve Intelligentie'
p200
sg57
S'tutorials'
p201
sg59
S'3'
p202
sg60
(iread_data
Room
p203
(dp204
g54
S'48'
p205
sg55
S'B0.201'
p206
sbsba(ischedule
Activity
p207
(dp208
g8
(lp209
S'24891081'
p210
aS'41790793'
p211
aS'72577292'
p212
aS'14303208'
p213
aS'64228258'
p214
aS'61443567'
p215
aS'77392404'
p216
aS'69459473'
p217
aS'27064249'
p218
aS'78243495'
p219
aS'49908313'
p220
aS'10698627'
p221
ag113
aS'66034145'
p222
aS'57086672'
p223
aS'14847953'
p224
aS'5615125'
p225
aS'2416751'
p226
aS'53512831'
p227
ag145
aS'72895450'
p228
aS'89180944'
p229
aS'33877725'
p230
ag159
aS'39230359'
p231
aS'6249823'
p232
aS'3474870'
p233
ag20
ag156
aS'76648468'
p234
ag71
aS'16333449'
p235
aS'20618153'
p236
aS'67073567'
p237
aS'43460038'
p238
aS'76903244'
p239
aS'22288615'
p240
aS'1137946'
p241
aS'28358060'
p242
asg54
I1000
sg55
S'Webprogrammeren en databases'
p243
sg57
g58
sg59
I0
sg60
(iread_data
Room
p244
(dp245
g54
S'56'
p246
sg55
S'A1.10'
p247
sbsba(ischedule
Activity
p248
(dp249
g8
(lp250
g142
aS'87900893'
p251
aS'87314964'
p252
aS'91196968'
p253
aS'13116738'
p254
aS'68360259'
p255
aS'74131924'
p256
aS'97136582'
p257
aS'50143947'
p258
asg54
S'10'
p259
sg55
S'Data Mining'
p260
sg57
g103
sg59
g202
sg60
(iread_data
Room
p261
(dp262
g54
S'60'
p263
sg55
S'C1.112'
p264
sbsbaa(lp265
(ischedule
Activity
p266
(dp267
g8
(lp268
g142
aS'68409833'
p269
ag11
aS'27298319'
p270
aS'34806836'
p271
ag25
aS'16097870'
p272
ag256
asg54
S'10'
p273
sg55
S'Autonomous Agents 2'
p274
sg57
g201
sg59
g202
sg60
(iread_data
Room
p275
(dp276
g54
S'41'
p277
sg55
S'A1.04'
p278
sbsba(ischedule
Activity
p279
(dp280
g8
(lp281
S'12077419'
p282
aS'31194811'
p283
aS'80135353'
p284
aS'48308205'
p285
aS'5368702'
p286
aS'9067939'
p287
aS'79033175'
p288
aS'10792879'
p289
aS'88855695'
p290
aS'34110913'
p291
aS'83266686'
p292
aS'65852230'
p293
ag163
aS'95007221'
p294
aS'43689934'
p295
aS'68315599'
p296
ag178
ag170
ag99
ag100
aS'15911353'
p297
aS'88636924'
p298
aS'58522654'
p299
aS'44391517'
p300
ag143
aS'1766560'
p301
aS'30658799'
p302
ag196
aS'54772132'
p303
aS'11741347'
p304
aS'37770881'
p305
ag195
aS'7957843'
p306
ag88
ag70
ag83
ag72
asg54
S'40'
p307
sg55
g102
sg57
g201
sg59
S'2'
p308
sg60
(iread_data
Room
p309
(dp310
g54
g263
sg55
g264
sbsba(ischedule
Activity
p311
(dp312
g8
(lp313
g162
aS'52311353'
p314
aS'44868097'
p315
aS'4546613'
p316
ag13
ag14
aS'42115591'
p317
aS'54026378'
p318
aS'80709893'
p319
aS'55474917'
p320
ag229
aS'78443067'
p321
aS'11068043'
p322
aS'51593625'
p323
aS'96554914'
p324
aS'52715680'
p325
aS'58074656'
p326
aS'31103066'
p327
aS'37830626'
p328
ag95
aS'59544049'
p329
aS'58565406'
p330
aS'31247305'
p331
aS'62105897'
p332
aS'27582862'
p333
ag80
aS'9287708'
p334
aS'94467156'
p335
aS'26260141'
p336
aS'77376714'
p337
aS'70015932'
p338
aS'14072826'
p339
aS'73302736'
p340
aS'3727435'
p341
aS'83210352'
p342
aS'88176729'
p343
ag139
aS'99283252'
p344
asg54
S'40'
p345
sg55
S'Software engineering'
p346
sg57
g201
sg59
g104
sg60
(iread_data
Room
p347
(dp348
g54
g246
sg55
g247
sbsba(ischedule
Activity
p349
(dp350
g8
(lp351
S'56988998'
p352
aS'85236626'
p353
aS'15051051'
p354
aS'3685034'
p355
aS'26857113'
p356
ag125
aS'49683101'
p357
ag81
aS'33252501'
p358
aS'46701583'
p359
aS'37744525'
p360
aS'61518436'
p361
aS'90067329'
p362
aS'77240949'
p363
ag335
aS'38296757'
p364
aS'5976174'
p365
aS'67625383'
p366
aS'63111000'
p367
ag79
aS'23798155'
p368
ag69
asg54
I1000
sg55
S'Machine Learning'
p369
sg57
g58
sg59
I0
sg60
(iread_data
Room
p370
(dp371
g54
g205
sg55
g206
sbsba(ischedule
Activity
p372
(dp373
g8
(lp374
S'85284256'
p375
aS'23983476'
p376
aS'47982619'
p377
aS'22826928'
p378
ag221
aS'60661905'
p379
aS'45414528'
p380
ag215
aS'1048485'
p381
ag155
aS'2550487'
p382
aS'13996448'
p383
ag42
ag193
ag36
aS'34262212'
p384
ag98
aS'54395877'
p385
ag197
asg54
S'20'
p386
sg55
S'Programmeren in Java 2'
p387
sg57
g103
sg59
S'5'
p388
sg60
(iread_data
Room
p389
(dp390
g54
g182
sg55
g183
sbsba(ischedule
Activity
p391
(dp392
g8
(lp393
g210
ag212
ag214
ag216
ag218
ag220
ag113
ag223
ag225
ag227
ag228
ag230
ag231
ag233
ag156
ag71
ag236
ag238
ag240
ag242
asg54
S'20'
p394
sg55
g243
sg57
g103
sg59
g104
sg60
(iread_data
Room
p395
(dp396
g54
g107
sg55
g108
sbsba(ischedule
Activity
p397
(dp398
g8
(lp399
S'25994016'
p400
aS'14398123'
p401
aS'25106480'
p402
aS'40633534'
p403
aS'51673172'
p404
aS'48678993'
p405
aS'55480737'
p406
aS'74361881'
p407
aS'41644639'
p408
ag68
aS'8522855'
p409
aS'75680261'
p410
ag168
asg54
S'15'
p411
sg55
S'Project Genetic Algorithms'
p412
sg57
g103
sg59
g308
sg60
(iread_data
Room
p413
(dp414
g54
g63
sg55
g64
sbsbaa(lp415
(ischedule
Activity
p416
(dp417
g8
(lp418
g258
ag139
ag187
aS'62701040'
p419
aS'64393888'
p420
aS'34773179'
p421
ag188
ag174
aS'50184318'
p422
ag119
ag214
aS'15902055'
p423
aS'33760909'
p424
ag130
ag189
aS'3233378'
p425
aS'31416266'
p426
aS'57595888'
p427
ag152
ag145
ag121
aS'86000192'
p428
ag190
ag212
ag85
ag117
ag191
ag153
ag299
ag43
ag192
ag215
aS'23547619'
p429
ag305
ag193
aS'22699561'
p430
ag10
aS'73980360'
p431
ag45
ag46
ag402
aS'9332762'
p432
ag194
aS'46052388'
p433
aS'1665980'
p434
aS'87758823'
p435
ag195
ag100
aS'17575088'
p436
ag136
ag196
aS'35330349'
p437
ag363
aS'13534377'
p438
ag197
ag72
aS'48601268'
p439
ag166
ag198
ag14
aS'7308727'
p440
asg54
I1000
sg55
g200
sg57
g58
sg59
I0
sg60
(iread_data
Room
p441
(dp442
g54
g182
sg55
g183
sbsba(ischedule
Activity
p443
(dp444
g8
(lp445
g162
ag314
ag315
ag316
ag13
ag317
ag318
ag319
ag320
ag229
ag321
ag322
ag323
ag324
ag325
ag326
ag327
ag328
ag95
ag329
ag330
ag331
ag332
ag333
ag80
ag334
ag335
ag336
ag337
ag338
ag339
ag340
ag341
ag342
ag343
ag139
ag344
ag88
ag18
aS'89338938'
p446
asg54
S'40'
p447
sg55
g346
sg57
g103
sg59
g104
sg60
(iread_data
Room
p448
(dp449
g54
g63
sg55
g64
sbsba(ischedule
Activity
p450
(dp451
g8
(lp452
g94
ag230
ag164
aS'77831658'
p453
ag378
ag34
aS'5298748'
p454
aS'70878567'
p455
aS'30195935'
p456
ag37
aS'22731474'
p457
aS'43680781'
p458
ag21
aS'79617364'
p459
ag172
aS'6913074'
p460
ag354
asg54
S'20'
p461
sg55
S'Bioinformatica'
p462
sg57
g103
sg59
g104
sg60
(iread_data
Room
p463
(dp464
g54
g107
sg55
g108
sbsba(ischedule
Activity
p465
(dp466
g8
(lp467
g125
ag91
ag419
ag303
ag195
aS'9731271'
p468
aS'94955328'
p469
ag176
aS'34900967'
p470
ag356
ag353
ag31
ag139
aS'28943658'
p471
aS'41585485'
p472
ag32
aS'88519892'
p473
aS'64053722'
p474
asg54
g386
sg55
g387
sg57
g103
sg59
S'4'
p475
sg60
(iread_data
Room
p476
(dp477
g54
g205
sg55
g206
sbsba(ischedule
Activity
p478
(dp479
g8
(lp480
S'7492204'
p481
ag147
aS'23215240'
p482
aS'70113753'
p483
aS'73893840'
p484
aS'92778619'
p485
ag284
ag359
ag367
aS'38499176'
p486
ag360
aS'41153310'
p487
ag300
aS'44671041'
p488
ag134
aS'4709948'
p489
aS'33776961'
p490
aS'88263855'
p491
asg54
g386
sg55
g387
sg57
g103
sg59
S'6'
p492
sg60
(iread_data
Room
p493
(dp494
g54
g263
sg55
g264
sbsba(ischedule
Activity
p495
(dp496
g8
(lp497
S'47462856'
p498
aS'27916487'
p499
aS'49219163'
p500
aS'46570285'
p501
aS'13218321'
p502
ag292
ag148
ag165
ag174
ag47
aS'83415514'
p503
ag131
ag296
aS'36527838'
p504
aS'58699305'
p505
aS'36748818'
p506
aS'85335143'
p507
ag219
asg54
S'20'
p508
sg55
S'Moderne Databases'
p509
sg57
g201
sg59
g104
sg60
(iread_data
Room
p510
(dp511
g54
g246
sg55
g247
sbsbaa(lp512
(ischedule
Activity
p513
(dp514
g8
(lp515
g10
ag12
ag14
ag16
ag18
ag20
ag22
ag24
ag26
ag28
ag30
ag32
ag34
ag36
ag38
ag40
ag42
ag44
ag46
ag48
ag50
ag52
asg54
S'25'
p516
sg55
g56
sg57
g201
sg59
g104
sg60
g105
sba(ischedule
Activity
p517
(dp518
g8
(lp519
g68
ag282
ag69
ag283
ag70
ag284
ag71
ag285
ag72
ag286
ag73
ag287
ag74
ag288
ag75
ag289
ag76
ag290
ag77
ag291
ag78
ag292
ag79
ag293
ag80
ag163
ag81
ag294
ag125
ag295
ag82
ag296
ag83
ag178
ag84
ag170
ag85
ag99
ag86
ag100
ag87
ag297
ag88
ag298
ag89
ag299
ag35
ag300
ag90
ag143
ag91
ag301
ag176
ag302
ag92
ag357
ag93
ag196
ag94
ag303
ag95
ag304
ag228
ag305
ag96
ag195
ag97
ag306
ag98
asg54
I1000
sg55
g102
sg57
g58
sg59
I0
sg60
g309
sba(ischedule
Activity
p520
(dp521
g8
(lp522
S'62613937'
p523
ag50
ag164
ag212
ag115
aS'1886996'
p524
ag47
aS'28618400'
p525
ag122
aS'72683344'
p526
asg54
S'10'
p527
sg55
S'Advanced Heuristics'
p528
sg57
g103
sg59
g104
sg60
(iread_data
Room
p529
(dp530
g54
g246
sg55
g247
sbsba(ischedule
Activity
p531
(dp532
g8
(lp533
g256
ag318
ag142
aS'62872965'
p534
aS'62356458'
p535
ag269
ag483
ag162
ag11
ag76
aS'61611295'
p536
ag270
ag12
ag41
ag271
aS'88627897'
p537
ag178
ag25
ag125
ag119
ag272
aS'36508571'
p538
asg54
I1000
sg55
g274
sg57
g58
sg59
I0
sg60
(iread_data
Room
p539
(dp540
g54
g182
sg55
g183
sbsba(ischedule
Activity
p541
(dp542
g8
(lp543
S'78136904'
p544
aS'70844780'
p545
ag224
aS'20883994'
p546
ag403
ag429
aS'39429093'
p547
ag218
ag84
aS'72665524'
p548
asg54
g527
sg55
g528
sg57
g103
sg59
g308
sg60
(iread_data
Room
p549
(dp550
g54
g205
sg55
g206
sbsba(ischedule
Activity
p551
(dp552
g8
(lp553
g211
ag213
ag215
ag217
ag219
ag221
ag222
ag226
ag145
ag229
ag159
ag232
ag234
ag235
ag237
ag239
ag241
asg54
S'20'
p554
sg55
g243
sg57
g201
sg59
g308
sg60
(iread_data
Room
p555
(dp556
g54
g63
sg55
g64
sbsba(ischedule
Activity
p557
(dp558
g8
(lp559
g11
ag13
ag15
ag17
ag19
ag21
ag23
ag25
ag27
ag29
ag31
ag33
ag35
ag37
ag39
ag41
ag43
ag45
ag47
ag49
ag51
ag53
asg54
g516
sg55
g56
sg57
g201
sg59
g308
sg60
(iread_data
Room
p560
(dp561
g54
g277
sg55
g278
sbsbaa(lp562
(ischedule
Activity
p563
(dp564
g8
g519
sg54
I1000
sg55
g102
sg57
g58
sg59
I0
sg60
g347
sba(ischedule
Activity
p565
(dp566
g8
(lp567
g94
aS'89985072'
p568
aS'33930505'
p569
ag230
aS'96453361'
p570
ag460
ag164
aS'30050930'
p571
ag99
ag453
aS'28359697'
p572
ag315
ag378
ag354
ag193
ag34
ag507
ag155
ag454
aS'56815156'
p573
ag117
ag455
ag71
ag165
ag456
ag343
ag329
ag37
ag36
ag546
ag457
ag322
ag318
ag458
aS'21029457'
p574
ag299
ag21
ag440
aS'81200278'
p575
ag459
ag256
aS'66120270'
p576
ag172
ag89
aS'64600457'
p577
asg54
I1000
sg55
g462
sg57
g58
sg59
I0
sg60
(iread_data
Room
p578
(dp579
g54
g63
sg55
g64
sbsba(ischedule
Activity
p580
(dp581
g8
(lp582
S'84449005'
p583
aS'82390428'
p584
aS'13718298'
p585
aS'20095994'
p586
ag216
aS'42406214'
p587
aS'54569540'
p588
aS'27370083'
p589
ag175
aS'51052738'
p590
aS'32044893'
p591
ag115
aS'59753700'
p592
ag176
aS'37399898'
p593
ag174
ag361
ag489
aS'68286356'
p594
ag140
aS'87830198'
p595
aS'20239127'
p596
aS'70193386'
p597
aS'36785409'
p598
ag95
ag41
ag379
ag485
aS'36213792'
p599
aS'49922855'
p600
ag53
aS'41578612'
p601
ag324
ag454
ag460
ag490
ag458
ag544
ag223
ag378
aS'51415617'
p602
ag70
ag355
aS'99975346'
p603
ag153
aS'27805666'
p604
ag11
ag364
aS'99453514'
p605
ag545
ag325
asg54
I1000
sg55
S'Reflectie op de digitale cultuur'
p606
sg57
g58
sg59
I0
sg60
(iread_data
Room
p607
(dp608
g54
g107
sg55
g108
sbsba(ischedule
Activity
p609
(dp610
g8
(lp611
g193
ag118
ag434
ag176
ag365
ag32
ag233
aS'19540225'
p612
aS'40343779'
p613
aS'14671406'
p614
aS'66433883'
p615
aS'41527759'
p616
ag258
ag159
ag544
aS'21095566'
p617
aS'3707829'
p618
aS'53585410'
p619
ag166
aS'44828429'
p620
ag409
ag423
asg54
S'25'
p621
sg55
S'Algoritmen en complexiteit'
p622
sg57
g103
sg59
g104
sg60
(iread_data
Room
p623
(dp624
g54
g205
sg55
g206
sbsbaaa(lp625
(lp626
(ischedule
Activity
p627
(dp628
g8
(lp629
g380
ag575
aS'81022997'
p630
aS'17823206'
p631
ag383
ag592
ag605
aS'19337738'
p632
aS'93023961'
p633
asg54
g259
sg55
g260
sg57
g103
sg59
g104
sg60
g61
sba(ischedule
Activity
p634
(dp635
g8
(lp636
g314
aS'98780382'
p637
ag455
ag193
aS'25330192'
p638
ag360
ag11
ag18
ag16
asg54
g259
sg55
g260
sg57
g103
sg59
g308
sg60
g370
sba(ischedule
Activity
p639
(dp640
g8
(lp641
g193
ag325
ag118
ag423
ag434
aS'64554442'
p642
ag176
ag376
ag365
aS'51509565'
p643
ag32
ag26
ag233
ag131
ag612
ag142
ag613
ag337
ag614
ag151
ag615
ag270
ag616
aS'67817269'
p644
ag258
aS'88596522'
p645
ag159
ag359
ag544
aS'23652927'
p646
ag617
ag92
ag618
ag228
ag570
aS'34765676'
p647
ag619
ag336
ag166
ag472
ag620
ag282
ag409
asg54
I1000
sg55
g622
sg57
g58
sg59
I0
sg60
g309
sba(ischedule
Activity
p648
(dp649
g8
(lp650
g272
aS'19717077'
p651
aS'80188025'
p652
aS'63634350'
p653
ag321
aS'31306819'
p654
ag340
aS'3678531'
p655
aS'53139134'
p656
ag289
aS'70939718'
p657
ag146
aS'65408517'
p658
ag364
ag13
aS'55412918'
p659
ag141
ag501
ag619
aS'72526473'
p660
ag81
ag168
aS'82412626'
p661
aS'38179241'
p662
ag424
aS'75623387'
p663
ag213
aS'28957789'
p664
ag574
ag315
ag225
aS'75585647'
p665
aS'78735049'
p666
aS'58469172'
p667
ag507
asg54
S'40'
p668
sg55
S'Calculus 2'
p669
sg57
g201
sg59
g308
sg60
(iread_data
Room
p670
(dp671
g54
g182
sg55
g183
sbsba(ischedule
Activity
p672
(dp673
g8
(lp674
S'90103047'
p675
ag129
ag382
aS'32183908'
p676
ag196
aS'63573738'
p677
ag457
ag355
ag153
aS'21070547'
p678
ag96
ag301
aS'37419523'
p679
aS'34691309'
p680
asg54
S'15'
p681
sg55
S'Project Numerical Recipes'
p682
sg57
g103
sg59
g202
sg60
(iread_data
Room
p683
(dp684
g54
g107
sg55
g108
sbsba(ischedule
Activity
p685
(dp686
g8
(lp687
S'8557857'
p688
aS'77636749'
p689
ag25
aS'11459236'
p690
aS'19958553'
p691
ag147
ag53
ag49
ag296
ag506
asg54
S'15'
p692
sg55
S'Informatie- en organsatieontwerp'
p693
sg57
g103
sg59
g308
sg60
(iread_data
Room
p694
(dp695
g54
g246
sg55
g247
sbsba(ischedule
Activity
p696
(dp697
g8
(lp698
g305
ag269
ag359
aS'14179347'
p699
ag95
ag335
ag89
ag583
ag421
ag601
aS'27925117'
p700
asg54
g411
sg55
g412
sg57
g103
sg59
g202
sg60
(iread_data
Room
p701
(dp702
g54
g277
sg55
g278
sbsbaa(lp703
(ischedule
Activity
p704
(dp705
g8
(lp706
g534
ag483
ag76
ag12
ag537
ag125
ag538
asg54
g273
sg55
g274
sg57
g201
sg59
g104
sg60
g275
sba(ischedule
Activity
p707
(dp708
g8
g567
sg54
I1000
sg55
g462
sg57
g58
sg59
I0
sg60
g105
sba(ischedule
Activity
p709
(dp710
g8
(lp711
g18
ag77
aS'10149535'
p712
aS'14383795'
p713
ag285
ag598
ag429
ag52
ag601
aS'92496780'
p714
aS'32204977'
p715
aS'4697362'
p716
aS'7106649'
p717
aS'70336464'
p718
ag283
aS'77264363'
p719
aS'21192048'
p720
ag232
ag10
ag446
ag296
ag88
asg54
S'20'
p721
sg55
S'Technology for games'
p722
sg57
g201
sg59
g104
sg60
(iread_data
Room
p723
(dp724
g54
g182
sg55
g183
sbsba(ischedule
Activity
p725
(dp726
g8
(lp727
g128
aS'87602030'
p728
ag75
aS'82066165'
p729
ag217
aS'58253841'
p730
ag132
ag344
ag137
ag595
aS'88737765'
p731
aS'76924297'
p732
asg54
g411
sg55
g412
sg57
g103
sg59
g104
sg60
(iread_data
Room
p733
(dp734
g54
g263
sg55
g264
sbsba(ischedule
Activity
p735
(dp736
g8
(lp737
g486
aS'59887191'
p738
ag48
aS'64246605'
p739
ag23
ag375
aS'123355'
p740
aS'535689'
p741
aS'12170832'
p742
ag381
ag638
ag195
ag46
ag303
ag360
ag409
ag166
asg54
S'20'
p743
sg55
S'Netwerken en systeembeveiliging'
p744
sg57
g103
sg59
g104
sg60
(iread_data
Room
p745
(dp746
g54
g246
sg55
g247
sbsbaa(lp747
(ischedule
Activity
p748
(dp749
g8
g582
sg54
I1000
sg55
g606
sg57
g58
sg59
I0
sg60
(iread_data
Room
p750
(dp751
g54
g205
sg55
g206
sbsba(ischedule
Activity
p752
(dp753
g8
(lp754
g569
ag99
ag315
ag193
ag155
ag117
ag165
ag329
ag546
ag318
ag299
ag575
ag576
ag577
asg54
g461
sg55
g462
sg57
g103
sg59
g202
sg60
(iread_data
Room
p755
(dp756
g54
g182
sg55
g183
sbsba(ischedule
Activity
p757
(dp758
g8
(lp759
g74
ag548
aS'44151631'
p760
aS'55103073'
p761
ag213
ag404
ag619
ag322
ag729
ag407
ag121
aS'51472074'
p762
ag258
asg54
S'15'
p763
sg55
S'Compilerbouw practicum'
p764
sg57
g103
sg59
g308
sg60
(iread_data
Room
p765
(dp766
g54
g277
sg55
g278
sbsba(ischedule
Activity
p767
(dp768
g8
(lp769
g325
ag642
ag376
ag643
ag26
ag131
ag142
ag337
ag151
ag270
ag644
ag645
ag359
ag646
ag92
ag228
ag647
ag336
ag472
ag282
ag570
asg54
g621
sg55
g622
sg57
g103
sg59
g308
sg60
(iread_data
Room
p770
(dp771
g54
g107
sg55
g108
sbsba(ischedule
Activity
p772
(dp773
g8
(lp774
S'81116418'
p775
ag440
ag163
ag94
ag195
ag141
ag85
ag453
ag22
ag535
aS'63939720'
p776
aS'40911986'
p777
ag285
ag446
asg54
g681
sg55
g682
sg57
g103
sg59
g104
sg60
(iread_data
Room
p778
(dp779
g54
g246
sg55
g247
sbsba(ischedule
Activity
p780
(dp781
g8
(lp782
g139
ag421
ag119
ag130
ag427
ag428
ag117
ag43
ag305
ag431
ag435
ag136
ag438
ag166
ag45
asg54
g199
sg55
g200
sg57
g201
sg59
g308
sg60
(iread_data
Room
p783
(dp784
g54
g263
sg55
g264
sbsba(ischedule
Activity
p785
(dp786
g8
(lp787
g148
ag426
aS'7386961'
p788
ag615
ag432
ag631
ag423
ag653
ag82
ag50
aS'90296821'
p789
aS'23391676'
p790
ag332
ag335
ag320
ag226
ag236
asg54
g386
sg55
g387
sg57
g103
sg59
g202
sg60
(iread_data
Room
p791
(dp792
g54
g63
sg55
g64
sbsbaa(lp793
(ischedule
Activity
p794
(dp795
g8
(lp796
g254
ag688
ag506
ag689
ag296
ag25
aS'18266644'
p797
ag455
aS'29718115'
p798
ag690
aS'17496687'
p799
ag691
ag419
ag147
ag665
ag53
ag10
ag49
ag715
ag376
ag138
asg54
I1000
sg55
g693
sg57
g58
sg59
I0
sg60
(iread_data
Room
p800
(dp801
g54
g107
sg55
g108
sbsba(ischedule
Activity
p802
(dp803
g8
(lp804
g139
ag421
ag119
ag130
ag427
ag428
ag117
ag43
ag305
ag431
ag432
ag435
ag136
ag438
ag166
ag423
asg54
S'20'
p805
sg55
g200
sg57
g103
sg59
g308
sg60
(iread_data
Room
p806
(dp807
g54
g277
sg55
g278
sbsba(ischedule
Activity
p808
(dp809
g8
(lp810
g210
ag212
ag214
ag216
ag218
ag220
ag113
ag223
ag225
ag227
ag228
ag230
ag231
ag233
ag156
ag71
ag236
ag238
ag240
ag242
ag224
ag20
asg54
g554
sg55
g243
sg57
g201
sg59
g104
sg60
(iread_data
Room
p811
(dp812
g54
g263
sg55
g264
sbsba(ischedule
Activity
p813
(dp814
g8
(lp815
g14
ag99
ag21
aS'34173695'
p816
ag189
ag270
aS'24875739'
p817
ag359
ag316
aS'45915482'
p818
ag34
ag468
ag158
ag460
aS'23628642'
p819
aS'6939933'
p820
ag577
ag169
ag214
ag133
ag218
aS'55530367'
p821
ag336
ag459
ag699
ag290
aS'62363761'
p822
ag47
ag292
aS'77306636'
p823
ag198
aS'33672995'
p824
ag728
aS'22168693'
p825
ag135
asg54
g668
sg55
g669
sg57
g201
sg59
g202
sg60
(iread_data
Room
p826
(dp827
g54
g182
sg55
g183
sbsba(ischedule
Activity
p828
(dp829
g8
(lp830
g434
ag741
ag645
aS'91250534'
p831
ag15
ag713
ag653
aS'47260040'
p832
aS'64418623'
p833
ag408
ag325
aS'42297781'
p834
ag37
ag400
asg54
g763
sg55
g764
sg57
g103
sg59
g104
sg60
(iread_data
Room
p835
(dp836
g54
g205
sg55
g206
sbsba(ischedule
Activity
p837
(dp838
g8
(lp839
g380
ag314
ag142
ag575
ag637
ag251
ag630
ag455
ag252
ag631
ag193
ag253
ag383
ag638
ag254
ag592
ag258
ag255
ag605
ag360
ag256
ag632
ag11
ag257
ag633
ag18
ag16
asg54
I1000
sg55
g260
sg57
g58
sg59
I0
sg60
(iread_data
Room
p840
(dp841
g54
g63
sg55
g64
sbsba(ischedule
Activity
p842
(dp843
g8
(lp844
g258
ag420
ag422
ag424
ag426
ag121
ag85
ag299
ag429
ag10
ag402
ag436
ag363
ag439
ag440
ag72
asg54
g199
sg55
g200
sg57
g201
sg59
g104
sg60
(iread_data
Room
p845
(dp846
g54
g246
sg55
g247
sbsbaa(lp847
(ischedule
Activity
p848
(dp849
g8
(lp850
S'79858178'
p851
ag317
ag48
aS'39659121'
p852
ag401
ag667
ag457
ag225
ag653
ag616
ag384
aS'31633723'
p853
aS'47605891'
p854
ag361
ag78
aS'10872825'
p855
ag33
aS'38329455'
p856
ag299
aS'91139627'
p857
ag797
ag289
ag666
ag368
ag331
ag355
aS'72547110'
p858
ag481
ag596
ag664
ag147
ag631
ag231
ag588
ag469
aS'82688900'
p859
aS'32705005'
p860
aS'84110134'
p861
ag329
ag790
ag732
ag31
aS'97371272'
p862
ag352
ag112
ag34
ag32
aS'79366078'
p863
ag689
ag81
ag614
ag36
aS'37498675'
p864
aS'99272880'
p865
ag335
ag76
aS'39919665'
p866
ag363
aS'74182182'
p867
ag123
ag468
aS'44940353'
p868
ag409
aS'69086548'
p869
ag155
ag498
ag486
ag446
ag286
ag817
ag320
ag501
ag30
ag70
ag546
aS'63408522'
p870
ag253
aS'63955238'
p871
aS'65003379'
p872
ag472
aS'51186803'
p873
ag544
ag187
ag136
asg54
I1000
sg55
S'Kansrekenen 2'
p874
sg57
g58
sg59
I0
sg60
g309
sba(ischedule
Activity
p875
(dp876
g8
(lp877
g798
aS'59289233'
p878
ag229
ag191
ag238
ag700
ag166
ag525
ag357
ag212
ag113
ag44
ag338
aS'13798030'
p879
ag33
ag292
ag712
aS'58866007'
p880
ag526
ag368
ag143
asg54
I1000
sg55
S'Architectuur en computerorganisatie'
p881
sg57
g58
sg59
I0
sg60
(iread_data
Room
p882
(dp883
g54
g63
sg55
g64
sbsba(ischedule
Activity
p884
(dp885
g8
(lp886
g380
ag575
ag630
ag383
ag592
ag605
ag632
ag633
asg54
S'10'
p887
sg55
g260
sg57
g201
sg59
g104
sg60
(iread_data
Room
p888
(dp889
g54
g205
sg55
g206
sbsba(ischedule
Activity
p890
(dp891
g8
(lp892
g325
ag423
ag642
ag376
ag643
ag26
ag131
ag142
ag337
ag151
ag270
ag644
ag645
ag359
ag646
ag92
ag228
ag647
ag336
ag619
asg54
S'25'
p893
sg55
g622
sg57
g201
sg59
g308
sg60
(iread_data
Room
p894
(dp895
g54
g182
sg55
g183
sbsba(ischedule
Activity
p896
(dp897
g8
(lp898
g142
ag251
ag252
ag253
ag254
ag255
ag256
ag257
ag16
ag455
asg54
g887
sg55
g260
sg57
g201
sg59
g202
sg60
(iread_data
Room
p899
(dp900
g54
g107
sg55
g108
sbsba(ischedule
Activity
p901
(dp902
g8
(lp903
g18
aS'93041523'
p904
ag77
ag88
ag712
aS'76487754'
p905
ag713
ag432
ag285
ag11
ag598
ag689
ag429
ag282
ag52
ag507
ag601
ag113
ag714
ag377
ag715
ag458
ag716
ag25
ag717
ag446
ag718
ag296
ag283
aS'12430748'
p906
ag719
ag330
ag720
ag121
ag232
ag862
ag10
ag869
asg54
I1000
sg55
g722
sg57
g58
sg59
I0
sg60
(iread_data
Room
p907
(dp908
g54
g277
sg55
g278
sbsba(ischedule
Activity
p909
(dp910
g8
(lp911
g318
ag535
ag162
ag536
ag41
ag178
ag119
asg54
g273
sg55
g274
sg57
g201
sg59
g308
sg60
(iread_data
Room
p912
(dp913
g54
g246
sg55
g247
sbsbaaa(lp914
(lp915
(ischedule
Activity
p916
(dp917
g8
(lp918
g286
ag382
ag68
ag575
ag316
ag224
aS'19214659'
p919
ag620
ag593
aS'64768422'
p920
ag154
ag618
aS'81155296'
p921
ag732
aS'28055464'
p922
aS'93566383'
p923
ag429
aS'65675896'
p924
aS'69634191'
p925
ag647
aS'21677389'
p926
ag92
ag662
aS'20374340'
p927
ag222
asg54
I1000
sg55
S'Interactie-ontwerp'
p928
sg57
g58
sg59
I0
sg60
g309
sba(ischedule
Activity
p929
(dp930
g8
(lp931
g523
ag544
ag50
ag545
ag164
ag224
ag212
ag546
ag115
ag403
ag524
ag429
ag47
ag547
ag525
ag218
ag122
ag84
ag526
ag548
asg54
I1000
sg55
g528
sg57
g58
sg59
I0
sg60
(iread_data
Room
p932
(dp933
g54
g182
sg55
g183
sbsba(ischedule
Activity
p934
(dp935
g8
(lp936
g498
ag499
ag500
ag501
ag502
ag292
ag148
ag130
ag165
ag174
ag503
ag131
ag296
ag505
ag506
ag507
ag229
asg54
S'20'
p937
sg55
g509
sg57
g103
sg59
g104
sg60
g105
sba(ischedule
Activity
p938
(dp939
g8
(lp940
g18
ag360
ag88
ag487
ag535
aS'65318664'
p941
ag617
ag446
ag568
ag425
ag269
ag616
ag365
ag818
aS'82872148'
p942
ag658
ag585
ag194
ag90
ag230
ag439
ag853
ag37
ag238
ag402
ag381
ag613
ag94
ag41
ag614
ag861
ag488
ag85
ag258
ag76
ag219
ag51
asg54
g345
sg55
g346
sg57
g201
sg59
g308
sg60
(iread_data
Room
p943
(dp944
g54
g205
sg55
g206
sbsba(ischedule
Activity
p945
(dp946
g8
(lp947
g426
ag51
ag317
ag120
ag269
ag117
ag534
aS'23565001'
p948
ag320
aS'66570705'
p949
ag659
ag135
ag233
ag129
ag504
ag92
ag342
ag867
ag435
ag319
ag15
ag459
aS'90743504'
p950
aS'79937969'
p951
ag880
aS'96118484'
p952
aS'34588570'
p953
ag119
ag253
ag235
ag469
ag285
ag72
ag78
ag34
aS'21311067'
p954
ag593
aS'32595335'
p955
ag133
ag196
ag437
aS'54074680'
p956
ag712
ag486
aS'16011419'
p957
aS'80998260'
p958
ag538
ag272
ag30
aS'26172512'
p959
ag601
ag134
ag923
ag314
asg54
I1000
sg55
S'Lineaire Algebra'
p960
sg57
g58
sg59
I0
sg60
(iread_data
Room
p961
(dp962
g54
g246
sg55
g247
sbsba(ischedule
Activity
p963
(dp964
g8
(lp965
g904
ag905
ag432
ag11
ag689
ag282
ag507
ag113
ag377
ag458
ag25
ag906
ag330
ag121
ag862
ag869
asg54
g721
sg55
g722
sg57
g201
sg59
g308
sg60
(iread_data
Room
p966
(dp967
g54
g63
sg55
g64
sbsba(ischedule
Activity
p968
(dp969
g8
(lp970
g254
ag797
ag798
ag799
ag419
ag665
ag10
ag715
ag138
ag455
ag376
asg54
g692
sg55
g693
sg57
g103
sg59
g104
sg60
(iread_data
Room
p971
(dp972
g54
g277
sg55
g278
sbsbaa(lp973
(ischedule
Activity
p974
(dp975
g8
g839
sg54
I1000
sg55
g260
sg57
g58
sg59
I0
sg60
g309
sba(ischedule
Activity
p976
(dp977
g8
(lp978
g506
ag296
ag799
ag419
ag665
ag10
ag715
ag138
asg54
S'15'
p979
sg55
g693
sg57
g201
sg59
g104
sg60
(iread_data
Room
p980
(dp981
g54
g205
sg55
g206
sbsba(ischedule
Activity
p982
(dp983
g8
g850
sg54
I1000
sg55
g874
sg57
g58
sg59
I0
sg60
(iread_data
Room
p984
(dp985
g54
g277
sg55
g278
sbsba(ischedule
Activity
p986
(dp987
g8
g877
sg54
I1000
sg55
g881
sg57
g58
sg59
I0
sg60
(iread_data
Room
p988
(dp989
g54
g63
sg55
g64
sbsba(ischedule
Activity
p990
(dp991
g8
(lp992
g318
ag535
ag162
ag536
ag41
ag178
ag119
ag272
asg54
S'10'
p993
sg55
g274
sg57
g103
sg59
g308
sg60
(iread_data
Room
p994
(dp995
g54
g107
sg55
g108
sbsba(ischedule
Activity
p996
(dp997
g8
(lp998
g211
ag213
ag215
ag217
ag219
ag221
ag222
ag224
ag226
ag145
ag229
ag159
ag232
ag20
ag234
ag235
ag237
ag239
ag241
asg54
g394
sg55
g243
sg57
g103
sg59
g308
sg60
(iread_data
Room
p999
(dp1000
g54
g182
sg55
g183
sbsbaa(lp1001
(ischedule
Activity
p1002
(dp1003
g8
(lp1004
S'37279234'
p1005
ag272
ag14
ag867
ag651
ag99
ag122
ag652
ag21
aS'58040377'
p1006
ag653
ag816
ag423
ag321
ag189
ag548
ag654
ag270
ag860
ag340
ag817
aS'10609762'
p1007
ag655
ag359
ag428
ag656
ag316
ag155
ag289
ag818
ag712
ag657
ag34
aS'78544592'
p1008
ag146
ag468
ag700
ag658
ag158
ag68
ag364
ag460
ag91
ag13
ag819
ag163
ag659
ag820
ag730
ag141
ag577
aS'11593163'
p1009
ag501
ag169
aS'56348773'
p1010
ag619
ag214
ag251
ag660
ag133
ag127
ag81
ag218
aS'65978354'
p1011
ag168
ag821
ag505
ag661
ag336
ag50
ag662
ag459
aS'79888156'
p1012
ag424
ag699
ag131
ag663
ag290
aS'56544130'
p1013
ag213
ag822
aS'6709529'
p1014
ag664
ag47
aS'75446434'
p1015
ag574
ag292
ag503
ag315
ag823
aS'61520025'
p1016
ag225
ag198
ag332
ag665
ag824
ag948
ag666
ag728
aS'59220392'
p1017
ag667
ag825
ag921
ag507
ag135
aS'93361408'
p1018
asg54
I1000
sg55
g669
sg57
g58
sg59
I0
sg60
g309
sba(ischedule
Activity
p1019
(dp1020
g8
g533
sg54
I1000
sg55
g274
sg57
g58
sg59
I0
sg60
(iread_data
Room
p1021
(dp1022
g54
g107
sg55
g108
sbsba(ischedule
Activity
p1023
(dp1024
g8
(lp1025
S'41489515'
p1026
aS'27241113'
p1027
ag88
aS'3883025'
p1028
aS'1181560'
p1029
ag422
aS'59111489'
p1030
ag367
ag458
aS'96082155'
p1031
ag304
aS'18144425'
p1032
aS'48198668'
p1033
ag219
aS'51650744'
p1034
ag344
ag52
ag147
ag10
asg54
g937
sg55
g509
sg57
g103
sg59
g202
sg60
(iread_data
Room
p1035
(dp1036
g54
g205
sg55
g206
sbsba(ischedule
Activity
p1037
(dp1038
g8
(lp1039
g193
ag118
ag434
ag176
ag365
ag32
ag233
ag612
ag613
ag614
ag615
ag616
ag258
ag159
ag544
ag617
ag618
ag570
ag166
ag620
ag409
ag282
ag472
asg54
g893
sg55
g622
sg57
g201
sg59
g104
sg60
(iread_data
Room
p1040
(dp1041
g54
g182
sg55
g183
sbsba(ischedule
Activity
p1042
(dp1043
g8
(lp1044
g427
ag715
ag126
ag44
ag486
aS'1695839'
p1045
ag83
aS'5892092'
p1046
ag482
ag690
ag865
ag924
ag568
asg54
g763
sg55
g764
sg57
g103
sg59
g202
sg60
(iread_data
Room
p1047
(dp1048
g54
g63
sg55
g64
sbsbaa(lp1049
(ischedule
Activity
p1050
(dp1051
g8
(lp1052
g114
ag116
ag118
ag120
ag72
ag123
ag125
ag127
ag129
ag131
ag133
ag135
ag137
ag139
ag141
ag143
ag146
ag148
ag150
ag152
ag155
ag156
ag158
ag160
ag162
ag164
ag166
ag167
ag169
ag171
ag173
ag175
ag177
ag117
ag165
asg54
S'40'
p1053
sg55
g179
sg57
g201
sg59
g104
sg60
g370
sba(ischedule
Activity
p1054
(dp1055
g8
(lp1056
g124
ag468
ag198
ag216
ag149
ag525
ag630
ag331
aS'5590289'
p1057
ag77
ag161
ag548
ag115
ag401
aS'19058315'
p1058
asg54
g743
sg55
g744
sg57
g103
sg59
g308
sg60
g932
sba(ischedule
Activity
p1059
(dp1060
g8
(lp1061
g568
ag570
ag571
ag572
ag507
ag573
ag71
ag343
ag36
ag322
ag574
ag440
ag256
ag89
asg54
g461
sg55
g462
sg57
g103
sg59
g308
sg60
g61
sba(ischedule
Activity
p1062
(dp1063
g8
(lp1064
g302
ag132
ag489
ag229
ag577
ag119
ag337
ag1008
ag490
aS'66621166'
p1065
ag301
ag83
ag45
ag321
ag112
ag354
ag10
ag583
ag130
asg54
g508
sg55
g509
sg57
g201
sg59
g308
sg60
g347
sba(ischedule
Activity
p1066
(dp1067
g8
(lp1068
g419
ag174
ag423
ag425
ag145
ag212
ag153
ag215
ag430
ag46
ag433
ag100
ag437
ag14
ag434
ag432
ag214
asg54
g199
sg55
g200
sg57
g201
sg59
g475
sg60
(iread_data
Room
p1069
(dp1070
g54
g277
sg55
g278
sbsba(ischedule
Activity
p1071
(dp1072
g8
(lp1073
S'53267490'
p1074
ag942
ag677
ag25
ag78
aS'72586808'
p1075
ag405
ag545
ag569
ag306
ag189
ag797
ag456
ag613
ag440
asg54
g743
sg55
g744
sg57
g103
sg59
g202
sg60
(iread_data
Room
p1076
(dp1077
g54
g107
sg55
g108
sbsba(ischedule
Activity
p1078
(dp1079
g8
g918
sg54
I1000
sg55
g928
sg57
g58
sg59
I0
sg60
(iread_data
Room
p1080
(dp1081
g54
g263
sg55
g264
sbsbaa(lp1082
(ischedule
Activity
p1083
(dp1084
g8
(lp1085
g144
ag70
ag353
aS'52304977'
p1086
ag142
ag457
ag152
ag424
ag219
ag575
ag700
aS'15249775'
p1087
ag17
ag272
ag524
ag603
ag1006
ag653
ag405
ag717
ag647
aS'5739011'
p1088
aS'82968410'
p1089
ag728
aS'72652638'
p1090
ag215
ag630
ag365
ag24
ag120
aS'35315956'
p1091
ag223
asg54
I1000
sg55
S'Heuristieken 2'
p1092
sg57
g58
sg59
I0
sg60
g932
sba(ischedule
Activity
p1093
(dp1094
g8
g796
sg54
I1000
sg55
g693
sg57
g58
sg59
I0
sg60
g347
sba(ischedule
Activity
p1095
(dp1096
g8
(lp1097
g314
ag637
ag193
ag638
ag258
ag360
ag11
ag18
ag631
asg54
g887
sg55
g260
sg57
g201
sg59
g308
sg60
g105
sba(ischedule
Activity
p1098
(dp1099
g8
(lp1100
g1026
ag1027
ag88
ag1028
ag1029
ag422
ag1030
ag367
ag458
ag1031
ag304
ag1032
ag1033
ag1034
ag344
ag52
ag147
asg54
g508
sg55
g509
sg57
g201
sg59
g202
sg60
g275
sba(ischedule
Activity
p1101
(dp1102
g8
(lp1103
g302
ag132
ag489
ag577
ag119
ag337
ag1008
ag490
ag1065
ag301
ag83
ag45
ag321
ag112
ag354
ag583
ag504
ag47
asg54
g937
sg55
g509
sg57
g103
sg59
g308
sg60
g61
sba(ischedule
Activity
p1104
(dp1105
g8
g209
sg54
I1000
sg55
g243
sg57
g58
sg59
I0
sg60
g309
sba(ischedule
Activity
p1106
(dp1107
g8
(lp1108
g256
ag534
ag483
ag76
ag12
ag537
ag125
ag538
asg54
g993
sg55
g274
sg57
g103
sg59
g104
sg60
(iread_data
Room
p1109
(dp1110
g54
g205
sg55
g206
sbsbaaa(lp1111
(lp1112
(ischedule
Activity
p1113
(dp1114
g8
(lp1115
g258
ag420
ag422
ag424
ag426
ag121
ag85
ag299
ag429
ag10
ag402
ag434
ag436
ag363
ag439
ag194
asg54
g805
sg55
g200
sg57
g103
sg59
g104
sg60
g347
sba(ischedule
Activity
p1116
(dp1117
g8
(lp1118
g419
ag174
ag425
ag145
ag212
ag153
ag215
ag430
ag46
ag433
ag100
ag437
ag72
ag14
asg54
g805
sg55
g200
sg57
g103
sg59
g475
sg60
g309
sba(ischedule
Activity
p1119
(dp1120
g8
(lp1121
g1005
ag867
ag122
ag1006
ag423
ag548
ag860
ag1007
ag428
ag155
ag712
ag1008
ag700
ag68
ag91
ag163
ag730
ag1009
ag1010
ag251
ag127
ag1011
ag505
ag50
ag1012
ag131
ag1013
ag1014
ag1015
ag503
ag1016
ag332
ag948
ag1017
ag921
ag1018
asg54
g668
sg55
g669
sg57
g201
sg59
g104
sg60
g932
sba(ischedule
Activity
p1122
(dp1123
g8
(lp1124
g282
ag283
ag284
ag285
ag286
ag287
ag288
ag289
ag290
ag291
ag292
ag293
ag163
ag294
ag295
ag296
ag178
ag170
ag297
ag298
ag299
ag300
ag143
ag301
ag302
ag357
ag196
ag303
ag304
ag305
ag195
ag306
ag176
ag125
ag228
ag35
asg54
g101
sg55
g102
sg57
g103
sg59
g308
sg60
(iread_data
Room
p1125
(dp1126
g54
g107
sg55
g108
sbsba(ischedule
Activity
p1127
(dp1128
g8
g567
sg54
I1000
sg55
g462
sg57
g58
sg59
I0
sg60
(iread_data
Room
p1129
(dp1130
g54
g63
sg55
g64
sbsba(ischedule
Activity
p1131
(dp1132
g8
(lp1133
g583
ag586
ag588
ag590
ag592
ag174
ag594
ag596
ag95
ag485
ag53
ag454
ag458
ag355
ag604
ag605
ag603
asg54
S'20'
p1134
sg55
g606
sg57
g201
sg59
g104
sg60
(iread_data
Room
p1135
(dp1136
g54
g205
sg55
g206
sbsba(ischedule
Activity
p1137
(dp1138
g8
(lp1139
g585
ag587
ag175
ag115
ag593
ag489
ag595
ag598
ag379
ag600
ag324
ag490
ag223
ag70
ag153
ag364
ag325
asg54
g1134
sg55
g606
sg57
g201
sg59
g202
sg60
(iread_data
Room
p1140
(dp1141
g54
g277
sg55
g278
sbsbaa(lp1142
(ischedule
Activity
p1143
(dp1144
g8
(lp1145
g68
ag69
ag71
ag73
ag74
ag75
ag76
ag77
ag78
ag79
ag80
ag81
ag125
ag82
ag84
ag85
ag86
ag87
ag89
ag35
ag90
ag91
ag176
ag92
ag93
ag94
ag95
ag228
ag96
ag97
ag98
ag357
asg54
g307
sg55
g102
sg57
g201
sg59
g104
sg60
g105
sba(ischedule
Activity
p1146
(dp1147
g8
(lp1148
g584
ag216
ag589
ag591
ag176
ag361
ag140
ag597
ag41
ag599
ag601
ag460
ag544
ag602
ag11
ag545
ag378
asg54
g1134
sg55
g606
sg57
g201
sg59
g308
sg60
g275
sba(ischedule
Activity
p1149
(dp1150
g8
(lp1151
g498
ag302
ag1026
ag499
ag132
ag1027
ag500
ag489
ag88
ag501
ag229
ag1028
ag502
ag577
ag1029
ag292
ag119
ag422
ag148
ag337
ag1030
ag130
ag1008
ag367
ag165
ag490
ag458
ag174
ag1065
ag1031
ag47
ag301
ag304
ag503
ag83
ag1032
ag131
ag45
ag1033
ag296
ag321
ag219
ag504
ag112
ag1034
ag505
ag354
ag344
ag506
ag10
ag52
ag507
ag583
ag147
asg54
I1000
sg55
g509
sg57
g58
sg59
I0
sg60
g347
sba(ischedule
Activity
p1152
(dp1153
g8
(lp1154
g144
ag353
ag142
ag152
ag219
ag700
ag17
ag524
ag1006
ag405
ag647
ag1089
ag1090
ag630
ag24
ag1091
asg54
S'20'
p1155
sg55
g1092
sg57
g201
sg59
g104
sg60
(iread_data
Room
p1156
(dp1157
g54
g63
sg55
g64
sbsba(ischedule
Activity
p1158
(dp1159
g8
(lp1160
g70
ag1086
ag457
ag424
ag575
ag1087
ag272
ag603
ag653
ag717
ag1088
ag728
ag215
ag365
ag120
ag223
asg54
g1155
sg55
g1092
sg57
g201
sg59
g308
sg60
(iread_data
Room
p1161
(dp1162
g54
g182
sg55
g183
sbsba(ischedule
Activity
p1163
(dp1164
g8
(lp1165
g688
ag689
ag25
ag455
ag690
ag691
ag147
ag53
ag49
ag376
ag798
ag254
ag797
asg54
g979
sg55
g693
sg57
g201
sg59
g308
sg60
(iread_data
Room
p1166
(dp1167
g54
g205
sg55
g206
sbsba(ischedule
Activity
p1168
(dp1169
g8
g418
sg54
I1000
sg55
g200
sg57
g58
sg59
I0
sg60
(iread_data
Room
p1170
(dp1171
g54
g263
sg55
g264
sbsbaa(lp1172
(ischedule
Activity
p1173
(dp1174
g8
g903
sg54
I1000
sg55
g722
sg57
g58
sg59
I0
sg60
g275
sba(ischedule
Activity
p1175
(dp1176
g8
(lp1177
g570
ag571
ag572
ag354
ag573
ag71
ag343
ag36
ag322
ag574
ag440
ag256
ag89
ag117
ag318
ag315
ag193
asg54
S'20'
p1178
sg55
g462
sg57
g201
sg59
g308
sg60
g932
sba(ischedule
Activity
p1179
(dp1180
g8
(lp1181
g157
ag1028
ag576
ag26
ag139
ag257
aS'16912993'
p1182
ag489
ag32
ag92
ag595
ag657
ag822
ag114
ag926
aS'25557516'
p1183
ag575
asg54
g743
sg55
g744
sg57
g103
sg59
g475
sg60
(iread_data
Room
p1184
(dp1185
g54
g263
sg55
g264
sbsba(ischedule
Activity
p1186
(dp1187
g8
(lp1188
g420
aS'10702778'
p1189
ag72
ag619
ag93
ag923
ag655
ag122
ag667
ag253
ag169
ag865
aS'63096281'
p1190
ag99
ag118
ag40
ag49
aS'51791169'
p1191
ag428
ag593
ag81
asg54
g386
sg55
g387
sg57
g103
sg59
g104
sg60
(iread_data
Room
p1192
(dp1193
g54
g246
sg55
g247
sbsba(ischedule
Activity
p1194
(dp1195
g8
(lp1196
g360
ag487
ag535
ag941
ag617
ag568
ag425
ag269
ag616
ag365
ag818
ag942
ag658
ag585
ag194
ag90
ag230
ag439
ag853
ag37
ag238
ag402
ag381
ag613
ag94
ag41
ag614
ag861
ag488
ag85
ag258
ag76
ag219
ag51
ag14
asg54
g447
sg55
g346
sg57
g103
sg59
g308
sg60
(iread_data
Room
p1197
(dp1198
g54
g63
sg55
g64
sbsbaa(lp1199
(ischedule
Activity
p1200
(dp1201
g8
(lp1202
g113
ag115
ag119
ag121
ag122
ag124
ag126
ag128
ag130
ag132
ag134
ag136
ag138
ag140
ag142
ag144
ag52
ag147
ag149
ag151
ag36
ag154
ag21
ag157
ag159
ag161
ag163
ag26
ag168
ag170
ag172
ag174
ag176
ag178
ag145
ag153
ag112
asg54
g1053
sg55
g179
sg57
g201
sg59
g308
sg60
g370
sba(ischedule
Activity
p1203
(dp1204
g8
(lp1205
g162
ag18
ag314
ag360
ag315
ag88
ag316
ag487
ag13
ag535
ag14
ag941
ag317
ag617
ag318
ag446
ag319
ag568
ag320
ag425
ag229
ag269
ag321
ag616
ag322
ag365
ag323
ag818
ag324
ag942
ag325
ag658
ag326
ag585
ag327
ag194
ag328
ag90
ag95
ag230
ag329
ag439
ag330
ag853
ag331
ag37
ag332
ag238
ag333
ag402
ag80
ag381
ag334
ag613
ag335
ag94
ag336
ag41
ag337
ag614
ag338
ag861
ag339
ag488
ag340
ag85
ag341
ag258
ag342
ag76
ag343
ag219
ag139
ag51
ag344
asg54
I1000
sg55
g346
sg57
g58
sg59
I0
sg60
g309
sba(ischedule
Activity
p1206
(dp1207
g8
g947
sg54
I1000
sg55
g960
sg57
g58
sg59
I0
sg60
(iread_data
Room
p1208
(dp1209
g54
g182
sg55
g183
sbsba(ischedule
Activity
p1210
(dp1211
g8
(lp1212
g569
ag460
ag99
ag155
ag165
ag546
ag299
ag575
ag576
ag577
ag507
asg54
g1178
sg55
g462
sg57
g201
sg59
g202
sg60
(iread_data
Room
p1213
(dp1214
g54
g63
sg55
g64
sbsba(ischedule
Activity
p1215
(dp1216
g8
(lp1217
g187
ag188
ag214
ag189
ag152
ag190
ag191
ag192
ag193
ag45
ag195
ag196
ag197
ag198
ag440
asg54
g805
sg55
g200
sg57
g103
sg59
g202
sg60
(iread_data
Room
p1218
(dp1219
g54
g277
sg55
g278
sbsbaa(lp1220
(ischedule
Activity
p1221
(dp1222
g8
(lp1223
g731
ag453
ag149
ag368
ag573
ag123
ag1013
aS'14637758'
p1224
ag340
ag601
ag523
aS'58480929'
p1225
aS'82854435'
p1226
ag597
ag1075
ag223
ag314
aS'97838175'
p1227
ag31
ag379
ag507
ag78
ag47
ag317
ag152
ag19
ag948
ag132
ag136
ag585
aS'73350019'
p1228
ag13
ag405
ag126
ag598
ag86
ag824
ag470
ag595
ag134
ag941
aS'18477924'
p1229
ag469
ag41
ag797
ag169
aS'78822885'
p1230
ag652
ag272
asg54
I1000
sg55
S'Analysemethoden en -technieken'
p1231
sg57
g58
sg59
I0
sg60
g105
sba(ischedule
Activity
p1232
(dp1233
g8
g418
sg54
I1000
sg55
g200
sg57
g58
sg59
I0
sg60
(iread_data
Room
p1234
(dp1235
g54
g263
sg55
g264
sbsba(ischedule
Activity
p1236
(dp1237
g8
g351
sg54
I1000
sg55
g369
sg57
g58
sg59
I0
sg60
(iread_data
Room
p1238
(dp1239
g54
g63
sg55
g64
sbsba(ischedule
Activity
p1240
(dp1241
g8
(lp1242
g587
ag861
ag525
ag98
ag630
ag383
ag820
ag591
ag322
ag919
ag50
aS'19662602'
p1243
ag867
ag306
ag906
ag228
asg54
g681
sg55
g682
sg57
g103
sg59
g308
sg60
(iread_data
Room
p1244
(dp1245
g54
g182
sg55
g183
sbsba(ischedule
Activity
p1246
(dp1247
g8
(lp1248
g120
ag503
aS'73196865'
p1249
aS'39905995'
p1250
ag138
ag333
ag87
ag240
aS'12782624'
p1251
ag1087
ag323
ag460
aS'88597745'
p1252
ag1006
ag577
ag175
ag1005
asg54
g386
sg55
g387
sg57
g103
sg59
g308
sg60
(iread_data
Room
p1253
(dp1254
g54
g277
sg55
g278
sbsba(ischedule
Activity
p1255
(dp1256
g8
(lp1257
g142
ag269
ag11
ag270
ag271
ag25
asg54
g993
sg55
g274
sg57
g103
sg59
g202
sg60
(iread_data
Room
p1258
(dp1259
g54
g205
sg55
g206
sbsba(ischedule
Activity
p1260
(dp1261
g8
(lp1262
g94
ag230
ag164
ag453
ag378
ag34
ag454
ag455
ag456
ag37
ag457
ag458
ag21
ag459
ag172
ag329
ag568
asg54
g1178
sg55
g462
sg57
g201
sg59
g104
sg60
(iread_data
Room
p1263
(dp1264
g54
g246
sg55
g247
sbsbaaa(lp1265
(lp1266
a(lp1267
a(lp1268
a(lp1269
a(lp1270
aasS'timeslot_dict'
p1271
(dp1272
I0
S'9:00-11:00'
p1273
sI1
S'11:00-13:00'
p1274
sI2
S'13:00-15:00'
p1275
sI3
S'15:00-17:00'
p1276
sI4
S'17:00-19:00'
p1277
ssS'day_dict'
p1278
(dp1279
I0
S'Monday'
p1280
sI1
S'Tuesday'
p1281
sI2
S'Wednesday'
p1282
sI3
S'Thursday'
p1283
sI4
S'Friday'
p1284
ssb.