(ischedule
Schedule
p0
(dp1
S'timetable'
p2
(lp3
(lp4
(lp5
(ischedule
Activity
p6
(dp7
S'participants'
p8
(lp9
S'99453514'
p10
aS'81022997'
p11
aS'59753700'
p12
aS'17823206'
p13
aS'98780382'
p14
aS'37744525'
p15
aS'74131924'
p16
aS'45414528'
p17
aS'21964491'
p18
aS'87314964'
p19
aS'66122625'
p20
aS'93023961'
p21
aS'70878567'
p22
aS'68360259'
p23
aS'25330192'
p24
aS'81200278'
p25
aS'87900893'
p26
aS'51566595'
p27
aS'50143947'
p28
aS'13996448'
p29
aS'91196968'
p30
aS'19337738'
p31
aS'22323043'
p32
aS'37110913'
p33
aS'97136582'
p34
aS'52311353'
p35
aS'13116738'
p36
asS'capacity'
p37
I1000
sS'group'
p38
NsS'room'
p39
(iread_data
Room
p40
(dp41
g37
S'41'
p42
sS'name'
p43
S'A1.04'
p44
sbsS'ttype'
p45
S'lectures'
p46
sS'group_id'
p47
I0
sg43
S'Data Mining'
p48
sba(ischedule
Activity
p49
(dp50
g8
(lp51
S'57086672'
p52
aS'67073567'
p53
aS'5615125'
p54
aS'69459473'
p55
aS'76903244'
p56
aS'89180944'
p57
aS'77392404'
p58
aS'3474870'
p59
aS'24891081'
p60
aS'94930277'
p61
aS'66034145'
p62
aS'53202517'
p63
aS'43460038'
p64
aS'16333449'
p65
aS'17092717'
p66
aS'27064249'
p67
aS'53512831'
p68
aS'6249823'
p69
aS'43902015'
p70
aS'28358060'
p71
aS'10698627'
p72
aS'78243495'
p73
aS'20618153'
p74
aS'76648468'
p75
aS'49908313'
p76
aS'61443567'
p77
aS'2416751'
p78
aS'64228258'
p79
aS'41790793'
p80
aS'76123484'
p81
aS'72577292'
p82
aS'33877725'
p83
aS'22288615'
p84
aS'14847953'
p85
aS'40434933'
p86
aS'1137946'
p87
aS'14303208'
p88
aS'39230359'
p89
aS'72895450'
p90
asg37
I1000
sg38
Nsg39
(iread_data
Room
p91
(dp92
g37
S'56'
p93
sg43
S'A1.10'
p94
sbsg45
g46
sg47
I0
sg43
S'Webprogrammeren en databases'
p95
sba(ischedule
Activity
p96
(dp97
g8
(lp98
S'79167252'
p99
aS'76661016'
p100
aS'88855695'
p101
aS'86988337'
p102
aS'83266686'
p103
aS'27187154'
p104
aS'10792879'
p105
aS'81385263'
p106
aS'77896638'
p107
aS'39459642'
p108
aS'75664412'
p109
aS'27950803'
p110
aS'34243356'
p111
aS'75759231'
p112
aS'92665222'
p113
aS'15911353'
p114
aS'9067939'
p115
aS'13284244'
p116
aS'75599734'
p117
aS'48503689'
p118
aS'3407554'
p119
aS'80135353'
p120
aS'31194811'
p121
aS'72796858'
p122
aS'88752563'
p123
aS'65960683'
p124
aS'34872117'
p125
aS'8464817'
p126
aS'88636924'
p127
aS'95007221'
p128
aS'79033175'
p129
aS'46989508'
p130
aS'7957843'
p131
ag63
aS'48308205'
p132
aS'1766560'
p133
aS'49683101'
p134
aS'44391517'
p135
aS'37770881'
p136
aS'5368702'
p137
aS'11915563'
p138
aS'34110913'
p139
aS'76802764'
p140
aS'66701209'
p141
aS'40791377'
p142
asg37
S'40'
p143
sg38
(ischedule
Group
p144
(dp145
g8
g98
sg43
S'Compilerbouw1'
p146
sbsg39
(iread_data
Room
p147
(dp148
g37
S'48'
p149
sg43
S'B0.201'
p150
sbsg45
S'labs'
p151
sg47
S'1'
p152
sg43
S'Compilerbouw'
p153
sba(ischedule
Activity
p154
(dp155
g8
(lp156
S'78443067'
p157
aS'14309255'
p158
aS'77376714'
p159
aS'1048485'
p160
aS'62356458'
p161
aS'41153310'
p162
aS'73236988'
p163
aS'27582862'
p164
aS'99283252'
p165
aS'48601268'
p166
aS'31247305'
p167
aS'4546613'
p168
aS'26260141'
p169
aS'9287708'
p170
aS'95631564'
p171
aS'3727435'
p172
aS'29640619'
p173
aS'65408517'
p174
aS'83210352'
p175
asg37
S'40'
p176
sg38
(ischedule
Group
p177
(dp178
g8
g156
sg43
S'Software engineering2'
p179
sbsg39
(iread_data
Room
p180
(dp181
g37
S'22'
p182
sg43
S'A1.06'
p183
sbsg45
g151
sg47
S'2'
p184
sg43
S'Software engineering'
p185
sba(ischedule
Activity
p186
(dp187
g8
(lp188
S'43680781'
p189
aS'85335143'
p190
aS'15051051'
p191
aS'79617364'
p192
aS'247918'
p193
aS'5298748'
p194
aS'3168419'
p195
aS'6913074'
p196
aS'7308727'
p197
aS'96054456'
p198
aS'42196732'
p199
aS'54026378'
p200
aS'89985072'
p201
aS'77831658'
p202
aS'30050930'
p203
aS'58522654'
p204
ag16
ag18
asg37
S'20'
p205
sg38
(ischedule
Group
p206
(dp207
g8
g188
sg43
S'Bioinformatica1'
p208
sbsg39
(iread_data
Room
p209
(dp210
g37
S'60'
p211
sg43
S'C1.112'
p212
sbsg45
S'tutorials'
p213
sg47
g152
sg43
S'Bioinformatica'
p214
sba(ischedule
Activity
p215
(dp216
g8
(lp217
S'4353500'
p218
ag20
aS'11996292'
p219
aS'58736785'
p220
aS'97417002'
p221
aS'56749879'
p222
aS'59075181'
p223
aS'81218347'
p224
aS'14591033'
p225
aS'86807027'
p226
aS'14816774'
p227
ag33
aS'97019450'
p228
aS'44901052'
p229
aS'20331158'
p230
aS'42171678'
p231
aS'36903574'
p232
aS'75521763'
p233
aS'83443653'
p234
aS'4783858'
p235
aS'57467488'
p236
ag61
aS'45660925'
p237
aS'1696500'
p238
aS'13658563'
p239
aS'53775014'
p240
aS'19858730'
p241
aS'79879876'
p242
ag32
aS'71839156'
p243
aS'92977271'
p244
aS'87210640'
p245
aS'14138904'
p246
aS'75997788'
p247
aS'76393508'
p248
aS'61060652'
p249
aS'22871048'
p250
aS'20830477'
p251
aS'98105190'
p252
aS'14941752'
p253
aS'53107172'
p254
aS'31897288'
p255
aS'48357272'
p256
aS'4568018'
p257
asg37
I1000
sg38
Nsg39
(iread_data
Room
p258
(dp259
g37
S'117'
p260
sg43
S'C0.110'
p261
sbsg45
g46
sg47
I0
sg43
S'Heuristieken 1'
p262
sbaa(lp263
(ischedule
Activity
p264
(dp265
g8
g98
sg37
S'40'
p266
sg38
g144
sg39
(iread_data
Room
p267
(dp268
g37
g93
sg43
g94
sbsg45
g213
sg47
g152
sg43
g153
sba(ischedule
Activity
p269
(dp270
g8
(lp271
g18
ag222
aS'68601184'
p272
ag198
aS'83415514'
p273
aS'85236626'
p274
aS'26857113'
p275
aS'23391676'
p276
aS'94955328'
p277
aS'33776961'
p278
aS'47982619'
p279
aS'47477884'
p280
ag164
aS'37279234'
p281
aS'86291592'
p282
aS'51593625'
p283
aS'77960666'
p284
aS'23658570'
p285
aS'63096281'
p286
aS'92778619'
p287
aS'4921119'
p288
aS'3678531'
p289
aS'670011'
p290
aS'10702778'
p291
asg37
S'20'
p292
sg38
(ischedule
Group
p293
(dp294
g8
g271
sg43
S'Programmeren in Java 24'
p295
sbsg39
(iread_data
Room
p296
(dp297
g37
g260
sg43
g261
sbsg45
g151
sg47
S'4'
p298
sg43
S'Programmeren in Java 2'
p299
sba(ischedule
Activity
p300
(dp301
g8
(lp302
g81
ag86
ag82
ag69
ag89
ag54
ag79
ag77
ag67
ag84
ag80
ag55
ag64
ag76
ag61
ag75
ag65
ag73
ag71
ag62
ag87
ag70
asg37
S'20'
p303
sg38
(ischedule
Group
p304
(dp305
g8
g302
sg43
S'Webprogrammeren en databases2'
p306
sbsg39
(iread_data
Room
p307
(dp308
g37
g182
sg43
g183
sbsg45
g151
sg47
g184
sg43
g95
sba(ischedule
Activity
p309
(dp310
g8
(lp311
S'19958553'
p312
ag22
aS'77636749'
p313
aS'62701040'
p314
aS'8557857'
p315
ag233
aS'75585647'
p316
aS'29718115'
p317
aS'36748818'
p318
ag36
aS'58332004'
p319
aS'23983476'
p320
ag229
aS'17496687'
p321
aS'32204977'
p322
aS'11459236'
p323
aS'18266644'
p324
aS'23257088'
p325
aS'68315599'
p326
ag244
ag239
asg37
I1000
sg38
Nsg39
(iread_data
Room
p327
(dp328
g37
S'41'
p329
sg43
S'A1.04'
p330
sbsg45
g46
sg47
I0
sg43
S'Informatie- en organsatieontwerp'
p331
sba(ischedule
Activity
p332
(dp333
g8
(lp334
g28
ag27
ag30
ag33
ag21
ag32
ag29
ag26
ag35
ag11
ag19
ag14
ag13
ag31
ag20
asg37
S'10'
p335
sg38
(ischedule
Group
p336
(dp337
g8
g334
sg43
S'Data Mining3'
p338
sbsg39
(iread_data
Room
p339
(dp340
g37
S'20'
p341
sg43
S'A1.08'
p342
sbsg45
g213
sg47
S'3'
p343
sg43
g48
sba(ischedule
Activity
p344
(dp345
g8
(lp346
g252
ag158
ag326
ag90
aS'5595824'
p347
aS'2317551'
p348
ag204
ag163
ag171
ag282
aS'84524083'
p349
aS'13911001'
p350
aS'30658799'
p351
aS'42778953'
p352
aS'2079771'
p353
aS'60312776'
p354
aS'11741347'
p355
aS'65852230'
p356
aS'6723948'
p357
aS'12077419'
p358
aS'94687383'
p359
aS'43689934'
p360
aS'24613625'
p361
aS'54772132'
p362
asg37
g266
sg38
(ischedule
Group
p363
(dp364
g8
g346
sg43
S'Compilerbouw2'
p365
sbsg39
(iread_data
Room
p366
(dp367
g37
g211
sg43
g212
sbsg45
g213
sg47
g184
sg43
g153
sba(ischedule
Activity
p368
(dp369
g8
(lp370
S'26406342'
p371
aS'1665980'
p372
aS'52715680'
p373
aS'535689'
p374
ag257
aS'51472074'
p375
ag119
aS'63634350'
p376
aS'5892092'
p377
aS'42297781'
p378
aS'65675896'
p379
aS'14383795'
p380
aS'11068043'
p381
aS'99272880'
p382
aS'55103073'
p383
aS'57595888'
p384
asg37
S'15'
p385
sg38
(ischedule
Group
p386
(dp387
g8
g370
sg43
S'Compilerbouw practicum2'
p388
sbsg39
(iread_data
Room
p389
(dp390
g37
g149
sg43
g150
sbsg45
g151
sg47
g184
sg43
S'Compilerbouw practicum'
p391
sbaa(lp392
(ischedule
Activity
p393
(dp394
g8
(lp395
g28
ag197
aS'15902055'
p396
ag77
ag384
ag18
aS'34773179'
p397
ag199
ag173
aS'31416266'
p398
ag166
aS'33760909'
p399
ag254
aS'25106480'
p400
aS'3233378'
p401
aS'97135019'
p402
ag371
ag352
aS'22699561'
p403
ag233
aS'50184318'
p404
aS'9332762'
p405
ag107
aS'51741554'
p406
ag124
asg37
S'20'
p407
sg38
(ischedule
Group
p408
(dp409
g8
g395
sg43
S'Collectieve Intelligentie1'
p410
sbsg39
(iread_data
Room
p411
(dp412
g37
g260
sg43
g261
sbsg45
g151
sg47
g152
sg43
S'Collectieve Intelligentie'
p413
sba(ischedule
Activity
p414
(dp415
g8
(lp416
S'36785409'
p417
aS'60352393'
p418
ag250
ag239
ag278
aS'42406214'
p419
aS'84449005'
p420
ag194
aS'24277163'
p421
aS'36213792'
p422
aS'87830198'
p423
aS'60661905'
p424
aS'4709948'
p425
aS'68286356'
p426
aS'13092455'
p427
ag284
aS'38296757'
p428
aS'37399898'
p429
ag12
aS'61518436'
p430
aS'20239127'
p431
ag58
aS'3685034'
p432
aS'51052738'
p433
aS'90474003'
p434
aS'27370083'
p435
aS'82390428'
p436
aS'49922855'
p437
aS'32044893'
p438
ag33
ag196
aS'27805666'
p439
aS'78136904'
p440
ag102
aS'51415617'
p441
ag287
aS'22826928'
p442
aS'96554914'
p443
aS'13718298'
p444
aS'20095994'
p445
ag189
ag10
aS'54569540'
p446
aS'70193386'
p447
ag110
aS'99975346'
p448
ag373
aS'41578612'
p449
aS'70844780'
p450
ag349
ag52
asg37
I1000
sg38
Nsg39
(iread_data
Room
p451
(dp452
g37
S'56'
p453
sg43
S'A1.10'
p454
sbsg45
g46
sg47
I0
sg43
S'Reflectie op de digitale cultuur'
p455
sba(ischedule
Activity
p456
(dp457
g8
(lp458
g314
ag79
ag282
aS'28357474'
p459
ag235
aS'45556081'
p460
ag136
aS'23547619'
p461
ag372
aS'1075391'
p462
aS'86000192'
p463
aS'46052388'
p464
aS'17575088'
p465
aS'87758823'
p466
aS'35330349'
p467
ag354
ag204
aS'73980360'
p468
asg37
g407
sg38
(ischedule
Group
p469
(dp470
g8
g458
sg43
S'Collectieve Intelligentie2'
p471
sbsg39
(iread_data
Room
p472
(dp473
g37
g182
sg43
g183
sbsg45
g151
sg47
g184
sg43
g413
sba(ischedule
Activity
p474
(dp475
g8
(lp476
g111
aS'72586808'
p477
ag131
ag34
aS'30195935'
p478
aS'53267490'
p479
aS'48678993'
p480
aS'123355'
p481
ag24
ag362
aS'66120270'
p482
ag238
aS'8522855'
p483
ag324
aS'56191333'
p484
ag167
aS'82872148'
p485
aS'3883025'
p486
aS'40343779'
p487
aS'72456780'
p488
ag11
aS'21677389'
p489
ag160
asg37
S'20'
p490
sg38
(ischedule
Group
p491
(dp492
g8
g476
sg43
S'Netwerken en systeembeveiliging4'
p493
sbsg39
(iread_data
Room
p494
(dp495
g37
g211
sg43
g212
sbsg45
g151
sg47
g298
sg43
S'Netwerken en systeembeveiliging'
p496
sba(ischedule
Activity
p497
(dp498
g8
(lp499
S'53585410'
p500
aS'5085194'
p501
ag322
aS'64418623'
p502
aS'38499176'
p503
aS'44151631'
p504
aS'1695839'
p505
ag201
aS'51673172'
p506
asg37
g385
sg38
(ischedule
Group
p507
(dp508
g8
g499
sg43
S'Compilerbouw practicum3'
p509
sbsg39
(iread_data
Room
p510
(dp511
g37
g149
sg43
g150
sbsg45
g151
sg47
g343
sg43
g391
sba(ischedule
Activity
p512
(dp513
g8
(lp514
S'46701583'
p515
asg37
g292
sg38
(ischedule
Group
p516
(dp517
g8
g514
sg43
S'Programmeren in Java 25'
p518
sbsg39
(iread_data
Room
p519
(dp520
g37
g341
sg43
g342
sbsg45
g151
sg47
S'5'
p521
sg43
g299
sba(ischedule
Activity
p522
(dp523
g8
(lp524
g272
asg37
S'20'
p525
sg38
(ischedule
Group
p526
(dp527
g8
g524
sg43
S'Collectieve Intelligentie3'
p528
sbsg39
(iread_data
Room
p529
(dp530
g37
g329
sg43
g330
sbsg45
g213
sg47
g343
sg43
g413
sbaa(lp531
(ischedule
Activity
p532
(dp533
g8
(lp534
g111
ag124
ag100
ag126
ag357
ag107
ag358
ag140
ag116
ag110
ag130
ag109
ag105
ag120
ag112
ag131
ag102
ag114
ag103
ag171
ag355
ag138
ag354
ag63
ag282
ag135
ag90
ag121
ag122
ag326
ag99
ag119
ag350
ag139
ag106
ag125
ag117
ag252
ag104
ag163
ag113
ag347
ag360
ag351
ag158
ag123
ag359
ag132
ag141
ag204
ag115
ag128
ag349
ag118
ag133
ag348
ag134
ag142
ag127
ag136
ag129
ag356
ag362
ag361
ag101
ag352
ag108
ag353
ag137
asg37
I1000
sg38
Nsg39
(iread_data
Room
p535
(dp536
g37
S'117'
p537
sg43
S'C0.110'
p538
sbsg45
g46
sg47
I0
sg43
g153
sba(ischedule
Activity
p539
(dp540
g8
g51
sg37
I1000
sg38
Nsg39
(iread_data
Room
p541
(dp542
g37
g211
sg43
g212
sbsg45
g46
sg47
I0
sg43
g95
sba(ischedule
Activity
p543
(dp544
g8
(lp545
g18
ag16
ag24
ag17
ag23
ag25
ag12
asg37
g335
sg38
(ischedule
Group
p546
(dp547
g8
g545
sg43
S'Data Mining1'
p548
sbsg39
(iread_data
Room
p549
(dp550
g37
g341
sg43
g342
sbsg45
g213
sg47
g152
sg43
g48
sba(ischedule
Activity
p551
(dp552
g8
(lp553
g15
ag22
ag34
ag10
ag36
asg37
S'10'
p554
sg38
(ischedule
Group
p555
(dp556
g8
g553
sg43
S'Data Mining2'
p557
sbsg39
(iread_data
Room
p558
(dp559
g37
g149
sg43
g150
sbsg45
g151
sg47
g184
sg43
g48
sba(ischedule
Activity
p560
(dp561
g8
g334
sg37
g554
sg38
g336
sg39
(iread_data
Room
p562
(dp563
g37
g182
sg43
g183
sbsg45
g151
sg47
g343
sg43
g48
sba(ischedule
Activity
p564
(dp565
g8
(lp566
S'74182182'
p567
ag256
aS'38179241'
p568
aS'44868097'
p569
aS'16097870'
p570
ag289
aS'62363761'
p571
ag500
ag157
aS'32705005'
p572
aS'73302736'
p573
aS'87602030'
p574
aS'31306819'
p575
ag196
ag515
aS'23565001'
p576
aS'78544592'
p577
aS'77306636'
p578
ag227
aS'81155296'
p579
aS'9731271'
p580
aS'28957789'
p581
aS'58592894'
p582
ag235
aS'56872729'
p583
aS'58699305'
p584
ag226
ag281
aS'40141996'
p585
aS'27925117'
p586
aS'93361408'
p587
aS'19717077'
p588
ag463
ag198
aS'47932106'
p589
asg37
S'40'
p590
sg38
(ischedule
Group
p591
(dp592
g8
g566
sg43
S'Calculus 22'
p593
sbsg39
(iread_data
Room
p594
(dp595
g37
g329
sg43
g330
sbsg45
g213
sg47
g184
sg43
S'Calculus 2'
p596
sba(ischedule
Activity
p597
(dp598
g8
(lp599
S'37419523'
p600
ag432
ag131
asg37
S'15'
p601
sg38
(ischedule
Group
p602
(dp603
g8
g599
sg43
S'Project Numerical Recipes2'
p604
sbsg39
(iread_data
Room
p605
(dp606
g37
g453
sg43
g454
sbsg45
g151
sg47
g184
sg43
S'Project Numerical Recipes'
p607
sbaa(lp608
(ischedule
Activity
p609
(dp610
g8
(lp611
S'28359697'
p612
ag381
ag222
aS'20883994'
p613
aS'88176729'
p614
ag357
aS'22731474'
p615
ag569
asg37
g205
sg38
(ischedule
Group
p616
(dp617
g8
g611
sg43
S'Bioinformatica2'
p618
sbsg39
(iread_data
Room
p619
(dp620
g37
S'60'
p621
sg43
S'C1.112'
p622
sbsg45
g213
sg47
g184
sg43
g214
sba(ischedule
Activity
p623
(dp624
g8
g534
sg37
I1000
sg38
Nsg39
(iread_data
Room
p625
(dp626
g37
g537
sg43
g538
sbsg45
g46
sg47
I0
sg43
g153
sba(ischedule
Activity
p627
(dp628
g8
(lp629
g28
ag106
ag396
ag159
ag90
aS'88596522'
p630
aS'91527663'
p631
aS'19540225'
p632
aS'66433883'
p633
aS'34765676'
p634
ag320
aS'64554442'
p635
aS'27298319'
p636
aS'5976174'
p637
aS'21095566'
p638
ag169
aS'14671406'
p639
aS'67817269'
p640
ag483
aS'64947290'
p641
ag236
ag59
ag70
ag515
ag27
ag18
aS'23652927'
p642
ag487
aS'41585485'
p643
ag440
ag358
aS'51509565'
p644
ag372
ag232
aS'41527759'
p645
ag373
aS'44828429'
p646
aS'96453361'
p647
ag500
aS'82689818'
p648
ag102
ag582
aS'3707829'
p649
asg37
I1000
sg38
Nsg39
(iread_data
Room
p650
(dp651
g37
S'48'
p652
sg43
S'B0.201'
p653
sbsg45
g46
sg47
I0
sg43
S'Algoritmen en complexiteit'
p654
sba(ischedule
Activity
p655
(dp656
g8
(lp657
g442
ag444
ag425
ag446
asg37
S'20'
p658
sg38
(ischedule
Group
p659
(dp660
g8
g657
sg43
S'Reflectie op de digitale cultuur2'
p661
sbsg39
(iread_data
Room
p662
(dp663
g37
g42
sg43
g44
sbsg45
g213
sg47
g184
sg43
g455
sba(ischedule
Activity
p664
(dp665
g8
g302
sg37
S'20'
p666
sg38
g304
sg39
(iread_data
Room
p667
(dp668
g37
g453
sg43
g454
sbsg45
g213
sg47
g184
sg43
g95
sba(ischedule
Activity
p669
(dp670
g8
(lp671
g36
ag22
ag325
ag233
ag244
ag229
ag319
ag313
ag315
ag322
ag318
ag323
ag321
ag239
ag317
ag314
ag324
ag326
ag316
asg37
S'15'
p672
sg38
(ischedule
Group
p673
(dp674
g8
g671
sg43
S'Informatie- en organsatieontwerp1'
p675
sbsg39
(iread_data
Room
p676
(dp677
g37
g182
sg43
g183
sbsg45
g213
sg47
g152
sg43
g331
sba(ischedule
Activity
p678
(dp679
g8
g188
sg37
S'20'
p680
sg38
g206
sg39
(iread_data
Room
p681
(dp682
g37
g341
sg43
g342
sbsg45
g151
sg47
g152
sg43
g214
sbaaa(lp683
(lp684
(ischedule
Activity
p685
(dp686
g8
(lp687
g326
ag421
aS'29526540'
p688
ag219
aS'17222374'
p689
aS'70072978'
p690
ag486
aS'36527838'
p691
ag404
ag231
ag103
aS'5517869'
p692
ag157
aS'48198668'
p693
aS'27916487'
p694
ag233
aS'63111000'
p695
ag158
aS'51650744'
p696
ag165
aS'41489515'
p697
ag350
aS'13218321'
p698
ag582
ag57
ag190
ag351
ag319
aS'64600457'
p699
aS'1181560'
p700
ag278
ag273
ag133
asg37
S'20'
p701
sg38
(ischedule
Group
p702
(dp703
g8
g687
sg43
S'Moderne Databases1'
p704
sbsg39
(iread_data
Room
p705
(dp706
g37
g149
sg43
g150
sbsg45
g213
sg47
g152
sg43
S'Moderne Databases'
p707
sba(ischedule
Activity
p708
(dp709
g8
(lp710
g225
ag65
aS'54074680'
p711
ag30
ag352
ag570
ag59
ag224
ag583
ag199
ag175
aS'58866007'
p712
ag243
ag290
ag106
ag429
aS'34588570'
p713
ag398
aS'42115591'
p714
ag277
ag107
ag449
ag467
aS'93566383'
p715
aS'68409833'
p716
ag567
ag503
aS'96118484'
p717
aS'26172512'
p718
aS'75005528'
p719
aS'55474917'
p720
ag111
ag192
ag35
aS'36508571'
p721
aS'55412918'
p722
aS'80709893'
p723
ag691
aS'16011419'
p724
ag249
ag288
aS'62872965'
p725
aS'21311067'
p726
aS'94686490'
p727
aS'32595335'
p728
aS'90743504'
p729
aS'10149535'
p730
ag466
aS'79937969'
p731
aS'66570705'
p732
ag576
ag692
ag132
aS'80998260'
p733
asg37
I1000
sg38
Nsg39
(iread_data
Room
p734
(dp735
g37
g211
sg43
g212
sbsg45
g46
sg47
I0
sg43
S'Lineaire Algebra'
p736
sba(ischedule
Activity
p737
(dp738
g8
(lp739
g102
ag440
ag169
ag372
ag500
ag90
ag396
ag636
ag582
ag630
ag643
ag644
ag236
ag320
ag28
ag648
ag631
ag640
ag639
ag635
ag634
ag373
ag27
ag649
ag637
ag18
ag642
ag358
ag638
ag232
ag633
ag647
ag487
ag632
ag645
ag70
ag159
asg37
S'25'
p740
sg38
(ischedule
Group
p741
(dp742
g8
g739
sg43
S'Algoritmen en complexiteit2'
p743
sbsg39
(iread_data
Room
p744
(dp745
g37
g453
sg43
g454
sbsg45
g151
sg47
g184
sg43
g654
sba(ischedule
Activity
p746
(dp747
g8
g611
sg37
g680
sg38
g616
sg39
(iread_data
Room
p748
(dp749
g37
g329
sg43
g330
sbsg45
g151
sg47
g184
sg43
g214
sba(ischedule
Activity
p750
(dp751
g8
(lp752
g142
ag637
ag104
aS'67625383'
p753
aS'56988998'
p754
ag353
ag191
ag108
ag432
ag134
ag428
ag275
ag695
aS'23798155'
p755
aS'77240949'
p756
aS'90067329'
p757
ag274
ag15
aS'94467156'
p758
ag430
ag515
aS'33252501'
p759
asg37
I1000
sg38
Nsg39
(iread_data
Room
p760
(dp761
g37
g182
sg43
g183
sbsg45
g46
sg47
I0
sg43
S'Machine Learning'
p762
sba(ischedule
Activity
p763
(dp764
g8
(lp765
S'46570285'
p766
ag247
aS'47462856'
p767
ag318
aS'96082155'
p768
aS'78821918'
p769
aS'66621166'
p770
ag420
aS'49219163'
p771
ag73
ag584
ag425
ag355
ag159
aS'59111489'
p772
aS'18144425'
p773
aS'49631542'
p774
ag577
ag189
aS'27241113'
p775
asg37
g701
sg38
(ischedule
Group
p776
(dp777
g8
g765
sg43
S'Moderne Databases2'
p778
sbsg39
(iread_data
Room
p779
(dp780
g37
g260
sg43
g261
sbsg45
g213
sg47
g184
sg43
g707
sbaa(lp781
(ischedule
Activity
p782
(dp783
g8
(lp784
g191
ag163
ag227
ag615
ag198
ag442
ag197
ag63
ag381
ag361
ag647
ag257
ag199
aS'33930505'
p785
ag194
ag190
ag200
ag222
ag83
ag16
ag699
aS'56815156'
p786
ag613
ag192
ag614
ag357
ag612
aS'59544049'
p787
ag18
ag189
ag196
ag225
ag201
ag25
ag22
ag203
ag195
ag193
ag688
ag202
aS'21029457'
p788
ag482
ag478
ag204
ag569
asg37
I1000
sg38
Nsg39
(iread_data
Room
p789
(dp790
g37
g453
sg43
g454
sbsg45
g46
sg47
I0
sg43
g214
sba(ischedule
Activity
p791
(dp792
g8
(lp793
g290
ag27
ag637
ag574
ag52
aS'82968410'
p794
ag11
ag399
aS'5739011'
p795
ag255
ag349
aS'72652638'
p796
ag448
ag73
ag274
aS'52304977'
p797
ag220
aS'35315956'
p798
asg37
S'20'
p799
sg38
(ischedule
Group
p800
(dp801
g8
g793
sg43
S'Heuristieken 21'
p802
sbsg39
(iread_data
Room
p803
(dp804
g37
g211
sg43
g212
sbsg45
g213
sg47
g152
sg43
S'Heuristieken 2'
p805
sba(ischedule
Activity
p806
(dp807
g8
(lp808
g699
ag102
ag314
ag99
aS'64393888'
p809
ag429
ag135
ag396
aS'73893840'
p810
aS'90296821'
p811
ag758
ag29
ag405
aS'12782624'
p812
ag120
aS'51791169'
p813
aS'7492204'
p814
ag160
ag232
ag84
asg37
g292
sg38
(ischedule
Group
p815
(dp816
g8
g808
sg43
S'Programmeren in Java 22'
p817
sbsg39
(iread_data
Room
p818
(dp819
g37
g341
sg43
g342
sbsg45
g151
sg47
g184
sg43
g299
sba(ischedule
Activity
p820
(dp821
g8
(lp822
g586
ag230
ag86
ag246
ag64
ag103
ag82
ag125
ag648
ag134
ag755
ag712
aS'13798030'
p823
ag57
ag317
aS'59289233'
p824
ag460
aS'28618400'
p825
ag730
aS'70015932'
p826
aS'72683344'
p827
asg37
I1000
sg38
Nsg39
(iread_data
Room
p828
(dp829
g37
g182
sg43
g183
sbsg45
g46
sg47
I0
sg43
S'Architectuur en computerorganisatie'
p830
sba(ischedule
Activity
p831
(dp832
g8
(lp833
S'74361881'
p834
aS'47260040'
p835
ag246
aS'91250534'
p836
ag88
aS'72665524'
p837
ag323
ag350
ag243
ag28
aS'23215240'
p838
aS'41644639'
p839
aS'25994016'
p840
aS'82066165'
p841
ag630
asg37
g385
sg38
(ischedule
Group
p842
(dp843
g8
g833
sg43
S'Compilerbouw practicum1'
p844
sbsg39
(iread_data
Room
p845
(dp846
g37
g149
sg43
g150
sbsg45
g151
sg47
g152
sg43
g391
sba(ischedule
Activity
p847
(dp848
g8
(lp849
g374
ag106
aS'63573738'
p850
ag109
ag282
ag418
ag15
aS'64246605'
p851
ag218
aS'70939718'
p852
aS'62736669'
p853
ag450
ag58
ag425
asg37
g490
sg38
(ischedule
Group
p854
(dp855
g8
g849
sg43
S'Netwerken en systeembeveiliging3'
p856
sbsg39
(iread_data
Room
p857
(dp858
g37
g260
sg43
g261
sbsg45
g151
sg47
g343
sg43
g496
sba(ischedule
Activity
p859
(dp860
g8
(lp861
g25
aS'58040377'
p862
aS'83869542'
p863
ag586
ag615
aS'1886996'
p864
aS'15249775'
p865
ag480
ag570
ag77
aS'43027916'
p866
ag634
aS'7106649'
p867
ag376
asg37
g799
sg38
(ischedule
Group
p868
(dp869
g8
g861
sg43
S'Heuristieken 22'
p870
sbsg39
(iread_data
Room
p871
(dp872
g37
g329
sg43
g330
sbsg45
g213
sg47
g184
sg43
g805
sbaa(lp873
(ischedule
Activity
p874
(dp875
g8
(lp876
g247
ag768
ag159
ag577
ag694
ag420
ag693
ag273
ag103
ag219
ag425
ag766
ag697
ag133
ag165
ag769
ag189
ag404
ag318
ag771
ag772
ag350
ag582
ag767
ag700
ag690
ag351
ag421
ag692
ag73
ag774
ag319
ag688
ag486
ag191
ag157
ag691
ag278
ag689
ag355
ag190
ag698
ag584
ag699
ag775
ag770
ag231
ag326
ag158
ag233
ag696
ag773
ag695
ag57
asg37
I1000
sg38
Nsg39
(iread_data
Room
p877
(dp878
g37
g211
sg43
g212
sbsg45
g46
sg47
I0
sg43
g707
sba(ischedule
Activity
p879
(dp880
g8
(lp881
g35
ag381
ag117
ag250
ag64
ag256
ag110
ag28
ag15
ag354
ag32
ag459
ag235
ag283
ag400
aS'62105897'
p882
ag73
ag201
ag443
ag249
ag637
ag720
aS'58565406'
p883
aS'89338938'
p884
ag573
ag714
aS'84110134'
p885
ag614
ag401
ag487
aS'31103066'
p886
ag569
ag716
ag645
ag373
ag257
ag200
ag639
ag485
aS'14072826'
p887
ag723
aS'45915482'
p888
aS'37830626'
p889
ag444
aS'65318664'
p890
ag638
aS'44671041'
p891
ag787
aS'31633723'
p892
ag83
ag826
ag57
ag758
aS'52552718'
p893
aS'58074656'
p894
ag138
asg37
g176
sg38
(ischedule
Group
p895
(dp896
g8
g881
sg43
S'Software engineering1'
p897
sbsg39
(iread_data
Room
p898
(dp899
g37
g260
sg43
g261
sbsg45
g151
sg47
g152
sg43
g185
sba(ischedule
Activity
p900
(dp901
g8
(lp902
g837
ag229
ag825
aS'5590289'
p903
ag236
ag232
ag580
aS'59887191'
p904
aS'12170832'
p905
ag785
ag223
asg37
g490
sg38
(ischedule
Group
p906
(dp907
g8
g902
sg43
S'Netwerken en systeembeveiliging1'
p908
sbsg39
(iread_data
Room
p909
(dp910
g37
g453
sg43
g454
sbsg45
g151
sg47
g152
sg43
g496
sba(ischedule
Activity
p911
(dp912
g8
(lp913
S'14398123'
p914
ag648
aS'25557516'
p915
aS'26207525'
p916
ag197
aS'85284256'
p917
ag571
ag402
ag503
aS'19058315'
p918
ag25
ag173
aS'56121590'
p919
ag406
aS'16912993'
p920
ag423
asg37
g490
sg38
(ischedule
Group
p921
(dp922
g8
g913
sg43
S'Netwerken en systeembeveiliging2'
p923
sbsg39
(iread_data
Room
p924
(dp925
g37
g149
sg43
g150
sbsg45
g151
sg47
g184
sg43
g496
sba(ischedule
Activity
p926
(dp927
g8
(lp928
S'76924297'
p929
asg37
S'15'
p930
sg38
(ischedule
Group
p931
(dp932
g8
g928
sg43
S'Project Genetic Algorithms1'
p933
sbsg39
(iread_data
Room
p934
(dp935
g37
g341
sg43
g342
sbsg45
g151
sg47
g152
sg43
S'Project Genetic Algorithms'
p936
sbaa(lp937
(ischedule
Activity
p938
(dp939
g8
g784
sg37
I1000
sg38
Nsg39
(iread_data
Room
p940
(dp941
g37
g149
sg43
g150
sbsg45
g46
sg47
I0
sg43
g214
sba(ischedule
Activity
p942
(dp943
g8
g752
sg37
I1000
sg38
Nsg39
(iread_data
Room
p944
(dp945
g37
g182
sg43
g183
sbsg45
g46
sg47
I0
sg43
g762
sba(ischedule
Activity
p946
(dp947
g8
(lp948
g692
ag893
ag27
ag161
ag241
ag250
aS'61611295'
p949
asg37
S'10'
p950
sg38
(ischedule
Group
p951
(dp952
g8
g948
sg43
S'Autonomous Agents 21'
p953
sbsg39
(iread_data
Room
p954
(dp955
g37
g329
sg43
g330
sbsg45
g213
sg47
g152
sg43
S'Autonomous Agents 2'
p956
sba(ischedule
Activity
p957
(dp958
g8
(lp959
g168
aS'23628642'
p960
ag103
aS'58469172'
p961
ag123
aS'78735049'
p962
ag888
aS'34173695'
p963
ag285
aS'80188025'
p964
aS'24875739'
p965
aS'6939933'
p966
aS'14179347'
p967
ag26
ag376
ag882
aS'58253841'
p968
ag174
ag316
ag100
ag169
aS'61520025'
p969
aS'75623387'
p970
ag88
aS'79888156'
p971
aS'72526473'
p972
aS'75446434'
p973
asg37
g590
sg38
(ischedule
Group
p974
(dp975
g8
g959
sg43
S'Calculus 23'
p976
sbsg39
(iread_data
Room
p977
(dp978
g37
g453
sg43
g454
sbsg45
g213
sg47
g343
sg43
g596
sba(ischedule
Activity
p979
(dp980
g8
g710
sg37
I1000
sg38
Nsg39
(iread_data
Room
p981
(dp982
g37
g211
sg43
g212
sbsg45
g46
sg47
I0
sg43
g736
sba(ischedule
Activity
p983
(dp984
g8
(lp985
g33
ag231
ag248
ag229
ag235
ag32
ag220
ag237
ag239
ag223
ag234
ag228
ag20
asg37
S'25'
p986
sg38
(ischedule
Group
p987
(dp988
g8
g985
sg43
S'Heuristieken 11'
p989
sbsg39
(iread_data
Room
p990
(dp991
g37
g260
sg43
g261
sbsg45
g213
sg47
g152
sg43
g262
sba(ischedule
Activity
p992
(dp993
g8
(lp994
g202
ag90
aS'73823548'
p995
aS'12430748'
p996
ag29
aS'19662602'
p997
ag11
aS'90103047'
p998
aS'32183908'
p999
aS'34691309'
p1000
ag354
aS'63939720'
p1001
asg37
g601
sg38
(ischedule
Group
p1002
(dp1003
g8
g994
sg43
S'Project Numerical Recipes1'
p1004
sbsg39
(iread_data
Room
p1005
(dp1006
g37
g341
sg43
g342
sbsg45
g151
sg47
g152
sg43
g607
sbaa(lp1007
(ischedule
Activity
p1008
(dp1009
g8
(lp1010
g769
ag371
aS'86180471'
p1011
ag290
aS'64296965'
p1012
aS'25077484'
p1013
ag434
ag719
ag130
aS'58083680'
p1014
ag122
ag774
ag853
ag648
aS'4529208'
p1015
aS'12091019'
p1016
ag582
ag689
ag123
ag199
ag727
ag66
ag107
ag995
ag236
ag916
ag893
aS'37701751'
p1017
ag484
ag288
ag198
ag219
ag427
ag418
ag692
ag688
ag319
ag690
ag421
aS'27123462'
p1018
ag919
ag86
aS'54540997'
p1019
ag284
ag488
ag102
ag280
ag81
ag285
ag631
ag222
ag108
aS'5526560'
p1020
ag193
aS'59397895'
p1021
ag173
ag227
ag863
ag583
ag866
ag325
ag70
aS'13132925'
p1022
ag27
ag501
ag641
ag195
ag125
ag585
aS'15187217'
p1023
aS'51542218'
p1024
ag589
asg37
I1000
sg38
Nsg39
(iread_data
Room
p1025
(dp1026
g37
g537
sg43
g538
sbsg45
g46
sg47
I0
sg43
S'Databases 2'
p1027
sba(ischedule
Activity
p1028
(dp1029
g8
(lp1030
g121
ag461
aS'77264363'
p1031
ag158
ag190
ag33
ag69
ag229
ag326
ag322
ag730
ag279
aS'69086548'
p1032
ag358
ag996
ag449
ag405
ag109
ag417
aS'70336464'
p1033
ag313
aS'21192048'
p1034
ag884
ag32
ag132
ag371
ag189
aS'4697362'
p1035
ag233
aS'92496780'
p1036
ag867
aS'93041523'
p1037
aS'97371272'
p1038
ag883
ag380
ag86
aS'76487754'
p1039
ag219
asg37
I1000
sg38
Nsg39
(iread_data
Room
p1040
(dp1041
g37
g42
sg43
g44
sbsg45
g46
sg47
I0
sg43
S'Technology for games'
p1042
sba(ischedule
Activity
p1043
(dp1044
g8
g765
sg37
S'20'
p1045
sg38
g776
sg39
(iread_data
Room
p1046
(dp1047
g37
g341
sg43
g342
sbsg45
g151
sg47
g184
sg43
g707
sba(ischedule
Activity
p1048
(dp1049
g8
(lp1050
g63
ag90
ag59
ag68
ag78
ag72
ag66
ag52
ag56
ag85
ag88
ag57
ag58
ag53
ag74
ag60
ag83
asg37
g666
sg38
(ischedule
Group
p1051
(dp1052
g8
g1050
sg43
S'Webprogrammeren en databases1'
p1053
sbsg39
(iread_data
Room
p1054
(dp1055
g37
g182
sg43
g183
sbsg45
g213
sg47
g152
sg43
g95
sba(ischedule
Activity
p1056
(dp1057
g8
g9
sg37
I1000
sg38
Nsg39
(iread_data
Room
p1058
(dp1059
g37
g149
sg43
g150
sbsg45
g46
sg47
I0
sg43
g48
sba(ischedule
Activity
p1060
(dp1061
g8
(lp1062
g320
ag312
asg37
S'15'
p1063
sg38
(ischedule
Group
p1064
(dp1065
g8
g1062
sg43
S'Informatie- en organsatieontwerp2'
p1066
sbsg39
(iread_data
Room
p1067
(dp1068
g37
g453
sg43
g454
sbsg45
g151
sg47
g184
sg43
g331
sbaaa(lp1069
(lp1070
(ischedule
Activity
p1071
(dp1072
g8
(lp1073
g99
aS'59220392'
p1074
ag636
aS'56544130'
p1075
ag969
ag962
ag882
ag588
ag852
ag226
ag235
ag515
ag574
ag583
ag101
ag247
ag970
ag100
aS'22168693'
p1076
ag963
ag888
ag285
ag281
ag581
ag965
aS'33672995'
p1077
ag971
ag580
ag225
ag168
ag722
ag402
aS'56348773'
p1078
ag316
ag428
ag964
aS'53139134'
p1079
ag227
ag973
ag123
ag463
ag699
aS'55530367'
p1080
ag280
ag396
ag67
ag1011
ag837
ag960
aS'82412626'
p1081
ag105
ag79
ag576
ag1016
ag571
ag586
ag968
aS'6709529'
p1082
ag104
aS'11593163'
p1083
ag198
ag961
ag376
ag357
ag730
ag584
ag196
ag256
ag157
ag575
ag103
ag587
ag568
aS'65978354'
p1084
ag174
ag399
ag190
ag26
ag788
ag995
ag578
aS'10609762'
p1085
ag766
ag573
ag579
ag273
ag88
ag589
ag54
ag192
ag577
ag862
ag570
ag972
ag585
ag567
ag967
ag582
ag289
ag406
ag569
ag572
ag169
ag727
ag966
ag500
asg37
I1000
sg38
Nsg39
(iread_data
Room
p1086
(dp1087
g37
g537
sg43
g538
sbsg45
g46
sg47
I0
sg43
g596
sba(ischedule
Activity
p1088
(dp1089
g8
g346
sg37
g143
sg38
g363
sg39
(iread_data
Room
p1090
(dp1091
g37
g329
sg43
g330
sbsg45
g151
sg47
g184
sg43
g153
sba(ischedule
Activity
p1092
(dp1093
g8
(lp1094
g59
ag106
ag515
ag641
ag646
ag483
asg37
g740
sg38
(ischedule
Group
p1095
(dp1096
g8
g1094
sg43
S'Algoritmen en complexiteit1'
p1097
sbsg39
(iread_data
Room
p1098
(dp1099
g37
g149
sg43
g150
sbsg45
g151
sg47
g152
sg43
g654
sba(ischedule
Activity
p1100
(dp1101
g8
g416
sg37
I1000
sg38
Nsg39
(iread_data
Room
p1102
(dp1103
g37
g211
sg43
g212
sbsg45
g46
sg47
I0
sg43
g455
sba(ischedule
Activity
p1104
(dp1105
g8
g671
sg37
g1063
sg38
g673
sg39
(iread_data
Room
p1106
(dp1107
g37
g453
sg43
g454
sbsg45
g151
sg47
g152
sg43
g331
sba(ischedule
Activity
p1108
(dp1109
g8
g948
sg37
S'10'
p1110
sg38
g951
sg39
(iread_data
Room
p1111
(dp1112
g37
g182
sg43
g183
sbsg45
g151
sg47
g152
sg43
g956
sba(ischedule
Activity
p1113
(dp1114
g8
(lp1115
g191
asg37
g701
sg38
(ischedule
Group
p1116
(dp1117
g8
g1115
sg43
S'Moderne Databases3'
p1118
sbsg39
(iread_data
Room
p1119
(dp1120
g37
g341
sg43
g342
sbsg45
g213
sg47
g343
sg43
g707
sbaa(lp1121
(ischedule
Activity
p1122
(dp1123
g8
(lp1124
g204
aS'79858178'
p1125
aS'34262212'
p1126
aS'72547110'
p1127
ag613
ag572
ag929
ag483
ag30
ag224
aS'51186803'
p1128
ag225
ag198
ag755
ag89
ag884
ag962
ag223
ag276
ag892
ag1032
ag756
ag319
aS'38329455'
p1129
ag382
ag137
ag767
ag965
aS'10872825'
p1130
ag222
ag1038
ag138
ag643
ag567
aS'39919665'
p1131
ag1024
ag230
aS'63408522'
p1132
aS'37498675'
p1133
aS'79366078'
p1134
ag720
ag104
ag446
ag228
ag615
ag503
ag787
aS'39659121'
p1135
aS'47605891'
p1136
ag581
ag580
ag440
ag313
ag167
ag714
ag1012
ag914
ag376
ag324
ag349
ag885
aS'63955238'
p1137
ag105
aS'54310617'
p1138
aS'44940353'
p1139
aS'91139627'
p1140
ag814
ag277
ag645
ag232
aS'82688900'
p1141
aS'65003379'
p1142
ag754
ag639
ag430
ag961
ag111
ag766
ag13
ag774
ag431
ag758
ag54
ag432
asg37
I1000
sg38
Nsg39
(iread_data
Room
p1143
(dp1144
g37
g537
sg43
g538
sbsg45
g46
sg47
I0
sg43
S'Kansrekenen 2'
p1145
sba(ischedule
Activity
p1146
(dp1147
g8
(lp1148
g371
ag235
ag461
ag233
ag124
ag464
ag689
ag396
ag866
ag136
ag756
ag421
ag166
ag399
ag79
ag372
ag459
ag18
ag467
ag282
ag204
ag401
ag354
ag400
ag402
ag405
aS'29474737'
p1149
aS'96104167'
p1150
ag384
ag397
ag197
ag462
ag403
ag465
ag427
ag406
ag272
ag173
ag77
ag648
ag28
ag460
ag231
ag398
ag1012
ag692
ag238
ag254
ag1138
ag404
ag314
ag82
ag352
ag107
aS'13534377'
p1151
ag809
ag466
ag199
ag468
ag81
ag463
asg37
I1000
sg38
Nsg39
(iread_data
Room
p1152
(dp1153
g37
g621
sg43
g622
sbsg45
g46
sg47
I0
sg43
g413
sba(ischedule
Activity
p1154
(dp1155
g8
(lp1156
g949
ag161
ag721
ag716
ag570
ag250
ag692
aS'70113753'
p1157
ag241
ag636
ag108
ag725
aS'34806836'
p1158
ag27
ag16
ag200
ag33
ag893
ag229
aS'88627897'
p1159
ag122
ag138
asg37
I1000
sg38
Nsg39
(iread_data
Room
p1160
(dp1161
g37
g149
sg43
g150
sbsg45
g46
sg47
I0
sg43
g956
sba(ischedule
Activity
p1162
(dp1163
g8
g1050
sg37
g303
sg38
g1051
sg39
(iread_data
Room
p1164
(dp1165
g37
g329
sg43
g330
sbsg45
g151
sg47
g152
sg43
g95
sba(ischedule
Activity
p1166
(dp1167
g8
(lp1168
g195
ag280
ag67
ag864
asg37
S'10'
p1169
sg38
(ischedule
Group
p1170
(dp1171
g8
g1168
sg43
S'Advanced Heuristics1'
p1172
sbsg39
(iread_data
Room
p1173
(dp1174
g37
g453
sg43
g454
sbsg45
g151
sg47
g152
sg43
S'Advanced Heuristics'
p1175
sba(ischedule
Activity
p1176
(dp1177
g8
g553
sg37
g335
sg38
g555
sg39
(iread_data
Room
p1178
(dp1179
g37
g182
sg43
g183
sbsg45
g213
sg47
g184
sg43
g48
sbaa(lp1180
(ischedule
Activity
p1181
(dp1182
g8
(lp1183
g347
aS'88737765'
p1184
ag423
ag449
ag444
ag964
ag501
aS'82854435'
p1185
ag111
ag250
ag247
ag1077
ag417
ag447
aS'62613937'
p1186
ag488
ag570
ag288
ag285
ag35
ag1075
ag477
ag424
ag786
ag576
ag866
ag769
ag714
ag324
ag573
ag190
ag228
aS'73350019'
p1187
ag277
aS'78822885'
p1188
ag1024
ag52
ag480
ag256
aS'34900967'
p1189
ag1012
ag202
ag755
ag234
aS'14637758'
p1190
aS'18477924'
p1191
aS'97838175'
p1192
aS'58480929'
p1193
ag890
asg37
I1000
sg38
Nsg39
(iread_data
Room
p1194
(dp1195
g37
g453
sg43
g454
sbsg45
g46
sg47
I0
sg43
S'Analysemethoden en -technieken'
p1196
sba(ischedule
Activity
p1197
(dp1198
g8
g739
sg37
S'25'
p1199
sg38
g741
sg39
(iread_data
Room
p1200
(dp1201
g37
g149
sg43
g150
sbsg45
g213
sg47
g184
sg43
g654
sba(ischedule
Activity
p1202
(dp1203
g8
(lp1204
g123
ag825
ag567
ag133
ag884
ag427
ag161
ag615
ag966
ag116
ag163
aS'81116418'
p1205
ag253
ag419
aS'40911986'
p1206
ag381
aS'2550487'
p1207
aS'21070547'
p1208
ag118
ag132
ag885
ag282
ag438
ag226
ag719
aS'19214659'
p1209
ag197
ag850
ag352
asg37
g601
sg38
(ischedule
Group
p1210
(dp1211
g8
g1204
sg43
S'Project Numerical Recipes3'
p1212
sbsg39
(iread_data
Room
p1213
(dp1214
g37
g260
sg43
g261
sbsg45
g151
sg47
g343
sg43
g607
sba(ischedule
Activity
p1215
(dp1216
g8
(lp1217
g359
aS'7386961'
p1218
ag348
ag961
ag357
ag251
ag13
ag463
ag107
ag242
ag917
ag77
ag720
ag382
ag715
ag398
ag362
ag74
aS'88597745'
p1219
ag503
ag580
aS'54395877'
p1220
ag882
ag690
ag78
aS'64053722'
p1221
ag1157
ag108
asg37
g292
sg38
(ischedule
Group
p1222
(dp1223
g8
g1217
sg43
S'Programmeren in Java 23'
p1224
sbsg39
(iread_data
Room
p1225
(dp1226
g37
g329
sg43
g330
sbsg45
g151
sg47
g343
sg43
g299
sba(ischedule
Activity
p1227
(dp1228
g8
(lp1229
g322
ag189
ag1037
ag1031
ag380
ag1036
ag1032
ag1039
ag158
ag449
ag730
asg37
S'20'
p1230
sg38
(ischedule
Group
p1231
(dp1232
g8
g1229
sg43
S'Technology for games2'
p1233
sbsg39
(iread_data
Room
p1234
(dp1235
g37
g211
sg43
g212
sbsg45
g213
sg47
g184
sg43
g1042
sba(ischedule
Activity
p1236
(dp1237
g8
g1094
sg37
g1199
sg38
g1095
sg39
(iread_data
Room
p1238
(dp1239
g37
g182
sg43
g183
sbsg45
g213
sg47
g152
sg43
g654
sbaa(lp1240
(ischedule
Activity
p1241
(dp1242
g8
g1148
sg37
I1000
sg38
Nsg39
(iread_data
Room
p1243
(dp1244
g37
g537
sg43
g538
sbsg45
g46
sg47
I0
sg43
g413
sba(ischedule
Activity
p1245
(dp1246
g8
(lp1247
g200
ag716
ag16
ag636
ag229
ag725
ag108
ag1157
ag570
ag122
asg37
g950
sg38
(ischedule
Group
p1248
(dp1249
g8
g1247
sg43
S'Autonomous Agents 23'
p1250
sbsg39
(iread_data
Room
p1251
(dp1252
g37
g329
sg43
g330
sbsg45
g213
sg47
g343
sg43
g956
sba(ischedule
Activity
p1253
(dp1254
g8
(lp1255
g376
ag320
ag325
aS'88519892'
p1256
aS'73196865'
p1257
ag72
ag162
asg37
g292
sg38
(ischedule
Group
p1258
(dp1259
g8
g1255
sg43
S'Programmeren in Java 26'
p1260
sbsg39
(iread_data
Room
p1261
(dp1262
g37
g341
sg43
g342
sbsg45
g151
sg47
S'6'
p1263
sg43
g299
sba(ischedule
Activity
p1264
(dp1265
g8
(lp1266
g224
ag243
ag222
ag226
ag219
ag244
ag252
ag256
ag225
ag241
ag233
ag230
ag247
ag249
ag232
ag251
ag255
ag257
ag240
ag227
ag253
ag236
ag238
ag218
ag250
ag61
ag254
ag245
ag242
ag246
ag221
asg37
g986
sg38
(ischedule
Group
p1267
(dp1268
g8
g1266
sg43
S'Heuristieken 12'
p1269
sbsg39
(iread_data
Room
p1270
(dp1271
g37
g149
sg43
g150
sbsg45
g213
sg47
g184
sg43
g262
sba(ischedule
Activity
p1272
(dp1273
g8
(lp1274
g173
ag891
ag641
ag865
ag126
ag633
ag228
ag424
ag500
ag226
ag695
ag319
aS'88263855'
p1275
ag244
ag104
ag15
ag17
ag1189
ag1207
aS'39905995'
p1276
ag643
ag862
ag196
ag30
ag118
ag425
ag838
aS'28943658'
p1277
ag442
ag1126
asg37
g292
sg38
(ischedule
Group
p1278
(dp1279
g8
g1274
sg43
S'Programmeren in Java 21'
p1280
sbsg39
(iread_data
Room
p1281
(dp1282
g37
g211
sg43
g212
sbsg45
g151
sg47
g152
sg43
g299
sba(ischedule
Activity
p1283
(dp1284
g8
(lp1285
g165
aS'40633534'
p1286
asg37
g930
sg38
(ischedule
Group
p1287
(dp1288
g8
g1285
sg43
S'Project Genetic Algorithms2'
p1289
sbsg39
(iread_data
Room
p1290
(dp1291
g37
g453
sg43
g454
sbsg45
g151
sg47
g184
sg43
g936
sbaa(lp1292
(ischedule
Activity
p1293
(dp1294
g8
g1124
sg37
I1000
sg38
Nsg39
(iread_data
Room
p1295
(dp1296
g37
g537
sg43
g538
sbsg45
g46
sg47
I0
sg43
g1145
sba(ischedule
Activity
p1297
(dp1298
g8
(lp1299
g798
ag866
ag448
ag637
ag796
ag574
ag274
ag864
ag349
ag863
ag77
ag797
ag290
ag27
ag795
ag862
ag73
ag220
ag25
ag376
ag11
ag52
ag634
ag615
ag570
ag865
ag255
ag399
ag586
ag794
ag480
ag867
asg37
I1000
sg38
Nsg39
(iread_data
Room
p1300
(dp1301
g37
g329
sg43
g330
sbsg45
g46
sg47
I0
sg43
g805
sba(ischedule
Activity
p1302
(dp1303
g8
g687
sg37
g1045
sg38
g702
sg39
(iread_data
Room
p1304
(dp1305
g37
g149
sg43
g150
sbsg45
g151
sg47
g152
sg43
g707
sba(ischedule
Activity
p1306
(dp1307
g8
g458
sg37
g525
sg38
g469
sg39
(iread_data
Room
p1308
(dp1309
g37
g453
sg43
g454
sbsg45
g213
sg47
g184
sg43
g413
sba(ischedule
Activity
p1310
(dp1311
g8
(lp1312
g67
ag280
ag195
ag827
ag418
aS'39429093'
p1313
ag864
ag461
ag1186
ag247
ag613
ag440
ag85
ag837
ag450
ag226
ag825
ag1286
ag113
ag82
asg37
I1000
sg38
Nsg39
(iread_data
Room
p1314
(dp1315
g37
g211
sg43
g212
sbsg45
g46
sg47
I0
sg43
g1175
sba(ischedule
Activity
p1316
(dp1317
g8
g524
sg37
g407
sg38
g526
sg39
(iread_data
Room
p1318
(dp1319
g37
g341
sg43
g342
sbsg45
g151
sg47
g343
sg43
g413
sbaaa(lp1320
(lp1321
(ischedule
Activity
p1322
(dp1323
g8
g1148
sg37
I1000
sg38
Nsg39
g1295
sg45
g46
sg47
I0
sg43
g413
sba(ischedule
Activity
p1324
(dp1325
g8
g1247
sg37
g1110
sg38
g1248
sg39
(iread_data
Room
p1326
(dp1327
g37
g149
sg43
g150
sbsg45
g151
sg47
g343
sg43
g956
sba(ischedule
Activity
p1328
(dp1329
g8
(lp1330
g721
ag138
ag33
ag1158
ag1159
asg37
g1110
sg38
(ischedule
Group
p1331
(dp1332
g8
g1330
sg43
S'Autonomous Agents 22'
p1333
sbsg39
(iread_data
Room
p1334
(dp1335
g37
g329
sg43
g330
sbsg45
g151
sg47
g184
sg43
g956
sba(ischedule
Activity
p1336
(dp1337
g8
(lp1338
g22
ag647
ag63
ag227
ag163
ag257
ag83
ag442
ag361
ag785
ag478
ag788
ag225
ag25
ag688
ag787
ag699
ag482
ag786
asg37
g205
sg38
(ischedule
Group
p1339
(dp1340
g8
g1338
sg43
S'Bioinformatica3'
p1341
sbsg39
(iread_data
Room
p1342
(dp1343
g37
g341
sg43
g342
sbsg45
g213
sg47
g343
sg43
g214
sba(ischedule
Activity
p1344
(dp1345
g8
g1030
sg37
I1000
sg38
Nsg39
(iread_data
Room
p1346
(dp1347
g37
g211
sg43
g212
sbsg45
g46
sg47
I0
sg43
g1042
sba(ischedule
Activity
p1348
(dp1349
g8
(lp1350
g646
ag634
ag85
ag929
ag429
ag137
ag168
aS'20374340'
p1351
ag62
aS'64768422'
p1352
ag715
ag579
ag1207
ag25
aS'69634191'
p1353
ag1017
ag1209
ag379
ag100
ag568
aS'28055464'
p1354
ag489
ag649
ag461
ag106
asg37
I1000
sg38
Nsg39
(iread_data
Room
p1355
(dp1356
g37
g453
sg43
g454
sbsg45
g46
sg47
I0
sg43
S'Interactie-ontwerp'
p1357
sba(ischedule
Activity
p1358
(dp1359
g8
g1062
sg37
g672
sg38
g1064
sg39
(iread_data
Room
p1360
(dp1361
g37
g182
sg43
g183
sbsg45
g213
sg47
g184
sg43
g331
sbaa(lp1362
(ischedule
Activity
p1363
(dp1364
g8
(lp1365
g614
ag83
ag892
ag165
ag891
ag158
ag638
ag716
ag250
ag164
ag714
ag883
ag57
ag160
ag175
ag15
ag161
ag163
ag645
ag256
ag174
ag172
ag720
ag887
ag723
ag894
ag569
ag893
ag283
ag167
ag637
ag110
ag166
ag28
ag886
ag73
ag884
ag173
ag162
ag32
ag168
ag201
ag889
ag758
ag444
ag169
ag787
ag138
ag888
ag487
ag249
ag159
ag443
ag381
ag354
ag890
ag235
ag882
ag35
ag400
ag157
ag401
ag885
ag639
ag64
ag485
ag459
ag373
ag117
ag257
ag200
ag573
ag171
ag826
ag170
asg37
I1000
sg38
Nsg39
(iread_data
Room
p1366
(dp1367
g37
g537
sg43
g538
sbsg45
g46
sg47
I0
sg43
g185
sba(ischedule
Activity
p1368
(dp1369
g8
(lp1370
g222
ag288
ag193
ag280
ag1023
ag123
ag488
ag769
ag130
ag863
ag1022
ag583
ag893
ag421
ag81
ag319
ag70
ag692
ag774
ag919
ag125
ag1020
ag1014
ag582
ag1011
ag434
ag195
ag427
ag86
ag866
ag648
ag727
ag688
ag199
ag173
ag1019
ag585
ag107
ag1015
ag719
ag285
ag122
ag108
ag1012
ag641
ag484
ag631
ag1013
ag689
ag501
ag1016
ag1017
ag995
asg37
S'40'
p1371
sg38
(ischedule
Group
p1372
(dp1373
g8
g1370
sg43
S'Databases 22'
p1374
sbsg39
(iread_data
Room
p1375
(dp1376
g37
g211
sg43
g212
sbsg45
g213
sg47
g184
sg43
g1027
sba(ischedule
Activity
p1377
(dp1378
g8
(lp1379
g284
ag219
ag325
ag371
ag1018
ag198
ag27
ag236
ag418
ag227
ag916
ag690
ag102
ag66
ag589
ag1024
ag290
ag1021
ag853
asg37
g1371
sg38
(ischedule
Group
p1380
(dp1381
g8
g1379
sg43
S'Databases 21'
p1382
sbsg39
(iread_data
Room
p1383
(dp1384
g37
g453
sg43
g454
sbsg45
g213
sg47
g152
sg43
g1027
sba(ischedule
Activity
p1385
(dp1386
g8
(lp1387
g461
ag82
ag613
ag440
ag1186
ag1313
ag85
ag226
ag837
ag113
ag418
ag247
ag1286
ag450
ag827
ag825
asg37
g1169
sg38
(ischedule
Group
p1388
(dp1389
g8
g1387
sg43
S'Advanced Heuristics2'
p1390
sbsg39
(iread_data
Room
p1391
(dp1392
g37
g149
sg43
g150
sbsg45
g151
sg47
g184
sg43
g1175
sba(ischedule
Activity
p1393
(dp1394
g8
g545
sg37
g554
sg38
g546
sg39
(iread_data
Room
p1395
(dp1396
g37
g182
sg43
g183
sbsg45
g151
sg47
g152
sg43
g48
sbaa(lp1397
(ischedule
Activity
p1398
(dp1399
g8
g784
sg37
I1000
sg38
Nsg39
(iread_data
Room
p1400
(dp1401
g37
g149
sg43
g150
sbsg45
g46
sg47
I0
sg43
g214
sba(ischedule
Activity
p1402
(dp1403
g8
(lp1404
g421
ag427
ag689
ag1138
ag1012
ag866
ag1151
ag648
ag231
ag1150
ag82
ag238
ag692
ag809
ag756
ag1149
ag81
asg37
g407
sg38
(ischedule
Group
p1405
(dp1406
g8
g1404
sg43
S'Collectieve Intelligentie4'
p1407
sbsg39
(iread_data
Room
p1408
(dp1409
g37
g453
sg43
g454
sbsg45
g151
sg47
g298
sg43
g413
sba(ischedule
Activity
p1410
(dp1411
g8
(lp1412
g884
ag867
ag313
ag417
ag405
ag358
ag229
ag1035
ag132
ag1038
ag190
ag33
ag371
ag1034
ag883
ag32
ag86
ag121
ag279
ag996
ag461
ag233
ag219
ag69
ag1033
ag109
ag326
asg37
g1230
sg38
(ischedule
Group
p1413
(dp1414
g8
g1412
sg43
S'Technology for games1'
p1415
sbsg39
(iread_data
Room
p1416
(dp1417
g37
g260
sg43
g261
sbsg45
g213
sg47
g152
sg43
g1042
sba(ischedule
Activity
p1418
(dp1419
g8
(lp1420
g141
ag55
ag1020
ag506
ag586
ag480
ag841
ag1013
ag1011
ag758
ag840
ag423
ag515
ag967
ag136
ag483
ag100
ag716
ag397
ag110
ag834
ag400
ag914
ag420
ag769
ag968
ag1184
ag361
ag839
aS'55480737'
p1421
aS'75680261'
p1422
ag574
ag449
asg37
g930
sg38
(ischedule
Group
p1423
(dp1424
g8
g1420
sg43
S'Project Genetic Algorithms3'
p1425
sbsg39
(iread_data
Room
p1426
(dp1427
g37
g211
sg43
g212
sbsg45
g151
sg47
g343
sg43
g936
sbaa(lp1428
(ischedule
Activity
p1429
(dp1430
g8
g881
sg37
S'40'
p1431
sg38
g895
sg39
(iread_data
Room
p1432
(dp1433
g37
g453
sg43
g454
sbsg45
g213
sg47
g152
sg43
g185
sba(ischedule
Activity
p1434
(dp1435
g8
g156
sg37
g1431
sg38
g177
sg39
(iread_data
Room
p1436
(dp1437
g37
g182
sg43
g183
sbsg45
g213
sg47
g184
sg43
g185
sba(ischedule
Activity
p1438
(dp1439
g8
(lp1440
g1078
ag190
ag788
ag247
ag273
ag1079
ag357
ag104
ag406
ag428
ag862
ag1016
ag1080
ag105
ag852
ag1082
ag1075
ag730
ag1074
ag837
ag99
ag79
ag101
ag192
ag396
ag1083
ag1081
ag727
ag1077
ag1084
ag1011
ag225
ag1085
ag766
ag67
ag722
ag280
ag995
ag399
ag54
ag1076
ag636
ag699
ag402
asg37
g590
sg38
(ischedule
Group
p1441
(dp1442
g8
g1440
sg43
S'Calculus 21'
p1443
sbsg39
(iread_data
Room
p1444
(dp1445
g37
g211
sg43
g212
sbsg45
g213
sg47
g152
sg43
g596
sba(ischedule
Activity
p1446
(dp1447
g8
g1350
sg37
I1000
sg38
Nsg39
(iread_data
Room
p1448
(dp1449
g37
g329
sg43
g330
sbsg45
g46
sg47
I0
sg43
g1357
sba(ischedule
Activity
p1450
(dp1451
g8
g1404
sg37
g525
sg38
g1405
sg39
(iread_data
Room
p1452
(dp1453
g37
g149
sg43
g150
sbsg45
g213
sg47
g298
sg43
g413
sba(ischedule
Activity
p1454
(dp1455
g8
g311
sg37
I1000
sg38
Nsg39
(iread_data
Room
p1456
(dp1457
g37
g260
sg43
g261
sbsg45
g46
sg47
I0
sg43
g331
sba(ischedule
Activity
p1458
(dp1459
g8
g1330
sg37
g950
sg38
g1331
sg39
(iread_data
Room
p1460
(dp1461
g37
g341
sg43
g342
sbsg45
g213
sg47
g184
sg43
g956
sbaa(lp1462
(ischedule
Activity
p1463
(dp1464
g8
g822
sg37
I1000
sg38
Nsg39
(iread_data
Room
p1465
(dp1466
g37
g182
sg43
g183
sbsg45
g46
sg47
I0
sg43
g830
sba(ischedule
Activity
p1467
(dp1468
g8
g395
sg37
g525
sg38
g408
sg39
(iread_data
Room
p1469
(dp1470
g37
g211
sg43
g212
sbsg45
g213
sg47
g152
sg43
g413
sba(ischedule
Activity
p1471
(dp1472
g8
g1156
sg37
I1000
sg38
Nsg39
(iread_data
Room
p1473
(dp1474
g37
g260
sg43
g261
sbsg45
g46
sg47
I0
sg43
g956
sba(ischedule
Activity
p1475
(dp1476
g8
g1338
sg37
g680
sg38
g1339
sg39
(iread_data
Room
p1477
(dp1478
g37
g341
sg43
g342
sbsg45
g151
sg47
g343
sg43
g214
sba(ischedule
Activity
p1479
(dp1480
g8
(lp1481
g440
ag349
ag443
ag284
ag33
ag448
ag420
ag427
ag421
ag437
ag110
ag424
ag434
ag422
ag426
ag418
ag447
ag250
ag419
ag438
ag429
ag435
ag430
ag431
ag436
ag445
asg37
g658
sg38
(ischedule
Group
p1482
(dp1483
g8
g1481
sg43
S'Reflectie op de digitale cultuur3'
p1484
sbsg39
(iread_data
Room
p1485
(dp1486
g37
g149
sg43
g150
sbsg45
g213
sg47
g343
sg43
g455
sba(ischedule
Activity
p1487
(dp1488
g8
(lp1489
g189
ag52
ag278
ag450
ag373
ag194
ag449
ag439
ag102
ag441
ag417
ag196
ag432
ag428
ag433
ag423
ag287
ag12
ag10
ag239
ag58
asg37
g658
sg38
(ischedule
Group
p1490
(dp1491
g8
g1489
sg43
S'Reflectie op de digitale cultuur1'
p1492
sbsg39
(iread_data
Room
p1493
(dp1494
g37
g329
sg43
g330
sbsg45
g213
sg47
g152
sg43
g455
sba(ischedule
Activity
p1495
(dp1496
g8
g1115
sg37
g1045
sg38
g1116
sg39
(iread_data
Room
p1497
(dp1498
g37
g453
sg43
g454
sbsg45
g151
sg47
g343
sg43
g707
sbaaa(lp1499
(lp1500
a(lp1501
a(lp1502
a(lp1503
a(lp1504
aasS'timeslot_dict'
p1505
(dp1506
I0
S'9:00-11:00'
p1507
sI1
S'11:00-13:00'
p1508
sI2
S'13:00-15:00'
p1509
sI3
S'15:00-17:00'
p1510
sI4
S'17:00-19:00'
p1511
ssS'day_dict'
p1512
(dp1513
I0
S'Monday'
p1514
sI1
S'Tuesday'
p1515
sI2
S'Wednesday'
p1516
sI3
S'Thursday'
p1517
sI4
S'Friday'
p1518
ssb.