(ischedule
Schedule
p0
(dp1
S'timetable'
p2
(lp3
(lp4
(lp5
(ischedule
Activity
p6
(dp7
S'participants'
p8
(lp9
S'23798155'
p10
aS'38499176'
p11
aS'51542218'
p12
aS'78735049'
p13
aS'20331158'
p14
aS'99272880'
p15
aS'31633723'
p16
aS'58332004'
p17
aS'14671406'
p18
aS'51186803'
p19
aS'20883994'
p20
aS'59544049'
p21
aS'72547110'
p22
aS'63408522'
p23
aS'91196968'
p24
aS'55474917'
p25
aS'22731474'
p26
aS'34262212'
p27
aS'58522654'
p28
aS'17823206'
p29
aS'78136904'
p30
aS'47462856'
p31
aS'36903574'
p32
aS'5615125'
p33
aS'91139627'
p34
aS'3685034'
p35
aS'14591033'
p36
aS'56988998'
p37
aS'59075181'
p38
aS'39919665'
p39
aS'28957789'
p40
aS'58469172'
p41
aS'82688900'
p42
aS'81218347'
p43
aS'32705005'
p44
aS'44940353'
p45
aS'23391676'
p46
aS'34243356'
p47
aS'79366078'
p48
aS'94955328'
p49
aS'79858178'
p50
aS'63634350'
p51
aS'39230359'
p52
aS'74182182'
p53
aS'10792879'
p54
aS'97371272'
p55
aS'31247305'
p56
aS'8522855'
p57
aS'64296965'
p58
aS'42115591'
p59
aS'27187154'
p60
aS'54569540'
p61
aS'84524083'
p62
aS'76924297'
p63
aS'41585485'
p64
aS'38329455'
p65
aS'11915563'
p66
aS'46570285'
p67
aS'96054456'
p68
aS'54310617'
p69
aS'20239127'
p70
aS'84110134'
p71
aS'9731271'
p72
aS'65003379'
p73
aS'18266644'
p74
aS'49631542'
p75
aS'77636749'
p76
aS'69086548'
p77
aS'77240949'
p78
aS'56749879'
p79
aS'63955238'
p80
aS'47605891'
p81
aS'37498675'
p82
aS'24875739'
p83
aS'94467156'
p84
aS'89338938'
p85
aS'14398123'
p86
aS'41527759'
p87
aS'7492204'
p88
aS'39659121'
p89
aS'97019450'
p90
aS'5368702'
p91
aS'10872825'
p92
aS'61518436'
p93
asS'capacity'
p94
I1000
sS'group'
p95
NsS'room'
p96
(iread_data3
Room
p97
(dp98
g94
S'60'
p99
sS'name'
p100
S'C1.112'
p101
sbsS'ttype'
p102
S'lectures'
p103
sS'group_id'
p104
S'2'
p105
sg100
S'Kansrekenen 2'
p106
sba(ischedule
Activity
p107
(dp108
g8
(lp109
S'50143947'
p110
aS'51741554'
p111
aS'13534377'
p112
aS'13092455'
p113
aS'42171678'
p114
aS'21964491'
p115
aS'87758823'
p116
aS'26406342'
p117
aS'37770881'
p118
aS'28357474'
p119
aS'43027916'
p120
aS'1696500'
p121
aS'46052388'
p122
aS'24277163'
p123
aS'68601184'
p124
aS'17575088'
p125
aS'48601268'
p126
aS'60312776'
p127
aS'57595888'
p128
aS'65960683'
p129
aS'29474737'
p130
aS'64393888'
p131
aS'86000192'
p132
aS'42778953'
p133
aS'7308727'
p134
asg94
S'20'
p135
sg95
(ischedule
Group
p136
(dp137
g8
g109
sg100
S'Collectieve Intelligentie2'
p138
sbsg96
(iread_data3
Room
p139
(dp140
g94
S'56'
p141
sg100
S'A1.10'
p142
sbsg102
S'labs'
p143
sg104
g105
sg100
S'Collectieve Intelligentie'
p144
sba(ischedule
Activity
p145
(dp146
g8
(lp147
S'27064249'
p148
ag30
aS'62613937'
p149
aS'72665524'
p150
aS'86807027'
p151
aS'14847953'
p152
aS'47477884'
p153
aS'70844780'
p154
aS'92665222'
p155
aS'60352393'
p156
aS'39429093'
p157
aS'72683344'
p158
aS'3168419'
p159
aS'28618400'
p160
ag20
aS'1886996'
p161
aS'72577292'
p162
aS'75997788'
p163
aS'23547619'
p164
aS'40633534'
p165
asg94
I1000
sg95
Nsg96
(iread_data3
Room
p166
(dp167
g94
S'22'
p168
sg100
S'A1.06'
p169
sbsg102
g103
sg104
S'1'
p170
sg100
S'Advanced Heuristics'
p171
sba(ischedule
Activity
p172
(dp173
g8
(lp174
S'27916487'
p175
aS'70072978'
p176
aS'58592894'
p177
aS'27241113'
p178
aS'5517869'
p179
aS'13911001'
p180
aS'89180944'
p181
aS'68315599'
p182
aS'96082155'
p183
aS'77376714'
p184
aS'85335143'
p185
aS'14309255'
p186
ag163
aS'66621166'
p187
aS'29526540'
p188
aS'75521763'
p189
aS'4709948'
p190
aS'59111489'
p191
aS'11996292'
p192
aS'63111000'
p193
aS'78821918'
p194
aS'83415514'
p195
aS'64600457'
p196
aS'50184318'
p197
ag67
aS'43680781'
p198
aS'1181560'
p199
aS'3883025'
p200
aS'78243495'
p201
aS'83266686'
p202
aS'78544592'
p203
ag75
aS'58699305'
p204
aS'78443067'
p205
aS'30658799'
p206
aS'51650744'
p207
aS'13218321'
p208
aS'18144425'
p209
ag114
aS'17222374'
p210
ag31
aS'48198668'
p211
aS'49219163'
p212
ag17
aS'11741347'
p213
ag123
aS'15051051'
p214
aS'36527838'
p215
aS'33776961'
p216
aS'41489515'
p217
aS'99283252'
p218
aS'36748818'
p219
aS'1766560'
p220
aS'84449005'
p221
asg94
I1000
sg95
Nsg96
(iread_data3
Room
p222
(dp223
g94
S'117'
p224
sg100
S'C0.110'
p225
sbsg102
g103
sg104
g170
sg100
S'Moderne Databases'
p226
sba(ischedule
Activity
p227
(dp228
g8
(lp229
S'27298319'
p230
aS'74131924'
p231
aS'44901052'
p232
aS'54026378'
p233
aS'16097870'
p234
aS'68409833'
p235
aS'52552718'
p236
aS'88627897'
p237
aS'36508571'
p238
aS'70113753'
p239
aS'34806836'
p240
aS'62872965'
p241
aS'61611295'
p242
asg94
S'10'
p243
sg95
(ischedule
Group
p244
(dp245
g8
g229
sg100
S'Autonomous Agents 23'
p246
sbsg96
(iread_data3
Room
p247
(dp248
g94
S'20'
p249
sg100
S'A1.08'
p250
sbsg102
S'tutorials'
p251
sg104
S'3'
p252
sg100
S'Autonomous Agents 2'
p253
sba(ischedule
Activity
p254
(dp255
g8
(lp256
S'51566595'
p257
aS'72796858'
p258
aS'39459642'
p259
aS'62356458'
p260
asg94
S'10'
p261
sg95
(ischedule
Group
p262
(dp263
g8
g256
sg100
S'Autonomous Agents 21'
p264
sbsg96
(iread_data3
Room
p265
(dp266
g94
S'48'
p267
sg100
S'B0.201'
p268
sbsg102
g143
sg104
g170
sg100
g253
sbaa(lp269
(ischedule
Activity
p270
(dp271
g8
(lp272
g79
aS'13132925'
p273
aS'29640619'
p274
ag179
ag113
aS'4921119'
p275
ag194
aS'56121590'
p276
aS'91527663'
p277
aS'43902015'
p278
aS'83869542'
p279
ag188
aS'59397895'
p280
aS'27123462'
p281
ag12
aS'57467488'
p282
aS'15187217'
p283
aS'47932106'
p284
aS'90474003'
p285
aS'82689818'
p286
ag159
aS'17092717'
p287
aS'76123484'
p288
ag210
ag176
aS'37701751'
p289
aS'46989508'
p290
asg94
S'40'
p291
sg95
(ischedule
Group
p292
(dp293
g8
g272
sg100
S'Databases 21'
p294
sbsg96
(iread_data3
Room
p295
(dp296
g94
g141
sg100
g142
sbsg102
g251
sg104
g170
sg100
S'Databases 2'
p297
sba(ischedule
Activity
p298
(dp299
g8
(lp300
S'7106649'
p301
aS'40434933'
p302
aS'48308205'
p303
aS'32204977'
p304
aS'10149535'
p305
ag192
aS'6249823'
p306
ag186
ag164
aS'37110913'
p307
aS'92496780'
p308
aS'70336464'
p309
aS'76487754'
p310
ag185
ag55
aS'21192048'
p311
aS'41578612'
p312
aS'12077419'
p313
aS'47982619'
p314
ag182
aS'58565406'
p315
ag117
aS'75664412'
p316
aS'36785409'
p317
aS'22323043'
p318
aS'93041523'
p319
aS'77264363'
p320
aS'31194811'
p321
ag198
ag77
ag189
ag232
aS'9332762'
p322
aS'12430748'
p323
ag85
ag76
aS'14383795'
p324
aS'4697362'
p325
asg94
I1000
sg95
Nsg96
(iread_data3
Room
p326
(dp327
g94
g99
sg100
g101
sbsg102
g103
sg104
g105
sg100
S'Technology for games'
p328
sba(ischedule
Activity
p329
(dp330
g8
(lp331
g257
ag238
ag230
ag258
ag307
ag239
ag242
ag66
ag233
ag237
ag231
ag235
ag234
ag240
ag232
aS'19858730'
p332
ag179
aS'22871048'
p333
ag260
ag236
ag259
ag241
asg94
I1000
sg95
Nsg96
(iread_data3
Room
p334
(dp335
g94
g267
sg100
g268
sbsg102
g103
sg104
g170
sg100
g253
sba(ischedule
Activity
p336
(dp337
g8
(lp338
g11
aS'39905995'
p339
aS'79167252'
p340
ag190
aS'93566383'
p341
aS'64947290'
p342
ag88
aS'44391517'
p343
ag64
ag115
ag124
aS'37399898'
p344
aS'12782624'
p345
aS'20830477'
p346
aS'45414528'
p347
ag68
aS'63096281'
p348
aS'88597745'
p349
aS'28943658'
p350
ag49
asg94
S'20'
p351
sg95
(ischedule
Group
p352
(dp353
g8
g338
sg100
S'Programmeren in Java 22'
p354
sbsg96
(iread_data3
Room
p355
(dp356
g94
g249
sg100
g250
sbsg102
g143
sg104
g105
sg100
S'Programmeren in Java 2'
p357
sba(ischedule
Activity
p358
(dp359
g8
(lp360
S'81022997'
p361
ag56
ag86
aS'4353500'
p362
ag154
ag121
aS'54772132'
p363
aS'26207525'
p364
aS'85284256'
p365
aS'81385263'
p366
aS'21677389'
p367
aS'33930505'
p368
ag74
aS'48678993'
p369
aS'5590289'
p370
aS'72586808'
p371
aS'82872148'
p372
aS'16912993'
p373
ag274
aS'66120270'
p374
ag47
ag160
aS'25557516'
p375
ag134
ag150
asg94
S'20'
p376
sg95
(ischedule
Group
p377
(dp378
g8
g360
sg100
S'Netwerken en systeembeveiliging4'
p379
sbsg96
(iread_data3
Room
p380
(dp381
g94
g224
sg100
g225
sbsg102
g143
sg104
S'4'
p382
sg100
S'Netwerken en systeembeveiliging'
p383
sba(ischedule
Activity
p384
(dp385
g8
(lp386
S'22826928'
p387
aS'31416266'
p388
ag46
aS'15249775'
p389
ag84
aS'20618153'
p390
ag24
aS'92977271'
p391
aS'62105897'
p392
ag314
aS'90296821'
p393
aS'66433883'
p394
ag25
aS'62701040'
p395
aS'23658570'
p396
ag41
ag216
ag32
asg94
g351
sg95
(ischedule
Group
p397
(dp398
g8
g386
sg100
S'Programmeren in Java 21'
p399
sbsg96
(iread_data3
Room
p400
(dp401
g94
S'41'
p402
sg100
S'A1.04'
p403
sbsg102
g143
sg104
g170
sg100
g357
sbaa(lp404
(ischedule
Activity
p405
(dp406
g8
g109
sg94
S'20'
p407
sg95
g136
sg96
(iread_data3
Room
p408
(dp409
g94
g224
sg100
g225
sbsg102
g251
sg104
g105
sg100
g144
sba(ischedule
Activity
p410
(dp411
g8
(lp412
S'58736785'
p413
ag36
ag332
aS'4568018'
p414
ag307
ag163
ag79
aS'98105190'
p415
aS'71839156'
p416
ag391
aS'4783858'
p417
asg94
S'25'
p418
sg95
(ischedule
Group
p419
(dp420
g8
g412
sg100
S'Heuristieken 12'
p421
sbsg96
(iread_data3
Room
p422
(dp423
g94
g267
sg100
g268
sbsg102
g251
sg104
g105
sg100
S'Heuristieken 1'
p424
sba(ischedule
Activity
p425
(dp426
g8
(lp427
S'52715680'
p428
aS'53585410'
p429
ag313
aS'5976174'
p430
aS'72895450'
p431
ag257
ag366
aS'34765676'
p432
aS'86988337'
p433
ag64
ag177
ag184
aS'44828429'
p434
ag230
ag282
aS'64554442'
p435
ag342
aS'19540225'
p436
ag277
ag30
aS'96453361'
p437
aS'3707829'
p438
aS'26260141'
p439
aS'46701583'
p440
aS'15902055'
p441
ag394
aS'67817269'
p442
aS'88596522'
p443
ag87
aS'21095566'
p444
asg94
S'25'
p445
sg95
(ischedule
Group
p446
(dp447
g8
g427
sg100
S'Algoritmen en complexiteit1'
p448
sbsg96
(iread_data3
Room
p449
(dp450
g94
g402
sg100
g403
sbsg102
g143
sg104
g170
sg100
S'Algoritmen en complexiteit'
p451
sba(ischedule
Activity
p452
(dp453
g8
(lp454
S'55480737'
p455
aS'69459473'
p456
ag235
ag221
aS'25077484'
p457
ag63
aS'82066165'
p458
aS'41644639'
p459
ag369
aS'5526560'
p460
aS'66701209'
p461
ag218
ag86
aS'24613625'
p462
ag194
aS'14179347'
p463
asg94
S'15'
p464
sg95
(ischedule
Group
p465
(dp466
g8
g454
sg100
S'Project Genetic Algorithms3'
p467
sbsg96
(iread_data3
Room
p468
(dp469
g94
g99
sg100
g101
sbsg102
g143
sg104
g252
sg100
S'Project Genetic Algorithms'
p470
sba(ischedule
Activity
p471
(dp472
g8
(lp473
g179
ag182
ag185
ag196
ag198
ag201
ag206
ag214
ag180
ag188
ag213
ag183
ag212
ag192
ag75
ag204
ag176
ag216
ag189
asg94
S'20'
p474
sg95
(ischedule
Group
p475
(dp476
g8
g473
sg100
S'Moderne Databases2'
p477
sbsg96
(iread_data3
Room
p478
(dp479
g94
g249
sg100
g250
sbsg102
g251
sg104
g105
sg100
g226
sba(ischedule
Activity
p480
(dp481
g8
(lp482
g162
ag10
aS'43460038'
p483
aS'58866007'
p484
ag305
aS'13798030'
p485
aS'29718115'
p486
aS'49683101'
p487
ag181
ag158
aS'45556081'
p488
aS'14138904'
p489
ag302
ag286
aS'34872117'
p490
aS'27925117'
p491
ag14
ag202
aS'70015932'
p492
aS'59289233'
p493
ag160
asg94
I1000
sg95
Nsg96
(iread_data3
Room
p494
(dp495
g94
g168
sg100
g169
sbsg102
g103
sg104
g105
sg100
S'Architectuur en computerorganisatie'
p496
sba(ischedule
Activity
p497
(dp498
g8
(lp499
g193
ag322
aS'8464817'
p500
aS'61443567'
p501
aS'2550487'
p502
aS'79879876'
p503
aS'23983476'
p504
ag15
aS'88263855'
p505
aS'13996448'
p506
aS'670011'
p507
ag29
ag90
aS'34900967'
p508
aS'27582862'
p509
aS'51593625'
p510
ag365
aS'58040377'
p511
ag440
aS'88519892'
p512
ag27
aS'6723948'
p513
aS'10702778'
p514
asg94
g351
sg95
(ischedule
Group
p515
(dp516
g8
g499
sg100
S'Programmeren in Java 23'
p517
sbsg96
(iread_data3
Room
p518
(dp519
g94
g141
sg100
g142
sbsg102
g143
sg104
g252
sg100
g357
sbaa(lp520
(ischedule
Activity
p521
(dp522
g8
g300
sg94
I1000
sg95
Nsg96
(iread_data3
Room
p523
(dp524
g94
g99
sg100
g101
sbsg102
g103
sg104
g170
sg100
g328
sba(ischedule
Activity
p525
(dp526
g8
(lp527
S'6913074'
p528
aS'28359697'
p529
aS'33877725'
p530
ag188
aS'81200278'
p531
ag26
aS'5298748'
p532
aS'53202517'
p533
aS'77831658'
p534
ag368
ag20
ag79
ag159
ag414
ag21
aS'30195935'
p535
aS'247918'
p536
asg94
S'20'
p537
sg95
(ischedule
Group
p538
(dp539
g8
g527
sg100
S'Bioinformatica2'
p540
sbsg96
(iread_data3
Room
p541
(dp542
g94
g249
sg100
g250
sbsg102
g143
sg104
g105
sg100
S'Bioinformatica'
p543
sba(ischedule
Activity
p544
(dp545
g8
(lp546
g440
aS'67625383'
p547
ag487
ag10
ag259
aS'38296757'
p548
aS'26857113'
p549
aS'40791377'
p550
ag214
aS'85236626'
p551
ag430
ag78
aS'37744525'
p552
aS'33252501'
p553
ag84
aS'2079771'
p554
ag193
ag37
ag93
ag35
aS'90067329'
p555
ag60
asg94
I1000
sg95
Nsg96
(iread_data3
Room
p556
(dp557
g94
g402
sg100
g403
sbsg102
g103
sg104
g105
sg100
S'Machine Learning'
p558
sba(ischedule
Activity
p559
(dp560
g8
(lp561
g286
ag504
ag110
ag115
ag278
aS'3474870'
p562
aS'23652927'
p563
ag32
ag18
aS'1665980'
p564
aS'40343779'
p565
ag57
aS'51509565'
p566
asg94
g445
sg95
(ischedule
Group
p567
(dp568
g8
g561
sg100
S'Algoritmen en complexiteit2'
p569
sbsg96
(iread_data3
Room
p570
(dp571
g94
g168
sg100
g169
sbsg102
g143
sg104
g105
sg100
g451
sba(ischedule
Activity
p572
(dp573
g8
(lp574
S'34773179'
p575
ag118
ag312
aS'88737765'
p576
aS'75680261'
p577
ag165
asg94
g464
sg95
(ischedule
Group
p578
(dp579
g8
g574
sg100
S'Project Genetic Algorithms2'
p580
sbsg96
(iread_data3
Room
p581
(dp582
g94
g141
sg100
g142
sbsg102
g143
sg104
g105
sg100
g470
sba(ischedule
Activity
p583
(dp584
g8
(lp585
S'53139134'
p586
ag203
ag417
ag33
ag491
ag230
aS'58253841'
p587
aS'33760909'
p588
ag13
aS'56348773'
p589
aS'55412918'
p590
aS'65408517'
p591
ag340
aS'76661016'
p592
ag67
aS'14816774'
p593
ag396
aS'79617364'
p594
aS'56872729'
p595
aS'12091019'
p596
ag132
ag528
ag202
aS'21029457'
p597
aS'6709529'
p598
aS'45915482'
p599
ag53
aS'23565001'
p600
aS'93361408'
p601
ag51
aS'62363761'
p602
ag72
aS'87602030'
p603
aS'70939718'
p604
ag196
ag54
aS'72526473'
p605
ag151
ag463
asg94
S'40'
p606
sg95
(ischedule
Group
p607
(dp608
g8
g585
sg100
S'Calculus 22'
p609
sbsg96
(iread_data3
Room
p610
(dp611
g94
g224
sg100
g225
sbsg102
g251
sg104
g105
sg100
S'Calculus 2'
p612
sba(ischedule
Activity
p613
(dp614
g8
g256
sg94
g243
sg95
g262
sg96
(iread_data3
Room
p615
(dp616
g94
g267
sg100
g268
sbsg102
g251
sg104
g170
sg100
g253
sbaa(lp617
(ischedule
Activity
p618
(dp619
g8
(lp620
g282
ag151
ag503
ag189
aS'13658563'
p621
ag362
ag79
ag38
aS'66122625'
p622
aS'97417002'
p623
ag232
ag121
ag346
aS'83443653'
p624
ag114
aS'53775014'
p625
ag32
aS'31897288'
p626
ag415
aS'45660925'
p627
aS'94930277'
p628
ag391
aS'76393508'
p629
ag413
ag43
aS'14941752'
p630
ag192
ag36
aS'61060652'
p631
aS'87210640'
p632
ag163
ag333
ag416
ag332
ag489
ag14
ag318
ag414
ag90
aS'53107172'
p633
ag417
ag307
aS'48357272'
p634
ag593
asg94
I1000
sg95
Nsg96
(iread_data
Room
p635
(dp636
g94
S'48'
p637
sg100
S'B0.201'
p638
sbsg102
g103
sg104
g170
sg100
g424
sba(ischedule
Activity
p639
(dp640
g8
g427
sg94
S'25'
p641
sg95
g446
sg96
(iread_data
Room
p642
(dp643
g94
S'56'
p644
sg100
S'A1.10'
p645
sbsg102
g251
sg104
g170
sg100
g451
sba(ischedule
Activity
p646
(dp647
g8
(lp648
g371
ag508
aS'87830198'
p649
ag149
ag58
ag12
aS'18477924'
p650
aS'73302736'
p651
aS'73350019'
p652
ag317
aS'13718298'
p653
aS'80188025'
p654
aS'72456780'
p655
aS'70193386'
p656
aS'82854435'
p657
ag185
ag10
ag49
ag275
ag312
ag163
ag624
aS'60661905'
p658
aS'97838175'
p659
ag576
ag90
ag120
aS'52311353'
p660
ag634
aS'78822885'
p661
aS'56815156'
p662
aS'33672995'
p663
ag333
aS'58480929'
p664
ag396
ag234
ag369
aS'56544130'
p665
ag600
ag47
ag59
aS'5085194'
p666
ag194
ag74
aS'5595824'
p667
ag534
aS'65318664'
p668
aS'57086672'
p669
aS'14637758'
p670
asg94
I1000
sg95
Nsg96
(iread_data3
Room
p671
(dp672
g94
g99
sg100
g101
sbsg102
g103
sg104
g170
sg100
S'Analysemethoden en -technieken'
p673
sba(ischedule
Activity
p674
(dp675
g8
(lp676
g562
ag288
ag287
ag302
ag533
ag483
ag278
ag201
ag530
ag52
aS'16333449'
p677
aS'10698627'
p678
ag181
aS'49908313'
p679
aS'67073567'
p680
ag33
aS'66034145'
p681
aS'24891081'
p682
aS'76903244'
p683
aS'2416751'
p684
asg94
S'20'
p685
sg95
(ischedule
Group
p686
(dp687
g8
g676
sg100
S'Webprogrammeren en databases1'
p688
sbsg96
(iread_data3
Room
p689
(dp690
g94
g224
sg100
g225
sbsg102
g251
sg104
g170
sg100
S'Webprogrammeren en databases'
p691
sba(ischedule
Activity
p692
(dp693
g8
(lp694
g198
ag68
ag28
aS'70878567'
p695
aS'88176729'
p696
aS'30050930'
p697
ag387
ag374
asg94
g537
sg95
(ischedule
Group
p698
(dp699
g8
g694
sg100
S'Bioinformatica1'
p700
sbsg96
(iread_data3
Room
p701
(dp702
g94
g168
sg100
g169
sbsg102
g143
sg104
g170
sg100
g543
sba(ischedule
Activity
p703
(dp704
g8
(lp705
g110
ag115
ag531
ag552
aS'13116738'
p706
ag506
ag29
ag361
ag231
ag24
aS'93023961'
p707
ag347
asg94
S'10'
p708
sg95
(ischedule
Group
p709
(dp710
g8
g705
sg100
S'Data Mining1'
p711
sbsg96
(iread_data3
Room
p712
(dp713
g94
g402
sg100
g403
sbsg102
g143
sg104
g170
sg100
S'Data Mining'
p714
sba(ischedule
Activity
p715
(dp716
g8
(lp717
S'73236988'
p718
aS'19662602'
p719
ag71
ag127
ag323
aS'75005528'
p720
ag303
aS'32183908'
p721
ag85
aS'7957843'
p722
aS'34691309'
p723
aS'63939720'
p724
aS'32044893'
p725
asg94
S'15'
p726
sg95
(ischedule
Group
p727
(dp728
g8
g717
sg100
S'Project Numerical Recipes3'
p729
sbsg96
(iread_data3
Room
p730
(dp731
g94
g249
sg100
g250
sbsg102
g143
sg104
g252
sg100
S'Project Numerical Recipes'
p732
sbaaa(lp733
(lp734
(ischedule
Activity
p735
(dp736
g8
(lp737
g428
ag190
ag30
ag548
ag285
aS'42406214'
p738
ag649
aS'51052738'
p739
aS'20095994'
p740
ag113
ag154
aS'82390428'
p741
ag317
ag216
aS'96554914'
p742
aS'51415617'
p743
ag156
asg94
S'20'
p744
sg95
(ischedule
Group
p745
(dp746
g8
g737
sg100
S'Reflectie op de digitale cultuur2'
p747
sbsg96
(iread_data3
Room
p748
(dp749
g94
g249
sg100
g250
sbsg102
g251
sg104
g105
sg100
S'Reflectie op de digitale cultuur'
p750
sba(ischedule
Activity
p751
(dp752
g8
(lp753
g197
ag202
ag114
ag217
ag199
ag210
ag193
ag123
ag187
ag67
ag220
ag200
ag195
ag211
ag191
ag31
ag207
ag175
ag186
ag184
ag178
ag221
asg94
S'20'
p754
sg95
(ischedule
Group
p755
(dp756
g8
g753
sg100
S'Moderne Databases3'
p757
sbsg96
(iread_data3
Room
p758
(dp759
g94
g168
sg100
g169
sbsg102
g143
sg104
g252
sg100
g226
sba(ischedule
Activity
p760
(dp761
g8
(lp762
g231
ag536
aS'89985072'
p763
ag196
ag528
ag68
ag535
ag529
ag214
aS'11068043'
p764
ag134
ag79
ag198
ag20
ag597
ag368
ag437
ag534
ag387
ag374
ag185
ag159
ag696
ag718
ag36
aS'42196732'
p765
ag662
ag697
ag530
ag513
ag233
ag188
ag593
ag26
ag531
aS'44868097'
p766
ag594
ag414
ag462
ag532
ag533
ag21
ag28
ag695
ag115
asg94
I1000
sg95
Nsg96
(iread_data3
Room
p767
(dp768
g94
g267
sg100
g268
sbsg102
g103
sg104
g170
sg100
g543
sba(ischedule
Activity
p769
(dp770
g8
(lp771
g306
aS'14303208'
p772
ag431
ag669
aS'64228258'
p773
ag628
ag148
aS'77392404'
p774
ag456
ag501
aS'22288615'
p775
aS'41790793'
p776
aS'28358060'
p777
aS'53512831'
p778
ag390
ag152
aS'1137946'
p779
ag162
aS'76648468'
p780
asg94
g685
sg95
(ischedule
Group
p781
(dp782
g8
g771
sg100
S'Webprogrammeren en databases2'
p783
sbsg96
(iread_data3
Room
p784
(dp785
g94
g99
sg100
g101
sbsg102
g251
sg104
g105
sg100
g691
sba(ischedule
Activity
p786
(dp787
g8
(lp788
g232
aS'19958553'
p789
ag304
ag486
ag74
ag182
ag391
ag695
ag395
ag17
aS'11459236'
p790
ag76
ag504
aS'23257088'
p791
aS'17496687'
p792
aS'8557857'
p793
ag621
ag706
ag219
ag189
aS'75585647'
p794
asg94
I1000
sg95
Nsg96
(iread_data3
Room
p795
(dp796
g94
g402
sg100
g403
sbsg102
g103
sg104
g105
sg100
S'Informatie- en organsatieontwerp'
p797
sba(ischedule
Activity
p798
(dp799
g8
(lp800
S'79937969'
p801
ag416
ag179
ag234
ag116
aS'34588570'
p802
aS'21311067'
p803
ag36
ag507
aS'83210352'
p804
aS'54074680'
p805
ag25
aS'90743504'
p806
ag720
ag594
ag235
ag600
ag484
aS'16011419'
p807
ag275
ag562
aS'26172512'
p808
ag590
ag388
aS'80998260'
p809
ag595
ag24
aS'66570705'
p810
aS'35330349'
p811
ag49
ag303
aS'94686490'
p812
aS'80709893'
p813
ag241
ag47
ag11
ag765
ag660
ag631
ag215
ag312
ag341
ag305
ag238
ag43
ag344
ag59
aS'32595335'
p814
ag133
aS'77896638'
p815
ag366
aS'96118484'
p816
ag53
ag677
asg94
I1000
sg95
Nsg96
(iread_data3
Room
p817
(dp818
g94
g141
sg100
g142
sbsg102
g103
sg104
g170
sg100
S'Lineaire Algebra'
p819
sbaa(lp820
(ischedule
Activity
p821
(dp822
g8
(lp823
g552
aS'59753700'
p824
ag318
aS'98780382'
p825
ag531
aS'99453514'
p826
aS'68360259'
p827
ag506
ag660
ag361
ag115
ag257
ag29
ag707
aS'87314964'
p828
aS'97136582'
p829
ag231
ag24
ag706
aS'87900893'
p830
aS'19337738'
p831
ag110
ag695
ag622
ag347
ag307
aS'25330192'
p832
asg94
I1000
sg95
Nsg96
(iread_data
Room
p833
(dp834
g94
S'117'
p835
sg100
S'C0.110'
p836
sbsg102
g103
sg104
g170
sg100
g714
sba(ischedule
Activity
p837
(dp838
g8
(lp839
g628
ag677
ag562
ag679
ag288
ag678
ag779
ag306
ag287
ag772
ag776
ag680
ag302
ag390
ag533
ag52
ag483
ag431
ag278
ag501
ag148
ag162
ag681
ag777
ag684
ag683
ag456
ag181
ag201
ag33
ag775
ag669
ag530
ag773
ag780
ag774
ag778
ag682
ag152
asg94
I1000
sg95
Nsg96
g635
sg102
g103
sg104
g105
sg100
g691
sba(ischedule
Activity
p840
(dp841
g8
(lp842
g304
ag395
ag790
ag621
ag486
ag232
ag76
ag74
ag17
ag791
ag793
ag794
ag189
ag391
ag504
ag219
asg94
S'15'
p843
sg95
(ischedule
Group
p844
(dp845
g8
g842
sg100
S'Informatie- en organsatieontwerp1'
p846
sbsg96
(iread_data3
Room
p847
(dp848
g94
g249
sg100
g250
sbsg102
g143
sg104
g170
sg100
g797
sba(ischedule
Activity
p849
(dp850
g8
g753
sg94
g474
sg95
g755
sg96
(iread_data3
Room
p851
(dp852
g94
g402
sg100
g403
sbsg102
g251
sg104
g252
sg100
g226
sba(ischedule
Activity
p853
(dp854
g8
(lp855
g491
aS'25106480'
p856
ag603
ag440
ag84
aS'25994016'
p857
ag587
aS'86180471'
p858
aS'74361881'
p859
aS'51673172'
p860
ag57
ag649
ag592
aS'27950803'
p861
asg94
g464
sg95
(ischedule
Group
p862
(dp863
g8
g855
sg100
S'Project Genetic Algorithms1'
p864
sbsg96
(iread_data3
Room
p865
(dp866
g94
g99
sg100
g101
sbsg102
g143
sg104
g170
sg100
g470
sba(ischedule
Activity
p867
(dp868
g8
g800
sg94
I1000
sg95
Nsg96
(iread_data3
Room
p869
(dp870
g94
g141
sg100
g142
sbsg102
g103
sg104
g105
sg100
g819
sba(ischedule
Activity
p871
(dp872
g8
(lp873
g433
ag72
ag151
ag528
aS'73196865'
p874
ag363
aS'3678531'
p875
aS'73893840'
p876
aS'48503689'
p877
aS'94687383'
p878
aS'37279234'
p879
aS'2317551'
p880
asg94
g351
sg95
(ischedule
Group
p881
(dp882
g8
g873
sg100
S'Programmeren in Java 25'
p883
sbsg96
(iread_data3
Room
p884
(dp885
g94
g168
sg100
g169
sbsg102
g143
sg104
S'5'
p886
sg100
g357
sbaa(lp887
(ischedule
Activity
p888
(dp889
g8
g676
sg94
S'20'
p890
sg95
g686
sg96
(iread_data3
Room
p891
(dp892
g94
g402
sg100
g403
sbsg102
g143
sg104
g170
sg100
g691
sba(ischedule
Activity
p893
(dp894
g8
(lp895
g600
aS'23628642'
p896
ag54
ag60
ag586
aS'22168693'
p897
ag463
ag203
ag151
ag40
aS'77306636'
p898
ag602
aS'31306819'
p899
ag417
aS'73823548'
p900
ag830
ag634
ag599
ag528
aS'82412626'
p901
ag44
ag665
ag33
ag148
ag41
ag491
aS'88855695'
p902
aS'19717077'
p903
ag230
aS'34173695'
p904
aS'97135019'
p905
ag587
aS'61520025'
p906
ag68
ag588
aS'81155296'
p907
ag663
ag13
ag603
ag195
ag589
ag654
ag597
ag590
aS'6939933'
p908
ag601
ag36
ag202
aS'55530367'
p909
ag591
ag879
ag858
ag340
aS'65978354'
p910
ag439
ag592
ag794
ag51
ag67
ag234
ag204
ag196
ag598
ag185
ag163
aS'59220392'
p911
ag177
ag766
ag150
ag441
ag392
ag440
aS'75446434'
p912
ag593
ag53
ag513
ag396
aS'40141996'
p913
ag305
ag594
ag205
ag651
ag604
ag772
ag875
ag595
ag773
aS'38179241'
p914
aS'11593163'
p915
aS'79888156'
p916
ag111
ag596
ag429
aS'4546613'
p917
ag511
ag153
ag83
ag132
aS'88752563'
p918
ag605
aS'10609762'
p919
ag72
ag284
ag548
ag812
aS'75623387'
p920
asg94
I1000
sg95
Nsg96
(iread_data3
Room
p921
(dp922
g94
g224
sg100
g225
sbsg102
g103
sg104
g170
sg100
g612
sba(ischedule
Activity
p923
(dp924
g8
(lp925
g179
ag333
ag66
ag332
ag307
asg94
g243
sg95
(ischedule
Group
p926
(dp927
g8
g925
sg100
S'Autonomous Agents 22'
p928
sbsg96
(iread_data3
Room
p929
(dp930
g94
g168
sg100
g169
sbsg102
g251
sg104
g105
sg100
g253
sba(ischedule
Activity
p931
(dp932
g8
(lp933
g164
ag316
ag320
ag198
ag304
ag311
ag306
ag314
ag77
ag313
ag76
ag325
ag315
ag232
ag317
ag308
ag312
ag182
ag301
ag85
ag322
ag324
ag117
asg94
S'20'
p934
sg95
(ischedule
Group
p935
(dp936
g8
g933
sg100
S'Technology for games1'
p937
sbsg96
(iread_data3
Room
p938
(dp939
g94
g141
sg100
g142
sbsg102
g251
sg104
g170
sg100
g328
sba(ischedule
Activity
p940
(dp941
g8
(lp942
g824
ag61
ag433
ag528
ag653
ag774
ag221
ag621
ag826
aS'27805666'
p943
ag725
ag532
aS'68286356'
p944
ag861
ag70
aS'49922855'
p945
ag93
aS'99975346'
p946
ag123
aS'27370083'
p947
ag35
asg94
g744
sg95
(ischedule
Group
p948
(dp949
g8
g942
sg100
S'Reflectie op de digitale cultuur3'
p950
sbsg96
(iread_data3
Room
p951
(dp952
g94
g99
sg100
g101
sbsg102
g251
sg104
g252
sg100
g750
sba(ischedule
Activity
p953
(dp954
g8
g705
sg94
S'10'
p955
sg95
g709
sg96
(iread_data3
Room
p956
(dp957
g94
g249
sg100
g250
sbsg102
g251
sg104
g170
sg100
g714
sba(ischedule
Activity
p958
(dp959
g8
(lp960
g189
ag286
ag28
ag69
aS'3233378'
p961
aS'1075391'
p962
ag210
ag395
aS'73980360'
p963
ag564
ag274
ag765
aS'22699561'
p964
ag58
ag811
ag488
asg94
g407
sg95
(ischedule
Group
p965
(dp966
g8
g960
sg100
S'Collectieve Intelligentie4'
p967
sbsg96
(iread_data3
Room
p968
(dp969
g94
g267
sg100
g268
sbsg102
g251
sg104
g382
sg100
g144
sbaa(lp970
(ischedule
Activity
p971
(dp972
g8
(lp973
g395
ag110
aS'96104167'
p974
ag125
ag811
ag111
ag322
ag69
ag132
ag856
ag765
ag488
ag501
ag588
ag274
ag117
ag28
ag112
ag564
ag189
ag633
ag113
ag773
ag128
ag197
ag130
ag210
ag122
ag162
ag114
ag288
ag963
ag133
ag119
ag131
ag124
ag964
ag115
ag121
ag286
ag164
ag116
ag961
ag815
ag417
ag127
ag58
aS'86291592'
p975
ag179
ag962
ag905
ag134
ag123
ag388
ag129
ag78
ag575
ag441
ag126
ag120
ag118
asg94
I1000
sg95
Nsg96
(iread_data3
Room
p976
(dp977
g94
g141
sg100
g142
sbsg102
g103
sg104
g105
sg100
g144
sba(ischedule
Activity
p978
(dp979
g8
(lp980
g897
ag900
ag148
ag902
ag904
ag654
ag908
ag879
ag910
ag794
ag234
ag150
ag440
ag205
ag772
ag773
ag916
ag429
ag153
ag920
ag663
ag511
ag83
ag68
ag441
ag392
ag163
ag913
ag548
ag41
ag634
asg94
g606
sg95
(ischedule
Group
p981
(dp982
g8
g980
sg100
S'Calculus 23'
p983
sbsg96
(iread_data3
Room
p984
(dp985
g94
g402
sg100
g403
sbsg102
g251
sg104
g252
sg100
g612
sba(ischedule
Activity
p986
(dp987
g8
g331
sg94
I1000
sg95
Nsg96
(iread_data3
Room
p988
(dp989
g94
g99
sg100
g101
sbsg102
g103
sg104
g105
sg100
g253
sba(ischedule
Activity
p990
(dp991
g8
(lp992
g344
ag289
ag366
ag432
ag681
ag91
ag434
aS'28055464'
p993
ag531
ag907
aS'20374340'
p994
ag438
ag502
ag341
ag592
ag917
ag367
aS'19214659'
p995
ag164
ag152
aS'64768422'
p996
ag63
ag914
aS'65675896'
p997
aS'69634191'
p998
asg94
I1000
sg95
Nsg96
(iread_data3
Room
p999
(dp1000
g94
g267
sg100
g268
sbsg102
g103
sg104
g105
sg100
S'Interactie-ontwerp'
p1001
sba(ischedule
Activity
p1002
(dp1003
g8
g473
sg94
g754
sg95
g475
sg96
(iread_data3
Room
p1004
(dp1005
g94
g224
sg100
g225
sbsg102
g143
sg104
g105
sg100
g226
sbaa(lp1006
(ischedule
Activity
p1007
(dp1008
g8
g762
sg94
I1000
sg95
Nsg96
(iread_data3
Room
p1009
(dp1010
g94
g402
sg100
g403
sbsg102
g103
sg104
g105
sg100
g543
sba(ischedule
Activity
p1011
(dp1012
g8
(lp1013
g501
ag162
ag164
ag179
ag856
ag441
ag417
ag288
ag633
ag588
ag974
ag388
ag197
ag773
ag322
ag815
ag975
asg94
g407
sg95
(ischedule
Group
p1014
(dp1015
g8
g1013
sg100
S'Collectieve Intelligentie1'
p1016
sbsg96
(iread_data3
Room
p1017
(dp1018
g94
g141
sg100
g142
sbsg102
g251
sg104
g170
sg100
g144
sba(ischedule
Activity
p1019
(dp1020
g8
g546
sg94
I1000
sg95
Nsg96
(iread_data3
Room
p1021
(dp1022
g94
g224
sg100
g225
sbsg102
g103
sg104
g170
sg100
g558
sba(ischedule
Activity
p1023
(dp1024
g8
(lp1025
g302
ag186
ag307
ag309
ag185
ag323
ag305
ag189
ag319
ag310
ag321
ag55
ag303
ag318
ag192
asg94
g934
sg95
(ischedule
Group
p1026
(dp1027
g8
g1025
sg100
S'Technology for games2'
p1028
sbsg96
(iread_data3
Room
p1029
(dp1030
g94
g99
sg100
g101
sbsg102
g251
sg104
g105
sg100
g328
sba(ischedule
Activity
p1031
(dp1032
g8
(lp1033
g181
ag205
ag215
ag203
ag177
ag219
ag208
ag163
ag218
ag17
ag209
ag190
ag194
asg94
g474
sg95
(ischedule
Group
p1034
(dp1035
g8
g1033
sg100
S'Moderne Databases1'
p1036
sbsg96
(iread_data3
Room
p1037
(dp1038
g94
g168
sg100
g169
sbsg102
g251
sg104
g170
sg100
g226
sba(ischedule
Activity
p1039
(dp1040
g8
(lp1041
g110
ag128
ag180
aS'5892092'
p1042
aS'47260040'
p1043
ag564
aS'64418623'
p1044
ag489
ag304
aS'91250534'
p1045
aS'55103073'
p1046
ag772
ag150
asg94
S'15'
p1047
sg95
(ischedule
Group
p1048
(dp1049
g8
g1041
sg100
S'Compilerbouw practicum1'
p1050
sbsg96
(iread_data3
Room
p1051
(dp1052
g94
g249
sg100
g250
sbsg102
g143
sg104
g170
sg100
S'Compilerbouw practicum'
p1053
sbaaa(lp1054
(lp1055
(ischedule
Activity
p1056
(dp1057
g8
g762
sg94
I1000
sg95
Nsg96
(iread_data3
Room
p1058
(dp1059
g94
g267
sg100
g268
sbsg102
g103
sg104
g252
sg100
g543
sba(ischedule
Activity
p1060
(dp1061
g8
(lp1062
S'88636924'
p1063
ag220
ag303
ag118
aS'13284244'
p1064
aS'95007221'
p1065
ag259
ag433
ag513
ag155
ag28
ag313
ag722
ag54
ag918
ag258
ag186
ag461
aS'34110913'
p1066
aS'65852230'
p1067
ag290
ag877
ag415
ag878
ag206
ag462
aS'15911353'
p1068
ag975
ag133
aS'3407554'
p1069
ag490
ag431
ag718
ag47
ag62
ag880
ag366
ag127
aS'9067939'
p1070
ag91
ag340
ag180
ag592
ag554
ag202
ag129
ag550
aS'43689934'
p1071
ag533
ag500
ag363
aS'75759231'
p1072
ag213
ag66
ag902
aS'76802764'
p1073
ag182
ag343
aS'75599734'
p1074
ag667
aS'79033175'
p1075
ag321
ag487
ag861
ag815
aS'95631564'
p1076
ag316
ag60
aS'80135353'
p1077
asg94
I1000
sg95
Nsg96
(iread_data3
Room
p1078
(dp1079
g94
g224
sg100
g225
sbsg102
g103
sg104
g170
sg100
S'Compilerbouw'
p1080
sba(ischedule
Activity
p1081
(dp1082
g8
g842
sg94
S'15'
p1083
sg95
g844
sg96
(iread_data3
Room
p1084
(dp1085
g94
g168
sg100
g169
sbsg102
g251
sg104
g170
sg100
g797
sba(ischedule
Activity
p1086
(dp1087
g8
g925
sg94
g261
sg95
g926
sg96
(iread_data3
Room
p1088
(dp1089
g94
g99
sg100
g101
sbsg102
g143
sg104
g105
sg100
g253
sba(ischedule
Activity
p1090
(dp1091
g8
(lp1092
g318
ag660
ag257
ag622
ag828
ag831
ag832
ag825
ag829
asg94
g955
sg95
(ischedule
Group
p1093
(dp1094
g8
g1092
sg100
S'Data Mining3'
p1095
sbsg96
(iread_data3
Room
p1096
(dp1097
g94
g141
sg100
g142
sbsg102
g251
sg104
g252
sg100
g714
sba(ischedule
Activity
p1098
(dp1099
g8
(lp1100
g154
ag161
ag149
ag160
ag162
ag158
asg94
S'10'
p1101
sg95
(ischedule
Group
p1102
(dp1103
g8
g1100
sg100
S'Advanced Heuristics2'
p1104
sbsg96
(iread_data3
Room
p1105
(dp1106
g94
g249
sg100
g250
sbsg102
g143
sg104
g105
sg100
g171
sbaa(lp1107
(ischedule
Activity
p1108
(dp1109
g8
(lp1110
g1064
ag28
ag533
ag1075
ag1077
ag60
ag259
ag127
ag155
ag431
ag592
ag550
ag490
ag1073
ag861
ag91
ag206
ag1070
ag1068
ag313
ag202
ag1074
ag258
ag1072
ag62
ag918
ag118
ag461
ag1071
ag290
ag316
asg94
S'40'
p1111
sg95
(ischedule
Group
p1112
(dp1113
g8
g1110
sg100
S'Compilerbouw1'
p1114
sbsg96
(iread_data3
Room
p1115
(dp1116
g94
g141
sg100
g142
sbsg102
g251
sg104
g170
sg100
g1080
sba(ischedule
Activity
p1117
(dp1118
g8
(lp1119
g491
ag946
ag669
ag369
aS'35315956'
p1120
ag531
ag430
ag507
ag413
ag301
ag201
aS'5739011'
p1121
ag511
ag279
ag588
ag257
ag361
ag432
asg94
S'20'
p1122
sg95
(ischedule
Group
p1123
(dp1124
g8
g1119
sg100
S'Heuristieken 21'
p1125
sbsg96
(iread_data3
Room
p1126
(dp1127
g94
g168
sg100
g169
sbsg102
g251
sg104
g170
sg100
S'Heuristieken 2'
p1128
sba(ischedule
Activity
p1129
(dp1130
g8
(lp1131
g282
ag503
ag232
ag346
ag114
ag32
ag192
ag489
ag90
ag634
ag189
ag632
ag14
ag333
ag121
ag621
ag38
ag318
ag362
ag629
ag623
ag631
ag151
ag630
ag622
ag625
ag633
ag593
ag628
ag627
ag624
ag43
ag626
asg94
g418
sg95
(ischedule
Group
p1132
(dp1133
g8
g1131
sg100
S'Heuristieken 11'
p1134
sbsg96
(iread_data3
Room
p1135
(dp1136
g94
g402
sg100
g403
sbsg102
g251
sg104
g170
sg100
g424
sba(ischedule
Activity
p1137
(dp1138
g8
(lp1139
g878
ag462
ag554
ag129
ag433
ag213
ag343
ag513
ag1069
ag220
ag363
ag1065
ag722
ag415
ag718
ag1066
ag321
ag1076
ag902
ag500
ag182
ag133
ag54
ag366
ag1063
ag66
ag667
ag47
ag975
ag340
ag303
ag180
ag487
ag815
ag186
ag880
ag877
ag1067
asg94
S'40'
p1140
sg95
(ischedule
Group
p1141
(dp1142
g8
g1139
sg100
S'Compilerbouw2'
p1143
sbsg96
(iread_data3
Room
p1144
(dp1145
g94
g224
sg100
g225
sbsg102
g143
sg104
g105
sg100
g1080
sba(ischedule
Activity
p1146
(dp1147
g8
(lp1148
g307
ag824
ag695
ag827
ag826
ag830
asg94
g955
sg95
(ischedule
Group
p1149
(dp1150
g8
g1148
sg100
S'Data Mining2'
p1151
sbsg96
(iread_data3
Room
p1152
(dp1153
g94
g267
sg100
g268
sbsg102
g251
sg104
g105
sg100
g714
sba(ischedule
Activity
p1154
(dp1155
g8
(lp1156
g859
ag414
aS'42297781'
p1157
ag458
ag117
ag860
aS'23215240'
p1158
ag429
ag428
ag666
ag15
aS'44151631'
p1159
asg94
g1047
sg95
(ischedule
Group
p1160
(dp1161
g8
g1156
sg100
S'Compilerbouw practicum3'
p1162
sbsg96
(iread_data3
Room
p1163
(dp1164
g94
g249
sg100
g250
sbsg102
g143
sg104
g252
sg100
g1053
sba(ischedule
Activity
p1165
(dp1166
g8
g561
sg94
g641
sg95
g567
sg96
(iread_data3
Room
p1167
(dp1168
g94
g99
sg100
g101
sbsg102
g251
sg104
g105
sg100
g451
sbaa(lp1169
(ischedule
Activity
p1170
(dp1171
g8
g1062
sg94
I1000
sg95
Nsg96
(iread_data3
Room
p1172
(dp1173
g94
g224
sg100
g225
sbsg102
g103
sg104
g105
sg100
g1080
sba(ischedule
Activity
p1174
(dp1175
g8
g973
sg94
I1000
sg95
Nsg96
(iread_data3
Room
p1176
(dp1177
g94
g99
sg100
g101
sbsg102
g103
sg104
g170
sg100
g144
sba(ischedule
Activity
p1178
(dp1179
g8
g694
sg94
S'20'
p1180
sg95
g698
sg96
(iread_data3
Room
p1181
(dp1182
g94
g402
sg100
g403
sbsg102
g251
sg104
g170
sg100
g543
sba(ischedule
Activity
p1183
(dp1184
g8
g1092
sg94
g708
sg95
g1093
sg96
(iread_data3
Room
p1185
(dp1186
g94
g168
sg100
g169
sbsg102
g143
sg104
g252
sg100
g714
sba(ischedule
Activity
p1187
(dp1188
g8
g527
sg94
g1180
sg95
g538
sg96
(iread_data3
Room
p1189
(dp1190
g94
g267
sg100
g268
sbsg102
g251
sg104
g105
sg100
g543
sba(ischedule
Activity
p1191
(dp1192
g8
g1033
sg94
g754
sg95
g1034
sg96
(iread_data3
Room
p1193
(dp1194
g94
g141
sg100
g142
sbsg102
g143
sg104
g170
sg100
g226
sba(ischedule
Activity
p1195
(dp1196
g8
g229
sg94
g261
sg95
g244
sg96
(iread_data3
Room
p1197
(dp1198
g94
g249
sg100
g250
sbsg102
g143
sg104
g252
sg100
g253
sbaa(lp1199
(ischedule
Activity
p1200
(dp1201
g8
g839
sg94
I1000
sg95
Nsg96
(iread_data3
Room
p1202
(dp1203
g94
g267
sg100
g268
sbsg102
g103
sg104
g170
sg100
g691
sba(ischedule
Activity
p1204
(dp1205
g8
(lp1206
g60
ag40
ag899
ag665
ag905
ag195
ag909
ag858
ag439
ag204
ag185
ag177
ag912
ag305
ag651
ag875
ag914
ag111
ag917
ag284
ag918
ag919
ag915
ag911
ag812
ag830
ag903
ag901
ag513
ag44
ag898
ag907
ag896
ag36
ag766
ag906
asg94
g606
sg95
(ischedule
Group
p1207
(dp1208
g8
g1206
sg100
S'Calculus 21'
p1209
sbsg96
(iread_data3
Room
p1210
(dp1211
g94
g402
sg100
g403
sbsg102
g251
sg104
g170
sg100
g612
sba(ischedule
Activity
p1212
(dp1213
g8
g973
sg94
I1000
sg95
Nsg96
(iread_data3
Room
p1214
(dp1215
g94
g99
sg100
g101
sbsg102
g103
sg104
g252
sg100
g144
sba(ischedule
Activity
p1216
(dp1217
g8
(lp1218
g182
ag695
ag706
ag792
ag789
asg94
g1083
sg95
(ischedule
Group
p1219
(dp1220
g8
g1218
sg100
S'Informatie- en organsatieontwerp2'
p1221
sbsg96
(iread_data3
Room
p1222
(dp1223
g94
g168
sg100
g169
sbsg102
g251
sg104
g105
sg100
g797
sba(ischedule
Activity
p1224
(dp1225
g8
(lp1226
g826
ag653
ag113
ag946
ag428
ag824
ag656
ag740
ag742
ag221
ag190
ag861
ag621
ag30
ag198
ag70
ag62
ag669
ag35
ag548
ag774
ag307
ag387
ag532
ag658
ag528
ag743
ag741
ag943
ag154
ag945
aS'36213792'
p1227
ag317
ag312
ag285
ag944
ag333
ag738
ag61
ag216
ag123
ag344
aS'77960666'
p1228
ag93
ag739
ag725
ag649
ag156
aS'92778619'
p1229
ag947
ag433
asg94
I1000
sg95
Nsg96
(iread_data3
Room
p1230
(dp1231
g94
g224
sg100
g225
sbsg102
g103
sg104
g105
sg100
g750
sba(ischedule
Activity
p1232
(dp1233
g8
(lp1234
S'51472074'
p1235
ag443
ag857
ag1069
ag790
ag764
ag416
ag459
ag997
ag51
ag763
aS'1695839'
p1236
ag11
ag324
aS'535689'
p1237
asg94
g1047
sg95
(ischedule
Group
p1238
(dp1239
g8
g1234
sg100
S'Compilerbouw practicum2'
p1240
sbsg96
(iread_data3
Room
p1241
(dp1242
g94
g249
sg100
g250
sbsg102
g143
sg104
g105
sg100
g1053
sbaa(lp1243
(ischedule
Activity
p1244
(dp1245
g8
g1110
sg94
g1140
sg95
g1112
sg96
(iread_data3
Room
p1246
(dp1247
g94
g402
sg100
g403
sbsg102
g143
sg104
g170
sg100
g1080
sba(ischedule
Activity
p1248
(dp1249
g8
(lp1250
g184
ag25
ag16
ag181
aS'1048485'
p1251
ag565
ag856
ag444
ag417
ag428
aS'14072826'
p1252
ag742
ag333
ag119
ag87
ag18
ag56
ag274
ag804
aS'3727435'
p1253
ag236
ag85
ag71
ag260
ag530
ag653
ag84
ag110
aS'41153310'
p1254
ag631
ag59
ag315
ag591
ag696
ag634
ag126
ag21
ag492
ag439
ag599
ag392
asg94
S'40'
p1255
sg95
(ischedule
Group
p1256
(dp1257
g8
g1250
sg100
S'Software engineering2'
p1258
sbsg96
(iread_data3
Room
p1259
(dp1260
g94
g267
sg100
g268
sbsg102
g143
sg104
g105
sg100
S'Software engineering'
p1261
sba(ischedule
Activity
p1262
(dp1263
g8
(lp1264
g214
ag185
ag718
ag662
ag513
ag593
ag766
ag462
ag115
ag233
ag36
ag134
ag437
ag594
ag231
ag763
ag765
ag196
ag764
ag597
asg94
g1180
sg95
(ischedule
Group
p1265
(dp1266
g8
g1264
sg100
S'Bioinformatica3'
p1267
sbsg96
(iread_data3
Room
p1268
(dp1269
g94
g249
sg100
g250
sbsg102
g251
sg104
g252
sg100
g543
sba(ischedule
Activity
p1270
(dp1271
g8
(lp1272
g286
ag1237
ag32
aS'56191333'
p1273
aS'123355'
p1274
ag72
ag156
ag11
ag975
ag829
ag111
ag552
ag602
asg94
g376
sg95
(ischedule
Group
p1275
(dp1276
g8
g1272
sg100
S'Netwerken en systeembeveiliging2'
p1277
sbsg96
(iread_data3
Room
p1278
(dp1279
g94
g224
sg100
g225
sbsg102
g143
sg104
g105
sg100
g383
sba(ischedule
Activity
p1280
(dp1281
g8
(lp1282
g905
ag78
ag575
asg94
g135
sg95
(ischedule
Group
p1283
(dp1284
g8
g1282
sg100
S'Collectieve Intelligentie3'
p1285
sbsg96
(iread_data3
Room
p1286
(dp1287
g94
g168
sg100
g169
sbsg102
g143
sg104
g252
sg100
g144
sba(ischedule
Activity
p1288
(dp1289
g8
(lp1290
g501
ag531
ag1121
ag279
ag413
ag626
ag669
ag946
ag201
ag511
ag26
ag51
ag301
ag257
aS'52304977'
p1291
ag430
ag1120
ag588
ag432
ag62
ag389
ag234
ag120
ag507
ag361
ag161
ag491
ag603
ag551
ag369
aS'82968410'
p1292
aS'72652638'
p1293
asg94
I1000
sg95
Nsg96
(iread_data3
Room
p1294
(dp1295
g94
g141
sg100
g142
sbsg102
g103
sg104
g170
sg100
g1128
sba(ischedule
Activity
p1296
(dp1297
g8
g788
sg94
I1000
sg95
Nsg96
(iread_data3
Room
p1298
(dp1299
g94
g99
sg100
g101
sbsg102
g103
sg104
g170
sg100
g797
sbaaa(lp1300
(lp1301
(ischedule
Activity
p1302
(dp1303
g8
(lp1304
g566
ag64
ag428
ag184
ag57
ag286
ag429
ag442
ag437
ag435
ag562
ag394
ag30
ag277
ag443
ag504
ag313
ag440
ag18
ag110
ag430
ag230
ag431
ag434
ag438
ag87
ag564
ag563
ag257
ag115
ag439
ag444
ag441
ag342
ag32
ag278
ag366
ag433
ag282
ag177
ag436
ag565
ag432
asg94
I1000
sg95
Nsg96
g833
sg102
g103
sg104
g170
sg100
g451
sba(ischedule
Activity
p1305
(dp1306
g8
(lp1307
S'51791169'
p1308
ag259
ag153
ag196
ag274
ag51
ag549
ag131
ag275
aS'7386961'
p1309
ag551
aS'64053722'
p1310
ag239
ag1251
ag1254
ag975
asg94
g351
sg95
(ischedule
Group
p1311
(dp1312
g8
g1307
sg100
S'Programmeren in Java 26'
p1313
sbsg96
(iread_data3
Room
p1314
(dp1315
g94
g249
sg100
g250
sbsg102
g143
sg104
S'6'
p1316
sg100
g357
sba(ischedule
Activity
p1317
(dp1318
g8
(lp1319
g774
ag565
ag316
ag905
aS'63573738'
p1320
ag190
ag531
ag535
aS'64246605'
p1321
ag649
aS'53267490'
p1322
ag232
ag604
aS'19058315'
p1323
ag722
aS'12170832'
p1324
ag276
asg94
g376
sg95
(ischedule
Group
p1325
(dp1326
g8
g1319
sg100
S'Netwerken en systeembeveiliging1'
p1327
sbsg96
(iread_data3
Room
p1328
(dp1329
g94
g402
sg100
g403
sbsg102
g143
sg104
g170
sg100
g383
sba(ischedule
Activity
p1330
(dp1331
g8
(lp1332
g656
ag307
ag658
ag312
ag333
ag1228
ag344
ag1227
ag198
ag62
ag669
ag1229
ag387
asg94
g744
sg95
(ischedule
Group
p1333
(dp1334
g8
g1332
sg100
S'Reflectie op de digitale cultuur1'
p1335
sbsg96
(iread_data3
Room
p1336
(dp1337
g94
g168
sg100
g169
sbsg102
g251
sg104
g170
sg100
g750
sba(ischedule
Activity
p1338
(dp1339
g8
g1013
sg94
g135
sg95
g1014
sg96
(iread_data3
Room
p1340
(dp1341
g94
g99
sg100
g101
sbsg102
g143
sg104
g170
sg100
g144
sba(ischedule
Activity
p1342
(dp1343
g8
(lp1344
g961
ag127
ag718
aS'44671041'
p1345
ag660
ag763
ag233
ag483
ag1076
ag766
ag1074
ag186
ag509
ag201
ag917
aS'31103066'
p1346
aS'37830626'
p1347
ag372
ag235
ag861
ag218
ag414
ag318
ag510
ag651
ag430
ag552
ag813
ag205
ag764
ag668
ag66
aS'9287708'
p1348
aS'58074656'
p1349
asg94
g1255
sg95
(ischedule
Group
p1350
(dp1351
g8
g1344
sg100
S'Software engineering1'
p1352
sbsg96
(iread_data3
Room
p1353
(dp1354
g94
g141
sg100
g142
sbsg102
g143
sg104
g170
sg100
g1261
sba(ischedule
Activity
p1355
(dp1356
g8
(lp1357
S'37419523'
p1358
ag630
ag918
ag908
ag900
ag113
ag995
ag160
ag53
aS'40911986'
p1359
ag220
ag133
ag534
asg94
g726
sg95
(ischedule
Group
p1360
(dp1361
g8
g1357
sg100
S'Project Numerical Recipes2'
p1362
sbsg96
(iread_data3
Room
p1363
(dp1364
g94
g267
sg100
g268
sbsg102
g143
sg104
g105
sg100
g732
sbaa(lp1365
(ischedule
Activity
p1366
(dp1367
g8
g1264
sg94
g537
sg95
g1265
sg96
(iread_data3
Room
p1368
(dp1369
g94
g168
sg100
g169
sbsg102
g143
sg104
g252
sg100
g543
sba(ischedule
Activity
p1370
(dp1371
g8
g1226
sg94
I1000
sg95
Nsg96
(iread_data3
Room
p1372
(dp1373
g94
g99
sg100
g101
sbsg102
g103
sg104
g170
sg100
g750
sba(ischedule
Activity
p1374
(dp1375
g8
g992
sg94
I1000
sg95
Nsg96
(iread_data3
Room
p1376
(dp1377
g94
g402
sg100
g403
sbsg102
g103
sg104
g170
sg100
g1001
sba(ischedule
Activity
p1378
(dp1379
g8
g482
sg94
I1000
sg95
Nsg96
(iread_data3
Room
p1380
(dp1381
g94
g224
sg100
g225
sbsg102
g103
sg104
g170
sg100
g496
sba(ischedule
Activity
p1382
(dp1383
g8
(lp1384
g57
ag1251
ag38
ag282
ag832
ag655
ag200
aS'59887191'
p1385
aS'62736669'
p1386
asg94
g376
sg95
(ischedule
Group
p1387
(dp1388
g8
g1384
sg100
S'Netwerken en systeembeveiliging3'
p1389
sbsg96
(iread_data3
Room
p1390
(dp1391
g94
g141
sg100
g142
sbsg102
g143
sg104
g252
sg100
g383
sba(ischedule
Activity
p1392
(dp1393
g8
g1218
sg94
g843
sg95
g1219
sg96
(iread_data3
Room
p1394
(dp1395
g94
g267
sg100
g268
sbsg102
g143
sg104
g105
sg100
g797
sba(ischedule
Activity
p1396
(dp1397
g8
g1282
sg94
g407
sg95
g1283
sg96
(iread_data3
Room
p1398
(dp1399
g94
g249
sg100
g250
sbsg102
g251
sg104
g252
sg100
g144
sbaa(lp1400
(ischedule
Activity
p1401
(dp1402
g8
(lp1403
g84
ag1347
ag651
ag184
ag260
ag25
ag315
ag235
ag71
ag764
ag205
ag16
ag492
ag181
ag961
ag917
ag127
ag1251
ag85
ag565
ag1348
ag696
ag591
ag552
ag21
ag856
ag236
ag444
ag392
ag66
ag718
ag417
ag1345
ag1346
ag660
ag318
ag634
ag428
ag110
ag861
ag372
ag430
ag274
ag1252
ag763
ag218
ag233
ag742
ag510
ag201
ag483
ag1254
ag59
ag653
ag1076
ag333
ag804
ag119
ag766
ag87
ag1074
ag439
ag186
ag530
ag126
ag599
ag414
ag668
ag1253
ag18
ag631
ag56
ag813
ag1349
ag509
asg94
I1000
sg95
Nsg96
g833
sg102
g103
sg104
g170
sg100
g1261
sba(ischedule
Activity
p1404
(dp1405
g8
(lp1406
g35
aS'81116418'
p1407
ag361
ag151
ag260
ag877
ag431
ag26
aS'90103047'
p1408
ag764
ag506
ag1064
ag134
ag1320
ag738
ag502
aS'21070547'
p1409
ag975
asg94
g726
sg95
(ischedule
Group
p1410
(dp1411
g8
g1406
sg100
S'Project Numerical Recipes1'
p1412
sbsg96
(iread_data3
Room
p1413
(dp1414
g94
g402
sg100
g403
sbsg102
g143
sg104
g170
sg100
g732
sba(ischedule
Activity
p1415
(dp1416
g8
(lp1417
g364
ag655
ag156
ag342
ag791
ag720
ag117
ag433
ag1228
ag1273
ag259
aS'54540997'
p1418
ag257
ag258
ag302
ag192
ag68
ag396
ag536
ag123
ag490
ag153
ag177
ag457
ag593
ag900
ag815
ag1386
ag236
ag75
ag595
ag58
ag913
ag765
ag120
ag507
ag918
ag666
aS'4529208'
p1419
ag17
ag858
ag460
aS'58083680'
p1420
ag812
ag596
asg94
g291
sg95
(ischedule
Group
p1421
(dp1422
g8
g1417
sg100
S'Databases 22'
p1423
sbsg96
(iread_data3
Room
p1424
(dp1425
g94
g267
sg100
g268
sbsg102
g251
sg104
g105
sg100
g297
sba(ischedule
Activity
p1426
(dp1427
g8
g1148
sg94
g708
sg95
g1149
sg96
(iread_data3
Room
p1428
(dp1429
g94
g249
sg100
g250
sbsg102
g143
sg104
g105
sg100
g714
sbaa(lp1430
(ischedule
Activity
p1431
(dp1432
g8
(lp1433
g159
ag20
ag155
ag30
ag150
ag157
ag165
ag164
ag148
ag153
ag152
ag156
ag163
ag151
asg94
g1101
sg95
(ischedule
Group
p1434
(dp1435
g8
g1433
sg100
S'Advanced Heuristics1'
p1436
sbsg96
(iread_data3
Room
p1437
(dp1438
g94
g224
sg100
g225
sbsg102
g143
sg104
g170
sg100
g171
sba(ischedule
Activity
p1439
(dp1440
g8
(lp1441
g17
ag441
ag79
ag552
ag678
ag658
ag1077
ag1229
ag60
ag791
ag429
ag1158
ag775
ag1228
ag815
ag195
ag1345
ag176
aS'54395877'
p1442
ag684
ag132
asg94
g351
sg95
(ischedule
Group
p1443
(dp1444
g8
g1441
sg100
S'Programmeren in Java 24'
p1445
sbsg96
(iread_data3
Room
p1446
(dp1447
g94
g168
sg100
g169
sbsg102
g143
sg104
g382
sg100
g357
sba(ischedule
Activity
p1448
(dp1449
g8
g1139
sg94
g1111
sg95
g1141
sg96
(iread_data3
Room
p1450
(dp1451
g94
g99
sg100
g101
sbsg102
g251
sg104
g105
sg100
g1080
sba(ischedule
Activity
p1452
(dp1453
g8
(lp1454
g120
ag234
ag161
ag1293
ag501
ag51
ag62
ag26
ag551
ag389
ag626
ag603
ag1292
ag1291
asg94
g1122
sg95
(ischedule
Group
p1455
(dp1456
g8
g1454
sg100
S'Heuristieken 22'
p1457
sbsg96
(iread_data3
Room
p1458
(dp1459
g94
g249
sg100
g250
sbsg102
g251
sg104
g105
sg100
g1128
sba(ischedule
Activity
p1460
(dp1461
g8
g1250
sg94
S'40'
p1462
sg95
g1256
sg96
(iread_data3
Room
p1463
(dp1464
g94
g402
sg100
g403
sbsg102
g251
sg104
g105
sg100
g1261
sba(ischedule
Activity
p1465
(dp1466
g8
g960
sg94
g135
sg95
g965
sg96
(iread_data3
Room
p1467
(dp1468
g94
g267
sg100
g268
sbsg102
g143
sg104
g382
sg100
g144
sbaa(lp1469
(ischedule
Activity
p1470
(dp1471
g8
g9
sg94
I1000
sg95
Nsg96
g833
sg102
g103
sg104
g170
sg100
g106
sba(ischedule
Activity
p1472
(dp1473
g8
(lp1474
g123
ag288
ag765
ag536
ag279
ag188
ag283
ag364
ag490
ag159
ag79
ag655
ag287
ag290
ag281
ag156
ag457
ag342
ag273
ag460
ag274
ag791
ag179
ag236
ag120
ag720
ag113
ag286
ag507
ag12
ag1386
ag117
ag275
ag285
ag177
ag433
ag858
ag153
ag17
ag58
ag194
ag280
ag812
ag1228
ag593
ag1273
ag900
ag1420
ag815
ag918
ag75
ag259
ag210
ag1418
ag276
ag176
ag595
ag282
ag289
ag257
ag284
ag258
ag913
ag302
ag277
ag666
ag1419
ag192
ag596
ag68
ag278
ag396
asg94
I1000
sg95
Nsg96
(iread_data3
Room
p1475
(dp1476
g94
g141
sg100
g142
sbsg102
g103
sg104
g170
sg100
g297
sba(ischedule
Activity
p1477
(dp1478
g8
g823
sg94
I1000
sg95
Nsg96
(iread_data3
Room
p1479
(dp1480
g94
g402
sg100
g403
sbsg102
g103
sg104
g105
sg100
g714
sba(ischedule
Activity
p1481
(dp1482
g8
g1344
sg94
g1462
sg95
g1350
sg96
(iread_data3
Room
p1483
(dp1484
g94
g99
sg100
g101
sbsg102
g251
sg104
g170
sg100
g1261
sba(ischedule
Activity
p1485
(dp1486
g8
g771
sg94
g890
sg95
g781
sg96
(iread_data3
Room
p1487
(dp1488
g94
g249
sg100
g250
sbsg102
g143
sg104
g105
sg100
g691
sbaaa(lp1489
(lp1490
a(lp1491
a(lp1492
a(lp1493
a(lp1494
aasS'timeslot_dict'
p1495
(dp1496
I0
S'9:00-11:00'
p1497
sI1
S'11:00-13:00'
p1498
sI2
S'13:00-15:00'
p1499
sI3
S'15:00-17:00'
p1500
sI4
S'17:00-19:00'
p1501
ssS'day_dict'
p1502
(dp1503
I0
S'Monday'
p1504
sI1
S'Tuesday'
p1505
sI2
S'Wednesday'
p1506
sI3
S'Thursday'
p1507
sI4
S'Friday'
p1508
ssb.