(ischedule
Schedule
p0
(dp1
S'timetable'
p2
(lp3
(lp4
(lp5
(ischedule
Activity
p6
(dp7
S'participants'
p8
(lp9
S'58332004'
p10
aS'23983476'
p11
aS'70878567'
p12
aS'13116738'
p13
aS'68315599'
p14
aS'32204977'
p15
aS'17496687'
p16
aS'13658563'
p17
aS'75585647'
p18
aS'8557857'
p19
aS'18266644'
p20
aS'11459236'
p21
aS'75521763'
p22
aS'19958553'
p23
aS'36748818'
p24
aS'29718115'
p25
aS'23257088'
p26
aS'77636749'
p27
aS'92977271'
p28
aS'44901052'
p29
aS'62701040'
p30
asS'capacity'
p31
I1000
sS'name'
p32
S'Informatie- en organsatieontwerp'
p33
sS'ttype'
p34
S'lectures'
p35
sS'group_id'
p36
I0
sS'room'
p37
(iread_data
Room
p38
(dp39
g31
S'117'
p40
sg32
S'C0.110'
p41
sbsba(ischedule
Activity
p42
(dp43
g8
(lp44
S'74131924'
p45
aS'20883994'
p46
aS'96453361'
p47
aS'7308727'
p48
aS'66120270'
p49
aS'64600457'
p50
aS'24613625'
p51
aS'6723948'
p52
aS'43680781'
p53
aS'21964491'
p54
aS'53202517'
p55
aS'33930505'
p56
aS'81200278'
p57
aS'85335143'
p58
aS'58522654'
p59
asg31
S'20'
p60
sg32
S'Bioinformatica'
p61
sg34
S'tutorials'
p62
sg36
S'2'
p63
sg37
(iread_data
Room
p64
(dp65
g31
S'48'
p66
sg32
S'B0.201'
p67
sbsba(ischedule
Activity
p68
(dp69
g8
(lp70
S'88176729'
p71
aS'14671406'
p72
aS'14072826'
p73
aS'80709893'
p74
aS'43460038'
p75
aS'52715680'
p76
aS'82872148'
p77
aS'3727435'
p78
aS'26260141'
p79
aS'48357272'
p80
aS'37744525'
p81
aS'55474917'
p82
aS'68409833'
p83
aS'58565406'
p84
aS'5976174'
p85
aS'14309255'
p86
aS'28357474'
p87
aS'65318664'
p88
aS'78443067'
p89
aS'52311353'
p90
aS'37830626'
p91
aS'31103066'
p92
aS'58074656'
p93
aS'4783858'
p94
aS'27582862'
p95
aS'61060652'
p96
aS'59544049'
p97
aS'60312776'
p98
aS'29640619'
p99
aS'89180944'
p100
aS'44671041'
p101
aS'9287708'
p102
aS'42115591'
p103
aS'89338938'
p104
aS'75599734'
p105
aS'21095566'
p106
aS'31633723'
p107
aS'62356458'
p108
asg31
S'40'
p109
sg32
S'Software engineering'
p110
sg34
S'labs'
p111
sg36
S'1'
p112
sg37
(iread_data
Room
p113
(dp114
g31
S'20'
p115
sg32
S'A1.08'
p116
sbsba(ischedule
Activity
p117
(dp118
g8
(lp119
S'58592894'
p120
aS'86988337'
p121
aS'54540997'
p122
aS'75005528'
p123
aS'51566595'
p124
aS'39459642'
p125
aS'91527663'
p126
aS'26406342'
p127
aS'23658570'
p128
aS'78821918'
p129
aS'94686490'
p130
aS'96054456'
p131
aS'43027916'
p132
aS'59397895'
p133
aS'77896638'
p134
aS'26207525'
p135
aS'25077484'
p136
aS'27123462'
p137
aS'42196732'
p138
aS'34872117'
p139
aS'72796858'
p140
aS'56749879'
p141
aS'17092717'
p142
aS'3168419'
p143
aS'24277163'
p144
aS'83869542'
p145
aS'64947290'
p146
aS'82689818'
p147
ag26
aS'5526560'
p148
aS'670011'
p149
aS'62736669'
p150
aS'11996292'
p151
aS'40434933'
p152
aS'76123484'
p153
aS'13132925'
p154
aS'56872729'
p155
aS'86180471'
p156
aS'56191333'
p157
aS'4921119'
p158
ag99
aS'51542218'
p159
aS'88752563'
p160
aS'14816774'
p161
aS'5085194'
p162
aS'43902015'
p163
aS'47932106'
p164
aS'15187217'
p165
aS'40141996'
p166
aS'29526540'
p167
aS'49631542'
p168
aS'17222374'
p169
aS'12091019'
p170
aS'70072978'
p171
aS'58083680'
p172
aS'4529208'
p173
aS'46989508'
p174
aS'64296965'
p175
aS'90474003'
p176
aS'56121590'
p177
aS'47477884'
p178
aS'247918'
p179
aS'13092455'
p180
aS'73823548'
p181
aS'60352393'
p182
aS'5517869'
p183
aS'37701751'
p184
aS'57467488'
p185
aS'72456780'
p186
aS'52552718'
p187
aS'77960666'
p188
ag10
asg31
I1000
sg32
S'Databases 2'
p189
sg34
g35
sg36
I0
sg37
(iread_data
Room
p190
(dp191
g31
S'41'
p192
sg32
S'A1.04'
p193
sbsba(ischedule
Activity
p194
(dp195
g8
(lp196
S'77240949'
p197
aS'49683101'
p198
aS'67625383'
p199
aS'27187154'
p200
aS'61518436'
p201
aS'2079771'
p202
ag85
aS'63111000'
p203
aS'85236626'
p204
aS'40791377'
p205
aS'33252501'
p206
aS'94467156'
p207
aS'15051051'
p208
aS'3685034'
p209
aS'90067329'
p210
aS'26857113'
p211
aS'46701583'
p212
ag81
aS'56988998'
p213
ag125
aS'23798155'
p214
aS'38296757'
p215
asg31
I1000
sg32
S'Machine Learning'
p216
sg34
g35
sg36
I0
sg37
(iread_data
Room
p217
(dp218
g31
S'60'
p219
sg32
S'C1.112'
p220
sbsba(ischedule
Activity
p221
(dp222
g8
(lp223
S'25106480'
p224
ag187
aS'22871048'
p225
aS'50143947'
p226
ag207
aS'51593625'
p227
aS'1048485'
p228
aS'65408517'
p229
aS'45915482'
p230
aS'3233378'
p231
aS'40343779'
p232
aS'78243495'
p233
aS'13718298'
p234
aS'83210352'
p235
aS'89985072'
p236
aS'27950803'
p237
aS'31247305'
p238
aS'73302736'
p239
aS'4568018'
p240
aS'11068043'
p241
aS'11915563'
p242
aS'96554914'
p243
aS'33877725'
p244
aS'22323043'
p245
aS'77376714'
p246
aS'4546613'
p247
aS'62105897'
p248
aS'95631564'
p249
aS'41527759'
p250
aS'44868097'
p251
aS'70015932'
p252
aS'99283252'
p253
aS'48601268'
p254
aS'41153310'
p255
aS'84110134'
p256
aS'54026378'
p257
aS'73236988'
p258
asg31
g109
sg32
g110
sg34
g111
sg36
g63
sg37
(iread_data
Room
p259
(dp260
g31
S'22'
p261
sg32
S'A1.06'
p262
sbsbaa(lp263
(ischedule
Activity
p264
(dp265
g8
(lp266
g108
aS'61611295'
p267
ag83
aS'70113753'
p268
aS'19858730'
p269
ag225
ag242
ag29
aS'37110913'
p270
ag257
ag45
aS'36508571'
p271
ag183
aS'27298319'
p272
aS'16097870'
p273
aS'88627897'
p274
ag125
ag187
ag124
aS'34806836'
p275
aS'62872965'
p276
ag140
asg31
I1000
sg32
S'Autonomous Agents 2'
p277
sg34
g35
sg36
I0
sg37
(iread_data
Room
p278
(dp279
g31
S'56'
p280
sg32
S'A1.10'
p281
sbsba(ischedule
Activity
p282
(dp283
g8
(lp284
S'58866007'
p285
aS'10149535'
p286
aS'83266686'
p287
ag214
ag152
aS'72683344'
p288
ag75
aS'28618400'
p289
aS'59289233'
p290
aS'72577292'
p291
aS'13798030'
p292
aS'20331158'
p293
ag147
ag252
ag25
ag100
aS'27925117'
p294
aS'45556081'
p295
ag198
aS'14138904'
p296
ag139
asg31
I1000
sg32
S'Architectuur en computerorganisatie'
p297
sg34
g35
sg36
I0
sg37
(iread_data
Room
p298
(dp299
g31
g219
sg32
g220
sbsba(ischedule
Activity
p300
(dp301
g8
(lp302
g10
ag12
ag14
ag16
ag18
ag20
ag22
ag24
ag26
ag28
ag30
asg31
S'15'
p303
sg32
g33
sg34
g62
sg36
g112
sg37
(iread_data
Room
p304
(dp305
g31
g192
sg32
g193
sbsba(ischedule
Activity
p306
(dp307
g8
(lp308
g11
ag13
ag15
ag17
ag19
ag21
ag23
ag25
ag27
ag29
asg31
g303
sg32
g33
sg34
g62
sg36
g63
sg37
(iread_data
Room
p309
(dp310
g31
g115
sg32
g116
sbsba(ischedule
Activity
p311
(dp312
g8
(lp313
g56
aS'21677389'
p314
ag135
aS'62363761'
p315
aS'97135019'
p316
aS'123355'
p317
aS'81385263'
p318
ag77
aS'77392404'
p319
aS'3883025'
p320
aS'85284256'
p321
aS'8522855'
p322
ag238
aS'1696500'
p323
asg31
S'20'
p324
sg32
S'Netwerken en systeembeveiliging'
p325
sg34
g111
sg36
S'3'
p326
sg37
(iread_data
Room
p327
(dp328
g31
g40
sg32
g41
sbsba(ischedule
Activity
p329
(dp330
g8
(lp331
S'3678531'
p332
aS'61443567'
p333
aS'22288615'
p334
ag211
aS'23215240'
p335
ag81
aS'2550487'
p336
aS'58469172'
p337
aS'90296821'
p338
ag99
aS'83415514'
p339
aS'15249775'
p340
aS'36903574'
p341
ag227
aS'93566383'
p342
aS'17823206'
p343
aS'73893840'
p344
ag52
ag131
asg31
S'20'
p345
sg32
S'Programmeren in Java 2'
p346
sg34
g111
sg36
S'4'
p347
sg37
(iread_data
Room
p348
(dp349
g31
g261
sg32
g262
sbsba(ischedule
Activity
p350
(dp351
g8
(lp352
S'11741347'
p353
aS'48503689'
p354
aS'10792879'
p355
aS'5368702'
p356
aS'88855695'
p357
ag98
aS'8464817'
p358
aS'65960683'
p359
aS'9067939'
p360
aS'75664412'
p361
ag55
ag258
aS'30658799'
p362
ag160
aS'13284244'
p363
aS'54772132'
p364
aS'48308205'
p365
aS'94687383'
p366
aS'31194811'
p367
aS'34243356'
p368
aS'72895450'
p369
aS'92665222'
p370
ag105
ag59
aS'65852230'
p371
aS'86291592'
p372
aS'7957843'
p373
aS'76661016'
p374
aS'88636924'
p375
aS'98105190'
p376
aS'84524083'
p377
ag51
ag200
asg31
S'40'
p378
sg32
S'Compilerbouw'
p379
sg34
g111
sg36
g63
sg37
(iread_data
Room
p380
(dp381
g31
g66
sg32
g67
sbsbaa(lp382
(ischedule
Activity
p383
(dp384
g8
(lp385
g57
ag45
ag244
aS'21029457'
p386
ag167
aS'79617364'
p387
aS'56815156'
p388
ag46
ag97
aS'30195935'
p389
ag47
aS'77831658'
p390
ag208
ag48
aS'22826928'
p391
ag257
ag49
ag240
ag131
ag50
ag12
ag141
ag51
aS'22731474'
p392
aS'6913074'
p393
ag52
ag258
ag236
ag53
ag58
ag179
ag54
ag138
aS'30050930'
p394
ag55
ag241
aS'5298748'
p395
ag71
aS'14591033'
p396
aS'28359697'
p397
ag56
ag59
ag251
ag143
ag161
asg31
I1000
sg32
g61
sg34
g35
sg36
I0
sg37
(iread_data
Room
p398
(dp399
g31
g40
sg32
g41
sbsba(ischedule
Activity
p400
(dp401
g8
(lp402
g272
ag47
aS'1665980'
p403
ag11
ag79
ag76
ag54
ag318
aS'51509565'
p404
ag147
ag232
ag185
ag120
ag126
aS'64554442'
p405
aS'66433883'
p406
aS'41585485'
p407
aS'19540225'
p408
ag106
ag72
ag121
aS'67817269'
p409
aS'34765676'
p410
ag226
aS'3707829'
p411
aS'3474870'
p412
ag212
ag163
ag250
aS'15902055'
p413
ag246
ag369
aS'23652927'
p414
aS'78136904'
p415
ag322
aS'53585410'
p416
ag146
aS'12077419'
p417
ag85
aS'88596522'
p418
ag341
ag124
aS'44828429'
p419
asg31
I1000
sg32
S'Algoritmen en complexiteit'
p420
sg34
g35
sg36
I0
sg37
(iread_data
Room
p421
(dp422
g31
g261
sg32
g262
sbsba(ischedule
Activity
p423
(dp424
g8
(lp425
g127
aS'23547619'
p426
ag94
aS'68601184'
p427
aS'50184318'
p428
ag231
ag197
aS'54310617'
p429
aS'86000192'
p430
ag183
aS'64228258'
p431
ag22
aS'35330349'
p432
aS'64393888'
p433
ag224
asg31
S'20'
p434
sg32
S'Collectieve Intelligentie'
p435
sg34
g111
sg36
g347
sg37
(iread_data
Room
p436
(dp437
g31
g280
sg32
g281
sbsba(ischedule
Activity
p438
(dp439
g8
(lp440
g20
aS'51741554'
p441
aS'59075181'
p442
aS'59887191'
p443
aS'9731271'
p444
ag99
aS'4709948'
p445
aS'25557516'
p446
aS'535689'
p447
ag368
aS'38499176'
p448
aS'5590289'
p449
aS'72586808'
p450
ag228
aS'63573738'
p451
asg31
g324
sg32
g325
sg34
g111
sg36
g112
sg37
(iread_data
Room
p452
(dp453
g31
g66
sg32
g67
sbsba(ischedule
Activity
p454
(dp455
g8
g284
sg31
I1000
sg32
g297
sg34
g35
sg36
I0
sg37
(iread_data
Room
p456
(dp457
g31
g115
sg32
g116
sbsba(ischedule
Activity
p458
(dp459
g8
(lp460
S'12782624'
p461
aS'33776961'
p462
aS'51791169'
p463
aS'7492204'
p464
ag207
ag248
ag321
aS'47982619'
p465
aS'37279234'
p466
aS'10702778'
p467
aS'31416266'
p468
ag82
ag26
aS'34262212'
p469
ag134
aS'92778619'
p470
aS'34900967'
p471
ag128
aS'94955328'
p472
asg31
g345
sg32
g346
sg34
g111
sg36
S'5'
p473
sg37
(iread_data
Room
p474
(dp475
g31
g219
sg32
g220
sbsbaa(lp476
(ischedule
Activity
p477
(dp478
g8
(lp479
S'98780382'
p480
ag270
aS'87314964'
p481
aS'93023961'
p482
aS'81022997'
p483
ag81
aS'19337738'
p484
ag90
ag343
asg31
S'10'
p485
sg32
S'Data Mining'
p486
sg34
g62
sg36
g63
sg37
(iread_data
Room
p487
(dp488
g31
g261
sg32
g262
sbsba(ischedule
Activity
p489
(dp490
g8
(lp491
g108
ag268
ag242
ag257
ag274
ag124
ag140
ag225
ag125
asg31
S'10'
p492
sg32
g277
sg34
g62
sg36
g112
sg37
(iread_data
Room
p493
(dp494
g31
g219
sg32
g220
sbsba(ischedule
Activity
p495
(dp496
g8
(lp497
g153
aS'33760909'
p498
ag291
ag127
ag359
aS'34773179'
p499
ag48
ag426
aS'9332762'
p500
ag54
ag372
ag94
ag226
aS'46052388'
p501
aS'42171678'
p502
ag427
ag295
ag403
ag175
ag428
ag87
ag99
ag30
ag231
aS'53107172'
p503
aS'57595888'
p504
ag224
ag197
aS'17575088'
p505
aS'73980360'
p506
ag169
ag429
aS'1075391'
p507
ag180
aS'29474737'
p508
ag430
ag147
ag144
aS'96104167'
p509
ag183
aS'13534377'
p510
ag468
ag316
ag59
ag98
ag134
aS'22699561'
p511
ag431
aS'37770881'
p512
ag132
ag441
ag22
ag413
ag323
aS'87758823'
p513
ag432
ag138
ag254
aS'42778953'
p514
ag433
ag333
asg31
I1000
sg32
g435
sg34
g35
sg36
I0
sg37
(iread_data
Room
p515
(dp516
g31
g280
sg32
g281
sbsba(ischedule
Activity
p517
(dp518
g8
(lp519
S'87900893'
p520
aS'25330192'
p521
ag245
aS'66122625'
p522
ag226
aS'13996448'
p523
ag45
aS'68360259'
p524
aS'59753700'
p525
asg31
S'10'
p526
sg32
g486
sg34
g111
sg36
g112
sg37
(iread_data
Room
p527
(dp528
g31
g115
sg32
g116
sbsba(ischedule
Activity
p529
(dp530
g8
(lp531
S'48678993'
p532
aS'84449005'
p533
aS'87602030'
p534
aS'88737765'
p535
aS'14179347'
p536
ag51
ag83
ag207
aS'41644639'
p537
aS'14398123'
p538
ag129
aS'41578612'
p539
asg31
S'15'
p540
sg32
S'Project Genetic Algorithms'
p541
sg34
g111
sg36
g112
sg37
(iread_data
Room
p542
(dp543
g31
g66
sg32
g67
sbsba(ischedule
Activity
p544
(dp545
g8
(lp546
S'7106649'
p547
ag273
aS'58736785'
p548
ag340
ag377
aS'1886996'
p549
aS'72652638'
p550
ag145
ag392
ag233
ag149
ag410
aS'31897288'
p551
ag57
asg31
S'20'
p552
sg32
S'Heuristieken 2'
p553
sg34
g62
sg36
g63
sg37
(iread_data
Room
p554
(dp555
g31
g192
sg32
g193
sbsba(ischedule
Activity
p556
(dp557
g8
(lp558
g236
ag240
aS'74361881'
p559
aS'99272880'
p560
ag162
ag15
ag447
aS'71839156'
p561
aS'55103073'
p562
aS'65675896'
p563
ag448
aS'1695839'
p564
aS'63634350'
p565
asg31
S'15'
p566
sg32
S'Compilerbouw practicum'
p567
sg34
g111
sg36
g326
sg37
(iread_data
Room
p568
(dp569
g31
g40
sg32
g41
sbsbaa(lp570
(ischedule
Activity
p571
(dp572
g8
(lp573
S'15911353'
p574
ag353
aS'44391517'
p575
ag354
ag417
ag355
ag14
ag287
ag242
ag356
aS'66701209'
p576
ag357
aS'13911001'
p577
ag98
aS'1766560'
p578
ag125
aS'2317551'
p579
ag358
aS'79033175'
p580
ag359
aS'43689934'
p581
ag360
ag52
ag361
ag121
ag55
ag205
ag258
aS'95007221'
p582
ag362
aS'75759231'
p583
ag160
ag237
ag363
ag512
ag364
ag318
ag365
ag174
ag366
ag134
ag367
ag377
ag368
ag200
ag369
aS'3407554'
p584
ag140
ag202
ag370
aS'79167252'
p585
ag105
aS'80135353'
p586
ag59
aS'76802764'
p587
ag371
aS'5595824'
p588
ag372
ag514
ag373
ag51
ag374
ag139
ag375
ag249
ag376
aS'34110913'
p589
ag198
ag86
asg31
I1000
sg32
g379
sg34
g35
sg36
I0
sg37
(iread_data
Room
p590
(dp591
g31
g115
sg32
g116
sbsba(ischedule
Activity
p592
(dp593
g8
(lp594
S'75997788'
p595
ag46
ag415
ag291
ag182
ag178
aS'86807027'
p596
aS'62613937'
p597
ag289
aS'70844780'
p598
aS'72665524'
p599
asg31
S'10'
p600
sg32
S'Advanced Heuristics'
p601
sg34
g111
sg36
g63
sg37
g278
sba(ischedule
Activity
p602
(dp603
g8
(lp604
g57
ag124
ag13
ag54
aS'91196968'
p605
ag12
aS'45414528'
p606
aS'97136582'
p607
aS'99453514'
p608
ag226
asg31
g485
sg32
g486
sg34
g62
sg36
g326
sg37
(iread_data
Room
p609
(dp610
g31
g66
sg32
g67
sbsba(ischedule
Activity
p611
(dp612
g8
(lp613
g233
aS'10698627'
p614
aS'14303208'
p615
ag333
ag431
aS'2416751'
p616
aS'69459473'
p617
ag100
ag153
aS'1137946'
p618
aS'27064249'
p619
aS'49908313'
p620
ag152
aS'57086672'
p621
aS'24891081'
p622
aS'5615125'
p623
aS'76648468'
p624
ag319
aS'41790793'
p625
aS'14847953'
p626
asg31
S'20'
p627
sg32
S'Webprogrammeren en databases'
p628
sg34
g62
sg36
g112
sg37
g304
sba(ischedule
Activity
p629
(dp630
g8
(lp631
g480
ag481
ag482
ag483
ag81
ag484
ag90
ag343
asg31
g526
sg32
g486
sg34
g111
sg36
g63
sg37
(iread_data
Room
p632
(dp633
g31
g40
sg32
g41
sbsba(ischedule
Activity
p634
(dp635
g8
(lp636
g17
ag22
ag323
ag596
ag595
ag141
ag80
ag185
ag293
ag28
aS'76393508'
p637
ag551
aS'45660925'
p638
ag296
aS'53775014'
p639
aS'14941752'
p640
ag151
ag94
aS'79879876'
p641
aS'97417002'
p642
ag225
ag376
ag442
ag96
ag522
aS'20830477'
p643
ag240
ag548
aS'94930277'
p644
ag29
ag161
ag245
ag270
ag503
aS'81218347'
p645
ag502
ag341
aS'4353500'
p646
aS'83443653'
p647
ag561
aS'97019450'
p648
aS'87210640'
p649
ag269
ag396
asg31
I1000
sg32
S'Heuristieken 1'
p650
sg34
g35
sg36
I0
sg37
(iread_data
Room
p651
(dp652
g31
g261
sg32
g262
sbsba(ischedule
Activity
p653
(dp654
g8
(lp655
g83
ag270
ag271
ag273
ag187
ag276
ag183
asg31
g492
sg32
g277
sg34
g62
sg36
g326
sg37
(iread_data
Room
p656
(dp657
g31
g219
sg32
g220
sbsbaaa(lp658
(lp659
(ischedule
Activity
p660
(dp661
g8
(lp662
g386
ag388
ag389
ag208
ag257
ag131
ag141
ag393
ag236
ag179
ag394
ag395
ag397
ag251
ag138
ag167
asg31
g60
sg32
g61
sg34
g62
sg36
g112
sg37
g278
sba(ischedule
Activity
p663
(dp664
g8
(lp665
g574
ag575
ag417
ag14
ag242
ag576
ag577
ag578
ag579
ag580
ag581
ag52
ag121
ag205
ag582
ag583
ag237
ag512
ag318
ag174
ag134
ag377
ag200
ag584
ag202
ag585
ag586
ag587
ag588
ag514
ag51
ag139
ag249
ag589
ag86
asg31
S'40'
p666
sg32
g379
sg34
g62
sg36
g112
sg37
g298
sba(ischedule
Activity
p667
(dp668
g8
(lp669
g520
ag480
ag57
ag521
ag270
ag124
ag245
ag481
ag13
ag522
ag482
ag54
ag226
ag483
ag605
ag523
ag81
ag12
ag45
ag484
ag606
ag524
ag90
ag607
ag525
ag343
ag608
asg31
I1000
sg32
g486
sg34
g35
sg36
I0
sg37
(iread_data
Room
p670
(dp671
g31
g261
sg32
g262
sbsba(ischedule
Activity
p672
(dp673
g8
(lp674
g233
aS'39230359'
p675
ag644
ag163
ag614
ag55
ag615
ag334
ag333
aS'76903244'
p676
ag431
ag142
ag616
aS'53512831'
p677
ag617
ag369
ag100
ag75
ag153
ag291
ag618
ag244
ag619
aS'16333449'
p678
ag620
ag626
ag152
aS'67073567'
p679
ag621
ag412
ag622
aS'66034145'
p680
ag623
aS'20618153'
p681
ag624
aS'6249823'
p682
ag319
aS'28358060'
p683
ag625
asg31
I1000
sg32
g628
sg34
g35
sg36
I0
sg37
(iread_data
Room
p684
(dp685
g31
g192
sg32
g193
sbsba(ischedule
Activity
p686
(dp687
g8
(lp688
g272
ag403
ag79
ag54
ag404
ag232
ag120
ag405
ag407
ag106
ag410
ag411
ag212
ag250
ag246
ag414
ag322
ag146
ag85
ag341
ag419
ag147
ag413
asg31
S'25'
p689
sg32
g420
sg34
g111
sg36
g112
sg37
(iread_data
Room
p690
(dp691
g31
g66
sg32
g67
sbsba(ischedule
Activity
p692
(dp693
g8
(lp694
g209
aS'40911986'
p695
ag363
ag104
aS'19214659'
p696
aS'12430748'
p697
aS'6939933'
p698
aS'32044893'
p699
ag640
ag98
aS'90103047'
p700
ag180
aS'21070547'
p701
ag258
ag123
asg31
S'15'
p702
sg32
S'Project Numerical Recipes'
p703
sg34
g111
sg36
g112
sg37
(iread_data
Room
p704
(dp705
g31
g115
sg32
g116
sbsbaa(lp706
(ischedule
Activity
p707
(dp708
g8
(lp709
g498
ag499
ag54
ag501
ag403
ag99
ag504
ag506
ag180
ag144
ag468
ag132
ag323
ag254
asg31
g434
sg32
g435
sg34
g111
sg36
g63
sg37
g590
sba(ischedule
Activity
p710
(dp711
g8
g385
sg31
I1000
sg32
g61
sg34
g35
sg36
I0
sg37
g304
sba(ischedule
Activity
p712
(dp713
g8
g674
sg31
I1000
sg32
g628
sg34
g35
sg36
I0
sg37
(iread_data
Room
p714
(dp715
g31
g219
sg32
g220
sbsba(ischedule
Activity
p716
(dp717
g8
(lp718
g22
ag596
ag185
ag28
ag551
ag296
ag640
ag94
ag642
ag376
ag96
ag643
ag548
ag29
ag245
ag503
ag502
ag646
ag561
ag649
ag396
ag522
ag270
ag595
ag80
asg31
S'25'
p719
sg32
g650
sg34
g62
sg36
g63
sg37
(iread_data
Room
p720
(dp721
g31
g40
sg32
g41
sbsba(ischedule
Activity
p722
(dp723
g8
(lp724
g407
aS'37498675'
p725
aS'38329455'
p726
ag201
aS'44940353'
p727
ag213
ag46
aS'47462856'
p728
ag442
ag645
ag429
aS'39919665'
p729
ag59
ag464
ag131
ag356
ag565
aS'32705005'
p730
ag256
ag377
ag238
ag538
ag444
aS'79858178'
p731
ag103
ag97
ag605
ag675
aS'28957789'
p732
ag168
ag392
aS'97371272'
p733
ag250
ag648
ag214
aS'78735049'
p734
aS'47605891'
p735
ag337
aS'91139627'
p736
ag242
ag104
ag175
ag355
ag20
ag207
aS'74182182'
p737
ag82
ag448
aS'10872825'
p738
aS'39659121'
p739
ag293
aS'51186803'
p740
ag10
ag469
aS'65003379'
p741
ag72
ag197
aS'20239127'
p742
ag560
aS'79366078'
p743
ag623
ag322
aS'69086548'
p744
aS'24875739'
p745
ag396
aS'82688900'
p746
aS'23391676'
p747
aS'63408522'
p748
aS'76924297'
p749
ag341
aS'46570285'
p750
ag141
ag159
aS'54569540'
p751
ag27
ag200
ag368
ag107
ag343
ag209
ag415
aS'63955238'
p752
aS'72547110'
p753
ag472
asg31
I1000
sg32
S'Kansrekenen 2'
p754
sg34
g35
sg36
I0
sg37
(iread_data
Room
p755
(dp756
g31
g66
sg32
g67
sbsba(ischedule
Activity
p757
(dp758
g8
(lp759
g574
ag575
ag417
ag14
ag242
ag576
ag577
ag578
ag579
ag580
ag581
ag52
ag121
ag205
ag582
ag583
ag237
ag512
ag318
ag174
ag134
ag584
ag202
ag585
ag586
ag587
ag588
ag514
ag139
ag249
ag589
ag86
ag287
ag140
ag125
ag198
asg31
g378
sg32
g379
sg34
g111
sg36
g112
sg37
(iread_data
Room
p760
(dp761
g31
g280
sg32
g281
sbsbaa(lp762
(ischedule
Activity
p763
(dp764
g8
(lp765
g10
ag320
ag168
ag728
ag578
ag462
ag24
ag86
ag246
ag100
ag144
aS'27241113'
p766
aS'51650744'
p767
ag208
ag22
aS'36527838'
p768
ag183
aS'58699305'
p769
ag203
aS'66621166'
p770
ag428
aS'18144425'
p771
aS'96082155'
p772
ag595
ag353
ag253
aS'41489515'
p773
ag129
ag502
ag287
aS'1181560'
p774
aS'13218321'
p775
aS'59111489'
p776
ag89
ag362
aS'49219163'
p777
ag53
ag169
ag750
ag50
ag233
ag577
aS'78544592'
p778
ag14
ag58
ag533
ag339
ag120
aS'48198668'
p779
ag445
ag171
aS'27916487'
p780
ag151
ag167
asg31
I1000
sg32
S'Moderne Databases'
p781
sg34
g35
sg36
I0
sg37
g590
sba(ischedule
Activity
p782
(dp783
g8
(lp784
g498
ag499
ag54
ag501
ag403
ag99
ag504
ag506
ag180
ag468
ag134
ag132
ag323
ag254
ag138
asg31
S'20'
p785
sg32
g435
sg34
g62
sg36
g63
sg37
(iread_data
Room
p786
(dp787
g31
g66
sg32
g67
sbsba(ischedule
Activity
p788
(dp789
g8
(lp790
g539
aS'87830198'
p791
ag243
ag742
aS'60661905'
p792
ag176
ag234
aS'36785409'
p793
aS'20095994'
p794
ag215
ag225
aS'42406214'
p795
ag395
ag188
ag391
ag237
asg31
S'20'
p796
sg32
S'Reflectie op de digitale cultuur'
p797
sg34
g62
sg36
g112
sg37
(iread_data
Room
p798
(dp799
g31
g192
sg32
g193
sbsba(ischedule
Activity
p800
(dp801
g8
(lp802
g341
aS'19058315'
p803
ag48
ag150
ag177
ag232
ag607
aS'12170832'
p804
ag29
ag521
ag81
ag185
ag361
aS'64246605'
p805
ag538
ag532
ag49
ag147
asg31
g324
sg32
g325
sg34
g111
sg36
g63
sg37
(iread_data
Room
p806
(dp807
g31
g280
sg32
g281
sbsba(ischedule
Activity
p808
(dp809
g8
(lp810
S'34691309'
p811
ag181
aS'32183908'
p812
ag336
ag256
ag523
ag241
ag289
aS'37419523'
p813
ag392
aS'19662602'
p814
ag737
ag451
ag365
ag596
ag514
asg31
g702
sg32
g703
sg34
g111
sg36
g326
sg37
(iread_data
Room
p815
(dp816
g31
g40
sg32
g41
sbsbaa(lp817
(ischedule
Activity
p818
(dp819
g8
(lp820
g121
ag123
ag125
ag127
ag129
ag131
ag133
ag135
ag137
ag139
ag141
ag143
ag145
ag147
ag148
ag150
ag152
ag154
ag156
ag158
ag159
ag161
ag163
ag165
ag167
ag169
ag171
ag173
ag175
ag177
ag179
ag181
ag183
ag185
ag187
ag10
asg31
S'40'
p821
sg32
g189
sg34
g62
sg36
g63
sg37
(iread_data
Room
p822
(dp823
g31
g115
sg32
g116
sbsba(ischedule
Activity
p824
(dp825
g8
(lp826
g224
ag187
ag225
ag226
ag207
ag227
ag228
ag229
ag230
ag231
ag232
ag233
ag234
ag235
ag236
ag237
ag238
ag239
ag240
ag241
ag242
ag243
ag244
ag245
ag246
ag247
ag248
ag249
ag250
ag251
ag252
ag253
ag254
ag255
ag256
ag257
ag258
asg31
S'40'
p827
sg32
g110
sg34
g62
sg36
g63
sg37
(iread_data
Room
p828
(dp829
g31
g280
sg32
g281
sbsba(ischedule
Activity
p830
(dp831
g8
(lp832
g120
ag122
ag124
ag126
ag128
ag130
ag132
ag134
ag136
ag138
ag140
ag142
ag144
ag146
ag26
ag149
ag151
ag153
ag155
ag157
ag99
ag160
ag162
ag164
ag166
ag168
ag170
ag172
ag174
ag176
ag178
ag180
ag182
ag184
ag186
ag188
asg31
g821
sg32
g189
sg34
g62
sg36
g112
sg37
(iread_data
Room
p833
(dp834
g31
g40
sg32
g41
sbsba(ischedule
Activity
p835
(dp836
g8
(lp837
g71
ag72
ag73
ag74
ag75
ag76
ag77
ag78
ag79
ag80
ag81
ag82
ag83
ag84
ag85
ag86
ag87
ag88
ag89
ag90
ag91
ag92
ag93
ag94
ag95
ag96
ag97
ag98
ag99
ag100
ag101
ag102
ag103
ag104
ag105
ag106
ag107
ag108
asg31
g827
sg32
g110
sg34
g62
sg36
g112
sg37
(iread_data
Room
p838
(dp839
g31
g261
sg32
g262
sbsba(ischedule
Activity
p840
(dp841
g8
(lp842
g57
ag124
ag13
ag54
ag605
ag12
ag606
ag607
ag608
ag270
asg31
g526
sg32
g486
sg34
g111
sg36
g326
sg37
(iread_data
Room
p843
(dp844
g31
g66
sg32
g67
sbsbaa(lp845
(ischedule
Activity
p846
(dp847
g8
(lp848
g10
ag728
ag24
ag100
ag767
ag768
ag203
ag771
ag353
ag129
ag774
ag89
ag53
ag50
ag778
ag533
ag779
ag780
ag22
ag428
asg31
S'20'
p849
sg32
g781
sg34
g62
sg36
g112
sg37
g609
sba(ischedule
Activity
p850
(dp851
g8
(lp852
g320
ag578
ag86
ag144
ag208
ag770
ag772
ag253
ag502
ag775
ag362
ag169
ag233
ag14
ag339
ag445
ag151
ag58
ag167
asg31
S'20'
p853
sg32
g781
sg34
g111
sg36
g63
sg37
g590
sba(ischedule
Activity
p854
(dp855
g8
(lp856
g47
ag11
ag76
ag147
ag185
ag126
ag406
ag408
ag409
ag226
ag412
ag163
ag413
ag369
ag415
ag416
ag417
ag418
ag124
ag212
ag79
ag120
ag272
ag121
asg31
S'25'
p857
sg32
g420
sg34
g62
sg36
g63
sg37
(iread_data
Room
p858
(dp859
g31
g280
sg32
g281
sbsba(ischedule
Activity
p860
(dp861
g8
(lp862
g342
ag183
ag276
ag235
ag514
ag513
ag468
aS'90743504'
p863
ag138
aS'26172512'
p864
aS'23565001'
p865
ag149
ag605
ag130
ag82
aS'34588570'
p866
ag412
ag103
aS'54074680'
p867
aS'80998260'
p868
ag74
ag158
ag286
ag678
ag83
ag96
ag123
aS'55412918'
p869
aS'21311067'
p870
ag387
ag90
aS'66570705'
p871
ag645
ag432
ag396
ag737
ag155
ag539
ag271
ag561
ag365
ag273
aS'96118484'
p872
ag472
aS'79937969'
p873
ag368
aS'16011419'
p874
ag448
ag285
aS'37399898'
p875
ag768
ag134
aS'32595335'
p876
ag318
asg31
I1000
sg32
S'Lineaire Algebra'
p877
sg34
g35
sg36
I0
sg37
(iread_data
Room
p878
(dp879
g31
g219
sg32
g220
sbsba(ischedule
Activity
p880
(dp881
g8
(lp882
g599
aS'70939718'
p883
aS'16912993'
p884
ag646
ag182
ag483
ag364
ag791
ag389
aS'53267490'
p885
ag373
ag598
ag289
ag157
ag57
ag186
ag372
asg31
g324
sg32
g325
sg34
g111
sg36
g347
sg37
(iread_data
Room
p886
(dp887
g31
g192
sg32
g193
sbsba(ischedule
Activity
p888
(dp889
g8
g724
sg31
I1000
sg32
g754
sg34
g35
sg36
I0
sg37
(iread_data
Room
p890
(dp891
g31
g40
sg32
g41
sbsba(ischedule
Activity
p892
(dp893
g8
(lp894
g520
ag521
ag245
ag522
ag523
ag45
ag524
ag525
asg31
g485
sg32
g486
sg34
g62
sg36
g112
sg37
(iread_data
Room
p895
(dp896
g31
g261
sg32
g262
sbsbaaa(lp897
(lp898
(ischedule
Activity
p899
(dp900
g8
(lp901
g353
ag354
ag355
ag287
ag356
ag357
ag98
ag125
ag358
ag359
ag360
ag361
ag55
ag258
ag362
ag160
ag363
ag364
ag365
ag366
ag367
ag368
ag369
ag140
ag370
ag105
ag59
ag371
ag372
ag373
ag374
ag375
ag376
ag198
asg31
g666
sg32
g379
sg34
g62
sg36
g63
sg37
g590
sba(ischedule
Activity
p902
(dp903
g8
(lp904
g294
ag547
ag621
ag273
ag565
ag548
ag204
ag340
ag498
ag124
ag333
ag377
aS'35315956'
p905
ag549
ag534
ag550
aS'99975346'
p906
ag532
aS'82968410'
p907
ag483
ag132
ag145
ag57
ag392
aS'58040377'
p908
ag233
aS'52304977'
p909
ag149
ag85
ag410
aS'5739011'
p910
ag551
asg31
I1000
sg32
g553
sg34
g35
sg36
I0
sg37
(iread_data
Room
p911
(dp912
g31
g40
sg32
g41
sbsba(ischedule
Activity
p913
(dp914
g8
(lp915
S'4697362'
p916
aS'77264363'
p917
aS'21192048'
p918
ag84
ag29
aS'76487754'
p919
ag27
ag14
ag697
ag22
ag682
ag733
aS'92496780'
p920
ag417
ag58
ag15
ag286
ag744
ag152
asg31
S'20'
p921
sg32
S'Technology for games'
p922
sg34
g62
sg36
g112
sg37
(iread_data
Room
p923
(dp924
g31
g219
sg32
g220
sbsba(ischedule
Activity
p925
(dp926
g8
(lp927
g539
ag699
ag180
ag791
ag121
ag875
ag243
ag17
aS'27805666'
p928
ag53
aS'68286356'
p929
aS'27370083'
p930
ag742
ag598
ag270
ag792
ag319
aS'51052738'
p931
ag176
ag144
ag462
ag234
ag182
ag906
ag793
aS'70193386'
p932
aS'49922855'
p933
ag794
ag445
aS'51415617'
p934
ag215
ag415
ag525
ag533
ag621
ag470
ag225
ag201
ag377
ag795
ag237
ag209
ag395
aS'36213792'
p935
ag76
ag188
ag393
aS'82390428'
p936
ag391
ag608
ag751
asg31
I1000
sg32
g797
sg34
g35
sg36
I0
sg37
(iread_data
Room
p937
(dp938
g31
g261
sg32
g262
sbsba(ischedule
Activity
p939
(dp940
g8
(lp941
S'82066165'
p942
ag599
ag537
ag226
ag416
aS'47260040'
p943
aS'14383795'
p944
ag577
aS'5892092'
p945
ag296
aS'91250534'
p946
ag127
aS'51673172'
p947
aS'42297781'
p948
asg31
g566
sg32
g567
sg34
g111
sg36
g112
sg37
(iread_data
Room
p949
(dp950
g31
g66
sg32
g67
sbsbaa(lp951
(ischedule
Activity
p952
(dp953
g8
g669
sg31
I1000
sg32
g486
sg34
g35
sg36
I0
sg37
(iread_data
Room
p954
(dp955
g31
g219
sg32
g220
sbsba(ischedule
Activity
p956
(dp957
g8
(lp958
g17
ag323
ag293
ag637
ag638
ag639
ag151
ag641
ag225
ag442
ag240
ag644
ag161
ag645
ag341
ag647
ag648
ag269
ag141
asg31
g719
sg32
g650
sg34
g62
sg36
g112
sg37
(iread_data
Room
p959
(dp960
g31
g40
sg32
g41
sbsba(ischedule
Activity
p961
(dp962
g8
(lp963
g730
ag416
aS'31306819'
p964
ag596
ag498
aS'55530367'
p965
ag595
aS'72526473'
p966
ag272
ag413
ag286
ag393
ag769
ag239
ag585
ag357
ag156
ag248
aS'53139134'
p967
aS'10609762'
p968
aS'23628642'
p969
ag120
ag615
ag273
ag170
ag130
ag698
aS'11593163'
p970
ag52
ag230
ag18
ag387
ag431
aS'61520025'
p971
ag316
asg31
S'40'
p972
sg32
S'Calculus 2'
p973
sg34
g62
sg36
g326
sg37
(iread_data
Room
p974
(dp975
g31
g280
sg32
g281
sbsba(ischedule
Activity
p976
(dp977
g8
g497
sg31
I1000
sg32
g435
sg34
g35
sg36
I0
sg37
(iread_data
Room
p978
(dp979
g31
g66
sg32
g67
sbsba(ischedule
Activity
p980
(dp981
g8
(lp982
g623
ag294
ag865
ag315
ag565
aS'80188025'
p983
ag520
ag215
ag166
aS'34173695'
p984
aS'19717077'
p985
ag778
aS'22168693'
p986
ag466
ag229
ag386
ag178
ag534
ag908
ag247
aS'33672995'
p987
ag200
ag58
ag79
ag619
aS'81155296'
p988
ag441
aS'79888156'
p989
ag536
aS'56544130'
p990
ag160
aS'59220392'
p991
ag251
ag883
ag181
asg31
g972
sg32
g973
sg34
g62
sg36
g63
sg37
(iread_data
Room
p992
(dp993
g31
g261
sg32
g262
sbsba(ischedule
Activity
p994
(dp995
g8
(lp996
g339
aS'6709529'
p997
ag332
ag50
ag869
ag444
ag337
ag212
ag155
ag287
aS'58253841'
p998
aS'56348773'
p999
ag355
ag732
aS'75446434'
p1000
ag734
ag94
aS'75623387'
p1001
aS'65978354'
p1002
ag396
aS'77306636'
p1003
ag430
ag745
aS'93361408'
p1004
ag89
ag164
aS'82412626'
p1005
ag128
ag737
ag161
aS'38179241'
p1006
ag374
ag131
ag750
ag599
ag80
asg31
g972
sg32
g973
sg34
g62
sg36
g112
sg37
(iread_data
Room
p1007
(dp1008
g31
g115
sg32
g116
sbsbaa(lp1009
(ischedule
Activity
p1010
(dp1011
g8
(lp1012
g153
ag359
ag500
ag226
ag295
ag87
ag503
ag505
ag507
ag147
ag510
ag98
ag512
ag413
ag138
ag333
asg31
g434
sg32
g435
sg34
g111
sg36
g112
sg37
g609
sba(ischedule
Activity
p1013
(dp1014
g8
(lp1015
g180
ag875
ag928
ag930
ag270
ag931
ag462
ag906
ag933
ag934
ag525
ag470
ag377
ag209
ag76
ag936
ag751
ag53
ag533
asg31
g796
sg32
g797
sg34
g62
sg36
g326
sg37
g278
sba(ischedule
Activity
p1016
(dp1017
g8
(lp1018
g471
ag595
ag865
ag162
ag621
ag390
ag368
ag983
ag239
ag158
ag129
ag792
ag648
ag990
ag793
aS'82854435'
p1019
ag186
ag588
ag472
ag388
aS'18477924'
p1020
ag932
ag450
aS'58480929'
p1021
ag103
ag647
ag234
ag128
ag159
ag225
ag535
ag539
aS'14637758'
p1022
ag214
aS'73350019'
p1023
ag20
aS'78822885'
p1024
ag597
ag80
aS'97838175'
p1025
ag532
ag987
ag175
ag132
ag90
ag88
ag273
ag58
ag791
asg31
I1000
sg32
S'Analysemethoden en -technieken'
p1026
sg34
g35
sg36
I0
sg37
(iread_data
Room
p1027
(dp1028
g31
g192
sg32
g193
sbsba(ischedule
Activity
p1029
(dp1030
g8
(lp1031
g267
ag269
ag29
ag45
ag272
ag125
ag275
asg31
S'10'
p1032
sg32
g277
sg34
g111
sg36
g63
sg37
(iread_data
Room
p1033
(dp1034
g31
g115
sg32
g116
sbsba(ischedule
Activity
p1035
(dp1036
g8
(lp1037
g372
ag416
ag393
ag54
ag747
ag203
ag101
aS'64053722'
p1038
aS'63096281'
p1039
ag255
ag407
ag95
ag268
ag228
ag28
ag445
ag30
asg31
g345
sg32
g346
sg34
g111
sg36
g112
sg37
(iread_data
Room
p1040
(dp1041
g31
g40
sg32
g41
sbsba(ischedule
Activity
p1042
(dp1043
g8
(lp1044
g374
ag998
ag617
ag322
ag224
aS'25994016'
p1045
aS'75680261'
p1046
ag156
ag499
ag212
ag253
ag237
asg31
g540
sg32
g541
sg34
g111
sg36
g326
sg37
(iread_data
Room
p1047
(dp1048
g31
g261
sg32
g262
sbsba(ischedule
Activity
p1049
(dp1050
g8
(lp1051
g127
ag426
ag94
ag427
ag428
ag231
ag197
ag429
ag430
ag183
ag59
ag431
ag22
ag432
ag433
ag144
ag48
asg31
g785
sg32
g435
sg34
g62
sg36
g347
sg37
(iread_data
Room
p1052
(dp1053
g31
g219
sg32
g220
sbsbaa(lp1054
(ischedule
Activity
p1055
(dp1056
g8
(lp1057
g45
ag167
ag46
ag47
ag48
ag49
ag50
ag51
ag52
ag54
ag55
ag71
ag56
ag143
ag258
ag59
asg31
S'20'
p1058
sg32
g61
sg34
g111
sg36
g63
sg37
g298
sba(ischedule
Activity
p1059
(dp1060
g8
(lp1061
g675
ag163
ag55
ag334
ag676
ag142
ag677
ag369
ag75
ag291
ag244
ag678
ag626
ag679
ag412
ag680
ag681
ag682
ag683
asg31
S'20'
p1062
sg32
g628
sg34
g111
sg36
g63
sg37
g670
sba(ischedule
Activity
p1063
(dp1064
g8
(lp1065
g942
ag512
aS'55480737'
p1066
ag947
ag136
aS'40633534'
p1067
ag148
ag749
ag791
ag576
ag294
ag559
asg31
g540
sg32
g541
sg34
g111
sg36
g63
sg37
g304
sba(ischedule
Activity
p1068
(dp1069
g8
(lp1070
g465
ag944
ag270
ag539
aS'70336464'
p1071
ag245
ag151
ag500
ag361
ag547
aS'93041523'
p1072
ag127
ag53
ag86
ag104
ag426
ag367
ag365
ag793
asg31
g921
sg32
g922
sg34
g62
sg36
g63
sg37
(iread_data
Room
p1073
(dp1074
g31
g115
sg32
g116
sbsba(ischedule
Activity
p1075
(dp1076
g8
g196
sg31
I1000
sg32
g216
sg34
g35
sg36
I0
sg37
(iread_data
Room
p1077
(dp1078
g31
g40
sg32
g41
sbsba(ischedule
Activity
p1079
(dp1080
g8
(lp1081
g233
ag644
ag614
ag615
ag333
ag431
ag616
ag617
ag100
ag153
ag618
ag619
ag620
ag152
ag621
ag622
ag623
ag624
ag319
ag625
asg31
g1062
sg32
g628
sg34
g111
sg36
g112
sg37
(iread_data
Room
p1082
(dp1083
g31
g280
sg32
g281
sbsba(ischedule
Activity
p1084
(dp1085
g8
g9
sg31
I1000
sg32
g33
sg34
g35
sg36
I0
sg37
(iread_data
Room
p1086
(dp1087
g31
g66
sg32
g67
sbsbaa(lp1088
(ischedule
Activity
p1089
(dp1090
g8
(lp1091
g153
ag359
ag500
ag226
ag295
ag87
ag503
ag505
ag507
ag147
ag510
ag98
ag512
ag413
ag333
asg31
g785
sg32
g435
sg34
g62
sg36
g112
sg37
g278
sba(ischedule
Activity
p1092
(dp1093
g8
(lp1094
g291
ag372
ag502
ag175
ag30
ag224
ag169
ag508
ag509
ag316
ag511
ag441
ag513
ag514
asg31
g785
sg32
g435
sg34
g62
sg36
g326
sg37
(iread_data
Room
p1095
(dp1096
g31
g40
sg32
g41
sbsba(ischedule
Activity
p1097
(dp1098
g8
(lp1099
g11
ag13
ag15
ag17
ag19
ag21
ag23
ag25
ag27
ag29
ag18
asg31
S'15'
p1100
sg32
g33
sg34
g111
sg36
g63
sg37
g304
sba(ischedule
Activity
p1101
(dp1102
g8
g385
sg31
I1000
sg32
g61
sg34
g35
sg36
I0
sg37
(iread_data
Room
p1103
(dp1104
g31
g66
sg32
g67
sbsba(ischedule
Activity
p1105
(dp1106
g8
(lp1107
g336
ag749
ag696
aS'69634191'
p1108
aS'20374340'
p1109
ag988
ag1006
ag626
ag410
ag184
ag426
ag57
ag374
ag342
ag356
ag411
ag314
ag563
ag875
ag680
aS'28055464'
p1110
aS'64768422'
p1111
ag318
ag419
ag247
asg31
I1000
sg32
S'Interactie-ontwerp'
p1112
sg34
g35
sg36
I0
sg37
(iread_data
Room
p1113
(dp1114
g31
g115
sg32
g116
sbsba(ischedule
Activity
p1115
(dp1116
g8
(lp1117
g168
ag462
ag246
ag766
ag22
ag769
ag428
ag595
ag773
ag287
ag776
ag777
ag750
ag577
ag120
ag171
ag183
asg31
g853
sg32
g781
sg34
g111
sg36
g326
sg37
(iread_data
Room
p1118
(dp1119
g31
g261
sg32
g262
sbsba(ischedule
Activity
p1120
(dp1121
g8
(lp1122
g406
ag560
ag641
ag121
ag523
aS'73196865'
p1123
ag149
aS'88519892'
p1124
ag605
ag616
ag354
aS'39905995'
p1125
ag204
ag648
ag146
aS'54395877'
p1126
ag596
asg31
g345
sg32
g346
sg34
g111
sg36
S'6'
p1127
sg37
(iread_data
Room
p1128
(dp1129
g31
g219
sg32
g220
sbsbaaa(lp1130
(lp1131
(ischedule
Activity
p1132
(dp1133
g8
g497
sg31
I1000
sg32
g435
sg34
g35
sg36
I0
sg37
g1095
sba(ischedule
Activity
p1134
(dp1135
g8
g266
sg31
I1000
sg32
g277
sg34
g35
sg36
I0
sg37
g304
sba(ischedule
Activity
p1136
(dp1137
g8
(lp1138
g320
ag578
ag86
ag144
ag208
ag183
ag770
ag772
ag253
ag502
ag775
ag362
ag169
ag233
ag14
ag339
ag445
ag151
asg31
g849
sg32
g781
sg34
g62
sg36
g63
sg37
(iread_data
Room
p1139
(dp1140
g31
g219
sg32
g220
sbsba(ischedule
Activity
p1141
(dp1142
g8
(lp1143
g47
ag11
ag76
ag318
ag185
ag126
ag406
ag408
ag72
ag409
ag226
ag412
ag163
ag369
ag415
ag416
ag417
ag418
ag124
ag121
asg31
g689
sg32
g420
sg34
g111
sg36
g63
sg37
(iread_data
Room
p1144
(dp1145
g31
g66
sg32
g67
sbsba(ischedule
Activity
p1146
(dp1147
g8
(lp1148
g10
ag728
ag24
ag100
ag767
ag768
ag203
ag771
ag353
ag129
ag774
ag89
ag53
ag50
ag778
ag533
ag779
ag780
asg31
g853
sg32
g781
sg34
g111
sg36
g112
sg37
(iread_data
Room
p1149
(dp1150
g31
g115
sg32
g116
sbsba(ischedule
Activity
p1151
(dp1152
g8
(lp1153
g244
ag387
ag97
ag390
ag391
ag240
ag12
ag392
ag258
ag241
ag396
ag161
ag143
ag71
asg31
g60
sg32
g61
sg34
g62
sg36
g326
sg37
(iread_data
Room
p1154
(dp1155
g31
g280
sg32
g281
sbsba(ischedule
Activity
p1156
(dp1157
g8
(lp1158
g168
ag462
ag246
ag766
ag769
ag595
ag773
ag287
ag776
ag777
ag750
ag577
ag58
ag120
ag171
ag167
asg31
g849
sg32
g781
sg34
g62
sg36
g326
sg37
(iread_data
Room
p1159
(dp1160
g31
g261
sg32
g262
sbsbaa(lp1161
(ischedule
Activity
p1162
(dp1163
g8
(lp1164
g1067
ag595
ag599
ag46
aS'39429093'
p1165
ag415
ag549
ag291
ag426
ag182
ag288
ag178
ag619
ag596
ag626
ag597
ag143
ag370
ag598
ag289
asg31
I1000
sg32
g601
sg34
g35
sg36
I0
sg37
(iread_data
Room
p1166
(dp1167
g31
g280
sg32
g281
sbsba(ischedule
Activity
p1168
(dp1169
g8
g1107
sg31
I1000
sg32
g1112
sg34
g35
sg36
I0
sg37
(iread_data
Room
p1170
(dp1171
g31
g219
sg32
g220
sbsba(ischedule
Activity
p1172
(dp1173
g8
(lp1174
g916
ag465
ag917
ag944
ag918
ag270
ag84
ag539
ag29
ag1071
ag919
ag245
ag27
ag151
ag14
ag500
ag697
ag361
ag22
ag547
ag682
ag1072
ag733
ag127
ag920
ag53
ag417
ag152
ag58
ag86
ag793
ag104
ag15
ag426
ag286
ag367
ag744
ag365
asg31
I1000
sg32
g922
sg34
g35
sg36
I0
sg37
(iread_data
Room
p1175
(dp1176
g31
g66
sg32
g67
sbsba(ischedule
Activity
p1177
(dp1178
g8
(lp1179
g372
aS'63939720'
p1180
ag369
ag48
ag390
ag160
ag354
ag483
ag578
ag108
ag373
ag795
aS'81116418'
p1181
asg31
g702
sg32
g703
sg34
g111
sg36
g63
sg37
(iread_data
Room
p1182
(dp1183
g31
g115
sg32
g116
sbsba(ischedule
Activity
p1184
(dp1185
g8
g862
sg31
I1000
sg32
g877
sg34
g35
sg36
I0
sg37
(iread_data
Room
p1186
(dp1187
g31
g261
sg32
g262
sbsba(ischedule
Activity
p1188
(dp1189
g8
(lp1190
S'44151631'
p1191
ag584
ag76
aS'51472074'
p1192
ag403
ag241
ag21
ag615
ag504
ag418
aS'64418623'
p1193
ag1045
ag335
asg31
g566
sg32
g567
sg34
g111
sg36
g63
sg37
(iread_data
Room
p1194
(dp1195
g31
g40
sg32
g41
sbsbaa(lp1196
(ischedule
Activity
p1197
(dp1198
g8
(lp1199
g291
ag48
ag372
ag502
ag175
ag30
ag169
ag508
ag509
ag316
ag511
ag441
ag513
ag514
ag134
ag59
asg31
g434
sg32
g435
sg34
g111
sg36
g326
sg37
g278
sba(ischedule
Activity
p1200
(dp1201
g8
(lp1202
g71
ag224
ag72
ag187
ag73
ag225
ag74
ag226
ag75
ag207
ag76
ag227
ag77
ag228
ag78
ag229
ag79
ag230
ag80
ag231
ag81
ag232
ag82
ag233
ag83
ag234
ag84
ag235
ag85
ag236
ag86
ag237
ag87
ag238
ag88
ag239
ag89
ag240
ag90
ag241
ag91
ag242
ag92
ag243
ag93
ag244
ag94
ag245
ag95
ag246
ag96
ag247
ag97
ag248
ag98
ag249
ag99
ag250
ag100
ag251
ag101
ag252
ag102
ag253
ag103
ag254
ag104
ag255
ag105
ag256
ag106
ag257
ag107
ag258
ag108
asg31
I1000
sg32
g110
sg34
g35
sg36
I0
sg37
(iread_data
Room
p1203
(dp1204
g31
g115
sg32
g116
sbsba(ischedule
Activity
p1205
(dp1206
g8
(lp1207
g141
ag427
ag444
ag643
ag430
ag586
ag606
ag10
ag875
ag178
ag413
ag433
ag188
ag908
aS'28943658'
p1208
ag11
aS'88597745'
p1209
aS'88263855'
p1210
ag579
ag391
asg31
g345
sg32
g346
sg34
g111
sg36
g63
sg37
(iread_data
Room
p1211
(dp1212
g31
g66
sg32
g67
sbsba(ischedule
Activity
p1213
(dp1214
g8
(lp1215
g699
ag121
ag17
ag929
ag598
ag319
ag144
ag182
ag932
ag445
ag415
ag621
ag201
ag935
ag393
ag608
asg31
g796
sg32
g797
sg34
g62
sg36
g63
sg37
(iread_data
Room
p1216
(dp1217
g31
g40
sg32
g41
sbsba(ischedule
Activity
p1218
(dp1219
g8
g1174
sg31
I1000
sg32
g922
sg34
g35
sg36
I0
sg37
(iread_data
Room
p1220
(dp1221
g31
g192
sg32
g193
sbsba(ischedule
Activity
p1222
(dp1223
g8
(lp1224
g585
ag50
ag212
ag200
ag448
ag614
ag125
ag575
ag792
ag171
ag500
ag364
ag358
ag565
ag158
ag681
ag366
aS'7386961'
p1225
asg31
g345
sg32
g346
sg34
g111
sg36
g326
sg37
(iread_data
Room
p1226
(dp1227
g31
g261
sg32
g262
sbsbaa(lp1228
(ischedule
Activity
p1229
(dp1230
g8
(lp1231
g83
ag225
ag270
ag271
ag273
ag187
ag276
asg31
g1032
sg32
g277
sg34
g111
sg36
g326
sg37
g278
sba(ischedule
Activity
p1232
(dp1233
g8
g573
sg31
I1000
sg32
g379
sg34
g35
sg36
I0
sg37
g1095
sba(ischedule
Activity
p1234
(dp1235
g8
(lp1236
g267
ag269
ag29
ag45
ag272
ag275
asg31
g492
sg32
g277
sg34
g62
sg36
g63
sg37
(iread_data
Room
p1237
(dp1238
g31
g219
sg32
g220
sbsba(ischedule
Activity
p1239
(dp1240
g8
(lp1241
g57
ag386
ag388
ag389
ag208
ag257
ag131
ag141
ag393
ag236
ag179
ag394
ag395
ag397
ag251
asg31
g1058
sg32
g61
sg34
g111
sg36
g112
sg37
(iread_data
Room
p1242
(dp1243
g31
g115
sg32
g116
sbsba(ischedule
Activity
p1244
(dp1245
g8
(lp1246
g244
ag387
ag97
ag390
ag391
ag240
ag12
ag392
ag58
ag138
ag241
ag396
ag161
ag53
asg31
g1058
sg32
g61
sg34
g111
sg36
g326
sg37
(iread_data
Room
p1247
(dp1248
g31
g66
sg32
g67
sbsba(ischedule
Activity
p1249
(dp1250
g8
(lp1251
g294
ag621
ag565
ag204
ag498
ag333
ag905
ag534
ag906
ag907
ag132
ag908
ag909
ag85
ag910
ag483
ag532
ag124
asg31
g552
sg32
g553
sg34
g62
sg36
g112
sg37
(iread_data
Room
p1252
(dp1253
g31
g192
sg32
g193
sbsbaa(lp1254
(ischedule
Activity
p1255
(dp1256
g8
g927
sg31
I1000
sg32
g797
sg34
g35
sg36
I0
sg37
(iread_data
Room
p1257
(dp1258
g31
g66
sg32
g67
sbsba(ischedule
Activity
p1259
(dp1260
g8
(lp1261
g10
ag12
ag14
ag16
ag20
ag22
ag24
ag26
ag28
ag30
asg31
g1100
sg32
g33
sg34
g111
sg36
g112
sg37
(iread_data
Room
p1262
(dp1263
g31
g115
sg32
g116
sbsba(ischedule
Activity
p1264
(dp1265
g8
(lp1266
g339
ag623
ag730
ag997
ag294
ag416
ag332
ag865
ag964
ag50
ag315
ag596
ag869
ag565
ag498
ag444
ag983
ag965
ag337
ag520
ag595
ag212
ag215
ag966
ag155
ag166
ag272
ag287
ag984
ag413
ag998
ag985
ag286
ag999
ag778
ag393
ag355
ag986
ag769
ag732
ag466
ag239
ag1000
ag229
ag585
ag734
ag386
ag357
ag94
ag178
ag156
ag1001
ag534
ag248
ag1002
ag908
ag967
ag396
ag247
ag968
ag1003
ag987
ag969
ag430
ag200
ag120
ag745
ag58
ag615
ag1004
ag79
ag273
ag89
ag619
ag170
ag164
ag988
ag130
ag1005
ag441
ag698
ag128
ag989
ag970
ag737
ag536
ag52
ag161
ag990
ag230
ag1006
ag160
ag18
ag374
ag991
ag387
ag131
ag251
ag431
ag750
ag883
ag971
ag599
ag181
ag316
ag80
asg31
I1000
sg32
g973
sg34
g35
sg36
I0
sg37
(iread_data
Room
p1267
(dp1268
g31
g192
sg32
g193
sbsba(ischedule
Activity
p1269
(dp1270
g8
(lp1271
g675
ag163
ag55
ag334
ag676
ag142
ag677
ag369
ag75
ag291
ag244
ag678
ag679
ag412
ag680
ag681
ag682
ag683
ag644
asg31
g627
sg32
g628
sg34
g62
sg36
g63
sg37
(iread_data
Room
p1272
(dp1273
g31
g261
sg32
g262
sbsba(ischedule
Activity
p1274
(dp1275
g8
(lp1276
g403
ag54
ag404
ag232
ag405
ag407
ag106
ag410
ag411
ag250
ag246
ag414
ag322
ag146
ag85
ag341
ag419
ag318
ag72
asg31
g857
sg32
g420
sg34
g62
sg36
g112
sg37
(iread_data
Room
p1277
(dp1278
g31
g40
sg32
g41
sbsba(ischedule
Activity
p1279
(dp1280
g8
(lp1281
g1067
ag1165
ag549
ag426
ag288
ag619
ag626
ag143
ag370
asg31
g600
sg32
g601
sg34
g111
sg36
g112
sg37
(iread_data
Room
p1282
(dp1283
g31
g280
sg32
g281
sbsba(ischedule
Activity
p1284
(dp1285
g8
(lp1286
g108
ag268
ag242
ag257
ag183
ag274
ag124
ag140
asg31
g1032
sg32
g277
sg34
g111
sg36
g112
sg37
(iread_data
Room
p1287
(dp1288
g31
g219
sg32
g220
sbsbaaa(lp1289
(lp1290
a(lp1291
a(lp1292
a(lp1293
a(lp1294
aasS'timeslot_dict'
p1295
(dp1296
I0
S'9:00-11:00'
p1297
sI1
S'11:00-13:00'
p1298
sI2
S'13:00-15:00'
p1299
sI3
S'15:00-17:00'
p1300
sI4
S'17:00-19:00'
p1301
ssS'day_dict'
p1302
(dp1303
I0
S'Monday'
p1304
sI1
S'Tuesday'
p1305
sI2
S'Wednesday'
p1306
sI3
S'Thursday'
p1307
sI4
S'Friday'
p1308
ssb.