(ischedule
Schedule
p0
(dp1
S'timetable'
p2
(lp3
(lp4
(lp5
(ischedule
Activity
p6
(dp7
S'participants'
p8
(lp9
S'49683101'
p10
aS'10149535'
p11
aS'89180944'
p12
aS'14138904'
p13
aS'58866007'
p14
aS'72577292'
p15
aS'70015932'
p16
aS'72683344'
p17
aS'28618400'
p18
aS'13798030'
p19
aS'83266686'
p20
aS'82689818'
p21
aS'45556081'
p22
aS'34872117'
p23
aS'59289233'
p24
aS'40434933'
p25
aS'23798155'
p26
aS'20331158'
p27
aS'27925117'
p28
aS'29718115'
p29
aS'43460038'
p30
asS'capacity'
p31
I1000
sS'name'
p32
S'Architectuur en computerorganisatie'
p33
sS'ttype'
p34
S'lectures'
p35
sS'group_id'
p36
I0
sS'room'
p37
(iread_data
Room
p38
(dp39
g31
S'56'
p40
sg32
S'A1.10'
p41
sbsba(ischedule
Activity
p42
(dp43
g8
(lp44
S'12077419'
p45
aS'92496780'
p46
aS'31194811'
p47
aS'23547619'
p48
aS'93041523'
p49
aS'37110913'
p50
aS'68315599'
p51
ag11
aS'76487754'
p52
aS'21192048'
p53
aS'14383795'
p54
aS'58565406'
p55
aS'77636749'
p56
aS'26406342'
p57
aS'22323043'
p58
aS'75521763'
p59
aS'85335143'
p60
aS'47982619'
p61
aS'32204977'
p62
aS'97371272'
p63
asg31
S'20'
p64
sg32
S'Technology for games'
p65
sg34
S'tutorials'
p66
sg36
S'2'
p67
sg37
(iread_data
Room
p68
(dp69
g31
S'22'
p70
sg32
S'A1.06'
p71
sbsba(ischedule
Activity
p72
(dp73
g8
(lp74
S'75664412'
p75
aS'4697362'
p76
aS'11996292'
p77
aS'14309255'
p78
aS'7106649'
p79
aS'36785409'
p80
aS'43680781'
p81
aS'6249823'
p82
aS'44901052'
p83
aS'48308205'
p84
aS'9332762'
p85
aS'12430748'
p86
aS'77264363'
p87
ag25
aS'70336464'
p88
aS'41578612'
p89
aS'89338938'
p90
aS'69086548'
p91
asg31
g64
sg32
g65
sg34
g66
sg36
S'1'
p92
sg37
(iread_data
Room
p93
(dp94
g31
S'20'
p95
sg32
S'A1.08'
p96
sbsba(ischedule
Activity
p97
(dp98
g8
(lp99
S'96554914'
p100
aS'37399898'
p101
aS'27950803'
p102
aS'60352393'
p103
aS'22826928'
p104
aS'84524083'
p105
aS'36213792'
p106
aS'22871048'
p107
aS'68286356'
p108
aS'57086672'
p109
aS'51415617'
p110
aS'86988337'
p111
aS'61518436'
p112
aS'99453514'
p113
aS'54569540'
p114
aS'92778619'
p115
aS'3685034'
p116
aS'13718298'
p117
aS'42406214'
p118
aS'5298748'
p119
aS'99975346'
p120
aS'84449005'
p121
aS'6913074'
p122
aS'20095994'
p123
aS'51052738'
p124
aS'59753700'
p125
aS'77960666'
p126
aS'70193386'
p127
ag50
asg31
S'20'
p128
sg32
S'Reflectie op de digitale cultuur'
p129
sg34
g66
sg36
g92
sg37
(iread_data
Room
p130
(dp131
g31
S'41'
p132
sg32
S'A1.04'
p133
sbsba(ischedule
Activity
p134
(dp135
g8
(lp136
S'30050930'
p137
aS'66120270'
p138
aS'88176729'
p139
aS'11068043'
p140
aS'70878567'
p141
aS'96453361'
p142
aS'44868097'
p143
ag104
aS'20883994'
p144
aS'79617364'
p145
aS'28359697'
p146
aS'53202517'
p147
aS'64600457'
p148
aS'15051051'
p149
aS'7308727'
p150
aS'96054456'
p151
aS'21029457'
p152
asg31
S'20'
p153
sg32
S'Bioinformatica'
p154
sg34
S'labs'
p155
sg36
g67
sg37
(iread_data
Room
p156
(dp157
g31
S'48'
p158
sg32
S'B0.201'
p159
sbsba(ischedule
Activity
p160
(dp161
g8
(lp162
S'27370083'
p163
ag81
aS'70844780'
p164
aS'33776961'
p165
aS'24277163'
p166
aS'90474003'
p167
aS'27805666'
p168
aS'49922855'
p169
ag89
aS'38296757'
p170
asg31
g128
sg32
g129
sg34
g66
sg36
S'3'
p171
sg37
(iread_data
Room
p172
(dp173
g31
S'117'
p174
sg32
S'C0.110'
p175
sbsba(ischedule
Activity
p176
(dp177
g8
(lp178
S'6723948'
p179
aS'21964491'
p180
aS'3168419'
p181
aS'247918'
p182
ag122
aS'14591033'
p183
aS'22731474'
p184
aS'24613625'
p185
aS'58522654'
p186
aS'56815156'
p187
aS'59544049'
p188
aS'4568018'
p189
aS'33877725'
p190
aS'42196732'
p191
aS'33930505'
p192
asg31
g153
sg32
g154
sg34
g155
sg36
g171
sg37
(iread_data
Room
p193
(dp194
g31
S'60'
p195
sg32
S'C1.112'
p196
sbsbaa(lp197
(ischedule
Activity
p198
(dp199
g8
(lp200
S'34806836'
p201
aS'68409833'
p202
ag83
aS'72796858'
p203
aS'61611295'
p204
aS'74131924'
p205
aS'62356458'
p206
aS'16097870'
p207
aS'52552718'
p208
aS'54026378'
p209
aS'62872965'
p210
aS'11915563'
p211
ag107
aS'88627897'
p212
aS'70113753'
p213
aS'5517869'
p214
aS'39459642'
p215
aS'36508571'
p216
asg31
S'10'
p217
sg32
S'Autonomous Agents 2'
p218
sg34
g66
sg36
g67
sg37
(iread_data
Room
p219
(dp220
g31
g174
sg32
g175
sbsba(ischedule
Activity
p221
(dp222
g8
(lp223
S'53107172'
p224
aS'1696500'
p225
aS'4783858'
p226
aS'61443567'
p227
aS'1665980'
p228
aS'64393888'
p229
aS'25106480'
p230
aS'73980360'
p231
aS'50143947'
p232
aS'1075391'
p233
ag59
aS'62701040'
p234
ag214
aS'77240949'
p235
aS'57595888'
p236
asg31
S'20'
p237
sg32
S'Collectieve Intelligentie'
p238
sg34
g66
sg36
g67
sg37
(iread_data
Room
p239
(dp240
g31
g95
sg32
g96
sbsba(ischedule
Activity
p241
(dp242
g8
(lp243
g141
ag59
aS'75585647'
p244
aS'17496687'
p245
aS'92977271'
p246
aS'13116738'
p247
aS'11459236'
p248
ag29
aS'18266644'
p249
aS'23257088'
p250
aS'58332004'
p251
aS'13658563'
p252
ag83
ag62
aS'36748818'
p253
ag234
ag51
aS'23983476'
p254
ag56
asg31
S'15'
p255
sg32
S'Informatie- en organsatieontwerp'
p256
sg34
g66
sg36
g92
sg37
(iread_data
Room
p257
(dp258
g31
g70
sg32
g71
sbsba(ischedule
Activity
p259
(dp260
g8
(lp261
S'17222374'
p262
ag12
aS'78821918'
p263
ag165
aS'13218321'
p264
aS'75997788'
p265
aS'78544592'
p266
aS'29526540'
p267
aS'3883025'
p268
asg31
S'20'
p269
sg32
S'Moderne Databases'
p270
sg34
g66
sg36
g67
sg37
(iread_data
Room
p271
(dp272
g31
g40
sg32
g41
sbsba(ischedule
Activity
p273
(dp274
g8
(lp275
S'94930277'
p276
aS'83443653'
p277
ag58
aS'56749879'
p278
aS'79879876'
p279
aS'14941752'
p280
asg31
S'25'
p281
sg32
S'Heuristieken 1'
p282
sg34
g66
sg36
g67
sg37
(iread_data
Room
p283
(dp284
g31
g158
sg32
g159
sbsba(ischedule
Activity
p285
(dp286
g8
(lp287
g185
aS'76661016'
p288
aS'10792879'
p289
aS'94687383'
p290
aS'40791377'
p291
ag10
ag105
aS'15911353'
p292
ag147
aS'73236988'
p293
ag102
aS'11741347'
p294
aS'9067939'
p295
aS'88855695'
p296
aS'76802764'
p297
ag51
ag111
aS'2317551'
p298
ag179
aS'65852230'
p299
aS'79167252'
p300
aS'65960683'
p301
aS'60312776'
p302
ag23
asg31
S'40'
p303
sg32
S'Compilerbouw'
p304
sg34
g155
sg36
g67
sg37
(iread_data
Room
p305
(dp306
g31
g132
sg32
g133
sbsba(ischedule
Activity
p307
(dp308
g8
(lp309
g254
ag244
ag245
aS'8557857'
p310
ag250
ag252
ag141
asg31
S'15'
p311
sg32
g256
sg34
g155
sg36
g67
sg37
(iread_data
Room
p312
(dp313
g31
g195
sg32
g196
sbsbaa(lp314
(ischedule
Activity
p315
(dp316
g8
(lp317
g121
ag50
ag111
ag110
ag165
ag117
ag168
ag106
ag109
ag100
aS'32044893'
p318
ag125
ag169
ag166
aS'87830198'
p319
ag89
aS'13092455'
p320
ag107
ag116
ag112
ag108
aS'60661905'
p321
ag103
ag122
ag81
ag164
ag80
ag119
aS'52715680'
p322
ag163
aS'77392404'
p323
ag118
ag252
ag101
ag105
ag127
ag104
ag126
ag113
ag123
ag114
ag167
ag120
ag170
ag124
ag102
aS'78136904'
p324
ag115
aS'82390428'
p325
aS'20239127'
p326
aS'4709948'
p327
asg31
I1000
sg32
g129
sg34
g35
sg36
I0
sg37
(iread_data
Room
p328
(dp329
g31
g195
sg32
g196
sbsba(ischedule
Activity
p330
(dp331
g8
(lp332
S'81385263'
p333
aS'34765676'
p334
aS'21095566'
p335
aS'91527663'
p336
ag322
ag45
aS'26260141'
p337
ag142
ag21
ag111
aS'43902015'
p338
aS'46701583'
p339
aS'64554442'
p340
aS'19540225'
p341
aS'41585485'
p342
aS'5976174'
p343
ag232
aS'3707829'
p344
aS'3474870'
p345
aS'53585410'
p346
ag180
aS'14671406'
p347
aS'27298319'
p348
aS'8522855'
p349
aS'40343779'
p350
ag228
ag254
aS'88596522'
p351
aS'77376714'
p352
aS'23652927'
p353
aS'72895450'
p354
aS'44828429'
p355
aS'15902055'
p356
aS'41527759'
p357
aS'67817269'
p358
aS'51566595'
p359
aS'64947290'
p360
aS'57467488'
p361
aS'51509565'
p362
ag324
aS'36903574'
p363
aS'66433883'
p364
aS'58592894'
p365
asg31
I1000
sg32
S'Algoritmen en complexiteit'
p366
sg34
g35
sg36
I0
sg37
(iread_data
Room
p367
(dp368
g31
g174
sg32
g175
sbsba(ischedule
Activity
p369
(dp370
g8
(lp371
S'43027916'
p372
aS'34773179'
p373
aS'46052388'
p374
aS'42171678'
p375
aS'35330349'
p376
aS'29640619'
p377
ag59
ag224
aS'77896638'
p378
aS'22699561'
p379
ag57
ag229
aS'86000192'
p380
ag85
aS'42778953'
p381
aS'87758823'
p382
aS'51741554'
p383
aS'29474737'
p384
aS'97135019'
p385
ag230
ag228
ag233
aS'3233378'
p386
ag214
aS'28357474'
p387
ag21
aS'68601184'
p388
aS'54310617'
p389
ag234
aS'17575088'
p390
aS'13534377'
p391
aS'37770881'
p392
aS'31416266'
p393
ag226
ag15
aS'64228258'
p394
aS'33760909'
p395
ag262
ag150
aS'96104167'
p396
ag232
ag166
ag236
ag227
ag48
ag186
ag22
aS'76123484'
p397
ag356
aS'48601268'
p398
ag302
ag320
ag225
ag235
aS'50184318'
p399
ag231
aS'86291592'
p400
ag191
ag180
ag301
aS'64296965'
p401
asg31
I1000
sg32
g238
sg34
g35
sg36
I0
sg37
(iread_data
Room
p402
(dp403
g31
g158
sg32
g159
sbsba(ischedule
Activity
p404
(dp405
g8
(lp406
S'31897288'
p407
ag395
ag359
aS'87602030'
p408
ag343
aS'670011'
p409
aS'1886996'
p410
ag79
ag28
ag372
aS'48678993'
p411
ag109
aS'72652638'
p412
aS'15249775'
p413
aS'85236626'
p414
aS'78243495'
p415
ag334
asg31
S'20'
p416
sg32
S'Heuristieken 2'
p417
sg34
g66
sg36
g67
sg37
(iread_data
Room
p418
(dp419
g31
g70
sg32
g71
sbsba(ischedule
Activity
p420
(dp421
g8
(lp422
g140
ag209
ag150
ag179
ag188
ag122
ag190
ag119
aS'14816774'
p423
ag185
ag182
aS'89985072'
p424
ag267
ag205
ag147
ag192
ag180
ag152
ag139
ag151
ag187
ag81
ag186
ag137
ag293
ag104
ag183
ag141
ag145
ag138
ag181
ag149
aS'77831658'
p425
ag189
ag146
ag60
ag143
aS'30195935'
p426
ag191
ag142
ag184
aS'81200278'
p427
ag278
ag144
ag148
asg31
I1000
sg32
g154
sg34
g35
sg36
I0
sg37
(iread_data
Room
p428
(dp429
g31
g132
sg32
g133
sbsbaa(lp430
(ischedule
Activity
p431
(dp432
g8
(lp433
g210
ag212
ag206
ag348
ag207
ag202
ag50
ag204
ag203
ag211
ag213
ag216
ag208
ag215
ag205
ag214
ag83
ag201
aS'19858730'
p434
ag209
ag359
ag107
asg31
I1000
sg32
g218
sg34
g35
sg36
I0
sg37
(iread_data
Room
p435
(dp436
g31
g132
sg32
g133
sbsba(ischedule
Activity
p437
(dp438
g8
(lp439
g276
ag109
aS'20618153'
p440
ag354
ag397
ag227
aS'66034145'
p441
aS'53512831'
p442
ag82
aS'76903244'
p443
aS'69459473'
p444
ag15
aS'1137946'
p445
aS'14303208'
p446
aS'24891081'
p447
ag12
aS'17092717'
p448
ag415
ag147
asg31
S'20'
p449
sg32
S'Webprogrammeren en databases'
p450
sg34
g66
sg36
g67
sg37
(iread_data
Room
p451
(dp452
g31
g70
sg32
g71
sbsba(ischedule
Activity
p453
(dp454
g8
(lp455
S'40633534'
p456
asg31
S'10'
p457
sg32
S'Advanced Heuristics'
p458
sg34
g155
sg36
g92
sg37
(iread_data
Room
p459
(dp460
g31
g195
sg32
g196
sbsba(ischedule
Activity
p461
(dp462
g8
(lp463
g392
ag388
ag401
ag191
ag180
ag400
ag379
ag57
ag384
ag391
ag382
ag394
ag393
ag385
ag390
ag395
ag150
ag48
asg31
g237
sg32
g238
sg34
g66
sg36
g92
sg37
(iread_data
Room
p464
(dp465
g31
g95
sg32
g96
sbsba(ischedule
Activity
p466
(dp467
g8
(lp468
g290
aS'22288615'
p469
ag213
aS'41153310'
p470
aS'58040377'
p471
ag61
ag126
aS'90296821'
p472
aS'8464817'
p473
ag279
aS'13996448'
p474
ag111
aS'91196968'
p475
aS'17823206'
p476
aS'63096281'
p477
asg31
S'20'
p478
sg32
S'Programmeren in Java 2'
p479
sg34
g155
sg36
S'4'
p480
sg37
(iread_data
Room
p481
(dp482
g31
g174
sg32
g175
sbsba(ischedule
Activity
p483
(dp484
g8
(lp485
g350
ag335
ag346
ag362
ag358
ag345
ag352
ag349
ag180
ag365
ag338
ag339
ag232
ag324
ag21
ag364
ag322
ag356
ag111
ag342
ag348
ag361
ag363
ag45
ag336
asg31
S'25'
p486
sg32
g366
sg34
g66
sg36
g92
sg37
(iread_data
Room
p487
(dp488
g31
g158
sg32
g159
sbsbaa(lp489
(ischedule
Activity
p490
(dp491
g8
g371
sg31
I1000
sg32
g238
sg34
g35
sg36
I0
sg37
(iread_data
Room
p492
(dp493
g31
g174
sg32
g175
sbsba(ischedule
Activity
p494
(dp495
g8
(lp496
S'47477884'
p497
ag359
aS'4921119'
p498
aS'40141996'
p499
ag278
ag182
ag215
aS'37701751'
p500
ag126
aS'70072978'
p501
ag372
ag338
ag111
aS'88752563'
p502
aS'86180471'
p503
ag181
ag267
ag262
ag361
ag378
aS'54540997'
p504
ag103
ag77
ag397
ag167
ag336
aS'47932106'
p505
aS'12091019'
p506
ag25
aS'5526560'
p507
aS'25077484'
p508
ag360
ag250
aS'62736669'
p509
ag166
ag263
aS'58083680'
p510
ag23
ag377
ag21
ag203
aS'13132925'
p511
ag365
ag251
asg31
S'40'
p512
sg32
S'Databases 2'
p513
sg34
g66
sg36
g92
sg37
(iread_data
Room
p514
(dp515
g31
g195
sg32
g196
sbsba(ischedule
Activity
p516
(dp517
g8
(lp518
g475
asg31
S'10'
p519
sg32
S'Data Mining'
p520
sg34
g66
sg36
g92
sg37
(iread_data
Room
p521
(dp522
g31
g158
sg32
g159
sbsba(ischedule
Activity
p523
(dp524
g8
(lp525
g149
ag144
ag188
ag138
ag189
ag140
ag146
ag184
ag293
ag278
ag148
ag151
ag142
ag427
asg31
S'20'
p526
sg32
g154
sg34
g66
sg36
g171
sg37
(iread_data
Room
p527
(dp528
g31
g95
sg32
g96
sbsba(ischedule
Activity
p529
(dp530
g8
(lp531
S'85284256'
p532
aS'34243356'
p533
ag150
aS'81022997'
p534
ag18
ag21
aS'25330192'
p535
ag225
ag249
aS'7957843'
p536
aS'37744525'
p537
ag319
ag411
aS'21677389'
p538
aS'59887191'
p539
aS'70939718'
p540
aS'38499176'
p541
aS'123355'
p542
aS'54772132'
p543
aS'64246605'
p544
aS'1048485'
p545
aS'19058315'
p546
ag327
aS'4353500'
p547
asg31
S'20'
p548
sg32
S'Netwerken en systeembeveiliging'
p549
sg34
g155
sg36
g171
sg37
(iread_data
Room
p550
(dp551
g31
g132
sg32
g133
sbsba(ischedule
Activity
p552
(dp553
g8
(lp554
g373
ag408
aS'14398123'
p555
aS'94467156'
p556
ag411
aS'99283252'
p557
ag121
ag507
ag456
ag503
aS'76924297'
p558
asg31
S'15'
p559
sg32
S'Project Genetic Algorithms'
p560
sg34
g155
sg36
g92
sg37
(iread_data
Room
p561
(dp562
g31
g70
sg32
g71
sbsba(ischedule
Activity
p563
(dp564
g8
(lp565
g383
asg31
g548
sg32
g549
sg34
g155
sg36
g480
sg37
(iread_data
Room
p566
(dp567
g31
g40
sg32
g41
sbsbaaa(lp568
(lp569
(ischedule
Activity
p570
(dp571
g8
(lp572
g262
ag85
asg31
S'20'
p573
sg32
g238
sg34
g155
sg36
g67
sg37
(iread_data
Room
p574
(dp575
g31
g95
sg32
g96
sbsba(ischedule
Activity
p576
(dp577
g8
(lp578
g265
aS'55412918'
p579
aS'59220392'
p580
ag348
ag385
ag20
aS'53139134'
p581
ag446
ag540
aS'87900893'
p582
aS'56872729'
p583
ag289
aS'22168693'
p584
aS'23565001'
p585
aS'94686490'
p586
ag152
aS'23658570'
p587
aS'14179347'
p588
ag244
aS'62105897'
p589
asg31
S'40'
p590
sg32
S'Calculus 2'
p591
sg34
g66
sg36
g67
sg37
(iread_data
Room
p592
(dp593
g31
g40
sg32
g41
sbsba(ischedule
Activity
p594
(dp595
g8
(lp596
S'75759231'
p597
ag84
ag533
aS'27187154'
p598
aS'48503689'
p599
aS'95007221'
p600
aS'75599734'
p601
aS'46989508'
p602
aS'2079771'
p603
ag354
aS'1766560'
p604
ag203
ag20
aS'30658799'
p605
ag333
ag186
ag381
ag45
aS'44391517'
p606
ag392
ag400
ag473
aS'95631564'
p607
ag378
aS'88636924'
p608
aS'66701209'
p609
aS'34110913'
p610
aS'80135353'
p611
ag543
ag211
ag47
ag78
aS'13284244'
p612
ag215
aS'43689934'
p613
aS'92665222'
p614
aS'5368702'
p615
ag502
aS'79033175'
p616
ag75
ag536
aS'98105190'
p617
aS'3407554'
p618
aS'13911001'
p619
aS'5595824'
p620
asg31
g303
sg32
g304
sg34
g155
sg36
g92
sg37
(iread_data
Room
p621
(dp622
g31
g158
sg32
g159
sbsba(ischedule
Activity
p623
(dp624
g8
(lp625
S'23391676'
p626
aS'74182182'
p627
aS'63634350'
p628
aS'39659121'
p629
aS'56988998'
p630
ag27
ag90
ag184
ag251
ag116
ag401
aS'47462856'
p631
ag151
ag363
ag278
aS'9731271'
p632
ag598
aS'79366078'
p633
ag475
aS'47605891'
p634
ag555
ag186
aS'94955328'
p635
aS'84110134'
p636
ag188
aS'81218347'
p637
ag63
aS'78735049'
p638
aS'37498675'
p639
aS'46570285'
p640
ag389
aS'7492204'
p641
ag289
ag112
aS'31633723'
p642
ag558
aS'32705005'
p643
ag326
aS'38329455'
p644
aS'44940353'
p645
aS'51542218'
p646
aS'31247305'
p647
aS'55474917'
p648
aS'34262212'
p649
aS'49631542'
p650
aS'51186803'
p651
aS'65003379'
p652
ag476
aS'28957789'
p653
ag347
aS'39230359'
p654
ag144
aS'91139627'
p655
ag26
ag541
ag357
ag183
aS'39919665'
p656
ag114
ag615
ag211
aS'10872825'
p657
aS'82688900'
p658
aS'72547110'
p659
ag105
ag342
ag349
aS'59075181'
p660
aS'58469172'
p661
ag91
aS'42115591'
p662
aS'63408522'
p663
ag56
ag556
aS'5615125'
p664
aS'24875739'
p665
aS'79858178'
p666
ag249
ag324
aS'63955238'
p667
aS'99272880'
p668
aS'97019450'
p669
ag235
ag533
asg31
I1000
sg32
S'Kansrekenen 2'
p670
sg34
g35
sg36
I0
sg37
(iread_data
Room
p671
(dp672
g31
g195
sg32
g196
sbsba(ischedule
Activity
p673
(dp674
g8
(lp675
g318
ag322
ag327
ag325
ag324
ag319
ag323
ag326
ag80
ag320
ag252
ag321
asg31
g128
sg32
g129
sg34
g66
sg36
g67
sg37
(iread_data
Room
p676
(dp677
g31
g132
sg32
g133
sbsba(ischedule
Activity
p678
(dp679
g8
(lp680
g426
ag60
ag278
ag205
ag119
ag423
ag209
ag424
ag427
ag425
ag293
ag267
ag81
asg31
g153
sg32
g154
sg34
g155
sg36
g92
sg37
(iread_data
Room
p681
(dp682
g31
g70
sg32
g71
sbsba(ischedule
Activity
p683
(dp684
g8
(lp685
g412
ag334
ag395
ag408
ag109
ag79
ag372
aS'5739011'
p686
ag120
ag409
ag471
ag628
aS'83869542'
p687
aS'58736785'
p688
ag184
ag414
aS'82968410'
p689
ag359
aS'52304977'
p690
ag427
ag28
aS'35315956'
p691
ag343
ag227
ag413
ag534
ag207
ag105
ag415
ag411
ag410
ag407
asg31
I1000
sg32
g417
sg34
g35
sg36
I0
sg37
(iread_data
Room
p692
(dp693
g31
g174
sg32
g175
sbsbaa(lp694
(ischedule
Activity
p695
(dp696
g8
(lp697
S'14847953'
p698
aS'20374340'
p699
ag288
ag344
aS'2550487'
p700
ag427
ag500
ag48
aS'4546613'
p701
aS'69634191'
p702
aS'19214659'
p703
ag441
aS'64768422'
p704
ag558
ag334
aS'93566383'
p705
ag333
aS'28055464'
p706
ag355
ag615
aS'65675896'
p707
aS'81155296'
p708
ag538
aS'38179241'
p709
ag101
asg31
I1000
sg32
S'Interactie-ontwerp'
p710
sg34
g35
sg36
I0
sg37
(iread_data
Room
p711
(dp712
g31
g70
sg32
g71
sbsba(ischedule
Activity
p713
(dp714
g8
(lp715
g476
aS'98780382'
p716
ag247
ag535
ag534
ag359
ag205
ag58
aS'87314964'
p717
ag232
aS'19337738'
p718
aS'52311353'
p719
ag474
asg31
S'10'
p720
sg32
g520
sg34
g155
sg36
g67
sg37
(iread_data
Room
p721
(dp722
g31
g158
sg32
g159
sbsba(ischedule
Activity
p723
(dp724
g8
(lp725
g144
ag614
aS'86807027'
p726
ag164
aS'39429093'
p727
ag265
ag698
ag324
ag497
ag17
ag48
ag15
ag410
ag181
ag103
ag18
aS'72665524'
p728
aS'27064249'
p729
aS'62613937'
p730
asg31
g457
sg32
g458
sg34
g155
sg36
g67
sg37
(iread_data
Room
p731
(dp732
g31
g132
sg32
g133
sbsba(ischedule
Activity
p733
(dp734
g8
(lp735
g385
ag395
ag234
ag235
ag400
ag374
ag229
ag231
ag373
ag236
ag301
ag381
ag180
ag214
ag396
ag166
ag22
ag150
ag224
ag375
ag302
asg31
g573
sg32
g238
sg34
g155
sg36
g171
sg37
(iread_data
Room
p736
(dp737
g31
g195
sg32
g196
sbsba(ischedule
Activity
p738
(dp739
g8
(lp740
g348
ag434
asg31
g217
sg32
g218
sg34
g66
sg36
g92
sg37
(iread_data
Room
p741
(dp742
g31
g40
sg32
g41
sbsba(ischedule
Activity
p743
(dp744
g8
(lp745
g230
ag389
ag387
ag15
ag380
ag379
ag390
ag388
ag393
ag233
ag232
ag382
ag397
ag377
ag186
ag226
ag391
ag320
asg31
g573
sg32
g238
sg34
g155
sg36
g480
sg37
(iread_data
Room
p746
(dp747
g31
g95
sg32
g96
sbsba(ischedule
Activity
p748
(dp749
g8
(lp750
S'61060652'
p751
ag188
ag143
ag350
ag78
aS'83210352'
p752
ag232
ag589
ag352
aS'14072826'
p753
ag607
ag139
ag377
aS'58074656'
p754
ag347
ag102
aS'65318664'
p755
aS'48357272'
p756
ag386
ag202
ag424
aS'45915482'
p757
aS'73302736'
p758
aS'51593625'
p759
aS'31103066'
p760
ag206
ag343
aS'3727435'
p761
ag337
ag90
ag209
ag107
ag470
ag701
ag58
ag302
ag100
ag357
ag211
ag545
ag557
aS'27582862'
p762
ag293
asg31
S'40'
p763
sg32
S'Software engineering'
p764
sg34
g155
sg36
g67
sg37
(iread_data
Room
p765
(dp766
g31
g174
sg32
g175
sbsbaa(lp767
(ischedule
Activity
p768
(dp769
g8
(lp770
g636
ag352
ag386
ag206
aS'65408517'
p771
ag557
ag143
ag759
ag751
ag189
ag607
ag648
ag230
aS'82872148'
p772
ag117
ag662
ag719
ag302
ag760
ag758
ag753
ag12
ag752
aS'78443067'
p773
ag357
ag293
aS'80709893'
p774
ag107
aS'44671041'
p775
ag755
ag424
ag226
ag377
ag757
ag647
ag470
ag701
ag762
ag322
ag58
ag761
ag545
ag335
aS'9287708'
p776
asg31
S'40'
p777
sg32
g764
sg34
g66
sg36
g92
sg37
(iread_data
Room
p778
(dp779
g31
g132
sg32
g133
sbsba(ischedule
Activity
p780
(dp781
g8
(lp782
S'10702778'
p783
ag165
ag545
ag498
aS'51791169'
p784
ag668
ag589
ag148
ag251
aS'83415514'
p785
ag363
ag101
ag104
aS'63111000'
p786
asg31
g478
sg32
g479
sg34
g155
sg36
g92
sg37
(iread_data
Room
p787
(dp788
g31
g158
sg32
g159
sbsba(ischedule
Activity
p789
(dp790
g8
(lp791
S'21070547'
p792
ag636
ag534
asg31
S'15'
p793
sg32
S'Project Numerical Recipes'
p794
sg34
g155
sg36
g92
sg37
(iread_data
Room
p795
(dp796
g31
g195
sg32
g196
sbsba(ischedule
Activity
p797
(dp798
g8
(lp799
S'67073567'
p800
ag345
ag109
ag445
ag276
ag354
ag447
ag441
ag440
ag82
ag729
ag323
aS'16333449'
p801
ag664
ag469
aS'10698627'
p802
aS'2416751'
p803
ag15
ag397
ag698
asg31
S'20'
p804
sg32
g450
sg34
g155
sg36
g67
sg37
(iread_data
Room
p805
(dp806
g31
g95
sg32
g96
sbsba(ischedule
Activity
p807
(dp808
g8
(lp809
g446
ag444
ag654
ag415
ag227
ag442
ag443
ag190
ag338
ag12
aS'41790793'
p810
aS'28358060'
p811
ag394
aS'49908313'
p812
aS'76648468'
p813
ag30
ag147
ag448
ag25
asg31
g804
sg32
g450
sg34
g155
sg36
g92
sg37
(iread_data
Room
p814
(dp815
g31
g40
sg32
g41
sbsba(ischedule
Activity
p816
(dp817
g8
(lp818
g387
ag262
ag386
ag372
ag376
ag381
ag356
ag396
asg31
g237
sg32
g238
sg34
g66
sg36
g171
sg37
(iread_data
Room
p819
(dp820
g31
g174
sg32
g175
sbsbaa(lp821
(ischedule
Activity
p822
(dp823
g8
(lp824
g262
ag214
ag352
ag605
ag121
ag268
ag415
ag557
ag12
aS'59111489'
p825
ag251
ag327
ag253
ag265
ag631
ag20
ag365
aS'18144425'
p826
ag786
ag149
ag785
ag267
ag264
aS'48198668'
p827
aS'36527838'
p828
ag266
ag166
aS'1181560'
p829
aS'41489515'
p830
ag604
ag375
ag78
ag619
ag399
aS'49219163'
p831
ag263
ag165
ag773
aS'96082155'
p832
ag640
ag59
ag60
ag650
ag51
ag81
ag77
ag501
aS'58699305'
p833
ag294
aS'51650744'
p834
aS'66621166'
p835
ag148
aS'27916487'
p836
aS'27241113'
p837
asg31
I1000
sg32
g270
sg34
g35
sg36
I0
sg37
(iread_data
Room
p838
(dp839
g31
g158
sg32
g159
sbsba(ischedule
Activity
p840
(dp841
g8
(lp842
g802
ag413
ag598
ag759
ag356
aS'88597745'
p843
ag541
ag626
ag151
aS'7386961'
p844
aS'39905995'
p845
aS'28943658'
p846
ag543
aS'20830477'
p847
ag726
ag497
ag632
ag246
ag250
ag700
ag360
ag409
ag115
ag234
ag587
aS'12782624'
p848
ag229
ag775
aS'73893840'
p849
aS'23215240'
p850
ag393
aS'34900967'
p851
ag532
aS'88519892'
p852
ag501
ag321
asg31
g478
sg32
g479
sg34
g155
sg36
S'6'
p853
sg37
(iread_data
Room
p854
(dp855
g31
g195
sg32
g196
sbsba(ischedule
Activity
p856
(dp857
g8
(lp858
g57
aS'91250534'
p859
ag618
asg31
S'15'
p860
sg32
S'Compilerbouw practicum'
p861
sg34
g155
sg36
g92
sg37
(iread_data
Room
p862
(dp863
g31
g70
sg32
g71
sbsba(ischedule
Activity
p864
(dp865
g8
(lp866
S'37279234'
p867
ag380
aS'3678531'
p868
ag661
ag641
ag254
ag556
aS'73196865'
p869
ag327
aS'64053722'
p870
ag378
ag803
ag648
ag364
aS'88263855'
p871
ag122
asg31
g478
sg32
g479
sg34
g155
sg36
g171
sg37
(iread_data
Room
p872
(dp873
g31
g132
sg32
g133
sbsba(ischedule
Activity
p874
(dp875
g8
g371
sg31
I1000
sg32
g238
sg34
g35
sg36
I0
sg37
(iread_data
Room
p876
(dp877
g31
g40
sg32
g41
sbsba(ischedule
Activity
p878
(dp879
g8
g9
sg31
I1000
sg32
g33
sg34
g35
sg36
I0
sg37
(iread_data
Room
p880
(dp881
g31
g174
sg32
g175
sbsba(ischedule
Activity
p882
(dp883
g8
(lp884
g359
ag50
asg31
g217
sg32
g218
sg34
g66
sg36
g171
sg37
(iread_data
Room
p885
(dp886
g31
g95
sg32
g96
sbsbaa(lp887
(ischedule
Activity
p888
(dp889
g8
g422
sg31
I1000
sg32
g154
sg34
g35
sg36
I0
sg37
(iread_data
Room
p890
(dp891
g31
g195
sg32
g196
sbsba(ischedule
Activity
p892
(dp893
g8
(lp894
g51
ag607
ag105
ag47
ag203
ag610
ag381
ag392
ag601
ag604
ag291
ag296
ag302
ag400
ag288
ag600
ag618
ag599
ag179
ag292
ag211
ag45
ag602
ag75
ag616
ag10
ag378
ag611
ag620
ag293
ag597
ag290
ag609
ag615
ag536
ag185
ag605
ag301
ag78
ag333
ag299
ag608
ag619
ag603
ag543
ag215
ag297
ag354
ag84
ag612
ag147
ag617
ag289
ag606
ag613
ag186
ag295
ag473
ag298
ag300
ag23
ag111
ag614
ag20
ag533
ag102
ag598
ag294
ag502
asg31
I1000
sg32
g304
sg34
g35
sg36
I0
sg37
(iread_data
Room
p895
(dp896
g31
g40
sg32
g41
sbsba(ischedule
Activity
p897
(dp898
g8
(lp899
g202
aS'21311067'
p900
ag393
aS'16011419'
p901
ag662
ag751
aS'75005528'
p902
aS'54074680'
p903
ag84
aS'66570705'
p904
ag637
ag627
ag801
ag648
ag191
ag381
aS'71839156'
p905
ag475
ag635
aS'96118484'
p906
ag145
ag533
ag585
ag583
ag378
ag586
ag333
ag89
ag376
ag11
ag183
ag828
ag409
ag719
aS'26172512'
p907
ag579
aS'90743504'
p908
ag214
ag210
ag752
aS'79937969'
p909
ag498
ag345
ag705
ag216
ag541
ag382
ag207
ag101
aS'34588570'
p910
ag774
aS'80998260'
p911
ag14
aS'32595335'
p912
asg31
I1000
sg32
S'Lineaire Algebra'
p913
sg34
g35
sg36
I0
sg37
(iread_data
Room
p914
(dp915
g31
g158
sg32
g159
sbsba(ischedule
Activity
p916
(dp917
g8
(lp918
g141
ag83
ag234
ag62
ag253
ag59
ag56
ag245
ag244
ag51
ag246
aS'19958553'
p919
ag252
ag251
ag248
ag310
ag250
ag247
ag249
ag254
ag29
asg31
I1000
sg32
g256
sg34
g35
sg36
I0
sg37
(iread_data
Room
p920
(dp921
g31
g95
sg32
g96
sbsba(ischedule
Activity
p922
(dp923
g8
(lp924
g636
ag601
ag775
ag398
ag642
aS'37830626'
p925
ag117
ag647
ag387
ag773
ag335
ag648
ag226
ag190
ag771
ag774
ag776
ag662
ag55
ag208
ag140
ag230
ag16
ag30
ag189
ag12
ag772
ag322
ag719
ag556
ag415
ag537
asg31
g763
sg32
g764
sg34
g155
sg36
g92
sg37
(iread_data
Room
p926
(dp927
g31
g174
sg32
g175
sbsbaaa(lp928
(lp929
(ischedule
Activity
p930
(dp931
g8
(lp932
g310
ag919
asg31
g255
sg32
g256
sg34
g66
sg36
g67
sg37
(iread_data
Room
p933
(dp934
g31
g40
sg32
g41
sbsba(ischedule
Activity
p935
(dp936
g8
(lp937
g265
ag18
ag103
ag410
ag48
ag15
ag727
ag729
ag698
ag181
ag456
ag497
ag614
ag728
ag324
ag17
ag164
ag726
ag730
ag144
asg31
I1000
sg32
g458
sg34
g35
sg36
I0
sg37
(iread_data
Room
p938
(dp939
g31
g95
sg32
g96
sbsba(ischedule
Activity
p940
(dp941
g8
g899
sg31
I1000
sg32
g913
sg34
g35
sg36
I0
sg37
(iread_data
Room
p942
(dp943
g31
g195
sg32
g196
sbsba(ischedule
Activity
p944
(dp945
g8
(lp946
g251
ag246
ag59
ag919
ag51
ag62
ag247
ag249
ag248
ag253
ag83
ag56
ag29
ag234
asg31
g311
sg32
g256
sg34
g155
sg36
g92
sg37
(iread_data
Room
p947
(dp948
g31
g158
sg32
g159
sbsba(ischedule
Activity
p949
(dp950
g8
(lp951
g599
aS'32183908'
p952
ag184
ag84
ag536
aS'40911986'
p953
ag703
aS'81116418'
p954
ag318
ag400
ag116
aS'63573738'
p955
asg31
g793
sg32
g794
sg34
g155
sg36
g171
sg37
(iread_data
Room
p956
(dp957
g31
g132
sg32
g133
sbsba(ischedule
Activity
p958
(dp959
g8
(lp960
g15
ag377
ag399
ag380
ag302
ag21
ag186
ag397
ag85
ag383
ag378
ag374
ag373
ag398
ag389
ag22
ag375
ag320
ag166
ag301
asg31
g237
sg32
g238
sg34
g66
sg36
g480
sg37
(iread_data
Room
p961
(dp962
g31
g70
sg32
g71
sbsba(ischedule
Activity
p963
(dp964
g8
(lp965
g247
ag582
ag232
ag474
ag717
ag141
ag719
asg31
g519
sg32
g520
sg34
g66
sg36
g67
sg37
(iread_data
Room
p966
(dp967
g31
g174
sg32
g175
sbsbaa(lp968
(ischedule
Activity
p969
(dp970
g8
(lp971
g394
ag190
ag345
ag441
ag276
ag729
ag397
ag812
ag444
ag30
ag803
ag15
ag440
ag801
ag654
ag813
ag354
ag12
ag802
ag448
ag415
ag25
ag800
ag147
ag811
ag338
ag109
ag445
ag82
ag469
ag446
ag664
ag442
ag698
ag447
ag227
ag810
ag443
ag323
asg31
I1000
sg32
g450
sg34
g35
sg36
I0
sg37
(iread_data
Room
p972
(dp973
g31
g174
sg32
g175
sbsba(ischedule
Activity
p974
(dp975
g8
(lp976
S'45414528'
p977
ag125
ag50
ag476
ag113
ag205
aS'66122625'
p978
ag180
ag359
ag535
ag537
aS'68360259'
p979
ag427
ag58
ag716
ag534
aS'93023961'
p980
aS'97136582'
p981
ag718
asg31
g519
sg32
g520
sg34
g66
sg36
g171
sg37
(iread_data
Room
p982
(dp983
g31
g95
sg32
g96
sbsba(ischedule
Activity
p984
(dp985
g8
(lp986
S'88737765'
p987
ag230
ag263
ag288
ag349
aS'55480737'
p988
asg31
g559
sg32
g560
sg34
g155
sg36
g171
sg37
(iread_data
Room
p989
(dp990
g31
g132
sg32
g133
sbsba(ischedule
Activity
p991
(dp992
g8
g422
sg31
I1000
sg32
g154
sg34
g35
sg36
I0
sg37
(iread_data
Room
p993
(dp994
g31
g195
sg32
g196
sbsba(ischedule
Activity
p995
(dp996
g8
(lp997
g637
ag726
ag183
ag83
ag189
ag363
ag617
ag50
aS'87210640'
p998
ag252
ag434
ag225
ag669
ag407
ag226
ag375
ag688
ag905
ag59
ag756
ag978
ag13
aS'76393508'
p999
ag847
ag27
aS'97417002'
p1000
ag423
ag265
ag660
ag246
aS'45660925'
p1001
ag751
ag224
ag77
ag107
aS'53775014'
p1002
ag547
ag361
asg31
g281
sg32
g282
sg34
g66
sg36
g92
sg37
(iread_data
Room
p1003
(dp1004
g31
g158
sg32
g159
sbsba(ischedule
Activity
p1005
(dp1006
g8
(lp1007
g474
ag381
ag627
ag604
ag354
ag726
aS'19662602'
p1008
aS'37419523'
p1009
ag150
ag86
ag425
ag700
aS'90103047'
p1010
aS'6939933'
p1011
ag140
ag293
aS'63939720'
p1012
aS'34691309'
p1013
ag320
aS'73823548'
p1014
ag280
ag118
ag902
ag612
ag90
ag18
ag302
ag206
ag502
asg31
g793
sg32
g794
sg34
g155
sg36
g67
sg37
(iread_data
Room
p1015
(dp1016
g31
g70
sg32
g71
sbsba(ischedule
Activity
p1017
(dp1018
g8
(lp1019
g392
aS'82066165'
p1020
ag609
ag508
ag185
aS'41644639'
p1021
ag102
ag89
aS'74361881'
p1022
ag202
ag444
aS'75680261'
p1023
ag339
ag28
ag588
aS'25994016'
p1024
aS'51673172'
p1025
ag319
aS'58253841'
p1026
asg31
g559
sg32
g560
sg34
g155
sg36
g67
sg37
(iread_data
Room
p1027
(dp1028
g31
g40
sg32
g41
sbsbaa(lp1029
(ischedule
Activity
p1030
(dp1031
g8
(lp1032
S'23628642'
p1033
aS'79888156'
p1034
aS'19717077'
p1035
aS'34173695'
p1036
aS'65978354'
p1037
ag505
ag502
ag785
ag1026
aS'56348773'
p1038
ag346
aS'77306636'
p1039
aS'11593163'
p1040
ag408
ag1011
ag122
ag170
ag643
ag183
ag497
ag28
aS'56544130'
p1041
ag506
ag300
aS'61520025'
p1042
ag773
aS'82412626'
p1043
ag628
ag757
ag627
ag1014
ag11
ag339
ag729
ag758
ag179
aS'93361408'
p1044
ag632
aS'75623387'
p1045
ag356
ag383
ag151
ag207
ag337
ag598
ag726
ag701
ag365
ag665
ag380
ag394
ag145
asg31
g590
sg32
g591
sg34
g66
sg36
g92
sg37
(iread_data
Room
p1046
(dp1047
g31
g195
sg32
g196
sbsba(ischedule
Activity
p1048
(dp1049
g8
(lp1050
g359
ag434
ag212
ag211
ag208
ag203
ag50
ag204
asg31
S'10'
p1051
sg32
g218
sg34
g155
sg36
g171
sg37
(iread_data
Room
p1052
(dp1053
g31
g95
sg32
g96
sbsba(ischedule
Activity
p1054
(dp1055
g8
(lp1056
g20
ag828
ag78
ag501
ag773
ag121
ag825
ag251
ag253
ag375
ag836
ag77
ag399
ag834
ag365
ag640
ag650
ag327
ag826
ag166
ag60
ag51
ag835
asg31
g269
sg32
g270
sg34
g66
sg36
g92
sg37
(iread_data
Room
p1057
(dp1058
g31
g174
sg32
g175
sbsbaa(lp1059
(ischedule
Activity
p1060
(dp1061
g8
(lp1062
g186
ag180
ag423
ag426
ag187
ag147
ag267
ag145
ag183
ag191
ag119
ag425
ag205
ag192
ag181
ag424
ag122
ag150
ag143
ag152
ag182
ag185
ag209
ag190
ag60
ag81
asg31
g526
sg32
g154
sg34
g66
sg36
g67
sg37
(iread_data
Room
p1063
(dp1064
g31
g132
sg32
g133
sbsba(ischedule
Activity
p1065
(dp1066
g8
g894
sg31
I1000
sg32
g304
sg34
g35
sg36
I0
sg37
(iread_data
Room
p1067
(dp1068
g31
g40
sg32
g41
sbsba(ischedule
Activity
p1069
(dp1070
g8
(lp1071
g446
ag707
ag189
aS'5892092'
p1072
ag236
ag728
aS'55103073'
p1073
ag541
aS'64418623'
p1074
ag905
ag1025
ag850
ag424
ag346
asg31
g860
sg32
g861
sg34
g155
sg36
g67
sg37
(iread_data
Room
p1075
(dp1076
g31
g195
sg32
g196
sbsba(ischedule
Activity
p1077
(dp1078
g8
(lp1079
g582
ag141
ag978
ag125
ag537
ag180
ag475
ag980
ag427
asg31
g720
sg32
g520
sg34
g155
sg36
g171
sg37
(iread_data
Room
p1080
(dp1081
g31
g95
sg32
g96
sbsba(ischedule
Activity
p1082
(dp1083
g8
(lp1084
g637
ag59
ag617
ag363
ag225
ag189
ag726
ag265
ag183
ag1001
ag847
ag434
ag375
ag1002
ag751
ag77
ag280
ag278
ag688
ag1000
ag999
ag669
ag58
ag978
ag83
ag277
ag107
ag224
ag13
ag905
ag226
ag998
ag252
ag361
ag660
ag246
ag547
ag276
ag50
ag756
ag407
ag279
ag423
ag27
asg31
I1000
sg32
g282
sg34
g35
sg36
I0
sg37
(iread_data
Room
p1085
(dp1086
g31
g158
sg32
g159
sbsba(ischedule
Activity
p1087
(dp1088
g8
g918
sg31
I1000
sg32
g256
sg34
g35
sg36
I0
sg37
(iread_data
Room
p1089
(dp1090
g31
g174
sg32
g175
sbsbaa(lp1091
(ischedule
Activity
p1092
(dp1093
g8
(lp1094
g235
aS'26857113'
p1095
aS'67625383'
p1096
ag26
ag603
ag786
ag537
ag556
ag10
ag149
ag343
ag112
aS'33252501'
p1097
ag170
ag339
ag630
ag291
ag598
ag414
ag116
ag215
aS'90067329'
p1098
asg31
I1000
sg32
S'Machine Learning'
p1099
sg34
g35
sg36
I0
sg37
(iread_data
Room
p1100
(dp1101
g31
g70
sg32
g71
sbsba(ischedule
Activity
p1102
(dp1103
g8
(lp1104
g719
ag533
aS'73350019'
p1105
aS'18477924'
p1106
ag60
ag319
aS'82854435'
p1107
ag646
ag249
ag187
ag89
ag662
ag755
ag401
ag498
ag117
aS'72456780'
p1108
ag109
ag635
ag585
aS'14637758'
p1109
ag26
ag80
ag425
ag263
aS'58480929'
p1110
ag756
aS'5085194'
p1111
aS'97838175'
p1112
ag372
ag987
ag669
ag758
ag127
ag851
ag207
ag587
aS'80188025'
p1113
ag730
ag411
ag107
ag277
ag620
aS'78822885'
p1114
ag265
ag1041
aS'33672995'
p1115
ag321
aS'72586808'
p1116
asg31
I1000
sg32
S'Analysemethoden en -technieken'
p1117
sg34
g35
sg36
I0
sg37
(iread_data
Room
p1118
(dp1119
g31
g158
sg32
g159
sbsba(ischedule
Activity
p1120
(dp1121
g8
(lp1122
S'59397895'
p1123
ag1111
ag583
ag57
ag602
aS'56191333'
p1124
ag646
ag409
aS'26207525'
p1125
ag448
ag401
ag587
aS'4529208'
p1126
ag151
ag191
ag214
aS'15187217'
p1127
ag586
ag650
ag902
ag423
ag208
aS'56121590'
p1128
aS'27123462'
p1129
ag1108
ag1014
ag320
ag687
asg31
g512
sg32
g513
sg34
g66
sg36
g67
sg37
(iread_data
Room
p1130
(dp1131
g31
g174
sg32
g175
sbsba(ischedule
Activity
p1132
(dp1133
g8
(lp1134
g142
ag349
ag334
ag347
ag361
ag340
ag364
ag365
ag351
ag356
ag254
ag180
ag228
ag353
ag111
ag324
ag350
ag341
ag232
ag345
ag360
ag344
ag354
ag355
ag348
ag358
ag359
ag338
ag45
ag337
ag322
ag363
ag343
ag362
asg31
S'25'
p1135
sg32
g366
sg34
g155
sg36
g92
sg37
(iread_data
Room
p1136
(dp1137
g31
g95
sg32
g96
sbsba(ischedule
Activity
p1138
(dp1139
g8
(lp1140
g62
ag1111
ag248
ag232
ag1020
ag1024
ag351
ag140
ag1022
aS'51472074'
p1141
ag668
aS'42297781'
p1142
aS'535689'
p1143
ag628
ag322
ag54
ag619
aS'44151631'
p1144
aS'1695839'
p1145
ag228
ag1021
ag13
aS'47260040'
p1146
asg31
g860
sg32
g861
sg34
g155
sg36
g171
sg37
(iread_data
Room
p1147
(dp1148
g31
g195
sg32
g196
sbsba(ischedule
Activity
p1149
(dp1150
g8
g317
sg31
I1000
sg32
g129
sg34
g35
sg36
I0
sg37
(iread_data
Room
p1151
(dp1152
g31
g40
sg32
g41
sbsbaaa(lp1153
(lp1154
(ischedule
Activity
p1155
(dp1156
g8
(lp1157
g392
ag102
ag618
ag186
ag601
ag605
ag297
ag20
ag147
ag293
ag607
ag47
ag300
ag610
ag291
ag111
ag75
ag602
ag606
ag502
ag536
ag611
ag299
ag289
ag614
ag203
ag51
ag615
ag179
ag215
ag597
ag292
ag598
ag604
ag211
asg31
S'40'
p1158
sg32
g304
sg34
g66
sg36
g67
sg37
(iread_data
Room
p1159
(dp1160
g31
g132
sg32
g133
sbsba(ischedule
Activity
p1161
(dp1162
g8
(lp1163
g102
ag78
ag647
ag751
ag589
ag190
ag761
ag601
ag758
ag100
ag557
ag415
ag143
ag545
ag762
ag776
ag753
ag226
ag232
ag771
ag189
ag773
ag636
ag648
ag719
ag188
ag537
ag701
ag350
ag30
ag209
ag662
ag337
ag58
ag230
ag206
ag211
ag470
ag322
ag202
ag759
ag607
ag757
ag347
ag293
ag774
ag357
ag925
ag398
ag12
ag16
ag756
ag352
ag642
ag302
ag760
ag752
ag754
ag139
ag377
ag335
ag117
ag386
ag343
ag55
ag775
ag140
ag107
ag772
ag556
ag387
ag424
ag755
ag90
ag208
asg31
I1000
sg32
g764
sg34
g35
sg36
I0
sg37
(iread_data
Room
p1164
(dp1165
g31
g40
sg32
g41
sbsba(ischedule
Activity
p1166
(dp1167
g8
(lp1168
g251
ag263
ag267
ag831
ag165
ag253
ag557
ag650
ag631
ag830
ag619
ag327
ag166
ag262
ag501
ag833
ag78
asg31
S'20'
p1169
sg32
g270
sg34
g155
sg36
g67
sg37
(iread_data
Room
p1170
(dp1171
g31
g174
sg32
g175
sbsba(ischedule
Activity
p1172
(dp1173
g8
(lp1174
g346
aS'54395877'
p1175
ag762
ag400
ag388
ag180
ag705
ag649
ag599
ag227
ag414
ag342
ag215
ag377
asg31
g478
sg32
g479
sg34
g155
sg36
g67
sg37
(iread_data
Room
p1176
(dp1177
g31
g95
sg32
g96
sbsba(ischedule
Activity
p1178
(dp1179
g8
(lp1180
g341
ag340
ag334
ag254
ag353
ag347
ag333
ag228
ag142
ag337
ag355
ag359
ag357
ag343
ag360
ag354
ag351
ag344
asg31
g486
sg32
g366
sg34
g66
sg36
g67
sg37
(iread_data
Room
p1181
(dp1182
g31
g70
sg32
g71
sbsba(ischedule
Activity
p1183
(dp1184
g8
(lp1185
g215
ag210
ag207
ag205
ag107
ag348
ag216
ag206
ag202
ag83
ag214
ag201
asg31
g1051
sg32
g218
sg34
g155
sg36
g92
sg37
(iread_data
Room
p1186
(dp1187
g31
g158
sg32
g159
sbsba(ischedule
Activity
p1188
(dp1189
g8
(lp1190
g288
aS'72526473'
p1191
ag661
ag499
ag868
aS'6709529'
p1192
ag1113
ag833
ag226
ag708
ag423
ag728
ag867
ag640
ag756
ag296
ag395
ag664
aS'55530367'
p1193
ag143
ag638
aS'62363761'
p1194
ag266
aS'10609762'
p1195
aS'75446434'
p1196
ag503
ag1115
ag653
ag471
ag771
ag148
ag709
aS'31306819'
p1197
ag60
asg31
g590
sg32
g591
sg34
g66
sg36
g171
sg37
(iread_data
Room
p1198
(dp1199
g31
g195
sg32
g196
sbsbaa(lp1200
(ischedule
Activity
p1201
(dp1202
g8
(lp1203
g1126
ag397
ag361
ag23
ag214
ag377
ag602
ag499
ag497
ag587
ag250
ag503
ag505
ag1125
ag1128
ag77
ag167
ag509
ag510
ag448
ag1014
ag336
ag21
ag902
ag203
ag498
ag320
ag1124
ag508
ag191
ag251
ag215
ag501
ag500
ag502
ag409
ag1111
ag646
ag262
ag111
ag263
ag166
ag359
ag1108
ag181
ag278
ag401
ag267
ag1129
ag1123
ag650
ag687
ag208
ag103
ag423
ag507
ag511
ag586
ag372
ag151
ag504
ag583
ag360
ag25
ag365
ag57
ag338
ag506
ag126
ag378
ag1127
ag182
asg31
I1000
sg32
g513
sg34
g35
sg36
I0
sg37
(iread_data
Room
p1204
(dp1205
g31
g174
sg32
g175
sbsba(ischedule
Activity
p1206
(dp1207
g8
g1094
sg31
I1000
sg32
g1099
sg34
g35
sg36
I0
sg37
(iread_data
Room
p1208
(dp1209
g31
g158
sg32
g159
sbsba(ischedule
Activity
p1210
(dp1211
g8
(lp1212
g609
ag288
ag378
ag473
ag400
ag600
ag620
ag381
ag333
ag619
ag185
ag613
ag616
ag105
ag302
ag84
ag612
ag296
ag301
ag294
ag354
ag23
ag617
ag533
ag295
ag608
ag78
ag290
ag10
ag599
ag603
ag45
ag298
ag543
asg31
g1158
sg32
g304
sg34
g66
sg36
g92
sg37
(iread_data
Room
p1213
(dp1214
g31
g195
sg32
g196
sbsba(ischedule
Activity
p1215
(dp1216
g8
(lp1217
g113
ag981
ag977
ag50
ag979
asg31
g720
sg32
g520
sg34
g155
sg36
g92
sg37
(iread_data
Room
p1218
(dp1219
g31
g70
sg32
g71
sbsba(ischedule
Activity
p1220
(dp1221
g8
(lp1222
g228
ag356
ag399
ag384
ag386
ag394
ag191
ag227
ag401
ag383
ag21
ag392
ag48
ag378
ag225
ag57
ag376
ag59
ag372
ag398
asg31
g573
sg32
g238
sg34
g155
sg36
g92
sg37
(iread_data
Room
p1223
(dp1224
g31
g95
sg32
g96
sbsbaa(lp1225
(ischedule
Activity
p1226
(dp1227
g8
g625
sg31
I1000
sg32
g670
sg34
g35
sg36
I0
sg37
(iread_data
Room
p1228
(dp1229
g31
g174
sg32
g175
sbsba(ischedule
Activity
p1230
(dp1231
g8
(lp1232
g213
ag209
asg31
g1051
sg32
g218
sg34
g155
sg36
g67
sg37
(iread_data
Room
p1233
(dp1234
g31
g95
sg32
g96
sbsba(ischedule
Activity
p1235
(dp1236
g8
(lp1237
g981
ag385
ag363
ag632
ag400
aS'12170832'
p1238
ag1125
aS'25557516'
p1239
ag103
ag83
ag75
asg31
g548
sg32
g549
sg34
g155
sg36
g67
sg37
(iread_data
Room
p1240
(dp1241
g31
g132
sg32
g133
sbsba(ischedule
Activity
p1242
(dp1243
g8
(lp1244
g268
ag829
ag149
ag20
ag365
ag214
ag352
ag121
ag604
asg31
g1169
sg32
g270
sg34
g155
sg36
g171
sg37
(iread_data
Room
p1245
(dp1246
g31
g70
sg32
g71
sbsba(ischedule
Activity
p1247
(dp1248
g8
(lp1249
g141
ag139
ag179
ag137
ag104
asg31
g526
sg32
g154
sg34
g66
sg36
g92
sg37
(iread_data
Room
p1250
(dp1251
g31
g195
sg32
g196
sbsba(ischedule
Activity
p1252
(dp1253
g8
(lp1254
g46
ag90
ag84
ag53
ag55
ag59
ag11
ag76
ag61
ag77
ag86
ag79
ag60
ag80
ag25
ag91
ag54
ag81
ag82
ag78
ag48
ag49
ag88
ag75
ag83
ag51
ag58
ag45
ag52
ag47
ag85
ag56
ag89
ag87
ag63
ag57
ag62
ag50
asg31
I1000
sg32
g65
sg34
g35
sg36
I0
sg37
(iread_data
Room
p1255
(dp1256
g31
g158
sg32
g159
sbsba(ischedule
Activity
p1257
(dp1258
g8
(lp1259
g294
ag12
ag415
ag640
ag827
ag266
ag605
ag832
ag59
ag834
ag836
ag773
ag837
ag265
ag785
ag786
ag399
ag60
ag835
ag81
ag51
ag825
ag77
ag264
ag826
ag148
ag828
ag375
asg31
g1169
sg32
g270
sg34
g155
sg36
g92
sg37
(iread_data
Room
p1260
(dp1261
g31
g40
sg32
g41
sbsbaa(lp1262
(ischedule
Activity
p1263
(dp1264
g8
(lp1265
g348
ag701
ag183
ag289
ag756
ag288
ag757
ag265
ag1191
ag1033
ag1040
ag643
ag1194
ag1039
ag339
ag423
ag346
ag170
ag506
ag296
ag589
ag726
ag728
ag773
ag179
ag588
ag60
ag758
ag585
ag632
ag1034
ag1043
ag1014
ag395
ag579
ag627
ag1035
ag394
ag661
ag1115
ag867
ag582
ag1197
ag365
ag540
ag11
ag640
ag471
ag1036
ag1042
ag152
ag1037
ag446
ag1011
ag581
ag587
ag665
ag1038
ag145
ag266
ag385
ag503
ag1193
ag244
ag1041
ag408
ag143
ag664
ag28
ag1196
ag1045
ag1044
ag226
ag586
ag499
ag638
ag580
ag868
ag207
ag497
ag1026
ag300
ag122
ag383
ag505
ag771
ag1192
ag502
ag708
ag628
ag380
ag20
ag1113
ag151
ag729
ag653
ag356
ag1195
ag598
ag709
ag584
ag148
ag785
ag337
ag833
ag583
asg31
I1000
sg32
g591
sg34
g35
sg36
I0
sg37
(iread_data
Room
p1266
(dp1267
g31
g174
sg32
g175
sbsba(ischedule
Activity
p1268
(dp1269
g8
(lp1270
g691
ag184
ag534
ag687
ag628
ag227
ag686
ag471
ag688
ag120
ag105
ag689
ag690
ag427
ag207
asg31
g416
sg32
g417
sg34
g66
sg36
g92
sg37
(iread_data
Room
p1271
(dp1272
g31
g158
sg32
g159
sbsba(ischedule
Activity
p1273
(dp1274
g8
(lp1275
g205
ag717
ag113
ag475
ag534
ag977
ag247
ag719
ag474
ag537
ag981
ag359
ag718
ag141
ag582
ag58
ag232
ag125
ag180
ag978
ag427
ag535
ag979
ag476
ag980
ag50
ag716
asg31
I1000
sg32
g520
sg34
g35
sg36
I0
sg37
(iread_data
Room
p1276
(dp1277
g31
g70
sg32
g71
sbsba(ischedule
Activity
p1278
(dp1279
g8
(lp1280
g415
ag55
ag190
ag202
ag16
ag102
ag90
ag211
ag387
ag347
ag642
ag208
ag398
ag589
ag140
ag30
ag209
ag100
ag337
ag350
ag601
ag343
ag537
ag925
ag78
ag556
ag232
ag139
ag188
ag756
ag754
asg31
g777
sg32
g764
sg34
g66
sg36
g67
sg37
(iread_data
Room
p1281
(dp1282
g31
g40
sg32
g41
sbsba(ischedule
Activity
p1283
(dp1284
g8
(lp1285
g85
ag300
ag977
ag611
ag606
ag628
ag278
ag440
ag635
ag179
ag339
ag1095
ag669
ag537
ag298
asg31
g478
sg32
g479
sg34
g155
sg36
S'5'
p1286
sg37
(iread_data
Room
p1287
(dp1288
g31
g132
sg32
g133
sbsba(ischedule
Activity
p1289
(dp1290
g8
(lp1291
g192
ag350
ag377
ag1124
ag555
ag728
ag1108
ag647
ag772
ag955
aS'53267490'
p1292
ag1194
ag660
ag426
ag138
ag1116
ag268
aS'16912993'
p1293
ag509
ag333
ag361
ag427
ag1143
aS'5590289'
p1294
ag164
ag323
ag1128
ag349
asg31
g548
sg32
g549
sg34
g155
sg36
g92
sg37
(iread_data
Room
p1295
(dp1296
g31
g195
sg32
g196
sbsba(ischedule
Activity
p1297
(dp1298
g8
(lp1299
g30
ag664
ag323
ag469
ag812
ag810
ag729
ag25
ag801
ag811
ag338
ag813
ag698
ag345
ag190
ag394
ag802
ag803
ag800
ag654
asg31
g449
sg32
g450
sg34
g66
sg36
g92
sg37
(iread_data
Room
p1300
(dp1301
g31
g95
sg32
g96
sbsbaa(lp1302
(ischedule
Activity
p1303
(dp1304
g8
g1254
sg31
I1000
sg32
g65
sg34
g35
sg36
I0
sg37
(iread_data
Room
p1305
(dp1306
g31
g195
sg32
g196
sbsba(ischedule
Activity
p1307
(dp1308
g8
g433
sg31
I1000
sg32
g218
sg34
g35
sg36
I0
sg37
(iread_data
Room
p1309
(dp1310
g31
g174
sg32
g175
sbsba(ischedule
Activity
p1311
(dp1312
g8
g971
sg31
I1000
sg32
g450
sg34
g35
sg36
I0
sg37
(iread_data
Room
p1313
(dp1314
g31
g158
sg32
g159
sbsba(ischedule
Activity
p1315
(dp1316
g8
g1275
sg31
I1000
sg32
g520
sg34
g35
sg36
I0
sg37
(iread_data
Room
p1317
(dp1318
g31
g95
sg32
g96
sbsba(ischedule
Activity
p1319
(dp1320
g8
g697
sg31
I1000
sg32
g710
sg34
g35
sg36
I0
sg37
(iread_data
Room
p1321
(dp1322
g31
g40
sg32
g41
sbsba(ischedule
Activity
p1323
(dp1324
g8
(lp1325
g339
ag346
ag357
ag333
ag336
ag352
ag335
ag342
ag21
asg31
g1135
sg32
g366
sg34
g155
sg36
g67
sg37
(iread_data
Room
p1326
(dp1327
g31
g132
sg32
g133
sbsba(ischedule
Activity
p1328
(dp1329
g8
(lp1330
g631
ag619
ag81
ag415
ag214
ag785
ag148
ag831
ag59
ag786
ag557
ag294
ag827
ag830
ag833
ag837
ag149
ag605
ag352
ag829
ag832
ag604
asg31
g269
sg32
g270
sg34
g66
sg36
g171
sg37
(iread_data
Room
p1331
(dp1332
g31
g70
sg32
g71
sbsbaaa(lp1333
(lp1334
a(lp1335
a(lp1336
a(lp1337
a(lp1338
aasS'timeslot_dict'
p1339
(dp1340
I0
S'9:00-11:00'
p1341
sI1
S'11:00-13:00'
p1342
sI2
S'13:00-15:00'
p1343
sI3
S'15:00-17:00'
p1344
sI4
S'17:00-19:00'
p1345
ssS'day_dict'
p1346
(dp1347
I0
S'Monday'
p1348
sI1
S'Tuesday'
p1349
sI2
S'Wednesday'
p1350
sI3
S'Thursday'
p1351
sI4
S'Friday'
p1352
ssb.