(ischedule
Schedule
p0
(dp1
S'timetable'
p2
(lp3
(lp4
(lp5
(ischedule
Activity
p6
(dp7
S'participants'
p8
(lp9
S'14383795'
p10
aS'76487754'
p11
aS'41578612'
p12
aS'69086548'
p13
aS'93041523'
p14
aS'97371272'
p15
aS'77264363'
p16
aS'89338938'
p17
aS'85335143'
p18
aS'75521763'
p19
aS'26406342'
p20
aS'23547619'
p21
aS'70336464'
p22
aS'48308205'
p23
aS'36785409'
p24
aS'12430748'
p25
aS'12077419'
p26
aS'92496780'
p27
aS'40434933'
p28
aS'9332762'
p29
aS'11996292'
p30
aS'14309255'
p31
aS'68315599'
p32
aS'10149535'
p33
aS'75664412'
p34
aS'44901052'
p35
aS'7106649'
p36
aS'32204977'
p37
aS'31194811'
p38
aS'47982619'
p39
aS'43680781'
p40
aS'21192048'
p41
aS'22323043'
p42
aS'4697362'
p43
aS'58565406'
p44
aS'77636749'
p45
aS'6249823'
p46
aS'37110913'
p47
asS'capacity'
p48
I1000
sS'name'
p49
S'Technology for games'
p50
sS'ttype'
p51
S'lectures'
p52
sS'group_id'
p53
I0
sS'room'
p54
(iread_data
Room
p55
(dp56
g48
S'60'
p57
sg49
S'C1.112'
p58
sbsba(ischedule
Activity
p59
(dp60
g8
(lp61
S'20830477'
p62
aS'83443653'
p63
aS'81218347'
p64
aS'31897288'
p65
aS'97019450'
p66
aS'79879876'
p67
aS'48357272'
p68
aS'86807027'
p69
aS'4568018'
p70
aS'57467488'
p71
aS'20331158'
p72
aS'66122625'
p73
aS'14138904'
p74
aS'22871048'
p75
ag35
aS'45660925'
p76
aS'92977271'
p77
aS'71839156'
p78
aS'14941752'
p79
ag42
aS'42171678'
p80
aS'59075181'
p81
aS'53107172'
p82
aS'87210640'
p83
aS'76393508'
p84
aS'56749879'
p85
aS'14816774'
p86
aS'98105190'
p87
aS'4353500'
p88
aS'14591033'
p89
ag19
aS'13658563'
p90
ag47
aS'58736785'
p91
aS'75997788'
p92
aS'1696500'
p93
aS'36903574'
p94
aS'97417002'
p95
aS'4783858'
p96
ag30
aS'53775014'
p97
aS'94930277'
p98
aS'61060652'
p99
aS'19858730'
p100
asg48
I1000
sg49
S'Heuristieken 1'
p101
sg51
g52
sg53
I0
sg54
(iread_data
Room
p102
(dp103
g48
S'56'
p104
sg49
S'A1.10'
p105
sbsba(ischedule
Activity
p106
(dp107
g8
(lp108
S'18266644'
p109
aS'62701040'
p110
aS'23257088'
p111
aS'75585647'
p112
aS'36748818'
p113
aS'58332004'
p114
asg48
S'15'
p115
sg49
S'Informatie- en organsatieontwerp'
p116
sg51
S'labs'
p117
sg53
S'1'
p118
sg54
(iread_data
Room
p119
(dp120
g48
S'41'
p121
sg49
S'A1.04'
p122
sbsba(ischedule
Activity
p123
(dp124
g8
(lp125
S'74131924'
p126
aS'70878567'
p127
aS'68360259'
p128
aS'98780382'
p129
aS'51566595'
p130
aS'21964491'
p131
aS'37744525'
p132
aS'17823206'
p133
aS'91196968'
p134
aS'52311353'
p135
aS'87314964'
p136
aS'93023961'
p137
aS'13996448'
p138
aS'99453514'
p139
aS'13116738'
p140
aS'81022997'
p141
aS'19337738'
p142
aS'50143947'
p143
aS'25330192'
p144
asg48
S'10'
p145
sg49
S'Data Mining'
p146
sg51
g117
sg53
g118
sg54
(iread_data
Room
p147
(dp148
g48
S'20'
p149
sg49
S'A1.08'
p150
sbsba(ischedule
Activity
p151
(dp152
g8
(lp153
S'3474870'
p154
aS'43902015'
p155
aS'78243495'
p156
aS'14847953'
p157
aS'1137946'
p158
aS'2416751'
p159
aS'76648468'
p160
aS'69459473'
p161
aS'22288615'
p162
aS'41790793'
p163
aS'28358060'
p164
aS'14303208'
p165
aS'10698627'
p166
aS'76903244'
p167
aS'17092717'
p168
aS'43460038'
p169
aS'89180944'
p170
aS'77392404'
p171
aS'66034145'
p172
aS'5615125'
p173
aS'33877725'
p174
aS'39230359'
p175
aS'67073567'
p176
aS'16333449'
p177
aS'72895450'
p178
aS'57086672'
p179
asg48
S'20'
p180
sg49
S'Webprogrammeren en databases'
p181
sg51
g117
sg53
S'2'
p182
sg54
(iread_data
Room
p183
(dp184
g48
S'48'
p185
sg49
S'B0.201'
p186
sbsba(ischedule
Activity
p187
(dp188
g8
(lp189
S'4709948'
p190
aS'37399898'
p191
aS'61443567'
p192
aS'37279234'
p193
aS'26857113'
p194
aS'2550487'
p195
aS'54395877'
p196
aS'27582862'
p197
aS'34262212'
p198
aS'83415514'
p199
asg48
S'20'
p200
sg49
S'Programmeren in Java 2'
p201
sg51
g117
sg53
S'3'
p202
sg54
(iread_data
Room
p203
(dp204
g48
S'22'
p205
sg49
S'A1.06'
p206
sbsba(ischedule
Activity
p207
(dp208
g8
(lp209
S'88636924'
p210
aS'10792879'
p211
aS'5595824'
p212
aS'60312776'
p213
aS'46989508'
p214
aS'88752563'
p215
ag38
aS'1766560'
p216
aS'79167252'
p217
aS'83266686'
p218
aS'88855695'
p219
aS'13911001'
p220
aS'11741347'
p221
aS'44391517'
p222
aS'65960683'
p223
aS'15911353'
p224
aS'79033175'
p225
ag23
aS'13284244'
p226
aS'34872117'
p227
aS'66701209'
p228
aS'9067939'
p229
aS'92665222'
p230
aS'24613625'
p231
aS'53202517'
p232
aS'3407554'
p233
aS'2079771'
p234
ag87
aS'48503689'
p235
aS'39459642'
p236
aS'72796858'
p237
aS'27950803'
p238
aS'49683101'
p239
aS'95631564'
p240
aS'27187154'
p241
aS'77896638'
p242
aS'6723948'
p243
aS'7957843'
p244
ag26
aS'5368702'
p245
aS'37770881'
p246
ag178
aS'30658799'
p247
aS'76661016'
p248
aS'58522654'
p249
aS'8464817'
p250
ag32
aS'86291592'
p251
aS'75599734'
p252
aS'75759231'
p253
aS'80135353'
p254
aS'65852230'
p255
ag34
aS'86988337'
p256
aS'2317551'
p257
aS'84524083'
p258
aS'11915563'
p259
aS'40791377'
p260
aS'94687383'
p261
aS'76802764'
p262
aS'81385263'
p263
aS'34110913'
p264
aS'34243356'
p265
aS'73236988'
p266
aS'42778953'
p267
aS'43689934'
p268
aS'54772132'
p269
aS'95007221'
p270
ag31
asg48
I1000
sg49
S'Compilerbouw'
p271
sg51
g52
sg53
I0
sg54
(iread_data
Room
p272
(dp273
g48
S'117'
p274
sg49
S'C0.110'
p275
sbsbaa(lp276
(ischedule
Activity
p277
(dp278
g8
(lp279
S'56988998'
p280
aS'33252501'
p281
aS'90067329'
p282
aS'94467156'
p283
ag132
ag241
aS'61518436'
p284
aS'46701583'
p285
ag236
ag239
ag194
aS'3685034'
p286
aS'38296757'
p287
aS'23798155'
p288
aS'63111000'
p289
aS'85236626'
p290
ag260
aS'77240949'
p291
ag234
aS'5976174'
p292
aS'67625383'
p293
aS'15051051'
p294
asg48
I1000
sg49
S'Machine Learning'
p295
sg51
g52
sg53
I0
sg54
(iread_data
Room
p296
(dp297
g48
g104
sg49
g105
sbsba(ischedule
Activity
p298
(dp299
g8
(lp300
g294
aS'88176729'
p301
aS'77831658'
p302
aS'66120270'
p303
aS'30050930'
p304
aS'44868097'
p305
aS'6913074'
p306
aS'56815156'
p307
aS'30195935'
p308
ag231
aS'64600457'
p309
aS'89985072'
p310
ag174
ag243
aS'59544049'
p311
aS'96453361'
p312
aS'29526540'
p313
aS'21029457'
p314
ag249
ag85
aS'79617364'
p315
aS'28359697'
p316
aS'22731474'
p317
ag40
aS'20883994'
p318
aS'247918'
p319
ag86
ag126
aS'3168419'
p320
aS'11068043'
p321
aS'7308727'
p322
ag266
aS'22826928'
p323
ag89
aS'33930505'
p324
ag18
aS'42196732'
p325
aS'54026378'
p326
ag70
ag127
ag131
aS'5298748'
p327
aS'96054456'
p328
ag232
aS'81200278'
p329
asg48
I1000
sg49
S'Bioinformatica'
p330
sg51
g52
sg53
I0
sg54
(iread_data
Room
p331
(dp332
g48
g274
sg49
g275
sbsba(ischedule
Activity
p333
(dp334
g8
(lp335
g19
ag143
ag93
ag82
aS'50184318'
p336
aS'54310617'
p337
aS'87758823'
p338
aS'68601184'
p339
aS'43027916'
p340
aS'64296965'
p341
aS'35330349'
p342
aS'45556081'
p343
aS'31416266'
p344
aS'82689818'
p345
aS'17575088'
p346
ag213
asg48
S'20'
p347
sg49
S'Collectieve Intelligentie'
p348
sg51
g117
sg53
S'4'
p349
sg54
(iread_data
Room
p350
(dp351
g48
g57
sg49
g58
sbsba(ischedule
Activity
p352
(dp353
g8
(lp354
g80
ag251
aS'24277163'
p355
aS'15902055'
p356
ag242
aS'48601268'
p357
aS'5517869'
p358
ag96
aS'51741554'
p359
aS'46052388'
p360
aS'1075391'
p361
ag20
ag325
ag223
aS'25106480'
p362
aS'28357474'
p363
aS'13092455'
p364
ag246
aS'17222374'
p365
aS'86000192'
p366
ag267
aS'73980360'
p367
ag192
aS'1665980'
p368
aS'34773179'
p369
asg48
g347
sg49
g348
sg51
g117
sg53
g118
sg54
(iread_data
Room
p370
(dp371
g48
g185
sg49
g186
sbsba(ischedule
Activity
p372
(dp373
g8
(lp374
S'52552718'
p375
asg48
S'10'
p376
sg49
S'Autonomous Agents 2'
p377
sg51
g117
sg53
g182
sg54
(iread_data
Room
p378
(dp379
g48
g205
sg49
g206
sbsba(ischedule
Activity
p380
(dp381
g8
(lp382
g178
ag23
aS'28618400'
p383
ag216
ag244
ag69
aS'74182182'
p384
asg48
S'15'
p385
sg49
S'Project Numerical Recipes'
p386
sg51
g117
sg53
g202
sg54
(iread_data
Room
p387
(dp388
g48
g121
sg49
g122
sbsba(ischedule
Activity
p389
(dp390
g8
(lp391
g47
aS'97136582'
p392
aS'59753700'
p393
ag42
asg48
g145
sg49
g146
sg51
g117
sg53
g182
sg54
(iread_data
Room
p394
(dp395
g48
g149
sg49
g150
sbsbaa(lp396
(ischedule
Activity
p397
(dp398
g8
(lp399
S'58469172'
p400
ag241
ag337
ag72
ag66
aS'79366078'
p401
ag81
aS'38499176'
p402
aS'63408522'
p403
aS'76924297'
p404
ag17
aS'31633723'
p405
ag133
aS'51186803'
p406
ag175
aS'8522855'
p407
aS'37498675'
p408
aS'99272880'
p409
aS'65003379'
p410
aS'46570285'
p411
ag134
ag85
ag258
ag45
aS'23391676'
p412
aS'28957789'
p413
ag89
aS'51542218'
p414
aS'63634350'
p415
aS'10872825'
p416
ag318
ag341
aS'39659121'
p417
ag94
aS'39919665'
p418
aS'14671406'
p419
aS'78735049'
p420
aS'47605891'
p421
aS'24875739'
p422
aS'54569540'
p423
ag109
aS'42115591'
p424
aS'84110134'
p425
ag259
ag13
ag198
aS'78136904'
p426
aS'63955238'
p427
aS'31247305'
p428
ag211
aS'44940353'
p429
ag173
ag245
ag288
ag114
aS'14398123'
p430
aS'38329455'
p431
aS'49631542'
p432
ag384
ag311
aS'72547110'
p433
aS'91139627'
p434
ag284
aS'47462856'
p435
ag291
aS'41585485'
p436
aS'55474917'
p437
aS'32705005'
p438
aS'94955328'
p439
aS'79858178'
p440
aS'9731271'
p441
ag280
ag283
ag64
ag317
ag15
ag286
aS'20239127'
p442
aS'7492204'
p443
ag328
aS'41527759'
p444
ag249
aS'82688900'
p445
ag265
asg48
I1000
sg49
S'Kansrekenen 2'
p446
sg51
g52
sg53
I0
sg54
(iread_data
Room
p447
(dp448
g48
g274
sg49
g275
sbsba(ischedule
Activity
p449
(dp450
g8
(lp451
g251
ag246
ag364
aS'64228258'
p452
ag192
ag213
aS'97135019'
p453
ag356
ag344
aS'13534377'
p454
ag267
aS'76123484'
p455
asg48
S'20'
p456
sg49
g348
sg51
S'tutorials'
p457
sg53
g118
sg54
(iread_data
Room
p458
(dp459
g48
g149
sg49
g150
sbsba(ischedule
Activity
p460
(dp461
g8
(lp462
g28
ag42
ag44
ag31
ag37
ag46
ag38
ag25
ag19
ag12
ag22
ag16
ag47
ag35
ag11
ag41
ag20
ag27
ag14
ag21
ag26
ag43
ag10
ag24
asg48
S'20'
p463
sg49
g50
sg51
g457
sg53
g118
sg54
(iread_data
Room
p464
(dp465
g48
g57
sg49
g58
sbsba(ischedule
Activity
p466
(dp467
g8
(lp468
S'60661905'
p469
ag131
aS'670011'
p470
aS'29640619'
p471
ag323
ag256
aS'33776961'
p472
aS'93566383'
p473
aS'92778619'
p474
ag162
ag138
ag242
aS'1048485'
p475
ag111
aS'34900967'
p476
aS'88263855'
p477
ag269
aS'10702778'
p478
aS'70072978'
p479
aS'7386961'
p480
aS'15249775'
p481
aS'88597745'
p482
asg48
g200
sg49
g201
sg51
g117
sg53
S'5'
p483
sg54
(iread_data
Room
p484
(dp485
g48
g205
sg49
g206
sbsba(ischedule
Activity
p486
(dp487
g8
(lp488
g306
ag322
ag303
ag320
ag70
ag18
ag329
ag232
asg48
S'20'
p489
sg49
g330
sg51
g117
sg53
g182
sg54
(iread_data
Room
p490
(dp491
g48
g121
sg49
g122
sbsba(ischedule
Activity
p492
(dp493
g8
(lp494
g358
aS'18144425'
p495
ag365
ag32
aS'36527838'
p496
ag80
ag220
aS'58699305'
p497
aS'59111489'
p498
aS'77376714'
p499
aS'41489515'
p500
ag247
aS'51650744'
p501
aS'1181560'
p502
ag40
ag294
aS'66621166'
p503
asg48
S'20'
p504
sg49
S'Moderne Databases'
p505
sg51
g117
sg53
g182
sg54
(iread_data
Room
p506
(dp507
g48
g185
sg49
g186
sbsbaa(lp508
(ischedule
Activity
p509
(dp510
g8
(lp511
S'53139134'
p512
aS'33672995'
p513
ag241
aS'34173695'
p514
aS'31306819'
p515
aS'94686490'
p516
ag18
ag413
aS'58040377'
p517
aS'79888156'
p518
ag193
aS'58592894'
p519
aS'47477884'
p520
ag420
ag384
ag359
aS'45915482'
p521
aS'27064249'
p522
ag366
aS'22168693'
p523
aS'6709529'
p524
ag112
aS'38179241'
p525
ag306
aS'77306636'
p526
aS'59220392'
p527
aS'86180471'
p528
ag33
aS'23628642'
p529
ag285
ag243
ag356
ag89
aS'81155296'
p530
aS'82412626'
p531
aS'72526473'
p532
aS'87602030'
p533
ag328
aS'56544130'
p534
ag215
aS'56348773'
p535
aS'40141996'
p536
ag68
aS'12091019'
p537
aS'65978354'
p538
aS'78544592'
p539
aS'55412918'
p540
aS'93361408'
p541
aS'75446434'
p542
aS'73823548'
p543
ag453
aS'55530367'
p544
aS'27925117'
p545
aS'10609762'
p546
ag415
ag248
aS'33760909'
p547
aS'47932106'
p548
ag92
ag218
ag497
aS'26260141'
p549
aS'78443067'
p550
aS'53585410'
p551
ag400
ag287
ag217
aS'65408517'
p552
ag199
ag305
aS'19717077'
p553
ag173
ag411
ag96
aS'23658570'
p554
aS'11593163'
p555
aS'75623387'
p556
aS'3678531'
p557
ag69
aS'61520025'
p558
aS'16097870'
p559
ag438
ag422
ag86
ag315
aS'70939718'
p560
aS'14179347'
p561
aS'23565001'
p562
ag441
aS'73302736'
p563
ag219
aS'87900893'
p564
aS'72665524'
p565
aS'4546613'
p566
ag309
aS'56872729'
p567
aS'58253841'
p568
aS'27298319'
p569
ag211
ag452
aS'6939933'
p570
aS'62363761'
p571
ag165
ag314
aS'62105897'
p572
aS'80188025'
p573
asg48
I1000
sg49
S'Calculus 2'
p574
sg51
g52
sg53
I0
sg54
(iread_data
Room
p575
(dp576
g48
g274
sg49
g275
sbsba(ischedule
Activity
p577
(dp578
g8
(lp579
g329
aS'21677389'
p580
ag157
aS'34765676'
p581
ag172
ag530
ag473
aS'64768422'
p582
aS'69634191'
p583
aS'37701751'
p584
ag263
aS'28055464'
p585
aS'44828429'
p586
aS'65675896'
p587
ag248
ag21
ag404
aS'20374340'
p588
aS'3707829'
p589
ag195
aS'19214659'
p590
ag525
ag191
ag245
ag566
asg48
I1000
sg49
S'Interactie-ontwerp'
p591
sg51
g52
sg53
I0
sg54
(iread_data
Room
p592
(dp593
g48
g185
sg49
g186
sbsba(ischedule
Activity
p594
(dp595
g8
(lp596
S'61611295'
p597
aS'88627897'
p598
aS'62872965'
p599
ag259
ag237
ag75
ag569
ag35
aS'36508571'
p600
aS'62356458'
p601
ag126
aS'70113753'
p602
ag47
ag130
ag559
ag358
aS'68409833'
p603
ag375
aS'34806836'
p604
ag100
ag326
ag236
asg48
I1000
sg49
g377
sg51
g52
sg53
I0
sg54
(iread_data
Room
p605
(dp606
g48
g57
sg49
g58
sbsba(ischedule
Activity
p607
(dp608
g8
(lp609
g32
ag111
ag77
ag112
ag109
ag127
ag19
aS'11459236'
p610
ag37
aS'29718115'
p611
ag140
aS'8557857'
p612
ag35
ag110
ag113
ag45
ag114
ag90
aS'17496687'
p613
aS'19958553'
p614
aS'23983476'
p615
asg48
I1000
sg49
g116
sg51
g52
sg53
I0
sg54
(iread_data
Room
p616
(dp617
g48
g205
sg49
g206
sbsbaa(lp618
(ischedule
Activity
p619
(dp620
g8
(lp621
g232
ag28
ag46
ag165
ag154
ag174
ag157
ag173
ag175
ag155
ag167
ag169
ag160
ag177
ag171
aS'20618153'
p622
ag168
aS'24891081'
p623
asg48
S'20'
p624
sg49
g181
sg51
g457
sg53
g118
sg54
g147
sba(ischedule
Activity
p625
(dp626
g8
(lp627
S'22699561'
p628
ag343
aS'96104167'
p629
ag547
ag346
ag267
ag336
ag339
aS'72577292'
p630
ag361
ag110
ag360
ag29
ag364
ag143
ag356
ag325
aS'29474737'
p631
ag82
ag368
ag363
ag455
ag322
aS'57595888'
p632
aS'64393888'
p633
ag452
ag454
ag20
ag345
ag344
ag341
ag223
ag80
ag249
ag365
ag246
ag213
ag21
ag93
ag355
ag192
ag131
ag453
ag19
ag242
ag367
ag357
aS'3233378'
p634
ag359
ag342
ag471
ag337
ag369
ag362
ag358
ag338
ag251
ag366
ag291
ag96
ag340
asg48
I1000
sg49
g348
sg51
g52
sg53
I0
sg54
(iread_data
Room
p635
(dp636
g48
g274
sg49
g275
sbsba(ischedule
Activity
p637
(dp638
g8
(lp639
g127
ag45
ag90
ag32
ag37
ag77
ag612
ag140
ag19
ag614
ag615
ag610
ag35
ag611
ag613
asg48
g115
sg49
g116
sg51
g117
sg53
g182
sg54
(iread_data
Room
p640
(dp641
g48
g185
sg49
g186
sbsba(ischedule
Activity
p642
(dp643
g8
g596
sg48
I1000
sg49
g377
sg51
g52
sg53
I0
sg54
(iread_data
Room
p644
(dp645
g48
g121
sg49
g122
sbsba(ischedule
Activity
p646
(dp647
g8
(lp648
S'88596522'
p649
asg48
S'25'
p650
sg49
S'Algoritmen en complexiteit'
p651
sg51
g457
sg53
g118
sg54
(iread_data
Room
p652
(dp653
g48
g205
sg49
g206
sbsba(ischedule
Activity
p654
(dp655
g8
(lp656
g63
aS'82854435'
p657
aS'48678993'
p658
ag307
ag340
ag75
ag424
ag469
ag68
ag562
ag92
ag563
aS'97838175'
p659
ag302
ag288
aS'65318664'
p660
ag573
ag513
aS'78821918'
p661
ag12
ag341
ag414
ag265
ag18
ag212
aS'78822885'
p662
ag24
ag109
ag66
ag559
aS'62613937'
p663
aS'88737765'
p664
ag476
aS'72456780'
p665
aS'13718298'
p666
aS'70193386'
p667
aS'58480929'
p668
ag534
aS'18477924'
p669
ag179
aS'14637758'
p670
aS'5085194'
p671
aS'4921119'
p672
ag554
aS'73350019'
p673
aS'87830198'
p674
aS'72586808'
p675
ag135
ag439
asg48
I1000
sg49
S'Analysemethoden en -technieken'
p676
sg51
g52
sg53
I0
sg54
(iread_data
Room
p677
(dp678
g48
g104
sg49
g105
sbsba(ischedule
Activity
p679
(dp680
g8
(lp681
g475
ag441
ag132
ag71
ag571
aS'60352393'
p682
aS'123355'
p683
ag141
ag383
aS'12170832'
p684
ag81
ag263
aS'59887191'
p685
ag324
aS'82872148'
p686
asg48
S'20'
p687
sg49
S'Netwerken en systeembeveiliging'
p688
sg51
g117
sg53
g202
sg54
(iread_data
Room
p689
(dp690
g48
g57
sg49
g58
sbsbaaa(lp691
(lp692
(ischedule
Activity
p693
(dp694
g8
(lp695
g426
ag522
ag630
ag520
asg48
S'10'
p696
sg49
S'Advanced Heuristics'
p697
sg51
g117
sg53
g182
sg54
(iread_data
Room
p698
(dp699
g48
g274
sg49
g275
sbsba(ischedule
Activity
p700
(dp701
g8
(lp702
g143
ag393
ag132
ag47
ag138
ag130
ag136
ag141
aS'45414528'
p703
ag133
ag134
ag564
asg48
S'10'
p704
sg49
g146
sg51
g457
sg53
g202
sg54
(iread_data
Room
p705
(dp706
g48
g149
sg49
g150
sbsba(ischedule
Activity
p707
(dp708
g8
(lp709
g471
aS'99283252'
p710
ag156
ag170
ag31
ag550
ag292
ag213
aS'31103066'
p711
ag375
ag601
ag499
aS'51593625'
p712
aS'41153310'
p713
aS'44671041'
p714
ag363
ag405
aS'52715680'
p715
ag660
aS'58074656'
p716
ag419
ag42
aS'80709893'
p717
ag552
ag96
aS'21095566'
p718
ag425
aS'96554914'
p719
ag197
aS'40343779'
p720
aS'9287708'
p721
ag634
asg48
S'40'
p722
sg49
S'Software engineering'
p723
sg51
g117
sg53
g118
sg54
(iread_data
Room
p724
(dp725
g48
g57
sg49
g58
sbsba(ischedule
Activity
p726
(dp727
g8
(lp728
g111
ag114
ag90
ag610
ag140
ag612
ag613
ag109
ag19
ag32
ag113
ag77
ag614
ag615
ag110
asg48
S'15'
p729
sg49
g116
sg51
g457
sg53
g182
sg54
(iread_data
Room
p730
(dp731
g48
g104
sg49
g105
sbsba(ischedule
Activity
p732
(dp733
g8
g579
sg48
I1000
sg49
g591
sg51
g52
sg53
I0
sg54
(iread_data
Room
p734
(dp735
g48
g121
sg49
g122
sbsba(ischedule
Activity
p736
(dp737
g8
g300
sg48
I1000
sg49
g330
sg51
g52
sg53
I0
sg54
(iread_data
Room
p738
(dp739
g48
g185
sg49
g186
sbsba(ischedule
Activity
p740
(dp741
g8
(lp742
g35
ag259
ag236
ag602
ag604
ag600
ag75
ag569
ag358
asg48
S'10'
p743
sg49
g377
sg51
g457
sg53
g182
sg54
(iread_data
Room
p744
(dp745
g48
g205
sg49
g206
sbsbaa(lp746
(ischedule
Activity
p747
(dp748
g8
(lp749
g598
ag126
ag599
ag559
ag237
ag47
ag130
ag601
ag597
asg48
g743
sg49
g377
sg51
g457
sg53
g118
sg54
(iread_data
Room
p750
(dp751
g48
g104
sg49
g105
sbsba(ischedule
Activity
p752
(dp753
g8
g399
sg48
I1000
sg49
g446
sg51
g52
sg53
I0
sg54
(iread_data
Room
p754
(dp755
g48
g274
sg49
g275
sbsba(ischedule
Activity
p756
(dp757
g8
(lp758
g175
ag158
ag622
ag178
ag172
ag164
ag623
ag170
ag161
ag174
ag630
aS'49908313'
p759
ag232
ag179
ag522
ag192
ag168
ag162
ag28
ag165
ag166
ag154
aS'53512831'
p760
ag455
ag169
ag452
ag163
ag155
ag176
ag171
ag98
ag160
ag156
ag159
ag46
ag177
ag173
ag167
ag157
asg48
I1000
sg49
g181
sg51
g52
sg53
I0
sg54
(iread_data
Room
p761
(dp762
g48
g121
sg49
g122
sbsba(ischedule
Activity
p763
(dp764
g8
(lp765
g603
ag375
ag326
ag100
asg48
g743
sg49
g377
sg51
g457
sg53
g202
sg54
(iread_data
Room
p766
(dp767
g48
g205
sg49
g206
sbsba(ischedule
Activity
p768
(dp769
g8
g609
sg48
I1000
sg49
g116
sg51
g52
sg53
I0
sg54
(iread_data
Room
p770
(dp771
g48
g185
sg49
g186
sbsba(ischedule
Activity
p772
(dp773
g8
(lp774
g231
ag285
ag710
ag674
ag533
ag568
aS'82066165'
p775
ag246
aS'40633534'
p776
ag545
ag369
aS'25994016'
p777
ag664
asg48
S'15'
p778
sg49
S'Project Genetic Algorithms'
p779
sg51
g117
sg53
g182
sg54
(iread_data
Room
p780
(dp781
g48
g57
sg49
g58
sbsba(ischedule
Activity
p782
(dp783
g8
(lp784
g703
ag564
ag329
ag73
asg48
g145
sg49
g146
sg51
g117
sg53
g202
sg54
(iread_data
Room
p785
(dp786
g48
g149
sg49
g150
sbsbaa(lp787
(ischedule
Activity
p788
(dp789
g8
(lp790
S'49922855'
p791
ag258
ag426
ag682
aS'36213792'
p792
ag24
aS'84449005'
p793
ag47
ag284
ag719
ag364
aS'27370083'
p794
ag355
aS'32044893'
p795
ag139
ag286
ag469
ag190
ag323
aS'77960666'
p796
ag179
aS'51052738'
p797
ag393
ag442
ag171
ag75
aS'51415617'
p798
ag474
ag715
ag191
aS'70844780'
p799
ag667
ag472
aS'99975346'
p800
ag306
ag256
ag327
aS'82390428'
p801
ag12
ag423
aS'20095994'
p802
aS'27805666'
p803
aS'68286356'
p804
ag238
aS'42406214'
p805
ag674
ag90
ag40
ag287
aS'90474003'
p806
ag666
asg48
I1000
sg49
S'Reflectie op de digitale cultuur'
p807
sg51
g52
sg53
I0
sg54
(iread_data
Room
p808
(dp809
g48
g57
sg49
g58
sbsba(ischedule
Activity
p810
(dp811
g8
(lp812
g249
ag131
ag338
ag325
ag628
ag339
ag345
ag223
asg48
g456
sg49
g348
sg51
g457
sg53
g182
sg54
(iread_data
Room
p813
(dp814
g48
g121
sg49
g122
sbsba(ischedule
Activity
p815
(dp816
g8
(lp817
g257
ag557
ag66
ag132
aS'39905995'
p818
aS'88519892'
p819
ag77
ag703
ag254
ag285
ag554
ag159
ag328
ag409
ag714
ag402
aS'90296821'
p820
ag400
ag415
ag437
ag217
ag243
ag289
ag85
ag29
aS'66433883'
p821
ag166
ag713
ag622
ag520
ag235
aS'23215240'
p822
ag441
asg48
g200
sg49
g201
sg51
g117
sg53
g182
sg54
(iread_data
Room
p823
(dp824
g48
g274
sg49
g275
sbsba(ischedule
Activity
p825
(dp826
g8
(lp827
g250
ag222
ag69
ag134
ag366
ag251
ag133
ag261
ag236
ag67
aS'73196865'
p828
ag94
ag602
aS'63096281'
p829
ag283
aS'64053722'
p830
asg48
g200
sg49
g201
sg51
g117
sg53
S'6'
p831
sg54
(iread_data
Room
p832
(dp833
g48
g185
sg49
g186
sbsba(ischedule
Activity
p834
(dp835
g8
(lp836
g18
ag113
ag519
aS'48198668'
p837
ag661
ag221
aS'27241113'
p838
ag710
ag218
ag31
ag170
ag30
ag479
ag19
ag313
asg48
g504
sg49
g505
sg51
g117
sg53
g118
sg54
(iread_data
Room
p839
(dp840
g48
g149
sg49
g150
sbsba(ischedule
Activity
p841
(dp842
g8
(lp843
g322
ag471
ag29
ag632
ag455
ag547
ag634
ag633
ag21
ag291
ag631
ag110
asg48
g347
sg49
g348
sg51
g117
sg53
g202
sg54
(iread_data
Room
p844
(dp845
g48
g205
sg49
g206
sbsba(ischedule
Activity
p846
(dp847
g8
(lp848
g130
ag143
ag178
ag549
ag715
aS'19540225'
p849
ag356
ag154
aS'67817269'
p850
ag581
aS'23652927'
p851
ag551
ag720
ag436
asg48
S'25'
p852
sg49
g651
sg51
g117
sg53
g118
sg54
(iread_data
Room
p853
(dp854
g48
g104
sg49
g105
sbsbaa(lp855
(ischedule
Activity
p856
(dp857
g8
(lp858
g221
ag226
ag235
ag237
ag241
ag243
ag26
ag247
ag32
ag257
ag263
ag267
ag269
ag220
ag229
ag260
ag178
ag217
ag268
ag214
ag238
ag244
ag31
ag256
ag233
ag262
ag252
ag219
ag216
ag87
ag248
ag246
ag234
ag253
ag215
ag254
ag255
ag222
ag38
ag251
ag34
ag227
ag211
ag213
ag210
ag239
ag245
ag232
ag223
ag261
ag264
ag250
ag228
ag270
ag218
ag240
ag265
ag212
ag236
asg48
S'40'
p859
sg49
g271
sg51
g117
sg53
g118
sg54
(iread_data
Room
p860
(dp861
g48
g57
sg49
g58
sbsba(ischedule
Activity
p862
(dp863
g8
(lp864
g565
aS'72683344'
p865
ag522
ag776
ag157
aS'39429093'
p866
ag383
ag320
ag799
ag630
ag520
ag230
ag318
ag426
ag69
ag21
ag92
aS'1886996'
p867
ag682
ag663
asg48
I1000
sg49
g697
sg51
g52
sg53
I0
sg54
(iread_data
Room
p868
(dp869
g48
g185
sg49
g186
sbsba(ischedule
Activity
p870
(dp871
g8
g300
sg48
I1000
sg49
g330
sg51
g52
sg53
I0
sg54
(iread_data
Room
p872
(dp873
g48
g274
sg49
g275
sbsba(ischedule
Activity
p874
(dp875
g8
(lp876
S'82968410'
p877
aS'5739011'
p878
ag130
ag329
ag867
aS'52304977'
p879
ag800
ag36
ag179
ag658
ag91
ag559
ag317
ag547
ag258
ag517
ag141
ag545
ag415
aS'72652638'
p880
aS'35315956'
p881
ag470
ag533
ag292
ag290
ag156
ag65
ag192
ag481
ag340
ag581
aS'83869542'
p882
asg48
I1000
sg49
S'Heuristieken 2'
p883
sg51
g52
sg53
I0
sg54
(iread_data
Room
p884
(dp885
g48
g104
sg49
g105
sbsba(ischedule
Activity
p886
(dp887
g8
(lp888
g170
ag837
ag550
ag499
ag503
ag113
ag498
ag80
ag838
aS'49219163'
p889
ag793
asg48
S'20'
p890
sg49
g505
sg51
g457
sg53
g118
sg54
(iread_data
Room
p891
(dp892
g48
g121
sg49
g122
sbsbaa(lp893
(ischedule
Activity
p894
(dp895
g8
(lp896
g190
ag720
ag560
aS'64246605'
p897
aS'3883025'
p898
ag93
aS'56191333'
p899
aS'26207525'
p900
ag265
ag430
asg48
g687
sg49
g688
sg51
g117
sg53
g349
sg54
(iread_data
Room
p901
(dp902
g48
g149
sg49
g150
sbsba(ischedule
Activity
p903
(dp904
g8
(lp905
g306
ag311
ag243
ag127
ag266
ag315
ag304
ag301
ag131
ag231
ag313
ag321
ag126
ag305
ag308
ag319
ag309
ag310
ag323
ag328
ag317
ag322
ag324
ag85
ag327
ag326
asg48
S'20'
p906
sg49
g330
sg51
g457
sg53
g118
sg54
(iread_data
Room
p907
(dp908
g48
g274
sg49
g275
sbsba(ischedule
Activity
p909
(dp910
g8
g9
sg48
I1000
sg49
g50
sg51
g52
sg53
I0
sg54
(iread_data
Room
p911
(dp912
g48
g185
sg49
g186
sbsba(ischedule
Activity
p913
(dp914
g8
(lp915
g89
ag249
ag314
ag174
ag329
ag232
ag312
ag302
ag325
ag70
ag303
ag40
ag318
ag320
ag307
ag86
asg48
g906
sg49
g330
sg51
g457
sg53
g182
sg54
(iread_data
Room
p916
(dp917
g48
g205
sg49
g206
sbsba(ischedule
Activity
p918
(dp919
g8
g279
sg48
I1000
sg49
g295
sg51
g52
sg53
I0
sg54
(iread_data
Room
p920
(dp921
g48
g57
sg49
g58
sbsba(ischedule
Activity
p922
(dp923
g8
(lp924
g215
ag217
ag219
ag165
ag199
ag218
ag211
ag248
ag356
ag519
ag422
ag544
ag441
ag549
ag516
ag528
ag453
ag366
ag565
ag525
ag551
ag497
ag415
ag400
ag571
ag534
ag173
ag529
ag112
ag420
ag359
asg48
S'40'
p925
sg49
g574
sg51
g457
sg53
g118
sg54
(iread_data
Room
p926
(dp927
g48
g121
sg49
g122
sbsba(ischedule
Activity
p928
(dp929
g8
(lp930
g179
ag192
ag455
ag452
ag630
ag176
ag760
ag158
ag159
ag166
ag170
ag162
ag98
ag759
ag164
ag156
ag161
ag163
ag178
ag172
ag522
asg48
g624
sg49
g181
sg51
g457
sg53
g182
sg54
(iread_data
Room
p931
(dp932
g48
g104
sg49
g105
sbsbaaa(lp933
(lp934
(ischedule
Activity
p935
(dp936
g8
g627
sg48
I1000
sg49
g348
sg51
g52
sg53
I0
sg54
(iread_data
Room
p937
(dp938
g48
g274
sg49
g275
sbsba(ischedule
Activity
p939
(dp940
g8
g790
sg48
I1000
sg49
g807
sg51
g52
sg53
I0
sg54
(iread_data
Room
p941
(dp942
g48
g104
sg49
g105
sbsba(ischedule
Activity
p943
(dp944
g8
(lp945
g343
ag630
ag170
aS'58866007'
p946
ag288
ag865
ag72
ag227
ag383
aS'70015932'
p947
ag74
ag218
ag33
ag345
ag611
ag239
aS'13798030'
p948
ag28
ag169
ag545
aS'59289233'
p949
asg48
I1000
sg49
S'Architectuur en computerorganisatie'
p950
sg51
g52
sg53
I0
sg54
(iread_data
Room
p951
(dp952
g48
g185
sg49
g186
sbsba(ischedule
Activity
p953
(dp954
g8
(lp955
g392
asg48
g704
sg49
g146
sg51
g457
sg53
g182
sg54
(iread_data
Room
p956
(dp957
g48
g205
sg49
g206
sbsba(ischedule
Activity
p958
(dp959
g8
(lp960
g130
ag569
asg48
g376
sg49
g377
sg51
g117
sg53
g118
sg54
(iread_data
Room
p961
(dp962
g48
g121
sg49
g122
sbsba(ischedule
Activity
p963
(dp964
g8
(lp965
g496
ag23
ag516
ag191
ag439
ag603
aS'83210352'
p966
ag358
ag600
aS'26172512'
p967
aS'90743504'
p968
aS'34588570'
p969
aS'79937969'
p970
ag154
ag473
aS'75005528'
p971
ag384
ag64
ag562
ag344
ag342
aS'32595335'
p972
ag338
aS'16011419'
p973
aS'96118484'
p974
ag599
ag177
aS'80998260'
p975
ag672
ag134
ag135
ag325
aS'54074680'
p976
ag265
ag78
ag315
ag437
aS'66570705'
p977
ag424
ag946
ag33
aS'21311067'
p978
ag263
ag559
ag567
ag99
ag242
ag540
ag267
ag89
ag12
ag470
ag717
ag402
asg48
I1000
sg49
S'Lineaire Algebra'
p979
sg51
g52
sg53
I0
sg54
(iread_data
Room
p980
(dp981
g48
g57
sg49
g58
sbsba(ischedule
Activity
p982
(dp983
g8
(lp984
g70
ag10
aS'51472074'
p985
asg48
S'15'
p986
sg49
S'Compilerbouw practicum'
p987
sg51
g117
sg53
g182
sg54
(iread_data
Room
p988
(dp989
g48
g149
sg49
g150
sbsbaa(lp990
(ischedule
Activity
p991
(dp992
g8
g209
sg48
I1000
sg49
g271
sg51
g52
sg53
I0
sg54
(iread_data
Room
p993
(dp994
g48
g274
sg49
g275
sbsba(ischedule
Activity
p995
(dp996
g8
(lp997
g306
ag541
ag559
ag86
ag328
ag315
ag243
ag515
ag535
ag557
ag560
ag18
ag542
ag92
ag570
ag384
ag552
ag536
ag555
ag438
ag285
ag413
ag566
ag69
ag314
ag567
ag521
ag550
ag532
ag514
ag305
ag540
ag548
ag543
ag523
asg48
g925
sg49
g574
sg51
g457
sg53
g202
sg54
(iread_data
Room
p998
(dp999
g48
g104
sg49
g105
sbsba(ischedule
Activity
p1000
(dp1001
g8
(lp1002
g126
ag131
ag135
ag42
ag329
ag139
ag137
ag140
ag73
ag129
ag142
ag127
ag144
ag128
asg48
g704
sg49
g146
sg51
g457
sg53
g118
sg54
(iread_data
Room
p1003
(dp1004
g48
g185
sg49
g186
sbsba(ischedule
Activity
p1005
(dp1006
g8
(lp1007
g634
ag343
ag368
ag322
ag80
ag19
ag633
ag342
ag346
ag632
ag143
ag355
ag358
ag110
ag631
ag361
ag367
ag369
ag630
ag336
asg48
g456
sg49
g348
sg51
g457
sg53
g202
sg54
(iread_data
Room
p1008
(dp1009
g48
g149
sg49
g150
sbsba(ischedule
Activity
p1010
(dp1011
g8
(lp1012
g715
ag20
aS'1695839'
p1013
ag671
aS'44151631'
p1014
aS'535689'
p1015
ag587
ag74
aS'64418623'
p1016
ag165
ag822
ag143
ag402
aS'47260040'
p1017
ag310
aS'74361881'
p1018
aS'41644639'
p1019
ag777
aS'51673172'
p1020
ag321
ag37
aS'5892092'
p1021
ag78
asg48
g986
sg49
g987
sg51
g117
sg53
g202
sg54
(iread_data
Room
p1022
(dp1023
g48
g121
sg49
g122
sbsba(ischedule
Activity
p1024
(dp1025
g8
(lp1026
g531
ag545
ag309
ag563
ag241
ag411
ag287
ag517
ag530
ag522
ag527
ag518
ag526
ag533
ag538
ag568
ag553
ag558
ag554
ag68
ag524
ag33
ag89
ag556
ag573
ag452
ag546
ag539
ag547
ag513
ag569
ag96
ag572
ag562
ag537
ag193
ag520
ag561
ag564
ag512
asg48
g925
sg49
g574
sg51
g457
sg53
g182
sg54
(iread_data
Room
p1027
(dp1028
g48
g57
sg49
g58
sbsbaa(lp1029
(ischedule
Activity
p1030
(dp1031
g8
(lp1032
g68
ag475
ag363
ag310
ag419
ag712
ag601
ag405
ag603
ag42
ag720
ag96
ag174
ag132
ag357
ag686
aS'37830626'
p1033
ag424
ag719
ag305
ag572
ag375
ag563
ag717
ag566
ag716
ag714
ag710
aS'3727435'
p1034
ag311
ag238
ag321
ag549
ag169
ag499
ag713
ag444
ag326
ag362
asg48
S'40'
p1035
sg49
g723
sg51
g457
sg53
g118
sg54
(iread_data
Room
p1036
(dp1037
g48
g121
sg49
g122
sbsba(ischedule
Activity
p1038
(dp1039
g8
(lp1040
g13
ag15
ag45
ag32
ag17
ag34
ag36
ag33
ag30
ag18
ag40
ag29
ag23
ag39
asg48
g463
sg49
g50
sg51
g457
sg53
g182
sg54
(iread_data
Room
p1041
(dp1042
g48
g57
sg49
g58
sbsba(ischedule
Activity
p1043
(dp1044
g8
(lp1045
g252
ag99
ag947
ag966
ag634
ag213
ag292
ag143
ag301
ag266
ag31
ag660
ag425
ag197
ag170
ag135
ag75
ag552
ag715
ag240
ag259
ag521
ag471
ag17
ag70
ag283
ag428
ag711
ag44
ag718
ag721
ag437
ag156
ag666
ag550
aS'14072826'
p1046
asg48
g1035
sg49
g723
sg51
g457
sg53
g182
sg54
(iread_data
Room
p1047
(dp1048
g48
g104
sg49
g105
sbsba(ischedule
Activity
p1049
(dp1050
g8
(lp1051
g233
ag632
ag220
ag368
aS'42297781'
p1052
ag565
ag775
ag551
ag415
ag649
aS'91250534'
p1053
ag409
ag610
aS'55103073'
p1054
asg48
g986
sg49
g987
sg51
g117
sg53
g118
sg54
(iread_data
Room
p1055
(dp1056
g48
g185
sg49
g186
sbsbaa(lp1057
(ischedule
Activity
p1058
(dp1059
g8
g965
sg48
I1000
sg49
g979
sg51
g52
sg53
I0
sg54
(iread_data
Room
p1060
(dp1061
g48
g57
sg49
g58
sbsba(ischedule
Activity
p1062
(dp1063
g8
g627
sg48
I1000
sg49
g348
sg51
g52
sg53
I0
sg54
(iread_data
Room
p1064
(dp1065
g48
g274
sg49
g275
sbsba(ischedule
Activity
p1066
(dp1067
g8
g945
sg48
I1000
sg49
g950
sg51
g52
sg53
I0
sg54
(iread_data
Room
p1068
(dp1069
g48
g205
sg49
g206
sbsba(ischedule
Activity
p1070
(dp1071
g8
(lp1072
g306
ag62
ag436
aS'12782624'
p1073
ag796
ag114
ag572
aS'85284256'
p1074
aS'51791169'
p1075
ag39
aS'73893840'
p1076
ag712
aS'64947290'
p1077
asg48
g200
sg49
g201
sg51
g117
sg53
g349
sg54
(iread_data
Room
p1078
(dp1079
g48
g149
sg49
g150
sbsba(ischedule
Activity
p1080
(dp1081
g8
(lp1082
g67
ag73
ag42
ag87
ag98
ag68
ag92
ag47
ag69
ag81
ag66
ag79
ag84
ag85
ag63
ag35
ag30
ag97
ag65
ag70
ag77
ag94
ag71
ag100
asg48
S'25'
p1083
sg49
g101
sg51
g457
sg53
g182
sg54
(iread_data
Room
p1084
(dp1085
g48
g104
sg49
g105
sbsba(ischedule
Activity
p1086
(dp1087
g8
(lp1088
g316
ag318
ag301
ag328
ag312
ag294
ag323
ag317
ag313
ag86
ag314
ag302
ag310
ag324
ag321
ag304
ag305
ag309
ag327
ag131
asg48
g489
sg49
g330
sg51
g117
sg53
g202
sg54
(iread_data
Room
p1089
(dp1090
g48
g121
sg49
g122
sbsbaa(lp1091
(ischedule
Activity
p1092
(dp1093
g8
(lp1094
g221
ag232
ag235
ag241
ag247
ag32
ag31
ag178
ag216
ag246
ag257
ag248
ag214
ag267
ag210
ag253
ag219
ag227
ag262
ag260
ag261
ag237
ag268
ag220
ag270
asg48
S'40'
p1095
sg49
g271
sg51
g457
sg53
g118
sg54
(iread_data
Room
p1096
(dp1097
g48
g104
sg49
g105
sbsba(ischedule
Activity
p1098
(dp1099
g8
(lp1100
g682
ag719
ag190
ag796
ag323
ag179
ag667
ag474
ag90
ag791
ag798
ag715
ag806
ag24
ag364
ag40
asg48
S'20'
p1101
sg49
g807
sg51
g457
sg53
g118
sg54
(iread_data
Room
p1102
(dp1103
g48
g57
sg49
g58
sbsba(ischedule
Activity
p1104
(dp1105
g8
(lp1106
g137
ag42
ag134
ag392
ag143
ag393
ag703
ag138
ag144
ag126
ag136
ag140
ag127
ag135
ag131
ag73
ag130
ag141
ag329
ag564
ag129
ag139
ag133
ag128
ag47
ag132
ag142
asg48
I1000
sg49
g146
sg51
g52
sg53
I0
sg54
(iread_data
Room
p1107
(dp1108
g48
g121
sg49
g122
sbsba(ischedule
Activity
p1109
(dp1110
g8
(lp1111
g238
ag75
ag805
ag666
ag797
ag191
ag803
ag256
ag287
ag801
ag12
ag355
asg48
g1101
sg49
g807
sg51
g457
sg53
g182
sg54
(iread_data
Room
p1112
(dp1113
g48
g149
sg49
g150
sbsba(ischedule
Activity
p1114
(dp1115
g8
(lp1116
g231
ag266
ag230
ag249
ag258
ag242
ag23
ag259
ag224
ag225
asg48
g859
sg49
g271
sg51
g117
sg53
g182
sg54
(iread_data
Room
p1117
(dp1118
g48
g205
sg49
g206
sbsba(ischedule
Activity
p1119
(dp1120
g8
(lp1121
g285
ag519
aS'91527663'
p1122
ag499
ag821
ag718
ag368
ag649
ag26
aS'64554442'
p1123
ag131
aS'51509565'
p1124
ag569
ag426
ag256
ag312
ag615
ag155
ag407
ag589
ag292
ag1077
ag94
ag586
ag444
ag71
ag419
ag263
ag345
asg48
g852
sg49
g651
sg51
g117
sg53
g182
sg54
(iread_data
Room
p1125
(dp1126
g48
g274
sg49
g275
sbsba(ischedule
Activity
p1127
(dp1128
g8
(lp1129
g428
ag1074
ag453
aS'56121590'
p1130
ag171
ag303
ag665
aS'62736669'
p1131
ag345
ag799
ag144
ag675
ag658
ag251
aS'63573738'
p1132
ag1015
aS'19058315'
p1133
aS'5590289'
p1134
ag35
aS'25557516'
p1135
ag565
asg48
g687
sg49
g688
sg51
g117
sg53
g118
sg54
(iread_data
Room
p1136
(dp1137
g48
g185
sg49
g186
sbsbaaa(lp1138
(lp1139
(ischedule
Activity
p1140
(dp1141
g8
(lp1142
g329
ag882
ag340
ag470
ag517
ag879
ag800
ag141
ag658
ag65
asg48
S'20'
p1143
sg49
g883
sg51
g457
sg53
g182
sg54
(iread_data
Room
p1144
(dp1145
g48
g104
sg49
g105
sbsba(ischedule
Activity
p1146
(dp1147
g8
(lp1148
g220
ag309
ag218
ag355
ag156
ag500
ag294
aS'27916487'
p1149
ag221
ag19
ag661
ag289
asg48
g890
sg49
g505
sg51
g457
sg53
g182
sg54
(iread_data
Room
p1150
(dp1151
g48
g121
sg49
g122
sbsba(ischedule
Activity
p1152
(dp1153
g8
(lp1154
g368
ag821
ag1124
ag586
ag26
ag615
ag519
ag154
ag436
ag407
ag94
ag569
ag419
ag1123
ag263
ag1077
ag426
ag589
ag850
ag131
ag345
ag356
ag285
ag143
ag715
ag851
ag720
ag649
ag1122
ag292
ag581
ag718
ag444
ag178
ag549
ag130
ag312
ag551
ag155
ag256
ag849
ag71
ag499
asg48
I1000
sg49
g651
sg51
g52
sg53
I0
sg54
(iread_data
Room
p1155
(dp1156
g48
g185
sg49
g186
sbsba(ischedule
Activity
p1157
(dp1158
g8
(lp1159
g318
ag320
ag21
ag157
ag776
ag865
ag682
ag867
ag92
ag565
ag69
ag799
ag866
ag663
ag383
ag230
asg48
g696
sg49
g697
sg51
g117
sg53
g118
sg54
(iread_data
Room
p1160
(dp1161
g48
g205
sg49
g206
sbsba(ischedule
Activity
p1162
(dp1163
g8
(lp1164
g317
ag266
ag321
ag322
ag17
ag805
ag1132
ag302
ag235
aS'40911986'
p1165
ag425
aS'19662602'
p1166
ag267
aS'63939720'
p1167
ag195
ag226
ag215
ag213
asg48
g385
sg49
g386
sg51
g117
sg53
g182
sg54
(iread_data
Room
p1168
(dp1169
g48
g149
sg49
g150
sbsba(ischedule
Activity
p1170
(dp1171
g8
(lp1172
g75
ag47
ag358
ag126
ag599
ag602
ag604
ag603
ag236
ag601
ag237
ag600
ag259
ag598
ag559
ag35
ag326
ag597
ag100
asg48
g376
sg49
g377
sg51
g117
sg53
g202
sg54
(iread_data
Room
p1173
(dp1174
g48
g57
sg49
g58
sbsba(ischedule
Activity
p1175
(dp1176
g8
(lp1177
g232
ag28
ag98
ag46
ag192
ag522
ag455
ag630
ag622
ag759
ag760
ag623
ag452
asg48
g180
sg49
g181
sg51
g117
sg53
g118
sg54
(iread_data
Room
p1178
(dp1179
g48
g274
sg49
g275
sbsbaa(lp1180
(ischedule
Activity
p1181
(dp1182
g8
(lp1183
g495
ag365
ag199
ag661
ag358
aS'96082155'
p1184
ag500
ag499
ag220
ag837
ag18
ag710
ag479
ag336
ag472
ag218
ag838
ag539
ag898
ag113
ag309
ag216
ag793
ag519
ag498
ag32
ag502
ag289
ag1149
ag889
ag114
ag156
ag190
ag80
ag294
ag432
ag19
ag496
ag221
ag501
ag497
ag313
ag411
ag247
ag355
ag503
ag170
ag40
ag435
ag550
ag92
aS'13218321'
p1185
ag31
ag30
asg48
I1000
sg49
g505
sg51
g52
sg53
I0
sg54
(iread_data
Room
p1186
(dp1187
g48
g57
sg49
g58
sbsba(ischedule
Activity
p1188
(dp1189
g8
(lp1190
g34
ag109
ag88
ag308
ag329
ag471
ag322
ag269
aS'53267490'
p1191
ag580
ag359
ag674
ag94
aS'16912993'
p1192
ag244
ag407
ag402
ag392
asg48
g687
sg49
g688
sg51
g117
sg53
g182
sg54
(iread_data
Room
p1193
(dp1194
g48
g185
sg49
g186
sbsba(ischedule
Activity
p1195
(dp1196
g8
(lp1197
g249
ag131
ag452
ag628
ag630
ag454
ag629
ag453
asg48
g347
sg49
g348
sg51
g117
sg53
g182
sg54
(iread_data
Room
p1198
(dp1199
g48
g149
sg49
g150
sbsba(ischedule
Activity
p1200
(dp1201
g8
(lp1202
g437
ag311
ag301
ag310
ag326
ag132
ag266
ag174
ag283
ag321
ag259
ag305
ag70
ag75
ag143
ag566
ag17
ag362
ag135
ag424
ag444
ag252
ag686
ag240
ag666
ag169
ag1034
ag99
ag549
ag966
ag572
ag357
ag947
ag563
ag238
ag44
ag1046
ag475
ag521
ag428
ag1033
ag68
ag603
asg48
g722
sg49
g723
sg51
g117
sg53
g182
sg54
(iread_data
Room
p1203
(dp1204
g48
g104
sg49
g105
sbsba(ischedule
Activity
p1205
(dp1206
g8
(lp1207
g317
ag581
ag192
ag292
ag559
ag867
ag880
ag881
ag258
ag290
ag481
ag36
ag179
ag156
ag415
ag130
ag547
ag877
ag878
ag533
ag545
ag91
asg48
g1143
sg49
g883
sg51
g457
sg53
g118
sg54
(iread_data
Room
p1208
(dp1209
g48
g121
sg49
g122
sbsba(ischedule
Activity
p1210
(dp1211
g8
(lp1212
g672
ag345
ag28
ag567
ag325
ag375
ag432
ag665
aS'58083680'
p1213
ag86
ag168
ag537
ag313
ag536
ag584
ag516
ag471
ag365
ag1122
ag519
ag236
ag470
aS'4529208'
p1214
ag30
ag85
aS'13132925'
p1215
aS'27123462'
p1216
ag548
ag520
ag1130
ag114
ag682
ag71
aS'15187217'
p1217
ag899
ag237
ag796
ag111
ag328
ag227
ag214
ag882
ag130
ag319
ag661
ag256
ag900
ag364
aS'5526560'
p1218
ag455
ag341
ag543
ag971
ag479
ag528
aS'54540997'
p1219
ag355
ag671
ag806
ag1131
ag20
ag242
ag155
aS'59397895'
p1220
ag358
ag554
aS'25077484'
p1221
ag340
ag215
ag320
ag1077
ag414
asg48
I1000
sg49
S'Databases 2'
p1222
sg51
g52
sg53
I0
sg54
(iread_data
Room
p1223
(dp1224
g48
g274
sg49
g275
sbsbaa(lp1225
(ischedule
Activity
p1226
(dp1227
g8
(lp1228
g472
ag355
ag793
ag156
ag550
ag411
ag309
ag898
ag435
ag539
ag289
ag190
ag216
ag199
ag432
ag92
ag1149
ag889
ag1185
ag1184
ag114
ag336
asg48
g504
sg49
g505
sg51
g117
sg53
g202
sg54
(iread_data
Room
p1229
(dp1230
g48
g104
sg49
g105
sbsba(ischedule
Activity
p1231
(dp1232
g8
(lp1233
g249
ag89
ag311
ag308
ag326
ag85
ag266
ag127
ag243
ag307
ag315
ag231
ag126
ag174
ag319
ag40
ag325
asg48
g489
sg49
g330
sg51
g117
sg53
g118
sg54
(iread_data
Room
p1234
(dp1235
g48
g149
sg49
g150
sbsba(ischedule
Activity
p1236
(dp1237
g8
(lp1238
g615
ag154
ag569
ag131
ag143
ag130
ag356
ag345
ag519
ag368
ag71
ag312
ag256
ag720
ag263
ag178
ag285
ag1124
ag581
ag155
ag292
ag1077
ag849
ag1122
ag94
ag589
ag551
ag715
ag821
ag26
ag419
ag499
ag850
ag851
ag549
ag436
ag1123
ag407
ag586
ag426
ag718
ag444
asg48
g650
sg49
g651
sg51
g457
sg53
g182
sg54
(iread_data
Room
p1239
(dp1240
g48
g274
sg49
g275
sbsba(ischedule
Activity
p1241
(dp1242
g8
(lp1243
g20
ag96
ag365
ag366
ag242
ag21
ag360
ag363
ag337
ag359
ag547
ag629
ag93
ag29
ag471
ag82
ag291
ag340
ag341
ag357
ag362
asg48
g456
sg49
g348
sg51
g457
sg53
g349
sg54
(iread_data
Room
p1244
(dp1245
g48
g205
sg49
g206
sbsba(ischedule
Activity
p1246
(dp1247
g8
(lp1248
g251
ag138
ag364
aS'34691309'
p1249
ag141
ag286
aS'37419523'
p1250
ag79
ag795
aS'21070547'
p1251
aS'32183908'
p1252
ag570
aS'90103047'
p1253
ag601
ag971
aS'81116418'
p1254
ag543
ag590
ag25
asg48
g385
sg49
g386
sg51
g117
sg53
g118
sg54
(iread_data
Room
p1255
(dp1256
g48
g121
sg49
g122
sbsba(ischedule
Activity
p1257
(dp1258
g8
(lp1259
g18
ag294
ag316
asg48
g906
sg49
g330
sg51
g457
sg53
g202
sg54
(iread_data
Room
p1260
(dp1261
g48
g185
sg49
g186
sbsba(ischedule
Activity
p1262
(dp1263
g8
(lp1264
g238
ag161
ag228
ag661
ag1020
aS'75680261'
p1265
aS'55480737'
p1266
ag12
asg48
g778
sg49
g779
sg51
g117
sg53
g202
sg54
(iread_data
Room
p1267
(dp1268
g48
g57
sg49
g58
sbsbaa(lp1269
(ischedule
Activity
p1270
(dp1271
g8
(lp1272
g218
ag231
ag242
ag255
ag256
ag258
ag266
ag26
ag230
ag249
ag240
ag263
ag239
ag238
ag244
ag213
ag217
ag233
ag251
ag252
ag250
ag226
ag223
ag234
ag236
ag212
ag224
ag215
ag229
ag269
ag264
ag243
ag259
ag38
ag23
ag225
ag254
ag245
ag265
ag34
ag211
ag228
ag222
ag87
asg48
g1095
sg49
g271
sg51
g457
sg53
g182
sg54
(iread_data
Room
p1273
(dp1274
g48
g185
sg49
g186
sbsba(ischedule
Activity
p1275
(dp1276
g8
g1106
sg48
I1000
sg49
g146
sg51
g52
sg53
I0
sg54
(iread_data
Room
p1277
(dp1278
g48
g104
sg49
g105
sbsba(ischedule
Activity
p1279
(dp1280
g8
(lp1281
g64
ag72
ag74
ag80
ag82
ag86
ag19
ag96
ag99
ag89
ag78
ag62
ag75
ag88
ag83
ag90
ag95
ag76
ag91
ag93
asg48
g1083
sg49
g101
sg51
g457
sg53
g118
sg54
(iread_data
Room
p1282
(dp1283
g48
g149
sg49
g150
sbsba(ischedule
Activity
p1284
(dp1285
g8
(lp1286
g339
ag356
ag241
ag517
ag439
ag110
ag412
ag344
ag615
ag309
ag290
ag633
aS'28943658'
p1287
ag672
ag551
ag443
asg48
g200
sg49
g201
sg51
g117
sg53
g118
sg54
(iread_data
Room
p1288
(dp1289
g48
g205
sg49
g206
sbsba(ischedule
Activity
p1290
(dp1291
g8
g758
sg48
I1000
sg49
g181
sg51
g52
sg53
I0
sg54
(iread_data
Room
p1292
(dp1293
g48
g57
sg49
g58
sbsba(ischedule
Activity
p1294
(dp1295
g8
(lp1296
g1184
ag92
ag495
ag32
ag358
ag114
ag502
ag472
ag31
ag710
ag519
ag898
ag501
ag496
ag216
ag40
ag336
ag432
ag411
ag539
ag479
ag190
ag497
ag365
ag18
ag1185
ag30
ag435
ag313
ag199
ag247
asg48
g890
sg49
g505
sg51
g457
sg53
g202
sg54
(iread_data
Room
p1297
(dp1298
g48
g121
sg49
g122
sbsba(ischedule
Activity
p1299
(dp1300
g8
(lp1301
g283
ag793
ag248
ag407
ag603
ag430
ag528
ag1019
ag1218
ag1221
ag561
ag362
ag658
ag1018
ag404
asg48
g778
sg49
g779
sg51
g117
sg53
g118
sg54
(iread_data
Room
p1302
(dp1303
g48
g274
sg49
g275
sbsbaa(lp1304
(ischedule
Activity
p1305
(dp1306
g8
(lp1307
g197
ag213
ag552
ag1033
ag362
ag720
ag419
ag475
ag471
ag966
ag717
ag44
ag549
ag240
ag710
ag947
ag686
ag721
ag305
ag42
ag99
ag437
ag375
ag428
ag156
ag405
ag169
ag424
ag712
ag444
ag283
ag1046
ag135
ag311
ag238
ag301
ag601
ag711
ag715
ag292
ag170
ag96
ag75
ag310
ag143
ag499
ag321
ag719
ag70
ag550
ag259
ag326
ag31
ag132
ag713
ag363
ag634
ag68
ag666
ag714
ag572
ag357
ag521
ag266
ag718
ag563
ag566
ag603
ag17
ag174
ag252
ag716
ag660
ag425
ag1034
asg48
I1000
sg49
g723
sg51
g52
sg53
I0
sg54
(iread_data
Room
p1308
(dp1309
g48
g274
sg49
g275
sbsba(ischedule
Activity
p1310
(dp1311
g8
(lp1312
g139
ag47
ag393
ag258
ag799
ag442
ag171
ag674
ag284
ag306
ag286
ag795
ag426
ag804
ag802
ag423
ag472
ag792
ag794
ag469
ag327
ag793
ag800
asg48
g1101
sg49
g807
sg51
g457
sg53
g202
sg54
(iread_data
Room
p1313
(dp1314
g48
g104
sg49
g105
sbsba(ischedule
Activity
p1315
(dp1316
g8
(lp1317
g130
ag214
ag1131
ag320
ag30
ag1213
ag661
ag364
ag455
ag242
ag319
ag325
ag1217
ag796
ag341
ag882
ag470
ag236
ag358
ag536
ag528
ag1220
ag256
ag682
ag1077
ag900
ag479
ag584
ag519
ag554
ag340
ag1219
ag1214
ag432
ag537
ag671
ag543
ag215
ag567
ag971
ag365
ag375
asg48
S'40'
p1318
sg49
g1222
sg51
g457
sg53
g182
sg54
(iread_data
Room
p1319
(dp1320
g48
g57
sg49
g58
sbsba(ischedule
Activity
p1321
(dp1322
g8
(lp1323
g35
ag127
ag45
ag611
ag37
ag112
asg48
g729
sg49
g116
sg51
g457
sg53
g118
sg54
(iread_data
Room
p1324
(dp1325
g48
g185
sg49
g186
sbsba(ischedule
Activity
p1326
(dp1327
g8
(lp1328
g168
ag1216
ag313
ag1122
ag71
ag1218
ag237
ag114
ag548
ag520
ag806
ag345
ag1215
ag85
ag227
ag28
ag20
ag328
ag1130
ag516
ag665
ag1221
ag355
ag471
ag111
ag414
ag155
ag86
ag672
ag899
asg48
g1318
sg49
g1222
sg51
g457
sg53
g118
sg54
(iread_data
Room
p1329
(dp1330
g48
g121
sg49
g122
sbsbaaa(lp1331
(lp1332
a(lp1333
a(lp1334
a(lp1335
a(lp1336
aasS'timeslot_dict'
p1337
(dp1338
I0
S'9:00-11:00'
p1339
sI1
S'11:00-13:00'
p1340
sI2
S'13:00-15:00'
p1341
sI3
S'15:00-17:00'
p1342
sI4
S'17:00-19:00'
p1343
ssS'day_dict'
p1344
(dp1345
I0
S'Monday'
p1346
sI1
S'Tuesday'
p1347
sI2
S'Wednesday'
p1348
sI3
S'Thursday'
p1349
sI4
S'Friday'
p1350
ssb.