(ischedule
Schedule
p0
(dp1
S'timetable'
p2
(lp3
(lp4
(lp5
(ischedule
Activity
p6
(dp7
S'participants'
p8
(lp9
S'22826928'
p10
aS'32044893'
p11
aS'13658563'
p12
aS'70844780'
p13
aS'57086672'
p14
aS'27805666'
p15
asS'capacity'
p16
S'20'
p17
sS'name'
p18
S'Reflectie op de digitale cultuur'
p19
sS'ttype'
p20
S'tutorials'
p21
sS'group_id'
p22
S'1'
p23
sS'room'
p24
(iread_data
Room
p25
(dp26
g16
S'20'
p27
sg18
S'A1.08'
p28
sbsba(ischedule
Activity
p29
(dp30
g8
(lp31
S'68409833'
p32
aS'52311353'
p33
aS'80709893'
p34
aS'83210352'
p35
aS'29640619'
p36
asg16
S'40'
p37
sg18
S'Software engineering'
p38
sg20
g21
sg22
g23
sg24
(iread_data
Room
p39
(dp40
g16
S'56'
p41
sg18
S'A1.10'
p42
sbsba(ischedule
Activity
p43
(dp44
g8
(lp45
S'36213792'
p46
aS'6913074'
p47
aS'5298748'
p48
aS'37110913'
p49
aS'87830198'
p50
aS'60661905'
p51
aS'78136904'
p52
aS'41578612'
p53
aS'36785409'
p54
aS'51052738'
p55
aS'90474003'
p56
aS'37399898'
p57
aS'51415617'
p58
aS'82390428'
p59
aS'59753700'
p60
asg16
g17
sg18
g19
sg20
g21
sg22
S'3'
p61
sg24
(iread_data
Room
p62
(dp63
g16
S'41'
p64
sg18
S'A1.04'
p65
sbsba(ischedule
Activity
p66
(dp67
g8
(lp68
S'29526540'
p69
aS'85335143'
p70
aS'64600457'
p71
aS'59111489'
p72
aS'15051051'
p73
aS'1766560'
p74
aS'78821918'
p75
aS'30658799'
p76
aS'49219163'
p77
aS'13911001'
p78
aS'17222374'
p79
aS'24277163'
p80
aS'33776961'
p81
aS'11741347'
p82
aS'18144425'
p83
aS'70072978'
p84
aS'41489515'
p85
aS'83266686'
p86
aS'27916487'
p87
aS'63111000'
p88
aS'3883025'
p89
aS'58699305'
p90
aS'43680781'
p91
asg16
S'20'
p92
sg18
S'Moderne Databases'
p93
sg20
S'labs'
p94
sg22
g61
sg24
(iread_data
Room
p95
(dp96
g16
S'22'
p97
sg18
S'A1.06'
p98
sbsba(ischedule
Activity
p99
(dp100
g8
(lp101
S'33877725'
p102
aS'58565406'
p103
aS'89180944'
p104
aS'27950803'
p105
aS'61060652'
p106
aS'43460038'
p107
aS'77376714'
p108
aS'22871048'
p109
aS'78243495'
p110
aS'14309255'
p111
aS'48357272'
p112
aS'4546613'
p113
aS'73236988'
p114
aS'4783858'
p115
aS'65318664'
p116
aS'95631564'
p117
aS'88176729'
p118
aS'75599734'
p119
aS'3233378'
p120
aS'51593625'
p121
aS'5976174'
p122
aS'26260141'
p123
aS'4568018'
p124
aS'62105897'
p125
aS'78443067'
p126
aS'89985072'
p127
aS'11915563'
p128
aS'44671041'
p129
aS'54026378'
p130
aS'41153310'
p131
aS'22323043'
p132
aS'37744525'
p133
aS'50143947'
p134
aS'48601268'
p135
aS'82872148'
p136
aS'65408517'
p137
aS'52715680'
p138
aS'28357474'
p139
aS'14072826'
p140
aS'9287708'
p141
aS'99283252'
p142
aS'13718298'
p143
aS'3727435'
p144
aS'45915482'
p145
aS'37830626'
p146
asg16
S'40'
p147
sg18
g38
sg20
g94
sg22
S'2'
p148
sg24
(iread_data
Room
p149
(dp150
g16
S'60'
p151
sg18
S'C1.112'
p152
sbsba(ischedule
Activity
p153
(dp154
g8
(lp155
S'51542218'
p156
aS'56749879'
p157
aS'72547110'
p158
aS'84110134'
p159
aS'97019450'
p160
aS'14591033'
p161
aS'42115591'
p162
aS'94955328'
p163
aS'97371272'
p164
aS'41585485'
p165
aS'39659121'
p166
aS'20883994'
p167
aS'76924297'
p168
aS'91139627'
p169
aS'18266644'
p170
aS'34243356'
p171
ag52
aS'69086548'
p172
aS'59544049'
p173
aS'58332004'
p174
aS'55474917'
p175
aS'38499176'
p176
aS'99272880'
p177
aS'38329455'
p178
aS'10872825'
p179
aS'10792879'
p180
aS'47462856'
p181
aS'47605891'
p182
aS'32705005'
p183
aS'20331158'
p184
aS'96054456'
p185
aS'27187154'
p186
aS'77636749'
p187
aS'24875739'
p188
aS'34262212'
p189
aS'39919665'
p190
aS'79366078'
p191
aS'14398123'
p192
aS'14671406'
p193
aS'63634350'
p194
aS'79858178'
p195
aS'41527759'
p196
aS'17823206'
p197
aS'77240949'
p198
aS'3685034'
p199
aS'7492204'
p200
aS'49631542'
p201
ag128
aS'63955238'
p202
aS'36903574'
p203
aS'51186803'
p204
aS'65003379'
p205
aS'89338938'
p206
aS'54569540'
p207
aS'9731271'
p208
aS'37498675'
p209
aS'58469172'
p210
aS'94467156'
p211
aS'59075181'
p212
aS'22731474'
p213
aS'20239127'
p214
aS'91196968'
p215
aS'46570285'
p216
aS'64296965'
p217
aS'8522855'
p218
aS'78735049'
p219
aS'61518436'
p220
aS'74182182'
p221
aS'5368702'
p222
aS'54310617'
p223
aS'84524083'
p224
aS'82688900'
p225
aS'58522654'
p226
aS'5615125'
p227
aS'28957789'
p228
aS'63408522'
p229
aS'44940353'
p230
aS'23391676'
p231
aS'39230359'
p232
aS'31247305'
p233
aS'23798155'
p234
aS'56988998'
p235
aS'31633723'
p236
aS'81218347'
p237
asg16
I1000
sg18
S'Kansrekenen 2'
p238
sg20
S'lectures'
p239
sg22
I0
sg24
(iread_data
Room
p240
(dp241
g16
S'117'
p242
sg18
S'C0.110'
p243
sbsba(ischedule
Activity
p244
(dp245
g8
(lp246
S'11068043'
p247
aS'77831658'
p248
aS'48308205'
p249
aS'7308727'
p250
aS'42778953'
p251
aS'60312776'
p252
aS'86291592'
p253
aS'19662602'
p254
aS'63939720'
p255
aS'28618400'
p256
aS'75005528'
p257
aS'81116418'
p258
aS'40911986'
p259
aS'13284244'
p260
aS'13996448'
p261
aS'90103047'
p262
aS'34691309'
p263
aS'72895450'
p264
aS'48503689'
p265
aS'7957843'
p266
aS'19214659'
p267
aS'37419523'
p268
aS'88752563'
p269
aS'63573738'
p270
asg16
S'15'
p271
sg18
S'Project Numerical Recipes'
p272
sg20
g94
sg22
g23
sg24
(iread_data
Room
p273
(dp274
g16
S'48'
p275
sg18
S'B0.201'
p276
sbsbaa(lp277
(ischedule
Activity
p278
(dp279
g8
(lp280
S'23547619'
p281
aS'50184318'
p282
ag80
aS'1696500'
p283
ag36
aS'46052388'
p284
aS'86000192'
p285
aS'68601184'
p286
aS'37770881'
p287
aS'42171678'
p288
aS'97135019'
p289
aS'87758823'
p290
aS'64393888'
p291
asg16
S'20'
p292
sg18
S'Collectieve Intelligentie'
p293
sg20
g94
sg22
S'4'
p294
sg24
(iread_data
Room
p295
(dp296
g16
g27
sg18
g28
sbsba(ischedule
Activity
p297
(dp298
g8
(lp299
S'96453361'
p300
aS'53202517'
p301
ag124
ag247
aS'79617364'
p302
ag70
ag213
ag248
aS'14816774'
p303
aS'81200278'
p304
ag47
aS'44868097'
p305
aS'74131924'
p306
aS'30050930'
p307
ag127
ag185
ag10
aS'247918'
p308
ag118
aS'6723948'
p309
ag130
aS'24613625'
p310
ag161
aS'42196732'
p311
ag157
ag48
aS'3168419'
p312
aS'21964491'
p313
ag71
aS'66120270'
p314
ag167
aS'28359697'
p315
aS'56815156'
p316
ag114
ag91
aS'70878567'
p317
ag250
ag173
ag102
aS'21029457'
p318
ag69
aS'33930505'
p319
ag73
aS'30195935'
p320
ag226
asg16
I1000
sg18
S'Bioinformatica'
p321
sg20
g239
sg22
I0
sg24
(iread_data
Room
p322
(dp323
g16
g275
sg18
g276
sbsba(ischedule
Activity
p324
(dp325
g8
(lp326
S'23257088'
p327
aS'11459236'
p328
aS'23983476'
p329
aS'75585647'
p330
aS'44901052'
p331
ag170
ag12
aS'36748818'
p332
aS'68315599'
p333
ag317
aS'8557857'
p334
aS'62701040'
p335
aS'92977271'
p336
aS'19958553'
p337
aS'13116738'
p338
aS'32204977'
p339
aS'29718115'
p340
ag187
aS'75521763'
p341
ag174
aS'17496687'
p342
asg16
I1000
sg18
S'Informatie- en organsatieontwerp'
p343
sg20
g239
sg22
I0
sg24
(iread_data
Room
p344
(dp345
g16
g64
sg18
g65
sbsba(ischedule
Activity
p346
(dp347
g8
(lp348
S'49683101'
p349
aS'14138904'
p350
aS'10149535'
p351
ag86
aS'72577292'
p352
aS'72683344'
p353
aS'58866007'
p354
aS'13798030'
p355
aS'70015932'
p356
ag234
ag340
aS'45556081'
p357
ag184
aS'34872117'
p358
ag104
aS'27925117'
p359
aS'82689818'
p360
aS'59289233'
p361
ag256
aS'40434933'
p362
ag107
asg16
I1000
sg18
S'Architectuur en computerorganisatie'
p363
sg20
g239
sg22
I0
sg24
(iread_data
Room
p364
(dp365
g16
g151
sg18
g152
sbsba(ischedule
Activity
p366
(dp367
g8
(lp368
g49
aS'70113753'
p369
aS'88627897'
p370
aS'72796858'
p371
ag109
aS'19858730'
p372
aS'36508571'
p373
asg16
S'10'
p374
sg18
S'Autonomous Agents 2'
p375
sg20
g94
sg22
g148
sg24
(iread_data
Room
p376
(dp377
g16
g41
sg18
g42
sbsba(ischedule
Activity
p378
(dp379
g8
(lp380
g213
aS'52304977'
p381
aS'85236626'
p382
aS'51566595'
p383
aS'87602030'
p384
ag110
aS'15249775'
p385
ag194
aS'5739011'
p386
aS'43027916'
p387
aS'670011'
p388
aS'1886996'
p389
aS'99975346'
p390
aS'58040377'
p391
aS'82968410'
p392
aS'33760909'
p393
aS'7106649'
p394
aS'72652638'
p395
aS'34765676'
p396
aS'83869542'
p397
aS'35315956'
p398
aS'31897288'
p399
aS'61443567'
p400
aS'58736785'
p401
ag359
ag122
ag304
ag14
aS'48678993'
p402
aS'81022997'
p403
ag224
aS'16097870'
p404
asg16
I1000
sg18
S'Heuristieken 2'
p405
sg20
g239
sg22
I0
sg24
(iread_data
Room
p406
(dp407
g16
g242
sg18
g243
sbsba(ischedule
Activity
p408
(dp409
g8
(lp410
S'15902055'
p411
aS'96104167'
p412
ag115
aS'64228258'
p413
aS'65960683'
p414
ag134
ag198
aS'17575088'
p415
aS'26406342'
p416
aS'73980360'
p417
aS'9332762'
p418
aS'31416266'
p419
aS'34773179'
p420
aS'1665980'
p421
asg16
g292
sg18
g293
sg20
g94
sg22
g148
sg24
(iread_data
Room
p422
(dp423
g16
g97
sg18
g98
sbsbaa(lp424
(ischedule
Activity
p425
(dp426
g8
(lp427
g145
ag135
ag141
ag146
ag233
aS'96554914'
p428
ag124
ag143
ag36
ag134
ag139
aS'52552718'
p429
ag119
ag116
ag123
ag136
ag133
ag127
aS'31103066'
p430
ag102
ag122
ag103
ag247
ag142
ag120
ag128
ag236
ag196
ag138
ag121
ag126
ag252
ag129
ag137
ag32
ag104
ag130
aS'40343779'
p431
ag111
ag173
ag193
ag118
ag110
aS'27582862'
p432
ag140
ag159
aS'62356458'
p433
ag105
ag131
ag305
ag125
ag35
ag115
aS'21095566'
p434
ag211
ag106
ag109
ag144
ag117
ag162
aS'25106480'
p435
ag175
ag112
aS'1048485'
p436
aS'58074656'
p437
aS'73302736'
p438
ag132
ag107
ag113
ag34
ag33
ag356
ag206
ag108
ag114
asg16
I1000
sg18
g38
sg20
g239
sg22
I0
sg24
(iread_data
Room
p439
(dp440
g16
g242
sg18
g243
sbsba(ischedule
Activity
p441
(dp442
g8
(lp443
g256
ag176
ag266
aS'60352393'
p444
aS'56121590'
p445
aS'4353500'
p446
ag50
aS'62363761'
p447
ag171
ag212
aS'64246605'
p448
aS'70939718'
p449
aS'57467488'
p450
asg16
S'20'
p451
sg18
S'Netwerken en systeembeveiliging'
p452
sg20
g94
sg22
g294
sg24
(iread_data
Room
p453
(dp454
g16
g27
sg18
g28
sbsba(ischedule
Activity
p455
(dp456
g8
(lp457
S'77960666'
p458
aS'23658570'
p459
ag177
aS'39905995'
p460
ag203
aS'86988337'
p461
ag51
ag382
ag309
aS'46701583'
p462
aS'47982619'
p463
ag47
aS'47477884'
p464
aS'88519892'
p465
ag329
ag208
aS'34900967'
p466
ag291
aS'8464817'
p467
ag160
asg16
S'20'
p468
sg18
S'Programmeren in Java 2'
p469
sg20
g94
sg22
S'6'
p470
sg24
(iread_data
Room
p471
(dp472
g16
g41
sg18
g42
sbsba(ischedule
Activity
p473
(dp474
g8
(lp475
g332
ag108
ag72
ag80
ag89
aS'5517869'
p476
ag75
aS'58592894'
p477
ag174
ag216
ag81
ag341
ag333
aS'4709948'
p478
ag142
aS'51650744'
p479
ag201
ag69
ag111
ag288
ag181
aS'83415514'
p480
ag91
ag82
aS'1181560'
p481
ag282
ag70
ag76
ag79
aS'66621166'
p482
ag83
aS'75997788'
p483
ag86
aS'27241113'
p484
aS'84449005'
p485
aS'96082155'
p486
ag84
aS'13218321'
p487
ag88
aS'11996292'
p488
ag104
ag71
aS'48198668'
p489
ag85
ag126
aS'78544592'
p490
ag77
ag74
ag78
ag110
ag87
ag73
aS'36527838'
p491
ag90
asg16
I1000
sg18
g93
sg20
g239
sg22
I0
sg24
(iread_data
Room
p492
(dp493
g16
g151
sg18
g152
sbsba(ischedule
Activity
p494
(dp495
g8
(lp496
S'51741554'
p497
ag170
aS'72665524'
p498
aS'77392404'
p499
ag319
ag283
ag320
aS'25330192'
p500
aS'16912993'
p501
ag13
ag253
aS'81385263'
p502
ag331
aS'75664412'
p503
aS'26207525'
p504
aS'53267490'
p505
ag289
aS'72456780'
p506
aS'535689'
p507
asg16
g451
sg18
g452
sg20
g94
sg22
g61
sg24
(iread_data
Room
p508
(dp509
g16
g275
sg18
g276
sbsbaa(lp510
(ischedule
Activity
p511
(dp512
g8
g155
sg16
I1000
sg18
g238
sg20
g239
sg22
I0
sg24
(iread_data
Room
p513
(dp514
g16
g242
sg18
g243
sbsba(ischedule
Activity
p515
(dp516
g8
(lp517
g130
ag372
ag306
ag404
aS'61611295'
p518
ag429
ag32
ag433
aS'34806836'
p519
ag331
ag370
ag49
ag476
aS'27298319'
p520
ag109
ag373
aS'62872965'
p521
ag128
ag369
ag371
ag383
aS'39459642'
p522
asg16
I1000
sg18
g375
sg20
g239
sg22
I0
sg24
(iread_data
Room
p523
(dp524
g16
g41
sg18
g42
sbsba(ischedule
Activity
p525
(dp526
g8
(lp527
g287
ag310
ag105
aS'66701209'
p528
aS'76661016'
p529
ag402
aS'82066165'
p530
ag50
ag75
aS'41644639'
p531
asg16
S'15'
p532
sg18
S'Project Genetic Algorithms'
p533
sg20
g94
sg22
g23
sg24
(iread_data
Room
p534
(dp535
g16
g27
sg18
g28
sbsba(ischedule
Activity
p536
(dp537
g8
(lp538
g311
ag223
ag139
ag251
ag252
ag360
ag313
aS'13092455'
p539
aS'13534377'
p540
ag412
ag198
ag415
aS'57595888'
p541
ag420
ag497
aS'53107172'
p542
ag352
asg16
S'20'
p543
sg18
g293
sg20
g21
sg22
g61
sg24
(iread_data
Room
p544
(dp545
g16
g64
sg18
g65
sbsba(ischedule
Activity
p546
(dp547
g8
(lp548
g289
ag250
ag79
ag283
ag357
aS'1075391'
p549
ag36
aS'35330349'
p550
ag285
ag286
ag288
ag115
ag413
aS'76123484'
p551
aS'77896638'
p552
ag282
ag411
ag417
asg16
g543
sg18
g293
sg20
g21
sg22
g148
sg24
(iread_data
Room
p553
(dp554
g16
g97
sg18
g98
sbsba(ischedule
Activity
p555
(dp556
g8
(lp557
g400
ag341
ag290
ag134
ag253
ag335
ag421
ag226
ag120
ag414
ag284
ag387
aS'22699561'
p558
ag80
ag393
asg16
g543
sg18
g293
sg20
g21
sg22
g23
sg24
(iread_data
Room
p559
(dp560
g16
g151
sg18
g152
sbsbaa(lp561
(ischedule
Activity
p562
(dp563
g8
(lp564
g115
aS'98105190'
p565
ag124
aS'53775014'
p566
ag336
ag109
ag237
aS'87210640'
p567
ag184
aS'71839156'
p568
ag350
ag331
ag488
ag399
ag341
ag450
aS'79879876'
p569
aS'86807027'
p570
ag372
ag303
aS'20830477'
p571
ag161
ag288
ag401
aS'83443653'
p572
ag106
ag212
ag49
ag132
aS'14941752'
p573
ag112
aS'66122625'
p574
ag160
ag446
ag283
aS'45660925'
p575
ag203
ag157
aS'97417002'
p576
aS'76393508'
p577
ag542
aS'94930277'
p578
ag12
ag483
asg16
I1000
sg18
S'Heuristieken 1'
p579
sg20
g239
sg22
I0
sg24
(iread_data
Room
p580
(dp581
g16
g41
sg18
g42
sbsba(ischedule
Activity
p582
(dp583
g8
(lp584
S'53512831'
p585
aS'17092717'
p586
aS'6249823'
p587
ag104
ag362
aS'10698627'
p588
ag551
aS'16333449'
p589
aS'14303208'
p590
ag400
ag110
aS'43902015'
p591
aS'3474870'
p592
aS'2416751'
p593
aS'41790793'
p594
ag413
aS'22288615'
p595
ag107
ag578
aS'1137946'
p596
aS'14847953'
p597
ag232
aS'28358060'
p598
ag499
ag301
aS'49908313'
p599
aS'27064249'
p600
aS'66034145'
p601
aS'69459473'
p602
aS'20618153'
p603
aS'67073567'
p604
aS'76648468'
p605
ag14
ag227
ag264
ag102
ag352
aS'24891081'
p606
aS'76903244'
p607
asg16
I1000
sg18
S'Webprogrammeren en databases'
p608
sg20
g239
sg22
I0
sg24
(iread_data
Room
p609
(dp610
g16
g64
sg18
g65
sbsba(ischedule
Activity
p611
(dp612
g8
(lp613
g266
aS'15911353'
p614
ag461
ag265
ag251
ag252
aS'9067939'
p615
ag82
aS'76802764'
p616
ag333
aS'54772132'
p617
ag528
aS'44391517'
p618
ag371
aS'5595824'
p619
ag349
ag565
ag358
ag309
ag111
ag269
ag249
ag287
aS'94687383'
p620
aS'31194811'
p621
ag128
aS'46989508'
p622
ag226
ag260
ag503
aS'65852230'
p623
aS'3407554'
p624
ag552
ag301
aS'92665222'
p625
aS'79033175'
p626
ag467
ag186
aS'34110913'
p627
ag74
ag171
aS'75759231'
p628
aS'95007221'
p629
aS'88636924'
p630
aS'40791377'
p631
aS'79167252'
p632
ag222
ag310
ag522
ag78
ag117
ag180
aS'2317551'
p633
ag86
aS'88855695'
p634
aS'43689934'
p635
aS'12077419'
p636
ag264
aS'2079771'
p637
ag253
aS'80135353'
p638
ag414
ag114
ag76
ag224
ag105
ag529
ag119
ag502
asg16
I1000
sg18
S'Compilerbouw'
p639
sg20
g239
sg22
I0
sg24
(iread_data
Room
p640
(dp641
g16
g242
sg18
g243
sbsba(ischedule
Activity
p642
(dp643
g8
(lp644
g597
ag168
aS'64768422'
p645
aS'37701751'
p646
ag57
aS'3707829'
p647
aS'38179241'
p648
aS'21677389'
p649
ag113
aS'20374340'
p650
ag502
aS'65675896'
p651
aS'81155296'
p652
aS'28055464'
p653
ag222
aS'69634191'
p654
aS'44828429'
p655
ag396
ag281
ag601
aS'93566383'
p656
ag304
ag529
aS'2550487'
p657
ag267
asg16
I1000
sg18
S'Interactie-ontwerp'
p658
sg20
g239
sg22
I0
sg24
(iread_data
Room
p659
(dp660
g16
g275
sg18
g276
sbsba(ischedule
Activity
p661
(dp662
g8
(lp663
g53
ag103
ag351
ag394
aS'77264363'
p664
aS'92496780'
p665
ag339
ag281
ag416
ag164
aS'93041523'
p666
ag91
ag54
ag132
aS'76487754'
p667
ag187
ag249
asg16
S'20'
p668
sg18
S'Technology for games'
p669
sg20
g21
sg22
g148
sg24
(iread_data
Room
p670
(dp671
g16
g27
sg18
g28
sbsba(ischedule
Activity
p672
(dp673
g8
(lp674
g233
ag247
ag32
ag193
ag433
ag211
ag33
ag206
ag175
ag162
ag428
ag196
ag305
ag34
ag159
ag252
ag173
ag236
ag36
ag435
ag432
ag35
ag356
ag431
ag438
ag429
ag430
ag436
ag434
ag437
asg16
g147
sg18
g38
sg20
g94
sg22
g23
sg24
(iread_data
Room
p675
(dp676
g16
g151
sg18
g152
sbsba(ischedule
Activity
p677
(dp678
g8
(lp679
g383
ag369
asg16
S'10'
p680
sg18
g375
sg20
g21
sg22
g61
sg24
(iread_data
Room
p681
(dp682
g16
g97
sg18
g98
sbsbaaa(lp683
(lp684
(ischedule
Activity
p685
(dp686
g8
(lp687
g302
ag70
ag652
ag529
ag115
ag483
ag186
aS'34173695'
p688
aS'86180471'
p689
aS'53139134'
p690
aS'53585410'
p691
ag634
ag219
aS'23565001'
p692
ag480
aS'47932106'
p693
ag47
ag391
aS'14179347'
p694
ag497
ag570
aS'6709529'
p695
aS'80188025'
p696
ag384
ag520
ag464
ag208
aS'31306819'
p697
aS'11593163'
p698
ag194
aS'94686490'
p699
asg16
S'40'
p700
sg18
S'Calculus 2'
p701
sg20
g21
sg22
g148
sg24
(iread_data
Room
p702
(dp703
g16
g64
sg18
g65
sbsba(ischedule
Activity
p704
(dp705
g8
(lp706
g329
ag331
ag12
ag333
ag334
ag336
ag338
ag340
ag342
ag341
ag335
ag174
asg16
S'15'
p707
sg18
g343
sg20
g94
sg22
g23
sg24
(iread_data
Room
p708
(dp709
g16
g242
sg18
g243
sbsba(ischedule
Activity
p710
(dp711
g8
(lp712
g220
ag138
ag214
ag109
ag80
ag105
ag199
aS'92778619'
p713
ag224
ag458
aS'68286356'
p714
ag207
ag499
ag81
ag539
aS'49922855'
p715
aS'38296757'
p716
ag478
aS'27370083'
p717
ag485
ag390
ag461
aS'99453514'
p718
ag143
aS'70193386'
p719
ag428
ag91
aS'20095994'
p720
aS'42406214'
p721
ag444
asg16
g17
sg18
g19
sg20
g21
sg22
g148
sg24
(iread_data
Room
p722
(dp723
g16
g275
sg18
g276
sbsba(ischedule
Activity
p724
(dp725
g8
(lp726
g383
ag134
ag133
ag49
ag313
ag132
ag500
ag261
ag574
aS'98780382'
p727
ag197
ag215
ag403
ag33
ag306
aS'87900893'
p728
aS'97136582'
p729
aS'93023961'
p730
aS'45414528'
p731
asg16
S'10'
p732
sg18
S'Data Mining'
p733
sg20
g21
sg22
g23
sg24
(iread_data
Room
p734
(dp735
g16
g27
sg18
g28
sbsba(ischedule
Activity
p736
(dp737
g8
(lp738
g328
ag330
ag170
ag332
ag317
ag337
ag339
ag187
ag341
ag327
ag335
ag174
asg16
S'15'
p739
sg18
g343
sg20
g21
sg22
g148
sg24
(iread_data
Room
p740
(dp741
g16
g97
sg18
g98
sbsba(ischedule
Activity
p742
(dp743
g8
(lp744
g301
ag264
ag102
ag591
ag107
ag593
ag600
ag590
ag603
ag607
ag594
ag362
ag604
ag606
ag227
ag585
ag104
ag352
ag598
ag578
ag605
ag595
ag589
ag232
ag413
ag400
ag597
ag587
ag14
ag586
ag602
ag596
ag592
ag588
ag551
ag110
asg16
S'20'
p745
sg18
g608
sg20
g21
sg22
g23
sg24
g364
sbaa(lp746
(ischedule
Activity
p747
(dp748
g8
g613
sg16
I1000
sg18
g639
sg20
g239
sg22
I0
sg24
(iread_data
Room
p749
(dp750
g16
g242
sg18
g243
sbsba(ischedule
Activity
p751
(dp752
g8
(lp753
g80
ag444
ag303
ag201
ag174
ag622
ag476
ag185
ag269
aS'73823548'
p754
ag157
ag79
aS'5526560'
p755
ag362
aS'5085194'
p756
ag327
ag388
ag586
ag308
ag311
ag552
aS'56191333'
p757
aS'12091019'
p758
ag539
ag416
ag459
aS'4529208'
p759
ag84
ag693
ag69
ag397
aS'40141996'
p760
aS'64947290'
p761
ag504
ag36
ag387
ag450
ag477
aS'13132925'
p762
ag217
aS'4921119'
p763
ag358
aS'27123462'
p764
ag75
ag360
aS'91527663'
p765
ag312
aS'62736669'
p766
asg16
S'40'
p767
sg18
S'Databases 2'
p768
sg20
g21
sg22
g148
sg24
(iread_data
Room
p769
(dp770
g16
g151
sg18
g152
sbsba(ischedule
Activity
p771
(dp772
g8
(lp773
g281
ag597
ag498
ag256
aS'39429093'
p774
ag52
ag389
ag13
asg16
S'10'
p775
sg18
S'Advanced Heuristics'
p776
sg20
g94
sg22
g148
sg24
(iread_data
Room
p777
(dp778
g16
g27
sg18
g28
sbsba(ischedule
Activity
p779
(dp780
g8
(lp781
g304
ag500
ag306
ag261
ag197
ag215
ag338
ag317
ag731
ag133
ag49
ag33
ag718
aS'87314964'
p782
ag132
ag729
aS'19337738'
p783
ag730
ag403
ag60
asg16
S'10'
p784
sg18
g733
sg20
g94
sg22
g61
sg24
(iread_data
Room
p785
(dp786
g16
g97
sg18
g98
sbsba(ischedule
Activity
p787
(dp788
g8
(lp789
g110
ag600
ag352
ag601
ag597
ag104
ag596
ag603
ag232
ag599
ag595
ag14
ag587
ag590
ag107
ag592
asg16
S'20'
p790
sg18
g608
sg20
g94
sg22
g23
sg24
(iread_data
Room
p791
(dp792
g16
g41
sg18
g42
sbsba(ischedule
Activity
p793
(dp794
g8
(lp795
g288
ag572
ag112
ag160
ag109
ag336
ag570
ag483
ag567
ag575
ag237
ag372
ag401
ag184
ag331
ag571
ag203
ag303
ag350
ag568
ag574
ag12
ag576
ag106
asg16
S'25'
p796
sg18
g579
sg20
g21
sg22
g23
sg24
(iread_data
Room
p797
(dp798
g16
g64
sg18
g65
sbsba(ischedule
Activity
p799
(dp800
g8
(lp801
g464
aS'54540997'
p802
ag689
aS'58083680'
p803
ag461
ag522
aS'56872729'
p804
ag383
ag429
ag445
ag257
ag488
ag458
ag371
aS'25077484'
p805
ag551
ag646
ag506
aS'59397895'
p806
ag699
ag156
ag591
ag56
aS'15187217'
p807
asg16
g767
sg18
g768
sg20
g21
sg22
g23
sg24
(iread_data
Room
p808
(dp809
g16
g275
sg18
g276
sbsbaa(lp810
(ischedule
Activity
p811
(dp812
g8
(lp813
g695
ag302
ag754
aS'37279234'
p814
ag70
ag125
ag477
ag696
ag351
ag145
ag688
ag758
ag498
ag227
ag480
ag570
ag462
ag269
aS'10609762'
p815
ag652
aS'77306636'
p816
ag804
ag183
aS'93361408'
p817
aS'82412626'
p818
ag520
ag691
aS'75623387'
p819
ag497
ag228
ag303
ag404
ag464
ag490
ag188
ag210
ag698
ag529
ag483
ag690
aS'61520025'
p820
ag648
aS'19717077'
p821
aS'59220392'
p822
aS'23628642'
p823
aS'3678531'
p824
ag71
ag180
ag305
ag438
ag697
ag194
ag161
ag208
ag413
ag459
ag693
aS'58253841'
p825
aS'55412918'
p826
aS'55530367'
p827
aS'79888156'
p828
aS'75446434'
p829
ag126
ag285
ag449
ag699
ag186
aS'33672995'
p830
ag692
ag112
aS'56348773'
p831
aS'72526473'
p832
ag289
ag318
ag411
ag760
ag221
ag185
ag716
aS'65978354'
p833
ag216
ag123
ag309
aS'6939933'
p834
ag689
ag359
ag137
ag90
ag47
ag393
ag600
ag115
ag694
ag384
ag219
aS'56544130'
p835
aS'22168693'
p836
ag728
ag634
ag391
ag590
ag632
ag330
ag113
ag447
ag86
asg16
I1000
sg18
g701
sg20
g239
sg22
I0
sg24
(iread_data
Room
p837
(dp838
g16
g242
sg18
g243
sbsba(ischedule
Activity
p839
(dp840
g8
(lp841
g666
aS'4697362'
p842
ag664
ag281
ag49
ag91
aS'14383795'
p843
ag132
ag362
aS'21192048'
p844
aS'70336464'
p845
ag665
ag249
ag53
ag103
ag416
ag418
ag394
ag636
ag621
ag111
ag54
ag333
ag172
ag351
ag164
ag587
ag667
ag488
ag463
ag331
ag206
ag341
ag70
aS'12430748'
p846
ag187
ag503
ag339
asg16
I1000
sg18
g669
sg20
g239
sg22
I0
sg24
(iread_data
Room
p847
(dp848
g16
g41
sg18
g42
sbsba(ischedule
Activity
p849
(dp850
g8
(lp851
g313
ag226
ag307
ag311
ag319
ag300
ag124
ag317
ag306
ag304
asg16
S'20'
p852
sg18
g321
sg20
g94
sg22
g23
sg24
(iread_data
Room
p853
(dp854
g16
g275
sg18
g276
sbsba(ischedule
Activity
p855
(dp856
g8
(lp857
g133
ag189
ag638
ag620
aS'28943658'
p858
ag336
ag761
ag593
ag633
aS'90296821'
p859
ag713
aS'88597745'
p860
ag552
ag286
ag200
ag385
ag603
asg16
g468
sg18
g469
sg20
g94
sg22
g23
sg24
(iread_data
Room
p861
(dp862
g16
g27
sg18
g28
sbsbaa(lp863
(ischedule
Activity
p864
(dp865
g8
g299
sg16
I1000
sg18
g321
sg20
g239
sg22
I0
sg24
(iread_data
Room
p866
(dp867
g16
g41
sg18
g42
sbsba(ischedule
Activity
p868
(dp869
g8
(lp870
g461
ag269
ag287
ag552
ag467
ag631
ag224
ag502
ag632
ag528
ag74
ag105
ag186
ag252
ag265
ag633
ag619
ag622
ag266
ag358
ag333
ag222
ag253
ag615
ag503
ag249
ag349
ag618
ag522
ag371
ag309
ag76
ag629
ag128
ag171
ag638
ag529
ag635
ag251
ag621
ag260
ag630
ag627
ag86
ag617
ag82
ag565
ag414
ag625
ag628
ag264
asg16
S'40'
p871
sg18
g639
sg20
g94
sg22
g23
sg24
(iread_data
Room
p872
(dp873
g16
g242
sg18
g243
sbsba(ischedule
Activity
p874
(dp875
g8
(lp876
g383
ag782
ag574
ag134
ag132
ag261
ag783
ag197
ag33
ag306
ag403
ag727
ag304
ag317
ag730
ag215
ag313
ag731
ag60
ag718
aS'68360259'
p877
ag133
ag338
ag728
ag49
ag729
ag500
asg16
I1000
sg18
g733
sg20
g239
sg22
I0
sg24
g364
sba(ischedule
Activity
p878
(dp879
g8
(lp880
g843
ag756
ag328
ag624
ag177
ag339
ag138
aS'23215240'
p881
ag176
aS'42297781'
p882
aS'47260040'
p883
aS'88596522'
p884
ag350
aS'44151631'
p885
ag134
ag416
aS'5892092'
p886
aS'55103073'
p887
aS'25994016'
p888
ag691
ag78
asg16
S'15'
p889
sg18
S'Compilerbouw practicum'
p890
sg20
g94
sg22
g61
sg24
(iread_data
Room
p891
(dp892
g16
g275
sg18
g276
sbsba(ischedule
Activity
p893
(dp894
g8
(lp895
g218
ag805
ag435
ag602
ag32
ag485
ag53
aS'51673172'
p896
asg16
g532
sg18
g533
sg20
g94
sg22
g148
sg24
(iread_data
Room
p897
(dp898
g16
g97
sg18
g98
sbsba(ischedule
Activity
p899
(dp900
g8
(lp901
g110
ag491
ag174
ag108
ag126
ag201
ag142
ag476
ag181
ag490
ag282
ag483
ag478
ag487
ag481
ag482
ag111
ag486
ag341
ag477
ag479
ag489
asg16
g92
sg18
g93
sg20
g94
sg22
g148
sg24
(iread_data
Room
p902
(dp903
g16
g64
sg18
g65
sbsba(ischedule
Activity
p904
(dp905
g8
(lp906
g507
aS'64418623'
p907
asg16
g889
sg18
g890
sg20
g94
sg22
g23
sg24
(iread_data
Room
p908
(dp909
g16
g27
sg18
g28
sbsbaa(lp910
(ischedule
Activity
p911
(dp912
g8
g348
sg16
I1000
sg18
g363
sg20
g239
sg22
I0
sg24
(iread_data
Room
p913
(dp914
g16
g242
sg18
g243
sbsba(ischedule
Activity
p915
(dp916
g8
(lp917
g47
ag10
ag91
ag69
ag303
ag185
ag309
ag301
ag314
ag167
ag315
ag302
ag248
ag48
ag308
ag316
ag71
ag118
ag213
ag312
ag310
ag161
ag173
ag70
asg16
g852
sg18
g321
sg20
g94
sg22
g148
sg24
g364
sba(ischedule
Activity
p918
(dp919
g8
g876
sg16
I1000
sg18
g733
sg20
g239
sg22
I0
sg24
(iread_data
Room
p920
(dp921
g16
g41
sg18
g42
sbsba(ischedule
Activity
p922
(dp923
g8
(lp924
g476
ag491
ag81
ag201
ag72
asg16
S'20'
p925
sg18
g93
sg20
g21
sg22
g23
sg24
(iread_data
Room
p926
(dp927
g16
g97
sg18
g98
sbsba(ischedule
Activity
p928
(dp929
g8
(lp930
g404
ag433
ag32
ag331
ag429
ag519
ag130
ag522
asg16
g374
sg18
g375
sg20
g94
sg22
g23
sg24
(iread_data
Room
p931
(dp932
g16
g27
sg18
g28
sbsba(ischedule
Activity
p933
(dp934
g8
(lp935
g636
ag123
ag196
ag502
ag52
ag592
ag431
ag122
ag434
ag108
ag193
ag329
ag138
ag218
ag884
aS'64554442'
p936
aS'19540225'
p937
ag134
aS'23652927'
p938
ag462
ag477
ag264
ag300
ag761
ag647
ag411
ag461
ag765
ag520
asg16
S'25'
p939
sg18
S'Algoritmen en complexiteit'
p940
sg20
g21
sg22
g23
sg24
g344
sba(ischedule
Activity
p941
(dp942
g8
(lp943
S'74361881'
p944
ag247
ag127
aS'51472074'
p945
ag530
aS'91250534'
p946
ag421
ag124
ag194
ag541
ag568
aS'1695839'
p947
ag651
ag590
ag531
ag498
ag896
asg16
g889
sg18
g890
sg20
g94
sg22
g148
sg24
g659
sbaaa(lp948
(lp949
(ischedule
Activity
p950
(dp951
g8
(lp952
S'33252501'
p953
ag133
ag637
aS'90067329'
p954
ag186
aS'26857113'
p955
ag220
ag349
ag122
ag716
ag522
ag235
aS'67625383'
p956
ag199
ag73
ag88
ag234
ag462
ag198
ag631
ag382
ag211
asg16
I1000
sg18
S'Machine Learning'
p957
sg20
g239
sg22
I0
sg24
(iread_data
Room
p958
(dp959
g16
g97
sg18
g98
sbsba(ischedule
Activity
p960
(dp961
g8
(lp962
g418
ag552
ag36
ag415
ag542
ag417
ag539
ag284
ag352
ag411
ag435
ag281
ag387
ag79
ag139
ag217
ag414
ag286
ag285
ag550
ag291
ag549
ag198
ag283
ag290
ag313
ag80
ag421
ag541
ag412
ag288
ag476
ag253
ag223
ag226
ag419
ag120
ag360
ag357
ag287
ag135
ag311
ag416
ag341
ag393
ag551
ag252
ag497
ag558
ag289
ag413
ag115
ag335
ag420
ag251
ag282
ag250
aS'29474737'
p963
ag400
ag134
ag540
asg16
I1000
sg18
g293
sg20
g239
sg22
I0
sg24
g640
sba(ischedule
Activity
p964
(dp965
g8
g841
sg16
I1000
sg18
g669
sg20
g239
sg22
I0
sg24
(iread_data
Room
p966
(dp967
g16
g41
sg18
g42
sbsba(ischedule
Activity
p968
(dp969
g8
(lp970
g383
ag520
ag300
ag461
ag502
ag938
aS'67817269'
p971
ag431
ag592
ag218
ag434
aS'51509565'
p972
ag450
ag655
ag203
ag396
ag765
ag123
aS'66433883'
p973
ag138
ag591
ag108
ag636
asg16
S'25'
p974
sg18
g940
sg20
g94
sg22
g148
sg24
(iread_data
Room
p975
(dp976
g16
g275
sg18
g276
sbsba(ischedule
Activity
p977
(dp978
g8
(lp979
g877
asg16
g732
sg18
g733
sg20
g21
sg22
g61
sg24
(iread_data
Room
p980
(dp981
g16
g27
sg18
g28
sbsba(ischedule
Activity
p982
(dp983
g8
(lp984
g371
ag128
ag301
ag74
ag310
ag264
ag114
ag309
ag266
ag222
ag76
ag627
ag333
ag635
ag619
ag269
ag618
ag616
asg16
S'40'
p985
sg18
g639
sg20
g21
sg22
g148
sg24
(iread_data
Room
p986
(dp987
g16
g151
sg18
g152
sbsba(ischedule
Activity
p988
(dp989
g8
(lp990
g304
ag317
ag60
ag782
ag338
ag718
ag783
asg16
g732
sg18
g733
sg20
g21
sg22
g148
sg24
(iread_data
Room
p991
(dp992
g16
g64
sg18
g65
sbsbaa(lp993
(ischedule
Activity
p994
(dp995
g8
g644
sg16
I1000
sg18
g658
sg20
g239
sg22
I0
sg24
(iread_data
Room
p996
(dp997
g16
g151
sg18
g152
sbsba(ischedule
Activity
p998
(dp999
g8
(lp1000
g331
ag476
ag522
ag371
ag429
ag404
ag32
ag130
ag109
ag518
ag128
ag433
ag370
ag306
ag373
ag49
ag519
ag372
ag521
asg16
g680
sg18
g375
sg20
g21
sg22
g23
sg24
(iread_data
Room
p1001
(dp1002
g16
g27
sg18
g28
sbsba(ischedule
Activity
p1003
(dp1004
g8
(lp1005
g108
ag91
ag483
ag104
ag110
ag480
ag84
ag488
ag70
ag333
ag80
ag174
ag111
ag486
ag479
ag88
ag89
ag484
ag74
ag481
ag77
ag78
ag490
ag142
ag73
ag71
ag181
ag126
ag79
ag487
ag87
ag341
ag485
ag482
ag69
ag332
ag86
ag477
ag85
ag489
ag282
ag75
ag216
asg16
g925
sg18
g93
sg20
g21
sg22
g148
sg24
(iread_data
Room
p1006
(dp1007
g16
g41
sg18
g42
sbsba(ischedule
Activity
p1008
(dp1009
g8
(lp1010
g728
asg16
g784
sg18
g733
sg20
g94
sg22
g148
sg24
(iread_data
Room
p1011
(dp1012
g16
g275
sg18
g276
sbsba(ischedule
Activity
p1013
(dp1014
g8
(lp1015
g586
ag591
ag301
ag362
ag264
ag551
ag585
ag499
ag606
ag598
ag602
ag227
ag413
ag578
ag607
ag588
ag605
ag594
ag400
ag102
ag604
ag589
ag593
asg16
g790
sg18
g608
sg20
g94
sg22
g148
sg24
(iread_data
Room
p1016
(dp1017
g16
g242
sg18
g243
sbsba(ischedule
Activity
p1018
(dp1019
g8
(lp1020
g600
ag464
ag444
ag312
ag625
ag352
ag570
aS'62613937'
p1021
ag483
aS'40633534'
p1022
ag353
ag167
asg16
g775
sg18
g776
sg20
g94
sg22
g23
sg24
(iread_data
Room
p1023
(dp1024
g16
g97
sg18
g98
sbsba(ischedule
Activity
p1025
(dp1026
g8
(lp1027
g383
ag727
ag574
ag877
ag134
ag313
asg16
g784
sg18
g733
sg20
g94
sg22
g23
sg24
(iread_data
Room
p1028
(dp1029
g16
g64
sg18
g65
sbsbaa(lp1030
(ischedule
Activity
p1031
(dp1032
g8
g962
sg16
I1000
sg18
g293
sg20
g239
sg22
I0
sg24
(iread_data
Room
p1033
(dp1034
g16
g242
sg18
g243
sbsba(ischedule
Activity
p1035
(dp1036
g8
(lp1037
g69
ag157
ag248
ag301
ag91
ag310
ag247
ag309
ag48
ag173
ag226
ag10
ag130
ag71
ag303
ag114
ag315
asg16
S'20'
p1038
sg18
g321
sg20
g21
sg22
g148
sg24
(iread_data
Room
p1039
(dp1040
g16
g41
sg18
g42
sbsba(ischedule
Activity
p1041
(dp1042
g8
(lp1043
g632
ag824
ag522
ag129
ag210
ag185
ag165
aS'85284256'
p1044
aS'73893840'
p1045
aS'73196865'
p1046
ag569
ag131
ag211
ag388
ag657
ag369
ag327
ag973
ag186
ag588
asg16
g468
sg18
g469
sg20
g94
sg22
g61
sg24
(iread_data
Room
p1047
(dp1048
g16
g64
sg18
g65
sbsba(ischedule
Activity
p1049
(dp1050
g8
(lp1051
g213
ag114
ag433
asg16
g271
sg18
g272
sg20
g94
sg22
g61
sg24
(iread_data
Room
p1052
(dp1053
g16
g27
sg18
g28
sbsbaa(lp1054
(ischedule
Activity
p1055
(dp1056
g8
g952
sg16
I1000
sg18
g957
sg20
g239
sg22
I0
sg24
(iread_data
Room
p1057
(dp1058
g16
g97
sg18
g98
sbsba(ischedule
Activity
p1059
(dp1060
g8
(lp1061
S'32595335'
p1062
ag550
ag302
ag311
ag589
ag237
ag32
ag162
ag106
aS'26172512'
p1063
ag251
aS'90743504'
p1064
ag404
aS'54074680'
p1065
ag249
ag388
ag826
ag692
ag161
ag57
ag215
ag552
ag221
ag33
ag290
aS'34588570'
p1066
ag699
ag373
ag592
ag34
aS'66570705'
p1067
ag53
ag351
aS'96118484'
p1068
ag176
ag763
ag476
aS'16011419'
p1069
ag257
ag656
ag35
ag502
ag491
ag163
ag354
aS'80998260'
p1070
aS'21311067'
p1071
ag804
ag171
aS'79937969'
p1072
ag568
ag521
ag419
ag175
asg16
I1000
sg18
S'Lineaire Algebra'
p1073
sg20
g239
sg22
I0
sg24
(iread_data
Room
p1074
(dp1075
g16
g242
sg18
g243
sbsba(ischedule
Activity
p1076
(dp1077
g8
(lp1078
g233
aS'72586808'
p1079
ag36
ag436
ag270
ag478
aS'25557516'
p1080
ag360
ag403
ag766
ag133
aS'123355'
p1081
aS'12170832'
p1082
aS'19058315'
p1083
ag218
ag402
ag304
ag314
aS'5590289'
p1084
ag89
asg16
g451
sg18
g452
sg20
g94
sg22
g148
sg24
(iread_data
Room
p1085
(dp1086
g16
g27
sg18
g28
sbsba(ischedule
Activity
p1087
(dp1088
g8
g584
sg16
I1000
sg18
g608
sg20
g239
sg22
I0
sg24
(iread_data
Room
p1089
(dp1090
g16
g64
sg18
g65
sbsba(ischedule
Activity
p1091
(dp1092
g8
(lp1093
g617
ag136
ag729
ag203
ag431
ag192
ag208
aS'59887191'
p1094
ag1044
ag649
ag250
ag757
asg16
g451
sg18
g452
sg20
g94
sg22
g23
sg24
(iread_data
Room
p1095
(dp1096
g16
g151
sg18
g152
sbsba(ischedule
Activity
p1097
(dp1098
g8
g326
sg16
I1000
sg18
g343
sg20
g239
sg22
I0
sg24
(iread_data
Room
p1099
(dp1100
g16
g41
sg18
g42
sbsbaa(lp1101
(ischedule
Activity
p1102
(dp1103
g8
(lp1104
g135
ag146
ag428
ag134
ag116
ag136
ag102
ag103
ag128
ag196
ag252
ag137
ag104
ag431
ag173
ag118
ag159
ag105
ag434
ag106
ag162
ag436
ag438
ag107
ag356
ag108
ag112
ag113
ag115
ag110
ag145
ag120
ag125
ag139
ag247
ag130
ag117
ag119
ag236
ag435
ag430
ag211
ag437
ag193
ag140
ag114
ag233
ag126
ag143
ag109
ag133
ag127
ag124
ag433
ag121
ag123
ag122
ag429
ag144
ag206
ag142
ag131
ag305
ag138
ag111
ag129
ag141
ag132
ag432
ag175
asg16
g37
sg18
g38
sg20
g21
sg22
g148
sg24
(iread_data
Room
p1105
(dp1106
g16
g242
sg18
g243
sbsba(ischedule
Activity
p1107
(dp1108
g8
(lp1109
g165
ag360
ag383
ag313
ag396
ag971
ag655
ag203
ag450
ag421
ag972
ag591
ag691
ag973
asg16
g939
sg18
g940
sg20
g21
sg22
g148
sg24
(iread_data
Room
p1110
(dp1111
g16
g41
sg18
g42
sbsba(ischedule
Activity
p1112
(dp1113
g8
(lp1114
g400
ag387
ag397
ag393
ag213
ag398
ag394
ag391
ag385
ag399
ag381
ag359
ag384
ag401
ag392
ag395
ag383
ag390
ag224
ag402
asg16
S'20'
p1115
sg18
g405
sg20
g21
sg22
g23
sg24
(iread_data
Room
p1116
(dp1117
g16
g64
sg18
g65
sbsba(ischedule
Activity
p1118
(dp1119
g8
(lp1120
g478
ag90
ag83
ag76
ag288
ag82
asg16
g925
sg18
g93
sg20
g21
sg22
g61
sg24
(iread_data
Room
p1121
(dp1122
g16
g97
sg18
g98
sbsba(ischedule
Activity
p1123
(dp1124
g8
(lp1125
g13
ag352
ag256
ag483
ag389
ag774
ag498
ag597
ag600
ag353
ag1022
ag52
ag464
ag1021
ag444
ag570
ag312
ag281
ag625
ag167
asg16
I1000
sg18
g776
sg20
g239
sg22
I0
sg24
(iread_data
Room
p1126
(dp1127
g16
g27
sg18
g28
sbsba(ischedule
Activity
p1128
(dp1129
g8
(lp1130
g49
ag362
ag636
ag333
ag587
ag488
ag331
ag341
ag503
ag206
ag70
ag621
ag844
ag843
ag846
ag463
ag172
ag845
ag418
ag111
ag842
asg16
g668
sg18
g669
sg20
g21
sg22
g23
sg24
(iread_data
Room
p1131
(dp1132
g16
g275
sg18
g276
sbsba(ischedule
Activity
p1133
(dp1134
g8
g1061
sg16
I1000
sg18
g1073
sg20
g239
sg22
I0
sg24
(iread_data
Room
p1135
(dp1136
g16
g151
sg18
g152
sbsbaaa(lp1137
(lp1138
(ischedule
Activity
p1139
(dp1140
g8
g299
sg16
I1000
sg18
g321
sg20
g239
sg22
I0
sg24
(iread_data
Room
p1141
(dp1142
g16
g242
sg18
g243
sbsba(ischedule
Activity
p1143
(dp1144
g8
g517
sg16
I1000
sg18
g375
sg20
g239
sg22
I0
sg24
(iread_data
Room
p1145
(dp1146
g16
g275
sg18
g276
sbsba(ischedule
Activity
p1147
(dp1148
g8
(lp1149
g122
ag411
ag134
ag264
ag462
ag421
ag360
ag196
ag313
ag691
ag52
ag647
ag477
ag761
ag165
ag937
ag329
ag936
ag193
ag884
asg16
g974
sg18
g940
sg20
g94
sg22
g23
sg24
(iread_data
Room
p1150
(dp1151
g16
g97
sg18
g98
sbsba(ischedule
Activity
p1152
(dp1153
g8
(lp1154
g216
ag488
ag332
ag333
ag480
ag485
ag484
ag288
ag104
asg16
g92
sg18
g93
sg20
g94
sg22
g23
sg24
(iread_data
Room
p1155
(dp1156
g16
g64
sg18
g65
sbsba(ischedule
Activity
p1157
(dp1158
g8
(lp1159
g461
ag251
ag287
ag621
ag552
ag631
ag636
ag637
ag502
ag186
ag414
ag249
ag253
ag252
ag624
ag349
ag632
ag358
ag260
ag633
ag630
ag180
ag265
ag105
ag86
ag617
ag171
ag111
ag226
ag119
ag623
ag626
ag634
ag615
ag82
ag620
ag522
ag628
ag625
ag224
ag529
ag614
ag528
ag117
ag638
ag503
ag565
ag629
ag622
ag78
ag467
asg16
g985
sg18
g639
sg20
g21
sg22
g23
sg24
(iread_data
Room
p1160
(dp1161
g16
g41
sg18
g42
sbsba(ischedule
Activity
p1162
(dp1163
g8
(lp1164
g499
ag599
ag601
asg16
g745
sg18
g608
sg20
g21
sg22
g148
sg24
(iread_data
Room
p1165
(dp1166
g16
g151
sg18
g152
sbsba(ischedule
Activity
p1167
(dp1168
g8
(lp1169
g206
ag74
ag570
ag159
ag721
ag754
ag199
aS'21070547'
p1170
ag221
ag657
ag403
ag573
ag834
ag11
aS'32183908'
p1171
ag539
ag846
asg16
g271
sg18
g272
sg20
g94
sg22
g148
sg24
(iread_data
Room
p1172
(dp1173
g16
g27
sg18
g28
sbsbaa(lp1174
(ischedule
Activity
p1175
(dp1176
g8
(lp1177
g306
ag383
ag128
ag520
ag476
ag521
ag518
asg16
g374
sg18
g375
sg20
g94
sg22
g61
sg24
(iread_data
Room
p1178
(dp1179
g16
g275
sg18
g276
sbsba(ischedule
Activity
p1180
(dp1181
g8
(lp1182
g814
ag303
ag824
ag413
ag90
ag86
ag318
ag185
ag825
ag123
ag498
ag125
ag817
ag210
ag188
ag180
ag359
ag815
ag818
ag754
ag822
ag833
ag820
ag716
ag113
ag827
ag828
ag351
ag632
ag305
ag269
ag804
ag826
ag462
ag834
ag590
ag126
asg16
g700
sg18
g701
sg20
g21
sg22
g23
sg24
(iread_data
Room
p1183
(dp1184
g16
g64
sg18
g65
sbsba(ischedule
Activity
p1185
(dp1186
g8
(lp1187
g313
ag411
ag81
ag419
aS'7386961'
p1188
ag617
ag10
ag88
ag84
ag174
asg16
g468
sg18
g469
sg20
g94
sg22
S'5'
p1189
sg24
(iread_data
Room
p1190
(dp1191
g16
g242
sg18
g243
sbsba(ischedule
Activity
p1192
(dp1193
g8
(lp1194
g143
ag506
ag51
aS'14637758'
p1195
ag763
ag402
ag50
ag160
ag692
ag75
ag54
ag459
ag70
ag234
ag112
ag438
ag217
ag756
ag572
ag316
aS'78822885'
p1196
ag1079
ag116
ag1021
aS'97838175'
p1197
ag466
ag619
ag170
ag163
aS'82854435'
p1198
aS'73350019'
p1199
aS'18477924'
p1200
ag171
ag483
ag53
aS'88737765'
p1201
ag830
ag835
ag404
ag696
ag33
ag156
aS'58480929'
p1202
ag387
ag109
ag14
ag162
ag719
ag248
asg16
I1000
sg18
S'Analysemethoden en -technieken'
p1203
sg20
g239
sg22
I0
sg24
(iread_data
Room
p1204
(dp1205
g16
g41
sg18
g42
sbsba(ischedule
Activity
p1206
(dp1207
g8
(lp1208
g418
aS'88263855'
p1209
ag36
ag215
ag176
ag436
ag197
aS'12782624'
p1210
ag265
ag285
ag71
ag478
ag618
ag881
ag175
ag261
aS'63096281'
p1211
ag400
ag570
ag57
ag955
ag656
ag571
asg16
g468
sg18
g469
sg20
g94
sg22
g294
sg24
(iread_data
Room
p1212
(dp1213
g16
g151
sg18
g152
sbsba(ischedule
Activity
p1214
(dp1215
g8
(lp1216
g565
ag450
ag488
ag578
ag566
ag132
ag157
ag399
ag212
ag569
ag49
ag161
ag577
ag341
ag573
ag446
ag115
ag542
ag283
ag124
asg16
g796
sg18
g579
sg20
g21
sg22
g148
sg24
(iread_data
Room
p1217
(dp1218
g16
g97
sg18
g98
sbsba(ischedule
Activity
p1219
(dp1220
g8
(lp1221
g250
ag360
ag135
ag252
ag539
ag497
ag223
ag550
ag251
ag139
asg16
g292
sg18
g293
sg20
g94
sg22
g61
sg24
(iread_data
Room
p1222
(dp1223
g16
g27
sg18
g28
sbsbaa(lp1224
(ischedule
Activity
p1225
(dp1226
g8
(lp1227
g12
ag714
ag499
ag224
ag57
ag214
ag716
ag719
ag539
ag207
ag428
ag721
ag56
ag718
ag60
ag485
ag713
ag51
ag49
ag55
ag199
ag478
ag47
ag52
ag13
ag15
ag720
ag59
ag91
ag444
ag58
ag220
ag14
ag48
ag138
ag11
ag80
ag717
ag53
ag50
ag10
ag715
ag54
ag81
ag109
ag458
ag143
ag46
ag105
ag390
ag461
asg16
I1000
sg18
g19
sg20
g239
sg22
I0
sg24
(iread_data
Room
p1228
(dp1229
g16
g242
sg18
g243
sbsba(ischedule
Activity
p1230
(dp1231
g8
(lp1232
g542
ag387
ag253
ag341
ag311
ag79
ag540
ag357
ag226
ag435
ag352
ag313
ag551
ag400
ag552
ag335
ag393
ag476
ag541
ag558
ag963
ag217
ag120
ag549
asg16
g292
sg18
g293
sg20
g94
sg22
g23
sg24
(iread_data
Room
p1233
(dp1234
g16
g64
sg18
g65
sbsba(ischedule
Activity
p1235
(dp1236
g8
(lp1237
g937
ag421
ag122
ag165
ag477
ag360
ag636
ag691
ag123
ag203
ag655
ag193
ag765
ag761
ag461
ag383
ag411
ag434
ag647
ag329
ag592
ag520
ag134
ag973
ag196
ag218
ag502
ag108
ag52
ag264
ag313
ag431
ag971
ag450
ag936
ag884
ag591
ag138
ag396
ag300
ag938
ag462
ag972
asg16
I1000
sg18
g940
sg20
g239
sg22
I0
sg24
(iread_data
Room
p1238
(dp1239
g16
g151
sg18
g152
sbsba(ischedule
Activity
p1240
(dp1241
g8
(lp1242
g305
ag318
ag114
ag247
ag73
ag320
ag157
ag127
ag250
ag130
ag102
asg16
g852
sg18
g321
sg20
g94
sg22
g61
sg24
(iread_data
Room
p1243
(dp1244
g16
g41
sg18
g42
sbsbaa(lp1245
(ischedule
Activity
p1246
(dp1247
g8
g1227
sg16
I1000
sg18
g19
sg20
g239
sg22
I0
sg24
(iread_data
Room
p1248
(dp1249
g16
g242
sg18
g243
sbsba(ischedule
Activity
p1250
(dp1251
g8
(lp1252
g624
ag301
ag310
ag78
ag226
ag637
ag117
ag636
ag620
ag111
ag180
ag623
ag634
ag114
ag626
ag119
ag614
ag616
asg16
g871
sg18
g639
sg20
g94
sg22
g148
sg24
(iread_data
Room
p1253
(dp1254
g16
g41
sg18
g42
sbsba(ischedule
Activity
p1255
(dp1256
g8
(lp1257
g217
ag476
ag287
ag418
ag135
ag963
ag435
ag416
ag419
ag281
ag291
asg16
g543
sg18
g293
sg20
g21
sg22
g294
sg24
(iread_data
Room
p1258
(dp1259
g16
g27
sg18
g28
sbsba(ischedule
Activity
p1260
(dp1261
g8
(lp1262
g758
ag411
ag216
ag835
ag459
ag830
ag823
ag648
ag161
ag145
ag221
ag438
ag836
ag760
ag289
ag227
ag309
ag404
ag829
ag600
ag330
ag183
ag477
ag821
ag447
ag728
ag831
ag137
ag285
ag228
ag449
ag71
ag112
ag819
ag816
ag393
ag832
ag490
asg16
g700
sg18
g701
sg20
g21
sg22
g61
sg24
g364
sba(ischedule
Activity
p1263
(dp1264
g8
(lp1265
g814
ag763
ag731
ag391
ag595
aS'10702778'
p1266
ag163
ag121
aS'64053722'
p1267
ag194
ag691
aS'51791169'
p1268
aS'54395877'
p1269
ag157
ag125
ag231
ag253
ag480
ag335
ag432
asg16
g468
sg18
g469
sg20
g94
sg22
g148
sg24
(iread_data
Room
p1270
(dp1271
g16
g275
sg18
g276
sbsba(ischedule
Activity
p1272
(dp1273
g8
(lp1274
g142
ag1201
ag420
ag192
ag694
ag168
ag359
ag689
ag1022
ag944
ag384
ag888
aS'75680261'
p1275
ag462
ag825
aS'55480737'
p1276
ag211
ag755
asg16
g532
sg18
g533
sg20
g94
sg22
g61
sg24
(iread_data
Room
p1277
(dp1278
g16
g97
sg18
g98
sbsba(ischedule
Activity
p1279
(dp1280
g8
(lp1281
g308
ag311
ag312
ag320
ag304
ag250
ag313
ag319
ag302
ag73
ag70
ag185
ag316
ag124
ag307
ag167
ag305
ag102
ag213
ag317
ag314
ag127
asg16
g1038
sg18
g321
sg20
g21
sg22
g61
sg24
(iread_data
Room
p1282
(dp1283
g16
g64
sg18
g65
sbsbaa(lp1284
(ischedule
Activity
p1285
(dp1286
g8
g962
sg16
I1000
sg18
g293
sg20
g239
sg22
I0
sg24
(iread_data
Room
p1287
(dp1288
g16
g151
sg18
g152
sbsba(ischedule
Activity
p1289
(dp1290
g8
(lp1291
g311
ag383
ag464
ag539
ag802
ag80
ag416
ag458
ag488
ag444
ag69
ag689
ag84
ag56
ag157
ag804
ag759
ag79
ag622
ag269
ag764
ag699
ag506
ag429
ag586
ag693
ag646
ag760
ag312
ag522
ag477
ag806
ag217
ag762
ag766
ag803
ag461
ag756
ag591
ag754
ag257
ag761
ag459
ag551
ag156
ag805
ag36
ag75
ag755
ag450
ag765
ag185
ag388
ag445
ag371
ag360
ag763
ag397
ag303
ag757
ag201
ag476
ag552
ag308
ag174
ag358
ag362
ag387
ag504
ag327
ag758
ag807
asg16
I1000
sg18
g768
sg20
g239
sg22
I0
sg24
g640
sba(ischedule
Activity
p1292
(dp1293
g8
(lp1294
g329
ag331
ag12
ag333
ag334
ag336
ag338
ag340
ag342
asg16
g739
sg18
g343
sg20
g21
sg22
g23
sg24
(iread_data
Room
p1295
(dp1296
g16
g41
sg18
g42
sbsba(ischedule
Activity
p1297
(dp1298
g8
(lp1299
g328
ag330
ag170
ag332
ag317
ag337
ag339
ag187
ag327
asg16
g707
sg18
g343
sg20
g94
sg22
g148
sg24
(iread_data
Room
p1300
(dp1301
g16
g97
sg18
g98
sbsba(ischedule
Activity
p1302
(dp1303
g8
(lp1304
g520
asg16
g680
sg18
g375
sg20
g21
sg22
g148
sg24
(iread_data
Room
p1305
(dp1306
g16
g27
sg18
g28
sbsba(ischedule
Activity
p1307
(dp1308
g8
(lp1309
g47
ag161
ag306
ag300
ag118
ag318
asg16
g1038
sg18
g321
sg20
g21
sg22
g23
sg24
(iread_data
Room
p1310
(dp1311
g16
g64
sg18
g65
sbsba(ischedule
Activity
p1312
(dp1313
g8
(lp1314
g110
ag389
ag404
ag396
ag122
ag304
ag403
ag386
ag388
ag194
ag14
ag382
asg16
g1115
sg18
g405
sg20
g21
sg22
g148
sg24
(iread_data
Room
p1315
(dp1316
g16
g275
sg18
g276
sbsbaaa(lp1317
(lp1318
a(lp1319
a(lp1320
a(lp1321
a(lp1322
aasS'timeslot_dict'
p1323
(dp1324
I0
S'9:00-11:00'
p1325
sI1
S'11:00-13:00'
p1326
sI2
S'13:00-15:00'
p1327
sI3
S'15:00-17:00'
p1328
sI4
S'17:00-19:00'
p1329
ssS'day_dict'
p1330
(dp1331
I0
S'Monday'
p1332
sI1
S'Tuesday'
p1333
sI2
S'Wednesday'
p1334
sI3
S'Thursday'
p1335
sI4
S'Friday'
p1336
ssb.