(ischedule
Schedule
p0
(dp1
S'timetable'
p2
(lp3
(lp4
(lp5
(ischedule
Activity
p6
(dp7
S'participants'
p8
(lp9
S'75446434'
p10
aS'23565001'
p11
aS'86180471'
p12
aS'87602030'
p13
aS'10609762'
p14
aS'64228258'
p15
aS'15902055'
p16
aS'27298319'
p17
aS'19717077'
p18
aS'51741554'
p19
aS'83415514'
p20
aS'6913074'
p21
aS'79617364'
p22
aS'12091019'
p23
aS'37279234'
p24
aS'26260141'
p25
aS'44868097'
p26
aS'93361408'
p27
aS'86000192'
p28
aS'53139134'
p29
asS'capacity'
p30
S'40'
p31
sS'name'
p32
S'Calculus 2'
p33
sS'ttype'
p34
S'tutorials'
p35
sS'group_id'
p36
S'3'
p37
sS'room'
p38
(iread_data
Room
p39
(dp40
g30
S'20'
p41
sg32
S'A1.08'
p42
sbsba(ischedule
Activity
p43
(dp44
g8
(lp45
S'95631564'
p46
aS'77376714'
p47
aS'22323043'
p48
aS'58565406'
p49
aS'37744525'
p50
aS'40343779'
p51
aS'60312776'
p52
aS'75599734'
p53
aS'27950803'
p54
aS'73236988'
p55
aS'14309255'
p56
aS'50143947'
p57
aS'41153310'
p58
aS'5976174'
p59
aS'83210352'
p60
aS'52311353'
p61
aS'89985072'
p62
aS'68409833'
p63
aS'52715680'
p64
aS'45915482'
p65
aS'82872148'
p66
aS'3727435'
p67
aS'58074656'
p68
aS'80709893'
p69
aS'89338938'
p70
aS'65318664'
p71
aS'33877725'
p72
aS'88176729'
p73
aS'37830626'
p74
aS'78443067'
p75
aS'48357272'
p76
aS'43460038'
p77
aS'13718298'
p78
aS'48601268'
p79
asg30
S'40'
p80
sg32
S'Software engineering'
p81
sg34
g35
sg36
S'2'
p82
sg38
(iread_data
Room
p83
(dp84
g30
S'60'
p85
sg32
S'C1.112'
p86
sbsba(ischedule
Activity
p87
(dp88
g8
(lp89
S'22871048'
p90
aS'37110913'
p91
aS'62356458'
p92
aS'70113753'
p93
aS'5517869'
p94
aS'39459642'
p95
aS'88627897'
p96
aS'61611295'
p97
aS'54026378'
p98
aS'19858730'
p99
aS'72796858'
p100
aS'34806836'
p101
aS'36508571'
p102
asg30
S'10'
p103
sg32
S'Autonomous Agents 2'
p104
sg34
S'labs'
p105
sg36
S'1'
p106
sg38
(iread_data
Room
p107
(dp108
g30
S'22'
p109
sg32
S'A1.06'
p110
sbsba(ischedule
Activity
p111
(dp112
g8
(lp113
S'65675896'
p114
aS'23547619'
p115
aS'44828429'
p116
aS'37399898'
p117
aS'81155296'
p118
aS'76924297'
p119
aS'3707829'
p120
aS'38179241'
p121
aS'20374340'
p122
aS'21677389'
p123
aS'76661016'
p124
aS'14847953'
p125
aS'37701751'
p126
aS'2550487'
p127
aS'66034145'
p128
aS'19214659'
p129
aS'69634191'
p130
aS'81200278'
p131
aS'28055464'
p132
aS'34765676'
p133
aS'5368702'
p134
aS'64768422'
p135
aS'93566383'
p136
aS'4546613'
p137
aS'81385263'
p138
asg30
I1000
sg32
S'Interactie-ontwerp'
p139
sg34
S'lectures'
p140
sg36
I0
sg38
(iread_data
Room
p141
(dp142
g30
S'48'
p143
sg32
S'B0.201'
p144
sbsba(ischedule
Activity
p145
(dp146
g8
(lp147
S'63634350'
p148
aS'20239127'
p149
aS'91196968'
p150
aS'97371272'
p151
aS'42115591'
p152
aS'46570285'
p153
aS'14591033'
p154
aS'41585485'
p155
ag119
aS'63408522'
p156
aS'18266644'
p157
aS'24875739'
p158
aS'31633723'
p159
aS'38329455'
p160
aS'59544049'
p161
aS'84110134'
p162
aS'72547110'
p163
aS'23391676'
p164
aS'8522855'
p165
aS'20331158'
p166
aS'64296965'
p167
aS'34262212'
p168
aS'7492204'
p169
aS'78735049'
p170
aS'99272880'
p171
aS'51542218'
p172
aS'47462856'
p173
aS'79858178'
p174
aS'39659121'
p175
aS'5615125'
p176
aS'39919665'
p177
aS'69086548'
p178
aS'3685034'
p179
aS'49631542'
p180
aS'37498675'
p181
aS'20883994'
p182
aS'14398123'
p183
aS'59075181'
p184
aS'11915563'
p185
aS'38499176'
p186
aS'31247305'
p187
aS'77240949'
p188
ag70
aS'34243356'
p189
aS'23798155'
p190
aS'82688900'
p191
aS'81218347'
p192
aS'74182182'
p193
aS'9731271'
p194
aS'17823206'
p195
ag134
aS'63955238'
p196
aS'32705005'
p197
aS'47605891'
p198
aS'28957789'
p199
aS'41527759'
p200
aS'36903574'
p201
aS'97019450'
p202
aS'78136904'
p203
aS'10792879'
p204
aS'22731474'
p205
aS'54310617'
p206
aS'14671406'
p207
aS'27187154'
p208
aS'94955328'
p209
aS'58522654'
p210
aS'79366078'
p211
aS'56749879'
p212
aS'84524083'
p213
aS'94467156'
p214
aS'55474917'
p215
aS'10872825'
p216
aS'96054456'
p217
aS'54569540'
p218
aS'91139627'
p219
aS'61518436'
p220
aS'51186803'
p221
aS'44940353'
p222
aS'65003379'
p223
aS'77636749'
p224
aS'58332004'
p225
aS'56988998'
p226
aS'58469172'
p227
aS'39230359'
p228
asg30
I1000
sg32
S'Kansrekenen 2'
p229
sg34
g140
sg36
I0
sg38
(iread_data
Room
p230
(dp231
g30
S'117'
p232
sg32
S'C0.110'
p233
sbsba(ischedule
Activity
p234
(dp235
g8
(lp236
S'56872729'
p237
aS'38296757'
p238
aS'88855695'
p239
aS'6723948'
p240
aS'6939933'
p241
aS'94686490'
p242
aS'79167252'
p243
aS'88752563'
p244
aS'80188025'
p245
aS'40141996'
p246
aS'83266686'
p247
ag204
aS'47477884'
p248
aS'23628642'
p249
aS'4783858'
p250
aS'3678531'
p251
aS'31306819'
p252
aS'10149535'
p253
aS'79888156'
p254
aS'11593163'
p255
aS'14303208'
p256
ag193
aS'16097870'
p257
aS'21029457'
p258
aS'73823548'
p259
aS'65408517'
p260
aS'75997788'
p261
ag124
aS'58040377'
p262
aS'56348773'
p263
aS'70939718'
p264
aS'33760909'
p265
aS'75585647'
p266
aS'27064249'
p267
aS'77306636'
p268
aS'55412918'
p269
aS'86807027'
p270
aS'34173695'
p271
asg30
g31
sg32
g33
sg34
g35
sg36
g106
sg38
(iread_data
Room
p272
(dp273
g30
S'41'
p274
sg32
S'A1.04'
p275
sbsba(ischedule
Activity
p276
(dp277
g8
(lp278
S'13658563'
p279
aS'61060652'
p280
aS'4568018'
p281
aS'83443653'
p282
asg30
S'25'
p283
sg32
S'Heuristieken 1'
p284
sg34
g35
sg36
g82
sg38
(iread_data
Room
p285
(dp286
g30
S'56'
p287
sg32
S'A1.10'
p288
sbsbaa(lp289
(ischedule
Activity
p290
(dp291
g8
(lp292
g210
aS'53202517'
p293
ag55
aS'74131924'
p294
aS'42196732'
p295
aS'64600457'
p296
ag154
ag240
aS'28359697'
p297
aS'24613625'
p298
aS'14816774'
p299
ag73
aS'247918'
p300
ag131
aS'22826928'
p301
aS'70878567'
p302
ag98
aS'56815156'
p303
aS'29526540'
p304
aS'85335143'
p305
ag22
asg30
S'20'
p306
sg32
S'Bioinformatica'
p307
sg34
g35
sg36
g106
sg38
(iread_data
Room
p308
(dp309
g30
g274
sg32
g275
sbsba(ischedule
Activity
p310
(dp311
g8
(lp312
S'26406342'
p313
aS'5085194'
p314
aS'44151631'
p315
aS'535689'
p316
ag256
aS'1695839'
p317
aS'72665524'
p318
aS'5892092'
p319
aS'23215240'
p320
aS'51673172'
p321
aS'71839156'
p322
aS'11068043'
p323
asg30
S'15'
p324
sg32
S'Compilerbouw practicum'
p325
sg34
g105
sg36
g37
sg38
(iread_data
Room
p326
(dp327
g30
g41
sg32
g42
sbsba(ischedule
Activity
p328
(dp329
g8
(lp330
S'75521763'
p331
aS'42778953'
p332
aS'77896638'
p333
aS'65960683'
p334
ag94
aS'17575088'
p335
aS'7308727'
p336
aS'53107172'
p337
ag115
aS'46052388'
p338
ag79
aS'24277163'
p339
aS'9332762'
p340
aS'43027916'
p341
aS'42171678'
p342
aS'96104167'
p343
aS'29474737'
p344
aS'1075391'
p345
aS'28357474'
p346
aS'22699561'
p347
ag250
aS'35330349'
p348
ag206
ag265
ag19
aS'76123484'
p349
aS'31416266'
p350
aS'3233378'
p351
aS'68601184'
p352
ag188
ag15
aS'57595888'
p353
aS'73980360'
p354
aS'87758823'
p355
aS'37770881'
p356
asg30
S'20'
p357
sg32
S'Collectieve Intelligentie'
p358
sg34
g35
sg36
S'4'
p359
sg38
(iread_data
Room
p360
(dp361
g30
g143
sg32
g144
sbsba(ischedule
Activity
p362
(dp363
g8
(lp364
g120
ag207
ag25
ag133
aS'64554442'
p365
ag16
aS'82689818'
p366
aS'46701583'
p367
aS'3474870'
p368
aS'23983476'
p369
ag47
aS'64947290'
p370
ag138
aS'43902015'
p371
aS'96453361'
p372
ag17
aS'23652927'
p373
ag155
aS'21095566'
p374
aS'19540225'
p375
aS'72895450'
p376
ag51
aS'86988337'
p377
aS'53585410'
p378
aS'67817269'
p379
ag203
aS'66433883'
p380
ag165
ag201
aS'88596522'
p381
aS'21964491'
p382
aS'91527663'
p383
aS'57467488'
p384
aS'12077419'
p385
ag116
aS'51566595'
p386
aS'58592894'
p387
ag59
ag57
ag200
aS'51509565'
p388
ag64
aS'1665980'
p389
asg30
I1000
sg32
S'Algoritmen en complexiteit'
p390
sg34
g140
sg36
I0
sg38
(iread_data
Room
p391
(dp392
g30
g232
sg32
g233
sbsba(ischedule
Activity
p393
(dp394
g8
(lp395
S'87900893'
p396
aS'13116738'
p397
aS'68360259'
p398
aS'98780382'
p399
ag48
ag195
aS'99453514'
p400
asg30
S'10'
p401
sg32
S'Data Mining'
p402
sg34
g35
sg36
g106
sg38
(iread_data
Room
p403
(dp404
g30
g85
sg32
g86
sbsba(ischedule
Activity
p405
(dp406
g8
(lp407
g100
ag52
ag185
aS'11741347'
p408
ag56
ag95
aS'86291592'
p409
aS'68315599'
p410
aS'75759231'
p411
ag247
aS'98105190'
p412
aS'30658799'
p413
aS'31194811'
p414
aS'1766560'
p415
aS'94687383'
p416
aS'66701209'
p417
aS'2317551'
p418
aS'75664412'
p419
ag53
asg30
S'40'
p420
sg32
S'Compilerbouw'
p421
sg34
g105
sg36
g106
sg38
(iread_data
Room
p422
(dp423
g30
g287
sg32
g288
sbsba(ischedule
Activity
p424
(dp425
g8
(lp426
S'72683344'
p427
aS'59289233'
p428
ag247
aS'27925117'
p429
ag190
aS'40434933'
p430
aS'14138904'
p431
aS'29718115'
p432
aS'49683101'
p433
aS'58866007'
p434
ag366
aS'28618400'
p435
aS'13798030'
p436
aS'72577292'
p437
aS'89180944'
p438
aS'70015932'
p439
ag77
aS'34872117'
p440
aS'45556081'
p441
ag253
ag166
asg30
I1000
sg32
S'Architectuur en computerorganisatie'
p442
sg34
g140
sg36
I0
sg38
(iread_data
Room
p443
(dp444
g30
g109
sg32
g110
sbsbaa(lp445
(ischedule
Activity
p446
(dp447
g8
(lp448
g60
ag185
ag71
aS'73302736'
p449
aS'51593625'
p450
ag374
ag74
ag46
ag55
ag47
ag75
ag48
ag260
ag61
ag214
ag64
aS'1048485'
p451
ag49
ag215
ag162
ag57
ag62
ag323
ag281
ag54
ag25
ag68
aS'31103066'
p452
ag79
ag72
aS'25106480'
p453
aS'9287708'
p454
ag77
aS'14072826'
p455
ag66
ag187
ag161
aS'96554914'
p456
ag152
ag207
ag53
ag50
ag58
ag78
ag63
ag280
aS'78243495'
p457
aS'99283252'
p458
ag438
ag98
ag92
ag51
aS'27582862'
p459
ag65
aS'52552718'
p460
ag346
ag73
ag137
ag67
ag59
ag351
aS'44671041'
p461
ag56
ag90
aS'62105897'
p462
ag52
aS'29640619'
p463
ag76
ag439
ag250
ag69
ag70
ag26
ag200
ag159
asg30
I1000
sg32
g81
sg34
g140
sg36
I0
sg38
(iread_data
Room
p464
(dp465
g30
g232
sg32
g233
sbsba(ischedule
Activity
p466
(dp467
g8
(lp468
S'43680781'
p469
ag301
aS'41578612'
p470
aS'87830198'
p471
aS'70193386'
p472
ag339
ag400
aS'36213792'
p473
aS'77392404'
p474
aS'36785409'
p475
aS'32044893'
p476
aS'60352393'
p477
ag64
ag54
ag238
ag149
aS'90474003'
p478
aS'4709948'
p479
ag179
aS'82390428'
p480
ag279
ag377
aS'92778619'
p481
ag91
aS'68286356'
p482
aS'59753700'
p483
ag218
ag21
aS'27370083'
p484
ag456
ag90
aS'42406214'
p485
ag203
aS'84449005'
p486
ag78
aS'77960666'
p487
aS'57086672'
p488
aS'70844780'
p489
aS'51052738'
p490
aS'5298748'
p491
aS'99975346'
p492
aS'33776961'
p493
ag213
ag117
aS'51415617'
p494
aS'27805666'
p495
aS'20095994'
p496
aS'49922855'
p497
aS'60661905'
p498
aS'13092455'
p499
ag220
asg30
I1000
sg32
S'Reflectie op de digitale cultuur'
p500
sg34
g140
sg36
I0
sg38
(iread_data
Room
p501
(dp502
g30
g85
sg32
g86
sbsba(ischedule
Activity
p503
(dp504
g8
(lp505
g370
ag202
ag409
ag195
ag296
ag212
ag208
ag367
ag352
ag136
ag416
aS'45414528'
p506
ag201
aS'44391517'
p507
aS'13996448'
p508
ag243
aS'51791169'
p509
aS'54772132'
p510
aS'61443567'
p511
asg30
S'20'
p512
sg32
S'Programmeren in Java 2'
p513
sg34
g105
sg36
g37
sg38
(iread_data
Room
p514
(dp515
g30
g41
sg32
g42
sbsba(ischedule
Activity
p516
(dp517
g8
(lp518
g16
ag331
ag333
ag382
ag115
ag335
ag354
ag206
ag350
ag15
ag265
ag366
ag94
ag342
ag345
ag356
ag28
ag355
ag210
ag340
ag341
ag353
ag344
aS'13534377'
p519
asg30
S'20'
p520
sg32
g358
sg34
g105
sg36
g106
sg38
(iread_data
Room
p521
(dp522
g30
g274
sg32
g275
sbsba(ischedule
Activity
p523
(dp524
g8
(lp525
g385
ag414
asg30
S'20'
p526
sg32
S'Technology for games'
p527
sg34
g35
sg36
g82
sg38
(iread_data
Room
p528
(dp529
g30
g143
sg32
g144
sbsbaa(lp530
(ischedule
Activity
p531
(dp532
g8
(lp533
g376
ag332
ag333
ag385
ag334
aS'34110913'
p534
ag243
ag138
ag293
ag377
aS'80135353'
p535
ag210
ag55
aS'48503689'
p536
ag510
ag440
aS'15911353'
p537
aS'46989508'
p538
ag240
aS'88636924'
p539
aS'13284244'
p540
aS'3407554'
p541
aS'13911001'
p542
ag433
aS'79033175'
p543
ag507
ag298
aS'65852230'
p544
ag204
ag124
aS'9067939'
p545
ag46
ag189
ag244
aS'40791377'
p546
ag134
aS'48308205'
p547
ag208
aS'43689934'
p548
aS'5595824'
p549
aS'95007221'
p550
ag356
ag213
aS'7957843'
p551
aS'8464817'
p552
aS'92665222'
p553
aS'76802764'
p554
ag239
ag54
aS'2079771'
p555
asg30
g420
sg32
g421
sg34
g105
sg36
g82
sg38
(iread_data
Room
p556
(dp557
g30
g287
sg32
g288
sbsba(ischedule
Activity
p558
(dp559
g8
(lp560
g294
aS'44901052'
p561
ag91
ag92
ag95
ag101
ag96
ag257
ag386
ag17
ag102
ag98
ag90
ag185
aS'62872965'
p562
ag93
ag94
ag100
ag97
ag63
ag460
ag99
asg30
I1000
sg32
g104
sg34
g140
sg36
I0
sg38
(iread_data
Room
p563
(dp564
g30
g232
sg32
g233
sbsba(ischedule
Activity
p565
(dp566
g8
(lp567
g94
ag304
aS'36527838'
p568
ag469
aS'50184318'
p569
aS'18144425'
p570
ag339
aS'41489515'
p571
ag180
ag225
ag486
aS'3883025'
p572
ag410
aS'96082155'
p573
ag56
aS'58699305'
p574
aS'51650744'
p575
ag20
ag387
ag296
aS'1181560'
p576
aS'59111489'
p577
aS'66621166'
p578
ag415
ag47
aS'27916487'
p579
aS'78544592'
p580
aS'36748818'
p581
ag438
asg30
S'20'
p582
sg32
S'Moderne Databases'
p583
sg34
g35
sg36
g82
sg38
(iread_data
Room
p584
(dp585
g30
g143
sg32
g144
sbsba(ischedule
Activity
p586
(dp587
g8
(lp588
g313
ag511
aS'62701040'
p589
ag409
ag441
aS'34773179'
p590
aS'1696500'
p591
ag52
ag16
ag389
ag437
ag366
ag463
aS'97135019'
p592
aS'17222374'
p593
ag295
ag499
aS'64393888'
p594
ag28
ag519
ag57
ag453
asg30
g357
sg32
g358
sg34
g35
sg36
g37
sg38
(iread_data
Room
p595
(dp596
g30
g109
sg32
g110
sbsba(ischedule
Activity
p597
(dp598
g8
(lp599
S'40633534'
p600
ag367
aS'48678993'
p601
aS'74361881'
p602
aS'14179347'
p603
ag165
ag183
asg30
S'15'
p604
sg32
S'Project Genetic Algorithms'
p605
sg34
g105
sg36
g82
sg38
(iread_data
Room
p606
(dp607
g30
g41
sg32
g42
sbsba(ischedule
Activity
p608
(dp609
g8
(lp610
g508
ag398
ag397
aS'19337738'
p611
ag302
aS'81022997'
p612
ag399
ag483
aS'97136582'
p613
aS'66122625'
p614
ag50
ag400
ag294
ag61
ag150
ag195
ag506
ag396
aS'87314964'
p615
aS'93023961'
p616
ag382
ag131
ag386
aS'25330192'
p617
ag48
ag91
ag57
asg30
I1000
sg32
g402
sg34
g140
sg36
I0
sg38
(iread_data
Room
p618
(dp619
g30
g274
sg32
g275
sbsba(ischedule
Activity
p620
(dp621
g8
(lp622
S'15051051'
p623
ag331
aS'49219163'
p624
ag408
aS'13218321'
p625
ag173
aS'11996292'
p626
ag305
aS'63111000'
p627
ag413
asg30
g582
sg32
g583
sg34
g35
sg36
g37
sg38
(iread_data
Room
p628
(dp629
g30
g85
sg32
g86
sbsbaa(lp630
(ischedule
Activity
p631
(dp632
g8
(lp633
g408
ag572
ag486
ag542
ag568
ag180
ag94
ag387
ag247
ag457
ag569
ag331
aS'48198668'
p634
ag415
ag493
ag624
ag342
ag573
ag413
ag304
ag575
ag75
ag173
ag579
ag593
aS'78821918'
p635
ag570
ag479
ag56
ag626
ag469
ag571
ag296
ag580
aS'70072978'
p636
ag458
ag410
ag339
ag153
ag576
ag574
ag627
aS'27241113'
p637
ag577
ag225
ag578
ag625
ag261
ag438
ag47
ag623
ag20
ag305
ag581
asg30
I1000
sg32
g583
sg34
g140
sg36
I0
sg38
(iread_data
Room
p638
(dp639
g30
g287
sg32
g288
sbsba(ischedule
Activity
p640
(dp641
g8
g610
sg30
I1000
sg32
g402
sg34
g140
sg36
I0
sg38
(iread_data
Room
p642
(dp643
g30
g85
sg32
g86
sbsba(ischedule
Activity
p644
(dp645
g8
(lp646
g430
ag77
ag72
ag293
ag511
aS'94930277'
p647
aS'20618153'
p648
ag371
aS'76903244'
p649
aS'16333449'
p650
aS'6249823'
p651
ag256
ag349
aS'17092717'
p652
ag228
aS'10698627'
p653
aS'28358060'
p654
ag176
aS'69459473'
p655
aS'49908313'
p656
aS'1137946'
p657
aS'76648468'
p658
ag438
ag488
ag437
aS'2416751'
p659
aS'41790793'
p660
aS'24891081'
p661
ag376
ag128
asg30
S'20'
p662
sg32
S'Webprogrammeren en databases'
p663
sg34
g105
sg36
g82
sg38
(iread_data
Room
p664
(dp665
g30
g274
sg32
g275
sbsba(ischedule
Activity
p666
(dp667
g8
(lp668
g185
ag280
ag59
ag214
ag90
ag281
ag250
ag76
ag260
ag67
ag454
ag374
ag64
ag58
ag215
ag159
ag63
ag51
ag461
ag62
ag449
ag456
ag98
ag162
ag69
ag52
ag53
ag50
ag70
ag71
ag453
ag48
ag26
ag200
ag79
ag66
asg30
S'40'
p669
sg32
g81
sg34
g105
sg36
g82
sg38
(iread_data
Room
p670
(dp671
g30
g232
sg32
g233
sbsba(ischedule
Activity
p672
(dp673
g8
(lp674
g435
ag427
ag270
ag248
ag553
ag115
ag318
aS'1886996'
p675
ag437
aS'62613937'
p676
ag267
aS'39429093'
p677
ag600
ag182
ag489
asg30
S'10'
p678
sg32
S'Advanced Heuristics'
p679
sg34
g105
sg36
g82
sg38
(iread_data
Room
p680
(dp681
g30
g109
sg32
g110
sbsba(ischedule
Activity
p682
(dp683
g8
(lp684
g474
ag510
ag201
ag409
aS'26207525'
p685
ag194
ag451
aS'62736669'
p686
ag189
aS'12170832'
p687
ag477
ag186
aS'85284256'
p688
ag384
ag123
aS'63573738'
p689
ag591
aS'16912993'
p690
ag471
aS'66120270'
p691
aS'72586808'
p692
aS'5590289'
p693
ag187
asg30
S'20'
p694
sg32
S'Netwerken en systeembeveiliging'
p695
sg34
g105
sg36
g359
sg38
(iread_data
Room
p696
(dp697
g30
g143
sg32
g144
sbsbaaa(lp698
(lp699
(ischedule
Activity
p700
(dp701
g8
(lp702
g250
ag338
asg30
g520
sg32
g358
sg34
g105
sg36
g82
sg38
(iread_data
Room
p703
(dp704
g30
g41
sg32
g42
sbsba(ischedule
Activity
p705
(dp706
g8
(lp707
g57
ag302
ag50
ag399
ag48
ag397
ag483
ag614
ag400
ag506
ag382
ag91
ag195
ag616
ag61
ag398
ag613
ag611
asg30
S'10'
p708
sg32
g402
sg34
g105
sg36
g37
sg38
(iread_data
Room
p709
(dp710
g30
g109
sg32
g110
sbsba(ischedule
Activity
p711
(dp712
g8
(lp713
g652
ag474
ag256
ag228
ag649
ag125
ag267
ag430
ag368
ag647
ag658
ag648
ag657
ag654
ag650
ag659
ag457
ag437
ag293
ag176
aS'53512831'
p714
ag77
ag651
ag15
aS'22288615'
p715
ag653
ag511
aS'67073567'
p716
ag371
ag438
ag656
ag655
ag128
ag72
ag661
ag349
ag376
ag660
ag488
asg30
I1000
sg32
g663
sg34
g140
sg36
I0
sg38
(iread_data
Room
p717
(dp718
g30
g143
sg32
g144
sbsba(ischedule
Activity
p719
(dp720
g8
(lp721
g207
ag385
ag386
ag200
ag138
ag377
ag25
ag378
ag51
ag369
ag389
ag165
ag388
ag16
ag387
ag59
ag379
ag203
ag366
ag372
ag376
ag374
ag120
ag201
ag17
ag116
ag373
ag64
ag133
ag383
ag370
ag155
ag381
ag384
asg30
S'25'
p722
sg32
g390
sg34
g105
sg36
g82
sg38
(iread_data
Room
p723
(dp724
g30
g274
sg32
g275
sbsba(ischedule
Activity
p725
(dp726
g8
(lp727
g294
ag617
asg30
g708
sg32
g402
sg34
g105
sg36
g106
sg38
(iread_data
Room
p728
(dp729
g30
g287
sg32
g288
sbsba(ischedule
Activity
p730
(dp731
g8
(lp732
g94
ag593
ag626
ag261
ag331
ag339
ag305
ag635
ag569
ag572
ag153
ag575
ag580
ag342
ag458
ag75
ag469
ag47
ag410
ag415
ag408
ag173
ag637
ag623
ag624
ag479
ag571
ag296
ag576
ag570
ag627
ag180
ag56
ag573
ag578
asg30
S'20'
p733
sg32
g583
sg34
g105
sg36
g106
sg38
(iread_data
Room
p734
(dp735
g30
g232
sg32
g233
sbsba(ischedule
Activity
p736
(dp737
g8
(lp738
g270
ag336
aS'21070547'
p739
ag485
aS'14941752'
p740
ag241
ag259
ag244
ag435
ag547
ag193
aS'40911986'
p741
aS'12430748'
p742
ag476
aS'34691309'
p743
aS'75005528'
p744
ag179
ag536
aS'19662602'
p745
ag332
aS'32183908'
p746
ag55
aS'37419523'
p747
ag551
ag499
aS'81116418'
p748
ag129
ag689
ag409
ag52
aS'63939720'
p749
asg30
S'15'
p750
sg32
S'Project Numerical Recipes'
p751
sg34
g105
sg36
g106
sg38
(iread_data
Room
p752
(dp753
g30
g85
sg32
g86
sbsbaa(lp754
(ischedule
Activity
p755
(dp756
g8
g468
sg30
I1000
sg32
g500
sg34
g140
sg36
I0
sg38
(iread_data
Room
p757
(dp758
g30
g85
sg32
g86
sbsba(ischedule
Activity
p759
(dp760
g8
(lp761
g511
ag457
ag293
ag72
ag651
ag376
ag658
ag660
ag716
ag128
ag438
ag649
ag371
ag77
ag430
ag256
ag657
ag349
ag228
ag656
ag437
ag652
ag654
ag661
ag659
ag368
asg30
S'20'
p762
sg32
g663
sg34
g35
sg36
g106
sg38
(iread_data
Room
p763
(dp764
g30
g274
sg32
g275
sbsba(ischedule
Activity
p765
(dp766
g8
(lp767
g17
ag63
ag185
ag460
ag257
ag561
ag294
ag562
asg30
g103
sg32
g104
sg34
g105
sg36
g37
sg38
(iread_data
Room
p768
(dp769
g30
g109
sg32
g110
sbsba(ischedule
Activity
p770
(dp771
g8
(lp772
g336
aS'77831658'
p773
ag205
ag691
ag212
ag323
ag217
ag281
asg30
g306
sg32
g307
sg34
g35
sg36
g82
sg38
(iread_data
Room
p774
(dp775
g30
g287
sg32
g288
sbsba(ischedule
Activity
p776
(dp777
g8
(lp778
g57
ag382
ag131
ag386
ag302
ag61
ag616
ag150
asg30
g401
sg32
g402
sg34
g35
sg36
g37
sg38
(iread_data
Room
p779
(dp780
g30
g41
sg32
g42
sbsbaa(lp781
(ischedule
Activity
p782
(dp783
g8
(lp784
g242
ag366
ag126
ag387
ag100
aS'13132925'
p785
ag333
ag487
ag225
ag383
aS'23257088'
p786
ag377
aS'3168419'
p787
ag212
ag300
aS'56191333'
p788
aS'58083680'
p789
ag384
ag217
ag167
ag477
ag460
ag371
ag636
ag593
aS'27123462'
p790
ag499
ag95
ag440
aS'56121590'
p791
ag23
ag463
aS'72456780'
p792
ag172
ag94
ag430
ag259
ag304
ag299
ag313
ag248
ag685
ag370
aS'4529208'
p793
aS'59397895'
p794
ag635
ag652
ag478
ag349
ag12
ag246
ag237
ag314
aS'15187217'
p795
aS'83869542'
p796
ag339
ag386
aS'23658570'
p797
ag180
aS'670011'
p798
ag244
aS'47932106'
p799
ag341
ag686
ag538
ag744
ag295
aS'5526560'
p800
aS'25077484'
p801
aS'4921119'
p802
aS'54540997'
p803
ag626
asg30
I1000
sg32
S'Databases 2'
p804
sg34
g140
sg36
I0
sg38
(iread_data
Room
p805
(dp806
g30
g232
sg32
g233
sbsba(ischedule
Activity
p807
(dp808
g8
(lp809
g382
ag217
ag55
ag691
ag293
ag212
ag469
ag26
ag73
ag240
ag205
ag623
ag297
ag301
ag787
ag72
ag98
ag298
aS'30195935'
p810
ag294
ag336
ag300
ag372
ag323
ag21
ag154
ag22
ag305
ag210
ag299
ag773
ag182
ag62
ag281
ag302
ag296
ag131
ag295
ag303
aS'33930505'
p811
ag258
ag491
ag304
ag161
aS'30050930'
p812
asg30
I1000
sg32
g307
sg34
g140
sg36
I0
sg38
(iread_data
Room
p813
(dp814
g30
g85
sg32
g86
sbsba(ischedule
Activity
p815
(dp816
g8
(lp817
g481
ag214
aS'63096281'
p818
ag380
aS'20830477'
p819
ag127
ag451
aS'79879876'
p820
aS'34900967'
p821
ag169
aS'39905995'
p822
aS'92977271'
p823
aS'47982619'
p824
ag462
ag479
ag194
ag20
ag93
asg30
g512
sg32
g513
sg34
g105
sg36
S'5'
p825
sg38
(iread_data
Room
p826
(dp827
g30
g41
sg32
g42
sbsba(ischedule
Activity
p828
(dp829
g8
(lp830
g612
ag508
asg30
g750
sg32
g751
sg34
g105
sg36
g82
sg38
(iread_data
Room
p831
(dp832
g30
g274
sg32
g275
sbsba(ischedule
Activity
p833
(dp834
g8
(lp835
g57
ag389
aS'25994016'
p836
aS'82066165'
p837
ag114
ag64
ag378
ag353
aS'14383795'
p838
ag541
aS'51472074'
p839
aS'91250534'
p840
ag171
aS'47260040'
p841
aS'11459236'
p842
aS'41644639'
p843
aS'32204977'
p844
ag542
asg30
g324
sg32
g325
sg34
g105
sg36
g106
sg38
(iread_data
Room
p845
(dp846
g30
g143
sg32
g144
sbsbaa(lp847
(ischedule
Activity
p848
(dp849
g8
g809
sg30
I1000
sg32
g307
sg34
g140
sg36
I0
sg38
(iread_data
Room
p850
(dp851
g30
g287
sg32
g288
sbsba(ischedule
Activity
p852
(dp853
g8
(lp854
g95
ag313
ag798
ag744
ag626
ag652
ag371
ag802
ag349
ag333
ag242
ag430
ag94
ag237
ag789
ag799
ag790
ag796
ag377
ag636
ag477
ag12
ag800
ag686
ag248
ag341
ag791
ag788
ag387
ag370
ag792
ag593
ag244
ag801
ag460
ag314
ag384
ag793
ag386
asg30
S'40'
p855
sg32
g804
sg34
g35
sg36
g82
sg38
(iread_data
Room
p856
(dp857
g30
g85
sg32
g86
sbsba(ischedule
Activity
p858
(dp859
g8
g113
sg30
I1000
sg32
g139
sg34
g140
sg36
I0
sg38
(iread_data
Room
p860
(dp861
g30
g143
sg32
g144
sbsba(ischedule
Activity
p862
(dp863
g8
(lp864
g213
ag409
ag53
ag243
ag547
ag247
ag411
ag46
ag413
ag415
ag541
ag540
ag534
ag416
ag376
ag385
ag418
asg30
S'40'
p865
sg32
g421
sg34
g35
sg36
g106
sg38
(iread_data
Room
p866
(dp867
g30
g41
sg32
g42
sbsba(ischedule
Activity
p868
(dp869
g8
(lp870
g157
ag331
aS'8557857'
p871
ag369
aS'19958553'
p872
ag842
ag410
ag302
ag589
ag397
ag266
ag844
ag432
aS'17496687'
p873
ag786
ag561
ag225
ag823
ag224
ag279
ag581
asg30
I1000
sg32
S'Informatie- en organsatieontwerp'
p874
sg34
g140
sg36
I0
sg38
(iread_data
Room
p875
(dp876
g30
g274
sg32
g275
sbsba(ischedule
Activity
p877
(dp878
g8
g147
sg30
I1000
sg32
g229
sg34
g140
sg36
I0
sg38
(iread_data
Room
p879
(dp880
g30
g232
sg32
g233
sbsbaa(lp881
(ischedule
Activity
p882
(dp883
g8
(lp884
g356
ag551
ag537
ag542
ag417
ag124
ag413
ag55
ag546
ag539
ag550
ag56
ag95
ag293
ag535
ag510
ag538
ag540
ag138
ag376
ag243
ag332
ag411
ag433
ag100
ag210
ag547
ag247
ag54
ag134
ag334
ag244
ag544
ag414
ag298
ag189
ag553
ag545
ag543
ag333
ag52
ag208
ag185
ag418
ag53
ag555
ag419
ag377
ag440
ag408
ag415
ag541
ag507
ag46
ag536
ag410
ag534
ag240
ag549
ag554
ag548
ag409
ag412
ag239
ag204
ag385
ag552
ag416
ag213
asg30
I1000
sg32
g421
sg34
g140
sg36
I0
sg38
(iread_data
Room
p885
(dp886
g30
g232
sg32
g233
sbsba(ischedule
Activity
p887
(dp888
g8
(lp889
g475
ag844
ag313
ag151
ag331
aS'7106649'
p890
ag430
ag419
ag469
ag305
ag414
ag547
ag224
ag742
aS'21192048'
p891
ag340
ag385
ag56
ag651
ag253
ag410
ag48
ag178
aS'4697362'
p892
ag838
ag626
aS'77264363'
p893
ag91
ag49
ag824
aS'93041523'
p894
ag470
ag70
aS'70336464'
p895
aS'76487754'
p896
aS'92496780'
p897
ag561
ag115
asg30
I1000
sg32
g527
sg34
g140
sg36
I0
sg38
(iread_data
Room
p898
(dp899
g30
g274
sg32
g275
sbsba(ischedule
Activity
p900
(dp901
g8
(lp902
g214
ag215
ag161
ag26
ag159
ag207
ag200
ag187
ag460
ag152
ag162
ag90
ag25
ag260
ag137
ag92
ag98
ag250
ag280
ag453
ag455
ag323
ag456
ag439
ag438
ag452
ag185
ag459
ag454
ag458
ag346
ag463
ag281
ag462
ag450
ag461
ag374
ag457
ag351
ag451
ag449
asg30
g80
sg32
g81
sg34
g35
sg36
g106
sg38
(iread_data
Room
p903
(dp904
g30
g85
sg32
g86
sbsba(ischedule
Activity
p905
(dp906
g8
(lp907
g479
ag51
ag131
ag318
ag601
aS'53267490'
p908
aS'123355'
p909
ag788
aS'4353500'
p910
ag613
ag183
ag336
ag366
ag572
ag165
ag157
ag184
aS'64246605'
p911
ag810
aS'19058315'
p912
ag435
ag592
ag792
ag811
asg30
g694
sg32
g695
sg34
g105
sg36
g106
sg38
(iread_data
Room
p913
(dp914
g30
g287
sg32
g288
sbsba(ischedule
Activity
p915
(dp916
g8
(lp917
g368
ag382
ag371
ag47
ag57
ag375
ag380
ag367
ag365
asg30
g722
sg32
g390
sg34
g105
sg36
g106
sg38
(iread_data
Room
p918
(dp919
g30
g143
sg32
g144
sbsba(ischedule
Activity
p920
(dp921
g8
(lp922
g511
ag265
ag341
ag386
ag257
ag492
ag488
aS'52304977'
p923
ag59
ag798
ag612
ag262
aS'72652638'
p924
ag13
aS'85236626'
p925
ag133
ag796
asg30
S'20'
p926
sg32
S'Heuristieken 2'
p927
sg34
g35
sg36
g106
sg38
(iread_data
Room
p928
(dp929
g30
g41
sg32
g42
sbsba(ischedule
Activity
p930
(dp931
g8
(lp932
g261
ag477
ag203
ag787
ag125
asg30
g678
sg32
g679
sg34
g105
sg36
g106
sg38
(iread_data
Room
p933
(dp934
g30
g109
sg32
g110
sbsbaaa(lp935
(lp936
(ischedule
Activity
p937
(dp938
g8
g884
sg30
I1000
sg32
g421
sg34
g140
sg36
I0
sg38
g391
sba(ischedule
Activity
p939
(dp940
g8
(lp941
g469
ag161
ag382
ag182
ag21
ag26
ag72
ag491
ag810
ag372
ag258
ag787
ag811
ag812
ag623
ag62
asg30
g306
sg32
g307
sg34
g35
sg36
g37
sg38
(iread_data
Room
p942
(dp943
g30
g143
sg32
g144
sbsba(ischedule
Activity
p944
(dp945
g8
(lp946
g118
ag462
ag217
ag592
ag194
ag153
ag121
ag170
aS'22168693'
p947
ag199
ag176
ag76
ag148
ag137
ag299
ag197
ag227
aS'62363761'
p948
ag387
ag799
ag158
aS'33672995'
p949
ag449
aS'61520025'
p950
aS'65978354'
p951
ag65
ag318
aS'82412626'
p952
ag378
ag580
ag296
ag367
ag574
aS'59220392'
p953
ag396
aS'56544130'
p954
ag305
ag75
ag603
aS'55530367'
p955
ag208
aS'58253841'
p956
ag154
ag797
aS'6709529'
p957
aS'75623387'
p958
ag429
aS'72526473'
p959
asg30
g31
sg32
g33
sg34
g35
sg36
g82
sg38
(iread_data
Room
p960
(dp961
g30
g85
sg32
g86
sbsba(ischedule
Activity
p962
(dp963
g8
(lp964
g802
ag60
aS'66570705'
p965
aS'34588570'
p966
ag744
ag150
ag152
ag215
ag237
ag193
aS'16011419'
p967
ag117
aS'21311067'
p968
ag562
aS'79937969'
p969
ag69
ag269
ag154
ag798
aS'26172512'
p970
aS'54074680'
p971
ag355
ag333
ag253
ag568
ag322
ag434
ag138
ag61
aS'90743504'
p972
aS'32595335'
p973
ag368
ag192
ag242
ag470
aS'80998260'
p974
ag280
ag11
aS'96118484'
p975
ag189
ag136
ag257
ag650
ag209
ag295
ag63
ag547
ag350
ag102
ag332
ag22
ag348
ag94
ag186
asg30
I1000
sg32
S'Lineaire Algebra'
p976
sg34
g140
sg36
I0
sg38
(iread_data
Room
p977
(dp978
g30
g287
sg32
g288
sbsba(ischedule
Activity
p979
(dp980
g8
(lp981
g279
ag561
ag823
ag225
ag432
ag224
ag844
ag589
ag266
ag581
ag369
ag872
ag331
ag842
asg30
S'15'
p982
sg32
g874
sg34
g35
sg36
g106
sg38
(iread_data
Room
p983
(dp984
g30
g274
sg32
g275
sbsba(ischedule
Activity
p985
(dp986
g8
(lp987
g386
ag460
asg30
S'10'
p988
sg32
g104
sg34
g35
sg36
g37
sg38
(iread_data
Room
p989
(dp990
g30
g41
sg32
g42
sbsba(ischedule
Activity
p991
(dp992
g8
(lp993
g294
ag91
ag508
ag614
ag611
ag506
ag483
ag617
ag613
ag615
ag612
ag50
asg30
g401
sg32
g402
sg34
g35
sg36
g82
sg38
(iread_data
Room
p994
(dp995
g30
g109
sg32
g110
sbsbaa(lp996
(ischedule
Activity
p997
(dp998
g8
(lp999
g188
ag334
ag354
ag355
ag463
ag52
ag265
ag250
ag347
ag333
ag343
ag350
ag591
ag57
ag115
ag15
ag313
ag590
ag339
ag341
ag344
ag336
ag499
ag295
ag382
ag352
ag94
ag569
ag28
ag346
ag349
ag331
ag356
ag19
ag210
ag366
ag441
ag337
ag345
ag511
ag519
ag389
ag332
ag351
ag409
ag167
ag335
ag348
ag206
ag437
ag353
ag589
ag340
ag453
ag79
ag594
ag338
ag592
ag342
ag16
ag593
asg30
I1000
sg32
g358
sg34
g140
sg36
I0
sg38
(iread_data
Room
p1000
(dp1001
g30
g232
sg32
g233
sbsba(ischedule
Activity
p1002
(dp1003
g8
(lp1004
g410
ag302
ag872
ag157
ag279
ag844
ag581
ag432
asg30
S'15'
p1005
sg32
g874
sg34
g105
sg36
g106
sg38
(iread_data
Room
p1006
(dp1007
g30
g85
sg32
g86
sbsba(ischedule
Activity
p1008
(dp1009
g8
(lp1010
g600
ag248
ag437
ag125
ag261
ag787
ag677
ag270
ag489
ag477
ag318
ag435
ag182
ag427
ag676
ag203
ag675
ag267
ag115
ag553
asg30
I1000
sg32
g679
sg34
g140
sg36
I0
sg38
(iread_data
Room
p1011
(dp1012
g30
g143
sg32
g144
sbsba(ischedule
Activity
p1013
(dp1014
g8
(lp1015
g257
ag100
ag185
ag95
ag561
ag91
ag294
ag97
ag17
ag102
ag101
asg30
g988
sg32
g104
sg34
g35
sg36
g106
sg38
(iread_data
Room
p1016
(dp1017
g30
g274
sg32
g275
sbsba(ischedule
Activity
p1018
(dp1019
g8
(lp1020
g386
ag508
ag612
ag150
ag396
ag131
ag615
asg30
g708
sg32
g402
sg34
g105
sg36
g82
sg38
(iread_data
Room
p1021
(dp1022
g30
g41
sg32
g42
sbsbaa(lp1023
(ischedule
Activity
p1024
(dp1025
g8
(lp1026
g305
ag626
ag430
ag469
ag475
ag151
ag70
ag894
ag893
ag91
ag896
ag48
ag253
ag844
ag895
ag340
ag561
ag331
ag49
ag224
ag547
ag470
ag892
ag890
ag178
ag115
ag897
ag56
ag419
ag891
ag410
ag651
ag742
ag824
ag838
ag313
asg30
g526
sg32
g527
sg34
g35
sg36
g106
sg38
(iread_data
Room
p1027
(dp1028
g30
g143
sg32
g144
sbsba(ischedule
Activity
p1029
(dp1030
g8
(lp1031
g437
ag463
ag591
ag332
ag79
ag188
ag409
ag167
ag592
ag337
ag453
ag499
ag334
ag569
ag295
ag346
ag351
ag19
ag336
asg30
g520
sg32
g358
sg34
g105
sg36
g37
sg38
(iread_data
Room
p1032
(dp1033
g30
g109
sg32
g110
sbsba(ischedule
Activity
p1034
(dp1035
g8
(lp1036
g380
ag389
ag51
ag165
ag25
ag375
ag120
ag376
ag368
ag47
ag57
ag384
ag133
ag365
ag388
ag367
ag116
ag203
asg30
S'25'
p1037
sg32
g390
sg34
g35
sg36
g82
sg38
(iread_data
Room
p1038
(dp1039
g30
g232
sg32
g233
sbsba(ischedule
Activity
p1040
(dp1041
g8
(lp1042
g131
ag298
ag240
ag210
ag293
ag303
ag205
ag55
ag98
ag22
ag304
ag281
ag217
ag297
ag294
ag182
ag26
ag161
ag623
ag21
ag73
ag299
ag301
ag300
asg30
S'20'
p1043
sg32
g307
sg34
g105
sg36
g82
sg38
(iread_data
Room
p1044
(dp1045
g30
g287
sg32
g288
sbsba(ischedule
Activity
p1046
(dp1047
g8
(lp1048
g155
ag370
ag381
ag379
ag16
ag201
ag382
ag387
ag366
ag372
ag369
ag373
ag371
ag64
ag377
ag207
ag59
ag138
ag383
ag385
ag386
ag374
ag200
ag378
ag17
asg30
g1037
sg32
g390
sg34
g35
sg36
g106
sg38
(iread_data
Room
p1049
(dp1050
g30
g274
sg32
g275
sbsba(ischedule
Activity
p1051
(dp1052
g8
(lp1053
g593
ag247
ag479
ag634
ag153
ag635
ag458
ag457
ag542
ag493
ag342
ag637
ag75
ag636
ag261
asg30
g582
sg32
g583
sg34
g35
sg36
g106
sg38
(iread_data
Room
p1054
(dp1055
g30
g41
sg32
g42
sbsba(ischedule
Activity
p1056
(dp1057
g8
(lp1058
g627
ag536
ag487
aS'28943658'
p1059
ag148
ag688
ag797
ag798
ag251
ag350
asg30
g512
sg32
g513
sg34
g105
sg36
g82
sg38
(iread_data
Room
p1060
(dp1061
g30
g85
sg32
g86
sbsbaa(lp1062
(ischedule
Activity
p1063
(dp1064
g8
g713
sg30
I1000
sg32
g663
sg34
g140
sg36
I0
sg38
(iread_data
Room
p1065
(dp1066
g30
g143
sg32
g144
sbsba(ischedule
Activity
p1067
(dp1068
g8
(lp1069
g225
ag786
ag787
ag300
ag217
ag299
ag212
ag304
ag126
ag797
ag366
ag172
ag803
ag794
ag100
ag478
ag383
ag487
ag295
ag635
ag167
ag463
ag23
ag795
ag785
ag440
ag339
ag499
ag259
ag685
ag538
ag180
ag246
asg30
g855
sg32
g804
sg34
g35
sg36
g106
sg38
(iread_data
Room
p1070
(dp1071
g30
g274
sg32
g275
sbsba(ischedule
Activity
p1072
(dp1073
g8
g889
sg30
I1000
sg32
g527
sg34
g140
sg36
I0
sg38
g391
sba(ischedule
Activity
p1074
(dp1075
g8
g964
sg30
I1000
sg32
g976
sg34
g140
sg36
I0
sg38
(iread_data
Room
p1076
(dp1077
g30
g287
sg32
g288
sbsba(ischedule
Activity
p1078
(dp1079
g8
(lp1080
g555
ag95
ag59
aS'33252501'
p1081
ag627
ag925
ag367
ag623
ag208
ag188
aS'26857113'
p1082
aS'90067329'
p1083
aS'67625383'
p1084
ag50
ag238
ag226
ag179
ag433
ag220
ag190
ag546
ag214
asg30
I1000
sg32
S'Machine Learning'
p1085
sg34
g140
sg36
I0
sg38
(iread_data
Room
p1086
(dp1087
g30
g85
sg32
g86
sbsba(ischedule
Activity
p1088
(dp1089
g8
(lp1090
g382
asg30
g357
sg32
g358
sg34
g35
sg36
g82
sg38
(iread_data
Room
p1091
(dp1092
g30
g41
sg32
g42
sbsba(ischedule
Activity
p1093
(dp1094
g8
(lp1095
g298
ag356
ag429
asg30
g604
sg32
g605
sg34
g105
sg36
g106
sg38
(iread_data
Room
p1096
(dp1097
g30
g109
sg32
g110
sbsbaa(lp1098
(ischedule
Activity
p1099
(dp1100
g8
g999
sg30
I1000
sg32
g358
sg34
g140
sg36
I0
sg38
(iread_data
Room
p1101
(dp1102
g30
g232
sg32
g233
sbsba(ischedule
Activity
p1103
(dp1104
g8
g560
sg30
I1000
sg32
g104
sg34
g140
sg36
I0
sg38
(iread_data
Room
p1105
(dp1106
g30
g287
sg32
g288
sbsba(ischedule
Activity
p1107
(dp1108
g8
(lp1109
g238
ag78
ag476
ag301
ag498
ag480
ag474
ag491
ag469
ag179
ag473
ag117
ag477
ag203
ag400
ag54
ag481
ag475
ag486
ag149
asg30
S'20'
p1110
sg32
g500
sg34
g35
sg36
g82
sg38
(iread_data
Room
p1111
(dp1112
g30
g109
sg32
g110
sbsba(ischedule
Activity
p1113
(dp1114
g8
(lp1115
g220
ag377
ag472
ag485
ag493
ag470
ag456
ag218
ag496
ag495
ag21
ag488
ag492
ag494
ag471
ag487
ag64
ag489
ag490
ag478
ag497
ag90
ag479
asg30
g1110
sg32
g500
sg34
g35
sg36
g106
sg38
(iread_data
Room
p1116
(dp1117
g30
g143
sg32
g144
sbsba(ischedule
Activity
p1118
(dp1119
g8
g870
sg30
I1000
sg32
g874
sg34
g140
sg36
I0
sg38
(iread_data
Room
p1120
(dp1121
g30
g274
sg32
g275
sbsba(ischedule
Activity
p1122
(dp1123
g8
(lp1124
g890
ag213
ag131
ag601
ag675
aS'58736785'
p1125
aS'31897288'
p1126
aS'15249775'
p1127
ag429
ag457
aS'82968410'
p1128
aS'35315956'
p1129
ag148
aS'5739011'
p1130
ag205
asg30
g926
sg32
g927
sg34
g35
sg36
g82
sg38
(iread_data
Room
p1131
(dp1132
g30
g41
sg32
g42
sbsbaaa(lp1133
(lp1134
(ischedule
Activity
p1135
(dp1136
g8
(lp1137
g386
asg30
g103
sg32
g104
sg34
g105
sg36
g82
sg38
(iread_data
Room
p1138
(dp1139
g30
g41
sg32
g42
sbsba(ischedule
Activity
p1140
(dp1141
g8
(lp1142
g75
ag57
ag77
ag457
ag438
ag56
ag72
ag47
ag61
ag458
ag25
ag187
ag451
ag55
ag351
ag152
ag137
ag463
ag46
ag74
ag161
ag460
ag68
ag459
ag92
ag78
ag452
ag54
ag49
ag346
ag439
ag60
ag455
ag450
ag207
ag323
ag462
ag65
ag73
asg30
g669
sg32
g81
sg34
g105
sg36
g106
sg38
(iread_data
Room
p1143
(dp1144
g30
g287
sg32
g288
sbsba(ischedule
Activity
p1145
(dp1146
g8
(lp1147
g227
ag217
aS'73893840'
p1148
ag155
ag186
ag240
aS'64053722'
p1149
ag418
ag493
aS'10702778'
p1150
ag659
aS'88597745'
p1151
ag58
ag28
ag715
ag225
ag209
ag382
ag301
ag636
aS'7386961'
p1152
ag802
ag535
ag320
ag262
ag21
asg30
g512
sg32
g513
sg34
g105
sg36
g106
sg38
(iread_data
Room
p1153
(dp1154
g30
g143
sg32
g144
sbsba(ischedule
Activity
p1155
(dp1156
g8
(lp1157
g279
ag213
ag499
ag339
ag484
ag482
ag91
ag483
asg30
g1110
sg32
g500
sg34
g35
sg36
g37
sg38
(iread_data
Room
p1158
(dp1159
g30
g109
sg32
g110
sbsba(ischedule
Activity
p1160
(dp1161
g8
g1080
sg30
I1000
sg32
g1085
sg34
g140
sg36
I0
sg38
(iread_data
Room
p1162
(dp1163
g30
g232
sg32
g233
sbsba(ischedule
Activity
p1164
(dp1165
g8
(lp1166
g410
ag302
ag157
ag786
ag873
ag397
ag871
asg30
g982
sg32
g874
sg34
g35
sg36
g82
sg38
(iread_data
Room
p1167
(dp1168
g30
g85
sg32
g86
sbsba(ischedule
Activity
p1169
(dp1170
g8
(lp1171
g166
ag202
ag270
ag90
ag184
ag154
ag212
ag192
ag201
ag250
ag91
ag99
ag431
ag76
ag740
ag591
aS'53775014'
p1172
ag614
ag819
ag337
ag342
ag299
ag1126
ag412
aS'97417002'
p1173
ag261
ag626
ag561
ag823
ag820
ag322
aS'87210640'
p1174
ag1125
ag384
aS'45660925'
p1175
ag48
aS'76393508'
p1176
ag331
ag647
ag910
asg30
g283
sg32
g284
sg34
g35
sg36
g106
sg38
(iread_data
Room
p1177
(dp1178
g30
g274
sg32
g275
sbsbaa(lp1179
(ischedule
Activity
p1180
(dp1181
g8
(lp1182
g1125
ag925
ag511
ag601
ag1129
ag148
ag205
ag924
ag923
ag492
ag59
ag488
ag265
ag612
ag457
ag1127
ag675
ag1130
ag213
ag133
ag341
ag13
ag429
ag890
ag257
ag1128
ag796
ag262
ag386
ag798
ag1126
ag131
asg30
I1000
sg32
g927
sg34
g140
sg36
I0
sg38
(iread_data
Room
p1183
(dp1184
g30
g232
sg32
g233
sbsba(ischedule
Activity
p1185
(dp1186
g8
(lp1187
g94
ag562
ag98
ag99
ag96
ag93
ag63
ag90
ag92
asg30
g988
sg32
g104
sg34
g35
sg36
g82
sg38
(iread_data
Room
p1188
(dp1189
g30
g41
sg32
g42
sbsba(ischedule
Activity
p1190
(dp1191
g8
(lp1192
g124
ag55
ag210
ag134
ag410
ag240
ag95
ag100
ag298
ag138
ag440
ag333
ag536
ag550
ag510
ag293
ag537
ag56
ag548
ag185
ag549
ag332
ag208
ag538
ag377
ag545
ag543
ag419
ag356
ag553
ag204
ag189
ag408
ag52
ag539
ag334
ag542
ag507
ag244
ag417
ag546
ag551
ag433
ag412
ag535
ag54
ag544
ag555
ag552
ag414
ag239
ag554
asg30
g865
sg32
g421
sg34
g35
sg36
g82
sg38
(iread_data
Room
p1193
(dp1194
g30
g85
sg32
g86
sbsba(ischedule
Activity
p1195
(dp1196
g8
(lp1197
g474
ag176
ag125
ag655
ag653
ag714
ag15
ag647
ag650
ag488
ag267
ag715
ag648
asg30
g762
sg32
g663
sg34
g35
sg36
g82
sg38
(iread_data
Room
p1198
(dp1199
g30
g287
sg32
g288
sbsba(ischedule
Activity
p1200
(dp1201
g8
(lp1202
g331
ag589
ag561
ag842
ag225
ag786
ag823
ag266
ag224
ag873
ag397
ag369
ag871
asg30
g1005
sg32
g874
sg34
g105
sg36
g82
sg38
(iread_data
Room
p1203
(dp1204
g30
g274
sg32
g275
sbsba(ischedule
Activity
p1205
(dp1206
g8
(lp1207
g810
ag72
ag212
ag811
ag302
ag382
ag773
ag372
ag336
asg30
g1043
sg32
g307
sg34
g105
sg36
g37
sg38
(iread_data
Room
p1208
(dp1209
g30
g109
sg32
g110
sbsba(ischedule
Activity
p1210
(dp1211
g8
(lp1212
g691
ag295
ag62
ag812
ag787
ag154
ag469
ag296
ag258
ag305
ag491
ag323
asg30
g1043
sg32
g307
sg34
g105
sg36
g106
sg38
(iread_data
Room
p1213
(dp1214
g30
g143
sg32
g144
sbsbaa(lp1215
(ischedule
Activity
p1216
(dp1217
g8
g999
sg30
I1000
sg32
g358
sg34
g140
sg36
I0
sg38
(iread_data
Room
p1218
(dp1219
g30
g232
sg32
g233
sbsba(ischedule
Activity
p1220
(dp1221
g8
(lp1222
S'58480929'
p1223
ag209
ag90
ag692
ag797
ag78
ag676
ag245
ag190
ag802
ag635
aS'14637758'
p1224
ag305
ag954
ag549
ag821
ag498
ag282
ag167
ag257
ag61
aS'18477924'
p1225
ag949
aS'73350019'
p1226
ag172
aS'88737765'
p1227
ag475
ag488
ag471
ag261
ag202
ag341
aS'82854435'
p1228
ag76
ag792
ag601
ag303
ag773
aS'97838175'
p1229
ag71
aS'78822885'
p1230
ag472
ag152
ag11
ag157
ag449
ag189
ag314
ag470
asg30
I1000
sg32
S'Analysemethoden en -technieken'
p1231
sg34
g140
sg36
I0
sg38
(iread_data
Room
p1232
(dp1233
g30
g287
sg32
g288
sbsba(ischedule
Activity
p1234
(dp1235
g8
(lp1236
g486
ag20
ag225
ag438
ag542
ag579
ag457
ag636
ag574
ag577
ag568
ag247
ag581
ag625
ag634
ag304
asg30
g733
sg32
g583
sg34
g105
sg36
g82
sg38
(iread_data
Room
p1237
(dp1238
g30
g109
sg32
g110
sbsba(ischedule
Activity
p1239
(dp1240
g8
(lp1241
g431
ag281
aS'55103073'
p1242
ag381
ag602
ag62
ag186
ag148
aS'64418623'
p1243
aS'42297781'
p1244
asg30
g324
sg32
g325
sg34
g105
sg36
g82
sg38
(iread_data
Room
p1245
(dp1246
g30
g143
sg32
g144
sbsba(ischedule
Activity
p1247
(dp1248
g8
(lp1249
g387
ag413
ag493
asg30
g733
sg32
g583
sg34
g105
sg36
g37
sg38
(iread_data
Room
p1250
(dp1251
g30
g41
sg32
g42
sbsbaa(lp1252
(ischedule
Activity
p1253
(dp1254
g8
(lp1255
g797
ag15
ag25
ag238
ag261
ag396
ag76
ag20
ag249
ag193
ag244
ag17
ag158
ag262
ag241
ag253
ag118
ag257
ag245
ag958
ag176
ag19
ag254
ag199
ag22
ag318
ag948
ag14
ag952
ag296
ag148
ag449
ag246
ag18
ag260
ag265
ag252
ag240
ag227
ag247
ag23
ag956
ag950
ag299
ag268
ag12
ag799
ag242
ag170
ag580
ag16
ag197
ag208
ag953
ag259
ag264
ag959
ag75
ag267
ag255
ag955
ag429
ag124
ag603
ag266
ag387
ag204
ag462
ag24
ag269
ag29
ag367
ag243
ag217
ag951
ag137
ag378
ag957
ag26
ag256
ag271
ag237
ag13
ag954
ag305
ag592
ag65
ag258
ag194
ag27
ag949
ag153
ag21
ag947
ag28
ag263
ag154
ag250
ag10
ag239
ag251
ag574
ag11
ag121
ag248
ag270
asg30
I1000
sg32
g33
sg34
g140
sg36
I0
sg38
g391
sba(ischedule
Activity
p1256
(dp1257
g8
(lp1258
g569
ag167
ag210
asg30
g357
sg32
g358
sg34
g35
sg36
g106
sg38
(iread_data
Room
p1259
(dp1260
g30
g41
sg32
g42
sbsba(ischedule
Activity
p1261
(dp1262
g8
(lp1263
g614
ag76
ag166
ag591
ag1125
ag626
ag1175
ag91
ag1176
ag337
ag740
ag192
ag1174
ag322
ag1173
ag184
ag48
ag1172
ag280
ag250
ag342
ag431
ag299
ag90
ag910
ag647
ag823
ag261
ag281
ag412
ag202
ag561
ag282
ag331
ag1126
ag820
ag279
ag154
ag819
ag270
ag201
ag384
ag99
ag212
asg30
I1000
sg32
g284
sg34
g140
sg36
I0
sg38
(iread_data
Room
p1264
(dp1265
g30
g287
sg32
g288
sbsba(ischedule
Activity
p1266
(dp1267
g8
(lp1268
g489
ag791
ag463
ag50
ag138
asg30
g694
sg32
g695
sg34
g105
sg36
g82
sg38
(iread_data
Room
p1269
(dp1270
g30
g143
sg32
g144
sbsba(ischedule
Activity
p1271
(dp1272
g8
(lp1273
g339
ag594
ag590
ag511
ag347
ag352
ag593
ag349
ag389
ag348
ag313
ag441
ag589
ag52
ag343
ag57
asg30
g520
sg32
g358
sg34
g105
sg36
g359
sg38
(iread_data
Room
p1274
(dp1275
g30
g109
sg32
g110
sbsba(ischedule
Activity
p1276
(dp1277
g8
(lp1278
g70
ag415
ag92
aS'90103047'
p1279
ag376
ag323
ag162
ag127
ag205
ag773
ag540
asg30
g750
sg32
g751
sg34
g105
sg36
g37
sg38
(iread_data
Room
p1280
(dp1281
g30
g85
sg32
g86
sbsbaa(lp1282
(ischedule
Activity
p1283
(dp1284
g8
g426
sg30
I1000
sg32
g442
sg34
g140
sg36
I0
sg38
(iread_data
Room
p1285
(dp1286
g30
g274
sg32
g275
sbsba(ischedule
Activity
p1287
(dp1288
g8
(lp1289
g95
ag463
ag340
ag377
ag786
ag450
ag171
aS'90296821'
p1290
aS'12782624'
p1291
ag248
aS'54395877'
p1292
ag117
ag925
ag594
ag1082
ag50
ag168
ag498
aS'73196865'
p1293
ag164
ag16
ag653
ag459
ag333
ag369
asg30
g512
sg32
g513
sg34
g105
sg36
g359
sg38
(iread_data
Room
p1294
(dp1295
g30
g232
sg32
g233
sbsba(ischedule
Activity
p1296
(dp1297
g8
(lp1298
g63
ag590
ag836
ag470
ag458
ag800
ag214
ag471
ag13
ag119
ag843
ag486
ag54
ag837
ag12
aS'75680261'
p1299
ag801
ag124
ag417
ag1227
ag956
aS'55480737'
p1300
ag635
ag655
ag321
ag453
asg30
g604
sg32
g605
sg34
g105
sg36
g37
sg38
(iread_data
Room
p1301
(dp1302
g30
g143
sg32
g144
sbsba(ischedule
Activity
p1303
(dp1304
g8
g809
sg30
I1000
sg32
g307
sg34
g140
sg36
I0
sg38
(iread_data
Room
p1305
(dp1306
g30
g287
sg32
g288
sbsba(ischedule
Activity
p1307
(dp1308
g8
(lp1309
g267
ag457
ag474
ag714
ag125
ag716
ag368
ag15
ag715
asg30
g662
sg32
g663
sg34
g105
sg36
g106
sg38
(iread_data
Room
p1310
(dp1311
g30
g85
sg32
g86
sbsba(ischedule
Activity
p1312
(dp1313
g8
(lp1314
g270
ag589
ag215
aS'88263855'
p1315
ag150
aS'88519892'
p1316
ag461
ag648
ag378
ag24
ag1127
ag552
asg30
g512
sg32
g513
sg34
g105
sg36
S'6'
p1317
sg38
(iread_data
Room
p1318
(dp1319
g30
g109
sg32
g110
sbsba(ischedule
Activity
p1320
(dp1321
g8
(lp1322
g612
ag561
ag617
ag948
ag316
ag419
ag551
aS'59887191'
p1323
aS'25557516'
p1324
ag264
ag19
ag66
asg30
g694
sg32
g695
sg34
g105
sg36
g37
sg38
(iread_data
Room
p1325
(dp1326
g30
g41
sg32
g42
sbsbaaa(lp1327
(lp1328
a(lp1329
a(lp1330
a(lp1331
a(lp1332
aasS'timeslot_dict'
p1333
(dp1334
I0
S'9:00-11:00'
p1335
sI1
S'11:00-13:00'
p1336
sI2
S'13:00-15:00'
p1337
sI3
S'15:00-17:00'
p1338
sI4
S'17:00-19:00'
p1339
ssS'day_dict'
p1340
(dp1341
I0
S'Monday'
p1342
sI1
S'Tuesday'
p1343
sI2
S'Wednesday'
p1344
sI3
S'Thursday'
p1345
sI4
S'Friday'
p1346
ssb.