(ischedule
Schedule
p0
(dp1
S'timetable'
p2
(lp3
(lp4
(lp5
(ischedule
Activity
p6
(dp7
S'participants'
p8
(lp9
S'9731271'
p10
aS'15902055'
p11
aS'6913074'
p12
aS'85236626'
p13
aS'34262212'
p14
aS'26857113'
p15
aS'55474917'
p16
aS'17823206'
p17
aS'36903574'
p18
aS'64053722'
p19
aS'23257088'
p20
aS'39905995'
p21
aS'58040377'
p22
aS'4709948'
p23
aS'45414528'
p24
aS'4921119'
p25
aS'88519892'
p26
aS'63111000'
p27
aS'23983476'
p28
aS'64947290'
p29
aS'34900967'
p30
aS'62701040'
p31
aS'92977271'
p32
aS'44671041'
p33
asS'capacity'
p34
S'20'
p35
sS'name'
p36
S'Programmeren in Java 2'
p37
sS'ttype'
p38
S'labs'
p39
sS'group_id'
p40
S'4'
p41
sS'room'
p42
(iread_data
Room
p43
(dp44
g34
S'60'
p45
sg36
S'C1.112'
p46
sbsba(ischedule
Activity
p47
(dp48
g8
(lp49
S'21964491'
p50
aS'75521763'
p51
aS'64393888'
p52
aS'42171678'
p53
aS'50143947'
p54
aS'29474737'
p55
aS'82689818'
p56
aS'45556081'
p57
aS'4783858'
p58
aS'61443567'
p59
aS'13092455'
p60
aS'29640619'
p61
asg34
S'20'
p62
sg36
S'Collectieve Intelligentie'
p63
sg38
g39
sg40
S'3'
p64
sg42
(iread_data
Room
p65
(dp66
g34
S'48'
p67
sg36
S'B0.201'
p68
sbsba(ischedule
Activity
p69
(dp70
g8
(lp71
S'40633534'
p72
aS'3168419'
p73
aS'70844780'
p74
aS'75997788'
p75
aS'92665222'
p76
aS'27064249'
p77
aS'23547619'
p78
aS'72683344'
p79
aS'47477884'
p80
aS'28618400'
p81
aS'14847953'
p82
aS'39429093'
p83
aS'20883994'
p84
aS'62613937'
p85
aS'72577292'
p86
aS'72665524'
p87
aS'86807027'
p88
aS'60352393'
p89
aS'78136904'
p90
aS'1886996'
p91
asg34
I1000
sg36
S'Advanced Heuristics'
p92
sg38
S'lectures'
p93
sg40
I0
sg42
(iread_data
Room
p94
(dp95
g34
S'20'
p96
sg36
S'A1.08'
p97
sbsba(ischedule
Activity
p98
(dp99
g8
(lp100
S'73236988'
p101
aS'60312776'
p102
aS'12077419'
p103
aS'84524083'
p104
aS'86988337'
p105
aS'72895450'
p106
aS'27950803'
p107
aS'34243356'
p108
aS'75599734'
p109
aS'68315599'
p110
aS'81385263'
p111
aS'37770881'
p112
aS'95631564'
p113
aS'75759231'
p114
aS'13911001'
p115
aS'3407554'
p116
aS'1766560'
p117
aS'77896638'
p118
aS'80135353'
p119
aS'42778953'
p120
aS'65960683'
p121
aS'95007221'
p122
aS'75664412'
p123
aS'13284244'
p124
aS'76802764'
p125
aS'65852230'
p126
aS'79167252'
p127
aS'49683101'
p128
aS'94687383'
p129
aS'79033175'
p130
aS'11741347'
p131
aS'8464817'
p132
aS'24613625'
p133
aS'88855695'
p134
aS'54772132'
p135
asg34
S'40'
p136
sg36
S'Compilerbouw'
p137
sg38
S'tutorials'
p138
sg40
S'1'
p139
sg42
(iread_data
Room
p140
(dp141
g34
S'117'
p142
sg36
S'C0.110'
p143
sbsba(ischedule
Activity
p144
(dp145
g8
(lp146
S'74131924'
p147
aS'16097870'
p148
aS'44901052'
p149
aS'70113753'
p150
aS'52552718'
p151
aS'27298319'
p152
aS'37110913'
p153
aS'39459642'
p154
aS'5517869'
p155
aS'34806836'
p156
aS'54026378'
p157
aS'88627897'
p158
aS'36508571'
p159
aS'19858730'
p160
aS'68409833'
p161
aS'51566595'
p162
aS'22871048'
p163
aS'62872965'
p164
aS'62356458'
p165
aS'72796858'
p166
aS'11915563'
p167
aS'61611295'
p168
asg34
I1000
sg36
S'Autonomous Agents 2'
p169
sg38
g93
sg40
I0
sg42
(iread_data
Room
p170
(dp171
g34
S'56'
p172
sg36
S'A1.10'
p173
sbsba(ischedule
Activity
p174
(dp175
g8
(lp176
S'85335143'
p177
aS'33877725'
p178
aS'53202517'
p179
aS'43680781'
p180
aS'33930505'
p181
aS'56749879'
p182
aS'14816774'
p183
aS'15051051'
p184
aS'22731474'
p185
aS'77831658'
p186
aS'88176729'
p187
aS'58522654'
p188
aS'42196732'
p189
aS'6723948'
p190
aS'28359697'
p191
aS'89985072'
p192
aS'22826928'
p193
aS'59544049'
p194
aS'96054456'
p195
aS'30050930'
p196
aS'44868097'
p197
aS'96453361'
p198
asg34
S'20'
p199
sg36
S'Bioinformatica'
p200
sg38
g39
sg40
S'2'
p201
sg42
(iread_data
Room
p202
(dp203
g34
S'41'
p204
sg36
S'A1.04'
p205
sbsba(ischedule
Activity
p206
(dp207
g8
(lp208
S'22323043'
p209
aS'70878567'
p210
aS'93023961'
p211
aS'13996448'
p212
aS'66122625'
p213
aS'68360259'
p214
asg34
S'10'
p215
sg36
S'Data Mining'
p216
sg38
g138
sg40
g64
sg42
(iread_data
Room
p217
(dp218
g34
S'22'
p219
sg36
S'A1.06'
p220
sbsbaa(lp221
(ischedule
Activity
p222
(dp223
g8
(lp224
g120
aS'97135019'
p225
aS'50184318'
p226
aS'86291592'
p227
ag53
aS'1075391'
p228
ag58
aS'26406342'
p229
ag155
ag54
ag78
ag11
aS'51741554'
p230
aS'25106480'
p231
aS'1696500'
p232
ag52
aS'53107172'
p233
aS'17575088'
p234
aS'46052388'
p235
asg34
S'20'
p236
sg36
g63
sg38
g138
sg40
g64
sg42
(iread_data
Room
p237
(dp238
g34
g96
sg36
g97
sbsba(ischedule
Activity
p239
(dp240
g8
(lp241
S'34872117'
p242
aS'40434933'
p243
ag166
aS'76123484'
p244
aS'43902015'
p245
aS'57467488'
p246
aS'46989508'
p247
aS'88752563'
p248
ag154
aS'17092717'
p249
aS'11996292'
p250
ag118
aS'91527663'
p251
aS'4529208'
p252
ag25
aS'73823548'
p253
aS'56872729'
p254
ag61
aS'90474003'
p255
aS'78821918'
p256
aS'49631542'
p257
ag20
ag60
aS'12091019'
p258
aS'51542218'
p259
aS'70072978'
p260
aS'94686490'
p261
aS'40141996'
p262
aS'47932106'
p263
aS'5085194'
p264
ag89
aS'58083680'
p265
ag105
aS'64296965'
p266
aS'58592894'
p267
ag151
aS'37701751'
p268
ag182
ag80
aS'56191333'
p269
aS'72456780'
p270
aS'26207525'
p271
aS'24277163'
p272
aS'75005528'
p273
aS'54540997'
p274
aS'5526560'
p275
aS'58332004'
p276
aS'86180471'
p277
aS'27123462'
p278
aS'13132925'
p279
aS'77960666'
p280
ag183
ag29
aS'56121590'
p281
aS'15187217'
p282
asg34
S'40'
p283
sg36
S'Databases 2'
p284
sg38
g138
sg40
g201
sg42
(iread_data
Room
p285
(dp286
g34
g142
sg36
g143
sbsba(ischedule
Activity
p287
(dp288
g8
(lp289
S'99975346'
p290
ag91
ag22
aS'82968410'
p291
aS'87602030'
p292
aS'31897288'
p293
aS'72652638'
p294
aS'33760909'
p295
aS'58736785'
p296
aS'81200278'
p297
ag59
aS'35315956'
p298
ag13
aS'34765676'
p299
ag148
ag104
aS'5739011'
p300
aS'27925117'
p301
aS'670011'
p302
aS'52304977'
p303
aS'5976174'
p304
aS'48678993'
p305
aS'57086672'
p306
aS'7106649'
p307
aS'15249775'
p308
aS'63634350'
p309
aS'78243495'
p310
ag185
aS'43027916'
p311
ag162
aS'83869542'
p312
aS'81022997'
p313
asg34
I1000
sg36
S'Heuristieken 2'
p314
sg38
g93
sg40
I0
sg42
(iread_data
Room
p315
(dp316
g34
g172
sg36
g173
sbsba(ischedule
Activity
p317
(dp318
g8
(lp319
g185
ag189
ag191
aS'66120270'
p320
ag186
ag197
ag147
aS'56815156'
p321
ag133
ag184
aS'64600457'
p322
ag210
aS'5298748'
p323
aS'79617364'
p324
aS'11068043'
p325
ag12
ag177
ag196
aS'4568018'
p326
ag194
ag190
ag297
ag180
ag179
ag183
aS'14591033'
p327
ag101
ag50
aS'21029457'
p328
ag182
ag198
ag157
ag73
ag187
aS'29526540'
p329
ag178
ag193
ag84
aS'7308727'
p330
ag192
ag188
aS'247918'
p331
ag195
aS'30195935'
p332
ag181
asg34
I1000
sg36
g200
sg38
g93
sg40
I0
sg42
(iread_data
Room
p333
(dp334
g34
g45
sg36
g46
sbsba(ischedule
Activity
p335
(dp336
g8
(lp337
S'75585647'
p338
ag149
ag51
aS'36748818'
p339
aS'13658563'
p340
aS'32204977'
p341
ag32
ag31
ag110
asg34
S'15'
p342
sg36
S'Informatie- en organsatieontwerp'
p343
sg38
g138
sg40
g139
sg42
(iread_data
Room
p344
(dp345
g34
g204
sg36
g205
sbsba(ischedule
Activity
p346
(dp347
g8
(lp348
g23
ag108
aS'12170832'
p349
ag87
ag135
aS'4353500'
p350
aS'62363761'
p351
aS'70939718'
p352
aS'53267490'
p353
aS'19058315'
p354
aS'7957843'
p355
ag81
aS'59075181'
p356
aS'82872148'
p357
aS'16912993'
p358
asg34
S'20'
p359
sg36
S'Netwerken en systeembeveiliging'
p360
sg38
g39
sg40
g64
sg42
(iread_data
Room
p361
(dp362
g34
g219
sg36
g220
sbsba(ischedule
Activity
p363
(dp364
g8
(lp365
S'53585410'
p366
aS'46701583'
p367
ag28
ag18
aS'66433883'
p368
ag152
aS'26260141'
p369
aS'88596522'
p370
ag111
aS'1665980'
p371
aS'19540225'
p372
aS'14671406'
p373
aS'77376714'
p374
aS'3707829'
p375
aS'52715680'
p376
ag103
aS'8522855'
p377
aS'51509565'
p378
aS'23652927'
p379
aS'41527759'
p380
asg34
S'25'
p381
sg36
S'Algoritmen en complexiteit'
p382
sg38
g39
sg40
g139
sg42
(iread_data
Room
p383
(dp384
g34
g67
sg36
g68
sbsbaa(lp385
(ischedule
Activity
p386
(dp387
g8
(lp388
g306
aS'33776961'
p389
ag340
aS'27805666'
p390
ag280
aS'82390428'
p391
aS'36785409'
p392
aS'51052738'
p393
ag272
ag193
aS'61518436'
p394
ag23
aS'27370083'
p395
ag104
ag12
aS'92778619'
p396
aS'3685034'
p397
aS'70193386'
p398
ag255
ag105
aS'68286356'
p399
aS'77392404'
p400
aS'60661905'
p401
ag163
aS'99453514'
p402
aS'49922855'
p403
aS'32044893'
p404
ag290
aS'41578612'
p405
aS'51415617'
p406
aS'87830198'
p407
aS'54569540'
p408
ag74
ag89
aS'84449005'
p409
aS'37399898'
p410
ag323
aS'42406214'
p411
aS'13718298'
p412
aS'36213792'
p413
aS'20239127'
p414
ag153
ag107
ag180
ag376
aS'20095994'
p415
aS'59753700'
p416
ag60
aS'96554914'
p417
ag90
aS'38296757'
p418
asg34
I1000
sg36
S'Reflectie op de digitale cultuur'
p419
sg38
g93
sg40
I0
sg42
(iread_data
Room
p420
(dp421
g34
g172
sg36
g173
sbsba(ischedule
Activity
p422
(dp423
g8
(lp424
g56
ag121
aS'48601268'
p425
ag295
aS'34773179'
p426
ag232
ag118
ag102
aS'96104167'
p427
ag52
aS'3233378'
p428
ag235
aS'64228258'
p429
ag155
ag120
ag31
ag50
ag228
aS'68601184'
p430
ag51
ag231
aS'31416266'
p431
aS'87758823'
p432
aS'54310617'
p433
ag53
ag189
ag59
ag61
ag55
aS'28357474'
p434
aS'9332762'
p435
ag371
ag230
ag58
aS'35330349'
p436
aS'57595888'
p437
ag233
aS'22699561'
p438
ag330
ag112
ag226
ag234
aS'17222374'
p439
aS'86000192'
p440
ag266
ag11
ag54
ag57
aS'73980360'
p441
aS'77240949'
p442
ag311
ag60
ag86
ag188
ag229
ag272
ag225
ag244
ag227
aS'13534377'
p443
ag78
asg34
I1000
sg36
g63
sg38
g93
sg40
I0
sg42
(iread_data
Room
p444
(dp445
g34
g142
sg36
g143
sbsba(ischedule
Activity
p446
(dp447
g8
(lp448
S'94467156'
p449
aS'76924297'
p450
aS'14398123'
p451
ag377
ag133
ag301
aS'88737765'
p452
ag256
aS'14179347'
p453
aS'76661016'
p454
aS'55480737'
p455
ag292
aS'66701209'
p456
asg34
S'15'
p457
sg36
S'Project Genetic Algorithms'
p458
sg38
g39
sg40
g139
sg42
(iread_data
Room
p459
(dp460
g34
g67
sg36
g68
sbsba(ischedule
Activity
p461
(dp462
g8
(lp463
S'51593625'
p464
aS'20618153'
p465
aS'37744525'
p466
aS'2550487'
p467
asg34
g35
sg36
g37
sg38
g39
sg40
g64
sg42
(iread_data
Room
p468
(dp469
g34
g96
sg36
g97
sbsbaa(lp470
(ischedule
Activity
p471
(dp472
g8
(lp473
S'31247305'
p474
aS'78443067'
p475
ag163
ag412
ag310
aS'14309255'
p476
aS'45915482'
p477
ag113
ag304
aS'37830626'
p478
ag231
aS'40343779'
p479
ag54
ag428
aS'65318664'
p480
aS'4546613'
p481
ag466
aS'89338938'
p482
ag374
aS'58565406'
p483
aS'73302736'
p484
ag357
aS'31103066'
p485
ag464
ag449
ag209
aS'3727435'
p486
aS'99283252'
p487
ag380
aS'14072826'
p488
ag102
aS'70015932'
p489
ag161
aS'62105897'
p490
ag434
ag187
ag376
ag157
ag178
aS'65408517'
p491
aS'48357272'
p492
ag373
ag194
aS'61060652'
p493
ag369
aS'80709893'
p494
ag16
aS'41153310'
p495
ag325
aS'89180944'
p496
aS'52311353'
p497
ag165
ag33
ag151
aS'1048485'
p498
aS'27582862'
p499
ag197
aS'83210352'
p500
aS'58074656'
p501
aS'21095566'
p502
ag417
aS'84110134'
p503
ag61
aS'9287708'
p504
ag58
aS'43460038'
p505
ag101
ag109
ag425
ag326
aS'42115591'
p506
ag167
ag107
ag192
aS'31633723'
p507
asg34
I1000
sg36
S'Software engineering'
p508
sg38
g93
sg40
I0
sg42
g140
sba(ischedule
Activity
p509
(dp510
g8
(lp511
g118
ag309
ag396
ag276
aS'51791169'
p512
ag59
aS'28943658'
p513
ag105
ag368
aS'41585485'
p514
aS'48503689'
p515
ag431
ag435
aS'54395877'
p516
ag132
aS'73893840'
p517
aS'97019450'
p518
ag135
ag322
aS'47982619'
p519
aS'10698627'
p520
aS'2317551'
p521
ag127
aS'37279234'
p522
aS'10702778'
p523
aS'63096281'
p524
aS'79879876'
p525
aS'94955328'
p526
ag227
ag389
aS'23658570'
p527
asg34
g35
sg36
g37
sg38
g39
sg40
g201
sg42
(iread_data
Room
p528
(dp529
g34
g45
sg36
g46
sbsba(ischedule
Activity
p530
(dp531
g8
(lp532
g230
ag225
ag111
ag377
ag270
aS'21677389'
p533
aS'64246605'
p534
aS'59887191'
p535
asg34
g359
sg36
g360
sg38
g39
sg40
g139
sg42
(iread_data
Room
p536
(dp537
g34
g172
sg36
g173
sbsba(ischedule
Activity
p538
(dp539
g8
(lp540
g106
ag179
ag400
asg34
S'20'
p541
sg36
S'Webprogrammeren en databases'
p542
sg38
g39
sg40
g201
sg42
(iread_data
Room
p543
(dp544
g34
g96
sg36
g97
sbsba(ischedule
Activity
p545
(dp546
g8
(lp547
g147
ag162
ag152
ag148
ag153
ag155
ag149
ag168
ag154
ag164
ag150
ag156
asg34
S'10'
p548
sg36
g169
sg38
g138
sg40
g139
sg42
(iread_data
Room
p549
(dp550
g34
g67
sg36
g68
sbsba(ischedule
Activity
p551
(dp552
g8
(lp553
g90
ag86
ag73
ag79
ag76
ag84
ag81
ag88
ag77
ag72
ag78
ag89
ag80
ag87
ag74
asg34
S'10'
p554
sg36
g92
sg38
g39
sg40
g201
sg42
(iread_data
Room
p555
(dp556
g34
g219
sg36
g220
sbsbaa(lp557
(ischedule
Activity
p558
(dp559
g8
(lp560
g28
aS'11459236'
p561
aS'18266644'
p562
ag51
ag276
ag339
aS'17496687'
p563
aS'29718115'
p564
ag20
ag338
aS'8557857'
p565
ag210
ag110
aS'77636749'
p566
aS'19958553'
p567
ag340
ag32
ag149
ag31
ag341
aS'13116738'
p568
asg34
I1000
sg36
g343
sg38
g93
sg40
I0
sg42
(iread_data
Room
p569
(dp570
g34
g67
sg36
g68
sbsba(ischedule
Activity
p571
(dp572
g8
(lp573
g226
ag439
ag272
ag53
ag155
ag177
aS'36527838'
p574
ag475
ag184
aS'27916487'
p575
aS'18144425'
p576
aS'3883025'
p577
aS'58699305'
p578
ag27
ag51
aS'47462856'
p579
ag260
asg34
S'20'
p580
sg36
S'Moderne Databases'
p581
sg38
g39
sg40
g139
sg42
(iread_data
Room
p582
(dp583
g34
g96
sg36
g97
sbsba(ischedule
Activity
p584
(dp585
g8
(lp586
g116
ag521
ag134
aS'34110913'
p587
ag122
ag120
ag126
aS'88636924'
p588
ag154
aS'40791377'
p589
ag135
ag105
aS'2079771'
p590
ag515
ag248
aS'9067939'
p591
ag131
ag242
ag456
ag179
ag188
ag454
aS'27187154'
p592
aS'10792879'
p593
ag114
ag108
ag166
ag76
ag107
aS'83266686'
p594
ag132
ag190
aS'5595824'
p595
aS'43689934'
p596
ag103
ag227
ag115
aS'5368702'
p597
ag109
ag113
ag125
ag112
ag101
ag167
ag117
aS'15911353'
p598
ag133
ag118
ag127
aS'48308205'
p599
ag124
ag476
aS'30658799'
p600
aS'98105190'
p601
ag110
ag104
ag102
aS'31194811'
p602
ag355
ag119
ag121
ag111
ag123
aS'44391517'
p603
ag128
ag247
ag130
ag129
ag106
asg34
I1000
sg36
g137
sg38
g93
sg40
I0
sg42
(iread_data
Room
p604
(dp605
g34
g142
sg36
g143
sbsba(ischedule
Activity
p606
(dp607
g8
(lp608
g293
ag13
ag162
ag312
ag311
ag304
ag302
ag22
ag294
ag308
ag292
ag300
ag301
ag148
ag305
asg34
S'20'
p609
sg36
g314
sg38
g138
sg40
g201
sg42
(iread_data
Room
p610
(dp611
g34
g219
sg36
g220
sbsba(ischedule
Activity
p612
(dp613
g8
(lp614
g12
ag410
ag376
ag60
ag323
ag180
ag193
ag405
ag105
ag90
ag153
ag290
ag413
ag407
ag411
ag397
ag396
ag390
ag400
ag255
ag409
ag412
ag417
ag398
ag403
ag74
ag416
ag23
ag394
ag418
ag89
asg34
S'20'
p615
sg36
g419
sg38
g138
sg40
g64
sg42
(iread_data
Room
p616
(dp617
g34
g45
sg36
g46
sbsba(ischedule
Activity
p618
(dp619
g8
(lp620
g296
ag326
ag250
ag183
ag246
ag182
ag58
ag492
ag327
ag356
ag493
ag518
aS'14138904'
p621
aS'83443653'
p622
ag88
ag209
aS'20331158'
p623
asg34
S'25'
p624
sg36
S'Heuristieken 1'
p625
sg38
g138
sg40
g139
sg42
(iread_data
Room
p626
(dp627
g34
g172
sg36
g173
sbsba(ischedule
Activity
p628
(dp629
g8
(lp630
g496
ag59
ag465
ag310
ag178
ag505
ag86
ag82
ag77
aS'3474870'
p631
aS'14303208'
p632
aS'49908313'
p633
aS'2416751'
p634
aS'39230359'
p635
aS'24891081'
p636
ag520
aS'53512831'
p637
ag249
aS'22288615'
p638
aS'16333449'
p639
aS'66034145'
p640
aS'41790793'
p641
ag243
aS'5615125'
p642
aS'28358060'
p643
ag244
aS'94930277'
p644
aS'6249823'
p645
ag245
aS'67073567'
p646
aS'69459473'
p647
aS'76903244'
p648
ag429
ag306
aS'76648468'
p649
aS'1137946'
p650
asg34
g541
sg36
g542
sg38
g39
sg40
g139
sg42
(iread_data
Room
p651
(dp652
g34
g204
sg36
g205
sbsbaaa(lp653
(lp654
(ischedule
Activity
p655
(dp656
g8
(lp657
g231
ag102
ag434
ag61
ag58
ag425
ag194
ag428
ag464
ag326
ag54
ag483
ag482
ag192
ag502
ag101
ag487
ag507
ag449
ag505
ag500
ag489
ag165
ag33
ag466
ag325
ag209
ag151
ag157
ag197
ag161
ag485
ag16
ag478
ag369
ag474
ag477
ag178
ag498
ag499
ag501
ag503
ag380
ag481
asg34
S'40'
p658
sg36
g508
sg38
g138
sg40
g139
sg42
(iread_data
Room
p659
(dp660
g34
g45
sg36
g46
sbsba(ischedule
Activity
p661
(dp662
g8
(lp663
g297
aS'87900893'
p664
aS'98780382'
p665
aS'91196968'
p666
ag17
asg34
g215
sg36
g216
sg38
g138
sg40
g139
sg42
(iread_data
Room
p667
(dp668
g34
g142
sg36
g143
sbsba(ischedule
Activity
p669
(dp670
g8
(lp671
g50
ag198
ag103
ag56
ag162
ag111
ag631
ag304
aS'67817269'
p672
ag379
ag372
aS'64554442'
p673
ag366
ag378
ag374
ag373
ag152
ag371
ag28
ag377
ag11
ag29
ag106
ag367
ag267
aS'44828429'
p674
ag368
asg34
S'25'
p675
sg36
g382
sg38
g138
sg40
g201
sg42
(iread_data
Room
p676
(dp677
g34
g67
sg36
g68
sbsba(ischedule
Activity
p678
(dp679
g8
(lp680
g190
ag166
ag179
ag76
ag515
ag188
ag355
ag154
ag603
ag596
ag598
ag591
ag588
ag602
ag167
ag593
ag592
ag454
ag587
ag247
ag599
ag597
ag456
ag600
ag242
ag476
ag589
ag227
ag601
ag595
ag594
ag248
ag590
ag521
asg34
g136
sg36
g137
sg38
g138
sg40
g201
sg42
(iread_data
Room
p681
(dp682
g34
g204
sg36
g205
sbsba(ischedule
Activity
p683
(dp684
g8
g388
sg34
I1000
sg36
g419
sg38
g93
sg40
I0
sg42
(iread_data
Room
p685
(dp686
g34
g172
sg36
g173
sbsba(ischedule
Activity
p687
(dp688
g8
(lp689
g276
ag339
ag51
ag564
ag110
ag31
ag20
ag568
ag567
ag561
ag566
ag341
ag338
asg34
S'15'
p690
sg36
g343
sg38
g39
sg40
g139
sg42
(iread_data
Room
p691
(dp692
g34
g96
sg36
g97
sbsba(ischedule
Activity
p693
(dp694
g8
(lp695
g86
ag78
ag120
ag437
ag438
ag436
ag226
ag429
ag432
ag435
ag121
ag118
asg34
g62
sg36
g63
sg38
g39
sg40
g139
sg42
(iread_data
Room
p696
(dp697
g34
g219
sg36
g220
sbsbaa(lp698
(ischedule
Activity
p699
(dp700
g8
(lp701
g51
ag340
ag293
ag622
ag58
ag246
ag153
ag621
ag493
ag18
ag75
ag53
ag232
aS'87210640'
p702
ag183
ag233
ag213
ag601
ag296
ag492
ag326
ag327
aS'71839156'
p703
ag518
aS'20830477'
p704
aS'14941752'
p705
aS'97417002'
p706
ag182
aS'45660925'
p707
aS'76393508'
p708
ag32
ag160
ag163
ag149
ag525
aS'53775014'
p709
ag644
ag209
aS'81218347'
p710
ag356
ag623
ag250
ag350
ag88
asg34
I1000
sg36
g625
sg38
g93
sg40
I0
sg42
(iread_data
Room
p711
(dp712
g34
g172
sg36
g173
sbsba(ischedule
Activity
p713
(dp714
g8
g586
sg34
I1000
sg36
g137
sg38
g93
sg40
I0
sg42
(iread_data
Room
p715
(dp716
g34
g142
sg36
g143
sbsba(ischedule
Activity
p717
(dp718
g8
(lp719
g73
ag189
ag302
ag329
ag311
ag331
ag195
ag312
ag229
aS'62736669'
p720
ag155
ag527
ag162
ag439
ag56
aS'59397895'
p721
aS'25077484'
p722
asg34
g283
sg36
g284
sg38
g138
sg40
g139
sg42
(iread_data
Room
p723
(dp724
g34
g204
sg36
g205
sbsba(ischedule
Activity
p725
(dp726
g8
(lp727
g54
ag313
ag666
ag402
ag466
aS'25330192'
p728
ag24
aS'97136582'
p729
ag210
aS'87314964'
p730
ag162
ag213
ag568
aS'19337738'
p731
ag211
ag209
ag212
ag17
ag664
ag497
ag416
ag50
ag214
ag297
ag665
ag147
ag153
asg34
I1000
sg36
g216
sg38
g93
sg40
I0
sg42
(iread_data
Room
p732
(dp733
g34
g67
sg36
g68
sbsba(ischedule
Activity
p734
(dp735
g8
(lp736
g639
ag244
ag638
ag249
ag243
ag650
ag77
ag82
ag640
ag400
ag59
ag647
ag310
ag644
ag178
ag505
ag642
ag649
ag631
ag465
ag645
ag643
ag496
ag520
ag106
ag635
ag648
ag245
ag634
ag306
ag86
ag633
ag646
ag636
ag637
ag641
ag179
ag632
ag429
asg34
I1000
sg36
g542
sg38
g93
sg40
I0
sg42
(iread_data
Room
p737
(dp738
g34
g45
sg36
g46
sbsbaa(lp739
(ischedule
Activity
p740
(dp741
g8
g424
sg34
I1000
sg36
g63
sg38
g93
sg40
I0
sg42
g140
sba(ischedule
Activity
p742
(dp743
g8
(lp744
S'46570285'
p745
asg34
g580
sg36
g581
sg38
g39
sg40
g201
sg42
(iread_data
Room
p746
(dp747
g34
g204
sg36
g205
sbsba(ischedule
Activity
p748
(dp749
g8
(lp750
g373
ag417
ag412
ag107
ag163
ag491
ag304
ag492
ag109
ag374
ag187
ag357
ag167
ag376
ag496
ag476
ag484
ag113
ag497
ag310
ag504
ag495
ag488
ag479
ag490
ag494
ag493
ag480
ag475
ag506
ag486
asg34
g658
sg36
g508
sg38
g138
sg40
g201
sg42
(iread_data
Room
p751
(dp752
g34
g67
sg36
g68
sbsba(ischedule
Activity
p753
(dp754
g8
(lp755
g210
ag194
ag297
ag331
ag195
ag329
ag320
ag328
ag84
ag191
ag182
ag133
ag186
ag323
ag193
asg34
S'20'
p756
sg36
g200
sg38
g138
sg40
g64
sg42
(iread_data
Room
p757
(dp758
g34
g45
sg36
g46
sbsba(ischedule
Activity
p759
(dp760
g8
(lp761
g177
ag12
ag327
ag326
ag180
ag196
ag322
ag185
ag181
ag321
asg34
g756
sg36
g200
sg38
g138
sg40
g201
sg42
(iread_data
Room
p762
(dp763
g34
g219
sg36
g220
sbsbaa(lp764
(ischedule
Activity
p765
(dp766
g8
(lp767
S'39659121'
p768
ag514
ag327
aS'79858178'
p769
aS'97371272'
p770
aS'28957789'
p771
ag373
ag14
ag482
aS'63408522'
p772
ag635
ag507
aS'38499176'
p773
ag408
ag188
ag666
ag18
ag623
aS'37498675'
p774
ag710
ag356
aS'65003379'
p775
aS'44940353'
p776
ag195
aS'63955238'
p777
ag579
ag90
aS'72547110'
p778
aS'58469172'
p779
aS'23391676'
p780
ag506
ag10
ag380
ag566
aS'7492204'
p781
ag450
ag84
ag108
ag474
aS'79366078'
p782
ag309
aS'39919665'
p783
ag449
aS'82688900'
p784
ag597
aS'91139627'
p785
ag276
ag397
ag503
ag17
aS'47605891'
p786
aS'38329455'
p787
ag167
ag442
aS'32705005'
p788
ag182
ag745
ag562
ag593
aS'99272880'
p789
ag526
aS'74182182'
p790
ag377
ag518
ag592
ag259
ag194
ag433
ag642
ag104
aS'69086548'
p791
aS'24875739'
p792
ag394
ag266
aS'51186803'
p793
aS'10872825'
p794
ag451
ag185
ag16
aS'78735049'
p795
ag414
aS'56988998'
p796
ag257
aS'23798155'
p797
asg34
I1000
sg36
S'Kansrekenen 2'
p798
sg38
g93
sg40
I0
sg42
(iread_data
Room
p799
(dp800
g34
g142
sg36
g143
sbsba(ischedule
Activity
p801
(dp802
g8
(lp803
g147
ag151
ag155
ag165
ag163
ag159
ag168
ag158
ag164
ag148
ag157
ag154
asg34
S'10'
p804
sg36
g169
sg38
g39
sg40
g201
sg42
(iread_data
Room
p805
(dp806
g34
g45
sg36
g46
sbsba(ischedule
Activity
p807
(dp808
g8
(lp809
g297
ag497
ag728
ag50
ag665
asg34
S'10'
p810
sg36
g216
sg38
g39
sg40
g201
sg42
(iread_data
Room
p811
(dp812
g34
g172
sg36
g173
sbsba(ischedule
Activity
p813
(dp814
g8
(lp815
g162
ag54
ag568
ag214
ag153
ag416
ag24
ag313
ag731
ag664
ag466
ag212
ag729
asg34
g810
sg36
g216
sg38
g39
sg40
g64
sg42
(iread_data
Room
p816
(dp817
g34
g219
sg36
g220
sbsba(ischedule
Activity
p818
(dp819
g8
(lp820
g105
ag242
ag594
ag179
ag190
ag101
ag133
ag128
ag110
ag596
ag590
ag476
ag123
ag109
ag587
ag166
ag595
ag118
ag591
ag454
ag599
ag114
asg34
S'40'
p821
sg36
g137
sg38
g39
sg40
g139
sg42
(iread_data
Room
p822
(dp823
g34
g67
sg36
g68
sbsba(ischedule
Activity
p824
(dp825
g8
(lp826
S'51673172'
p827
aS'75680261'
p828
aS'74361881'
p829
ag231
ag407
ag409
ag305
aS'58253841'
p830
ag487
ag367
ag275
ag112
aS'25994016'
p831
asg34
g457
sg36
g458
sg38
g39
sg40
g64
sg42
(iread_data
Room
p832
(dp833
g34
g96
sg36
g97
sbsba(ischedule
Activity
p834
(dp835
g8
(lp836
g77
ag645
ag632
ag243
ag429
ag244
ag649
ag646
ag306
ag643
ag82
ag650
ag647
ag310
ag59
ag639
ag638
ag636
ag178
asg34
S'20'
p837
sg36
g542
sg38
g138
sg40
g139
sg42
(iread_data
Room
p838
(dp839
g34
g204
sg36
g205
sbsbaa(lp840
(ischedule
Activity
p841
(dp842
g8
(lp843
g156
asg34
g804
sg36
g169
sg38
g39
sg40
g139
sg42
(iread_data
Room
p844
(dp845
g34
g96
sg36
g97
sbsba(ischedule
Activity
p846
(dp847
g8
(lp848
S'38179241'
p849
ag195
ag830
ag745
ag477
ag771
ag351
ag790
aS'78544592'
p850
aS'65978354'
p851
ag225
ag152
ag309
ag475
ag632
ag183
aS'55530367'
p852
ag795
ag491
ag11
ag779
ag440
aS'93361408'
p853
aS'34173695'
p854
ag292
ag492
aS'75446434'
p855
ag522
ag352
ag58
ag429
aS'77306636'
p856
ag592
ag578
ag12
ag366
ag258
aS'55412918'
p857
aS'22168693'
p858
aS'56544130'
p859
aS'75623387'
p860
ag230
aS'6939933'
p861
aS'3678531'
p862
ag490
ag261
aS'79888156'
p863
ag248
ag369
ag418
ag87
ag267
ag10
ag75
aS'83415514'
p864
ag88
aS'81155296'
p865
ag80
ag328
ag301
aS'6709529'
p866
ag295
ag277
aS'56348773'
p867
ag197
ag338
ag324
aS'23628642'
p868
ag527
ag481
ag367
aS'61520025'
p869
ag593
aS'31306819'
p870
ag148
ag134
asg34
S'40'
p871
sg36
S'Calculus 2'
p872
sg38
g138
sg40
g139
sg42
(iread_data
Room
p873
(dp874
g34
g142
sg36
g143
sbsba(ischedule
Activity
p875
(dp876
g8
(lp877
g157
ag163
ag161
ag159
ag151
ag160
ag166
asg34
g548
sg36
g169
sg38
g138
sg40
g201
sg42
(iread_data
Room
p878
(dp879
g34
g204
sg36
g205
sbsba(ischedule
Activity
p880
(dp881
g8
(lp882
g602
ag791
aS'12430748'
p883
aS'77264363'
p884
ag476
ag770
aS'92496780'
p885
ag519
ag153
ag243
ag599
ag405
ag483
ag250
ag566
ag177
ag645
ag180
aS'10149535'
p886
aS'70336464'
p887
ag392
ag209
aS'76487754'
p888
ag51
ag482
ag103
ag123
ag78
ag149
aS'4697362'
p889
ag341
aS'93041523'
p890
aS'14383795'
p891
ag229
ag435
ag307
aS'21192048'
p892
ag110
asg34
I1000
sg36
S'Technology for games'
p893
sg38
g93
sg40
I0
sg42
(iread_data
Room
p894
(dp895
g34
g67
sg36
g68
sbsba(ischedule
Activity
p896
(dp897
g8
g727
sg34
I1000
sg36
g216
sg38
g93
sg40
I0
sg42
(iread_data
Room
p898
(dp899
g34
g45
sg36
g46
sbsba(ischedule
Activity
p900
(dp901
g8
(lp902
g106
ag179
ag635
ag640
ag496
ag642
ag648
ag520
ag641
ag633
ag245
ag644
ag249
ag465
ag505
ag400
ag637
ag86
ag631
ag634
asg34
g837
sg36
g542
sg38
g138
sg40
g201
sg42
(iread_data
Room
p903
(dp904
g34
g219
sg36
g220
sbsba(ischedule
Activity
p905
(dp906
g8
(lp907
g484
ag253
aS'82412626'
p908
aS'23565001'
p909
aS'33672995'
p910
ag594
ag642
aS'72526473'
p911
aS'80188025'
p912
ag453
ag254
aS'53139134'
p913
asg34
g871
sg36
g872
sg38
g138
sg40
g201
sg42
(iread_data
Room
p914
(dp915
g34
g172
sg36
g173
sbsbaaa(lp916
(lp917
(ischedule
Activity
p918
(dp919
g8
(lp920
g442
ag102
ag441
ag244
ag230
ag443
ag31
ag11
ag426
ag330
ag433
ag233
ag229
ag425
ag266
ag434
ag188
ag431
ag440
ag427
asg34
g62
sg36
g63
sg38
g39
sg40
g201
sg42
(iread_data
Room
p921
(dp922
g34
g96
sg36
g97
sbsba(ischedule
Activity
p923
(dp924
g8
(lp925
g82
ag481
ag640
ag268
ag78
ag849
ag450
aS'20374340'
p926
aS'19214659'
p927
ag597
aS'28055464'
p928
ag454
aS'64768422'
p929
ag865
aS'93566383'
p930
ag375
ag297
ag299
ag533
ag674
ag467
ag111
ag410
aS'65675896'
p931
aS'69634191'
p932
asg34
I1000
sg36
S'Interactie-ontwerp'
p933
sg38
g93
sg40
I0
sg42
(iread_data
Room
p934
(dp935
g34
g45
sg36
g46
sbsba(ischedule
Activity
p936
(dp937
g8
(lp938
g50
ag153
ag24
ag54
ag466
ag313
ag162
ag416
ag731
ag728
ag402
ag730
ag147
ag497
ag729
ag568
asg34
g215
sg36
g216
sg38
g138
sg40
g201
sg42
(iread_data
Room
p939
(dp940
g34
g204
sg36
g205
sbsba(ischedule
Activity
p941
(dp942
g8
(lp943
g340
ag28
ag563
ag565
ag210
ag562
ag32
ag149
asg34
g690
sg36
g343
sg38
g39
sg40
g201
sg42
(iread_data
Room
p944
(dp945
g34
g67
sg36
g68
sbsba(ischedule
Activity
p946
(dp947
g8
(lp948
S'41489515'
p949
ag260
ag745
aS'49219163'
p950
aS'27241113'
p951
ag389
ag374
ag310
ag864
ag226
ag75
aS'1181560'
p952
aS'13218321'
p953
ag576
ag487
ag439
ag276
ag177
ag131
ag594
aS'96082155'
p954
ag475
aS'66621166'
p955
ag579
ag267
aS'51650744'
p956
ag180
ag409
ag339
ag575
ag117
ag329
ag496
ag272
ag850
ag250
ag53
ag256
aS'59111489'
p957
ag476
ag27
ag574
ag23
ag578
ag115
ag600
ag155
ag184
ag51
ag110
ag257
aS'48198668'
p958
ag577
ag322
asg34
I1000
sg36
g581
sg38
g93
sg40
I0
sg42
(iread_data
Room
p959
(dp960
g34
g142
sg36
g143
sbsba(ischedule
Activity
p961
(dp962
g8
(lp963
g489
ag564
ag886
aS'59289233'
p964
ag128
ag797
ag496
ag57
ag301
ag242
ag623
ag505
ag86
ag621
ag81
ag56
ag243
ag594
aS'13798030'
p965
aS'58866007'
p966
ag79
asg34
I1000
sg36
S'Architectuur en computerorganisatie'
p967
sg38
g93
sg40
I0
sg42
(iread_data
Room
p968
(dp969
g34
g219
sg36
g220
sbsba(ischedule
Activity
p970
(dp971
g8
(lp972
S'88597745'
p973
ag634
ag789
ag80
ag779
ag862
ag781
ag430
ag401
ag780
ag308
aS'12782624'
p974
asg34
g35
sg36
g37
sg38
g39
sg40
S'6'
p975
sg42
(iread_data
Room
p976
(dp977
g34
g172
sg36
g173
sbsbaa(lp978
(ischedule
Activity
p979
(dp980
g8
(lp981
g330
ag434
ag430
ag432
ag118
ag244
ag431
ag440
ag295
ag59
ag427
ag266
ag50
ag102
ag441
ag189
ag57
ag121
ag112
ag56
ag272
asg34
g236
sg36
g63
sg38
g138
sg40
g201
sg42
(iread_data
Room
p982
(dp983
g34
g172
sg36
g173
sbsba(ischedule
Activity
p984
(dp985
g8
g146
sg34
I1000
sg36
g169
sg38
g93
sg40
I0
sg42
(iread_data
Room
p986
(dp987
g34
g219
sg36
g220
sbsba(ischedule
Activity
p988
(dp989
g8
(lp990
g227
ag81
ag186
ag253
ag927
ag88
ag273
ag313
aS'37419523'
p991
ag212
ag106
ag599
ag120
ag411
aS'19662602'
p992
aS'40911986'
p993
asg34
S'15'
p994
sg36
S'Project Numerical Recipes'
p995
sg38
g39
sg40
g139
sg42
(iread_data
Room
p996
(dp997
g34
g96
sg36
g97
sbsba(ischedule
Activity
p998
(dp999
g8
(lp1000
g487
ag51
ag260
ag75
ag267
ag409
ag177
ag322
ag250
ag53
ag226
ag476
ag579
ag950
ag310
ag952
ag110
ag574
ag117
ag180
ag956
ag131
ag23
ag745
ag949
ag257
ag955
ag496
ag594
ag115
ag958
asg34
S'20'
p1001
sg36
g581
sg38
g138
sg40
g64
sg42
(iread_data
Room
p1002
(dp1003
g34
g204
sg36
g205
sbsba(ischedule
Activity
p1004
(dp1005
g8
(lp1006
S'90067329'
p1007
ag304
ag128
ag27
ag442
ag15
ag589
ag592
ag367
ag397
aS'33252501'
p1008
ag466
ag797
ag590
ag796
ag418
aS'67625383'
p1009
ag449
ag13
ag184
ag154
ag394
asg34
I1000
sg36
S'Machine Learning'
p1010
sg38
g93
sg40
I0
sg42
(iread_data
Room
p1011
(dp1012
g34
g45
sg36
g46
sbsba(ischedule
Activity
p1013
(dp1014
g8
(lp1015
g439
ag435
ag31
ag436
ag429
ag371
ag433
ag61
ag443
asg34
g236
sg36
g63
sg38
g138
sg40
g139
sg42
(iread_data
Room
p1016
(dp1017
g34
g142
sg36
g143
sbsba(ischedule
Activity
p1018
(dp1019
g8
(lp1020
g773
aS'42297781'
p1021
ag341
ag831
ag632
ag87
ag931
ag192
ag309
aS'41644639'
p1022
aS'1695839'
p1023
aS'47260040'
p1024
ag326
aS'91250534'
p1025
aS'23215240'
p1026
aS'5892092'
p1027
ag621
ag116
ag891
ag325
ag561
aS'82066165'
p1028
aS'51472074'
p1029
ag366
ag827
asg34
S'15'
p1030
sg36
S'Compilerbouw practicum'
p1031
sg38
g39
sg40
g201
sg42
(iread_data
Room
p1032
(dp1033
g34
g67
sg36
g68
sbsbaa(lp1034
(ischedule
Activity
p1035
(dp1036
g8
g767
sg34
I1000
sg36
g798
sg38
g93
sg40
I0
sg42
(iread_data
Room
p1037
(dp1038
g34
g142
sg36
g143
sbsba(ischedule
Activity
p1039
(dp1040
g8
(lp1041
g392
ag177
ag103
ag123
ag307
ag153
asg34
S'20'
p1042
sg36
g893
sg38
g138
sg40
g139
sg42
(iread_data
Room
p1043
(dp1044
g34
g219
sg36
g220
sbsba(ischedule
Activity
p1045
(dp1046
g8
(lp1047
g304
ag61
ag151
ag310
ag466
ag209
ag109
ag489
ag428
ag113
ag231
ag33
ag498
ag479
ag492
ag165
ag494
ag369
ag464
ag476
ag163
ag54
ag500
ag491
ag434
asg34
S'40'
p1048
sg36
g508
sg38
g39
sg40
g139
sg42
(iread_data
Room
p1049
(dp1050
g34
g204
sg36
g205
sbsba(ischedule
Activity
p1051
(dp1052
g8
(lp1053
S'535689'
p1054
ag229
ag115
ag264
ag371
ag437
ag370
asg34
g1030
sg36
g1031
sg38
g39
sg40
g64
sg42
(iread_data
Room
p1055
(dp1056
g34
g45
sg36
g46
sbsba(ischedule
Activity
p1057
(dp1058
g8
(lp1059
g189
ag330
ag50
ag197
ag183
ag178
ag187
ag179
ag332
ag190
ag192
ag101
ag147
ag198
ag157
ag73
ag188
ag324
ag325
ag184
asg34
g756
sg36
g200
sg38
g138
sg40
g139
sg42
(iread_data
Room
p1060
(dp1061
g34
g67
sg36
g68
sbsba(ischedule
Activity
p1062
(dp1063
g8
(lp1064
g722
ag647
ag405
ag72
ag107
ag1028
ag1022
ag426
ag277
ag161
asg34
g457
sg36
g458
sg38
g39
sg40
g201
sg42
(iread_data
Room
p1065
(dp1066
g34
g172
sg36
g173
sbsbaa(lp1067
(ischedule
Activity
p1068
(dp1069
g8
g319
sg34
I1000
sg36
g200
sg38
g93
sg40
I0
sg42
(iread_data
Room
p1070
(dp1071
g34
g172
sg36
g173
sbsba(ischedule
Activity
p1072
(dp1073
g8
g963
sg34
I1000
sg36
g967
sg38
g93
sg40
I0
sg42
(iread_data
Room
p1074
(dp1075
g34
g204
sg36
g205
sbsba(ischedule
Activity
p1076
(dp1077
g8
(lp1078
g108
ag597
ag167
ag154
ag115
ag122
ag116
ag104
ag592
ag593
ag135
ag124
ag456
ag121
ag119
ag601
ag589
ag130
ag103
ag102
ag227
ag113
ag602
ag603
ag355
ag248
ag521
ag112
ag188
ag76
ag131
ag134
ag126
ag132
ag125
ag120
ag515
ag117
ag588
ag111
ag598
ag600
ag247
ag107
ag127
ag106
ag129
asg34
g821
sg36
g137
sg38
g39
sg40
g201
sg42
(iread_data
Room
p1079
(dp1080
g34
g142
sg36
g143
sbsba(ischedule
Activity
p1081
(dp1082
g8
g560
sg34
I1000
sg36
g343
sg38
g93
sg40
I0
sg42
(iread_data
Room
p1083
(dp1084
g34
g67
sg36
g68
sbsba(ischedule
Activity
p1085
(dp1086
g8
(lp1087
g369
ag54
ag90
ag376
ag105
ag502
ag479
ag375
ag370
ag245
ag299
ag251
ag514
ag380
ag246
ag18
asg34
g675
sg36
g382
sg38
g138
sg40
g139
sg42
(iread_data
Room
p1088
(dp1089
g34
g45
sg36
g46
sbsba(ischedule
Activity
p1090
(dp1091
g8
(lp1092
g82
ag83
ag85
ag75
ag91
asg34
g554
sg36
g92
sg38
g39
sg40
g139
sg42
(iread_data
Room
p1093
(dp1094
g34
g96
sg36
g97
sbsbaa(lp1095
(ischedule
Activity
p1096
(dp1097
g8
(lp1098
g118
ag155
ag56
ag255
ag274
ag312
ag271
ag311
ag61
ag262
ag25
ag260
ag261
ag242
ag265
ag257
ag439
ag281
ag20
ag266
ag250
ag721
ag154
ag243
ag182
ag275
ag183
ag527
ag267
ag166
ag73
ag253
ag29
ag331
ag80
ag278
ag263
ag151
ag254
ag280
ag105
ag277
ag189
ag195
ag302
ag282
ag256
ag244
ag248
ag60
ag252
ag245
ag268
ag246
ag251
ag89
ag258
ag247
ag270
ag279
ag259
ag162
ag249
ag722
ag329
ag269
ag264
ag272
ag273
ag720
ag229
ag276
asg34
I1000
sg36
g284
sg38
g93
sg40
I0
sg42
(iread_data
Room
p1099
(dp1100
g34
g142
sg36
g143
sbsba(ischedule
Activity
p1101
(dp1102
g8
g1006
sg34
I1000
sg36
g1010
sg38
g93
sg40
I0
sg42
(iread_data
Room
p1103
(dp1104
g34
g172
sg36
g173
sbsba(ischedule
Activity
p1105
(dp1106
g8
(lp1107
g482
ag157
ag373
ag167
ag192
ag506
ag325
ag16
ag380
ag197
ag194
ag178
ag474
ag487
ag490
ag507
ag503
ag326
ag481
ag483
ag161
ag495
ag101
ag480
ag425
ag187
ag102
ag412
ag504
ag499
ag501
ag505
ag107
ag417
ag484
ag485
ag496
ag58
ag477
ag497
ag357
ag493
ag376
ag486
ag475
ag374
ag478
ag502
ag488
ag449
asg34
g1048
sg36
g508
sg38
g39
sg40
g201
sg42
(iread_data
Room
p1108
(dp1109
g34
g45
sg36
g46
sbsba(ischedule
Activity
p1110
(dp1111
g8
(lp1112
g340
ag53
ag601
ag149
ag293
ag32
ag51
ag153
ag644
ag75
ag710
ag160
ag707
ag213
ag705
ag706
ag233
ag350
ag709
ag704
ag702
ag703
ag525
ag18
ag708
ag232
ag163
asg34
g624
sg36
g625
sg38
g138
sg40
g201
sg42
(iread_data
Room
p1113
(dp1114
g34
g67
sg36
g68
sbsba(ischedule
Activity
p1115
(dp1116
g8
(lp1117
g953
ag957
ag389
ag864
asg34
g1001
sg36
g581
sg38
g138
sg40
g201
sg42
(iread_data
Room
p1118
(dp1119
g34
g204
sg36
g205
sbsba(ischedule
Activity
p1120
(dp1121
g8
(lp1122
g296
ag59
ag104
ag310
ag290
ag306
ag313
ag185
ag303
ag307
ag91
ag295
ag298
ag291
ag297
ag309
ag299
asg34
g609
sg36
g314
sg38
g138
sg40
g139
sg42
(iread_data
Room
p1123
(dp1124
g34
g219
sg36
g220
sbsba(ischedule
Activity
p1125
(dp1126
g8
(lp1127
g886
ag664
ag177
ag454
ag322
ag262
ag263
ag22
aS'19717077'
p1128
ag190
ag788
aS'11593163'
p1129
ag127
ag77
ag327
ag792
aS'59220392'
p1130
aS'10609762'
p1131
asg34
g871
sg36
g872
sg38
g138
sg40
g64
sg42
(iread_data
Room
p1132
(dp1133
g34
g96
sg36
g97
sbsbaaa(lp1134
(lp1135
(ischedule
Activity
p1136
(dp1137
g8
g882
sg34
I1000
sg36
g893
sg38
g93
sg40
I0
sg42
(iread_data
Room
p1138
(dp1139
g34
g172
sg36
g173
sbsba(ischedule
Activity
p1140
(dp1141
g8
(lp1142
g133
ag325
ag157
ag12
ag327
asg34
g199
sg36
g200
sg38
g39
sg40
g64
sg42
g140
sba(ischedule
Activity
p1143
(dp1144
g8
(lp1145
g297
ag147
ag332
ag329
ag320
ag50
ag84
ag331
ag73
ag328
ag324
ag210
ag323
ag330
ag321
ag101
ag322
ag326
asg34
g199
sg36
g200
sg38
g39
sg40
g139
sg42
(iread_data
Room
p1146
(dp1147
g34
g67
sg36
g68
sbsba(ischedule
Activity
p1148
(dp1149
g8
g736
sg34
I1000
sg36
g542
sg38
g93
sg40
I0
sg42
(iread_data
Room
p1150
(dp1151
g34
g204
sg36
g205
sbsba(ischedule
Activity
p1152
(dp1153
g8
(lp1154
g272
ag155
ag234
ag112
ag228
ag430
ag428
ag232
ag227
ag371
ag235
ag439
ag225
ag231
ag189
ag295
ag311
asg34
g62
sg36
g63
sg38
g39
sg40
g41
sg42
(iread_data
Room
p1155
(dp1156
g34
g45
sg36
g46
sbsba(ischedule
Activity
p1157
(dp1158
g8
(lp1159
g182
ag490
ag440
ag154
ag260
ag52
ag704
ag930
ag499
ag61
asg34
g35
sg36
g37
sg38
g39
sg40
S'5'
p1160
sg42
(iread_data
Room
p1161
(dp1162
g34
g219
sg36
g220
sbsba(ischedule
Activity
p1163
(dp1164
g8
(lp1165
g789
aS'64418623'
p1166
aS'55103073'
p1167
aS'44151631'
p1168
ag376
ag829
ag54
ag703
asg34
g1030
sg36
g1031
sg38
g39
sg40
g139
sg42
(iread_data
Room
p1169
(dp1170
g34
g96
sg36
g97
sbsbaa(lp1171
(ischedule
Activity
p1172
(dp1173
g8
(lp1174
g795
ag152
ag481
ag849
ag253
ag248
ag309
ag11
ag912
ag301
ag909
ag366
ag858
ag859
ag295
ag853
ag258
ag492
ag453
ag10
ag328
ag22
ag593
ag592
ag322
ag183
ag262
ag254
ag870
ag75
ag148
ag632
ag491
ag527
ag913
ag225
ag351
ag80
ag868
ag856
ag177
ag851
ag862
ag860
ag263
ag195
ag369
ag440
ag830
ag910
ag490
ag277
ag788
ag865
ag745
ag261
ag12
ag454
ag267
ag429
ag338
ag779
ag886
ag418
ag190
ag1130
ag854
ag792
ag850
ag477
ag867
ag484
ag127
ag134
ag578
ag857
ag866
ag911
ag664
ag1129
ag197
ag594
ag324
ag522
ag863
ag77
ag87
ag367
ag58
ag327
ag230
ag352
ag864
ag1131
ag475
ag790
ag908
ag292
ag855
ag88
ag869
ag852
ag642
ag861
ag771
ag1128
asg34
I1000
sg36
g872
sg38
g93
sg40
I0
sg42
(iread_data
Room
p1175
(dp1176
g34
g142
sg36
g143
sbsba(ischedule
Activity
p1177
(dp1178
g8
(lp1179
g273
ag410
ag120
ag639
ag909
ag324
ag302
ag666
aS'26172512'
p1180
ag431
ag108
ag254
ag161
ag111
ag189
ag155
ag436
ag773
aS'54074680'
p1181
aS'96118484'
p1182
ag327
aS'79937969'
p1183
ag118
ag159
ag526
ag500
ag930
aS'90743504'
p1184
ag25
aS'32595335'
p1185
ag703
aS'16011419'
p1186
ag261
ag710
ag405
ag16
ag493
ag432
ag790
ag631
aS'34588570'
p1187
ag574
ag506
ag599
ag886
ag164
ag857
ag966
ag494
aS'66570705'
p1188
aS'21311067'
p1189
ag148
aS'80998260'
p1190
ag497
asg34
I1000
sg36
S'Lineaire Algebra'
p1191
sg38
g93
sg40
I0
sg42
(iread_data
Room
p1192
(dp1193
g34
g172
sg36
g173
sbsba(ischedule
Activity
p1194
(dp1195
g8
(lp1196
g210
ag20
ag28
ag276
ag567
ag563
ag565
ag561
ag568
ag564
ag562
ag566
asg34
g342
sg36
g343
sg38
g138
sg40
g201
sg42
(iread_data
Room
p1197
(dp1198
g34
g96
sg36
g97
sbsba(ischedule
Activity
p1199
(dp1200
g8
(lp1201
g281
ag61
ag149
ag181
ag271
ag479
ag330
ag305
ag297
ag313
ag56
aS'72586808'
p1202
aS'63573738'
p1203
ag18
aS'85284256'
p1204
ag227
ag728
ag1054
ag720
ag232
ag400
ag729
ag577
ag269
ag407
asg34
g359
sg36
g360
sg38
g39
sg40
g201
sg42
(iread_data
Room
p1205
(dp1206
g34
g45
sg36
g46
sbsba(ischedule
Activity
p1207
(dp1208
g8
(lp1209
g60
ag51
ag438
ag426
ag428
ag55
ag311
ag442
ag425
ag437
ag188
ag86
asg34
g236
sg36
g63
sg38
g138
sg40
g41
sg42
(iread_data
Room
p1210
(dp1211
g34
g204
sg36
g205
sbsbaa(lp1212
(ischedule
Activity
p1213
(dp1214
g8
(lp1215
g398
aS'78822885'
p1216
ag405
ag75
aS'14637758'
p1217
ag148
aS'18477924'
p1218
ag25
ag526
ag305
ag108
ag266
ag407
ag909
ag311
ag595
ag270
aS'82854435'
p1219
ag527
ag912
ag186
aS'58480929'
p1220
aS'97838175'
p1221
ag30
ag306
ag797
ag518
ag401
ag622
ag506
ag256
ag859
ag1202
ag452
ag163
ag177
ag910
ag492
ag392
aS'73350019'
p1222
ag480
ag85
ag259
ag264
ag321
ag484
ag497
ag562
ag412
asg34
I1000
sg36
S'Analysemethoden en -technieken'
p1223
sg38
g93
sg40
I0
sg42
(iread_data
Room
p1224
(dp1225
g34
g172
sg36
g173
sbsba(ischedule
Activity
p1226
(dp1227
g8
(lp1228
g50
ag302
ag666
ag638
aS'73196865'
p1229
ag1026
ag129
ag212
ag603
ag119
ag88
ag864
aS'90296821'
p1230
ag366
ag773
ag280
ag367
ag410
aS'88263855'
p1231
ag150
aS'7386961'
p1232
ag193
ag195
ag495
ag449
ag498
ag592
ag190
ag1204
asg34
g35
sg36
g37
sg38
g39
sg40
g139
sg42
(iread_data
Room
p1233
(dp1234
g34
g45
sg36
g46
sbsba(ischedule
Activity
p1235
(dp1236
g8
(lp1237
g198
ag245
ag299
ag246
ag304
ag162
ag251
ag267
ag90
ag56
ag11
ag29
ag54
ag50
ag631
ag674
ag479
ag106
ag105
ag673
ag672
ag502
ag514
asg34
g381
sg36
g382
sg38
g39
sg40
g201
sg42
(iread_data
Room
p1238
(dp1239
g34
g142
sg36
g143
sbsba(ischedule
Activity
p1240
(dp1241
g8
(lp1242
g330
ag102
ag117
ag467
aS'21070547'
p1243
aS'63939720'
p1244
aS'32183908'
p1245
aS'90103047'
p1246
ag325
ag355
ag60
ag515
ag124
ag861
aS'81116418'
p1247
asg34
g994
sg36
g995
sg38
g39
sg40
g64
sg42
(iread_data
Room
p1248
(dp1249
g34
g219
sg36
g220
sbsba(ischedule
Activity
p1250
(dp1251
g8
(lp1252
g439
ag272
ag155
ag184
ag27
ag256
ag577
ag951
ag578
ag329
ag276
ag850
ag600
ag339
ag576
ag575
ag475
ag374
ag954
asg34
g1001
sg36
g581
sg38
g138
sg40
g139
sg42
(iread_data
Room
p1253
(dp1254
g34
g96
sg36
g97
sbsba(ischedule
Activity
p1255
(dp1256
g8
(lp1257
g229
ag209
ag886
ag405
ag770
ag791
ag482
ag566
ag250
ag180
ag891
ag51
ag887
ag243
ag892
ag341
ag890
ag519
ag149
ag483
ag602
ag888
ag883
ag476
ag435
ag884
ag885
ag645
ag78
ag110
ag599
ag889
asg34
g1042
sg36
g893
sg38
g138
sg40
g201
sg42
(iread_data
Room
p1258
(dp1259
g34
g67
sg36
g68
sbsbaa(lp1260
(ischedule
Activity
p1261
(dp1262
g8
(lp1263
g397
ag101
ag482
ag165
ag705
ag1203
ag883
ag404
aS'34691309'
p1264
ag503
ag790
ag185
ag248
asg34
g994
sg36
g995
sg38
g39
sg40
g201
sg42
(iread_data
Room
p1265
(dp1266
g34
g204
sg36
g205
sbsba(ischedule
Activity
p1267
(dp1268
g8
g424
sg34
I1000
sg36
g63
sg38
g93
sg40
I0
sg42
(iread_data
Room
p1269
(dp1270
g34
g142
sg36
g143
sbsba(ischedule
Activity
p1271
(dp1272
g8
(lp1273
g147
ag666
ag17
ag211
ag730
ag209
ag213
ag210
ag402
asg34
g810
sg36
g216
sg38
g39
sg40
g139
sg42
(iread_data
Room
p1274
(dp1275
g34
g219
sg36
g220
sbsba(ischedule
Activity
p1276
(dp1277
g8
g925
sg34
I1000
sg36
g933
sg38
g93
sg40
I0
sg42
(iread_data
Room
p1278
(dp1279
g34
g67
sg36
g68
sbsba(ischedule
Activity
p1280
(dp1281
g8
(lp1282
g180
ag496
ag476
ag117
ag110
ag864
ag23
ag953
ag250
ag374
ag339
ag310
ag955
ag115
ag276
ag594
ag950
ag949
ag256
ag952
ag322
ag956
ag131
ag75
ag850
ag409
ag958
ag329
ag954
ag389
ag600
ag951
ag487
ag957
ag257
ag267
asg34
g580
sg36
g581
sg38
g39
sg40
g64
sg42
(iread_data
Room
p1283
(dp1284
g34
g45
sg36
g46
sbsba(ischedule
Activity
p1285
(dp1286
g8
(lp1287
g320
ag332
ag246
ag451
ag123
ag773
aS'5590289'
p1288
ag10
ag466
ag74
ag89
ag562
aS'123355'
p1289
ag474
ag498
aS'25557516'
p1290
asg34
g359
sg36
g360
sg38
g39
sg40
g41
sg42
(iread_data
Room
p1291
(dp1292
g34
g172
sg36
g173
sbsba(ischedule
Activity
p1293
(dp1294
g8
(lp1295
g153
ag162
ag161
ag152
ag150
ag160
ag166
ag167
ag149
asg34
g804
sg36
g169
sg38
g39
sg40
g64
sg42
(iread_data
Room
p1296
(dp1297
g34
g96
sg36
g97
sbsbaa(lp1298
(ischedule
Activity
p1299
(dp1300
g8
(lp1301
g167
ag165
ag158
asg34
g548
sg36
g169
sg38
g138
sg40
g64
sg42
(iread_data
Room
p1302
(dp1303
g34
g219
sg36
g220
sbsba(ischedule
Activity
p1304
(dp1305
g8
g319
sg34
I1000
sg36
g200
sg38
g93
sg40
I0
sg42
(iread_data
Room
p1306
(dp1307
g34
g67
sg36
g68
sbsba(ischedule
Activity
p1308
(dp1309
g8
(lp1310
g11
ag198
ag514
ag251
ag103
ag366
ag377
ag90
ag106
ag245
ag152
ag54
ag369
ag380
ag674
ag379
ag373
ag372
ag18
ag299
ag111
ag50
ag368
ag374
ag371
ag367
ag673
ag631
ag479
ag672
ag56
ag29
ag267
ag28
ag370
ag246
ag375
ag376
ag105
ag304
ag378
ag162
ag502
asg34
I1000
sg36
g382
sg38
g93
sg40
I0
sg42
(iread_data
Room
p1311
(dp1312
g34
g142
sg36
g143
sbsba(ischedule
Activity
p1313
(dp1314
g8
g1179
sg34
I1000
sg36
g1191
sg38
g93
sg40
I0
sg42
(iread_data
Room
p1315
(dp1316
g34
g172
sg36
g173
sbsba(ischedule
Activity
p1317
(dp1318
g8
(lp1319
g272
ag163
ag404
ag104
ag389
ag402
ag306
ag401
ag406
ag107
ag415
ag399
ag395
ag414
ag391
ag392
ag340
asg34
g615
sg36
g419
sg38
g138
sg40
g201
sg42
(iread_data
Room
p1320
(dp1321
g34
g204
sg36
g205
sbsba(ischedule
Activity
p1322
(dp1323
g8
(lp1324
g280
ag408
ag393
asg34
g615
sg36
g419
sg38
g138
sg40
g139
sg42
(iread_data
Room
p1325
(dp1326
g34
g96
sg36
g97
sbsbaaa(lp1327
(lp1328
a(lp1329
a(lp1330
a(lp1331
a(lp1332
aasS'timeslot_dict'
p1333
(dp1334
I0
S'9:00-11:00'
p1335
sI1
S'11:00-13:00'
p1336
sI2
S'13:00-15:00'
p1337
sI3
S'15:00-17:00'
p1338
sI4
S'17:00-19:00'
p1339
ssS'day_dict'
p1340
(dp1341
I0
S'Monday'
p1342
sI1
S'Tuesday'
p1343
sI2
S'Wednesday'
p1344
sI3
S'Thursday'
p1345
sI4
S'Friday'
p1346
ssb.