(ischedule
Schedule
p0
(dp1
S'timetable'
p2
(lp3
(lp4
(lp5
(ischedule
Activity
p6
(dp7
S'participants'
p8
(lp9
S'73236988'
p10
aS'24613625'
p11
aS'30195935'
p12
aS'14816774'
p13
aS'22826928'
p14
aS'28359697'
p15
aS'53202517'
p16
aS'74131924'
p17
aS'6913074'
p18
aS'33877725'
p19
aS'21964491'
p20
aS'70878567'
p21
aS'15051051'
p22
aS'79617364'
p23
aS'11068043'
p24
aS'85335143'
p25
aS'14591033'
p26
aS'58522654'
p27
aS'56749879'
p28
aS'33930505'
p29
aS'56815156'
p30
aS'3168419'
p31
aS'64600457'
p32
aS'4568018'
p33
aS'77831658'
p34
aS'29526540'
p35
aS'6723948'
p36
aS'81200278'
p37
aS'7308727'
p38
aS'20883994'
p39
aS'89985072'
p40
aS'43680781'
p41
aS'59544049'
p42
aS'21029457'
p43
aS'96054456'
p44
aS'42196732'
p45
aS'96453361'
p46
aS'44868097'
p47
aS'54026378'
p48
aS'66120270'
p49
aS'30050930'
p50
aS'22731474'
p51
aS'247918'
p52
aS'5298748'
p53
aS'88176729'
p54
asS'capacity'
p55
I1000
sS'name'
p56
S'Bioinformatica'
p57
sS'ttype'
p58
S'lectures'
p59
sS'group_id'
p60
I0
sS'room'
p61
(iread_data
Room
p62
(dp63
g55
S'56'
p64
sg56
S'A1.10'
p65
sbsba(ischedule
Activity
p66
(dp67
g8
(lp68
S'68315599'
p69
aS'44901052'
p70
aS'75521763'
p71
aS'62701040'
p72
aS'75585647'
p73
aS'18266644'
p74
aS'8557857'
p75
aS'92977271'
p76
aS'23983476'
p77
aS'19958553'
p78
aS'77636749'
p79
asg55
S'15'
p80
sg56
S'Informatie- en organsatieontwerp'
p81
sg58
S'tutorials'
p82
sg60
S'1'
p83
sg61
(iread_data
Room
p84
(dp85
g55
S'41'
p86
sg56
S'A1.04'
p87
sbsba(ischedule
Activity
p88
(dp89
g8
(lp90
S'39230359'
p91
aS'5615125'
p92
aS'76123484'
p93
aS'17092717'
p94
aS'43902015'
p95
aS'94930277'
p96
aS'69459473'
p97
aS'89180944'
p98
aS'22288615'
p99
aS'66034145'
p100
aS'78243495'
p101
aS'43460038'
p102
aS'14847953'
p103
aS'1137946'
p104
aS'64228258'
p105
aS'16333449'
p106
aS'76648468'
p107
aS'20618153'
p108
aS'76903244'
p109
asg55
S'20'
p110
sg56
S'Webprogrammeren en databases'
p111
sg58
g82
sg60
S'2'
p112
sg61
(iread_data
Room
p113
(dp114
g55
S'22'
p115
sg56
S'A1.06'
p116
sbsba(ischedule
Activity
p117
(dp118
g8
(lp119
S'23257088'
p120
aS'58332004'
p121
asg55
S'15'
p122
sg56
g81
sg58
S'labs'
p123
sg60
g112
sg61
(iread_data
Room
p124
(dp125
g55
S'60'
p126
sg56
S'C1.112'
p127
sbsba(ischedule
Activity
p128
(dp129
g8
(lp130
S'77896638'
p131
aS'81385263'
p132
aS'42778953'
p133
aS'34243356'
p134
aS'48308205'
p135
aS'83266686'
p136
aS'92665222'
p137
aS'5368702'
p138
aS'1766560'
p139
aS'75599734'
p140
aS'95631564'
p141
aS'37770881'
p142
aS'39459642'
p143
aS'5595824'
p144
aS'76661016'
p145
aS'13284244'
p146
aS'88752563'
p147
aS'54772132'
p148
aS'79033175'
p149
aS'86291592'
p150
aS'79167252'
p151
aS'94687383'
p152
aS'27187154'
p153
aS'14309255'
p154
aS'88855695'
p155
aS'31194811'
p156
aS'3407554'
p157
aS'43689934'
p158
aS'49683101'
p159
aS'75664412'
p160
asg55
S'40'
p161
sg56
S'Compilerbouw'
p162
sg58
g82
sg60
g112
sg61
(iread_data
Room
p163
(dp164
g55
S'48'
p165
sg56
S'B0.201'
p166
sbsba(ischedule
Activity
p167
(dp168
g8
(lp169
S'24277163'
p170
aS'52715680'
p171
aS'96554914'
p172
aS'27950803'
p173
aS'22871048'
p174
aS'13718298'
p175
aS'41578612'
p176
aS'37110913'
p177
aS'27805666'
p178
aS'92778619'
p179
aS'77392404'
p180
aS'4709948'
p181
aS'51052738'
p182
aS'38296757'
p183
aS'42406214'
p184
aS'60661905'
p185
aS'70844780'
p186
aS'32044893'
p187
aS'99975346'
p188
aS'13092455'
p189
aS'37399898'
p190
aS'99453514'
p191
aS'87830198'
p192
aS'36785409'
p193
aS'33776961'
p194
aS'86988337'
p195
aS'20239127'
p196
aS'13658563'
p197
aS'49922855'
p198
aS'82390428'
p199
aS'59753700'
p200
aS'27370083'
p201
aS'70193386'
p202
aS'3685034'
p203
aS'54569540'
p204
asg55
S'20'
p205
sg56
S'Reflectie op de digitale cultuur'
p206
sg58
g82
sg60
g83
sg61
(iread_data
Room
p207
(dp208
g55
S'117'
p209
sg56
S'C0.110'
p210
sbsba(ischedule
Activity
p211
(dp212
g8
(lp213
S'51566595'
p214
aS'52311353'
p215
aS'91196968'
p216
aS'87900893'
p217
aS'22323043'
p218
aS'97136582'
p219
aS'19337738'
p220
aS'66122625'
p221
aS'50143947'
p222
aS'25330192'
p223
asg55
S'10'
p224
sg56
S'Data Mining'
p225
sg58
g123
sg60
g83
sg61
(iread_data
Room
p226
(dp227
g55
S'20'
p228
sg56
S'A1.08'
p229
sbsbaa(lp230
(ischedule
Activity
p231
(dp232
g8
(lp233
g133
aS'29640619'
p234
ag38
aS'54310617'
p235
aS'34773179'
p236
aS'22699561'
p237
aS'1665980'
p238
aS'17575088'
p239
aS'51741554'
p240
ag72
aS'72577292'
p241
aS'15902055'
p242
aS'46052388'
p243
aS'68601184'
p244
aS'23547619'
p245
aS'61443567'
p246
ag131
aS'77240949'
p247
aS'1075391'
p248
aS'29474737'
p249
aS'35330349'
p250
aS'1696500'
p251
aS'9332762'
p252
ag45
ag105
ag71
aS'64393888'
p253
aS'43027916'
p254
aS'96104167'
p255
aS'28357474'
p256
aS'53107172'
p257
aS'65960683'
p258
aS'86000192'
p259
ag20
aS'26406342'
p260
aS'45556081'
p261
aS'17222374'
p262
ag27
aS'3233378'
p263
ag93
aS'13534377'
p264
aS'50184318'
p265
ag142
ag222
aS'4783858'
p266
ag189
aS'57595888'
p267
aS'5517869'
p268
aS'33760909'
p269
aS'64296965'
p270
aS'87758823'
p271
aS'97135019'
p272
aS'25106480'
p273
aS'82689818'
p274
ag170
aS'60312776'
p275
aS'42171678'
p276
ag150
aS'31416266'
p277
aS'73980360'
p278
aS'48601268'
p279
asg55
I1000
sg56
S'Collectieve Intelligentie'
p280
sg58
g59
sg60
I0
sg61
(iread_data
Room
p281
(dp282
g55
g209
sg56
g210
sbsba(ischedule
Activity
p283
(dp284
g8
(lp285
g35
ag41
ag22
aS'58592894'
p286
aS'63111000'
p287
ag25
ag32
aS'77376714'
p288
ag121
aS'3883025'
p289
aS'48198668'
p290
aS'18144425'
p291
aS'11741347'
p292
aS'47462856'
p293
aS'13218321'
p294
ag194
ag139
aS'78443067'
p295
asg55
S'20'
p296
sg56
S'Moderne Databases'
p297
sg58
g123
sg60
g83
sg61
(iread_data
Room
p298
(dp299
g55
g228
sg56
g229
sbsba(ischedule
Activity
p300
(dp301
g8
(lp302
g48
aS'62356458'
p303
ag268
ag214
aS'72796858'
p304
aS'16097870'
p305
aS'61611295'
p306
ag143
aS'62872965'
p307
ag17
aS'27298319'
p308
aS'52552718'
p309
aS'88627897'
p310
ag70
aS'70113753'
p311
aS'11915563'
p312
aS'19858730'
p313
aS'36508571'
p314
ag177
aS'68409833'
p315
ag174
aS'34806836'
p316
asg55
I1000
sg56
S'Autonomous Agents 2'
p317
sg58
g59
sg60
I0
sg61
(iread_data
Room
p318
(dp319
g55
g165
sg56
g166
sbsba(ischedule
Activity
p320
(dp321
g8
(lp322
S'8522855'
p323
aS'99283252'
p324
aS'86180471'
p325
aS'76924297'
p326
aS'25077484'
p327
ag97
aS'87602030'
p328
ag11
aS'88737765'
p329
aS'78821918'
p330
aS'51673172'
p331
aS'58253841'
p332
aS'75680261'
p333
aS'41644639'
p334
aS'25994016'
p335
ag173
asg55
S'15'
p336
sg56
S'Project Genetic Algorithms'
p337
sg58
g123
sg60
S'3'
p338
sg61
(iread_data
Room
p339
(dp340
g55
g86
sg56
g87
sbsbaa(lp341
(ischedule
Activity
p342
(dp343
g8
(lp344
S'58074656'
p345
aS'84110134'
p346
ag141
aS'80709893'
p347
aS'94467156'
p348
ag140
aS'1048485'
p349
ag279
aS'5976174'
p350
ag33
ag309
ag218
ag40
aS'45915482'
p351
ag54
ag10
aS'65318664'
p352
aS'83210352'
p353
ag273
aS'31103066'
p354
aS'3727435'
p355
aS'14671406'
p356
aS'26260141'
p357
aS'61060652'
p358
ag98
aS'44671041'
p359
aS'65408517'
p360
aS'31247305'
p361
aS'48357272'
p362
aS'55474917'
p363
aS'40343779'
p364
ag234
ag295
ag48
ag101
ag172
aS'37744525'
p365
ag175
aS'41153310'
p366
aS'9287708'
p367
aS'82872148'
p368
aS'37830626'
p369
ag312
aS'14072826'
p370
ag303
ag324
ag222
ag315
ag19
aS'58565406'
p371
aS'31633723'
p372
ag42
aS'4546613'
p373
ag266
aS'41527759'
p374
ag173
ag171
aS'51593625'
p375
aS'27582862'
p376
aS'21095566'
p377
ag154
ag102
ag256
ag174
ag47
aS'70015932'
p378
aS'42115591'
p379
ag215
aS'62105897'
p380
aS'73302736'
p381
aS'89338938'
p382
ag24
ag275
ag263
ag288
asg55
I1000
sg56
S'Software engineering'
p383
sg58
g59
sg60
I0
sg61
(iread_data
Room
p384
(dp385
g55
g209
sg56
g210
sbsba(ischedule
Activity
p386
(dp387
g8
(lp388
S'57467488'
p389
ag323
aS'9731271'
p390
ag70
aS'16912993'
p391
ag38
aS'38499176'
p392
ag272
ag37
ag148
aS'5590289'
p393
ag181
ag132
aS'72665524'
p394
ag49
aS'7957843'
p395
aS'36903574'
p396
aS'48678993'
p397
aS'64246605'
p398
ag134
aS'63573738'
p399
aS'21677389'
p400
ag192
ag186
aS'19058315'
p401
ag251
ag74
ag274
aS'85284256'
p402
aS'535689'
p403
aS'62736669'
p404
aS'81022997'
p405
aS'62363761'
p406
ag12
aS'25557516'
p407
aS'53267490'
p408
aS'59075181'
p409
aS'72586808'
p410
ag29
aS'70939718'
p411
aS'72456780'
p412
aS'26207525'
p413
aS'4353500'
p414
ag240
asg55
S'20'
p415
sg56
S'Netwerken en systeembeveiliging'
p416
sg58
g123
sg60
S'4'
p417
sg61
(iread_data
Room
p418
(dp419
g55
g64
sg56
g65
sbsba(ischedule
Activity
p420
(dp421
g8
(lp422
g46
ag20
aS'51509565'
p423
aS'53585410'
p424
aS'72895450'
p425
ag308
asg55
S'25'
p426
sg56
S'Algoritmen en complexiteit'
p427
sg58
g82
sg60
g83
sg61
(iread_data
Room
p428
(dp429
g55
g228
sg56
g229
sbsba(ischedule
Activity
p430
(dp431
g8
(lp432
S'57086672'
p433
ag18
ag53
aS'68286356'
p434
aS'36213792'
p435
aS'61518436'
p436
aS'90474003'
p437
aS'60352393'
p438
ag14
aS'77960666'
p439
aS'51415617'
p440
asg55
g205
sg56
g206
sg58
g82
sg60
g338
sg61
(iread_data
Room
p441
(dp442
g55
g165
sg56
g166
sbsba(ischedule
Activity
p443
(dp444
g8
(lp445
g25
ag39
ag35
ag32
asg55
S'20'
p446
sg56
g57
sg58
g82
sg60
g83
sg61
(iread_data
Room
p447
(dp448
g55
g126
sg56
g127
sbsba(ischedule
Activity
p449
(dp450
g8
(lp451
g170
ag245
ag246
ag131
ag150
ag276
ag265
ag268
ag250
ag249
ag260
ag71
ag247
ag262
asg55
S'20'
p452
sg56
g280
sg58
g123
sg60
g417
sg61
(iread_data
Room
p453
(dp454
g55
g115
sg56
g116
sbsba(ischedule
Activity
p455
(dp456
g8
(lp457
S'84449005'
p458
ag41
aS'78136904'
p459
aS'84524083'
p460
aS'20095994'
p461
asg55
g205
sg56
g206
sg58
g82
sg60
g112
sg61
(iread_data
Room
p462
(dp463
g55
g86
sg56
g87
sbsbaa(lp464
(ischedule
Activity
p465
(dp466
g8
(lp467
S'55412918'
p468
aS'71839156'
p469
ag379
aS'23565001'
p470
aS'34588570'
p471
aS'56872729'
p472
ag135
aS'16011419'
p473
ag216
aS'21311067'
p474
ag307
aS'36527838'
p475
ag133
aS'94955328'
p476
ag314
ag132
ag315
aS'75005528'
p477
ag347
ag26
ag363
ag305
aS'74182182'
p478
ag353
ag271
aS'58866007'
p479
ag358
aS'670011'
p480
aS'81218347'
p481
ag190
aS'3474870'
p482
ag176
ag106
aS'80998260'
p483
ag134
aS'96118484'
p484
aS'94686490'
p485
aS'93566383'
p486
aS'54074680'
p487
aS'4921119'
p488
ag268
ag45
ag392
aS'32595335'
p489
aS'66570705'
p490
aS'90743504'
p491
ag131
aS'10149535'
p492
ag23
aS'26172512'
p493
aS'79937969'
p494
ag215
ag250
ag277
asg55
I1000
sg56
S'Lineaire Algebra'
p495
sg58
g59
sg60
I0
sg61
(iread_data
Room
p496
(dp497
g55
g126
sg56
g127
sbsba(ischedule
Activity
p498
(dp499
g8
(lp500
g191
ag37
aS'93023961'
p501
ag218
ag214
ag219
ag405
aS'13996448'
p502
ag365
aS'17823206'
p503
aS'68360259'
p504
ag222
aS'98780382'
p505
ag223
ag21
aS'45414528'
p506
ag200
ag20
ag217
ag220
ag17
ag216
aS'87314964'
p507
ag177
ag215
aS'13116738'
p508
ag221
asg55
I1000
sg56
g225
sg58
g59
sg60
I0
sg61
(iread_data
Room
p509
(dp510
g55
g165
sg56
g166
sbsba(ischedule
Activity
p511
(dp512
g8
(lp513
g186
ag438
ag459
aS'47477884'
p514
aS'39429093'
p515
aS'86807027'
p516
asg55
S'10'
p517
sg56
S'Advanced Heuristics'
p518
sg58
g123
sg60
g112
sg61
(iread_data
Room
p519
(dp520
g55
g228
sg56
g229
sbsba(ischedule
Activity
p521
(dp522
g8
(lp523
g173
ag27
ag36
ag425
ag69
ag10
ag11
ag195
ag16
ag460
ag304
aS'46989508'
p524
aS'9067939'
p525
aS'66701209'
p526
aS'2079771'
p527
ag258
ag275
aS'88636924'
p528
ag292
aS'34872117'
p529
aS'10792879'
p530
aS'15911353'
p531
aS'95007221'
p532
aS'76802764'
p533
aS'13911001'
p534
ag395
aS'80135353'
p535
aS'40791377'
p536
aS'30658799'
p537
aS'12077419'
p538
ag312
aS'8464817'
p539
aS'65852230'
p540
aS'98105190'
p541
aS'2317551'
p542
aS'34110913'
p543
aS'44391517'
p544
aS'48503689'
p545
aS'75759231'
p546
asg55
g161
sg56
g162
sg58
g82
sg60
g83
sg61
(iread_data
Room
p547
(dp548
g55
g86
sg56
g87
sbsba(ischedule
Activity
p549
(dp550
g8
(lp551
S'27064249'
p552
aS'10609762'
p553
ag357
ag259
aS'75446434'
p554
ag183
ag373
ag424
ag406
ag272
ag328
ag18
aS'33672995'
p555
aS'24875739'
p556
ag240
aS'61520025'
p557
aS'63634350'
p558
ag266
aS'77306636'
p559
aS'55530367'
p560
aS'65978354'
p561
ag351
aS'3678531'
p562
ag381
aS'46570285'
p563
ag269
aS'58469172'
p564
aS'82412626'
p565
aS'75997788'
p566
aS'40141996'
p567
ag73
aS'47932106'
p568
aS'78735049'
p569
ag32
aS'28957789'
p570
aS'72526473'
p571
aS'32705005'
p572
ag308
ag332
ag390
aS'79888156'
p573
ag325
aS'80188025'
p574
ag360
aS'59220392'
p575
aS'78544592'
p576
ag13
ag47
asg55
S'40'
p577
sg56
S'Calculus 2'
p578
sg58
g82
sg60
g83
sg61
(iread_data
Room
p579
(dp580
g55
g64
sg56
g65
sbsba(ischedule
Activity
p581
(dp582
g8
(lp583
g270
ag71
ag253
ag262
asg55
S'20'
p584
sg56
g280
sg58
g82
sg60
g83
sg61
(iread_data
Room
p585
(dp586
g55
g115
sg56
g116
sbsba(ischedule
Activity
p587
(dp588
g8
(lp589
g400
aS'2550487'
p590
ag100
ag245
aS'3707829'
p591
ag486
aS'20374340'
p592
aS'64768422'
p593
aS'44828429'
p594
aS'38179241'
p595
aS'19214659'
p596
ag132
ag138
aS'69634191'
p597
ag145
aS'34765676'
p598
aS'65675896'
p599
ag37
ag190
aS'37701751'
p600
aS'28055464'
p601
ag373
aS'81155296'
p602
ag103
ag326
asg55
I1000
sg56
S'Interactie-ontwerp'
p603
sg58
g59
sg60
I0
sg61
(iread_data
Room
p604
(dp605
g55
g209
sg56
g210
sbsbaa(lp606
(ischedule
Activity
p607
(dp608
g8
(lp609
S'73823548'
p610
ag189
aS'54540997'
p611
ag330
aS'15187217'
p612
aS'23658570'
p613
ag286
aS'91527663'
p614
aS'11996292'
p615
ag121
ag304
aS'56121590'
p616
aS'40434933'
p617
ag254
ag327
ag472
ag439
aS'51542218'
p618
ag413
ag404
ag438
ag260
aS'4529208'
p619
ag147
ag514
aS'49631542'
p620
ag52
ag31
ag477
ag131
ag270
aS'27123462'
p621
ag214
aS'12091019'
p622
ag35
ag95
ag568
aS'59397895'
p623
ag412
ag13
ag28
aS'70072978'
p624
ag567
aS'64947290'
p625
ag45
ag234
ag93
ag488
aS'5085194'
p626
ag268
ag170
ag44
aS'56191333'
p627
ag480
ag274
ag195
ag325
ag262
ag94
aS'5526560'
p628
ag600
ag485
ag143
ag309
ag120
aS'58083680'
p629
ag437
aS'83869542'
p630
aS'13132925'
p631
ag529
ag524
ag389
asg55
I1000
sg56
S'Databases 2'
p632
sg58
g59
sg60
I0
sg61
(iread_data
Room
p633
(dp634
g55
g209
sg56
g210
sbsba(ischedule
Activity
p635
(dp636
g8
(lp637
g377
ag362
ag355
ag222
ag10
ag357
ag154
ag373
ag303
ag215
ag309
ag382
ag370
ag266
ag324
ag356
ag367
ag350
ag295
ag351
ag172
ag102
ag371
ag365
ag346
ag33
ag234
ag141
ag361
ag279
asg55
S'40'
p638
sg56
g383
sg58
g123
sg60
g83
sg61
(iread_data
Room
p639
(dp640
g55
g126
sg56
g127
sbsba(ischedule
Activity
p641
(dp642
g8
(lp643
g374
ag345
ag347
ag379
ag369
ag380
ag275
ag263
ag175
ag47
ag381
ag372
ag98
ag218
ag375
ag171
ag360
ag359
ag366
ag140
ag349
ag174
ag358
ag364
ag24
ag348
ag378
ag48
ag368
ag42
ag54
ag40
ag363
ag101
ag19
ag352
ag312
ag376
ag288
ag354
ag353
ag173
ag256
ag273
ag315
asg55
g638
sg56
g383
sg58
g123
sg60
g112
sg61
(iread_data
Room
p644
(dp645
g55
g165
sg56
g166
sbsba(ischedule
Activity
p646
(dp647
g8
(lp648
g71
ag197
ag69
aS'32204977'
p649
ag21
ag70
ag79
ag72
ag73
ag78
aS'17496687'
p650
ag74
aS'11459236'
p651
ag77
ag508
ag75
ag76
aS'36748818'
p652
aS'29718115'
p653
asg55
g122
sg56
g81
sg58
g123
sg60
g83
sg61
(iread_data
Room
p654
(dp655
g55
g228
sg56
g229
sbsba(ischedule
Activity
p656
(dp657
g8
(lp658
S'7106649'
p659
aS'31897288'
p660
ag51
ag433
ag246
aS'58040377'
p661
aS'52304977'
p662
aS'58736785'
p663
ag598
ag328
ag405
aS'82968410'
p664
aS'1886996'
p665
ag460
ag558
aS'5739011'
p666
ag101
ag188
asg55
S'20'
p667
sg56
S'Heuristieken 2'
p668
sg58
g82
sg60
g83
sg61
(iread_data
Room
p669
(dp670
g55
g86
sg56
g87
sbsba(ischedule
Activity
p671
(dp672
g8
(lp673
S'14941752'
p674
ag135
aS'37419523'
p675
ag184
aS'6939933'
p676
ag502
ag139
ag34
ag545
asg55
S'15'
p677
sg56
S'Project Numerical Recipes'
p678
sg58
g123
sg60
g338
sg61
(iread_data
Room
p679
(dp680
g55
g115
sg56
g116
sbsbaaa(lp681
(lp682
(ischedule
Activity
p683
(dp684
g8
(lp685
g214
ag20
ag17
ag37
ag177
ag508
ag506
ag21
ag222
ag191
ag502
ag220
ag219
ag504
asg55
S'10'
p686
sg56
g225
sg58
g82
sg60
g112
sg61
(iread_data
Room
p687
(dp688
g55
g64
sg56
g65
sbsba(ischedule
Activity
p689
(dp690
g8
(lp691
g180
ag433
ag19
ag16
ag246
ag107
aS'67073567'
p692
aS'53512831'
p693
ag108
ag241
ag102
ag482
ag93
ag109
ag106
asg55
S'20'
p694
sg56
g111
sg58
g123
sg60
g83
sg61
(iread_data
Room
p695
(dp696
g55
g228
sg56
g229
sbsba(ischedule
Activity
p697
(dp698
g8
(lp699
g98
asg55
S'20'
p700
sg56
g297
sg58
g82
sg60
g338
sg61
(iread_data
Room
p701
(dp702
g55
g115
sg56
g116
sbsba(ischedule
Activity
p703
(dp704
g8
(lp705
g555
ag514
ag73
ag411
ag622
ag147
ag559
ag43
ag562
ag153
ag561
ag26
ag25
ag563
ag18
ag286
ag183
ag351
ag556
aS'75623387'
p706
ag145
ag151
aS'37279234'
p707
ag572
ag328
ag44
aS'53139134'
p708
ag574
aS'27925117'
p709
ag269
ag381
ag567
ag571
ag332
ag470
ag560
ag552
ag23
aS'11593163'
p710
ag424
ag390
ag565
ag576
ag308
ag295
ag217
ag406
ag468
aS'14303208'
p711
aS'23628642'
p712
ag553
ag478
ag259
ag557
ag610
aS'34173695'
p713
ag380
aS'56544130'
p714
ag558
ag394
ag564
ag472
ag357
aS'46701583'
p715
ag570
ag32
ag602
ag92
ag566
ag242
ag325
ag575
ag554
aS'93361408'
p716
ag240
ag272
aS'83415514'
p717
ag569
ag373
ag516
ag266
ag676
ag613
ag492
ag47
ag485
aS'19717077'
p718
ag595
ag155
ag530
aS'56348773'
p719
ag36
ag13
ag105
ag136
ag362
aS'22168693'
p720
ag305
aS'31306819'
p721
aS'6709529'
p722
aS'58699305'
p723
ag573
ag360
ag661
aS'14179347'
p724
ag568
asg55
I1000
sg56
g578
sg58
g59
sg60
I0
sg61
(iread_data
Room
p725
(dp726
g55
g209
sg56
g210
sbsba(ischedule
Activity
p727
(dp728
g8
(lp729
g292
ag262
aS'27241113'
p730
ag294
ag41
aS'59111489'
p731
asg55
g700
sg56
g297
sg58
g82
sg60
g112
sg61
g547
sba(ischedule
Activity
p732
(dp733
g8
(lp734
g348
ag273
ag365
ag256
ag379
ag347
ag363
ag350
ag263
ag358
ag353
ag279
ag315
ag234
ag275
ag10
ag303
ag215
ag218
ag288
ag24
ag374
ag356
ag377
ag371
ag367
ag171
ag357
ag54
ag382
ag345
ag101
ag364
ag40
ag355
ag173
ag376
ag33
ag346
ag369
ag375
ag309
ag359
ag172
ag42
ag312
ag354
ag175
ag372
ag324
asg55
S'40'
p735
sg56
g383
sg58
g82
sg60
g83
sg61
(iread_data
Room
p736
(dp737
g55
g126
sg56
g127
sbsba(ischedule
Activity
p738
(dp739
g8
(lp740
g245
ag70
ag617
aS'14383795'
p741
ag156
aS'69086548'
p742
aS'77264363'
p743
ag135
ag659
ag649
ag177
ag492
aS'4697362'
p744
aS'47982619'
p745
ag79
ag260
aS'21192048'
p746
ag615
asg55
S'20'
p747
sg56
S'Technology for games'
p748
sg58
g82
sg60
g83
sg61
(iread_data
Room
p749
(dp750
g55
g165
sg56
g166
sbsbaa(lp751
(ischedule
Activity
p752
(dp753
g8
(lp754
g76
ag197
ag73
ag652
ag653
ag70
ag649
ag508
ag650
ag651
ag120
ag69
ag75
ag79
ag121
ag77
ag78
ag21
ag72
ag74
ag71
asg55
I1000
sg56
g81
sg58
g59
sg60
I0
sg61
(iread_data
Room
p755
(dp756
g55
g209
sg56
g210
sbsba(ischedule
Activity
p757
(dp758
g8
(lp759
g552
ag98
ag92
ag711
ag105
ag617
ag101
aS'28358060'
p760
ag104
aS'6249823'
p761
ag95
ag100
aS'10698627'
p762
aS'2416751'
p763
aS'24891081'
p764
aS'49908313'
p765
ag91
aS'41790793'
p766
ag94
ag96
ag99
ag425
ag97
ag103
asg55
g694
sg56
g111
sg58
g123
sg60
g112
sg61
(iread_data
Room
p767
(dp768
g55
g165
sg56
g166
sbsba(ischedule
Activity
p769
(dp770
g8
g9
sg55
I1000
sg56
g57
sg58
g59
sg60
I0
sg61
(iread_data
Room
p771
(dp772
g55
g126
sg56
g127
sbsba(ischedule
Activity
p773
(dp774
g8
(lp775
g189
ag438
ag434
ag172
ag435
ag460
ag201
ag186
ag173
ag181
ag185
ag183
ag200
ag14
ag53
ag18
ag176
ag174
ag195
ag203
ag41
ag436
ag461
ag193
ag459
ag433
ag184
ag177
ag180
ag439
ag458
ag192
ag440
ag179
ag196
ag202
ag197
ag198
ag187
ag188
ag204
ag191
ag194
ag199
ag175
ag170
ag182
ag190
ag171
ag437
ag178
asg55
I1000
sg56
g206
sg58
g59
sg60
I0
sg61
(iread_data
Room
p776
(dp777
g55
g64
sg56
g65
sbsba(ischedule
Activity
p778
(dp779
g8
(lp780
g516
ag147
ag303
ag610
ag478
aS'12430748'
p781
ag382
ag395
aS'32183908'
p782
aS'34691309'
p783
asg55
g677
sg56
g678
sg58
g123
sg60
g83
sg61
(iread_data
Room
p784
(dp785
g55
g86
sg56
g87
sbsbaa(lp786
(ischedule
Activity
p787
(dp788
g8
(lp789
S'47605891'
p790
aS'82688900'
p791
aS'38329455'
p792
aS'97019450'
p793
ag39
aS'63408522'
p794
ag293
ag556
ag363
aS'23798155'
p795
ag570
ag620
ag564
ag372
aS'63955238'
p796
ag74
ag346
aS'44940353'
p797
ag326
aS'97371272'
p798
ag204
ag436
ag569
ag390
ag478
ag196
ag28
ag235
ag563
ag270
ag572
aS'72547110'
p799
ag558
aS'14398123'
p800
ag481
ag459
ag356
ag138
ag51
aS'41585485'
p801
aS'91139627'
p802
aS'51186803'
p803
ag134
ag323
ag348
ag216
ag396
aS'65003379'
p804
ag382
aS'20331158'
p805
ag392
aS'34262212'
p806
ag618
ag409
ag203
aS'23391676'
p807
ag530
ag460
ag121
aS'39659121'
p808
aS'39919665'
p809
aS'7492204'
p810
aS'99272880'
p811
ag476
aS'37498675'
p812
ag379
aS'79366078'
p813
ag247
ag79
ag312
ag374
ag503
ag92
ag742
aS'79858178'
p814
aS'10872825'
p815
ag361
ag44
aS'56988998'
p816
ag26
ag27
ag42
ag153
ag91
asg55
I1000
sg56
S'Kansrekenen 2'
p817
sg58
g59
sg60
I0
sg61
(iread_data
Room
p818
(dp819
g55
g209
sg56
g210
sbsba(ischedule
Activity
p820
(dp821
g8
(lp822
S'70336464'
p823
aS'93041523'
p824
ag382
ag746
ag25
ag761
ag218
ag615
aS'76487754'
p825
ag79
ag177
ag744
ag743
ag71
ag70
ag176
ag260
ag156
ag745
ag659
ag160
ag154
ag798
ag252
ag492
ag741
ag193
ag41
ag538
ag781
ag135
ag649
ag69
ag617
ag742
ag245
aS'92496780'
p826
ag371
asg55
I1000
sg56
g748
sg58
g59
sg60
I0
sg61
(iread_data
Room
p827
(dp828
g55
g86
sg56
g87
sbsba(ischedule
Activity
p829
(dp830
g8
(lp831
g48
ag22
ag43
ag21
ag16
ag30
asg55
g446
sg56
g57
sg58
g82
sg60
g112
sg61
(iread_data
Room
p832
(dp833
g55
g165
sg56
g166
sbsba(ischedule
Activity
p834
(dp835
g8
(lp836
g20
ag273
ag243
ag251
ag275
ag142
ag133
ag258
ag274
ag170
ag189
ag105
ag45
ag257
ag266
ag255
ag93
ag241
ag263
ag261
ag250
ag38
ag249
ag248
ag222
asg55
g584
sg56
g280
sg58
g82
sg60
g112
sg61
(iread_data
Room
p837
(dp838
g55
g64
sg56
g65
sbsba(ischedule
Activity
p839
(dp840
g8
(lp841
g534
aS'88596522'
p842
ag599
aS'42297781'
p843
ag157
ag651
ag403
ag238
asg55
S'15'
p844
sg56
S'Compilerbouw practicum'
p845
sg58
g123
sg60
g112
sg61
(iread_data
Room
p846
(dp847
g55
g126
sg56
g127
sbsba(ischedule
Activity
p848
(dp849
g8
(lp850
g234
ag150
ag223
ag438
aS'12170832'
p851
ag219
ag349
asg55
g415
sg56
g416
sg58
g123
sg60
g338
sg61
(iread_data
Room
p852
(dp853
g55
g115
sg56
g116
sbsbaa(lp854
(ischedule
Activity
p855
(dp856
g8
(lp857
g70
ag143
ag316
ag174
ag305
ag306
ag314
ag304
ag310
ag308
ag312
ag48
ag309
asg55
S'10'
p858
sg56
g317
sg58
g82
sg60
g112
sg61
(iread_data
Room
p859
(dp860
g55
g115
sg56
g116
sbsba(ischedule
Activity
p861
(dp862
g8
(lp863
S'28618400'
p864
ag98
ag378
ag617
ag492
ag479
ag529
ag805
ag136
aS'59289233'
p865
ag159
ag261
aS'72683344'
p866
ag274
ag653
ag795
ag241
aS'13798030'
p867
aS'14138904'
p868
ag102
ag709
asg55
I1000
sg56
S'Architectuur en computerorganisatie'
p869
sg58
g59
sg60
I0
sg61
(iread_data
Room
p870
(dp871
g55
g126
sg56
g127
sbsba(ischedule
Activity
p872
(dp873
g8
(lp874
g20
ag41
ag54
ag38
ag42
ag37
ag12
ag51
ag34
ag33
ag49
ag26
ag46
ag15
ag45
ag13
ag40
ag18
ag14
ag17
ag10
ag19
ag52
ag44
ag29
ag11
ag27
ag24
ag36
ag47
ag28
ag53
ag50
ag31
ag23
asg55
g446
sg56
g57
sg58
g82
sg60
g338
sg61
(iread_data
Room
p875
(dp876
g55
g64
sg56
g65
sbsba(ischedule
Activity
p877
(dp878
g8
(lp879
g150
ag244
ag238
ag269
ag278
ag254
ag245
ag267
ag72
ag236
ag242
ag259
ag239
asg55
g584
sg56
g280
sg58
g82
sg60
g417
sg61
(iread_data
Room
p880
(dp881
g55
g228
sg56
g229
sbsba(ischedule
Activity
p882
(dp883
g8
(lp884
g177
ag307
ag303
ag315
ag313
ag311
asg55
g858
sg56
g317
sg58
g82
sg60
g83
sg61
(iread_data
Room
p885
(dp886
g55
g86
sg56
g87
sbsba(ischedule
Activity
p887
(dp888
g8
(lp889
g32
ag576
ag566
ag286
ag324
ag25
ag563
ag154
ag723
ag295
ag101
ag121
ag69
ag615
ag717
ag288
aS'1181560'
p890
ag534
ag170
ag71
ag35
ag276
aS'66621166'
p891
ag268
ag290
ag652
ag475
ag330
aS'41489515'
p892
ag139
ag624
aS'27916487'
p893
ag181
aS'96082155'
p894
ag194
ag287
aS'49219163'
p895
ag291
ag620
ag537
ag293
ag265
aS'51650744'
p896
ag458
ag289
ag22
ag136
asg55
g700
sg56
g297
sg58
g82
sg60
g83
sg61
(iread_data
Room
p897
(dp898
g55
g209
sg56
g210
sbsba(ischedule
Activity
p899
(dp900
g8
(lp901
S'55480737'
p902
ag273
aS'82066165'
p903
ag176
ag724
aS'40633534'
p904
ag628
aS'74361881'
p905
ag348
ag192
ag145
ag800
asg55
g336
sg56
g337
sg58
g123
sg60
g112
sg61
(iread_data
Room
p906
(dp907
g55
g165
sg56
g166
sbsbaa(lp908
(ischedule
Activity
p909
(dp910
g8
g233
sg55
I1000
sg56
g280
sg58
g59
sg60
I0
sg61
(iread_data
Room
p911
(dp912
g55
g126
sg56
g127
sbsba(ischedule
Activity
p913
(dp914
g8
(lp915
g150
ag16
ag149
ag540
ag157
ag543
ag527
ag131
ag536
ag541
ag154
ag529
ag534
ag532
ag142
ag27
ag531
ag539
ag160
ag132
ag145
ag36
ag395
ag530
ag258
ag153
ag312
ag533
ag537
ag148
ag11
ag525
ag173
ag425
ag538
ag546
ag138
ag152
ag137
ag460
ag139
ag292
ag542
ag156
ag133
ag136
ag10
ag155
ag195
ag544
ag524
ag158
ag526
ag140
ag151
ag144
ag528
ag159
ag134
ag143
ag147
ag69
ag535
ag275
ag135
ag545
ag304
ag146
ag141
asg55
I1000
sg56
g162
sg58
g59
sg60
I0
sg61
(iread_data
Room
p916
(dp917
g55
g209
sg56
g210
sbsba(ischedule
Activity
p918
(dp919
g8
g302
sg55
I1000
sg56
g317
sg58
g59
sg60
I0
sg61
(iread_data
Room
p920
(dp921
g55
g165
sg56
g166
sbsba(ischedule
Activity
p922
(dp923
g8
(lp924
g46
ag350
ag459
ag424
ag323
ag357
ag288
ag614
ag171
aS'64554442'
p925
ag389
asg55
S'25'
p926
sg56
g427
sg58
g123
sg60
g83
sg61
(iread_data
Room
p927
(dp928
g55
g86
sg56
g87
sbsba(ischedule
Activity
p929
(dp930
g8
(lp931
g21
ag120
ag121
ag197
ag652
ag649
ag508
ag653
ag651
ag650
asg55
g80
sg56
g81
sg58
g82
sg60
g112
sg61
(iread_data
Room
p932
(dp933
g55
g64
sg56
g65
sbsba(ischedule
Activity
p934
(dp935
g8
(lp936
g215
ag505
ag218
ag223
ag503
ag217
ag200
asg55
g686
sg56
g225
sg58
g82
sg60
g83
sg61
(iread_data
Room
p937
(dp938
g55
g115
sg56
g116
sbsbaaa(lp939
(lp940
(ischedule
Activity
p941
(dp942
g8
g233
sg55
I1000
sg56
g280
sg58
g59
sg60
I0
sg61
(iread_data
Room
p943
(dp944
g55
g209
sg56
g210
sbsba(ischedule
Activity
p945
(dp946
g8
(lp947
g795
ag287
ag247
ag22
ag536
ag153
ag143
ag348
ag203
ag527
aS'67625383'
p948
ag365
ag159
ag715
aS'90067329'
p949
ag183
aS'85236626'
p950
ag816
aS'33252501'
p951
ag350
aS'26857113'
p952
ag436
asg55
I1000
sg56
S'Machine Learning'
p953
sg58
g59
sg60
I0
sg61
(iread_data
Room
p954
(dp955
g55
g115
sg56
g116
sbsba(ischedule
Activity
p956
(dp957
g8
g467
sg55
I1000
sg56
g495
sg58
g59
sg60
I0
sg61
(iread_data
Room
p958
(dp959
g55
g64
sg56
g65
sbsba(ischedule
Activity
p960
(dp961
g8
(lp962
g514
ag137
ag39
ag394
ag552
ag103
ag245
ag459
ag186
ag515
ag866
ag516
ag566
ag31
ag241
ag904
ag665
ag864
aS'62613937'
p963
ag438
asg55
I1000
sg56
g518
sg58
g59
sg60
I0
sg61
(iread_data
Room
p964
(dp965
g55
g86
sg56
g87
sbsba(ischedule
Activity
p966
(dp967
g8
(lp968
g21
ag37
ag508
ag17
ag503
ag505
ag200
ag506
ag405
ag507
ag502
ag191
ag177
asg55
g224
sg56
g225
sg58
g123
sg60
g338
sg61
(iread_data
Room
p969
(dp970
g55
g228
sg56
g229
sbsba(ischedule
Activity
p971
(dp972
g8
(lp973
g351
ag373
ag362
ag19
ag295
ag360
ag381
ag98
ag380
ag47
ag154
ag370
ag140
ag266
ag141
ag378
ag349
ag361
ag368
ag102
ag222
ag48
ag352
ag366
ag174
asg55
g735
sg56
g383
sg58
g82
sg60
g112
sg61
(iread_data
Room
p974
(dp975
g55
g126
sg56
g127
sbsba(ischedule
Activity
p976
(dp977
g8
(lp978
g459
ag356
ag350
ag614
ag357
ag842
ag598
ag482
ag242
ag46
ag238
ag423
ag538
ag396
ag286
aS'67817269'
p979
aS'66433883'
p980
ag20
ag389
ag323
ag195
ag425
ag591
ag132
ag594
ag77
ag364
ag925
ag625
ag715
ag801
ag374
ag171
ag214
ag274
ag377
ag222
aS'23652927'
p981
ag308
ag424
ag95
aS'19540225'
p982
ag288
asg55
I1000
sg56
g427
sg58
g59
sg60
I0
sg61
(iread_data
Room
p983
(dp984
g55
g165
sg56
g166
sbsbaa(lp985
(ischedule
Activity
p986
(dp987
g8
g915
sg55
I1000
sg56
g162
sg58
g59
sg60
I0
sg61
(iread_data
Room
p988
(dp989
g55
g209
sg56
g210
sbsba(ischedule
Activity
p990
(dp991
g8
(lp992
g389
ag414
ag33
aS'20830477'
p993
aS'76393508'
p994
aS'53775014'
p995
ag615
ag541
ag868
ag362
ag26
ag409
ag70
ag76
ag674
ag805
ag28
ag197
ag566
ag516
ag96
aS'97417002'
p996
aS'79879876'
p997
ag266
ag396
ag221
ag71
ag663
ag257
aS'83443653'
p998
ag177
ag13
ag469
ag358
ag313
ag251
ag481
ag793
ag660
aS'45660925'
p999
ag218
aS'87210640'
p1000
ag276
ag174
asg55
I1000
sg56
S'Heuristieken 1'
p1001
sg58
g59
sg60
I0
sg61
(iread_data
Room
p1002
(dp1003
g55
g64
sg56
g65
sbsba(ischedule
Activity
p1004
(dp1005
g8
(lp1006
g254
ag665
ag666
ag101
ag950
ag328
ag269
ag663
ag350
ag433
ag598
ag630
aS'35315956'
p1007
ag664
ag661
ag188
ag397
ag660
ag37
ag709
ag558
aS'72652638'
p1008
ag51
ag662
ag305
ag480
ag246
ag405
ag460
ag214
aS'15249775'
p1009
ag659
asg55
I1000
sg56
g668
sg58
g59
sg60
I0
sg61
(iread_data
Room
p1010
(dp1011
g55
g165
sg56
g166
sbsba(ischedule
Activity
p1012
(dp1013
g8
(lp1014
g44
ag270
ag121
ag620
ag268
ag616
ag622
ag621
ag617
ag35
ag619
ag612
ag309
ag627
ag613
ag95
ag629
asg55
S'40'
p1015
sg56
g632
sg58
g82
sg60
g83
sg61
(iread_data
Room
p1016
(dp1017
g55
g86
sg56
g87
sbsba(ischedule
Activity
p1018
(dp1019
g8
(lp1020
g364
ag864
asg55
g415
sg56
g416
sg58
g123
sg60
g83
sg61
(iread_data
Room
p1021
(dp1022
g55
g228
sg56
g229
sbsbaa(lp1023
(ischedule
Activity
p1024
(dp1025
g8
(lp1026
g185
aS'82854435'
p1027
ag329
ag618
ag574
ag555
ag254
ag34
aS'34900967'
p1028
ag433
ag795
ag379
ag381
aS'73350019'
p1029
aS'78822885'
p1030
ag397
aS'14637758'
p1031
ag174
ag215
aS'58480929'
p1032
ag998
ag192
ag175
ag74
ag134
ag488
ag305
aS'97838175'
p1033
ag144
ag352
ag330
ag412
ag714
ag176
ag476
ag362
ag193
ag30
ag270
ag566
ag202
ag963
aS'18477924'
p1034
ag613
ag793
ag410
ag626
ag470
ag25
asg55
I1000
sg56
S'Analysemethoden en -technieken'
p1035
sg58
g59
sg60
I0
sg61
(iread_data
Room
p1036
(dp1037
g55
g209
sg56
g210
sbsba(ischedule
Activity
p1038
(dp1039
g8
(lp1040
g20
ag214
ag242
ag274
ag425
ag222
ag308
ag286
ag238
ag377
ag356
ag396
ag132
ag981
ag77
ag982
ag980
ag482
ag801
ag598
ag715
ag423
ag842
ag594
ag538
ag364
ag625
ag95
ag374
ag979
ag591
ag195
asg55
g926
sg56
g427
sg58
g123
sg60
g112
sg61
(iread_data
Room
p1041
(dp1042
g55
g86
sg56
g87
sbsba(ischedule
Activity
p1043
(dp1044
g8
(lp1045
g536
ag173
ag460
ag153
ag143
ag159
ag527
ag133
ag137
ag195
ag158
ag530
ag538
ag275
ag145
ag535
ag528
ag141
ag543
ag142
ag534
ag147
ag139
ag150
ag524
ag148
ag258
ag541
ag540
ag152
ag149
asg55
S'40'
p1046
sg56
g162
sg58
g123
sg60
g83
sg61
(iread_data
Room
p1047
(dp1048
g55
g165
sg56
g166
sbsba(ischedule
Activity
p1049
(dp1050
g8
(lp1051
g21
ag10
ag36
ag31
ag13
ag47
ag44
ag19
ag16
ag17
ag43
ag32
ag26
ag54
ag39
ag33
ag46
ag37
ag29
ag40
ag18
ag42
ag12
ag45
ag23
ag24
ag22
ag11
ag50
ag14
ag48
ag15
asg55
S'20'
p1052
sg56
g57
sg58
g123
sg60
g338
sg61
(iread_data
Room
p1053
(dp1054
g55
g126
sg56
g127
sbsba(ischedule
Activity
p1055
(dp1056
g8
(lp1057
g616
ag800
ag368
ag180
aS'123355'
p1058
ag289
ag160
ag365
ag627
aS'59887191'
p1059
ag361
asg55
g415
sg56
g416
sg58
g123
sg60
g112
sg61
(iread_data
Room
p1060
(dp1061
g55
g64
sg56
g65
sbsba(ischedule
Activity
p1062
(dp1063
g8
(lp1064
g131
ag27
ag277
ag252
ag268
ag237
ag235
ag271
ag234
ag264
ag240
ag247
ag260
ag256
ag276
ag265
ag272
ag246
ag279
asg55
g584
sg56
g280
sg58
g82
sg60
g338
sg61
(iread_data
Room
p1065
(dp1066
g55
g115
sg56
g116
sbsba(ischedule
Activity
p1067
(dp1068
g8
(lp1069
g76
ag624
asg55
S'20'
p1070
sg56
S'Programmeren in Java 2'
p1071
sg58
g123
sg60
g338
sg61
(iread_data
Room
p1072
(dp1073
g55
g228
sg56
g229
sbsbaa(lp1074
(ischedule
Activity
p1075
(dp1076
g8
(lp1077
g254
ag20
ag133
ag234
ag279
ag272
ag267
ag256
ag239
ag259
asg55
g452
sg56
g280
sg58
g123
sg60
g112
sg61
(iread_data
Room
p1078
(dp1079
g55
g165
sg56
g166
sbsba(ischedule
Activity
p1080
(dp1081
g8
g775
sg55
I1000
sg56
g206
sg58
g59
sg60
I0
sg61
(iread_data
Room
p1082
(dp1083
g55
g126
sg56
g127
sbsba(ischedule
Activity
p1084
(dp1085
g8
(lp1086
g425
ag10
ag27
ag36
ag134
ag144
ag154
ag16
ag545
ag131
ag135
ag11
ag542
ag156
ag155
ag537
ag69
ag132
ag160
ag146
ag140
ag526
ag539
ag532
ag136
ag157
ag525
ag292
ag529
ag546
ag544
ag304
ag395
ag312
ag531
ag138
ag533
ag151
asg55
g1046
sg56
g162
sg58
g123
sg60
g112
sg61
(iread_data
Room
p1087
(dp1088
g55
g209
sg56
g210
sbsba(ischedule
Activity
p1089
(dp1090
g8
(lp1091
g222
ag263
ag253
ag45
ag273
ag271
asg55
g452
sg56
g280
sg58
g123
sg60
g338
sg61
(iread_data
Room
p1092
(dp1093
g55
g86
sg56
g87
sbsba(ischedule
Activity
p1094
(dp1095
g8
(lp1096
g552
ag866
ag245
ag103
ag566
ag241
ag963
ag31
ag904
ag39
ag864
ag137
ag394
ag665
asg55
g517
sg56
g518
sg58
g123
sg60
g83
sg61
(iread_data
Room
p1097
(dp1098
g55
g115
sg56
g116
sbsba(ischedule
Activity
p1099
(dp1100
g8
g947
sg55
I1000
sg56
g953
sg58
g59
sg60
I0
sg61
(iread_data
Room
p1101
(dp1102
g55
g64
sg56
g65
sbsba(ischedule
Activity
p1103
(dp1104
g8
(lp1105
g23
ag105
ag514
ag485
ag721
ag712
ag676
ag242
ag470
ag380
ag145
ag661
ag25
ag613
ag711
ag724
ag707
ag92
asg55
g577
sg56
g578
sg58
g82
sg60
g338
sg61
(iread_data
Room
p1106
(dp1107
g55
g228
sg56
g229
sbsbaa(lp1108
(ischedule
Activity
p1109
(dp1110
g8
(lp1111
g101
ag69
ag730
ag890
ag265
ag181
ag136
ag98
ag576
ag537
ag566
ag262
ag170
ag891
ag615
ag723
ag893
ag895
ag475
ag458
ag620
ag896
ag324
ag892
asg55
g296
sg56
g297
sg58
g123
sg60
g112
sg61
(iread_data
Room
p1112
(dp1113
g55
g209
sg56
g210
sbsba(ischedule
Activity
p1114
(dp1115
g8
(lp1116
g323
ag374
ag222
ag171
ag350
ag389
ag364
ag238
ag356
ag357
ag377
ag288
ag132
ag286
ag715
ag396
ag614
ag801
ag274
ag842
ag459
ag482
ag980
ag95
ag594
ag982
ag625
ag538
ag214
ag925
ag195
ag981
ag77
ag242
ag979
ag591
ag598
asg55
g426
sg56
g427
sg58
g82
sg60
g112
sg61
(iread_data
Room
p1117
(dp1118
g55
g86
sg56
g87
sbsba(ischedule
Activity
p1119
(dp1120
g8
g9
sg55
I1000
sg56
g57
sg58
g59
sg60
I0
sg61
(iread_data
Room
p1121
(dp1122
g55
g126
sg56
g127
sbsba(ischedule
Activity
p1123
(dp1124
g8
(lp1125
g190
ag287
ag476
ag613
ag516
ag246
ag311
ag502
ag120
ag244
ag72
ag148
aS'64053722'
p1126
ag1028
ag359
ag121
ag152
ag590
ag363
aS'88597745'
p1127
ag806
ag545
aS'10702778'
p1128
aS'12782624'
p1129
ag544
ag252
ag535
aS'54395877'
p1130
asg55
g1070
sg56
g1071
sg58
g123
sg60
g83
sg61
g1078
sba(ischedule
Activity
p1131
(dp1132
g8
(lp1133
g563
ag534
ag154
ag330
ag276
ag268
ag624
ag71
ag894
ag652
ag731
ag717
asg55
g296
sg56
g297
sg58
g123
sg60
g338
sg61
(iread_data
Room
p1134
(dp1135
g55
g228
sg56
g229
sbsba(ischedule
Activity
p1136
(dp1137
g8
(lp1138
g177
ag218
ag197
ag70
ag1000
ag997
ag998
ag266
ag251
ag71
ag313
ag663
ag674
asg55
S'25'
p1139
sg56
g1001
sg58
g82
sg60
g112
sg61
(iread_data
Room
p1140
(dp1141
g55
g64
sg56
g65
sbsba(ischedule
Activity
p1142
(dp1143
g8
(lp1144
g365
ag216
ag405
ag507
ag501
ag221
asg55
g686
sg56
g225
sg58
g82
sg60
g338
sg61
(iread_data
Room
p1145
(dp1146
g55
g115
sg56
g116
sbsbaaa(lp1147
(lp1148
(ischedule
Activity
p1149
(dp1150
g8
(lp1151
g305
ag312
ag303
ag314
ag311
ag316
ag304
ag174
asg55
S'10'
p1152
sg56
g317
sg58
g123
sg60
g338
sg61
(iread_data
Room
p1153
(dp1154
g55
g209
sg56
g210
sbsba(ischedule
Activity
p1155
(dp1156
g8
g589
sg55
I1000
sg56
g603
sg58
g59
sg60
I0
sg61
(iread_data
Room
p1157
(dp1158
g55
g126
sg56
g127
sbsba(ischedule
Activity
p1159
(dp1160
g8
g863
sg55
I1000
sg56
g869
sg58
g59
sg60
I0
sg61
(iread_data
Room
p1161
(dp1162
g55
g86
sg56
g87
sbsba(ischedule
Activity
p1163
(dp1164
g8
(lp1165
S'73196865'
p1166
ag32
ag181
aS'51791169'
p1167
ag259
ag715
ag179
ag439
ag14
ag661
ag194
ag216
ag997
ag392
ag980
ag539
ag424
ag28
ag707
ag950
aS'28943658'
p1168
ag150
ag376
ag745
ag77
ag108
ag380
asg55
g1070
sg56
g1071
sg58
g123
sg60
g417
sg61
(iread_data
Room
p1169
(dp1170
g55
g64
sg56
g65
sbsba(ischedule
Activity
p1171
(dp1172
g8
(lp1173
g48
ag313
asg55
g1152
sg56
g317
sg58
g123
sg60
g112
sg61
(iread_data
Room
p1174
(dp1175
g55
g115
sg56
g116
sbsba(ischedule
Activity
p1176
(dp1177
g8
(lp1178
g25
ag41
ag218
ag371
ag382
ag825
ag176
ag71
ag160
ag538
ag798
ag761
ag781
ag824
ag69
ag193
ag823
ag826
ag252
ag154
asg55
g747
sg56
g748
sg58
g82
sg60
g112
sg61
(iread_data
Room
p1179
(dp1180
g55
g165
sg56
g166
sbsba(ischedule
Activity
p1181
(dp1182
g8
(lp1183
g268
ag306
ag214
ag309
ag310
ag307
ag17
ag143
ag308
ag70
ag177
ag315
asg55
g1152
sg56
g317
sg58
g123
sg60
g83
sg61
(iread_data
Room
p1184
(dp1185
g55
g228
sg56
g229
sbsbaa(lp1186
(ischedule
Activity
p1187
(dp1188
g8
g789
sg55
I1000
sg56
g817
sg58
g59
sg60
I0
sg61
(iread_data
Room
p1189
(dp1190
g55
g209
sg56
g210
sbsba(ischedule
Activity
p1191
(dp1192
g8
(lp1193
g254
ag618
ag147
ag131
ag480
ag195
ag630
ag529
ag524
ag389
ag28
ag274
ag13
ag304
ag31
ag615
ag143
ag404
ag45
ag52
ag610
ag325
ag234
ag214
ag626
ag327
ag485
ag477
ag94
ag625
ag472
ag439
ag623
ag170
ag488
ag614
ag286
ag631
ag413
ag568
ag93
ag628
ag262
ag600
ag189
ag330
ag624
ag567
ag412
ag437
ag514
ag260
ag120
ag438
ag611
asg55
g1015
sg56
g632
sg58
g82
sg60
g112
sg61
(iread_data
Room
p1194
(dp1195
g55
g64
sg56
g65
sbsba(ischedule
Activity
p1196
(dp1197
g8
g500
sg55
I1000
sg56
g225
sg58
g59
sg60
I0
sg61
(iread_data
Room
p1198
(dp1199
g55
g165
sg56
g166
sbsba(ischedule
Activity
p1200
(dp1201
g8
(lp1202
g19
ag16
ag180
ag425
ag711
ag763
ag433
ag762
ag766
ag617
ag693
ag761
ag241
ag552
ag760
ag764
ag482
ag246
ag692
ag765
asg55
g110
sg56
g111
sg58
g82
sg60
g83
sg61
(iread_data
Room
p1203
(dp1204
g55
g228
sg56
g229
sbsba(ischedule
Activity
p1205
(dp1206
g8
(lp1207
g397
ag315
ag236
ag142
ag458
ag526
ag715
ag709
asg55
g336
sg56
g337
sg58
g123
sg60
g83
sg61
(iread_data
Room
p1208
(dp1209
g55
g86
sg56
g87
sbsbaa(lp1210
(ischedule
Activity
p1211
(dp1212
g8
(lp1213
g731
ag98
ag181
ag268
ag723
ag534
ag895
ag620
ag170
ag290
ag276
ag265
ag35
ag262
ag566
ag458
ag101
ag717
ag324
ag295
ag288
ag41
ag576
ag154
ag894
ag291
ag891
ag730
ag69
ag71
ag537
ag121
ag286
ag293
ag292
ag892
ag294
ag136
ag896
ag624
ag287
ag330
ag893
ag890
ag615
ag32
ag289
ag139
ag25
ag475
ag652
ag22
ag194
ag563
asg55
I1000
sg56
g297
sg58
g59
sg60
I0
sg61
(iread_data
Room
p1214
(dp1215
g55
g64
sg56
g65
sbsba(ischedule
Activity
p1216
(dp1217
g8
(lp1218
g1009
ag952
ag763
ag20
ag480
aS'7386961'
p1219
ag396
ag562
aS'90296821'
p1220
ag18
ag185
ag375
aS'73893840'
p1221
ag488
aS'88263855'
p1222
ag564
ag349
ag153
ag542
ag810
aS'39905995'
p1223
ag36
asg55
g1070
sg56
g1071
sg58
g123
sg60
g112
sg61
(iread_data
Room
p1224
(dp1225
g55
g115
sg56
g116
sbsba(ischedule
Activity
p1226
(dp1227
g8
(lp1228
g649
ag222
ag171
ag267
ag469
ag394
ag335
aS'5892092'
p1229
ag905
aS'91250534'
p1230
ag711
aS'55103073'
p1231
ag24
ag260
asg55
g844
sg56
g845
sg58
g123
sg60
g338
sg61
(iread_data
Room
p1232
(dp1233
g55
g209
sg56
g210
sbsba(ischedule
Activity
p1234
(dp1235
g8
(lp1236
g131
ag348
aS'88519892'
p1237
ag195
ag486
ag762
ag503
ag44
ag365
ag99
aS'63096281'
p1238
ag558
ag993
ag793
asg55
g1070
sg56
g1071
sg58
g123
sg60
S'5'
p1239
sg61
(iread_data
Room
p1240
(dp1241
g55
g228
sg56
g229
sbsba(ischedule
Activity
p1242
(dp1243
g8
(lp1244
g266
ag275
ag27
ag189
ag236
ag251
ag261
ag278
ag242
ag142
ag257
ag255
ag270
ag248
ag38
ag264
ag241
ag258
ag269
ag235
ag237
ag105
ag277
ag240
ag243
ag238
ag244
ag72
ag274
ag93
ag252
asg55
g452
sg56
g280
sg58
g123
sg60
g83
sg61
(iread_data
Room
p1245
(dp1246
g55
g86
sg56
g87
sbsbaa(lp1247
(ischedule
Activity
p1248
(dp1249
g8
(lp1250
g17
ag268
ag214
asg55
g858
sg56
g317
sg58
g82
sg60
g338
sg61
(iread_data
Room
p1251
(dp1252
g55
g228
sg56
g229
sbsba(ischedule
Activity
p1253
(dp1254
g8
(lp1255
g765
ag97
ag693
ag103
ag101
ag246
ag766
ag760
ag180
ag109
ag763
ag107
ag552
ag106
ag92
ag761
ag108
ag99
ag100
ag93
ag98
ag16
ag692
ag617
ag104
ag482
ag105
ag94
ag425
ag241
ag96
ag762
ag433
ag102
ag19
ag91
ag95
ag764
ag711
asg55
I1000
sg56
g111
sg58
g59
sg60
I0
sg61
(iread_data
Room
p1256
(dp1257
g55
g209
sg56
g210
sbsba(ischedule
Activity
p1258
(dp1259
g8
g754
sg55
I1000
sg56
g81
sg58
g59
sg60
I0
sg61
(iread_data
Room
p1260
(dp1261
g55
g165
sg56
g166
sbsba(ischedule
Activity
p1262
(dp1263
g8
(lp1264
g516
ag155
ag36
ag492
ag151
ag468
ag478
ag530
ag717
ag595
ag720
ag719
ag706
ag722
ag217
ag147
ag362
ag305
ag602
ag716
ag153
ag713
ag43
ag709
ag715
ag26
ag610
ag714
ag718
ag411
ag136
ag708
ag295
ag472
ag723
ag44
ag286
ag394
ag710
ag622
asg55
g577
sg56
g578
sg58
g82
sg60
g112
sg61
(iread_data
Room
p1265
(dp1266
g55
g64
sg56
g65
sbsba(ischedule
Activity
p1267
(dp1268
g8
(lp1269
g41
ag25
ag53
ag34
ag20
ag28
ag38
ag27
asg55
g1052
sg56
g57
sg58
g123
sg60
g112
sg61
(iread_data
Room
p1270
(dp1271
g55
g115
sg56
g116
sbsba(ischedule
Activity
p1272
(dp1273
g8
(lp1274
g49
ag51
ag30
ag52
ag35
asg55
g1052
sg56
g57
sg58
g123
sg60
g83
sg61
(iread_data
Room
p1275
(dp1276
g55
g126
sg56
g127
sbsba(ischedule
Activity
p1277
(dp1278
g8
(lp1279
g741
ag626
ag558
ag392
aS'44151631'
p1280
aS'64418623'
p1281
ag331
ag868
ag811
ag40
aS'47260040'
p1282
aS'23215240'
p1283
ag903
ag33
aS'1695839'
p1284
ag424
ag334
aS'51472074'
p1285
asg55
g844
sg56
g845
sg58
g123
sg60
g83
sg61
(iread_data
Room
p1286
(dp1287
g55
g86
sg56
g87
sbsbaa(lp1288
(ischedule
Activity
p1289
(dp1290
g8
(lp1291
g189
ag38
ag10
ag24
ag51
ag146
ag590
aS'40911986'
p1292
aS'21070547'
p1293
ag425
ag864
ag275
aS'63939720'
p1294
ag346
ag399
ag187
ag150
ag203
aS'81116418'
p1295
ag405
aS'19662602'
p1296
ag133
ag596
aS'90103047'
p1297
ag477
asg55
g677
sg56
g678
sg58
g123
sg60
g112
sg61
(iread_data
Room
p1298
(dp1299
g55
g165
sg56
g166
sbsba(ischedule
Activity
p1300
(dp1301
g8
(lp1302
g214
ag630
ag480
ag254
ag1007
ag350
ag397
ag37
ag1009
ag1008
ag950
ag709
ag269
ag305
asg55
g667
sg56
g668
sg58
g82
sg60
g112
sg61
(iread_data
Room
p1303
(dp1304
g55
g115
sg56
g116
sbsba(ischedule
Activity
p1305
(dp1306
g8
(lp1307
g28
ag389
ag13
ag276
ag516
ag33
ag396
ag566
ag26
ag868
ag995
ag96
ag541
ag660
ag999
ag358
ag994
ag793
ag362
ag481
ag414
ag409
ag257
ag174
ag993
ag615
ag996
ag221
ag805
ag469
ag76
asg55
g1139
sg56
g1001
sg58
g82
sg60
g83
sg61
(iread_data
Room
p1308
(dp1309
g55
g86
sg56
g87
sbsba(ischedule
Activity
p1310
(dp1311
g8
(lp1312
g625
ag717
ag390
ag801
ag402
ag151
ag253
ag811
ag234
ag1283
ag277
ag807
ag143
ag242
ag506
ag366
ag514
asg55
g1070
sg56
g1071
sg58
g123
sg60
S'6'
p1313
sg61
(iread_data
Room
p1314
(dp1315
g55
g209
sg56
g210
sbsba(ischedule
Activity
p1316
(dp1317
g8
g822
sg55
I1000
sg56
g748
sg58
g59
sg60
I0
sg61
(iread_data
Room
p1318
(dp1319
g55
g64
sg56
g65
sbsba(ischedule
Activity
p1320
(dp1321
g8
g1255
sg55
I1000
sg56
g111
sg58
g59
sg60
I0
sg61
(iread_data
Room
p1322
(dp1323
g55
g126
sg56
g127
sbsba(ischedule
Activity
p1324
(dp1325
g8
(lp1326
g20
ag365
ag501
ag504
asg55
g224
sg56
g225
sg58
g123
sg60
g112
sg61
(iread_data
Room
p1327
(dp1328
g55
g228
sg56
g229
sbsbaaa(lp1329
(lp1330
a(lp1331
a(lp1332
a(lp1333
a(lp1334
aasS'timeslot_dict'
p1335
(dp1336
I0
S'9:00-11:00'
p1337
sI1
S'11:00-13:00'
p1338
sI2
S'13:00-15:00'
p1339
sI3
S'15:00-17:00'
p1340
sI4
S'17:00-19:00'
p1341
ssS'day_dict'
p1342
(dp1343
I0
S'Monday'
p1344
sI1
S'Tuesday'
p1345
sI2
S'Wednesday'
p1346
sI3
S'Thursday'
p1347
sI4
S'Friday'
p1348
ssb.