(ischedule
Schedule
p0
(dp1
S'timetable'
p2
(lp3
(lp4
(lp5
(ischedule
Activity
p6
(dp7
S'participants'
p8
(lp9
S'27187154'
p10
aS'97019450'
p11
aS'58469172'
p12
aS'94955328'
p13
aS'91196968'
p14
aS'8522855'
p15
aS'28957789'
p16
aS'79858178'
p17
aS'41527759'
p18
aS'69086548'
p19
aS'65003379'
p20
aS'17823206'
p21
aS'78136904'
p22
aS'39230359'
p23
aS'72547110'
p24
aS'89338938'
p25
aS'84524083'
p26
aS'23798155'
p27
aS'84110134'
p28
aS'44940353'
p29
aS'38329455'
p30
aS'10872825'
p31
aS'58332004'
p32
aS'58522654'
p33
aS'59075181'
p34
aS'63408522'
p35
aS'14671406'
p36
aS'20331158'
p37
aS'39919665'
p38
aS'94467156'
p39
aS'77636749'
p40
aS'37498675'
p41
aS'78735049'
p42
aS'64296965'
p43
aS'34243356'
p44
aS'39659121'
p45
aS'46570285'
p46
aS'32705005'
p47
aS'55474917'
p48
aS'10792879'
p49
aS'54569540'
p50
aS'76924297'
p51
aS'3685034'
p52
aS'99272880'
p53
aS'18266644'
p54
aS'81218347'
p55
aS'41585485'
p56
aS'96054456'
p57
aS'51186803'
p58
aS'20883994'
p59
aS'79366078'
p60
aS'14398123'
p61
aS'74182182'
p62
aS'7492204'
p63
aS'20239127'
p64
aS'38499176'
p65
aS'47605891'
p66
aS'23391676'
p67
aS'54310617'
p68
aS'5615125'
p69
aS'34262212'
p70
aS'56749879'
p71
aS'77240949'
p72
aS'14591033'
p73
aS'31633723'
p74
aS'91139627'
p75
aS'61518436'
p76
aS'36903574'
p77
aS'11915563'
p78
aS'31247305'
p79
aS'59544049'
p80
aS'22731474'
p81
aS'24875739'
p82
aS'51542218'
p83
aS'63634350'
p84
aS'5368702'
p85
aS'97371272'
p86
aS'56988998'
p87
aS'63955238'
p88
aS'82688900'
p89
aS'47462856'
p90
aS'49631542'
p91
aS'42115591'
p92
aS'9731271'
p93
asS'capacity'
p94
I1000
sS'name'
p95
S'Kansrekenen 2'
p96
sS'ttype'
p97
S'lectures'
p98
sS'group_id'
p99
I0
sS'room'
p100
(iread_data
Room
p101
(dp102
g94
S'117'
p103
sg95
S'C0.110'
p104
sbsba(ischedule
Activity
p105
(dp106
g8
(lp107
S'12077419'
p108
aS'86988337'
p109
aS'11741347'
p110
aS'14309255'
p111
aS'81385263'
p112
aS'13911001'
p113
aS'53202517'
p114
aS'68315599'
p115
aS'30658799'
p116
aS'1766560'
p117
aS'83266686'
p118
aS'72895450'
p119
aS'92665222'
p120
aS'95007221'
p121
aS'98105190'
p122
aS'2317551'
p123
aS'8464817'
p124
aS'94687383'
p125
aS'34872117'
p126
aS'44391517'
p127
aS'13284244'
p128
aS'48503689'
p129
aS'95631564'
p130
aS'31194811'
p131
aS'76661016'
p132
aS'75599734'
p133
aS'54772132'
p134
aS'88636924'
p135
aS'73236988'
p136
aS'34110913'
p137
aS'65852230'
p138
aS'79167252'
p139
aS'15911353'
p140
aS'2079771'
p141
aS'7957843'
p142
aS'76802764'
p143
aS'3407554'
p144
aS'5595824'
p145
aS'65960683'
p146
asg94
S'40'
p147
sg95
S'Compilerbouw'
p148
sg97
S'tutorials'
p149
sg99
S'1'
p150
sg100
(iread_data
Room
p151
(dp152
g94
S'60'
p153
sg95
S'C1.112'
p154
sbsba(ischedule
Activity
p155
(dp156
g8
(lp157
S'4921119'
p158
aS'29640619'
p159
aS'56872729'
p160
aS'75005528'
p161
aS'670011'
p162
aS'23658570'
p163
aS'42196732'
p164
aS'94686490'
p165
aS'11996292'
p166
aS'40434933'
p167
aS'26406342'
p168
aS'23257088'
p169
aS'90474003'
p170
aS'46989508'
p171
aS'59397895'
p172
aS'77896638'
p173
aS'57467488'
p174
aS'247918'
p175
aS'24277163'
p176
aS'70072978'
p177
aS'56121590'
p178
aS'3168419'
p179
aS'27123462'
p180
aS'4529208'
p181
aS'43027916'
p182
aS'17222374'
p183
aS'29526540'
p184
aS'12091019'
p185
aS'26207525'
p186
aS'5085194'
p187
aS'72456780'
p188
aS'88752563'
p189
aS'14816774'
p190
aS'40141996'
p191
aS'86180471'
p192
aS'17092717'
p193
aS'13132925'
p194
aS'76123484'
p195
aS'91527663'
p196
aS'54540997'
p197
asg94
S'40'
p198
sg95
S'Databases 2'
p199
sg97
g149
sg99
S'2'
p200
sg100
(iread_data
Room
p201
(dp202
g94
S'48'
p203
sg95
S'B0.201'
p204
sbsba(ischedule
Activity
p205
(dp206
g8
(lp207
S'42778953'
p208
aS'82689818'
p209
aS'46052388'
p210
aS'97135019'
p211
aS'96104167'
p212
aS'15902055'
p213
aS'3233378'
p214
aS'17575088'
p215
aS'62701040'
p216
aS'33760909'
p217
aS'1696500'
p218
aS'48601268'
p219
aS'73980360'
p220
asg94
S'20'
p221
sg95
S'Collectieve Intelligentie'
p222
sg97
g149
sg99
S'4'
p223
sg100
(iread_data
Room
p224
(dp225
g94
S'20'
p226
sg95
S'A1.08'
p227
sbsba(ischedule
Activity
p228
(dp229
g8
(lp230
S'64418623'
p231
aS'72665524'
p232
aS'14138904'
p233
aS'1665980'
p234
aS'53585410'
p235
aS'44151631'
p236
aS'71839156'
p237
aS'89985072'
p238
aS'14303208'
p239
aS'23215240'
p240
aS'55103073'
p241
aS'42297781'
p242
aS'88596522'
p243
aS'57595888'
p244
aS'11459236'
p245
aS'32204977'
p246
asg94
S'15'
p247
sg95
S'Compilerbouw practicum'
p248
sg97
S'labs'
p249
sg99
g150
sg100
(iread_data
Room
p250
(dp251
g94
S'22'
p252
sg95
S'A1.06'
p253
sbsba(ischedule
Activity
p254
(dp255
g8
(lp256
S'27298319'
p257
aS'70113753'
p258
aS'36508571'
p259
aS'39459642'
p260
aS'22871048'
p261
aS'61611295'
p262
aS'19858730'
p263
aS'72796858'
p264
aS'62872965'
p265
aS'5517869'
p266
aS'54026378'
p267
aS'74131924'
p268
aS'62356458'
p269
aS'44901052'
p270
aS'88627897'
p271
aS'51566595'
p272
aS'68409833'
p273
ag78
aS'52552718'
p274
aS'34806836'
p275
aS'16097870'
p276
aS'37110913'
p277
asg94
I1000
sg95
S'Autonomous Agents 2'
p278
sg97
g98
sg99
I0
sg100
(iread_data
Room
p279
(dp280
g94
S'41'
p281
sg95
S'A1.04'
p282
sbsba(ischedule
Activity
p283
(dp284
g8
(lp285
S'77831658'
p286
asg94
S'15'
p287
sg95
S'Project Numerical Recipes'
p288
sg97
g249
sg99
S'3'
p289
sg100
(iread_data
Room
p290
(dp291
g94
S'56'
p292
sg95
S'A1.10'
p293
sbsbaa(lp294
(ischedule
Activity
p295
(dp296
g8
(lp297
S'61520025'
p298
aS'56544130'
p299
aS'19717077'
p300
ag118
aS'55530367'
p301
aS'81155296'
p302
aS'83415514'
p303
aS'11593163'
p304
aS'31306819'
p305
aS'78443067'
p306
aS'58253841'
p307
aS'77306636'
p308
aS'80188025'
p309
ag235
ag57
ag93
ag163
ag217
aS'47932106'
p310
ag46
ag73
ag69
aS'37279234'
p311
ag189
aS'6939933'
p312
ag160
aS'6913074'
p313
aS'33672995'
p314
aS'44868097'
p315
ag191
aS'27925117'
p316
aS'34173695'
p317
aS'23565001'
p318
aS'26260141'
p319
aS'22168693'
p320
aS'47477884'
p321
aS'58699305'
p322
aS'75446434'
p323
ag16
ag47
aS'64600457'
p324
aS'82412626'
p325
ag82
aS'75585647'
p326
aS'59220392'
p327
ag10
aS'88855695'
p328
ag132
aS'58040377'
p329
aS'4546613'
p330
aS'4783858'
p331
ag49
aS'23628642'
p332
aS'48357272'
p333
aS'72526473'
p334
aS'75997788'
p335
aS'14179347'
p336
aS'62105897'
p337
aS'6709529'
p338
ag139
aS'45915482'
p339
aS'62363761'
p340
aS'58592894'
p341
aS'21029457'
p342
aS'70939718'
p343
aS'56348773'
p344
ag232
aS'86000192'
p345
aS'51741554'
p346
ag12
aS'79888156'
p347
ag42
aS'53139134'
p348
aS'64228258'
p349
aS'86807027'
p350
ag62
aS'38296757'
p351
aS'75623387'
p352
aS'46701583'
p353
ag165
ag257
aS'38179241'
p354
ag84
aS'87900893'
p355
aS'93361408'
p356
aS'27064249'
p357
ag185
ag190
aS'85335143'
p358
ag211
ag239
aS'65408517'
p359
ag192
aS'79617364'
p360
aS'73302736'
p361
aS'65978354'
p362
aS'10149535'
p363
aS'6723948'
p364
aS'55412918'
p365
ag276
aS'10609762'
p366
aS'87602030'
p367
aS'3678531'
p368
aS'78544592'
p369
aS'73823548'
p370
ag213
asg94
I1000
sg95
S'Calculus 2'
p371
sg97
g98
sg99
I0
sg100
(iread_data
Room
p372
(dp373
g94
g103
sg95
g104
sbsba(ischedule
Activity
p374
(dp375
g8
(lp376
g37
aS'45556081'
p377
ag126
aS'58866007'
p378
aS'72577292'
p379
aS'72683344'
p380
ag209
aS'13798030'
p381
aS'59289233'
p382
ag27
ag167
ag233
aS'43460038'
p383
aS'29718115'
p384
ag363
ag118
aS'28618400'
p385
aS'70015932'
p386
aS'89180944'
p387
aS'49683101'
p388
ag316
asg94
I1000
sg95
S'Architectuur en computerorganisatie'
p389
sg97
g98
sg99
I0
sg100
(iread_data
Room
p390
(dp391
g94
g153
sg95
g154
sbsba(ischedule
Activity
p392
(dp393
g8
(lp394
g112
aS'5976174'
p395
ag108
ag119
ag109
ag18
ag77
aS'67817269'
p396
aS'96453361'
p397
ag15
aS'77376714'
p398
ag56
aS'19540225'
p399
aS'44828429'
p400
aS'21095566'
p401
ag22
aS'3707829'
p402
aS'43902015'
p403
aS'3474870'
p404
ag234
ag243
aS'34765676'
p405
aS'52715680'
p406
aS'66433883'
p407
ag196
aS'40343779'
p408
aS'64947290'
p409
asg94
S'25'
p410
sg95
S'Algoritmen en complexiteit'
p411
sg97
g249
sg99
g150
sg100
(iread_data
Room
p412
(dp413
g94
g203
sg95
g204
sbsba(ischedule
Activity
p414
(dp415
g8
(lp416
g246
aS'70878567'
p417
aS'13116738'
p418
ag32
aS'13658563'
p419
asg94
S'15'
p420
sg95
S'Informatie- en organsatieontwerp'
p421
sg97
g249
sg99
g150
sg100
(iread_data
Room
p422
(dp423
g94
g252
sg95
g253
sbsba(ischedule
Activity
p424
(dp425
g8
(lp426
g272
ag277
ag267
ag271
ag260
ag266
ag261
ag78
ag269
ag264
asg94
S'10'
p427
sg95
g278
sg97
g249
sg99
g200
sg100
(iread_data
Room
p428
(dp429
g94
g226
sg95
g227
sbsba(ischedule
Activity
p430
(dp431
g8
(lp432
S'29474737'
p433
aS'50143947'
p434
aS'60312776'
p435
ag43
aS'31416266'
p436
aS'53107172'
p437
aS'61443567'
p438
ag164
aS'28357474'
p439
aS'75521763'
p440
ag68
aS'13092455'
p441
aS'21964491'
p442
aS'50184318'
p443
ag244
asg94
S'20'
p444
sg95
g222
sg97
g249
sg99
g150
sg100
(iread_data
Room
p445
(dp446
g94
g292
sg95
g293
sbsbaa(lp447
(ischedule
Activity
p448
(dp449
g8
(lp450
g313
ag62
ag306
ag349
ag354
ag300
ag326
ag335
ag351
ag356
ag308
ag330
ag163
ag345
ag339
ag303
ag355
ag217
ag321
ag84
ag47
ag211
ag362
ag160
ag328
ag317
ag367
ag298
ag347
ag369
ag346
ag93
ag12
ag329
ag337
asg94
S'40'
p451
sg95
g371
sg97
g149
sg99
g289
sg100
(iread_data
Room
p452
(dp453
g94
g203
sg95
g204
sbsba(ischedule
Activity
p454
(dp455
g8
(lp456
S'4697362'
p457
aS'9332762'
p458
aS'22323043'
p459
aS'43680781'
p460
ag363
ag246
aS'12430748'
p461
aS'36785409'
p462
aS'93041523'
p463
ag40
aS'76487754'
p464
ag166
aS'6249823'
p465
aS'23547619'
p466
ag131
ag86
ag167
aS'58565406'
p467
aS'92496780'
p468
ag277
aS'14383795'
p469
aS'70336464'
p470
ag115
aS'75664412'
p471
ag270
aS'7106649'
p472
ag108
aS'47982619'
p473
ag19
aS'41578612'
p474
ag168
aS'48308205'
p475
ag440
aS'21192048'
p476
ag25
aS'77264363'
p477
ag358
ag111
asg94
I1000
sg95
S'Technology for games'
p478
sg97
g98
sg99
I0
sg100
(iread_data
Room
p479
(dp480
g94
g281
sg95
g282
sbsba(ischedule
Activity
p481
(dp482
g8
(lp483
g406
ag213
aS'23983476'
p484
aS'23652927'
p485
ag209
ag234
ag408
ag405
ag398
ag403
ag196
ag400
ag395
ag442
aS'51509565'
p486
ag18
ag15
ag404
ag397
asg94
S'25'
p487
sg95
g411
sg97
g149
sg99
g200
sg100
(iread_data
Room
p488
(dp489
g94
g226
sg95
g227
sbsba(ischedule
Activity
p490
(dp491
g8
(lp492
g190
aS'5298748'
p493
ag184
ag136
aS'33930505'
p494
aS'81200278'
p495
ag33
aS'22826928'
p496
aS'24613625'
p497
ag59
ag268
ag342
ag71
aS'7308727'
p498
ag81
ag417
ag286
asg94
S'20'
p499
sg95
S'Bioinformatica'
p500
sg97
g249
sg99
g200
sg100
(iread_data
Room
p501
(dp502
g94
g252
sg95
g253
sbsba(ischedule
Activity
p503
(dp504
g8
(lp505
g443
ag266
ag183
aS'42171678'
p506
ag117
ag176
aS'66621166'
p507
aS'36748818'
p508
aS'96082155'
p509
aS'51650744'
p510
aS'59111489'
p511
ag460
aS'49219163'
p512
ag440
ag116
ag46
asg94
S'20'
p513
sg95
S'Moderne Databases'
p514
sg97
g149
sg99
g150
sg100
(iread_data
Room
p515
(dp516
g94
g103
sg95
g104
sbsba(ischedule
Activity
p517
(dp518
g8
(lp519
g77
ag409
ag174
ag112
aS'64554442'
p520
ag401
ag56
ag243
ag353
ag407
ag434
ag402
ag109
ag272
ag119
ag341
ag319
ag399
ag396
ag235
ag36
ag108
ag22
ag257
asg94
g487
sg95
g411
sg97
g149
sg99
g150
sg100
(iread_data
Room
p521
(dp522
g94
g292
sg95
g293
sbsba(ischedule
Activity
p523
(dp524
g8
(lp525
g13
ag158
ag14
aS'33776961'
p526
aS'7386961'
p527
aS'51593625'
p528
aS'44671041'
p529
aS'20830477'
p530
aS'79879876'
p531
aS'93566383'
p532
ag65
ag438
aS'12782624'
p533
aS'10698627'
p534
ag240
asg94
S'20'
p535
sg95
S'Programmeren in Java 2'
p536
sg97
g249
sg99
S'5'
p537
sg100
(iread_data
Room
p538
(dp539
g94
g153
sg95
g154
sbsbaa(lp540
(ischedule
Activity
p541
(dp542
g8
(lp543
g59
ag360
ag238
ag190
aS'88176729'
p544
ag358
ag136
aS'33877725'
p545
ag57
aS'30050930'
p546
aS'30195935'
p547
ag267
aS'15051051'
p548
ag268
ag313
aS'11068043'
p549
ag33
ag342
ag286
aS'56815156'
p550
ag417
ag71
ag460
ag114
ag324
ag364
ag315
ag496
ag80
aS'28359697'
p551
aS'66120270'
p552
ag493
ag497
ag495
ag184
ag494
ag73
ag81
ag175
ag498
ag179
ag397
ag442
aS'4568018'
p553
ag164
asg94
I1000
sg95
g500
sg97
g98
sg99
I0
sg100
(iread_data
Room
p554
(dp555
g94
g103
sg95
g104
sbsba(ischedule
Activity
p556
(dp557
g8
(lp558
g119
ag435
ag85
aS'86291592'
p559
ag49
ag260
ag10
ag26
ag264
ag78
ag127
ag124
ag146
aS'80135353'
p560
ag128
ag143
ag108
ag33
ag109
ag125
aS'43689934'
p561
aS'79033175'
p562
ag129
ag133
ag139
aS'66701209'
p563
ag141
ag44
ag113
ag145
ag126
ag144
ag111
ag388
ag328
aS'9067939'
p564
ag123
ag122
ag140
ag173
ag121
ag171
ag131
ag117
ag189
ag120
aS'75759231'
p565
ag116
ag135
ag118
ag471
ag130
ag132
asg94
S'40'
p566
sg95
g148
sg97
g249
sg99
g200
sg100
(iread_data
Room
p567
(dp568
g94
g292
sg95
g293
sbsba(ischedule
Activity
p569
(dp570
g8
(lp571
g436
aS'37399898'
p572
ag160
ag55
aS'35330349'
p573
ag62
ag208
aS'61060652'
p574
ag276
ag532
ag237
aS'90743504'
p575
ag112
aS'83210352'
p576
ag360
aS'16333449'
p577
ag44
ag474
aS'80709893'
p578
aS'96118484'
p579
aS'16011419'
p580
ag48
ag164
ag273
ag92
ag318
ag158
ag65
ag162
ag14
ag378
ag165
ag73
ag265
ag404
aS'87758823'
p581
aS'36527838'
p582
ag363
aS'52311353'
p583
aS'80998260'
p584
ag161
aS'54074680'
p585
ag475
ag266
aS'26172512'
p586
aS'32595335'
p587
aS'34588570'
p588
aS'79937969'
p589
ag365
ag259
aS'21311067'
p590
ag173
aS'66570705'
p591
ag13
asg94
I1000
sg95
S'Lineaire Algebra'
p592
sg97
g98
sg99
I0
sg100
(iread_data
Room
p593
(dp594
g94
g153
sg95
g154
sbsba(ischedule
Activity
p595
(dp596
g8
(lp597
S'87314964'
p598
ag355
aS'13996448'
p599
asg94
S'10'
p600
sg95
S'Data Mining'
p601
sg97
g249
sg99
g200
sg100
(iread_data
Room
p602
(dp603
g94
g203
sg95
g204
sbsba(ischedule
Activity
p604
(dp605
g8
(lp606
S'8557857'
p607
ag484
aS'17496687'
p608
ag270
aS'19958553'
p609
ag418
ag440
ag54
aS'92977271'
p610
ag246
ag245
ag169
ag216
ag384
ag115
ag417
ag508
ag326
ag32
ag40
ag419
asg94
I1000
sg95
g421
sg97
g98
sg99
I0
sg100
(iread_data
Room
p611
(dp612
g94
g252
sg95
g253
sbsba(ischedule
Activity
p613
(dp614
g8
(lp615
g434
aS'68360259'
p616
aS'25330192'
p617
ag459
aS'97136582'
p618
ag21
ag272
aS'37744525'
p619
aS'81022997'
p620
aS'66122625'
p621
asg94
g600
sg95
g601
sg97
g249
sg99
g150
sg100
(iread_data
Room
p622
(dp623
g94
g281
sg95
g282
sbsbaa(lp624
(ischedule
Activity
p625
(dp626
g8
(lp627
g177
ag266
ag358
ag32
ag509
aS'63111000'
p628
asg94
S'20'
p629
sg95
g514
sg97
g249
sg99
g150
sg100
(iread_data
Room
p630
(dp631
g94
g226
sg95
g227
sbsba(ischedule
Activity
p632
(dp633
g8
(lp634
g346
ag498
aS'12170832'
p635
ag77
ag54
aS'4353500'
p636
aS'535689'
p637
ag93
ag232
aS'56191333'
p638
aS'1048485'
p639
aS'64246605'
p640
ag211
aS'123355'
p641
aS'16912993'
p642
ag552
aS'53267490'
p643
aS'25557516'
p644
ag343
ag65
ag270
ag15
ag188
aS'82872148'
p645
aS'85284256'
p646
aS'21677389'
p647
ag494
aS'70844780'
p648
ag547
ag620
asg94
S'20'
p649
sg95
S'Netwerken en systeembeveiliging'
p650
sg97
g249
sg99
g200
sg100
(iread_data
Room
p651
(dp652
g94
g292
sg95
g293
sbsba(ischedule
Activity
p653
(dp654
g8
(lp655
g277
ag261
ag267
ag265
ag262
asg94
S'10'
p656
sg95
g278
sg97
g149
sg99
g200
sg100
(iread_data
Room
p657
(dp658
g94
g252
sg95
g253
sbsba(ischedule
Activity
p659
(dp660
g8
(lp661
g471
ag119
ag49
ag564
ag78
ag120
ag108
ag124
ag260
ag264
ag133
ag561
ag173
ag145
aS'37770881'
p662
ag388
ag475
ag121
ag109
ag189
ag128
ag435
ag364
ag127
ag110
ag115
ag143
ag114
ag328
ag135
ag560
ag137
ag138
ag497
ag111
ag33
ag565
ag208
ag129
ag563
ag112
ag125
ag123
ag116
ag142
ag139
ag44
aS'40791377'
p663
ag131
ag146
ag26
ag136
ag144
ag141
ag171
ag132
ag559
aS'27950803'
p664
ag113
ag118
ag562
ag130
ag122
ag117
ag134
ag140
ag10
ag85
ag126
asg94
I1000
sg95
g148
sg97
g98
sg99
I0
sg100
(iread_data
Room
p665
(dp666
g94
g103
sg95
g104
sbsba(ischedule
Activity
p667
(dp668
g8
(lp669
g257
ag235
ag213
ag353
ag319
ag209
ag442
ag341
ag272
ag434
ag520
ag486
ag485
ag174
ag484
ag36
asg94
g410
sg95
g411
sg97
g249
sg99
g200
sg100
(iread_data
Room
p670
(dp671
g94
g153
sg95
g154
sbsba(ischedule
Activity
p672
(dp673
g8
(lp674
g598
aS'45414528'
p675
asg94
S'10'
p676
sg95
g601
sg97
g149
sg99
g289
sg100
(iread_data
Room
p677
(dp678
g94
g203
sg95
g204
sbsba(ischedule
Activity
p679
(dp680
g8
(lp681
g583
ag387
ag395
ag619
ag545
ag333
ag159
ag39
ag331
ag459
aS'65318664'
p682
ag274
ag467
ag383
ag79
ag219
ag359
ag330
ag273
aS'14072826'
p683
ag529
ag406
aS'99283252'
p684
ag238
ag544
aS'25106480'
p685
ag408
asg94
S'40'
p686
sg95
S'Software engineering'
p687
sg97
g249
sg99
g200
sg100
(iread_data
Room
p688
(dp689
g94
g281
sg95
g282
sbsbaaa(lp690
(lp691
(ischedule
Activity
p692
(dp693
g8
(lp694
g37
ag636
aS'58736785'
p695
ag122
ag621
ag506
ag335
ag440
ag34
aS'83443653'
p696
ag218
ag71
aS'97417002'
p697
ag553
ag610
ag190
aS'45660925'
p698
aS'76393508'
p699
ag263
ag459
ag531
ag166
ag55
ag261
ag419
ag11
ag350
ag574
aS'31897288'
p700
ag237
ag437
ag333
ag174
aS'94930277'
p701
ag77
aS'53775014'
p702
ag530
aS'87210640'
p703
aS'14941752'
p704
ag277
ag233
ag73
ag331
ag270
asg94
I1000
sg95
S'Heuristieken 1'
p705
sg97
g98
sg99
I0
sg100
(iread_data
Room
p706
(dp707
g94
g153
sg95
g154
sbsba(ischedule
Activity
p708
(dp709
g8
(lp710
S'20374340'
p711
ag532
ag85
ag112
ag330
ag400
ag405
ag51
aS'14847953'
p712
aS'28055464'
p713
ag302
aS'64768422'
p714
aS'69634191'
p715
ag466
ag132
aS'65675896'
p716
aS'66034145'
p717
aS'37701751'
p718
ag572
aS'2550487'
p719
ag402
aS'19214659'
p720
ag647
ag354
ag495
asg94
I1000
sg95
S'Interactie-ontwerp'
p721
sg97
g98
sg99
I0
sg100
(iread_data
Room
p722
(dp723
g94
g281
sg95
g282
sbsba(ischedule
Activity
p724
(dp725
g8
g543
sg94
I1000
sg95
g500
sg97
g98
sg99
I0
sg100
(iread_data
Room
p726
(dp727
g94
g292
sg95
g293
sbsba(ischedule
Activity
p728
(dp729
g8
g606
sg94
I1000
sg95
g421
sg97
g98
sg99
I0
sg100
(iread_data
Room
p730
(dp731
g94
g203
sg95
g204
sbsba(ischedule
Activity
p732
(dp733
g8
(lp734
S'67625383'
p735
ag52
ag353
ag395
ag87
ag72
ag628
aS'90067329'
p736
ag663
ag619
ag548
ag351
ag27
aS'33252501'
p737
ag39
ag260
ag141
ag76
ag388
aS'26857113'
p738
aS'85236626'
p739
ag10
asg94
I1000
sg95
S'Machine Learning'
p740
sg97
g98
sg99
I0
sg100
(iread_data
Room
p741
(dp742
g94
g103
sg95
g104
sbsba(ischedule
Activity
p743
(dp744
g8
(lp745
g195
ag193
ag403
ag167
aS'78243495'
p746
aS'22288615'
p747
aS'77392404'
p748
aS'24891081'
p749
aS'2416751'
p750
aS'57086672'
p751
aS'69459473'
p752
ag69
aS'53512831'
p753
ag387
aS'76648468'
p754
ag239
asg94
S'20'
p755
sg95
S'Webprogrammeren en databases'
p756
sg97
g249
sg99
g150
sg100
(iread_data
Room
p757
(dp758
g94
g226
sg95
g227
sbsba(ischedule
Activity
p759
(dp760
g8
(lp761
g232
ag352
ag276
ag235
ag257
ag305
ag309
ag307
ag368
ag46
ag363
ag118
ag191
ag311
ag343
ag320
ag82
ag16
ag357
ag318
asg94
g451
sg95
g371
sg97
g149
sg99
g200
sg100
(iread_data
Room
p762
(dp763
g94
g252
sg95
g253
sbsbaa(lp764
(ischedule
Activity
p765
(dp766
g8
(lp767
g379
ag466
ag346
ag213
ag662
ag266
ag345
aS'64393888'
p768
aS'1075391'
p769
ag211
ag685
ag218
aS'34773179'
p770
ag215
aS'22699561'
p771
aS'13534377'
p772
ag176
ag581
asg94
g444
sg95
g222
sg97
g249
sg99
g289
sg100
(iread_data
Room
p773
(dp774
g94
g203
sg95
g204
sbsba(ischedule
Activity
p775
(dp776
g8
(lp777
g384
ag326
ag440
ag245
ag216
ag508
ag169
ag54
ag610
ag607
ag115
ag609
ag608
ag484
ag40
ag270
asg94
g420
sg95
g421
sg97
g249
sg99
g200
sg100
(iread_data
Room
p778
(dp779
g94
g153
sg95
g154
sbsba(ischedule
Activity
p780
(dp781
g8
(lp782
g746
ag272
ag620
ag438
ag26
ag751
ag695
ag700
ag395
aS'48678993'
p783
ag162
aS'52304977'
p784
aS'82968410'
p785
ag316
aS'35315956'
p786
ag472
aS'1886996'
p787
aS'5739011'
p788
ag739
ag405
ag217
ag276
aS'99975346'
p789
aS'72652638'
p790
asg94
S'20'
p791
sg95
S'Heuristieken 2'
p792
sg97
g149
sg99
g200
sg100
(iread_data
Room
p793
(dp794
g94
g103
sg95
g104
sbsba(ischedule
Activity
p795
(dp796
g8
g543
sg94
I1000
sg95
g500
sg97
g98
sg99
I0
sg100
(iread_data
Room
p797
(dp798
g94
g292
sg95
g293
sbsba(ischedule
Activity
p799
(dp800
g8
(lp801
g748
ag159
ag112
aS'72586808'
p802
ag471
ag44
ag385
aS'63573738'
p803
aS'3883025'
p804
ag79
ag134
ag34
ag209
ag142
ag61
aS'87830198'
p805
ag408
ag619
aS'60352393'
p806
ag174
aS'5590289'
p807
aS'4709948'
p808
asg94
g649
sg95
g650
sg97
g249
sg99
g289
sg100
(iread_data
Room
p809
(dp810
g94
g252
sg95
g253
sbsba(ischedule
Activity
p811
(dp812
g8
(lp813
g146
ag168
ag208
ag210
ag220
ag573
asg94
g444
sg95
g222
sg97
g249
sg99
g223
sg100
(iread_data
Room
p814
(dp815
g94
g226
sg95
g227
sbsbaa(lp816
(ischedule
Activity
p817
(dp818
g8
(lp819
g220
ag219
ag434
ag436
ag345
ag214
ag213
ag458
ag349
ag173
ag146
ag331
ag168
ag442
ag772
ag68
ag506
ag218
ag217
ag433
ag581
ag435
ag379
ag770
ag437
ag208
ag212
ag443
ag498
ag438
ag209
ag195
ag211
ag176
ag771
ag440
ag768
ag346
ag164
ag266
aS'68601184'
p820
ag33
ag662
ag559
ag439
ag216
ag43
ag159
ag377
ag685
ag466
ag210
ag183
ag441
ag573
ag72
ag182
ag215
ag769
ag244
ag234
asg94
I1000
sg95
g222
sg97
g98
sg99
I0
sg100
(iread_data
Room
p821
(dp822
g94
g103
sg95
g104
sbsba(ischedule
Activity
p823
(dp824
g8
(lp825
g268
ag324
ag460
ag190
ag184
ag493
ag544
ag136
ag81
ag179
ag547
ag80
ag496
ag494
ag495
ag73
ag553
ag417
ag551
ag238
ag360
ag546
ag497
ag114
ag59
ag358
ag397
ag552
ag71
ag550
ag57
ag315
ag286
ag175
ag267
asg94
S'20'
p826
sg95
g500
sg97
g149
sg99
g289
sg100
(iread_data
Room
p827
(dp828
g94
g203
sg95
g204
sbsba(ischedule
Activity
p829
(dp830
g8
(lp831
g189
ag28
ag117
ag161
ag370
ag119
ag128
ag312
aS'32183908'
p832
ag25
ag475
aS'34691309'
p833
aS'32044893'
p834
ag803
ag720
aS'21070547'
p835
aS'90103047'
p836
ag350
ag620
ag385
asg94
g287
sg95
g288
sg97
g249
sg99
g150
sg100
(iread_data
Room
p837
(dp838
g94
g153
sg95
g154
sbsba(ischedule
Activity
p839
(dp840
g8
(lp841
g132
ag273
ag307
ag563
aS'25994016'
p842
ag192
aS'55480737'
p843
ag316
aS'51673172'
p844
ag367
aS'40633534'
p845
ag684
aS'88737765'
p846
aS'74361881'
p847
asg94
S'15'
p848
sg95
S'Project Genetic Algorithms'
p849
sg97
g249
sg99
g150
sg100
(iread_data
Room
p850
(dp851
g94
g281
sg95
g282
sbsba(ischedule
Activity
p852
(dp853
g8
(lp854
S'60661905'
p855
ag368
ag32
ag11
aS'92778619'
p856
aS'34900967'
p857
ag329
ag739
aS'10702778'
p858
aS'73893840'
p859
ag48
ag124
asg94
g535
sg95
g536
sg97
g249
sg99
g223
sg100
(iread_data
Room
p860
(dp861
g94
g252
sg95
g253
sbsba(ischedule
Activity
p862
(dp863
g8
(lp864
g115
ag166
ag111
ag118
ag177
aS'1181560'
p865
ag398
ag526
ag335
aS'78821918'
p866
aS'13218321'
p867
ag110
ag369
aS'48198668'
p868
ag548
aS'18144425'
p869
asg94
g513
sg95
g514
sg97
g149
sg99
g200
sg100
(iread_data
Room
p870
(dp871
g94
g226
sg95
g227
sbsbaa(lp872
(ischedule
Activity
p873
(dp874
g8
g819
sg94
I1000
sg95
g222
sg97
g98
sg99
I0
sg100
g821
sba(ischedule
Activity
p875
(dp876
g8
(lp877
g26
ag748
ag50
ag856
ag52
ag751
ag806
aS'59753700'
p878
ag76
ag460
ag406
ag789
ag805
ag526
ag808
aS'51415617'
p879
aS'36213792'
p880
asg94
S'20'
p881
sg95
S'Reflectie op de digitale cultuur'
p882
sg97
g149
sg99
g200
sg100
(iread_data
Room
p883
(dp884
g94
g252
sg95
g253
sbsba(ischedule
Activity
p885
(dp886
g8
g710
sg94
I1000
sg95
g721
sg97
g98
sg99
I0
sg100
(iread_data
Room
p887
(dp888
g94
g153
sg95
g154
sbsba(ischedule
Activity
p889
(dp890
g8
(lp891
g71
ag701
ag190
ag174
ag166
ag277
ag73
ag37
ag574
ag419
ag261
ag55
ag636
ag263
ag270
ag610
ag333
ag350
ag11
ag459
ag700
ag695
ag531
ag122
ag553
ag698
ag703
asg94
S'25'
p892
sg95
g705
sg97
g149
sg99
g200
sg100
(iread_data
Room
p893
(dp894
g94
g203
sg95
g204
sbsbaa(lp895
(ischedule
Activity
p896
(dp897
g8
(lp898
g712
ag357
ag380
ag385
ag379
ag787
ag648
ag232
ag321
ag845
ag120
ag466
ag22
aS'62613937'
p899
ag179
ag59
asg94
S'10'
p900
sg95
S'Advanced Heuristics'
p901
sg97
g249
sg99
g150
sg100
(iread_data
Room
p902
(dp903
g94
g103
sg95
g104
sbsba(ischedule
Activity
p904
(dp905
g8
(lp906
g319
ag353
ag190
ag358
ag342
ag315
ag333
ag360
ag340
ag213
ag189
ag42
ag57
ag132
ag139
ag165
ag364
ag336
ag322
ag302
ag73
ag304
ag350
ag324
ag239
ag301
ag361
ag310
ag299
ag327
ag332
ag366
ag370
ag312
ag334
ag341
ag316
ag365
ag331
ag192
ag185
ag323
ag359
ag314
ag344
ag338
ag69
ag10
ag325
ag348
ag49
asg94
g451
sg95
g371
sg97
g149
sg99
g150
sg100
(iread_data
Room
p907
(dp908
g94
g153
sg95
g154
sbsba(ischedule
Activity
p909
(dp910
g8
(lp911
g176
ag110
ag111
ag387
ag46
aS'84449005'
p912
ag118
ag460
ag440
ag115
ag306
ag548
ag746
ag398
ag865
ag808
ag116
ag335
ag183
ag804
ag526
ag512
ag868
ag867
aS'41489515'
p913
ag113
ag508
ag117
ag684
ag166
ag184
ag510
ag91
ag511
ag866
aS'27241113'
p914
ag369
aS'27916487'
p915
ag869
asg94
g629
sg95
g514
sg97
g249
sg99
g200
sg100
(iread_data
Room
p916
(dp917
g94
g203
sg95
g204
sbsba(ischedule
Activity
p918
(dp919
g8
(lp920
g497
ag662
aS'75680261'
p921
aS'5526560'
p922
ag685
aS'82066165'
p923
ag61
ag664
ag770
ag752
ag474
ag51
ag15
asg94
g848
sg95
g849
sg97
g249
sg99
g200
sg100
(iread_data
Room
p924
(dp925
g94
g281
sg95
g282
sbsba(ischedule
Activity
p926
(dp927
g8
(lp928
g216
ag458
ag71
ag345
ag169
ag768
ag173
ag56
ag53
ag162
asg94
g535
sg95
g536
sg97
g249
sg99
S'6'
p929
sg100
(iread_data
Room
p930
(dp931
g94
g226
sg95
g227
sbsba(ischedule
Activity
p932
(dp933
g8
(lp934
g442
ag459
ag277
ag434
ag272
ag355
aS'93023961'
p935
ag620
ag268
ag616
ag583
ag621
ag619
aS'98780382'
p936
ag878
ag495
ag417
aS'19337738'
p937
ag418
asg94
g676
sg95
g601
sg97
g149
sg99
g200
sg100
(iread_data
Room
p938
(dp939
g94
g252
sg95
g253
sbsba(ischedule
Activity
p940
(dp941
g8
(lp942
g435
ag441
ag136
ag549
aS'37419523'
p943
ag62
aS'63939720'
p944
ag559
ag52
ag81
ag208
ag704
ag599
aS'40911986'
p945
ag142
aS'42406214'
p946
ag461
ag719
ag129
aS'19662602'
p947
ag498
ag269
aS'81116418'
p948
asg94
g287
sg95
g288
sg97
g249
sg99
g200
sg100
g651
sbaaa(lp949
(lp950
(ischedule
Activity
p951
(dp952
g8
g571
sg94
I1000
sg95
g592
sg97
g98
sg99
I0
sg100
(iread_data
Room
p953
(dp954
g94
g153
sg95
g154
sbsba(ischedule
Activity
p955
(dp956
g8
(lp957
g83
ag264
ag91
ag43
ag32
ag71
ag57
ag109
ag272
ag260
ag718
ag126
aS'77960666'
p958
ag321
ag922
ag209
ag370
ag341
ag310
ag866
aS'25077484'
p959
ag274
aS'58083680'
p960
aS'62736669'
p961
ag441
ag409
aS'15187217'
p962
ag403
ag806
ag266
aS'83869542'
p963
ag638
asg94
g198
sg95
g199
sg97
g149
sg99
g150
sg100
(iread_data
Room
p964
(dp965
g94
g203
sg95
g204
sbsba(ischedule
Activity
p966
(dp967
g8
(lp968
g159
ag163
ag619
ag820
aS'88597745'
p969
ag496
ag77
ag628
ag442
ag639
ag646
ag484
ag139
aS'73196865'
p970
ag313
aS'27582862'
p971
aS'90296821'
p972
ag311
aS'88519892'
p973
ag39
ag407
aS'20618153'
p974
aS'63096281'
p975
ag324
ag258
ag808
ag12
ag123
ag84
ag675
aS'28943658'
p976
ag213
ag750
ag719
aS'88263855'
p977
asg94
g535
sg95
g536
sg97
g249
sg99
g289
sg100
(iread_data
Room
p978
(dp979
g94
g281
sg95
g282
sbsba(ischedule
Activity
p980
(dp981
g8
g456
sg94
I1000
sg95
g478
sg97
g98
sg99
I0
sg100
(iread_data
Room
p982
(dp983
g94
g292
sg95
g293
sbsba(ischedule
Activity
p984
(dp985
g8
(lp986
g769
ag379
ag662
ag266
ag345
ag506
asg94
g221
sg95
g222
sg97
g149
sg99
g289
sg100
(iread_data
Room
p987
(dp988
g94
g226
sg95
g227
sbsba(ischedule
Activity
p989
(dp990
g8
(lp991
g583
aS'13718298'
p992
ag361
ag333
ag576
ag682
ag261
ag359
aS'41153310'
p993
ag746
ag36
ag578
ag549
ag337
aS'96554914'
p994
ag25
ag269
ag435
ag219
ag529
aS'31103066'
p995
ag74
ag319
ag387
ag545
ag553
ag645
ag79
ag386
ag395
ag664
ag133
ag267
aS'9287708'
p996
ag214
ag306
ag339
ag544
aS'3727435'
p997
asg94
S'40'
p998
sg95
g687
sg97
g149
sg99
g200
sg100
(iread_data
Room
p999
(dp1000
g94
g103
sg95
g104
sbsba(ischedule
Activity
p1001
(dp1002
g8
(lp1003
g617
ag495
aS'59887191'
p1004
ag618
ag186
ag178
ag218
ag783
ag559
asg94
g649
sg95
g650
sg97
g249
sg99
g223
sg100
(iread_data
Room
p1005
(dp1006
g94
g252
sg95
g253
sbsbaa(lp1007
(ischedule
Activity
p1008
(dp1009
g8
g661
sg94
I1000
sg95
g148
sg97
g98
sg99
I0
sg100
(iread_data
Room
p1010
(dp1011
g94
g103
sg95
g104
sbsba(ischedule
Activity
p1012
(dp1013
g8
(lp1014
g353
ag912
ag805
ag39
ag783
ag336
aS'41644639'
p1015
ag866
ag959
asg94
g848
sg95
g849
sg97
g249
sg99
g289
sg100
(iread_data
Room
p1016
(dp1017
g94
g252
sg95
g253
sbsba(ischedule
Activity
p1018
(dp1019
g8
(lp1020
g268
ag616
ag937
ag417
ag618
ag935
ag21
ag675
aS'99453514'
p1021
ag617
ag583
ag442
ag495
ag434
ag418
ag621
ag277
ag355
ag272
ag598
ag459
ag620
ag619
ag14
ag936
ag878
ag599
asg94
I1000
sg95
g601
sg97
g98
sg99
I0
sg100
(iread_data
Room
p1022
(dp1023
g94
g203
sg95
g204
sbsba(ischedule
Activity
p1024
(dp1025
g8
(lp1026
g81
ag495
ag329
ag182
aS'15249775'
p1027
ag84
ag367
ag963
asg94
g791
sg95
g792
sg97
g149
sg99
g150
sg100
(iread_data
Room
p1028
(dp1029
g94
g226
sg95
g227
sbsba(ischedule
Activity
p1030
(dp1031
g8
(lp1032
g465
ag357
ag701
ag239
ag534
aS'67073567'
p1033
ag167
ag23
ag403
ag69
ag193
ag750
ag746
ag754
ag404
ag751
ag195
ag717
aS'1137946'
p1034
ag974
ag114
ag119
ag545
ag749
aS'41790793'
p1035
ag712
aS'49908313'
p1036
ag753
ag383
ag747
ag752
ag379
ag438
aS'76903244'
p1037
aS'28358060'
p1038
ag748
ag577
ag387
ag349
asg94
I1000
sg95
g756
sg97
g98
sg99
I0
sg100
(iread_data
Room
p1039
(dp1040
g94
g281
sg95
g282
sbsbaa(lp1041
(ischedule
Activity
p1042
(dp1043
g8
(lp1044
g330
ag159
ag574
ag459
ag439
ag401
ag273
ag406
ag971
ag48
ag18
ag111
ag467
ag80
aS'37830626'
p1045
ag619
ag528
aS'58074656'
p1046
ag92
ag238
ag130
ag136
ag639
ag274
ag78
ag685
ag398
ag39
ag331
ag683
ag383
ag28
ag315
ag684
ag408
ag434
asg94
g998
sg95
g687
sg97
g149
sg99
g150
sg100
(iread_data
Room
p1047
(dp1048
g94
g153
sg95
g154
sbsba(ischedule
Activity
p1049
(dp1050
g8
(lp1051
g309
ag857
ag188
ag846
ag682
aS'58480929'
p1052
ag333
ag474
ag145
ag583
ag992
ag696
ag802
ag187
aS'18477924'
p1053
ag261
ag866
ag361
ag11
aS'78822885'
p1054
ag462
ag54
ag92
ag163
ag158
aS'70193386'
p1055
ag314
aS'97838175'
p1056
ag805
aS'14637758'
p1057
aS'82854435'
p1058
ag43
ag286
ag276
ag855
ag899
aS'73350019'
p1059
ag318
ag13
ag182
ag783
ag299
ag358
ag335
ag83
ag550
ag27
ag751
ag44
asg94
I1000
sg95
S'Analysemethoden en -technieken'
p1060
sg97
g98
sg99
I0
sg100
(iread_data
Room
p1061
(dp1062
g94
g292
sg95
g293
sbsba(ischedule
Activity
p1063
(dp1064
g8
(lp1065
g384
ag40
ag270
ag607
ag216
ag115
asg94
S'15'
p1066
sg95
g421
sg97
g149
sg99
g150
sg100
(iread_data
Room
p1067
(dp1068
g94
g226
sg95
g227
sbsba(ischedule
Activity
p1069
(dp1070
g8
(lp1071
g313
ag460
ag549
ag552
ag179
ag73
asg94
g499
sg95
g500
sg97
g249
sg99
g150
sg100
(iread_data
Room
p1072
(dp1073
g94
g281
sg95
g282
sbsba(ischedule
Activity
p1074
(dp1075
g8
(lp1076
g67
ag303
ag129
ag747
ag63
ag559
ag321
ag350
ag353
ag127
ag993
ag599
ag572
ag738
ag260
ag473
ag337
ag70
ag436
ag1027
aS'64053722'
p1077
aS'54395877'
p1078
ag10
ag610
ag364
ag21
aS'39905995'
p1079
aS'51791169'
p1080
ag125
asg94
g535
sg95
g536
sg97
g249
sg99
g150
sg100
(iread_data
Room
p1081
(dp1082
g94
g103
sg95
g104
sbsba(ischedule
Activity
p1083
(dp1084
g8
(lp1085
g57
ag177
ag409
ag235
ag109
ag560
ag958
ag134
ag93
asg94
g535
sg95
g536
sg97
g249
sg99
g200
sg100
(iread_data
Room
p1086
(dp1087
g94
g203
sg95
g204
sbsbaa(lp1088
(ischedule
Activity
p1089
(dp1090
g8
g9
sg94
I1000
sg95
g96
sg97
g98
sg99
I0
sg100
g821
sba(ischedule
Activity
p1091
(dp1092
g8
g256
sg94
I1000
sg95
g278
sg97
g98
sg99
I0
sg100
(iread_data
Room
p1093
(dp1094
g94
g203
sg95
g204
sbsba(ischedule
Activity
p1095
(dp1096
g8
(lp1097
g436
ag164
ag435
ag176
ag195
ag559
ag33
ag440
ag346
ag820
ag159
ag443
ag770
ag442
ag234
ag434
ag173
ag68
ag331
ag498
ag183
ag685
ag573
ag146
ag182
ag458
asg94
g221
sg95
g222
sg97
g149
sg99
g150
sg100
(iread_data
Room
p1098
(dp1099
g94
g281
sg95
g282
sbsba(ischedule
Activity
p1100
(dp1101
g8
(lp1102
g406
aS'47260040'
p1103
ag553
aS'1695839'
p1104
aS'91250534'
p1105
asg94
g247
sg95
g248
sg97
g249
sg99
g289
sg100
(iread_data
Room
p1106
(dp1107
g94
g226
sg95
g227
sbsba(ischedule
Activity
p1108
(dp1109
g8
(lp1110
g403
ag387
ag404
ag746
ag119
ag438
ag748
ag752
ag753
ag545
ag577
ag747
ag383
ag239
ag754
ag349
ag749
ag1036
ag1035
ag465
ag1033
ag379
asg94
S'20'
p1111
sg95
g756
sg97
g149
sg99
g150
sg100
(iread_data
Room
p1112
(dp1113
g94
g292
sg95
g293
sbsba(ischedule
Activity
p1114
(dp1115
g8
(lp1116
g364
ag112
ag475
ag497
ag136
ag115
ag114
ag208
ag662
ag664
ag663
ag142
ag137
ag134
ag110
ag138
asg94
g566
sg95
g148
sg97
g249
sg99
g150
sg100
(iread_data
Room
p1117
(dp1118
g94
g153
sg95
g154
sbsbaa(lp1119
(ischedule
Activity
p1120
(dp1121
g8
g819
sg94
I1000
sg95
g222
sg97
g98
sg99
I0
sg100
g821
sba(ischedule
Activity
p1122
(dp1123
g8
(lp1124
g475
ag131
ag166
ag115
ag467
ag440
ag463
ag108
asg94
S'20'
p1125
sg95
g478
sg97
g149
sg99
g200
sg100
(iread_data
Room
p1126
(dp1127
g94
g226
sg95
g227
sbsba(ischedule
Activity
p1128
(dp1129
g8
(lp1130
g276
ag257
ag265
ag259
ag273
ag275
ag262
ag268
ag263
ag258
asg94
g427
sg95
g278
sg97
g249
sg99
g289
sg100
(iread_data
Room
p1131
(dp1132
g94
g252
sg95
g253
sbsba(ischedule
Activity
p1133
(dp1134
g8
(lp1135
g545
ag549
ag342
ag313
ag364
asg94
g826
sg95
g500
sg97
g149
sg99
g150
sg100
(iread_data
Room
p1136
(dp1137
g94
g153
sg95
g154
sbsba(ischedule
Activity
p1138
(dp1139
g8
(lp1140
g461
ag462
ag469
ag168
ag457
ag466
ag167
ag363
ag477
ag111
ag471
ag277
ag246
ag86
ag464
ag476
ag460
ag358
ag25
ag470
ag19
ag40
ag270
ag473
ag459
ag465
ag468
ag472
ag458
ag474
asg94
g1125
sg95
g478
sg97
g149
sg99
g150
sg100
(iread_data
Room
p1141
(dp1142
g94
g203
sg95
g204
sbsba(ischedule
Activity
p1143
(dp1144
g8
(lp1145
g599
ag14
ag1021
ag618
ag617
ag21
asg94
g676
sg95
g601
sg97
g149
sg99
g150
sg100
(iread_data
Room
p1146
(dp1147
g94
g292
sg95
g293
sbsba(ischedule
Activity
p1148
(dp1149
g8
(lp1150
g322
ag184
ag808
ag303
ag746
ag306
ag914
ag91
ag341
ag358
ag684
ag113
ag387
ag32
ag324
ag915
ag582
ag913
ag804
ag628
ag912
ag90
asg94
g513
sg95
g514
sg97
g149
sg99
g289
sg100
(iread_data
Room
p1151
(dp1152
g94
g281
sg95
g282
sbsbaaa(lp1153
(lp1154
(ischedule
Activity
p1155
(dp1156
g8
(lp1157
g272
ag404
ag400
ag403
ag112
ag341
ag397
ag399
ag434
ag18
ag405
ag442
ag353
ag257
ag407
ag108
ag209
ag119
ag196
ag235
ag398
ag395
ag15
ag22
ag402
ag396
ag408
ag243
ag409
ag77
ag406
ag234
ag485
ag213
ag319
ag486
ag36
ag56
ag520
ag174
ag484
ag401
ag109
asg94
I1000
sg95
g411
sg97
g98
sg99
I0
sg100
(iread_data
Room
p1158
(dp1159
g94
g292
sg95
g293
sbsba(ischedule
Activity
p1160
(dp1161
g8
(lp1162
g440
ag115
ag510
ag512
ag511
ag808
ag460
ag177
ag398
ag915
ag913
ag322
ag507
ag176
ag117
ag111
ag582
ag118
ag443
ag526
ag116
ag335
ag548
ag746
ag369
ag866
ag868
ag91
ag387
ag804
ag912
ag306
ag184
ag303
ag266
ag914
ag90
ag865
ag358
ag508
ag166
ag46
ag32
ag867
ag509
ag869
ag506
ag341
ag628
ag113
ag324
ag183
ag110
ag684
asg94
I1000
sg95
g514
sg97
g98
sg99
I0
sg100
(iread_data
Room
p1163
(dp1164
g94
g153
sg95
g154
sbsba(ischedule
Activity
p1165
(dp1166
g8
(lp1167
g33
ag85
ag49
ag78
ag173
ag260
ag10
ag44
ag26
ag171
ag264
ag208
ag189
ag364
ag564
ag565
ag662
ag560
ag561
ag471
ag663
ag435
ag388
ag559
ag563
ag475
ag497
ag328
ag562
ag664
asg94
g147
sg95
g148
sg97
g149
sg99
g200
sg100
(iread_data
Room
p1168
(dp1169
g94
g281
sg95
g282
sbsba(ischedule
Activity
p1170
(dp1171
g8
g1020
sg94
I1000
sg95
g601
sg97
g98
sg99
I0
sg100
(iread_data
Room
p1172
(dp1173
g94
g203
sg95
g204
sbsba(ischedule
Activity
p1174
(dp1175
g8
(lp1176
g43
ag72
ag168
ag244
ag466
ag771
ag437
ag772
ag581
ag768
ag438
ag377
ag441
ag433
ag349
ag439
asg94
g221
sg95
g222
sg97
g149
sg99
g200
sg100
(iread_data
Room
p1177
(dp1178
g94
g226
sg95
g227
sbsba(ischedule
Activity
p1179
(dp1180
g8
(lp1181
g114
ag195
ag69
ag23
ag712
ag534
ag357
ag974
ag1038
ag193
ag751
ag1034
ag167
ag750
ag1037
ag717
ag701
asg94
g1111
sg95
g756
sg97
g149
sg99
g200
sg100
(iread_data
Room
p1182
(dp1183
g94
g252
sg95
g253
sbsbaa(lp1184
(ischedule
Activity
p1185
(dp1186
g8
(lp1187
g358
ag545
ag547
ag544
ag238
ag551
ag80
ag175
ag553
ag397
ag364
ag267
ag315
ag548
ag550
ag57
ag324
ag164
ag114
ag442
ag360
ag546
asg94
g499
sg95
g500
sg97
g249
sg99
g289
sg100
(iread_data
Room
p1188
(dp1189
g94
g281
sg95
g282
sbsba(ischedule
Activity
p1190
(dp1191
g8
(lp1192
g168
ag842
ag65
ag113
ag434
ag53
ag637
ag1015
ag923
ag144
ag84
ag469
ag844
ag716
ag187
ag549
aS'5892092'
p1193
ag847
aS'51472074'
p1194
asg94
g247
sg95
g248
sg97
g249
sg99
g200
sg100
(iread_data
Room
p1195
(dp1196
g94
g226
sg95
g227
sbsba(ischedule
Activity
p1197
(dp1198
g8
(lp1199
S'39429093'
p1200
ag712
ag120
ag845
ag787
ag379
ag385
ag179
ag350
ag59
ag321
ag648
ag335
ag806
ag899
ag232
ag466
ag357
ag380
ag22
asg94
I1000
sg95
g901
sg97
g98
sg99
I0
sg100
(iread_data
Room
p1201
(dp1202
g94
g203
sg95
g204
sbsba(ischedule
Activity
p1203
(dp1204
g8
(lp1205
g217
ag377
ag209
ag349
ag559
ag183
ag72
ag216
ag331
ag182
ag214
ag159
ag33
ag234
ag506
ag458
ag820
ag212
ag498
ag219
ag195
ag173
asg94
g444
sg95
g222
sg97
g249
sg99
g200
sg100
(iread_data
Room
p1206
(dp1207
g94
g252
sg95
g253
sbsba(ischedule
Activity
p1208
(dp1209
g8
(lp1210
g272
ag273
ag271
ag274
ag260
ag78
ag269
ag263
ag270
ag276
ag264
ag268
ag259
ag258
ag266
asg94
g656
sg95
g278
sg97
g149
sg99
g150
sg100
(iread_data
Room
p1211
(dp1212
g94
g292
sg95
g293
sbsba(ischedule
Activity
p1213
(dp1214
g8
(lp1215
g26
ag22
ag856
ag992
ag958
ag493
ag419
ag805
aS'27805666'
p1216
ag748
ag52
ag855
ag474
aS'68286356'
p1217
ag946
ag879
ag313
ag526
aS'51052738'
p1218
aS'20095994'
p1219
ag170
ag572
ag834
ag351
ag460
aS'49922855'
p1220
ag912
aS'82390428'
p1221
ag806
ag496
ag50
ag664
ag878
ag176
ag441
ag994
ag109
ag789
ag880
ag751
ag261
aS'27370083'
p1222
ag1055
ag1021
ag64
ag648
ag808
ag277
ag462
ag406
ag76
asg94
I1000
sg95
g882
sg97
g98
sg99
I0
sg100
(iread_data
Room
p1223
(dp1224
g94
g153
sg95
g154
sbsba(ischedule
Activity
p1225
(dp1226
g8
(lp1227
g257
ag275
asg94
g656
sg95
g278
sg97
g149
sg99
g289
sg100
(iread_data
Room
p1228
(dp1229
g94
g103
sg95
g104
sbsbaa(lp1230
(ischedule
Activity
p1231
(dp1232
g8
g1215
sg94
I1000
sg95
g882
sg97
g98
sg99
I0
sg100
(iread_data
Room
p1233
(dp1234
g94
g153
sg95
g154
sbsba(ischedule
Activity
p1235
(dp1236
g8
(lp1237
g997
ag434
ag1045
ag269
ag274
ag315
ag80
ag136
ag386
ag996
ag398
ag111
ag331
ag48
ag133
ag306
ag28
ag685
ag383
ag273
ag619
ag467
ag994
ag993
ag435
ag25
ag330
ag261
ag544
ag36
ag576
ag746
ag39
ag583
ag971
ag549
ag78
ag992
ag159
ag238
ag574
ag664
ag683
ag401
ag395
ag528
ag337
ag684
ag18
ag578
ag459
ag339
ag359
ag130
ag219
ag387
ag74
ag92
ag545
ag79
ag439
ag639
ag319
ag529
ag406
ag995
ag267
ag553
ag682
ag214
ag645
ag361
ag408
ag1046
ag333
asg94
I1000
sg95
g687
sg97
g98
sg99
I0
sg100
(iread_data
Room
p1238
(dp1239
g94
g103
sg95
g104
sbsba(ischedule
Activity
p1240
(dp1241
g8
(lp1242
g961
ag340
aS'19058315'
p1243
asg94
g649
sg95
g650
sg97
g249
sg99
g150
sg100
(iread_data
Room
p1244
(dp1245
g94
g203
sg95
g204
sbsba(ischedule
Activity
p1246
(dp1247
g8
(lp1248
g507
ag324
ag341
ag506
ag303
ag443
ag582
ag322
ag90
asg94
g629
sg95
g514
sg97
g249
sg99
g289
sg100
(iread_data
Room
p1249
(dp1250
g94
g252
sg95
g253
sbsba(ischedule
Activity
p1251
(dp1252
g8
(lp1253
g498
ag442
ag33
ag164
ag548
asg94
g826
sg95
g500
sg97
g149
sg99
g200
sg100
(iread_data
Room
p1254
(dp1255
g94
g226
sg95
g227
sbsbaa(lp1256
(ischedule
Activity
p1257
(dp1258
g8
(lp1259
g180
ag109
ag172
ag169
ag83
ag176
ag183
ag441
ag163
ag177
ag126
ag197
ag960
ag806
ag193
ag192
ag264
ag958
ag191
ag260
ag638
ag274
ag91
ag403
ag168
ag196
ag341
ag173
ag922
ag959
ag866
ag158
ag370
ag57
ag194
ag190
ag165
ag188
ag184
ag166
ag164
ag179
ag185
ag159
ag195
ag160
ag43
ag963
ag962
ag718
ag182
ag186
ag174
ag321
ag171
ag961
ag310
ag266
ag170
ag272
ag209
ag189
ag162
ag187
ag32
ag181
ag409
ag175
ag71
ag178
ag167
ag161
asg94
I1000
sg95
g199
sg97
g98
sg99
I0
sg100
(iread_data
Room
p1260
(dp1261
g94
g103
sg95
g104
sbsba(ischedule
Activity
p1262
(dp1263
g8
(lp1264
g218
ag437
ag440
ag506
ag331
ag77
ag697
ag704
ag621
ag696
ag335
ag237
ag530
ag699
ag233
ag34
ag702
asg94
g892
sg95
g705
sg97
g149
sg99
g150
sg100
(iread_data
Room
p1265
(dp1266
g94
g252
sg95
g253
sbsba(ischedule
Activity
p1267
(dp1268
g8
(lp1269
g701
ag114
ag717
ag545
ag712
ag349
ag534
ag1035
ag577
ag465
ag1037
ag383
ag1036
ag1034
ag357
ag379
ag119
ag23
ag1033
ag974
ag438
ag1038
ag404
asg94
g755
sg95
g756
sg97
g249
sg99
g200
sg100
(iread_data
Room
p1270
(dp1271
g94
g292
sg95
g293
sbsba(ischedule
Activity
p1272
(dp1273
g8
(lp1274
g133
ag435
ag319
ag267
ag136
ag130
ag664
ag36
ag434
ag111
ag578
ag269
ag78
ag25
ag639
ag1046
ag401
ag746
ag315
ag528
ag994
ag993
ag261
ag574
ag439
ag398
ag92
ag80
ag337
ag645
ag992
ag1045
ag306
ag214
ag339
ag48
ag996
ag28
ag549
ag361
ag997
ag386
ag995
ag971
ag576
ag18
ag553
ag74
asg94
g686
sg95
g687
sg97
g249
sg99
g150
sg100
(iread_data
Room
p1275
(dp1276
g94
g153
sg95
g154
sbsba(ischedule
Activity
p1277
(dp1278
g8
g734
sg94
I1000
sg95
g740
sg97
g98
sg99
I0
sg100
(iread_data
Room
p1279
(dp1280
g94
g281
sg95
g282
sbsba(ischedule
Activity
p1281
(dp1282
g8
(lp1283
g442
ag418
ag14
ag495
ag417
ag583
ag268
ag277
ag675
ag937
ag936
ag878
ag1021
ag935
asg94
g600
sg95
g601
sg97
g249
sg99
g289
sg100
(iread_data
Room
p1284
(dp1285
g94
g226
sg95
g227
sbsba(ischedule
Activity
p1286
(dp1287
g8
(lp1288
g1220
ag419
ag1218
ag1055
ag493
asg94
g881
sg95
g882
sg97
g149
sg99
g150
sg100
(iread_data
Room
p1289
(dp1290
g94
g203
sg95
g204
sbsbaa(lp1291
(ischedule
Activity
p1292
(dp1293
g8
(lp1294
g84
ag395
ag438
ag405
ag739
ag367
ag272
ag790
ag789
ag786
ag788
ag787
ag217
ag316
ag746
ag963
ag700
ag472
ag785
ag784
ag751
ag26
ag81
ag495
ag620
ag329
ag276
ag695
ag1027
ag162
ag182
ag783
asg94
I1000
sg95
g792
sg97
g98
sg99
I0
sg100
(iread_data
Room
p1295
(dp1296
g94
g281
sg95
g282
sbsba(ischedule
Activity
p1297
(dp1298
g8
(lp1299
g176
ag1219
ag261
ag992
ag441
ag277
ag834
ag912
ag351
ag958
ag994
ag462
ag474
ag1021
ag64
ag170
ag1221
ag664
ag572
ag1216
ag313
ag855
ag1222
ag109
ag1217
ag946
ag648
ag496
ag22
asg94
g881
sg95
g882
sg97
g149
sg99
g289
sg100
(iread_data
Room
p1300
(dp1301
g94
g153
sg95
g154
sbsba(ischedule
Activity
p1302
(dp1303
g8
g1032
sg94
I1000
sg95
g756
sg97
g98
sg99
I0
sg100
g821
sba(ischedule
Activity
p1304
(dp1305
g8
g376
sg94
I1000
sg95
g389
sg97
g98
sg99
I0
sg100
(iread_data
Room
p1306
(dp1307
g94
g252
sg95
g253
sbsba(ischedule
Activity
p1308
(dp1309
g8
(lp1310
g54
ag440
ag418
ag245
ag326
ag610
ag246
ag508
ag417
ag609
ag32
ag484
ag169
ag608
ag419
asg94
g1066
sg95
g421
sg97
g149
sg99
g200
sg100
(iread_data
Room
p1311
(dp1312
g94
g226
sg95
g227
sbsba(ischedule
Activity
p1313
(dp1314
g8
(lp1315
g274
ag270
asg94
g427
sg95
g278
sg97
g249
sg99
g150
sg100
(iread_data
Room
p1316
(dp1317
g94
g292
sg95
g293
sbsba(ischedule
Activity
p1318
(dp1319
g8
(lp1320
g335
ag350
ag806
ag1200
asg94
g900
sg95
g901
sg97
g249
sg99
g200
sg100
(iread_data
Room
p1321
(dp1322
g94
g203
sg95
g204
sbsbaaa(lp1323
(lp1324
a(lp1325
a(lp1326
a(lp1327
a(lp1328
aasS'timeslot_dict'
p1329
(dp1330
I0
S'9:00-11:00'
p1331
sI1
S'11:00-13:00'
p1332
sI2
S'13:00-15:00'
p1333
sI3
S'15:00-17:00'
p1334
sI4
S'17:00-19:00'
p1335
ssS'day_dict'
p1336
(dp1337
I0
S'Monday'
p1338
sI1
S'Tuesday'
p1339
sI2
S'Wednesday'
p1340
sI3
S'Thursday'
p1341
sI4
S'Friday'
p1342
ssb.