(ischedule
Schedule
p0
(dp1
S'timetable'
p2
(lp3
(lp4
(lp5
(ischedule
Activity
p6
(dp7
S'participants'
p8
(lp9
S'6723948'
p10
aS'11915563'
p11
aS'75599734'
p12
aS'39459642'
p13
aS'68315599'
p14
aS'72895450'
p15
aS'5368702'
p16
aS'9067939'
p17
aS'80135353'
p18
aS'60312776'
p19
aS'92665222'
p20
aS'88855695'
p21
aS'37770881'
p22
aS'66701209'
p23
aS'3407554'
p24
aS'13911001'
p25
aS'34110913'
p26
aS'2317551'
p27
aS'44391517'
p28
aS'72796858'
p29
aS'42778953'
p30
aS'65960683'
p31
aS'53202517'
p32
aS'79033175'
p33
aS'77896638'
p34
aS'88752563'
p35
aS'5595824'
p36
aS'81385263'
p37
aS'46989508'
p38
aS'65852230'
p39
aS'79167252'
p40
aS'31194811'
p41
aS'34872117'
p42
aS'83266686'
p43
aS'86291592'
p44
aS'1766560'
p45
aS'98105190'
p46
aS'11741347'
p47
aS'13284244'
p48
aS'76802764'
p49
aS'94687383'
p50
aS'2079771'
p51
aS'84524083'
p52
aS'75759231'
p53
aS'54772132'
p54
aS'86988337'
p55
aS'48308205'
p56
aS'76661016'
p57
aS'49683101'
p58
aS'27950803'
p59
aS'27187154'
p60
aS'8464817'
p61
aS'15911353'
p62
aS'40791377'
p63
aS'95631564'
p64
aS'75664412'
p65
aS'34243356'
p66
aS'14309255'
p67
aS'58522654'
p68
aS'88636924'
p69
aS'7957843'
p70
aS'43689934'
p71
aS'73236988'
p72
aS'10792879'
p73
aS'30658799'
p74
aS'12077419'
p75
aS'95007221'
p76
aS'48503689'
p77
aS'24613625'
p78
asS'capacity'
p79
I1000
sS'name'
p80
S'Compilerbouw'
p81
sS'ttype'
p82
S'lectures'
p83
sS'group_id'
p84
I0
sS'room'
p85
(iread_data
Room
p86
(dp87
g79
S'117'
p88
sg80
S'C0.110'
p89
sbsba(ischedule
Activity
p90
(dp91
g8
(lp92
S'66122625'
p93
aS'81218347'
p94
aS'87210640'
p95
aS'14816774'
p96
aS'19858730'
p97
aS'56749879'
p98
aS'79879876'
p99
aS'48357272'
p100
aS'83443653'
p101
aS'14941752'
p102
aS'44901052'
p103
aS'4783858'
p104
aS'11996292'
p105
aS'45660925'
p106
ag46
aS'1696500'
p107
aS'36903574'
p108
aS'37110913'
p109
aS'71839156'
p110
aS'94930277'
p111
aS'92977271'
p112
aS'58736785'
p113
aS'4353500'
p114
aS'57467488'
p115
aS'76393508'
p116
aS'22871048'
p117
aS'53775014'
p118
aS'97417002'
p119
aS'22323043'
p120
aS'86807027'
p121
aS'97019450'
p122
aS'61060652'
p123
aS'42171678'
p124
aS'53107172'
p125
aS'4568018'
p126
aS'75521763'
p127
aS'14591033'
p128
aS'20830477'
p129
aS'59075181'
p130
aS'75997788'
p131
aS'31897288'
p132
aS'13658563'
p133
aS'20331158'
p134
aS'14138904'
p135
asg79
I1000
sg80
S'Heuristieken 1'
p136
sg82
g83
sg84
I0
sg85
(iread_data
Room
p137
(dp138
g79
S'48'
p139
sg80
S'B0.201'
p140
sbsba(ischedule
Activity
p141
(dp142
g8
(lp143
S'74131924'
p144
aS'97136582'
p145
aS'59753700'
p146
aS'81022997'
p147
aS'91196968'
p148
aS'13996448'
p149
aS'37744525'
p150
aS'52311353'
p151
aS'45414528'
p152
ag109
ag93
aS'99453514'
p153
aS'93023961'
p154
aS'51566595'
p155
aS'68360259'
p156
aS'17823206'
p157
aS'87900893'
p158
aS'13116738'
p159
aS'50143947'
p160
aS'81200278'
p161
aS'21964491'
p162
aS'98780382'
p163
aS'70878567'
p164
ag120
aS'19337738'
p165
aS'87314964'
p166
aS'25330192'
p167
asg79
I1000
sg80
S'Data Mining'
p168
sg82
g83
sg84
I0
sg85
(iread_data
Room
p169
(dp170
g79
S'41'
p171
sg80
S'A1.04'
p172
sbsba(ischedule
Activity
p173
(dp174
g8
(lp175
S'5615125'
p176
aS'1137946'
p177
aS'76903244'
p178
aS'20618153'
p179
aS'43902015'
p180
aS'24891081'
p181
aS'3474870'
p182
aS'67073567'
p183
aS'10698627'
p184
aS'2416751'
p185
ag32
aS'41790793'
p186
aS'43460038'
p187
aS'53512831'
p188
ag111
aS'40434933'
p189
aS'14303208'
p190
aS'72577292'
p191
aS'89180944'
p192
aS'61443567'
p193
aS'28358060'
p194
aS'76123484'
p195
aS'17092717'
p196
aS'16333449'
p197
aS'14847953'
p198
aS'66034145'
p199
aS'76648468'
p200
aS'69459473'
p201
aS'33877725'
p202
aS'57086672'
p203
aS'78243495'
p204
aS'6249823'
p205
ag15
aS'22288615'
p206
aS'39230359'
p207
aS'64228258'
p208
aS'77392404'
p209
aS'27064249'
p210
aS'49908313'
p211
asg79
I1000
sg80
S'Webprogrammeren en databases'
p212
sg82
g83
sg84
I0
sg85
(iread_data
Room
p213
(dp214
g79
S'60'
p215
sg80
S'C1.112'
p216
sbsba(ischedule
Activity
p217
(dp218
g8
(lp219
S'40343779'
p220
aS'56191333'
p221
aS'14398123'
p222
aS'97135019'
p223
aS'7308727'
p224
aS'56121590'
p225
asg79
S'20'
p226
sg80
S'Netwerken en systeembeveiliging'
p227
sg82
S'labs'
p228
sg84
S'4'
p229
sg85
(iread_data
Room
p230
(dp231
g79
S'20'
p232
sg80
S'A1.08'
p233
sbsbaa(lp234
(ischedule
Activity
p235
(dp236
g8
(lp237
S'26857113'
p238
aS'33252501'
p239
aS'77240949'
p240
aS'61518436'
p241
aS'3685034'
p242
ag58
aS'38296757'
p243
aS'90067329'
p244
aS'94467156'
p245
aS'56988998'
p246
ag60
ag63
aS'15051051'
p247
ag13
aS'85236626'
p248
aS'63111000'
p249
aS'23798155'
p250
ag51
aS'67625383'
p251
aS'5976174'
p252
aS'46701583'
p253
ag150
asg79
I1000
sg80
S'Machine Learning'
p254
sg82
g83
sg84
I0
sg85
(iread_data
Room
p255
(dp256
g79
g139
sg80
g140
sbsba(ischedule
Activity
p257
(dp258
g8
(lp259
g150
ag65
ag147
aS'70844780'
p260
aS'60352393'
p261
aS'82872148'
p262
aS'85284256'
p263
ag108
ag54
aS'38499176'
p264
aS'62736669'
p265
aS'72665524'
p266
aS'63573738'
p267
ag70
aS'16912993'
p268
ag161
aS'87830198'
p269
aS'1048485'
p270
aS'29640619'
p271
aS'33930505'
p272
ag107
aS'66120270'
p273
ag66
ag145
aS'3883025'
p274
ag115
aS'64246605'
p275
aS'62363761'
p276
aS'5590289'
p277
aS'535689'
p278
aS'25557516'
p279
aS'4709948'
p280
aS'48678993'
p281
aS'53267490'
p282
ag130
aS'72456780'
p283
aS'19058315'
p284
aS'21677389'
p285
aS'31247305'
p286
aS'59887191'
p287
aS'12170832'
p288
aS'8522855'
p289
aS'30195935'
p290
aS'9731271'
p291
aS'26207525'
p292
asg79
g226
sg80
g227
sg82
g228
sg84
S'3'
p293
sg85
(iread_data
Room
p294
(dp295
g79
g215
sg80
g216
sbsba(ischedule
Activity
p296
(dp297
g8
(lp298
S'87602030'
p299
ag96
aS'16097870'
p300
ag43
ag73
aS'78443067'
p301
aS'38179241'
p302
ag57
ag158
aS'6709529'
p303
aS'10149535'
p304
ag100
ag21
aS'33672995'
p305
aS'78544592'
p306
aS'74182182'
p307
aS'58592894'
p308
aS'47477884'
p309
aS'44868097'
p310
aS'58040377'
p311
aS'47932106'
p312
aS'86180471'
p313
aS'81155296'
p314
ag210
ag40
aS'6939933'
p315
ag223
aS'26260141'
p316
aS'80188025'
p317
aS'4546613'
p318
asg79
S'40'
p319
sg80
S'Calculus 2'
p320
sg82
S'tutorials'
p321
sg84
g293
sg85
(iread_data
Room
p322
(dp323
g79
g171
sg80
g172
sbsba(ischedule
Activity
p324
(dp325
g8
(lp326
S'23257088'
p327
ag14
ag127
aS'62701040'
p328
aS'58332004'
p329
aS'18266644'
p330
ag164
aS'75585647'
p331
aS'11459236'
p332
aS'19958553'
p333
aS'23983476'
p334
aS'77636749'
p335
aS'17496687'
p336
ag159
aS'32204977'
p337
aS'8557857'
p338
ag112
aS'36748818'
p339
ag103
ag133
aS'29718115'
p340
asg79
I1000
sg80
S'Informatie- en organsatieontwerp'
p341
sg82
g83
sg84
I0
sg85
(iread_data
Room
p342
(dp343
g79
S'22'
p344
sg80
S'A1.06'
p345
sbsba(ischedule
Activity
p346
(dp347
g8
(lp348
g68
aS'43027916'
p349
ag30
aS'28357474'
p350
ag193
ag104
ag208
ag125
ag124
ag44
aS'73980360'
p351
ag191
aS'64393888'
p352
aS'50184318'
p353
aS'22699561'
p354
aS'31416266'
p355
asg79
S'20'
p356
sg80
S'Collectieve Intelligentie'
p357
sg82
g321
sg84
g293
sg85
(iread_data
Room
p358
(dp359
g79
g88
sg80
g89
sbsba(ischedule
Activity
p360
(dp361
g8
(lp362
S'40911986'
p363
aS'19662602'
p364
ag45
aS'11068043'
p365
aS'73823548'
p366
ag15
ag102
aS'75005528'
p367
ag35
aS'84110134'
p368
aS'32044893'
p369
aS'28618400'
p370
ag56
aS'77831658'
p371
aS'81116418'
p372
asg79
S'15'
p373
sg80
S'Project Numerical Recipes'
p374
sg82
g228
sg84
S'1'
p375
sg85
(iread_data
Room
p376
(dp377
g79
g232
sg80
g233
sbsba(ischedule
Activity
p378
(dp379
g8
(lp380
g160
aS'74361881'
p381
aS'41644639'
p382
aS'65675896'
p383
aS'82066165'
p384
aS'1695839'
p385
aS'26406342'
p386
aS'44151631'
p387
aS'42297781'
p388
aS'52715680'
p389
aS'47260040'
p390
aS'91250534'
p391
ag24
aS'55103073'
p392
ag110
aS'14383795'
p393
aS'5085194'
p394
asg79
S'15'
p395
sg80
S'Compilerbouw practicum'
p396
sg82
g228
sg84
S'2'
p397
sg85
(iread_data
Room
p398
(dp399
g79
S'56'
p400
sg80
S'A1.10'
p401
sbsbaa(lp402
(ischedule
Activity
p403
(dp404
g8
(lp405
g161
ag126
aS'22731474'
p406
ag32
aS'89985072'
p407
aS'59544049'
p408
aS'64600457'
p409
aS'54026378'
p410
ag10
ag144
aS'30050930'
p411
aS'28359697'
p412
ag96
aS'42196732'
p413
ag247
aS'88176729'
p414
ag98
ag202
asg79
S'20'
p415
sg80
S'Bioinformatica'
p416
sg82
g228
sg84
g397
sg85
(iread_data
Room
p417
(dp418
g79
g171
sg80
g172
sbsba(ischedule
Activity
p419
(dp420
g8
(lp421
S'41527759'
p422
ag160
aS'77376714'
p423
ag182
ag75
aS'78136904'
p424
ag15
ag252
ag389
aS'96453361'
p425
ag55
ag334
ag37
aS'53585410'
p426
aS'21095566'
p427
aS'64947290'
p428
aS'1665980'
p429
ag180
aS'41585485'
p430
aS'15902055'
p431
ag162
aS'64554442'
p432
aS'23652927'
p433
aS'82689818'
p434
aS'44828429'
p435
aS'88596522'
p436
ag253
aS'67817269'
p437
aS'3707829'
p438
ag308
ag115
ag220
ag316
aS'19540225'
p439
aS'91527663'
p440
ag289
ag155
aS'34765676'
p441
aS'27298319'
p442
aS'51509565'
p443
ag108
asg79
S'25'
p444
sg80
S'Algoritmen en complexiteit'
p445
sg82
g321
sg84
g397
sg85
(iread_data
Room
p446
(dp447
g79
g88
sg80
g89
sbsba(ischedule
Activity
p448
(dp449
g8
(lp450
g48
ag147
aS'62356458'
p451
aS'90103047'
p452
ag77
aS'89338938'
p453
aS'13092455'
p454
ag307
ag121
ag315
aS'37419523'
p455
aS'12430748'
p456
aS'42406214'
p457
aS'19214659'
p458
ag30
ag267
ag242
ag149
ag224
ag70
ag19
aS'63939720'
p459
aS'32183908'
p460
asg79
g373
sg80
g374
sg82
g228
sg84
g293
sg85
(iread_data
Room
p461
(dp462
g79
g139
sg80
g140
sbsba(ischedule
Activity
p463
(dp464
g8
(lp465
g204
ag67
ag306
aS'24277163'
p466
aS'17222374'
p467
ag249
aS'49631542'
p468
ag105
ag280
asg79
S'20'
p469
sg80
S'Moderne Databases'
p470
sg82
g228
sg84
g397
sg85
(iread_data
Room
p471
(dp472
g79
g232
sg80
g233
sbsba(ischedule
Activity
p473
(dp474
g8
(lp475
S'58480929'
p476
ag330
aS'82854435'
p477
ag300
ag283
aS'18477924'
p478
ag371
aS'42115591'
p479
aS'56815156'
p480
aS'73302736'
p481
aS'97838175'
p482
aS'56544130'
p483
ag281
ag151
ag269
aS'51542218'
p484
aS'94955328'
p485
aS'62613937'
p486
ag305
ag349
aS'41578612'
p487
ag203
aS'73350019'
p488
aS'72586808'
p489
aS'36785409'
p490
ag317
ag66
aS'65318664'
p491
aS'85335143'
p492
aS'88737765'
p493
ag36
aS'14637758'
p494
ag250
aS'78821918'
p495
aS'34900967'
p496
aS'60661905'
p497
ag117
aS'13718298'
p498
aS'23658570'
p499
ag131
aS'64296965'
p500
ag122
ag100
ag394
aS'4921119'
p501
aS'70193386'
p502
ag101
aS'78822885'
p503
aS'23565001'
p504
asg79
I1000
sg80
S'Analysemethoden en -technieken'
p505
sg82
g83
sg84
I0
sg85
(iread_data
Room
p506
(dp507
g79
g400
sg80
g401
sbsba(ischedule
Activity
p508
(dp509
g8
(lp510
S'123355'
p511
aS'51741554'
p512
ag167
ag114
asg79
g226
sg80
g227
sg82
g228
sg84
g397
sg85
(iread_data
Room
p513
(dp514
g79
g344
sg80
g345
sbsbaa(lp515
(ischedule
Activity
p516
(dp517
g8
(lp518
g11
ag19
ag29
ag47
ag61
ag52
ag67
ag59
ag78
ag73
ag74
ag55
ag22
ag49
ag12
ag24
ag25
ag71
ag27
ag66
ag43
ag57
ag56
ag72
ag16
ag26
ag68
ag45
ag41
ag21
ag34
ag53
ag36
ag69
ag37
ag31
ag54
ag40
ag32
ag18
ag63
ag62
ag14
ag50
ag65
ag39
ag48
ag75
asg79
S'40'
p519
sg80
g81
sg82
g321
sg84
g397
sg85
(iread_data
Room
p520
(dp521
g79
g139
sg80
g140
sbsba(ischedule
Activity
p522
(dp523
g8
(lp524
g145
ag120
ag157
asg79
S'10'
p525
sg80
g168
sg82
g321
sg84
g375
sg85
(iread_data
Room
p526
(dp527
g79
g232
sg80
g233
sbsba(ischedule
Activity
p528
(dp529
g8
(lp530
g162
ag155
ag151
asg79
S'10'
p531
sg80
g168
sg82
g228
sg84
g293
sg85
(iread_data
Room
p532
(dp533
g79
g88
sg80
g89
sbsba(ischedule
Activity
p534
(dp535
g8
(lp536
S'43680781'
p537
aS'96054456'
p538
aS'29526540'
p539
ag365
ag290
ag492
ag371
aS'5298748'
p540
aS'79617364'
p541
ag272
asg79
g415
sg80
g416
sg82
g228
sg84
g375
sg85
(iread_data
Room
p542
(dp543
g79
g400
sg80
g401
sbsba(ischedule
Activity
p544
(dp545
g8
(lp546
g127
ag113
ag46
ag123
ag124
ag132
ag117
ag126
ag104
ag119
ag98
ag101
ag116
ag105
ag102
ag133
ag100
ag95
ag134
ag97
ag94
ag128
ag96
ag115
ag125
ag103
ag110
ag118
ag107
ag109
ag106
ag129
asg79
S'25'
p547
sg80
g136
sg82
g321
sg84
g375
sg85
(iread_data
Room
p548
(dp549
g79
g215
sg80
g216
sbsba(ischedule
Activity
p550
(dp551
g8
(lp552
S'27582862'
p553
ag193
ag13
aS'92778619'
p554
ag271
aS'63096281'
p555
ag431
ag28
ag150
ag496
ag179
ag328
ag206
ag280
aS'37399898'
p556
aS'3678531'
p557
ag60
ag264
aS'7386961'
p558
aS'10702778'
p559
ag355
aS'55474917'
p560
ag77
ag428
ag263
aS'51593625'
p561
ag184
ag497
ag253
aS'44671041'
p562
aS'73893840'
p563
aS'23215240'
p564
aS'54395877'
p565
aS'88263855'
p566
aS'51791169'
p567
asg79
S'20'
p568
sg80
S'Programmeren in Java 2'
p569
sg82
g228
sg84
g293
sg85
(iread_data
Room
p570
(dp571
g79
g171
sg80
g172
sbsba(ischedule
Activity
p572
(dp573
g8
(lp574
S'3168419'
p575
aS'1886996'
p576
ag210
ag266
ag370
ag131
ag191
aS'72683344'
p577
ag20
ag309
ag261
ag198
ag424
ag260
ag486
aS'20883994'
p578
aS'40633534'
p579
aS'23547619'
p580
aS'39429093'
p581
ag121
asg79
I1000
sg80
S'Advanced Heuristics'
p582
sg82
g83
sg84
I0
sg85
(iread_data
Room
p583
(dp584
g79
g344
sg80
g345
sbsbaa(lp585
(ischedule
Activity
p586
(dp587
g8
(lp588
g250
ag135
ag192
aS'59289233'
p589
aS'58866007'
p590
aS'13798030'
p591
ag58
ag187
aS'45556081'
p592
aS'70015932'
p593
ag340
ag191
ag304
ag42
aS'27925117'
p594
ag189
ag434
ag577
ag43
ag370
ag134
asg79
I1000
sg80
S'Architectuur en computerorganisatie'
p595
sg82
g83
sg84
I0
sg85
(iread_data
Room
p596
(dp597
g79
g215
sg80
g216
sbsba(ischedule
Activity
p598
(dp599
g8
(lp600
g389
ag55
ag424
ag316
ag426
ag308
ag180
ag155
ag442
ag253
ag431
ag75
ag422
ag108
ag220
ag289
ag432
ag427
ag37
aS'14671406'
p601
ag252
ag441
ag443
ag428
ag429
ag423
aS'66433883'
p602
ag433
ag160
ag334
ag435
ag182
ag440
ag438
asg79
S'25'
p603
sg80
g445
sg82
g228
sg84
g397
sg85
(iread_data
Room
p604
(dp605
g79
g88
sg80
g89
sbsba(ischedule
Activity
p606
(dp607
g8
(lp608
g11
ag19
ag44
ag34
ag13
ag15
ag29
ag39
ag22
ag49
ag69
ag48
ag54
ag36
ag38
ag31
ag52
ag67
ag60
ag26
ag14
ag16
ag20
ag33
ag40
ag17
ag47
ag63
asg79
S'40'
p609
sg80
g81
sg82
g228
sg84
g397
sg85
(iread_data
Room
p610
(dp611
g79
g171
sg80
g172
sbsba(ischedule
Activity
p612
(dp613
g8
(lp614
g10
ag537
ag164
ag162
ag578
ag413
ag247
ag540
ag161
ag144
ag202
ag411
ag492
ag407
ag68
ag128
ag538
aS'21029457'
p615
ag78
ag575
ag409
ag32
ag98
ag371
ag365
ag408
ag72
ag412
ag310
ag406
aS'6913074'
p616
ag290
aS'247918'
p617
ag272
ag414
ag96
aS'22826928'
p618
ag410
ag224
ag126
ag273
ag480
ag541
ag425
ag539
asg79
I1000
sg80
g416
sg82
g83
sg84
I0
sg85
(iread_data
Room
p619
(dp620
g79
g400
sg80
g401
sbsba(ischedule
Activity
p621
(dp622
g8
(lp623
S'99283252'
p624
aS'83415514'
p625
ag301
ag204
aS'27916487'
p626
aS'27241113'
p627
ag353
ag306
ag467
aS'46570285'
p628
ag131
ag25
aS'33776961'
p629
aS'59111489'
p630
aS'66621166'
p631
asg79
S'20'
p632
sg80
g470
sg82
g321
sg84
g293
sg85
(iread_data
Room
p633
(dp634
g79
g232
sg80
g233
sbsba(ischedule
Activity
p635
(dp636
g8
(lp637
g127
ag330
ag329
ag335
ag328
ag338
ag159
ag339
ag333
ag332
ag133
ag337
asg79
S'15'
p638
sg80
g341
sg82
g321
sg84
g375
sg85
(iread_data
Room
p639
(dp640
g79
g344
sg80
g345
sbsba(ischedule
Activity
p641
(dp642
g8
(lp643
S'52552718'
p644
ag103
ag117
aS'70113753'
p645
ag109
aS'36508571'
p646
asg79
S'10'
p647
sg80
S'Autonomous Agents 2'
p648
sg82
g321
sg84
g293
sg85
(iread_data
Room
p649
(dp650
g79
g139
sg80
g140
sbsbaaa(lp651
(lp652
(ischedule
Activity
p653
(dp654
g8
(lp655
g560
ag408
ag368
ag410
aS'31633723'
p656
ag453
ag19
aS'25106480'
p657
ag271
ag286
ag479
ag422
ag160
ag318
ag104
aS'48601268'
p658
ag11
aS'3233378'
p659
ag117
ag350
ag601
ag624
ag481
ag316
ag644
ag562
ag245
ag301
ag491
aS'3727435'
p660
ag427
ag120
aS'65408517'
p661
ag151
aS'37830626'
p662
ag100
ag561
aS'31103066'
p663
ag414
ag423
aS'62105897'
p664
ag262
aS'14072826'
p665
aS'80709893'
p666
ag67
ag451
ag12
aS'83210352'
p667
ag150
ag187
ag202
ag310
aS'45915482'
p668
ag123
ag64
aS'58074656'
p669
ag192
aS'96554914'
p670
ag553
asg79
S'40'
p671
sg80
S'Software engineering'
p672
sg82
g321
sg84
g375
sg85
(iread_data
Room
p673
(dp674
g79
g88
sg80
g89
sbsba(ischedule
Activity
p675
(dp676
g8
(lp677
g241
ag497
ag203
ag109
aS'36213792'
p678
ag554
ag133
ag498
ag457
ag466
ag55
ag59
ag261
ag490
asg79
S'20'
p679
sg80
S'Reflectie op de digitale cultuur'
p680
sg82
g321
sg84
g397
sg85
(iread_data
Room
p681
(dp682
g79
g400
sg80
g401
sbsba(ischedule
Activity
p683
(dp684
g8
(lp685
S'27370083'
p686
ag242
aS'20239127'
p687
ag424
ag260
ag153
ag209
aS'49922855'
p688
aS'54569540'
p689
ag117
aS'51052738'
p690
aS'82390428'
p691
aS'99975346'
p692
ag502
asg79
g679
sg80
g680
sg82
g321
sg84
g375
sg85
(iread_data
Room
p693
(dp694
g79
g344
sg80
g345
sbsba(ischedule
Activity
p695
(dp696
g8
(lp697
S'63634350'
p698
ag155
ag300
ag406
ag52
ag252
ag311
ag204
ag281
ag576
ag248
ag113
ag132
aS'82968410'
p699
aS'83869542'
p700
ag299
asg79
S'20'
p701
sg80
S'Heuristieken 2'
p702
sg82
g321
sg84
g397
sg85
(iread_data
Room
p703
(dp704
g79
g232
sg80
g233
sbsba(ischedule
Activity
p705
(dp706
g8
(lp707
g127
ag75
aS'9332762'
p708
ag580
ag492
ag386
ag537
aS'7106649'
p709
ag14
aS'92496780'
p710
ag304
aS'76487754'
p711
aS'4697362'
p712
aS'21192048'
p713
ag56
ag487
ag205
aS'69086548'
p714
ag456
ag393
aS'77264363'
p715
aS'97371272'
p716
ag105
aS'58565406'
p717
ag65
ag103
asg79
S'20'
p718
sg80
S'Technology for games'
p719
sg82
g321
sg84
g375
sg85
(iread_data
Room
p720
(dp721
g79
g171
sg80
g172
sbsba(ischedule
Activity
p722
(dp723
g8
(lp724
g162
ag625
ag616
ag34
ag27
ag185
ag602
ag618
aS'28943658'
p725
ag409
aS'86000192'
p726
ag157
ag40
ag499
ag329
ag291
aS'68601184'
p727
aS'39905995'
p728
aS'70072978'
p729
ag430
ag44
aS'90296821'
p730
ag61
ag645
asg79
g568
sg80
g569
sg82
g228
sg84
g397
sg85
(iread_data
Room
p731
(dp732
g79
g139
sg80
g140
sbsba(ischedule
Activity
p733
(dp734
g8
(lp735
g98
aS'58469172'
p736
ag54
ag334
aS'15249775'
p737
aS'88597745'
p738
aS'23391676'
p739
ag327
ag149
aS'2550487'
p740
aS'34262212'
p741
ag148
aS'670011'
p742
aS'93566383'
p743
ag10
aS'88519892'
p744
aS'47982619'
p745
aS'99272880'
p746
aS'7492204'
p747
aS'37279234'
p748
ag270
asg79
g568
sg80
g569
sg82
g228
sg84
g375
sg85
(iread_data
Room
p749
(dp750
g79
g215
sg80
g216
sbsbaa(lp751
(ischedule
Activity
p752
(dp753
g8
(lp754
g426
ag190
ag35
ag176
ag208
ag331
ag557
ag243
aS'33760909'
p755
ag60
ag104
ag668
aS'72526473'
p756
aS'34173695'
p757
ag276
ag726
aS'22168693'
p758
ag512
ag253
aS'59220392'
p759
aS'56872729'
p760
ag541
aS'10609762'
p761
ag442
ag661
ag481
aS'55530367'
p762
aS'24875739'
p763
aS'40141996'
p764
aS'70939718'
p765
ag128
aS'58253841'
p766
ag538
ag10
aS'28957789'
p767
aS'75623387'
p768
ag431
aS'75446434'
p769
asg79
g319
sg80
g320
sg82
g321
sg84
g397
sg85
(iread_data
Room
p770
(dp771
g79
g88
sg80
g89
sbsba(ischedule
Activity
p772
(dp773
g8
(lp774
g630
aS'1181560'
p775
ag539
ag492
aS'36527838'
p776
ag204
aS'5517869'
p777
aS'48198668'
p778
ag627
aS'47462856'
p779
aS'41489515'
p780
ag25
ag280
ag249
ag629
ag192
ag47
ag729
aS'58699305'
p781
ag339
ag631
ag624
ag74
aS'84449005'
p782
ag43
ag467
ag626
ag124
ag131
ag127
ag468
ag495
ag105
ag625
ag537
ag308
ag353
aS'49219163'
p783
ag466
ag247
aS'96082155'
p784
ag67
ag301
aS'51650744'
p785
ag409
aS'18144425'
p786
ag14
aS'13218321'
p787
ag306
ag423
ag274
ag329
ag628
ag45
asg79
I1000
sg80
g470
sg82
g83
sg84
I0
sg85
(iread_data
Room
p788
(dp789
g79
g215
sg80
g216
sbsba(ischedule
Activity
p790
(dp791
g8
g588
sg79
I1000
sg80
g595
sg82
g83
sg84
I0
sg85
(iread_data
Room
p792
(dp793
g79
g139
sg80
g140
sbsba(ischedule
Activity
p794
(dp795
g8
(lp796
g146
ag163
ag161
ag167
ag151
ag152
ag147
asg79
g525
sg80
g168
sg82
g321
sg84
g397
sg85
(iread_data
Room
p797
(dp798
g79
g171
sg80
g172
sbsba(ischedule
Activity
p799
(dp800
g8
(lp801
g193
ag708
ag386
ag413
ag580
ag127
aS'54310617'
p802
ag454
ag429
aS'96104167'
p803
asg79
S'20'
p804
sg80
g357
sg82
g228
sg84
g375
sg85
(iread_data
Room
p805
(dp806
g79
g400
sg80
g401
sbsba(ischedule
Activity
p807
(dp808
g8
(lp809
g155
ag93
ag166
ag164
ag109
ag149
ag156
ag158
ag160
ag162
ag159
ag144
ag153
ag165
ag148
ag154
ag150
asg79
g525
sg80
g168
sg82
g321
sg84
g293
sg85
(iread_data
Room
p810
(dp811
g79
g232
sg80
g233
sbsba(ischedule
Activity
p812
(dp813
g8
(lp814
g44
ag740
aS'21070547'
p815
ag406
aS'34691309'
p816
ag72
asg79
g373
sg80
g374
sg82
g228
sg84
g397
sg85
(iread_data
Room
p817
(dp818
g79
g344
sg80
g345
sbsbaa(lp819
(ischedule
Activity
p820
(dp821
g8
(lp822
g665
ag301
ag407
ag656
ag553
ag662
ag192
ag491
ag389
ag670
ag286
ag451
ag666
ag479
ag350
ag644
ag560
ag64
ag593
ag561
ag562
ag104
ag658
ag245
ag310
ag669
ag668
ag72
ag414
ag100
ag427
ag453
ag126
ag271
ag67
ag365
ag19
ag120
ag664
ag220
ag59
ag410
ag661
ag160
ag252
ag481
ag12
ag657
ag663
ag408
ag667
aS'41153310'
p823
ag117
ag717
ag423
ag11
ag422
ag316
ag368
ag601
ag123
ag498
ag318
ag659
ag150
ag151
ag202
aS'68409833'
p824
ag624
aS'9287708'
p825
ag204
ag660
ag262
ag270
ag187
asg79
I1000
sg80
g672
sg82
g83
sg84
I0
sg85
(iread_data
Room
p826
(dp827
g79
g88
sg80
g89
sbsba(ischedule
Activity
p828
(dp829
g8
(lp830
g537
ag329
ag492
ag127
ag539
ag777
ag776
ag339
ag775
ag247
ag787
ag45
ag729
ag780
ag274
ag495
ag14
ag105
ag782
ag785
ag192
ag280
ag781
asg79
g632
sg80
g470
sg82
g321
sg84
g375
sg85
(iread_data
Room
p831
(dp832
g79
g171
sg80
g172
sbsba(ischedule
Activity
p833
(dp834
g8
(lp835
g162
ag353
ag68
ag355
ag30
ag467
asg79
g804
sg80
g357
sg82
g228
sg84
g229
sg85
(iread_data
Room
p836
(dp837
g79
g400
sg80
g401
sbsba(ischedule
Activity
p838
(dp839
g8
(lp840
g538
ag698
ag55
ag708
ag122
ag485
ag426
ag352
ag152
ag112
ag50
ag129
ag311
aS'77960666'
p841
ag501
asg79
g568
sg80
g569
sg82
g228
sg84
S'6'
p842
sg85
(iread_data
Room
p843
(dp844
g79
g139
sg80
g140
sbsba(ischedule
Activity
p845
(dp846
g8
(lp847
g209
ag765
ag103
ag330
ag370
ag434
ag37
ag44
ag489
asg79
g226
sg80
g227
sg82
g228
sg84
g375
sg85
(iread_data
Room
p848
(dp849
g79
g232
sg80
g233
sbsbaa(lp850
(ischedule
Activity
p851
(dp852
g8
(lp853
S'55412918'
p854
aS'35330349'
p855
ag123
ag541
aS'54074680'
p856
aS'62872965'
p857
aS'16011419'
p858
ag355
aS'66570705'
p859
ag556
ag30
ag646
ag776
ag34
ag824
aS'80998260'
p860
aS'21311067'
p861
aS'90743504'
p862
aS'79937969'
p863
ag66
aS'87758823'
p864
ag264
aS'26172512'
p865
aS'34588570'
p866
ag666
ag760
ag37
ag485
ag590
ag110
aS'94686490'
p867
ag560
ag182
ag504
ag300
ag413
aS'96118484'
p868
ag307
ag148
ag367
ag479
ag487
ag743
ag742
ag501
ag197
ag777
ag56
ag94
ag151
aS'32595335'
p869
ag128
ag304
ag667
asg79
I1000
sg80
S'Lineaire Algebra'
p870
sg82
g83
sg84
I0
sg85
(iread_data
Room
p871
(dp872
g79
g88
sg80
g89
sbsba(ischedule
Activity
p873
(dp874
g8
(lp875
g335
ag334
ag103
asg79
S'15'
p876
sg80
g341
sg82
g228
sg84
g397
sg85
(iread_data
Room
p877
(dp878
g79
g139
sg80
g140
sbsba(ischedule
Activity
p879
(dp880
g8
(lp881
g537
ag492
ag224
ag540
ag539
ag480
ag410
ag616
ag615
ag411
ag247
asg79
S'20'
p882
sg80
g416
sg82
g321
sg84
g397
sg85
(iread_data
Room
p883
(dp884
g79
g215
sg80
g216
sbsba(ischedule
Activity
p885
(dp886
g8
(lp887
g164
ag133
ag332
ag112
ag331
ag328
ag333
ag340
ag336
ag159
ag127
ag330
ag329
ag339
ag327
ag338
ag14
ag337
asg79
g876
sg80
g341
sg82
g228
sg84
g375
sg85
(iread_data
Room
p888
(dp889
g79
g344
sg80
g345
sbsba(ischedule
Activity
p890
(dp891
g8
(lp892
g423
ag43
ag124
ag308
ag466
ag409
ag47
ag778
ag74
ag783
ag784
ag67
ag249
ag468
ag786
ag779
asg79
g632
sg80
g470
sg82
g321
sg84
g397
sg85
(iread_data
Room
p893
(dp894
g79
g232
sg80
g233
sbsba(ischedule
Activity
p895
(dp896
g8
(lp897
g313
aS'25077484'
p898
ag495
ag78
ag222
ag782
aS'25994016'
p899
ag57
ag384
aS'14179347'
p900
aS'5526560'
p901
ag493
aS'51673172'
p902
ag381
aS'76924297'
p903
ag269
ag299
ag657
ag382
ag766
asg79
S'15'
p904
sg80
S'Project Genetic Algorithms'
p905
sg82
g228
sg84
g375
sg85
(iread_data
Room
p906
(dp907
g79
g400
sg80
g401
sbsba(ischedule
Activity
p908
(dp909
g8
g175
sg79
I1000
sg80
g212
sg82
g83
sg84
I0
sg85
(iread_data
Room
p910
(dp911
g79
g171
sg80
g172
sbsbaa(lp912
(ischedule
Activity
p913
(dp914
g8
(lp915
g94
ag424
ag741
aS'37498675'
p916
ag128
ag60
ag368
aS'72547110'
p917
ag264
aS'63408522'
p918
ag222
ag687
ag335
ag484
ag628
ag422
ag714
ag747
aS'63955238'
p919
aS'44940353'
p920
ag406
ag241
ag68
aS'10872825'
p921
aS'78735049'
p922
ag716
aS'82688900'
p923
ag330
ag122
ag746
ag242
ag903
ag767
ag485
ag479
ag11
ag176
aS'38329455'
p924
aS'51186803'
p925
ag763
ag291
ag240
ag739
ag148
ag802
ag52
ag779
ag453
ag108
ag245
ag601
ag430
ag538
ag73
aS'79858178'
p926
ag689
ag246
aS'79366078'
p927
ag289
aS'39659121'
p928
aS'39919665'
p929
ag560
ag500
ag468
ag16
ag578
ag157
aS'32705005'
p930
ag98
ag736
ag286
ag250
ag130
ag134
aS'91139627'
p931
aS'65003379'
p932
aS'47605891'
p933
ag329
ag656
ag66
ag307
ag698
ag408
ag207
asg79
I1000
sg80
S'Kansrekenen 2'
p934
sg82
g83
sg84
I0
sg85
(iread_data
Room
p935
(dp936
g79
g88
sg80
g89
sbsba(ischedule
Activity
p937
(dp938
g8
(lp939
g349
ag500
ag434
aS'57595888'
p940
ag30
ag429
ag802
ag223
aS'46052388'
p941
aS'34773179'
p942
ag68
ag271
ag657
ag44
ag104
ag352
ag193
ag864
ag413
aS'29474737'
p943
aS'13534377'
p944
ag777
ag124
ag658
ag386
ag467
ag195
ag162
ag512
ag454
ag726
ag855
aS'1075391'
p945
ag19
ag708
ag355
ag328
ag353
ag125
ag351
ag755
ag592
ag191
ag31
ag127
ag354
ag350
ag34
ag431
ag240
ag466
ag224
ag22
ag727
ag107
ag803
ag160
ag580
ag208
aS'17575088'
p946
ag659
asg79
I1000
sg80
g357
sg82
g83
sg84
I0
sg85
(iread_data
Room
p947
(dp948
g79
g215
sg80
g216
sbsba(ischedule
Activity
p949
(dp950
g8
(lp951
g318
ag435
ag198
ag314
ag199
ag441
ag285
ag37
ag580
ag903
aS'69634191'
p952
ag743
aS'28055464'
p953
ag57
ag161
ag740
aS'64768422'
p954
ag438
ag16
ag458
aS'20374340'
p955
ag302
ag556
ag383
aS'37701751'
p956
asg79
I1000
sg80
S'Interactie-ontwerp'
p957
sg82
g83
sg84
I0
sg85
(iread_data
Room
p958
(dp959
g79
g400
sg80
g401
sbsba(ischedule
Activity
p960
(dp961
g8
(lp962
g155
ag442
ag13
ag29
aS'88627897'
p963
ag410
ag300
aS'34806836'
p964
ag857
asg79
g647
sg80
g648
sg82
g321
sg84
g397
sg85
(iread_data
Room
p965
(dp966
g79
g344
sg80
g345
sbsba(ischedule
Activity
p967
(dp968
g8
(lp969
g498
ag252
ag204
ag717
ag389
ag59
ag593
ag825
ag72
ag365
ag407
ag220
ag823
ag270
ag824
ag126
asg79
g671
sg80
g672
sg82
g321
sg84
g397
sg85
(iread_data
Room
p970
(dp971
g79
g139
sg80
g140
sbsba(ischedule
Activity
p972
(dp973
g8
(lp974
g164
ag340
ag14
ag103
ag336
ag112
ag331
ag334
ag327
asg79
g638
sg80
g341
sg82
g321
sg84
g397
sg85
(iread_data
Room
p975
(dp976
g79
g171
sg80
g172
sbsbaaa(lp977
(lp978
(ischedule
Activity
p979
(dp980
g8
g915
sg79
I1000
sg80
g934
sg82
g83
sg84
I0
sg85
g826
sba(ischedule
Activity
p981
(dp982
g8
g326
sg79
I1000
sg80
g341
sg82
g83
sg84
I0
sg85
(iread_data
Room
p983
(dp984
g79
g344
sg80
g345
sbsba(ischedule
Activity
p985
(dp986
g8
(lp987
g644
ag11
ag117
ag300
ag97
ag645
ag824
ag13
ag442
ag777
ag857
ag963
ag144
ag103
ag155
ag646
ag451
ag410
aS'61611295'
p988
ag29
ag964
ag109
asg79
I1000
sg80
g648
sg82
g83
sg84
I0
sg85
(iread_data
Room
p989
(dp990
g79
g400
sg80
g401
sbsba(ischedule
Activity
p991
(dp992
g8
(lp993
g192
ag252
ag204
ag498
ag667
ag350
ag123
ag271
ag67
ag72
ag658
ag64
ag664
ag310
ag316
ag491
ag624
ag301
ag100
ag120
ag318
ag657
ag12
ag717
ag19
asg79
S'40'
p994
sg80
g672
sg82
g228
sg84
g397
sg85
(iread_data
Room
p995
(dp996
g79
g139
sg80
g140
sbsba(ischedule
Activity
p997
(dp998
g8
(lp999
g616
ag618
ag537
ag487
ag670
ag52
ag146
ag269
ag540
aS'90474003'
p1000
ag243
ag369
aS'27805666'
p1001
ag454
ag629
ag556
ag389
ag782
ag280
aS'20095994'
p1002
ag841
aS'51415617'
p1003
aS'68286356'
p1004
asg79
g679
sg80
g680
sg82
g321
sg84
g293
sg85
(iread_data
Room
p1005
(dp1006
g79
g215
sg80
g216
sbsba(ischedule
Activity
p1007
(dp1008
g8
(lp1009
g575
ag580
ag191
ag210
ag370
ag260
ag577
ag424
ag579
ag261
ag266
ag578
ag309
ag581
ag198
ag121
ag576
ag486
asg79
S'10'
p1010
sg80
g582
sg82
g228
sg84
g375
sg85
(iread_data
Room
p1011
(dp1012
g79
g171
sg80
g172
sbsba(ischedule
Activity
p1013
(dp1014
g8
(lp1015
g203
ag709
ag692
ag737
ag742
aS'5739011'
p1016
aS'35315956'
p1017
ag147
ag349
ag193
ag441
ag594
aS'72652638'
p1018
aS'52304977'
p1019
ag161
ag755
asg79
g701
sg80
g702
sg82
g321
sg84
g375
sg85
(iread_data
Room
p1020
(dp1021
g79
g232
sg80
g233
sbsbaa(lp1022
(ischedule
Activity
p1023
(dp1024
g8
(lp1025
g177
ag178
ag200
ag201
ag189
ag194
ag193
ag208
ag206
ag202
ag199
ag190
ag184
ag209
ag205
ag176
ag179
ag187
ag186
ag210
ag197
ag196
ag183
ag182
ag15
ag198
ag192
ag191
ag111
ag32
ag181
ag211
ag204
ag188
ag180
ag203
ag207
ag185
asg79
S'20'
p1026
sg80
g212
sg82
g321
sg84
g375
sg85
(iread_data
Room
p1027
(dp1028
g79
g88
sg80
g89
sbsba(ischedule
Activity
p1029
(dp1030
g8
(lp1031
g58
ag72
ag78
ag55
ag42
ag43
ag68
ag75
ag74
ag37
ag10
ag77
ag12
ag73
ag30
ag46
ag51
ag27
ag18
ag25
ag23
ag66
ag35
ag45
ag21
ag65
ag50
ag28
ag56
ag64
ag41
ag57
ag59
ag32
ag53
ag76
ag62
ag61
ag70
ag24
ag71
asg79
g609
sg80
g81
sg82
g228
sg84
g375
sg85
(iread_data
Room
p1032
(dp1033
g79
g171
sg80
g172
sbsba(ischedule
Activity
p1034
(dp1035
g8
(lp1036
g429
ag127
ag19
ag580
ag944
ag434
ag500
ag223
ag940
ag657
ag941
ag31
ag224
ag160
ag658
ag708
asg79
g356
sg80
g357
sg82
g321
sg84
g229
sg85
(iread_data
Room
p1037
(dp1038
g79
g232
sg80
g233
sbsba(ischedule
Activity
p1039
(dp1040
g8
(lp1041
g625
ag628
ag291
aS'79888156'
p1042
ag664
ag698
ag615
aS'19717077'
p1043
ag366
ag854
ag867
aS'23628642'
p1044
ag121
ag748
ag930
ag409
ag594
aS'31306819'
p1045
aS'77306636'
p1046
ag266
aS'93361408'
p1047
ag616
aS'11593163'
p1048
ag483
aS'61520025'
p1049
ag499
aS'65978354'
p1050
ag131
ag781
ag922
ag900
aS'56348773'
p1051
ag736
aS'12091019'
p1052
ag492
aS'53139134'
p1053
ag504
aS'82412626'
p1054
asg79
g319
sg80
g320
sg82
g321
sg84
g375
sg85
(iread_data
Room
p1055
(dp1056
g79
g139
sg80
g140
sbsba(ischedule
Activity
p1057
(dp1058
g8
g987
sg79
I1000
sg80
g648
sg82
g83
sg84
I0
sg85
(iread_data
Room
p1059
(dp1060
g79
g400
sg80
g401
sbsba(ischedule
Activity
p1061
(dp1062
g8
(lp1063
g328
ag943
ag864
ag466
ag107
ag34
ag454
ag945
ag592
ag726
ag942
ag803
ag755
ag946
ag22
ag727
ag659
ag162
ag802
asg79
g356
sg80
g357
sg82
g321
sg84
g397
sg85
g294
sba(ischedule
Activity
p1064
(dp1065
g8
(lp1066
g195
asg79
g1026
sg80
g212
sg82
g321
sg84
g397
sg85
(iread_data
Room
p1067
(dp1068
g79
g344
sg80
g345
sbsbaa(lp1069
(ischedule
Activity
p1070
(dp1071
g8
(lp1072
g580
ag109
ag712
aS'70336464'
p1073
ag711
ag304
ag127
ag492
ag717
ag716
ag67
ag537
ag745
ag205
ag715
ag56
ag105
aS'93041523'
p1074
ag14
ag65
ag41
ag714
ag487
ag189
ag456
ag75
ag709
ag710
ag393
ag708
ag453
ag713
ag337
ag386
ag103
ag120
ag335
ag490
asg79
I1000
sg80
g719
sg82
g83
sg84
I0
sg85
(iread_data
Room
p1075
(dp1076
g79
g215
sg80
g216
sbsba(ischedule
Activity
p1077
(dp1078
g8
(lp1079
g271
ag44
ag125
ag500
ag224
ag104
ag160
ag942
ag107
ag512
ag240
ag352
ag940
ag191
ag195
ag941
ag354
ag943
ag22
ag657
ag431
ag31
ag946
ag466
ag34
ag592
ag350
ag19
ag855
ag349
asg79
g804
sg80
g357
sg82
g228
sg84
g397
sg85
(iread_data
Room
p1080
(dp1081
g79
g88
sg80
g89
sbsba(ischedule
Activity
p1082
(dp1083
g8
(lp1084
g290
ag96
ag10
ag365
ag412
ag538
ag68
ag164
ag575
ag425
ag72
ag617
asg79
g882
sg80
g416
sg82
g321
sg84
g375
sg85
(iread_data
Room
p1085
(dp1086
g79
g344
sg80
g345
sbsba(ischedule
Activity
p1087
(dp1088
g8
(lp1089
g98
ag78
ag408
ag371
ag32
ag406
ag413
ag273
ag409
ag407
ag128
ag144
ag126
ag202
ag541
ag161
ag578
ag414
ag310
ag162
ag618
ag272
asg79
g882
sg80
g416
sg82
g321
sg84
g293
sg85
(iread_data
Room
p1090
(dp1091
g79
g400
sg80
g401
sbsba(ischedule
Activity
p1092
(dp1093
g8
(lp1094
g223
ag777
ag755
ag124
ag945
ag727
ag659
ag208
ag864
ag351
ag434
ag328
ag658
ag944
ag726
asg79
g804
sg80
g357
sg82
g228
sg84
g293
sg85
(iread_data
Room
p1095
(dp1096
g79
g139
sg80
g140
sbsba(ischedule
Activity
p1097
(dp1098
g8
(lp1099
g108
ag629
ag99
ag664
aS'73196865'
p1100
ag309
ag238
ag823
aS'12782624'
p1101
ag245
ag248
ag249
ag121
aS'64053722'
p1102
asg79
g568
sg80
g569
sg82
g228
sg84
g229
sg85
(iread_data
Room
p1103
(dp1104
g79
g232
sg80
g233
sbsbaa(lp1105
(ischedule
Activity
p1106
(dp1107
g8
(lp1108
g162
ag480
ag78
ag618
ag273
ag575
ag578
ag615
ag72
ag425
ag68
ag310
ag616
ag617
ag224
ag128
ag164
asg79
g415
sg80
g416
sg82
g228
sg84
g293
sg85
(iread_data
Room
p1109
(dp1110
g79
g232
sg80
g233
sbsba(ischedule
Activity
p1111
(dp1112
g8
(lp1113
g286
ag560
ag59
ag422
ag368
ag410
ag245
ag644
ag451
ag453
ag11
ag389
ag479
ag601
ag661
ag408
ag824
ag656
ag117
ag670
ag160
ag662
ag220
ag668
ag669
ag365
ag663
ag561
ag414
ag593
ag562
ag553
ag202
ag126
ag270
ag825
ag427
ag262
ag666
ag659
ag104
ag407
ag187
ag481
ag151
ag660
ag150
ag423
ag823
ag665
asg79
g994
sg80
g672
sg82
g228
sg84
g375
sg85
(iread_data
Room
p1114
(dp1115
g79
g215
sg80
g216
sbsba(ischedule
Activity
p1116
(dp1117
g8
(lp1118
g121
ag131
ag108
ag114
ag93
ag135
ag120
ag99
ag130
ag111
ag112
ag122
asg79
g547
sg80
g136
sg82
g321
sg84
g397
sg85
(iread_data
Room
p1119
(dp1120
g79
g139
sg80
g140
sbsba(ischedule
Activity
p1121
(dp1122
g8
(lp1123
g777
ag124
ag353
ag127
ag192
ag537
ag47
ag74
ag627
ag786
ag539
ag409
ag784
ag43
ag630
ag629
ag729
ag626
ag625
ag778
ag631
ag783
ag779
ag274
ag495
ag45
ag628
ag787
ag776
ag624
ag782
ag308
ag780
ag492
ag781
ag775
asg79
g469
sg80
g470
sg82
g228
sg84
g375
sg85
(iread_data
Room
p1124
(dp1125
g79
g88
sg80
g89
sbsba(ischedule
Activity
p1126
(dp1127
g8
(lp1128
g144
asg79
S'10'
p1129
sg80
g648
sg82
g228
sg84
g293
sg85
(iread_data
Room
p1130
(dp1131
g79
g344
sg80
g345
sbsba(ischedule
Activity
p1132
(dp1133
g8
(lp1134
g204
ag700
ag349
ag155
ag300
ag1016
ag147
ag709
ag406
ag737
ag1019
ag193
ag699
ag692
ag203
ag52
ag594
ag441
ag132
ag1018
ag113
ag742
ag311
ag1017
ag161
ag576
ag299
ag755
ag281
ag698
ag248
ag252
asg79
I1000
sg80
g702
sg82
g83
sg84
I0
sg85
(iread_data
Room
p1135
(dp1136
g79
g400
sg80
g401
sbsba(ischedule
Activity
p1137
(dp1138
g8
(lp1139
g46
ag13
ag38
ag28
ag42
ag17
ag60
ag44
ag77
ag33
ag20
ag51
ag70
ag10
ag35
ag30
ag23
ag15
ag58
ag64
ag76
asg79
g519
sg80
g81
sg82
g321
sg84
g375
sg85
(iread_data
Room
p1140
(dp1141
g79
g171
sg80
g172
sbsbaa(lp1142
(ischedule
Activity
p1143
(dp1144
g8
g143
sg79
I1000
sg80
g168
sg82
g83
sg84
I0
sg85
g826
sba(ischedule
Activity
p1145
(dp1146
g8
(lp1147
g208
ag210
ag190
ag185
ag188
ag189
ag191
ag192
ag207
ag180
ag179
ag200
ag201
ag197
ag196
ag15
ag199
ag202
ag111
ag195
ag204
ag194
ag183
ag187
ag211
ag176
ag193
ag182
ag203
ag198
ag32
ag178
ag184
ag186
ag206
ag205
ag209
asg79
S'20'
p1148
sg80
g212
sg82
g228
sg84
g375
sg85
(iread_data
Room
p1149
(dp1150
g79
g171
sg80
g172
sbsba(ischedule
Activity
p1151
(dp1152
g8
g237
sg79
I1000
sg80
g254
sg82
g83
sg84
I0
sg85
(iread_data
Room
p1153
(dp1154
g79
g139
sg80
g140
sbsba(ischedule
Activity
p1155
(dp1156
g8
(lp1157
g308
ag35
ag261
ag105
ag96
ag55
ag386
ag1052
ag1000
ag466
ag841
ag313
ag499
ag777
ag454
ag764
ag366
ag538
ag309
ag312
ag434
ag867
aS'54540997'
p1158
ag760
ag898
ag98
ag115
ag413
ag742
ag292
aS'59397895'
p1159
ag271
ag501
ag440
ag329
ag221
ag467
ag394
ag700
ag901
ag265
ag225
ag484
ag468
ag189
ag34
aS'13132925'
p1160
ag349
ag617
ag283
ag539
ag428
ag367
asg79
S'40'
p1161
sg80
S'Databases 2'
p1162
sg82
g321
sg84
g397
sg85
(iread_data
Room
p1163
(dp1164
g79
g400
sg80
g401
sbsba(ischedule
Activity
p1165
(dp1166
g8
(lp1167
g940
ag365
ag25
ag337
ag266
ag135
ag407
ag564
aS'64418623'
p1168
ag426
ag899
ag126
ag429
asg79
g395
sg80
g396
sg82
g228
sg84
g375
sg85
(iread_data
Room
p1169
(dp1170
g79
g215
sg80
g216
sbsba(ischedule
Activity
p1171
(dp1172
g8
(lp1173
g177
ag181
asg79
g1148
sg80
g212
sg82
g228
sg84
g397
sg85
(iread_data
Room
p1174
(dp1175
g79
g344
sg80
g345
sbsba(ischedule
Activity
p1176
(dp1177
g8
(lp1178
g824
ag487
ag23
ag624
ag59
aS'75680261'
p1179
ag281
asg79
g904
sg80
g905
sg82
g228
sg84
g397
sg85
(iread_data
Room
p1180
(dp1181
g79
g232
sg80
g233
sbsbaaa(lp1182
(lp1183
(ischedule
Activity
p1184
(dp1185
g8
g939
sg79
I1000
sg80
g357
sg82
g83
sg84
I0
sg85
g826
sba(ischedule
Activity
p1186
(dp1187
g8
g614
sg79
I1000
sg80
g416
sg82
g83
sg84
I0
sg85
(iread_data
Room
p1188
(dp1189
g79
g400
sg80
g401
sbsba(ischedule
Activity
p1190
(dp1191
g8
(lp1192
g131
ag20
asg79
g1010
sg80
g582
sg82
g228
sg84
g397
sg85
(iread_data
Room
p1193
(dp1194
g79
g344
sg80
g345
sbsba(ischedule
Activity
p1195
(dp1196
g8
(lp1197
g453
ag67
ag490
ag120
ag745
ag109
ag189
ag1073
ag1074
ag335
ag41
ag337
asg79
g718
sg80
g719
sg82
g321
sg84
g397
sg85
(iread_data
Room
p1198
(dp1199
g79
g171
sg80
g172
sbsba(ischedule
Activity
p1200
(dp1201
g8
(lp1202
g316
ag440
ag428
ag442
ag75
ag430
ag115
ag389
ag289
ag441
ag252
ag55
ag423
ag431
ag180
ag443
ag602
ag429
ag433
ag439
ag435
ag182
ag427
ag15
ag432
ag334
ag220
ag425
ag437
ag108
ag601
ag253
ag37
ag422
ag424
ag438
ag426
ag160
ag162
ag308
ag155
ag436
ag434
asg79
I1000
sg80
g445
sg82
g83
sg84
I0
sg85
(iread_data
Room
p1203
(dp1204
g79
g139
sg80
g140
sbsba(ischedule
Activity
p1205
(dp1206
g8
g853
sg79
I1000
sg80
g870
sg82
g83
sg84
I0
sg85
(iread_data
Room
p1207
(dp1208
g79
g215
sg80
g216
sbsba(ischedule
Activity
p1209
(dp1210
g8
(lp1211
g18
asg79
g568
sg80
g569
sg82
g228
sg84
S'5'
p1212
sg85
(iread_data
Room
p1213
(dp1214
g79
g232
sg80
g233
sbsbaa(lp1215
(ischedule
Activity
p1216
(dp1217
g8
(lp1218
g115
ag34
aS'15187217'
p1219
ag308
ag309
ag35
ag499
ag292
ag42
ag261
ag366
ag1159
ag760
ag180
ag313
ag617
ag484
ag105
ag38
ag96
ag700
ag327
ag271
ag29
ag501
ag467
ag221
ag55
ag764
ag189
ag440
ag729
aS'27123462'
p1220
ag386
ag466
ag265
ag312
ag13
ag538
ag434
ag225
ag394
ag644
ag329
ag195
ag495
ag413
aS'58083680'
p1221
ag1000
ag1158
ag539
ag283
ag196
ag367
ag742
ag867
ag1160
ag428
ag454
ag841
ag898
ag956
ag777
ag468
ag901
ag575
ag500
ag98
ag155
aS'4529208'
p1222
ag349
ag1052
asg79
I1000
sg80
g1162
sg82
g83
sg84
I0
sg85
(iread_data
Room
p1223
(dp1224
g79
g88
sg80
g89
sbsba(ischedule
Activity
p1225
(dp1226
g8
g614
sg79
I1000
sg80
g416
sg82
g83
sg84
I0
sg85
(iread_data
Room
p1227
(dp1228
g79
g400
sg80
g401
sbsba(ischedule
Activity
p1229
(dp1230
g8
(lp1231
g201
aS'55480737'
p1232
ag253
ag245
ag22
ag594
ag289
ag942
ag579
asg79
g904
sg80
g905
sg82
g228
sg84
g293
sg85
(iread_data
Room
p1233
(dp1234
g79
g232
sg80
g233
sbsba(ischedule
Activity
p1235
(dp1236
g8
g951
sg79
I1000
sg80
g957
sg82
g83
sg84
I0
sg85
(iread_data
Room
p1237
(dp1238
g79
g171
sg80
g172
sbsba(ischedule
Activity
p1239
(dp1240
g8
(lp1241
g109
ag158
ag152
ag156
ag166
ag163
ag160
ag150
ag148
ag167
asg79
g531
sg80
g168
sg82
g228
sg84
g375
sg85
(iread_data
Room
p1242
(dp1243
g79
g139
sg80
g140
sbsbaa(lp1244
(ischedule
Activity
p1245
(dp1246
g8
g9
sg79
I1000
sg80
g81
sg82
g83
sg84
I0
sg85
(iread_data
Room
p1247
(dp1248
g79
g88
sg80
g89
sbsba(ischedule
Activity
p1249
(dp1250
g8
(lp1251
g454
ag497
ag686
ag243
ag690
ag554
ag52
ag616
ag1000
ag487
ag540
ag389
ag670
ag280
ag55
ag146
ag1002
ag1003
ag424
ag629
ag688
ag109
ag1004
ag457
ag241
ag689
ag260
ag269
ag678
ag691
ag1001
ag153
ag782
ag117
ag537
ag59
ag502
ag133
ag203
ag242
ag692
ag490
ag618
ag369
ag556
ag687
ag841
ag209
ag466
ag498
ag261
asg79
I1000
sg80
g680
sg82
g83
sg84
I0
sg85
(iread_data
Room
p1252
(dp1253
g79
g215
sg80
g216
sbsba(ischedule
Activity
p1254
(dp1255
g8
(lp1256
g855
ag777
ag271
ag240
ag467
ag413
ag512
ag195
ag431
ag386
asg79
g356
sg80
g357
sg82
g321
sg84
g375
sg85
(iread_data
Room
p1257
(dp1258
g79
g171
sg80
g172
sbsba(ischedule
Activity
p1259
(dp1260
g8
(lp1261
g601
ag602
asg79
g444
sg80
g445
sg82
g321
sg84
g375
sg85
(iread_data
Room
p1262
(dp1263
g79
g232
sg80
g233
sbsbaa(lp1264
(ischedule
Activity
p1265
(dp1266
g8
g939
sg79
I1000
sg80
g357
sg82
g83
sg84
I0
sg85
(iread_data
Room
p1267
(dp1268
g79
g88
sg80
g89
sbsba(ischedule
Activity
p1269
(dp1270
g8
(lp1271
g824
ag644
ag410
ag451
ag155
ag11
ag117
ag109
ag13
ag964
ag988
ag646
ag963
ag442
ag300
ag645
ag857
asg79
g1129
sg80
g648
sg82
g228
sg84
g397
sg85
(iread_data
Room
p1272
(dp1273
g79
g232
sg80
g233
sbsba(ischedule
Activity
p1274
(dp1275
g8
(lp1276
g161
ag147
ag165
ag144
ag154
ag164
ag159
ag146
ag120
ag157
ag149
ag93
ag153
ag145
asg79
g531
sg80
g168
sg82
g228
sg84
g397
sg85
(iread_data
Room
p1277
(dp1278
g79
g171
sg80
g172
sbsba(ischedule
Activity
p1279
(dp1280
g8
(lp1281
g97
ag777
ag103
ag29
asg79
g1129
sg80
g648
sg82
g228
sg84
g375
sg85
(iread_data
Room
p1282
(dp1283
g79
g400
sg80
g401
sbsba(ischedule
Activity
p1284
(dp1285
g8
(lp1286
g264
ag746
aS'51472074'
p1287
aS'5892092'
p1288
ag332
ag698
ag190
ag278
ag436
ag902
asg79
g395
sg80
g396
sg82
g228
sg84
g293
sg85
(iread_data
Room
p1289
(dp1290
g79
g344
sg80
g345
sbsba(ischedule
Activity
p1291
(dp1292
g8
(lp1293
g423
ag247
ag131
ag329
ag339
ag25
ag14
ag301
ag785
asg79
g469
sg80
g470
sg82
g228
sg84
g293
sg85
(iread_data
Room
p1294
(dp1295
g79
g139
sg80
g140
sbsbaa(lp1296
(ischedule
Activity
p1297
(dp1298
g8
(lp1299
g492
ag765
ag854
ag96
ag128
ag40
ag442
ag223
ag210
ag57
ag758
ag759
ag60
ag867
ag306
ag302
ag301
ag615
ag538
ag312
ag1054
ag767
ag781
ag1048
ag768
ag426
ag736
ag317
ag900
ag668
ag756
ag761
ag1049
ag316
ag625
ag748
ag266
ag726
ag299
ag499
ag313
ag628
ag409
ag318
ag176
ag1047
ag366
ag760
ag755
ag616
ag504
ag1044
ag311
ag10
ag766
ag308
ag762
ag512
ag1050
ag922
ag309
ag21
ag661
ag1052
ag291
ag276
ag315
ag300
ag481
ag1046
ag190
ag763
ag243
ag431
ag305
ag1043
ag764
ag1051
ag158
ag698
ag131
ag483
ag769
ag1045
ag253
ag307
ag304
ag314
ag100
ag104
ag1042
ag594
ag1053
ag310
ag557
ag73
ag121
ag208
ag930
ag35
ag303
ag757
ag331
ag541
ag664
ag43
asg79
I1000
sg80
g320
sg82
g83
sg84
I0
sg85
(iread_data
Room
p1300
(dp1301
g79
g88
sg80
g89
sbsba(ischedule
Activity
p1302
(dp1303
g8
g1072
sg79
I1000
sg80
g719
sg82
g83
sg84
I0
sg85
(iread_data
Room
p1304
(dp1305
g79
g400
sg80
g401
sbsba(ischedule
Activity
p1306
(dp1307
g8
g1251
sg79
I1000
sg80
g680
sg82
g83
sg84
I0
sg85
(iread_data
Room
p1308
(dp1309
g79
g215
sg80
g216
sbsba(ischedule
Activity
p1310
(dp1311
g8
(lp1312
g15
ag425
ag162
ag434
ag439
ag115
ag430
ag436
ag437
asg79
g603
sg80
g445
sg82
g228
sg84
g375
sg85
(iread_data
Room
p1313
(dp1314
g79
g139
sg80
g140
sbsba(ischedule
Activity
p1315
(dp1316
g8
(lp1317
g195
ag196
ag155
ag180
ag13
ag29
ag644
ag1221
ag500
ag1219
ag956
ag327
ag42
ag1220
ag575
ag495
ag729
ag1222
ag38
asg79
g1161
sg80
g1162
sg82
g321
sg84
g375
sg85
(iread_data
Room
p1318
(dp1319
g79
g171
sg80
g172
sbsba(ischedule
Activity
p1320
(dp1321
g8
(lp1322
g777
ag11
ag451
ag97
ag988
ag824
ag144
asg79
g647
sg80
g648
sg82
g321
sg84
g375
sg85
(iread_data
Room
p1323
(dp1324
g79
g344
sg80
g345
sbsbaaa(lp1325
(lp1326
a(lp1327
a(lp1328
a(lp1329
a(lp1330
aasS'timeslot_dict'
p1331
(dp1332
I0
S'9:00-11:00'
p1333
sI1
S'11:00-13:00'
p1334
sI2
S'13:00-15:00'
p1335
sI3
S'15:00-17:00'
p1336
sI4
S'17:00-19:00'
p1337
ssS'day_dict'
p1338
(dp1339
I0
S'Monday'
p1340
sI1
S'Tuesday'
p1341
sI2
S'Wednesday'
p1342
sI3
S'Thursday'
p1343
sI4
S'Friday'
p1344
ssb.