(ischedule
Schedule
p0
(dp1
S'timetable'
p2
(lp3
(lp4
(lp5
(ischedule
Activity
p6
(dp7
S'participants'
p8
(lp9
S'75521763'
p10
aS'78443067'
p11
aS'50184318'
p12
aS'75997788'
p13
aS'3883025'
p14
aS'29526540'
p15
aS'13911001'
p16
aS'11996292'
p17
aS'58592894'
p18
aS'27916487'
p19
aS'78544592'
p20
aS'13218321'
p21
aS'49631542'
p22
aS'63111000'
p23
aS'27241113'
p24
aS'59111489'
p25
aS'42171678'
p26
aS'1181560'
p27
asS'capacity'
p28
S'20'
p29
sS'name'
p30
S'Moderne Databases'
p31
sS'ttype'
p32
S'labs'
p33
sS'group_id'
p34
S'3'
p35
sS'room'
p36
(iread_data
Room
p37
(dp38
g28
S'48'
p39
sg30
S'B0.201'
p40
sbsba(ischedule
Activity
p41
(dp42
g8
(lp43
S'20095994'
p44
aS'77392404'
p45
aS'43680781'
p46
aS'92778619'
p47
aS'3685034'
p48
aS'86988337'
p49
aS'49922855'
p50
aS'27950803'
p51
aS'22826928'
p52
aS'52715680'
p53
aS'60352393'
p54
aS'4709948'
p55
aS'37399898'
p56
aS'82390428'
p57
aS'36213792'
p58
aS'6913074'
p59
aS'32044893'
p60
aS'5298748'
p61
aS'96554914'
p62
aS'77960666'
p63
aS'41578612'
p64
aS'24277163'
p65
aS'60661905'
p66
aS'42406214'
p67
aS'99453514'
p68
aS'90474003'
p69
aS'70844780'
p70
aS'59753700'
p71
aS'22871048'
p72
aS'84449005'
p73
aS'68286356'
p74
aS'51415617'
p75
aS'13718298'
p76
aS'51052738'
p77
aS'61518436'
p78
aS'27370083'
p79
aS'33776961'
p80
aS'78136904'
p81
aS'99975346'
p82
aS'36785409'
p83
aS'84524083'
p84
aS'54569540'
p85
aS'13092455'
p86
aS'70193386'
p87
aS'20239127'
p88
aS'37110913'
p89
aS'38296757'
p90
aS'57086672'
p91
aS'87830198'
p92
aS'27805666'
p93
aS'13658563'
p94
asg28
I1000
sg30
S'Reflectie op de digitale cultuur'
p95
sg32
S'lectures'
p96
sg34
I0
sg36
(iread_data
Room
p97
(dp98
g28
S'60'
p99
sg30
S'C1.112'
p100
sbsba(ischedule
Activity
p101
(dp102
g8
(lp103
S'51566595'
p104
aS'16097870'
p105
aS'68409833'
p106
aS'54026378'
p107
aS'11915563'
p108
aS'72796858'
p109
aS'70113753'
p110
aS'74131924'
p111
aS'19858730'
p112
ag72
aS'61611295'
p113
aS'39459642'
p114
aS'5517869'
p115
aS'62872965'
p116
aS'27298319'
p117
aS'44901052'
p118
aS'34806836'
p119
ag89
aS'36508571'
p120
aS'88627897'
p121
aS'52552718'
p122
aS'62356458'
p123
asg28
I1000
sg30
S'Autonomous Agents 2'
p124
sg32
g96
sg34
I0
sg36
(iread_data
Room
p125
(dp126
g28
S'22'
p127
sg30
S'A1.06'
p128
sbsba(ischedule
Activity
p129
(dp130
g8
(lp131
S'21964491'
p132
aS'45414528'
p133
aS'91196968'
p134
aS'87900893'
p135
asg28
S'10'
p136
sg30
S'Data Mining'
p137
sg32
g33
sg34
g35
sg36
(iread_data
Room
p138
(dp139
g28
S'41'
p140
sg30
S'A1.04'
p141
sbsba(ischedule
Activity
p142
(dp143
g8
(lp144
S'89180944'
p145
aS'37744525'
p146
aS'78243495'
p147
aS'14309255'
p148
aS'50143947'
p149
aS'55474917'
p150
aS'65408517'
p151
aS'52311353'
p152
aS'28357474'
p153
aS'31103066'
p154
aS'61060652'
p155
aS'60312776'
p156
aS'42115591'
p157
aS'22323043'
p158
aS'25106480'
p159
aS'95631564'
p160
aS'82872148'
p161
aS'4568018'
p162
aS'65318664'
p163
aS'3727435'
p164
aS'94467156'
p165
aS'5976174'
p166
aS'48357272'
p167
aS'73302736'
p168
aS'88176729'
p169
aS'84110134'
p170
aS'44868097'
p171
aS'40343779'
p172
aS'31247305'
p173
aS'45915482'
p174
aS'89338938'
p175
aS'59544049'
p176
aS'89985072'
p177
aS'31633723'
p178
aS'37830626'
p179
aS'70015932'
p180
aS'77376714'
p181
aS'75599734'
p182
aS'14671406'
p183
aS'41153310'
p184
aS'43460038'
p185
aS'80709893'
p186
aS'73236988'
p187
aS'62105897'
p188
asg28
S'40'
p189
sg30
S'Software engineering'
p190
sg32
g33
sg34
S'1'
p191
sg36
(iread_data
Room
p192
(dp193
g28
S'117'
p194
sg30
S'C0.110'
p195
sbsba(ischedule
Activity
p196
(dp197
g8
(lp198
S'72895450'
p199
aS'53202517'
p200
aS'68315599'
p201
aS'37770881'
p202
aS'77896638'
p203
aS'76661016'
p204
aS'88855695'
p205
aS'65960683'
p206
aS'42778953'
p207
aS'7957843'
p208
aS'34243356'
p209
aS'48308205'
p210
aS'81385263'
p211
aS'76802764'
p212
aS'98105190'
p213
aS'12077419'
p214
aS'1766560'
p215
aS'27187154'
p216
aS'44391517'
p217
aS'92665222'
p218
aS'80135353'
p219
aS'65852230'
p220
aS'8464817'
p221
ag49
aS'49683101'
p222
asg28
S'40'
p223
sg30
S'Compilerbouw'
p224
sg32
g33
sg34
S'2'
p225
sg36
(iread_data
Room
p226
(dp227
g28
S'56'
p228
sg30
S'A1.10'
p229
sbsba(ischedule
Activity
p230
(dp231
g8
(lp232
S'81200278'
p233
aS'535689'
p234
aS'72665524'
p235
asg28
S'20'
p236
sg30
S'Netwerken en systeembeveiliging'
p237
sg32
g33
sg34
g225
sg36
(iread_data
Room
p238
(dp239
g28
S'20'
p240
sg30
S'A1.08'
p241
sbsbaa(lp242
(ischedule
Activity
p243
(dp244
g8
(lp245
g108
ag123
ag51
ag53
ag62
ag76
ag72
ag107
aS'33877725'
p246
ag11
ag122
aS'4783858'
p247
ag106
aS'27582862'
p248
aS'48601268'
p249
aS'44671041'
p250
aS'21095566'
p251
aS'99283252'
p252
aS'11068043'
p253
aS'4546613'
p254
aS'9287708'
p255
aS'14072826'
p256
aS'29640619'
p257
aS'83210352'
p258
aS'26260141'
p259
aS'58565406'
p260
aS'41527759'
p261
aS'58074656'
p262
aS'3233378'
p263
aS'1048485'
p264
aS'51593625'
p265
asg28
g189
sg30
g190
sg32
g33
sg34
g225
sg36
(iread_data
Room
p266
(dp267
g28
g194
sg30
g195
sbsba(ischedule
Activity
p268
(dp269
g8
(lp270
g147
ag80
ag148
ag46
ag201
aS'64600457'
p271
ag73
aS'48198668'
p272
aS'36748818'
p273
aS'83266686'
p274
aS'49219163'
p275
aS'17222374'
p276
aS'15051051'
p277
aS'58332004'
p278
aS'78821918'
p279
aS'85335143'
p280
aS'36527838'
p281
aS'30658799'
p282
ag145
aS'96082155'
p283
aS'18144425'
p284
aS'46570285'
p285
ag181
aS'70072978'
p286
aS'41489515'
p287
aS'11741347'
p288
aS'83415514'
p289
ag65
asg28
g29
sg30
g31
sg32
g33
sg34
g191
sg36
(iread_data
Room
p290
(dp291
g28
g140
sg30
g141
sbsba(ischedule
Activity
p292
(dp293
g8
(lp294
S'25330192'
p295
aS'19337738'
p296
ag132
aS'13996448'
p297
ag71
ag233
ag146
aS'68360259'
p298
ag68
ag104
ag152
aS'98780382'
p299
ag133
ag111
ag134
aS'66122625'
p300
aS'70878567'
p301
ag89
aS'13116738'
p302
aS'93023961'
p303
ag135
aS'17823206'
p304
aS'97136582'
p305
ag158
aS'87314964'
p306
ag149
aS'81022997'
p307
asg28
I1000
sg30
g137
sg32
g96
sg34
I0
sg36
(iread_data
Room
p308
(dp309
g28
g39
sg30
g40
sbsba(ischedule
Activity
p310
(dp311
g8
(lp312
g54
aS'28618400'
p313
aS'39429093'
p314
ag218
aS'72577292'
p315
ag81
aS'3168419'
p316
aS'27064249'
p317
aS'72683344'
p318
aS'86807027'
p319
aS'62613937'
p320
aS'14847953'
p321
aS'40633534'
p322
aS'23547619'
p323
aS'1886996'
p324
aS'47477884'
p325
ag235
ag70
ag13
aS'20883994'
p326
asg28
I1000
sg30
S'Advanced Heuristics'
p327
sg32
g96
sg34
I0
sg36
(iread_data
Room
p328
(dp329
g28
g127
sg30
g128
sbsba(ischedule
Activity
p330
(dp331
g8
(lp332
g66
ag52
aS'93566383'
p333
aS'34900967'
p334
ag56
aS'97019450'
p335
aS'28943658'
p336
aS'63634350'
p337
aS'39905995'
p338
aS'94955328'
p339
ag221
aS'4921119'
p340
aS'86000192'
p341
aS'79879876'
p342
aS'26857113'
p343
aS'73196865'
p344
aS'15249775'
p345
ag110
ag216
aS'48503689'
p346
aS'88519892'
p347
aS'36903574'
p348
aS'9332762'
p349
aS'47982619'
p350
asg28
S'20'
p351
sg30
S'Programmeren in Java 2'
p352
sg32
g33
sg34
S'5'
p353
sg36
(iread_data
Room
p354
(dp355
g28
g99
sg30
g100
sbsba(ischedule
Activity
p356
(dp357
g8
(lp358
S'34773179'
p359
aS'61443567'
p360
ag207
aS'58522654'
p361
aS'86291592'
p362
ag202
aS'76123484'
p363
aS'96104167'
p364
ag156
aS'97135019'
p365
aS'46052388'
p366
aS'64393888'
p367
ag159
aS'77240949'
p368
aS'64228258'
p369
aS'45556081'
p370
aS'57595888'
p371
aS'43027916'
p372
aS'22699561'
p373
aS'42196732'
p374
ag86
ag153
ag12
aS'1075391'
p375
aS'54310617'
p376
aS'53107172'
p377
aS'26406342'
p378
ag203
asg28
S'20'
p379
sg30
S'Collectieve Intelligentie'
p380
sg32
g33
sg34
g191
sg36
(iread_data
Room
p381
(dp382
g28
g228
sg30
g229
sbsba(ischedule
Activity
p383
(dp384
g8
(lp385
g84
aS'22731474'
p386
aS'72652638'
p387
asg28
S'20'
p388
sg30
S'Heuristieken 2'
p389
sg32
S'tutorials'
p390
sg34
g225
sg36
(iread_data
Room
p391
(dp392
g28
g240
sg30
g241
sbsbaa(lp393
(ischedule
Activity
p394
(dp395
g8
(lp396
S'66621166'
p397
ag27
ag281
ag279
ag20
ag275
ag276
ag22
ag26
ag252
ag17
ag16
ag13
ag14
aS'58699305'
p398
ag55
ag25
ag18
ag24
ag284
ag46
ag65
ag23
ag19
ag21
ag115
aS'47462856'
p399
ag15
ag181
ag283
aS'51650744'
p400
ag286
ag287
ag272
ag277
ag145
ag282
ag288
ag280
ag289
ag10
ag147
ag271
ag11
ag80
ag12
ag273
ag278
ag148
ag201
ag285
ag215
ag274
ag73
asg28
I1000
sg30
g31
sg32
g96
sg34
I0
sg36
(iread_data
Room
p401
(dp402
g28
g194
sg30
g195
sbsba(ischedule
Activity
p403
(dp404
g8
(lp405
g111
ag107
ag132
ag326
aS'96453361'
p406
aS'79617364'
p407
ag374
aS'28359697'
p408
ag253
aS'7308727'
p409
ag59
ag316
aS'30050930'
p410
aS'21029457'
p411
aS'33930505'
p412
ag176
aS'56815156'
p413
asg28
S'20'
p414
sg30
S'Bioinformatica'
p415
sg32
g33
sg34
g191
sg36
(iread_data
Room
p416
(dp417
g28
g99
sg30
g100
sbsba(ischedule
Activity
p418
(dp419
g8
(lp420
S'88752563'
p421
ag297
aS'77831658'
p422
aS'2550487'
p423
ag386
aS'90103047'
p424
asg28
S'15'
p425
sg30
S'Project Numerical Recipes'
p426
sg32
g33
sg34
g191
sg36
(iread_data
Room
p427
(dp428
g28
g39
sg30
g40
sbsba(ischedule
Activity
p429
(dp430
g8
(lp431
g161
ag264
ag118
aS'51741554'
p432
ag365
aS'82689818'
p433
aS'62363761'
p434
ag313
ag257
aS'26207525'
p435
ag305
aS'14398123'
p436
aS'56121590'
p437
aS'4353500'
p438
asg28
g236
sg30
g237
sg32
g33
sg34
S'4'
p439
sg36
(iread_data
Room
p440
(dp441
g28
g240
sg30
g241
sbsba(ischedule
Activity
p442
(dp443
g8
(lp444
S'3474870'
p445
aS'57467488'
p446
ag211
ag348
aS'53585410'
p447
aS'15902055'
p448
aS'66433883'
p449
ag149
ag166
aS'19540225'
p450
ag81
aS'91527663'
p451
aS'23652927'
p452
asg28
S'25'
p453
sg30
S'Algoritmen en complexiteit'
p454
sg32
g33
sg34
g225
sg36
(iread_data
Room
p455
(dp456
g28
g127
sg30
g128
sbsba(ischedule
Activity
p457
(dp458
g8
(lp459
g84
ag200
aS'5368702'
p460
ag108
ag49
ag361
aS'10792879'
p461
aS'46989508'
p462
ag51
ag199
ag209
ag216
ag156
aS'94687383'
p463
aS'2317551'
p464
aS'15911353'
p465
ag218
aS'9067939'
p466
aS'79033175'
p467
ag219
ag221
aS'54772132'
p468
ag362
ag187
ag205
aS'34872117'
p469
ag346
ag114
ag206
ag182
ag109
aS'79167252'
p470
ag222
aS'3407554'
p471
aS'75664412'
p472
ag210
ag160
aS'24613625'
p473
aS'43689934'
p474
ag212
aS'95007221'
p475
asg28
S'40'
p476
sg30
g224
sg32
g390
sg34
g191
sg36
(iread_data
Room
p477
(dp478
g28
g228
sg30
g229
sbsbaa(lp479
(ischedule
Activity
p480
(dp481
g8
(lp482
S'3678531'
p483
aS'75623387'
p484
aS'94686490'
p485
ag319
ag285
ag341
ag167
aS'40141996'
p486
aS'6723948'
p487
ag325
aS'37279234'
p488
aS'53139134'
p489
aS'87602030'
p490
aS'27925117'
p491
aS'80188025'
p492
aS'6939933'
p493
ag188
aS'58469172'
p494
ag13
aS'77306636'
p495
aS'81155296'
p496
ag407
aS'56348773'
p497
aS'70939718'
p498
aS'14591033'
p499
ag135
ag205
ag117
ag254
aS'61520025'
p500
aS'12091019'
p501
aS'56544130'
p502
aS'23565001'
p503
aS'24875739'
p504
ag18
aS'73823548'
p505
aS'58040377'
p506
ag274
aS'93361408'
p507
ag448
aS'56872729'
p508
ag247
ag432
ag174
aS'23628642'
p509
aS'10149535'
p510
aS'55530367'
p511
ag59
aS'47932106'
p512
aS'5615125'
p513
aS'32705005'
p514
ag434
ag105
ag280
ag398
aS'19717077'
p515
aS'58253841'
p516
aS'14816774'
p517
ag151
aS'11593163'
p518
aS'86180471'
p519
aS'14303208'
p520
aS'33760909'
p521
aS'9731271'
p522
aS'31306819'
p523
ag365
ag171
ag317
ag11
ag168
ag337
aS'75585647'
p524
aS'38179241'
p525
aS'55412918'
p526
ag411
aS'59220392'
p527
aS'34173695'
p528
ag369
aS'65978354'
p529
ag90
ag461
ag20
aS'22168693'
p530
aS'75446434'
p531
ag447
aS'14179347'
p532
aS'46701583'
p533
aS'79888156'
p534
ag204
ag259
ag289
aS'82412626'
p535
aS'6709529'
p536
ag235
aS'96054456'
p537
aS'72526473'
p538
ag271
aS'74182182'
p539
aS'33672995'
p540
aS'10609762'
p541
ag216
aS'23658570'
p542
aS'28957789'
p543
aS'78735049'
p544
ag421
ag470
asg28
I1000
sg30
S'Calculus 2'
p545
sg32
g96
sg34
I0
sg36
(iread_data
Room
p546
(dp547
g28
g194
sg30
g195
sbsba(ischedule
Activity
p548
(dp549
g8
(lp550
g149
ag53
aS'82066165'
p551
aS'99272880'
p552
ag378
aS'91250534'
p553
aS'11459236'
p554
aS'38499176'
p555
aS'42297781'
p556
aS'64418623'
p557
ag234
aS'55103073'
p558
aS'1695839'
p559
aS'1665980'
p560
ag16
ag371
aS'65675896'
p561
ag253
aS'41644639'
p562
asg28
S'15'
p563
sg30
S'Compilerbouw practicum'
p564
sg32
g33
sg34
g35
sg36
(iread_data
Room
p565
(dp566
g28
g228
sg30
g229
sbsba(ischedule
Activity
p567
(dp568
g8
g103
sg28
I1000
sg30
g124
sg32
g96
sg34
I0
sg36
(iread_data
Room
p569
(dp570
g28
g140
sg30
g141
sbsba(ischedule
Activity
p571
(dp572
g8
(lp573
g156
aS'35330349'
p574
ag202
ag203
ag362
ag65
ag249
aS'17575088'
p575
ag12
aS'68601184'
p576
aS'31416266'
p577
ag276
ag206
ag315
asg28
S'20'
p578
sg30
g380
sg32
g390
sg34
g225
sg36
(iread_data
Room
p579
(dp580
g28
g127
sg30
g128
sbsba(ischedule
Activity
p581
(dp582
g8
(lp583
g278
aS'77636749'
p584
aS'18266644'
p585
ag201
ag94
aS'17496687'
p586
aS'8557857'
p587
ag302
ag10
aS'23257088'
p588
ag273
aS'23983476'
p589
aS'62701040'
p590
aS'32204977'
p591
aS'19958553'
p592
asg28
S'15'
p593
sg30
S'Informatie- en organsatieontwerp'
p594
sg32
g33
sg34
g191
sg36
(iread_data
Room
p595
(dp596
g28
g240
sg30
g241
sbsba(ischedule
Activity
p597
(dp598
g8
(lp599
g172
ag412
ag208
ag14
ag295
ag173
aS'21677389'
p600
aS'30195935'
p601
asg28
g236
sg30
g237
sg32
g33
sg34
g35
sg36
(iread_data
Room
p602
(dp603
g28
g99
sg30
g100
sbsbaa(lp604
(ischedule
Activity
p605
(dp606
g8
(lp607
g433
ag183
ag166
ag199
ag452
ag406
ag214
aS'41585485'
p608
ag450
aS'88596522'
p609
ag448
ag589
ag18
aS'43902015'
p610
ag53
ag445
ag348
ag449
ag81
ag251
ag117
ag447
ag132
aS'34765676'
p611
aS'67817269'
p612
ag560
ag104
ag446
ag149
ag451
aS'44828429'
p613
ag259
aS'3707829'
p614
ag533
aS'64947290'
p615
ag211
aS'8522855'
p616
ag261
aS'51509565'
p617
aS'64554442'
p618
ag49
ag181
ag172
asg28
I1000
sg30
g454
sg32
g96
sg34
I0
sg36
(iread_data
Room
p619
(dp620
g28
g39
sg30
g40
sbsba(ischedule
Activity
p621
(dp622
g8
(lp623
g206
ag378
ag362
ag249
ag560
ag26
ag202
ag153
ag364
ag363
ag341
ag156
ag373
ag376
ag149
aS'87758823'
p624
ag359
ag276
ag203
ag372
ag263
ag247
aS'73980360'
p625
ag86
aS'13534377'
p626
ag448
ag521
ag365
ag366
ag433
ag371
ag115
ag360
aS'1696500'
p627
ag370
ag409
ag10
ag159
ag377
ag590
ag576
ag132
ag575
ag367
ag368
ag369
ag374
aS'64296965'
p628
ag207
ag12
ag349
ag315
ag432
ag574
aS'29474737'
p629
ag257
ag375
ag323
ag577
ag65
ag361
asg28
I1000
sg30
g380
sg32
g96
sg34
I0
sg36
(iread_data
Room
p630
(dp631
g28
g194
sg30
g195
sbsba(ischedule
Activity
p632
(dp633
g8
(lp634
g158
ag89
ag233
ag302
ag297
ag301
ag295
ag298
ag111
asg28
g136
sg30
g137
sg32
g33
sg34
g225
sg36
(iread_data
Room
p635
(dp636
g28
g99
sg30
g100
sbsba(ischedule
Activity
p637
(dp638
g8
(lp639
g15
asg28
g414
sg30
g415
sg32
g33
sg34
g35
sg36
(iread_data
Room
p640
(dp641
g28
g140
sg30
g141
sbsba(ischedule
Activity
p642
(dp643
g8
(lp644
g78
ag91
ag59
ag85
ag66
ag92
ag50
ag72
ag74
ag71
ag82
ag87
ag88
ag75
ag48
ag44
ag84
ag56
ag73
asg28
S'20'
p645
sg30
g95
sg32
g390
sg34
g191
sg36
(iread_data
Room
p646
(dp647
g28
g240
sg30
g241
sbsba(ischedule
Activity
p648
(dp649
g8
(lp650
g108
ag122
ag121
ag114
ag105
ag120
ag112
asg28
S'10'
p651
sg30
g124
sg32
g33
sg34
g191
sg36
(iread_data
Room
p652
(dp653
g28
g228
sg30
g229
sbsba(ischedule
Activity
p654
(dp655
g8
(lp656
g11
ag271
asg28
S'20'
p657
sg30
g31
sg32
g390
sg34
g35
sg36
(iread_data
Room
p658
(dp659
g28
g127
sg30
g128
sbsbaaa(lp660
(lp661
(ischedule
Activity
p662
(dp663
g8
(lp664
g534
ag18
ag536
ag494
ag526
ag544
ag517
ag216
ag505
ag528
ag421
ag470
ag274
ag514
ag448
ag247
ag539
ag484
ag13
ag461
ag530
ag516
ag90
ag540
ag533
ag434
ag492
ag235
ag11
ag497
ag512
ag495
ag509
ag538
ag503
ag168
ag59
ag254
ag204
ag447
ag532
asg28
S'40'
p665
sg30
g545
sg32
g390
sg34
g191
sg36
(iread_data
Room
p666
(dp667
g28
g140
sg30
g141
sbsba(ischedule
Activity
p668
(dp669
g8
g623
sg28
I1000
sg30
g380
sg32
g96
sg34
I0
sg36
(iread_data
Room
p670
(dp671
g28
g194
sg30
g195
sbsba(ischedule
Activity
p672
(dp673
g8
(lp674
g323
ag591
ag118
aS'77264363'
p675
ag210
aS'7106649'
p676
aS'21192048'
p677
ag510
ag10
ag260
aS'93041523'
p678
aS'6249823'
p679
ag83
ag584
ag17
aS'4697362'
p680
aS'97371272'
p681
ag350
ag349
ag89
aS'69086548'
p682
ag280
ag148
ag46
aS'12430748'
p683
aS'14383795'
p684
ag214
aS'70336464'
p685
aS'31194811'
p686
ag158
ag201
ag175
ag378
ag472
aS'40434933'
p687
aS'76487754'
p688
aS'92496780'
p689
ag64
asg28
I1000
sg30
S'Technology for games'
p690
sg32
g96
sg34
I0
sg36
(iread_data
Room
p691
(dp692
g28
g99
sg30
g100
sbsba(ischedule
Activity
p693
(dp694
g8
(lp695
g305
ag89
ag301
ag104
asg28
S'10'
p696
sg30
g137
sg32
g390
sg34
g225
sg36
(iread_data
Room
p697
(dp698
g28
g127
sg30
g128
sbsba(ischedule
Activity
p699
(dp700
g8
(lp701
g145
ag147
ag45
ag246
aS'20618153'
p702
aS'24891081'
p703
ag200
aS'76903244'
p704
aS'16333449'
p705
aS'28358060'
p706
aS'22288615'
p707
aS'1137946'
p708
ag610
aS'2416751'
p709
aS'67073567'
p710
asg28
S'20'
p711
sg30
S'Webprogrammeren en databases'
p712
sg32
g390
sg34
g225
sg36
(iread_data
Room
p713
(dp714
g28
g240
sg30
g241
sbsba(ischedule
Activity
p715
(dp716
g8
(lp717
g486
ag511
ag510
ag535
ag365
ag513
ag542
ag490
ag485
ag205
ag483
ag487
ag537
ag407
ag398
ag502
ag167
ag531
ag271
ag317
ag518
ag493
ag508
ag507
ag289
ag171
ag498
ag411
ag529
ag501
ag500
ag515
ag151
ag499
ag523
ag491
ag20
ag325
ag117
ag319
ag188
ag105
ag525
ag524
ag259
asg28
g665
sg30
g545
sg32
g390
sg34
g35
sg36
(iread_data
Room
p718
(dp719
g28
g228
sg30
g229
sbsba(ischedule
Activity
p720
(dp721
g8
(lp722
g134
ag68
ag307
ag304
ag299
ag111
ag152
ag233
ag306
ag295
ag300
asg28
g696
sg30
g137
sg32
g390
sg34
g191
sg36
(iread_data
Room
p723
(dp724
g28
g39
sg30
g40
sbsbaa(lp725
(ischedule
Activity
p726
(dp727
g8
(lp728
S'39230359'
p729
aS'44940353'
p730
ag682
ag22
aS'63955238'
p731
ag555
ag494
ag335
aS'38329455'
p732
ag499
ag361
aS'34262212'
p733
aS'72547110'
p734
aS'91139627'
p735
ag150
ag183
ag539
aS'82688900'
p736
aS'56749879'
p737
ag585
ag337
ag399
aS'63408522'
p738
aS'76924297'
p739
ag78
aS'65003379'
p740
aS'79858178'
p741
ag386
ag461
ag175
ag616
ag134
ag368
ag173
ag88
aS'51186803'
p742
aS'47605891'
p743
ag326
aS'79366078'
p744
ag584
aS'23798155'
p745
ag178
aS'7492204'
p746
aS'20331158'
p747
ag608
ag504
ag48
ag108
ag681
ag81
ag552
ag628
ag170
ag278
ag157
ag348
aS'56988998'
p748
ag176
ag544
ag522
ag513
ag436
aS'39919665'
p749
aS'10872825'
p750
aS'81218347'
p751
aS'39659121'
p752
ag165
ag209
aS'51542218'
p753
ag460
ag85
ag216
aS'23391676'
p754
ag285
ag84
ag376
ag261
ag543
ag304
ag514
ag537
aS'37498675'
p755
aS'59075181'
p756
ag339
asg28
I1000
sg30
S'Kansrekenen 2'
p757
sg32
g96
sg34
I0
sg36
(iread_data
Room
p758
(dp759
g28
g194
sg30
g195
sbsba(ischedule
Activity
p760
(dp761
g8
(lp762
g210
ag51
ag214
ag475
ag472
ag148
aS'40791377'
p763
ag464
ag201
ag469
ag84
ag219
ag686
ag346
ag288
ag220
ag470
ag474
ag222
ag463
ag49
ag209
ag218
ag212
ag182
ag361
aS'34110913'
p764
ag471
ag421
aS'13284244'
p765
ag16
ag461
aS'75759231'
p766
ag208
aS'66701209'
p767
ag202
ag215
ag465
ag487
ag204
ag200
ag187
ag160
ag156
ag460
ag205
ag473
ag468
ag207
ag217
ag109
ag282
aS'5595824'
p768
ag274
aS'88636924'
p769
ag466
ag108
ag211
ag362
ag216
ag203
ag114
aS'2079771'
p770
ag199
ag462
ag467
ag221
ag206
ag213
asg28
I1000
sg30
g224
sg32
g96
sg34
I0
sg36
(iread_data
Room
p771
(dp772
g28
g99
sg30
g100
sbsba(ischedule
Activity
p773
(dp774
g8
(lp775
g307
ag490
ag372
ag147
aS'58736785'
p776
aS'5739011'
p777
ag104
ag166
ag233
aS'83869542'
p778
ag360
ag506
ag324
ag521
ag105
ag676
aS'52304977'
p779
ag345
ag337
aS'670011'
p780
ag491
ag611
ag82
aS'85236626'
p781
aS'48678993'
p782
aS'82968410'
p783
aS'31897288'
p784
aS'35315956'
p785
ag91
asg28
g388
sg30
g389
sg32
g390
sg34
g191
sg36
(iread_data
Room
p786
(dp787
g28
g39
sg30
g40
sbsba(ischedule
Activity
p788
(dp789
g8
(lp790
g115
ag89
ag106
ag118
ag107
ag110
asg28
g651
sg30
g124
sg32
g33
sg34
g225
sg36
(iread_data
Room
p791
(dp792
g28
g228
sg30
g229
sbsba(ischedule
Activity
p793
(dp794
g8
(lp795
g315
ag247
ag629
ag577
ag26
ag576
ag276
ag349
ag574
ag624
ag590
ag575
ag626
ag409
ag627
ag448
ag323
ag625
ag10
ag433
asg28
g379
sg30
g380
sg32
g33
sg34
g225
sg36
(iread_data
Room
p796
(dp797
g28
g140
sg30
g141
sbsba(ischedule
Activity
p798
(dp799
g8
(lp800
g120
asg28
S'10'
p801
sg30
g124
sg32
g390
sg34
g191
sg36
(iread_data
Room
p802
(dp803
g28
g127
sg30
g128
sbsba(ischedule
Activity
p804
(dp805
g8
(lp806
g519
asg28
S'15'
p807
sg30
S'Project Genetic Algorithms'
p808
sg32
g33
sg34
g191
sg36
(iread_data
Room
p809
(dp810
g28
g240
sg30
g241
sbsbaa(lp811
(ischedule
Activity
p812
(dp813
g8
(lp814
g278
ag132
ag59
ag487
ag463
aS'20830477'
p815
ag542
aS'92977271'
p816
ag577
ag537
ag470
ag615
ag423
ag737
ag248
ag781
aS'64053722'
p817
ag588
ag49
ag286
aS'10702778'
p818
ag488
ag449
ag576
ag780
ag203
asg28
g351
sg30
g352
sg32
g33
sg34
g439
sg36
(iread_data
Room
p819
(dp820
g28
g194
sg30
g195
sbsba(ischedule
Activity
p821
(dp822
g8
(lp823
g145
ag181
ag183
ag72
ag51
ag263
ag252
ag249
ag108
ag177
ag122
ag160
ag148
ag107
ag187
ag246
ag256
ag147
ag164
ag106
ag162
ag169
ag123
ag167
ag170
ag154
ag262
ag161
ag184
ag260
ag155
ag250
ag265
ag180
ag165
ag171
ag62
ag258
ag166
ag158
ag159
ag259
ag157
ag149
ag152
ag251
ag150
ag11
ag186
ag178
ag76
ag253
ag151
ag156
ag53
ag257
asg28
S'40'
p824
sg30
g190
sg32
g390
sg34
g191
sg36
(iread_data
Room
p825
(dp826
g28
g228
sg30
g229
sbsba(ischedule
Activity
p827
(dp828
g8
(lp829
g209
aS'63573738'
p830
ag55
ag555
ag498
ag45
ag782
ag211
aS'72586808'
p831
ag92
ag348
aS'59887191'
p832
ag70
ag616
aS'62736669'
p833
ag446
aS'12170832'
p834
ag627
ag468
aS'123355'
p835
aS'5590289'
p836
ag54
aS'85284256'
p837
aS'19058315'
p838
ag472
ag522
ag362
aS'16912993'
p839
ag146
ag409
ag756
aS'56191333'
p840
aS'72456780'
p841
aS'64246605'
p842
ag307
aS'53267490'
p843
aS'25557516'
p844
aS'66120270'
p845
ag585
asg28
g236
sg30
g237
sg32
g33
sg34
g191
sg36
(iread_data
Room
p846
(dp847
g28
g39
sg30
g40
sbsba(ischedule
Activity
p848
(dp849
g8
(lp850
g360
ag315
ag363
ag679
ag369
ag317
ag513
aS'66034145'
p851
aS'10698627'
p852
aS'49908313'
p853
aS'94930277'
p854
aS'17092717'
p855
ag91
ag321
ag520
aS'76648468'
p856
ag445
ag199
aS'41790793'
p857
ag687
aS'69459473'
p858
ag729
ag185
aS'53512831'
p859
asg28
g711
sg30
g712
sg32
g390
sg34
g191
sg36
(iread_data
Room
p860
(dp861
g28
g140
sg30
g141
sbsba(ischedule
Activity
p862
(dp863
g8
(lp864
g17
ag378
ag46
ag280
ag175
ag682
ag350
ag685
ag10
ag681
ag678
ag689
ag64
ag210
ag683
ag89
ag686
ag680
ag83
asg28
S'20'
p865
sg30
g690
sg32
g390
sg34
g191
sg36
(iread_data
Room
p866
(dp867
g28
g99
sg30
g100
sbsba(ischedule
Activity
p868
(dp869
g8
(lp870
g374
aS'247918'
p871
ag316
ag111
ag411
ag15
ag422
ag52
ag386
ag410
ag517
asg28
S'20'
p872
sg30
g415
sg32
g390
sg34
g225
sg36
(iread_data
Room
p873
(dp874
g28
g240
sg30
g241
sbsba(ischedule
Activity
p875
(dp876
g8
(lp877
g301
aS'29718115'
p878
ag591
asg28
S'15'
p879
sg30
g594
sg32
g390
sg34
g191
sg36
(iread_data
Room
p880
(dp881
g28
g127
sg30
g128
sbsbaa(lp882
(ischedule
Activity
p883
(dp884
g8
(lp885
S'26172512'
p886
ag120
ag186
ag155
ag209
ag64
ag105
ag526
ag116
ag258
aS'79937969'
p887
ag203
aS'58866007'
p888
ag106
aS'90743504'
p889
ag577
aS'71839156'
p890
ag56
ag555
ag508
ag780
ag510
aS'16011419'
p891
ag333
ag705
ag539
aS'66570705'
p892
ag152
ag281
ag211
ag150
ag339
ag485
ag574
aS'34588570'
p893
ag445
aS'80998260'
p894
ag624
ag340
aS'54074680'
p895
ag407
aS'21311067'
p896
ag115
aS'96118484'
p897
ag210
ag499
ag207
aS'75005528'
p898
ag134
ag374
aS'32595335'
p899
ag751
ag157
ag503
asg28
I1000
sg30
S'Lineaire Algebra'
p900
sg32
g96
sg34
I0
sg36
(iread_data
Room
p901
(dp902
g28
g194
sg30
g195
sbsba(ischedule
Activity
p903
(dp904
g8
(lp905
g411
ag177
ag46
ag162
ag111
ag601
ag316
ag233
ag361
ag537
ag253
ag59
ag176
ag171
ag386
ag412
ag374
ag407
ag410
ag517
ag845
ag280
ag409
ag271
ag15
ag107
ag277
ag408
ag61
ag413
ag200
ag737
ag473
ag52
ag326
ag169
ag499
ag871
ag422
ag132
ag246
ag187
ag301
ag406
ag487
asg28
I1000
sg30
g415
sg32
g96
sg34
I0
sg36
(iread_data
Room
p906
(dp907
g28
g39
sg30
g40
sbsba(ischedule
Activity
p908
(dp909
g8
(lp910
g278
ag816
ag588
ag10
ag302
ag584
ag592
ag589
ag590
ag586
ag94
ag554
ag585
ag118
ag201
ag587
ag273
ag524
asg28
g879
sg30
g594
sg32
g390
sg34
g225
sg36
(iread_data
Room
p911
(dp912
g28
g127
sg30
g128
sbsba(ischedule
Activity
p913
(dp914
g8
(lp915
g247
ag86
ag26
ag349
ag626
ag323
ag378
ag365
asg28
g578
sg30
g380
sg32
g390
sg34
g35
sg36
(iread_data
Room
p916
(dp917
g28
g99
sg30
g100
sbsba(ischedule
Activity
p918
(dp919
g8
(lp920
g23
ag114
ag166
ag781
ag222
aS'90067329'
p921
ag146
ag748
ag763
ag368
ag90
ag770
ag165
ag277
aS'33252501'
p922
aS'67625383'
p923
ag216
ag78
ag533
ag745
ag48
ag343
asg28
I1000
sg30
S'Machine Learning'
p924
sg32
g96
sg34
I0
sg36
(iread_data
Room
p925
(dp926
g28
g228
sg30
g229
sbsbaa(lp927
(ischedule
Activity
p928
(dp929
g8
(lp930
g782
ag777
ag781
ag491
ag386
ag387
ag82
ag324
ag345
ag147
ag779
ag490
ag783
ag776
ag780
ag91
ag676
ag521
ag611
ag785
ag506
ag105
ag784
ag372
ag307
ag337
ag104
ag84
ag233
ag360
ag778
ag166
asg28
I1000
sg30
g389
sg32
g96
sg34
I0
sg36
g635
sba(ischedule
Activity
p931
(dp932
g8
(lp933
g132
ag149
ag158
ag71
ag303
ag135
ag133
ag302
ag146
ag296
ag297
ag298
asg28
g696
sg30
g137
sg32
g390
sg34
g35
sg36
(iread_data
Room
p934
(dp935
g28
g228
sg30
g229
sbsba(ischedule
Activity
p936
(dp937
g8
g728
sg28
I1000
sg30
g757
sg32
g96
sg34
I0
sg36
(iread_data
Room
p938
(dp939
g28
g194
sg30
g195
sbsba(ischedule
Activity
p940
(dp941
g8
(lp942
g46
ag80
ag49
ag65
ag53
ag60
ag83
ag52
ag54
ag61
ag51
ag64
ag57
ag67
ag62
ag77
ag70
ag69
ag63
ag79
ag89
ag94
ag76
ag68
ag86
asg28
g645
sg30
g95
sg32
g390
sg34
g225
sg36
(iread_data
Room
p943
(dp944
g28
g39
sg30
g40
sbsba(ischedule
Activity
p945
(dp946
g8
(lp947
g610
ag200
ag199
ag369
ag185
ag445
ag710
ag854
ag705
ag315
ag321
ag520
ag707
ag679
ag858
ag145
ag851
ag45
ag246
ag706
ag687
ag703
asg28
S'20'
p948
sg30
g712
sg32
g33
sg34
g225
sg36
(iread_data
Room
p949
(dp950
g28
g127
sg30
g128
sbsba(ischedule
Activity
p951
(dp952
g8
(lp953
g148
ag274
ag288
ag282
ag16
ag201
ag215
ag208
ag211
ag421
ag204
ag686
ag213
ag765
ag767
ag769
ag203
ag217
ag763
ag768
ag220
ag764
ag207
ag202
ag214
ag770
ag487
ag766
asg28
g476
sg30
g224
sg32
g390
sg34
g225
sg36
(iread_data
Room
p954
(dp955
g28
g140
sg30
g141
sbsba(ischedule
Activity
p956
(dp957
g8
(lp958
g118
ag524
ag554
ag816
ag301
ag878
asg28
g593
sg30
g594
sg32
g33
sg34
g225
sg36
(iread_data
Room
p959
(dp960
g28
g240
sg30
g241
sbsbaaa(lp961
(lp962
(ischedule
Activity
p963
(dp964
g8
g885
sg28
I1000
sg30
g900
sg32
g96
sg34
I0
sg36
(iread_data
Room
p965
(dp966
g28
g194
sg30
g195
sbsba(ischedule
Activity
p967
(dp968
g8
(lp969
g319
ag815
ag446
aS'14941752'
p970
ag162
ag784
ag335
aS'83443653'
p971
ag17
aS'87210640'
p972
ag517
ag747
ag158
ag10
ag94
ag118
ag348
ag377
ag756
ag854
aS'14138904'
p973
ag167
ag776
ag112
ag342
ag499
ag627
ag890
ag247
aS'76393508'
p974
ag816
ag213
ag13
aS'53775014'
p975
ag26
ag155
ag72
ag737
aS'97417002'
p976
ag438
aS'45660925'
p977
ag751
ag300
ag89
asg28
I1000
sg30
S'Heuristieken 1'
p978
sg32
g96
sg34
I0
sg36
(iread_data
Room
p979
(dp980
g28
g99
sg30
g100
sbsba(ischedule
Activity
p981
(dp982
g8
(lp983
g132
ag49
ag199
ag181
ag18
ag406
ag433
ag117
ag609
ag615
ag183
ag612
ag614
ag613
ag261
ag53
ag610
ag533
ag618
ag104
ag608
ag617
ag251
ag172
ag616
ag214
ag589
ag611
ag259
ag560
asg28
g453
sg30
g454
sg32
g33
sg34
g191
sg36
(iread_data
Room
p984
(dp985
g28
g140
sg30
g141
sbsba(ischedule
Activity
p986
(dp987
g8
(lp988
g362
ag361
ag156
ag148
ag16
ag51
ag487
ag468
ag109
ag114
ag84
ag471
ag182
ag768
ag160
ag108
ag469
ag282
ag461
ag346
ag475
ag464
ag767
ag686
ag470
ag421
ag274
ag474
ag473
ag460
ag288
ag466
ag766
ag769
ag770
ag465
ag462
ag765
ag467
ag472
ag764
ag187
ag763
ag463
asg28
g223
sg30
g224
sg32
g33
sg34
g191
sg36
(iread_data
Room
p989
(dp990
g28
g228
sg30
g229
sbsba(ischedule
Activity
p991
(dp992
g8
(lp993
g280
ag341
ag369
ag521
ag432
ag174
ag489
ag541
ag285
ag543
ag504
ag527
ag488
ag520
ag506
ag337
ag496
ag522
ag135
ag519
asg28
g665
sg30
g545
sg32
g390
sg34
g225
sg36
(iread_data
Room
p994
(dp995
g28
g39
sg30
g40
sbsba(ischedule
Activity
p996
(dp997
g8
(lp998
g177
aS'23215240'
p999
asg28
g563
sg30
g564
sg32
g33
sg34
g191
sg36
(iread_data
Room
p1000
(dp1001
g28
g240
sg30
g241
sbsba(ischedule
Activity
p1002
(dp1003
g8
(lp1004
g360
ag147
ag729
ag91
ag513
ag856
ag709
ag855
ag317
ag702
ag857
ag853
ag852
ag363
ag704
ag859
ag708
asg28
g948
sg30
g712
sg32
g33
sg34
g191
sg36
(iread_data
Room
p1005
(dp1006
g28
g127
sg30
g128
sbsbaa(lp1007
(ischedule
Activity
p1008
(dp1009
g8
(lp1010
S'82854435'
p1011
ag503
ag339
aS'88737765'
p1012
ag66
ag334
aS'18477924'
p1013
ag768
aS'58480929'
p1014
ag841
ag152
ag92
ag372
ag782
ag492
ag209
ag64
ag87
ag502
aS'78822885'
p1015
aS'73350019'
p1016
ag340
ag542
ag13
aS'14637758'
p1017
ag91
ag163
ag167
ag831
ag422
ag335
aS'97838175'
p1018
ag585
ag83
ag413
ag753
ag168
ag971
ag76
ag628
ag105
ag745
ag540
ag72
aS'5085194'
p1019
ag279
ag320
ag157
ag280
asg28
I1000
sg30
S'Analysemethoden en -technieken'
p1020
sg32
g96
sg34
I0
sg36
(iread_data
Room
p1021
(dp1022
g28
g194
sg30
g195
sbsba(ischedule
Activity
p1023
(dp1024
g8
g905
sg28
I1000
sg30
g415
sg32
g96
sg34
I0
sg36
(iread_data
Room
p1025
(dp1026
g28
g39
sg30
g40
sbsba(ischedule
Activity
p1027
(dp1028
g8
(lp1029
g146
ag555
ag362
aS'90296821'
p1030
ag265
ag289
ag448
ag468
ag590
ag707
ag55
ag217
ag837
ag852
asg28
g351
sg30
g352
sg32
g33
sg34
g35
sg36
(iread_data
Room
p1031
(dp1032
g28
g127
sg30
g128
sbsba(ischedule
Activity
p1033
(dp1034
g8
(lp1035
g614
aS'19214659'
p1036
ag323
ag739
ag333
ag254
ag211
aS'28055464'
p1037
aS'37701751'
p1038
aS'69634191'
p1039
ag56
ag204
ag460
ag233
ag851
aS'64768422'
p1040
ag423
ag496
ag611
ag525
ag600
aS'20374340'
p1041
ag561
ag613
ag321
asg28
I1000
sg30
S'Interactie-ontwerp'
p1042
sg32
g96
sg34
I0
sg36
(iread_data
Room
p1043
(dp1044
g28
g140
sg30
g141
sbsba(ischedule
Activity
p1045
(dp1046
g8
(lp1047
S'13798030'
p1048
ag687
aS'59289233'
p1049
ag747
ag313
ag145
ag185
ag973
ag222
ag510
ag370
ag745
ag878
ag888
ag274
ag491
ag469
ag318
ag315
ag180
ag433
asg28
I1000
sg30
S'Architectuur en computerorganisatie'
p1050
sg32
g96
sg34
I0
sg36
(iread_data
Room
p1051
(dp1052
g28
g99
sg30
g100
sbsba(ischedule
Activity
p1053
(dp1054
g8
(lp1055
g134
ag367
aS'54395877'
p1056
ag533
ag257
ag360
ag184
ag552
ag754
aS'51791169'
p1057
ag447
ag733
ag188
ag464
asg28
g351
sg30
g352
sg32
g33
sg34
S'6'
p1058
sg36
(iread_data
Room
p1059
(dp1060
g28
g240
sg30
g241
sbsba(ischedule
Activity
p1061
(dp1062
g8
(lp1063
g264
aS'63096281'
p1064
aS'88263855'
p1065
ag608
ag709
aS'12782624'
p1066
ag319
ag219
ag494
ag63
ag325
ag304
ag23
ag746
ag589
ag47
ag114
ag250
ag506
asg28
g351
sg30
g352
sg32
g33
sg34
g191
sg36
(iread_data
Room
p1067
(dp1068
g28
g228
sg30
g229
sbsbaa(lp1069
(ischedule
Activity
p1070
(dp1071
g8
g623
sg28
I1000
sg30
g380
sg32
g96
sg34
I0
sg36
(iread_data
Room
p1072
(dp1073
g28
g194
sg30
g195
sbsba(ischedule
Activity
p1074
(dp1075
g8
g43
sg28
I1000
sg30
g95
sg32
g96
sg34
I0
sg36
(iread_data
Room
p1076
(dp1077
g28
g99
sg30
g100
sbsba(ischedule
Activity
p1078
(dp1079
g8
(lp1080
g471
ag591
ag520
ag162
aS'51472074'
p1081
ag337
ag973
aS'74361881'
p1082
ag609
ag235
ag447
aS'47260040'
p1083
aS'25994016'
p1084
ag1019
aS'5892092'
p1085
ag684
ag890
aS'44151631'
p1086
aS'51673172'
p1087
asg28
g563
sg30
g564
sg32
g33
sg34
g225
sg36
(iread_data
Room
p1088
(dp1089
g28
g240
sg30
g241
sbsbaa(lp1090
(ischedule
Activity
p1091
(dp1092
g8
(lp1093
g627
ag361
ag373
ag360
ag369
ag448
ag366
ag371
ag10
ag207
ag159
ag377
ag359
ag363
ag364
ag629
ag341
ag432
ag624
ag625
ag372
ag375
ag521
ag376
ag374
ag560
ag628
ag590
asg28
g578
sg30
g380
sg32
g390
sg34
g191
sg36
(iread_data
Room
p1094
(dp1095
g28
g140
sg30
g141
sbsba(ischedule
Activity
p1096
(dp1097
g8
(lp1098
g145
ag254
ag260
ag163
ag76
ag253
ag251
ag108
ag106
ag171
ag181
ag123
ag157
ag160
ag183
ag182
ag184
ag150
ag262
ag250
ag178
ag252
ag153
ag180
ag170
ag159
ag186
ag263
ag152
ag161
ag148
ag176
ag146
ag158
ag154
ag175
ag168
ag258
ag72
ag255
ag11
ag51
ag173
ag166
ag179
ag172
ag62
ag151
ag167
ag264
ag169
ag53
ag256
ag249
ag164
ag187
ag185
ag246
ag261
ag149
ag174
ag107
ag156
ag247
ag162
ag155
ag265
ag122
ag147
ag165
ag177
ag257
ag248
ag188
ag259
asg28
I1000
sg30
g190
sg32
g96
sg34
I0
sg36
(iread_data
Room
p1099
(dp1100
g28
g194
sg30
g195
sbsba(ischedule
Activity
p1101
(dp1102
g8
g294
sg28
I1000
sg30
g137
sg32
g96
sg34
I0
sg36
(iread_data
Room
p1103
(dp1104
g28
g39
sg30
g40
sbsba(ischedule
Activity
p1105
(dp1106
g8
(lp1107
g687
ag469
ag17
ag433
ag378
ag1038
ag537
ag462
ag737
ag512
ag69
ag508
ag780
ag501
aS'13132925'
p1108
aS'4529208'
p1109
ag517
aS'59397895'
p1110
ag86
ag446
ag435
ag115
ag49
ag278
ag542
ag114
ag286
asg28
S'40'
p1111
sg30
S'Databases 2'
p1112
sg32
g390
sg34
g191
sg36
(iread_data
Room
p1113
(dp1114
g28
g99
sg30
g100
sbsba(ischedule
Activity
p1115
(dp1116
g8
(lp1117
g280
ag46
ag13
ag24
ag22
ag55
ag277
ag284
ag281
ag21
ag399
ag27
ag73
ag283
asg28
g657
sg30
g31
sg32
g390
sg34
g191
sg36
(iread_data
Room
p1118
(dp1119
g28
g228
sg30
g229
sbsba(ischedule
Activity
p1120
(dp1121
g8
(lp1122
g854
ag213
ag974
ag26
asg28
S'25'
p1123
sg30
g978
sg32
g390
sg34
g225
sg36
(iread_data
Room
p1124
(dp1125
g28
g127
sg30
g128
sbsbaa(lp1126
(ischedule
Activity
p1127
(dp1128
g8
g1035
sg28
I1000
sg30
g1042
sg32
g96
sg34
I0
sg36
(iread_data
Room
p1129
(dp1130
g28
g194
sg30
g195
sbsba(ischedule
Activity
p1131
(dp1132
g8
(lp1133
g372
ag279
ag871
ag104
ag18
ag363
ag122
ag486
ag257
ag841
ag54
ag628
ag63
ag505
aS'5526560'
p1134
aS'54540997'
p1135
ag374
ag833
ag109
aS'25077484'
p1136
ag22
aS'58083680'
p1137
ag451
ag898
ag610
ag276
ag325
ag437
ag753
ag15
ag316
aS'27123462'
p1138
ag1019
ag519
ag778
ag421
ag65
ag485
aS'15187217'
p1139
ag588
ag615
ag840
ag340
ag203
ag855
asg28
g1111
sg30
g1112
sg32
g390
sg34
g225
sg36
(iread_data
Room
p1140
(dp1141
g28
g39
sg30
g40
sbsba(ischedule
Activity
p1142
(dp1143
g8
(lp1144
g132
ag59
ag537
ag187
ag408
ag253
ag409
ag499
ag169
ag271
ag326
ag301
ag413
ag406
ag200
asg28
g872
sg30
g415
sg32
g390
sg34
g191
sg36
(iread_data
Room
p1145
(dp1146
g28
g127
sg30
g128
sbsba(ischedule
Activity
p1147
(dp1148
g8
(lp1149
g149
ag68
ag146
ag104
ag71
ag303
ag152
ag305
ag299
ag307
ag296
ag304
ag300
ag306
asg28
g136
sg30
g137
sg32
g33
sg34
g191
sg36
(iread_data
Room
p1150
(dp1151
g28
g140
sg30
g141
sbsba(ischedule
Activity
p1152
(dp1153
g8
g674
sg28
I1000
sg30
g690
sg32
g96
sg34
I0
sg36
(iread_data
Room
p1154
(dp1155
g28
g99
sg30
g100
sbsba(ischedule
Activity
p1156
(dp1157
g8
g1047
sg28
I1000
sg30
g1050
sg32
g96
sg34
I0
sg36
(iread_data
Room
p1158
(dp1159
g28
g228
sg30
g229
sbsba(ischedule
Activity
p1160
(dp1161
g8
(lp1162
g81
ag70
ag322
ag235
asg28
S'10'
p1163
sg30
g327
sg32
g33
sg34
g191
sg36
(iread_data
Room
p1164
(dp1165
g28
g240
sg30
g241
sbsbaaa(lp1166
(lp1167
(ischedule
Activity
p1168
(dp1169
g8
g920
sg28
I1000
sg30
g924
sg32
g96
sg34
I0
sg36
(iread_data
Room
p1170
(dp1171
g28
g127
sg30
g128
sbsba(ischedule
Activity
p1172
(dp1173
g8
g905
sg28
I1000
sg30
g415
sg32
g96
sg34
I0
sg36
(iread_data
Room
p1174
(dp1175
g28
g194
sg30
g195
sbsba(ischedule
Activity
p1176
(dp1177
g8
(lp1178
g199
ag610
ag446
ag451
ag615
ag49
ag18
ag104
ag433
ag214
ag211
ag445
ag609
ag611
ag450
ag560
ag251
ag449
ag608
ag117
ag612
ag149
ag452
ag181
ag53
ag617
ag447
ag172
ag261
asg28
S'25'
p1179
sg30
g454
sg32
g390
sg34
g225
sg36
(iread_data
Room
p1180
(dp1181
g28
g140
sg30
g141
sbsba(ischedule
Activity
p1182
(dp1183
g8
(lp1184
g55
ag215
ag398
ag252
ag397
ag400
ag399
ag115
asg28
g29
sg30
g31
sg32
g33
sg34
g225
sg36
(iread_data
Room
p1185
(dp1186
g28
g240
sg30
g241
sbsba(ischedule
Activity
p1187
(dp1188
g8
(lp1189
g590
ag585
ag588
ag302
ag278
ag118
ag816
ag524
ag592
ag273
ag584
ag878
ag586
ag554
ag591
ag589
ag94
ag587
ag10
ag301
ag201
asg28
I1000
sg30
g594
sg32
g96
sg34
I0
sg36
(iread_data
Room
p1190
(dp1191
g28
g228
sg30
g229
sbsba(ischedule
Activity
p1192
(dp1193
g8
(lp1194
g858
ag1136
ag436
ag782
ag767
ag159
ag322
ag1084
asg28
g807
sg30
g808
sg32
g33
sg34
g35
sg36
(iread_data
Room
p1195
(dp1196
g28
g39
sg30
g40
sbsbaa(lp1197
(ischedule
Activity
p1198
(dp1199
g8
(lp1200
g206
ag132
ag249
ag560
ag65
asg28
g379
sg30
g380
sg32
g33
sg34
g35
sg36
(iread_data
Room
p1201
(dp1202
g28
g228
sg30
g229
sbsba(ischedule
Activity
p1203
(dp1204
g8
(lp1205
g628
ag149
ag521
ag341
ag115
ag257
ag263
ag432
asg28
g379
sg30
g380
sg32
g33
sg34
g439
sg36
(iread_data
Room
p1206
(dp1207
g28
g39
sg30
g40
sbsba(ischedule
Activity
p1208
(dp1209
g8
g1189
sg28
I1000
sg30
g594
sg32
g96
sg34
I0
sg36
(iread_data
Room
p1210
(dp1211
g28
g127
sg30
g128
sbsba(ischedule
Activity
p1212
(dp1213
g8
(lp1214
g104
ag72
ag111
ag123
ag117
ag119
ag116
ag109
ag113
asg28
g651
sg30
g124
sg32
g33
sg34
g35
sg36
(iread_data
Room
p1215
(dp1216
g28
g140
sg30
g141
sbsba(ischedule
Activity
p1217
(dp1218
g8
(lp1219
g533
ag739
ag252
ag473
ag106
ag491
ag1012
ag532
ag359
ag165
ag616
ag562
ag1134
ag516
ag51
ag92
ag204
ag279
ag202
aS'75680261'
p1220
ag64
ag551
ag1082
ag490
ag73
aS'55480737'
p1221
ag1087
asg28
g807
sg30
g808
sg32
g33
sg34
g225
sg36
(iread_data
Room
p1222
(dp1223
g28
g194
sg30
g195
sbsba(ischedule
Activity
p1224
(dp1225
g8
(lp1226
g705
ag852
ag702
ag858
ag200
ag855
ag856
ag445
ag360
ag145
ag851
ag199
ag185
ag857
ag706
ag315
ag321
ag363
ag709
ag687
ag147
ag710
ag859
ag513
ag679
ag708
ag317
ag369
ag704
ag854
ag729
ag520
ag853
ag610
ag45
ag707
ag91
ag703
ag246
asg28
I1000
sg30
g712
sg32
g96
sg34
I0
sg36
(iread_data
Room
p1227
(dp1228
g28
g99
sg30
g100
sbsba(ischedule
Activity
p1229
(dp1230
g8
(lp1231
g505
ag67
aS'21070547'
p1232
aS'32183908'
p1233
ag898
ag175
aS'34691309'
p1234
ag253
ag683
ag970
ag208
ag307
ag86
asg28
g425
sg30
g426
sg32
g33
sg34
g225
sg36
(iread_data
Room
p1235
(dp1236
g28
g240
sg30
g241
sbsbaa(lp1237
(ischedule
Activity
p1238
(dp1239
g8
(lp1240
g588
ag109
ag286
ag374
ag687
ag1038
ag122
ag508
ag340
ag114
ag54
ag421
ag18
ag486
ag512
ag840
ag1137
ag316
ag104
ag737
ag462
ag871
ag469
ag1134
ag278
ag485
ag1136
ag446
ag372
ag898
ag279
ag276
ag519
ag1109
ag610
ag435
ag17
ag378
ag433
ag115
ag15
ag1135
ag49
ag1108
ag1138
ag65
ag86
ag542
ag753
ag1110
ag517
ag841
ag22
ag63
ag778
ag537
ag437
ag363
ag855
ag833
ag628
ag501
ag69
ag615
ag505
ag257
ag203
ag451
ag325
ag780
ag1139
ag1019
asg28
I1000
sg30
g1112
sg32
g96
sg34
I0
sg36
(iread_data
Room
p1241
(dp1242
g28
g194
sg30
g195
sbsba(ischedule
Activity
p1243
(dp1244
g8
(lp1245
g166
ag533
ag132
ag406
ag589
ag183
ag448
ag614
ag348
ag259
ag618
ag81
ag616
ag613
asg28
g1179
sg30
g454
sg32
g390
sg34
g191
sg36
(iread_data
Room
p1246
(dp1247
g28
g140
sg30
g141
sbsba(ischedule
Activity
p1248
(dp1249
g8
(lp1250
g679
ag158
ag148
ag260
ag676
ag201
ag472
ag584
ag591
ag323
ag510
ag675
ag688
ag118
ag349
ag684
ag677
ag214
ag687
asg28
g865
sg30
g690
sg32
g390
sg34
g225
sg36
(iread_data
Room
p1251
(dp1252
g28
g240
sg30
g241
sbsba(ischedule
Activity
p1253
(dp1254
g8
(lp1255
g207
ag319
ag215
ag199
ag187
ag362
ag156
ag313
ag346
ag765
aS'37419523'
p1256
aS'63939720'
p1257
ag830
ag170
ag409
ag123
ag60
aS'81116418'
p1258
ag48
ag493
ag539
ag210
ag1036
aS'19662602'
p1259
aS'40911986'
p1260
asg28
g425
sg30
g426
sg32
g33
sg34
g35
sg36
(iread_data
Room
p1261
(dp1262
g28
g228
sg30
g229
sbsba(ischedule
Activity
p1263
(dp1264
g8
(lp1265
g165
ag133
ag999
aS'88597745'
p1266
ag80
ag271
ag483
ag702
aS'7386961'
p1267
ag522
ag150
ag297
aS'73893840'
p1268
asg28
g351
sg30
g352
sg32
g33
sg34
g225
sg36
(iread_data
Room
p1269
(dp1270
g28
g127
sg30
g128
sbsba(ischedule
Activity
p1271
(dp1272
g8
(lp1273
g46
ag280
ag176
ag162
ag233
ag737
ag61
ag246
ag277
ag407
ag171
ag361
ag177
ag601
ag107
ag487
ag845
ag412
ag473
asg28
g872
sg30
g415
sg32
g390
sg34
g35
sg36
(iread_data
Room
p1274
(dp1275
g28
g39
sg30
g40
sbsbaa(lp1276
(ischedule
Activity
p1277
(dp1278
g8
g762
sg28
I1000
sg30
g224
sg32
g96
sg34
I0
sg36
(iread_data
Room
p1279
(dp1280
g28
g194
sg30
g195
sbsba(ischedule
Activity
p1281
(dp1282
g8
g1226
sg28
I1000
sg30
g712
sg32
g96
sg34
I0
sg36
(iread_data
Room
p1283
(dp1284
g28
g39
sg30
g40
sbsba(ischedule
Activity
p1285
(dp1286
g8
(lp1287
g433
ag257
ag263
ag149
ag115
ag132
ag409
ag367
ag153
ag370
ag368
asg28
g578
sg30
g380
sg32
g390
sg34
g439
sg36
(iread_data
Room
p1288
(dp1289
g28
g127
sg30
g128
sbsba(ischedule
Activity
p1290
(dp1291
g8
(lp1292
g751
ag890
ag517
ag499
ag10
ag155
ag816
ag162
ag747
ag737
ag784
ag319
ag89
ag247
ag970
ag158
ag627
ag72
ag300
ag377
ag17
ag972
ag167
ag446
ag342
ag13
ag118
ag815
ag112
ag335
ag438
ag348
ag776
ag975
ag756
ag973
ag977
ag971
ag94
ag976
asg28
g1123
sg30
g978
sg32
g390
sg34
g191
sg36
(iread_data
Room
p1293
(dp1294
g28
g99
sg30
g100
sbsbaa(lp1295
(ischedule
Activity
p1296
(dp1297
g8
(lp1298
g107
ag104
ag111
ag89
ag115
ag117
ag109
ag122
ag113
ag121
ag105
ag112
ag118
ag116
ag72
ag119
ag110
asg28
g801
sg30
g124
sg32
g390
sg34
g35
sg36
g934
sba(ischedule
Activity
p1299
(dp1300
g8
(lp1301
g280
ag361
ag537
ag601
ag277
ag845
ag473
ag246
ag200
ag187
ag737
ag422
ag517
ag271
ag46
ag177
ag301
ag386
ag52
ag171
ag487
ag169
ag61
ag233
ag499
ag871
ag162
asg28
g414
sg30
g415
sg32
g33
sg34
g225
sg36
(iread_data
Room
p1302
(dp1303
g28
g39
sg30
g40
sbsba(ischedule
Activity
p1304
(dp1305
g8
(lp1306
g321
ag315
ag318
ag323
ag313
ag325
ag54
ag324
ag314
ag326
ag316
ag320
ag317
ag218
ag319
ag13
asg28
g1163
sg30
g327
sg32
g33
sg34
g225
sg36
(iread_data
Room
p1307
(dp1308
g28
g240
sg30
g241
sbsba(ischedule
Activity
p1309
(dp1310
g8
(lp1311
g81
ag93
ag90
ag45
ag47
ag55
ag58
asg28
g645
sg30
g95
sg32
g390
sg34
g35
sg36
(iread_data
Room
p1312
(dp1313
g28
g127
sg30
g128
sbsba(ischedule
Activity
p1314
(dp1315
g8
(lp1316
g12
ag15
ag147
ag10
ag65
ag279
ag20
ag145
ag26
ag181
ag14
ag276
ag80
ag252
ag285
ag18
ag273
ag286
ag215
ag148
ag288
ag115
ag201
ag275
ag278
ag400
ag272
ag16
ag274
ag282
ag17
ag397
ag23
ag289
ag287
ag398
ag25
ag19
asg28
g657
sg30
g31
sg32
g390
sg34
g225
sg36
(iread_data
Room
p1317
(dp1318
g28
g194
sg30
g195
sbsba(ischedule
Activity
p1319
(dp1320
g8
(lp1321
g123
ag114
ag106
ag108
asg28
g801
sg30
g124
sg32
g390
sg34
g225
sg36
(iread_data
Room
p1322
(dp1323
g28
g99
sg30
g100
sbsba(ischedule
Activity
p1324
(dp1325
g8
(lp1326
g185
ag175
ag248
ag182
ag261
ag255
ag146
ag163
ag264
ag247
ag172
ag188
ag173
ag176
ag153
ag254
ag179
ag168
ag174
asg28
g824
sg30
g190
sg32
g390
sg34
g225
sg36
(iread_data
Room
p1327
(dp1328
g28
g140
sg30
g141
sbsbaaa(lp1329
(lp1330
a(lp1331
a(lp1332
a(lp1333
a(lp1334
aasS'timeslot_dict'
p1335
(dp1336
I0
S'9:00-11:00'
p1337
sI1
S'11:00-13:00'
p1338
sI2
S'13:00-15:00'
p1339
sI3
S'15:00-17:00'
p1340
sI4
S'17:00-19:00'
p1341
ssS'day_dict'
p1342
(dp1343
I0
S'Monday'
p1344
sI1
S'Tuesday'
p1345
sI2
S'Wednesday'
p1346
sI3
S'Thursday'
p1347
sI4
S'Friday'
p1348
ssb.