(ischedule
Schedule
p0
(dp1
S'timetable'
p2
(lp3
(lp4
(lp5
(ischedule
Activity
p6
(dp7
S'participants'
p8
(lp9
S'69634191'
p10
aS'44828429'
p11
aS'21677389'
p12
aS'66034145'
p13
aS'93566383'
p14
aS'4546613'
p15
aS'81200278'
p16
aS'76661016'
p17
aS'37701751'
p18
aS'5368702'
p19
aS'37399898'
p20
aS'19214659'
p21
aS'38179241'
p22
aS'14847953'
p23
aS'81385263'
p24
aS'3707829'
p25
aS'20374340'
p26
aS'28055464'
p27
aS'23547619'
p28
aS'76924297'
p29
aS'2550487'
p30
aS'65675896'
p31
aS'64768422'
p32
aS'34765676'
p33
aS'81155296'
p34
asS'capacity'
p35
I1000
sS'name'
p36
S'Interactie-ontwerp'
p37
sS'ttype'
p38
S'lectures'
p39
sS'group_id'
p40
I0
sS'room'
p41
(iread_data
Room
p42
(dp43
g35
S'41'
p44
sg36
S'A1.04'
p45
sbsba(ischedule
Activity
p46
(dp47
g8
(lp48
S'50184318'
p49
aS'97135019'
p50
aS'75521763'
p51
aS'64393888'
p52
aS'35330349'
p53
aS'57595888'
p54
aS'42196732'
p55
aS'15902055'
p56
aS'82689818'
p57
aS'72577292'
p58
aS'25106480'
p59
aS'9332762'
p60
aS'76123484'
p61
aS'3233378'
p62
aS'60312776'
p63
aS'24277163'
p64
ag28
aS'50143947'
p65
aS'37770881'
p66
aS'53107172'
p67
aS'33760909'
p68
aS'29474737'
p69
aS'64296965'
p70
aS'17222374'
p71
aS'64228258'
p72
aS'77896638'
p73
aS'96104167'
p74
aS'21964491'
p75
aS'46052388'
p76
aS'73980360'
p77
aS'61443567'
p78
aS'1696500'
p79
aS'43027916'
p80
aS'86000192'
p81
aS'5517869'
p82
aS'77240949'
p83
aS'26406342'
p84
aS'58522654'
p85
aS'1075391'
p86
aS'31416266'
p87
aS'13534377'
p88
aS'42171678'
p89
aS'86291592'
p90
aS'22699561'
p91
aS'28357474'
p92
aS'17575088'
p93
aS'51741554'
p94
aS'65960683'
p95
aS'42778953'
p96
aS'34773179'
p97
aS'4783858'
p98
aS'7308727'
p99
aS'62701040'
p100
aS'48601268'
p101
aS'54310617'
p102
aS'45556081'
p103
aS'13092455'
p104
aS'29640619'
p105
aS'1665980'
p106
aS'87758823'
p107
aS'68601184'
p108
asg35
I1000
sg36
S'Collectieve Intelligentie'
p109
sg38
g39
sg40
I0
sg41
(iread_data
Room
p110
(dp111
g35
S'117'
p112
sg36
S'C0.110'
p113
sbsba(ischedule
Activity
p114
(dp115
g8
(lp116
S'56749879'
p117
aS'28359697'
p118
aS'11068043'
p119
aS'33930505'
p120
aS'30195935'
p121
aS'74131924'
p122
aS'66120270'
p123
aS'22826928'
p124
aS'15051051'
p125
aS'4568018'
p126
aS'70878567'
p127
aS'5298748'
p128
aS'22731474'
p129
ag85
aS'56815156'
p130
aS'85335143'
p131
aS'43680781'
p132
ag99
aS'77831658'
p133
aS'14816774'
p134
aS'64600457'
p135
aS'30050930'
p136
ag75
aS'20883994'
p137
aS'247918'
p138
aS'21029457'
p139
ag55
aS'29526540'
p140
aS'6723948'
p141
aS'53202517'
p142
aS'96054456'
p143
aS'6913074'
p144
aS'54026378'
p145
aS'44868097'
p146
aS'96453361'
p147
aS'59544049'
p148
ag16
aS'89985072'
p149
aS'73236988'
p150
aS'24613625'
p151
aS'88176729'
p152
aS'14591033'
p153
aS'33877725'
p154
aS'79617364'
p155
aS'3168419'
p156
asg35
I1000
sg36
S'Bioinformatica'
p157
sg38
g39
sg40
I0
sg41
(iread_data
Room
p158
(dp159
g35
S'48'
p160
sg36
S'B0.201'
p161
sbsba(ischedule
Activity
p162
(dp163
g8
(lp164
S'22871048'
p165
aS'55474917'
p166
aS'45915482'
p167
aS'42115591'
p168
aS'11915563'
p169
aS'84110134'
p170
aS'65408517'
p171
aS'52552718'
p172
aS'62356458'
p173
aS'41527759'
p174
aS'31633723'
p175
aS'94467156'
p176
aS'89338938'
p177
aS'14671406'
p178
aS'31247305'
p179
aS'68409833'
p180
aS'95631564'
p181
aS'21095566'
p182
aS'83210352'
p183
ag145
aS'48357272'
p184
aS'26260141'
p185
aS'80709893'
p186
aS'40343779'
p187
aS'77376714'
p188
aS'27950803'
p189
aS'73302736'
p190
aS'31103066'
p191
aS'58074656'
p192
aS'61060652'
p193
aS'1048485'
p194
aS'13718298'
p195
aS'3727435'
p196
aS'96554914'
p197
aS'82872148'
p198
aS'37830626'
p199
aS'51593625'
p200
asg35
S'40'
p201
sg36
S'Software engineering'
p202
sg38
S'tutorials'
p203
sg40
S'1'
p204
sg41
(iread_data
Room
p205
(dp206
g35
S'60'
p207
sg36
S'C1.112'
p208
sbsba(ischedule
Activity
p209
(dp210
g8
(lp211
S'59289233'
p212
aS'29718115'
p213
aS'28618400'
p214
aS'58866007'
p215
aS'20331158'
p216
aS'14138904'
p217
aS'49683101'
p218
aS'70015932'
p219
aS'23798155'
p220
aS'89180944'
p221
aS'40434933'
p222
aS'72683344'
p223
aS'13798030'
p224
aS'27925117'
p225
aS'10149535'
p226
aS'83266686'
p227
ag58
ag57
aS'34872117'
p228
ag103
aS'43460038'
p229
asg35
I1000
sg36
S'Architectuur en computerorganisatie'
p230
sg38
g39
sg40
I0
sg41
(iread_data
Room
p231
(dp232
g35
S'22'
p233
sg36
S'A1.06'
p234
sbsba(ischedule
Activity
p235
(dp236
g8
(lp237
S'22323043'
p238
aS'51566595'
p239
aS'37110913'
p240
aS'99453514'
p241
aS'98780382'
p242
aS'91196968'
p243
asg35
S'10'
p244
sg36
S'Data Mining'
p245
sg38
g203
sg40
g204
sg41
(iread_data
Room
p246
(dp247
g35
S'56'
p248
sg36
S'A1.10'
p249
sbsba(ischedule
Activity
p250
(dp251
g8
(lp252
S'63111000'
p253
aS'78443067'
p254
aS'33776961'
p255
aS'68315599'
p256
asg35
S'20'
p257
sg36
S'Moderne Databases'
p258
sg38
g203
sg40
g204
sg41
(iread_data
Room
p259
(dp260
g35
S'20'
p261
sg36
S'A1.08'
p262
sbsbaa(lp263
(ischedule
Activity
p264
(dp265
g8
(lp266
S'26857113'
p267
ag218
ag220
aS'67625383'
p268
ag125
aS'85236626'
p269
aS'56988998'
p270
ag253
ag176
aS'38296757'
p271
aS'61518436'
p272
ag83
aS'39459642'
p273
aS'5976174'
p274
aS'27187154'
p275
aS'37744525'
p276
aS'3685034'
p277
aS'40791377'
p278
aS'46701583'
p279
aS'33252501'
p280
aS'2079771'
p281
aS'90067329'
p282
asg35
I1000
sg36
S'Machine Learning'
p283
sg38
g39
sg40
I0
sg41
(iread_data
Room
p284
(dp285
g35
g207
sg36
g208
sbsba(ischedule
Activity
p286
(dp287
g8
(lp288
S'46570285'
p289
aS'78735049'
p290
aS'58469172'
p291
aS'24875739'
p292
ag146
ag143
ag15
aS'27298319'
p293
aS'32705005'
p294
aS'10792879'
p295
aS'79888156'
p296
aS'5615125'
p297
ag98
ag190
ag254
aS'19717077'
p298
aS'3678531'
p299
ag34
aS'63634350'
p300
aS'23628642'
p301
ag153
ag50
aS'37279234'
p302
aS'14303208'
p303
aS'9731271'
p304
aS'16097870'
p305
ag81
aS'79167252'
p306
aS'28957789'
p307
ag225
aS'87900893'
p308
aS'74182182'
p309
aS'22168693'
p310
aS'77306636'
p311
ag56
aS'33672995'
p312
aS'62105897'
p313
aS'47932106'
p314
aS'6939933'
p315
aS'87602030'
p316
aS'75997788'
p317
ag22
aS'58592894'
p318
ag275
aS'6709529'
p319
ag68
aS'78544592'
p320
ag139
aS'82412626'
p321
aS'61520025'
p322
ag227
aS'58253841'
p323
asg35
S'40'
p324
sg36
S'Calculus 2'
p325
sg38
g203
sg40
g204
sg41
(iread_data
Room
p326
(dp327
g35
g112
sg36
g113
sbsba(ischedule
Activity
p328
(dp329
g8
(lp330
S'8557857'
p331
aS'13658563'
p332
aS'44901052'
p333
aS'92977271'
p334
aS'13116738'
p335
aS'75585647'
p336
ag51
aS'18266644'
p337
ag256
aS'19958553'
p338
aS'58332004'
p339
aS'17496687'
p340
aS'32204977'
p341
ag213
aS'23257088'
p342
aS'23983476'
p343
aS'11459236'
p344
aS'77636749'
p345
ag127
ag100
aS'36748818'
p346
asg35
I1000
sg36
S'Informatie- en organsatieontwerp'
p347
sg38
g39
sg40
I0
sg41
(iread_data
Room
p348
(dp349
g35
g233
sg36
g234
sbsba(ischedule
Activity
p350
(dp351
g8
(lp352
g126
ag119
ag16
ag99
ag145
ag149
ag150
ag122
ag136
ag137
ag156
ag142
ag138
asg35
S'20'
p353
sg36
g157
sg38
S'labs'
p354
sg40
g204
sg41
(iread_data
Room
p355
(dp356
g35
g44
sg36
g45
sbsba(ischedule
Activity
p357
(dp358
g8
(lp359
g132
ag64
aS'99975346'
p360
ag104
ag240
aS'87830198'
p361
aS'57086672'
p362
ag195
aS'49922855'
p363
aS'84524083'
p364
aS'60352393'
p365
ag144
ag197
aS'70193386'
p366
aS'27805666'
p367
aS'52715680'
p368
ag189
aS'82390428'
p369
aS'77960666'
p370
aS'84449005'
p371
aS'92778619'
p372
aS'60661905'
p373
aS'27370083'
p374
aS'51415617'
p375
asg35
S'20'
p376
sg36
S'Reflectie op de digitale cultuur'
p377
sg38
g203
sg40
S'3'
p378
sg41
(iread_data
Room
p379
(dp380
g35
g160
sg36
g161
sbsba(ischedule
Activity
p381
(dp382
g8
(lp383
S'4921119'
p384
aS'41578612'
p385
aS'23565001'
p386
ag166
ag215
ag305
ag226
ag243
aS'56872729'
p387
ag53
ag20
ag153
aS'670011'
p388
aS'80998260'
p389
aS'32595335'
p390
aS'81218347'
p391
ag155
aS'66570705'
p392
ag186
ag96
ag183
ag309
aS'34243356'
p393
aS'26172512'
p394
aS'34588570'
p395
aS'36527838'
p396
aS'55412918'
p397
ag14
aS'90743504'
p398
aS'94955328'
p399
aS'21311067'
p400
aS'16011419'
p401
ag87
ag24
ag168
aS'16333449'
p402
aS'3474870'
p403
aS'94686490'
p404
aS'52311353'
p405
aS'54074680'
p406
ag82
aS'96118484'
p407
ag193
aS'36508571'
p408
aS'79937969'
p409
aS'48308205'
p410
ag55
aS'71839156'
p411
aS'38499176'
p412
ag180
aS'75005528'
p413
ag107
ag73
aS'62872965'
p414
asg35
I1000
sg36
S'Lineaire Algebra'
p415
sg38
g39
sg40
I0
sg41
(iread_data
Room
p416
(dp417
g35
g248
sg36
g249
sbsba(ischedule
Activity
p418
(dp419
g8
(lp420
g57
aS'56191333'
p421
aS'81022997'
p422
aS'75664412'
p423
ag187
ag120
aS'63573738'
p424
ag179
aS'62736669'
p425
aS'5590289'
p426
aS'3883025'
p427
aS'77392404'
p428
aS'123355'
p429
aS'72456780'
p430
aS'57467488'
p431
ag121
ag94
asg35
S'20'
p432
sg36
S'Netwerken en systeembeveiliging'
p433
sg38
g354
sg40
S'4'
p434
sg41
(iread_data
Room
p435
(dp436
g35
g261
sg36
g262
sbsbaa(lp437
(ischedule
Activity
p438
(dp439
g8
(lp440
S'42406214'
p441
ag255
ag64
ag240
ag144
aS'4709948'
p442
ag428
ag132
ag366
aS'90474003'
p443
aS'68286356'
p444
ag271
ag373
ag189
aS'54569540'
p445
aS'86988337'
p446
ag128
ag385
ag364
ag20
ag195
ag372
aS'78136904'
p447
aS'70844780'
p448
aS'36785409'
p449
ag362
ag368
ag369
ag361
ag365
ag332
aS'32044893'
p450
ag104
ag197
aS'59753700'
p451
ag367
ag272
aS'36213792'
p452
ag371
aS'20239127'
p453
aS'20095994'
p454
ag374
aS'51052738'
p455
ag124
ag375
ag360
ag370
ag165
ag277
ag363
ag241
asg35
I1000
sg36
g377
sg38
g39
sg40
I0
sg41
(iread_data
Room
p456
(dp457
g35
g248
sg36
g249
sbsba(ischedule
Activity
p458
(dp459
g8
(lp460
g84
ag60
ag28
aS'14309255'
p461
ag51
ag333
aS'47982619'
p462
aS'58565406'
p463
ag238
aS'93041523'
p464
ag341
ag345
ag177
aS'14383795'
p465
aS'31194811'
p466
ag222
aS'6249823'
p467
ag256
aS'70336464'
p468
aS'12430748'
p469
ag423
aS'69086548'
p470
aS'11996292'
p471
aS'7106649'
p472
aS'77264363'
p473
aS'21192048'
p474
aS'92496780'
p475
aS'76487754'
p476
asg35
S'20'
p477
sg36
S'Technology for games'
p478
sg38
g203
sg40
g204
sg41
(iread_data
Room
p479
(dp480
g35
g207
sg36
g208
sbsba(ischedule
Activity
p481
(dp482
g8
(lp483
g17
aS'88737765'
p484
ag323
ag29
aS'40633534'
p485
aS'5526560'
p486
aS'51673172'
p487
ag176
aS'41644639'
p488
aS'25077484'
p489
aS'74361881'
p490
ag97
aS'75680261'
p491
aS'66701209'
p492
aS'14398123'
p493
asg35
S'15'
p494
sg36
S'Project Genetic Algorithms'
p495
sg38
g354
sg40
g378
sg41
(iread_data
Room
p496
(dp497
g35
g261
sg36
g262
sbsba(ischedule
Activity
p498
(dp499
g8
(lp500
S'72895450'
p501
aS'12077419'
p502
ag24
ag279
aS'64947290'
p503
ag318
aS'43902015'
p504
ag187
ag11
aS'41585485'
p505
aS'64554442'
p506
aS'91527663'
p507
ag188
ag343
aS'53585410'
p508
ag446
ag25
aS'51509565'
p509
aS'36903574'
p510
ag106
asg35
S'25'
p511
sg36
S'Algoritmen en complexiteit'
p512
sg38
g203
sg40
S'2'
p513
sg41
(iread_data
Room
p514
(dp515
g35
g233
sg36
g234
sbsba(ischedule
Activity
p516
(dp517
g8
g116
sg35
I1000
sg36
g157
sg38
g39
sg40
I0
sg41
(iread_data
Room
p518
(dp519
g35
g160
sg36
g161
sbsbaa(lp520
(ischedule
Activity
p521
(dp522
g8
(lp523
g399
ag129
ag275
aS'8522855'
p524
ag364
aS'97019450'
p525
ag179
aS'99272880'
p526
aS'37498675'
p527
ag270
ag292
ag168
aS'91139627'
p528
ag243
ag510
aS'97371272'
p529
aS'79366078'
p530
ag291
aS'47462856'
p531
ag177
ag166
ag294
aS'59075181'
p532
aS'63408522'
p533
ag170
ag505
ag83
ag85
ag470
aS'7492204'
p534
aS'17823206'
p535
ag412
ag117
aS'51542218'
p536
aS'63955238'
p537
ag70
ag445
ag339
ag175
ag29
aS'10872825'
p538
ag493
ag277
aS'39230359'
p539
ag137
ag300
aS'39659121'
p540
aS'38329455'
p541
ag178
aS'72547110'
p542
aS'65003379'
p543
ag272
ag393
ag345
ag309
ag176
ag337
ag220
aS'49631542'
p544
aS'82688900'
p545
aS'44940353'
p546
aS'34262212'
p547
ag169
ag289
ag153
aS'47605891'
p548
aS'39919665'
p549
ag143
aS'79858178'
p550
aS'51186803'
p551
ag148
ag19
ag447
ag391
ag295
ag453
ag304
ag216
ag297
ag102
ag307
aS'23391676'
p552
ag174
ag290
asg35
I1000
sg36
S'Kansrekenen 2'
p553
sg38
g39
sg40
I0
sg41
(iread_data
Room
p554
(dp555
g35
g112
sg36
g113
sbsba(ischedule
Activity
p556
(dp557
g8
(lp558
g99
ag72
ag51
ag59
ag97
ag75
ag78
ag76
ag71
ag54
ag108
ag93
ag86
ag105
ag100
ag57
ag65
ag89
ag50
ag77
ag80
asg35
S'20'
p559
sg36
g109
sg38
g354
sg40
g434
sg41
(iread_data
Room
p560
(dp561
g35
g44
sg36
g45
sbsba(ischedule
Activity
p562
(dp563
g8
(lp564
g228
aS'72796858'
p565
aS'46989508'
p566
ag273
aS'88752563'
p567
ag73
ag446
ag466
ag24
ag501
aS'9067939'
p568
aS'8464817'
p569
ag151
ag278
ag17
aS'80135353'
p570
ag150
ag256
ag281
aS'76802764'
p571
aS'48503689'
p572
aS'75759231'
p573
aS'2317551'
p574
aS'75599734'
p575
ag423
aS'44391517'
p576
aS'13911001'
p577
aS'88855695'
p578
ag142
aS'5595824'
p579
asg35
S'40'
p580
sg36
S'Compilerbouw'
p581
sg38
g203
sg40
g513
sg41
(iread_data
Room
p582
(dp583
g35
g207
sg36
g208
sbsba(ischedule
Activity
p584
(dp585
g8
(lp586
g134
aS'94930277'
p587
ag126
ag98
ag79
ag117
aS'4353500'
p588
ag67
aS'97417002'
p589
aS'83443653'
p590
ag332
ag240
ag153
aS'14941752'
p591
aS'20830477'
p592
aS'79879876'
p593
aS'19858730'
p594
asg35
S'25'
p595
sg36
S'Heuristieken 1'
p596
sg38
g203
sg40
g513
sg41
(iread_data
Room
p597
(dp598
g35
g261
sg36
g262
sbsba(ischedule
Activity
p599
(dp600
g8
(lp601
g23
aS'72665524'
p602
aS'39429093'
p603
ag223
aS'27064249'
p604
ag317
ag365
aS'92665222'
p605
ag28
ag137
aS'47477884'
p606
ag447
ag214
aS'86807027'
p607
ag58
ag448
aS'1886996'
p608
ag156
aS'62613937'
p609
ag485
asg35
I1000
sg36
S'Advanced Heuristics'
p610
sg38
g39
sg40
I0
sg41
(iread_data
Room
p611
(dp612
g35
g160
sg36
g161
sbsbaa(lp613
(ischedule
Activity
p614
(dp615
g8
g383
sg35
I1000
sg36
g415
sg38
g39
sg40
I0
sg41
(iread_data
Room
p616
(dp617
g35
g112
sg36
g113
sbsba(ischedule
Activity
p618
(dp619
g8
(lp620
g126
ag145
ag154
ag148
ag156
ag138
ag139
ag124
ag142
ag134
ag125
ag75
ag152
ag143
ag123
asg35
S'20'
p621
sg36
g157
sg38
g203
sg40
g513
sg41
(iread_data
Room
p622
(dp623
g35
g233
sg36
g234
sbsba(ischedule
Activity
p624
(dp625
g8
(lp626
S'15249775'
p627
aS'72652638'
p628
ag305
ag608
ag300
ag239
ag80
aS'31897288'
p629
ag225
aS'48678993'
p630
ag364
ag422
ag33
ag78
ag362
ag274
aS'58040377'
p631
ag129
ag316
ag269
aS'78243495'
p632
ag68
ag472
aS'58736785'
p633
aS'82968410'
p634
ag360
aS'83869542'
p635
aS'5739011'
p636
aS'52304977'
p637
aS'35315956'
p638
ag16
ag388
asg35
I1000
sg36
S'Heuristieken 2'
p639
sg38
g39
sg40
I0
sg41
(iread_data
Room
p640
(dp641
g35
g44
sg36
g45
sbsba(ischedule
Activity
p642
(dp643
g8
(lp644
g99
ag79
ag90
ag105
aS'12170832'
p645
ag448
aS'25557516'
p646
aS'70939718'
p647
aS'16912993'
p648
ag532
ag442
asg35
g432
sg36
g433
sg38
g354
sg40
g513
sg41
(iread_data
Room
p649
(dp650
g35
g160
sg36
g161
sbsba(ischedule
Activity
p651
(dp652
g8
(lp653
g131
ag132
ag256
ag318
ag255
ag227
ag461
ag471
aS'70072978'
p654
ag221
aS'59111489'
p655
aS'48198668'
p656
aS'58699305'
p657
aS'1766560'
p658
ag427
ag49
aS'41489515'
p659
ag64
aS'51650744'
p660
aS'11741347'
p661
ag253
ag254
ag371
asg35
S'20'
p662
sg36
g258
sg38
g354
sg40
g378
sg41
(iread_data
Room
p663
(dp664
g35
g248
sg36
g249
sbsba(ischedule
Activity
p665
(dp666
g8
(lp667
g238
ag335
ag75
aS'19337738'
p668
ag240
aS'25330192'
p669
aS'45414528'
p670
aS'93023961'
p671
ag122
aS'97136582'
p672
ag276
ag535
ag451
aS'13996448'
p673
ag241
aS'68360259'
p674
asg35
S'10'
p675
sg36
g245
sg38
g354
sg40
g513
sg41
(iread_data
Room
p676
(dp677
g35
g207
sg36
g208
sbsbaaa(lp678
(lp679
(ischedule
Activity
p680
(dp681
g8
(lp682
g413
ag388
ag239
ag404
ag18
ag314
ag82
aS'17092717'
p683
ag84
ag104
ag654
ag430
ag318
ag143
ag606
ag156
aS'40141996'
p684
aS'5085194'
p685
aS'27123462'
p686
ag431
aS'13132925'
p687
aS'56121590'
p688
ag57
ag489
ag486
aS'86180471'
p689
ag71
ag504
ag443
aS'59397895'
p690
ag138
asg35
S'40'
p691
sg36
S'Databases 2'
p692
sg38
g203
sg40
g513
sg41
(iread_data
Room
p693
(dp694
g35
g207
sg36
g208
sbsba(ischedule
Activity
p695
(dp696
g8
(lp697
g306
ag278
ag63
ag228
aS'3407554'
p698
ag96
ag568
ag576
ag218
aS'98105190'
p699
ag569
ag565
ag393
ag227
ag17
ag19
ag189
ag492
ag95
ag566
aS'88636924'
p700
ag502
ag567
aS'13284244'
p701
ag577
ag579
aS'95007221'
p702
ag466
aS'79033175'
p703
ag66
ag571
ag570
ag73
ag364
ag85
ag461
ag151
aS'15911353'
p704
ag169
ag142
ag423
ag295
aS'43689934'
p705
aS'54772132'
p706
ag501
ag574
ag572
aS'34110913'
p707
ag605
ag446
ag273
ag575
ag578
ag275
aS'94687383'
p708
ag658
ag410
aS'7957843'
p709
ag256
ag24
aS'30658799'
p710
ag573
ag661
ag181
ag281
ag141
ag150
ag90
aS'65852230'
p711
asg35
I1000
sg36
g581
sg38
g39
sg40
I0
sg41
(iread_data
Room
p712
(dp713
g35
g112
sg36
g113
sbsba(ischedule
Activity
p714
(dp715
g8
(lp716
g342
ag339
ag127
ag335
ag100
ag336
ag341
ag337
ag340
ag331
asg35
S'15'
p717
sg36
g347
sg38
g203
sg40
g204
sg41
(iread_data
Room
p718
(dp719
g35
g261
sg36
g262
sbsba(ischedule
Activity
p720
(dp721
g8
(lp722
g75
ag447
ag65
ag507
ag503
ag33
ag178
ag509
aS'88596522'
p723
ag56
ag506
asg35
S'25'
p724
sg36
g512
sg38
g354
sg40
g204
sg41
(iread_data
Room
p725
(dp726
g35
g44
sg36
g45
sbsba(ischedule
Activity
p727
(dp728
g8
(lp729
g216
ag193
ag532
ag165
ag126
aS'87210640'
p730
ag98
ag525
ag79
aS'45660925'
p731
ag240
ag592
ag134
ag184
ag593
ag51
aS'66122625'
p732
ag699
aS'53775014'
p733
ag67
ag153
ag594
ag591
ag332
ag590
ag217
ag587
ag317
ag589
ag431
ag633
ag391
ag117
ag629
ag333
ag89
ag471
ag238
aS'76393508'
p734
ag334
ag411
ag607
ag588
ag510
asg35
I1000
sg36
g596
sg38
g39
sg40
I0
sg41
(iread_data
Room
p735
(dp736
g35
g160
sg36
g161
sbsba(ischedule
Activity
p737
(dp738
g8
(lp739
g154
ag13
ag58
ag23
ag229
ag402
ag297
ag504
ag467
aS'41790793'
p740
ag61
aS'53512831'
p741
aS'76903244'
p742
aS'10698627'
p743
ag539
aS'20618153'
p744
ag604
aS'49908313'
p745
ag362
asg35
S'20'
p746
sg36
S'Webprogrammeren en databases'
p747
sg38
g203
sg40
g513
sg41
(iread_data
Room
p748
(dp749
g35
g248
sg36
g249
sbsba(ischedule
Activity
p750
(dp751
g8
(lp752
g671
ag422
ag16
ag669
ag451
ag670
ag674
ag673
ag535
ag308
ag122
ag276
ag672
aS'87314964'
p753
asg35
g244
sg36
g245
sg38
g203
sg40
g378
sg41
(iread_data
Room
p754
(dp755
g35
g233
sg36
g234
sbsbaa(lp756
(ischedule
Activity
p757
(dp758
g8
(lp759
g64
ag82
ag51
ag50
ag79
ag108
ag84
ag70
ag66
asg35
S'20'
p760
sg36
g109
sg38
g203
sg40
g513
sg41
(iread_data
Room
p761
(dp762
g35
g261
sg36
g262
sbsba(ischedule
Activity
p763
(dp764
g8
(lp765
g255
ag442
ag448
ag128
ag332
ag450
ag453
ag165
ag277
ag124
asg35
g376
sg36
g377
sg38
g203
sg40
g513
sg41
(iread_data
Room
p766
(dp767
g35
g160
sg36
g161
sbsba(ischedule
Activity
p768
(dp769
g8
(lp770
g28
ag85
ag55
ag62
ag95
ag74
ag106
ag104
ag60
ag49
ag73
ag69
ag92
ag96
ag87
ag56
ag102
ag68
asg35
g559
sg36
g109
sg38
g354
sg40
g204
sg41
(iread_data
Room
p771
(dp772
g35
g112
sg36
g113
sbsba(ischedule
Activity
p773
(dp774
g8
(lp775
g333
aS'88627897'
p776
ag273
ag305
asg35
S'10'
p777
sg36
S'Autonomous Agents 2'
p778
sg38
g354
sg40
g204
sg41
(iread_data
Room
p779
(dp780
g35
g233
sg36
g234
sbsba(ischedule
Activity
p781
(dp782
g8
(lp783
g742
ag504
ag72
ag740
ag78
ag154
ag303
ag741
aS'2416751'
p784
ag403
ag683
ag428
ag13
ag744
ag61
ag229
ag501
aS'22288615'
p785
ag743
ag142
aS'1137946'
p786
ag23
ag222
aS'24891081'
p787
ag362
ag745
ag402
aS'76648468'
p788
aS'28358060'
p789
ag58
aS'67073567'
p790
ag467
ag604
ag221
ag632
ag587
aS'69459473'
p791
ag539
ag297
asg35
I1000
sg36
g747
sg38
g39
sg40
I0
sg41
(iread_data
Room
p792
(dp793
g35
g44
sg36
g45
sbsba(ischedule
Activity
p794
(dp795
g8
(lp796
g240
ag451
ag669
ag238
ag753
ag335
ag75
ag732
ag276
ag671
ag535
ag16
ag308
ag674
ag241
ag242
ag672
ag422
ag122
ag239
ag65
ag127
ag243
ag668
ag405
ag670
ag673
asg35
I1000
sg36
g245
sg38
g39
sg40
I0
sg41
(iread_data
Room
p797
(dp798
g35
g207
sg36
g208
sbsba(ischedule
Activity
p799
(dp800
g8
(lp801
g413
ag591
asg35
S'15'
p802
sg36
S'Project Numerical Recipes'
p803
sg38
g354
sg40
g204
sg41
(iread_data
Room
p804
(dp805
g35
g248
sg36
g249
sbsbaa(lp806
(ischedule
Activity
p807
(dp808
g8
(lp809
g189
ag169
ag501
ag256
ag150
ag24
ag575
ag181
ag446
ag502
ag461
ag573
ag565
ag658
ag574
ag19
ag66
ag228
ag281
ag708
ag700
ag569
ag96
ag466
ag567
ag95
ag701
ag151
ag492
ag423
ag364
ag570
ag707
ag73
ag17
ag579
ag393
ag578
ag711
ag410
ag710
ag218
ag699
ag90
ag605
ag572
ag295
ag141
ag85
ag566
ag576
ag706
ag63
ag273
ag698
ag275
asg35
S'40'
p810
sg36
g581
sg38
g354
sg40
g204
sg41
(iread_data
Room
p811
(dp812
g35
g112
sg36
g113
sbsba(ischedule
Activity
p813
(dp814
g8
(lp815
g65
ag59
ag92
ag98
ag105
ag101
ag62
ag145
ag368
ag63
ag405
aS'41153310'
p816
ag119
ag194
ag15
ag165
ag168
ag180
ag196
ag177
asg35
S'40'
p817
sg36
g202
sg38
g354
sg40
g513
sg41
(iread_data
Room
p818
(dp819
g35
g207
sg36
g208
sbsba(ischedule
Activity
p820
(dp821
g8
(lp822
g51
ag125
ag135
ag71
ag82
ag221
aS'13218321'
p823
aS'83415514'
p824
aS'27916487'
p825
ag320
aS'49219163'
p826
ag64
ag140
ag131
ag49
ag188
ag659
ag632
ag427
ag577
ag317
aS'27241113'
p827
aS'1181560'
p828
ag227
ag661
ag657
ag89
ag339
ag654
ag346
ag655
ag656
ag471
ag371
ag531
ag660
aS'78821918'
p829
asg35
g257
sg36
g258
sg38
g203
sg40
g378
sg41
(iread_data
Room
p830
(dp831
g35
g160
sg36
g161
sbsba(ischedule
Activity
p832
(dp833
g8
(lp834
g673
ag60
ag81
ag334
ag784
aS'28943658'
p835
ag117
aS'85284256'
p836
aS'64053722'
p837
ag343
ag144
ag373
ag627
ag276
aS'39905995'
p838
ag313
ag269
asg35
S'20'
p839
sg36
S'Programmeren in Java 2'
p840
sg38
g354
sg40
g204
sg41
(iread_data
Room
p841
(dp842
g35
g44
sg36
g45
sbsba(ischedule
Activity
p843
(dp844
g8
(lp845
S'55103073'
p846
asg35
S'15'
p847
sg36
S'Compilerbouw practicum'
p848
sg38
g354
sg40
g378
sg41
(iread_data
Room
p849
(dp850
g35
g261
sg36
g262
sbsbaa(lp851
(ischedule
Activity
p852
(dp853
g8
(lp854
S'54540997'
p855
aS'26207525'
p856
aS'15187217'
p857
ag430
ag105
ag370
ag486
ag156
ag536
ag654
ag143
ag425
ag683
ag70
ag686
ag635
ag431
ag61
ag82
ag138
ag443
ag690
ag57
aS'23658570'
p858
ag342
ag104
ag134
ag365
ag228
ag685
ag172
aS'73823548'
p859
ag446
ag413
ag544
ag471
ag489
ag387
ag80
ag421
ag273
ag239
ag222
ag687
ag404
ag388
ag318
ag684
ag503
ag566
ag18
ag314
ag504
ag606
ag117
ag384
ag55
ag339
ag73
ag689
ag71
ag140
ag84
aS'4529208'
p860
ag688
ag565
ag64
ag567
ag507
ag829
aS'58083680'
p861
aS'12091019'
p862
asg35
I1000
sg36
g692
sg38
g39
sg40
I0
sg41
g110
sba(ischedule
Activity
p863
(dp864
g8
(lp865
g295
ag169
ag85
ag605
ag393
ag707
ag364
ag227
ag461
ag19
ag90
ag306
ag275
ag141
ag710
ag63
ag189
ag704
ag95
ag66
ag701
ag492
ag709
ag703
ag702
ag658
ag711
ag705
ag698
ag708
ag96
ag700
ag661
ag181
ag699
ag410
ag502
ag706
ag218
asg35
g580
sg36
g581
sg38
g203
sg40
g204
sg41
(iread_data
Room
p866
(dp867
g35
g248
sg36
g249
sbsba(ischedule
Activity
p868
(dp869
g8
(lp870
g154
ag297
ag229
ag221
ag539
ag604
ag741
ag13
ag632
ag72
ag467
ag791
ag501
ag784
ag362
ag403
ag428
ag786
ag788
ag78
asg35
S'20'
p871
sg36
g747
sg38
g354
sg40
g513
sg41
(iread_data
Room
p872
(dp873
g35
g44
sg36
g45
sbsba(ischedule
Activity
p874
(dp875
g8
g796
sg35
I1000
sg36
g245
sg38
g39
sg40
I0
sg41
(iread_data
Room
p876
(dp877
g35
g207
sg36
g208
sbsba(ischedule
Activity
p878
(dp879
g8
(lp880
g332
ag334
ag51
ag333
ag343
ag256
ag345
ag344
ag213
ag338
ag346
asg35
g717
sg36
g347
sg38
g203
sg40
g513
sg41
(iread_data
Room
p881
(dp882
g35
g160
sg36
g161
sbsbaa(lp883
(ischedule
Activity
p884
(dp885
g8
g48
sg35
I1000
sg36
g109
sg38
g39
sg40
I0
sg41
g110
sba(ischedule
Activity
p886
(dp887
g8
g783
sg35
I1000
sg36
g747
sg38
g39
sg40
I0
sg41
(iread_data
Room
p888
(dp889
g35
g207
sg36
g208
sbsba(ischedule
Activity
p890
(dp891
g8
(lp892
g461
ag658
ag396
aS'66621166'
p893
ag289
ag132
aS'18144425'
p894
ag544
aS'96082155'
p895
ag442
ag710
ag318
aS'99283252'
p896
asg35
g257
sg36
g258
sg38
g203
sg40
g513
sg41
(iread_data
Room
p897
(dp898
g35
g233
sg36
g234
sbsba(ischedule
Activity
p899
(dp900
g8
g266
sg35
I1000
sg36
g283
sg38
g39
sg40
I0
sg41
(iread_data
Room
p901
(dp902
g35
g248
sg36
g249
sbsba(ischedule
Activity
p903
(dp904
g8
(lp905
g146
ag16
ag117
ag119
ag128
ag150
ag147
ag136
ag149
ag141
ag120
ag127
ag130
ag153
ag135
ag151
asg35
g621
sg36
g157
sg38
g203
sg40
g378
sg41
(iread_data
Room
p906
(dp907
g35
g160
sg36
g161
sbsba(ischedule
Activity
p908
(dp909
g8
(lp910
g239
ag122
ag240
ag165
ag172
ag293
ag173
ag414
ag169
aS'34806836'
p911
ag145
aS'70113753'
p912
ag180
aS'61611295'
p913
ag408
ag565
asg35
g777
sg36
g778
sg38
g354
sg40
g513
sg41
(iread_data
Room
p914
(dp915
g35
g44
sg36
g45
sbsbaaa(lp916
(lp917
(ischedule
Activity
p918
(dp919
g8
(lp920
g607
ag604
ag137
ag447
ag602
ag23
ag58
ag606
ag603
ag605
ag448
ag485
ag608
ag214
asg35
S'10'
p921
sg36
g610
sg38
g354
sg40
g204
sg41
(iread_data
Room
p922
(dp923
g35
g261
sg36
g262
sbsba(ischedule
Activity
p924
(dp925
g8
(lp926
g332
ag336
ag213
ag334
ag344
ag331
ag337
ag340
asg35
S'15'
p927
sg36
g347
sg38
g354
sg40
g513
sg41
(iread_data
Room
p928
(dp929
g35
g233
sg36
g234
sbsba(ischedule
Activity
p930
(dp931
g8
(lp932
g462
ag465
ag132
ag60
ag472
ag226
ag423
ag467
ag238
ag177
ag385
ag131
ag473
ag410
ag466
ag475
ag470
ag222
ag463
ag256
ag51
ag461
ag469
ag476
ag529
ag345
aS'4697362'
p933
ag502
ag84
ag468
ag240
ag341
ag449
ag28
ag333
ag464
ag471
ag474
asg35
I1000
sg36
g478
sg38
g39
sg40
I0
sg41
(iread_data
Room
p934
(dp935
g35
g160
sg36
g161
sbsba(ischedule
Activity
p936
(dp937
g8
(lp938
g501
ag431
ag510
ag446
ag239
ag24
ag147
ag318
ag57
aS'23652927'
p939
ag508
ag293
ag11
ag502
ag274
ag524
aS'66433883'
p940
ag187
ag182
ag505
ag504
ag403
aS'19540225'
p941
aS'67817269'
p942
ag279
ag368
ag106
ag188
ag25
ag174
ag343
ag185
asg35
g724
sg36
g512
sg38
g354
sg40
g513
sg41
(iread_data
Room
p943
(dp944
g35
g207
sg36
g208
sbsba(ischedule
Activity
p945
(dp946
g8
(lp947
g342
ag134
ag228
ag446
ag273
ag222
ag117
ag471
ag565
ag566
ag567
ag425
ag339
ag421
ag507
ag140
ag73
ag857
ag536
ag862
ag503
ag105
ag860
ag384
ag70
ag61
ag861
ag172
ag855
ag635
ag856
ag55
ag64
ag370
ag858
ag544
ag829
ag387
ag365
ag80
ag859
asg35
g691
sg36
g692
sg38
g203
sg40
g204
sg41
(iread_data
Room
p948
(dp949
g35
g112
sg36
g113
sbsba(ischedule
Activity
p950
(dp951
g8
(lp952
g75
ag65
ag127
ag732
ag405
ag335
ag668
asg35
g244
sg36
g245
sg38
g203
sg40
g513
sg41
(iread_data
Room
p953
(dp954
g35
g44
sg36
g45
sbsba(ischedule
Activity
p955
(dp956
g8
(lp957
S'81116418'
p958
ag450
aS'34691309'
p959
ag133
ag90
ag30
ag119
aS'90103047'
p960
ag173
aS'21070547'
p961
ag129
asg35
g802
sg36
g803
sg38
g354
sg40
g513
sg41
(iread_data
Room
p962
(dp963
g35
g248
sg36
g249
sbsbaa(lp964
(ischedule
Activity
p965
(dp966
g8
(lp967
g239
ag305
ag632
ag68
ag16
ag274
ag316
ag630
ag627
ag360
ag636
ag388
ag78
ag637
ag638
ag225
ag80
ag362
ag631
ag364
ag269
asg35
S'20'
p968
sg36
g639
sg38
g203
sg40
g513
sg41
(iread_data
Room
p969
(dp970
g35
g248
sg36
g249
sbsba(ischedule
Activity
p971
(dp972
g8
(lp973
g65
ag54
ag602
ag31
ag84
aS'5892092'
p974
ag126
aS'25994016'
p975
ag465
ag488
aS'535689'
p976
ag106
ag508
ag487
aS'91250534'
p977
aS'82066165'
p978
aS'42297781'
p979
ag526
ag341
ag344
aS'1695839'
p980
aS'51472074'
p981
ag411
ag368
ag685
ag490
ag119
ag698
ag577
ag412
ag149
aS'47260040'
p982
ag217
aS'44151631'
p983
aS'64418623'
p984
aS'23215240'
p985
ag303
asg35
g847
sg36
g848
sg38
g354
sg40
g204
sg41
(iread_data
Room
p986
(dp987
g35
g207
sg36
g208
sbsba(ischedule
Activity
p988
(dp989
g8
(lp990
g125
ag154
ag123
ag135
ag144
ag121
ag130
ag85
ag141
ag143
ag118
ag151
asg35
g353
sg36
g157
sg38
g354
sg40
g378
sg41
(iread_data
Room
p991
(dp992
g35
g261
sg36
g262
sbsba(ischedule
Activity
p993
(dp994
g8
(lp995
g82
ag180
ag414
ag240
ag912
ag165
ag169
ag273
ag145
asg35
S'10'
p996
sg36
g778
sg38
g203
sg40
g378
sg41
(iread_data
Room
p997
(dp998
g35
g44
sg36
g45
sbsba(ischedule
Activity
p999
(dp1000
g8
(lp1001
g153
ag131
ag124
ag129
ag127
ag152
ag139
ag146
ag55
ag147
ag148
ag155
ag140
ag134
ag128
ag133
ag132
ag120
ag75
ag117
asg35
g353
sg36
g157
sg38
g354
sg40
g513
sg41
(iread_data
Room
p1002
(dp1003
g35
g233
sg36
g234
sbsba(ischedule
Activity
p1004
(dp1005
g8
(lp1006
g567
ag214
ag469
ag501
ag99
ag177
ag673
ag21
aS'19662602'
p1007
ag96
ag277
ag709
ag701
ag309
ag150
ag104
ag170
aS'32183908'
p1008
aS'37419523'
p1009
ag315
aS'63939720'
p1010
ag410
ag424
ag859
ag441
ag607
ag63
ag572
aS'40911986'
p1011
ag422
ag658
asg35
g802
sg36
g803
sg38
g354
sg40
g378
sg41
(iread_data
Room
p1012
(dp1013
g35
g160
sg36
g161
sbsba(ischedule
Activity
p1014
(dp1015
g8
(lp1016
g243
ag535
ag339
ag858
ag166
aS'73196865'
p1017
aS'88519892'
p1018
ag302
aS'10702778'
p1019
ag52
aS'44671041'
p1020
aS'73893840'
p1021
ag300
ag299
ag706
aS'88263855'
p1022
ag20
ag670
ag743
ag56
ag570
asg35
g839
sg36
g840
sg38
g354
sg40
g513
sg41
(iread_data
Room
p1023
(dp1024
g35
g112
sg36
g113
sbsbaa(lp1025
(ischedule
Activity
p1026
(dp1027
g8
g697
sg35
I1000
sg36
g581
sg38
g39
sg40
I0
sg41
g110
sba(ischedule
Activity
p1028
(dp1029
g8
(lp1030
g361
aS'80188025'
p1031
ag858
ag373
aS'58480929'
p1032
aS'72586808'
p1033
ag536
ag362
aS'18477924'
p1034
ag305
ag337
ag829
ag195
ag579
ag430
ag590
ag220
ag80
ag70
ag384
aS'56544130'
p1035
ag317
ag131
ag133
ag405
ag165
aS'78822885'
p1036
aS'65318664'
p1037
ag630
aS'97838175'
p1038
ag609
ag449
ag386
ag168
ag312
aS'82854435'
p1039
ag130
ag366
ag393
aS'14637758'
p1040
aS'73350019'
p1041
ag190
ag399
ag685
ag525
aS'34900967'
p1042
ag184
ag385
ag484
asg35
I1000
sg36
S'Analysemethoden en -technieken'
p1043
sg38
g39
sg40
I0
sg41
(iread_data
Room
p1044
(dp1045
g35
g248
sg36
g249
sbsba(ischedule
Activity
p1046
(dp1047
g8
(lp1048
g75
ag447
ag147
ag368
ag293
ag33
ag56
ag185
ag941
ag431
ag57
ag239
ag174
ag182
ag524
ag723
ag939
ag274
ag942
ag940
ag65
ag403
ag178
asg35
g511
sg36
g512
sg38
g203
sg40
g204
sg41
(iread_data
Room
p1049
(dp1050
g35
g160
sg36
g161
sbsba(ischedule
Activity
p1051
(dp1052
g8
(lp1053
g176
ag342
ag30
ag194
ag412
ag143
ag135
ag304
ag442
aS'27582862'
p1054
ag105
ag388
ag824
ag78
asg35
g839
sg36
g840
sg38
g354
sg40
S'5'
p1055
sg41
(iread_data
Room
p1056
(dp1057
g35
g44
sg36
g45
sbsbaa(lp1058
(ischedule
Activity
p1059
(dp1060
g8
(lp1061
g79
ag84
ag53
ag82
ag103
ag90
ag88
ag52
ag64
asg35
g559
sg36
g109
sg38
g354
sg40
g378
sg41
(iread_data
Room
p1062
(dp1063
g35
g233
sg36
g234
sbsba(ischedule
Activity
p1064
(dp1065
g8
g116
sg35
I1000
sg36
g157
sg38
g39
sg40
I0
sg41
(iread_data
Room
p1066
(dp1067
g35
g207
sg36
g208
sbsba(ischedule
Activity
p1068
(dp1069
g8
(lp1070
g216
ag525
ag317
ag51
ag510
ag532
ag607
ag391
ag471
ag184
ag732
ag629
ag699
ag334
ag193
ag734
ag89
ag411
ag731
ag165
ag633
ag333
ag730
ag217
ag733
ag238
ag431
asg35
g595
sg36
g596
sg38
g203
sg40
g204
sg41
(iread_data
Room
p1071
(dp1072
g35
g44
sg36
g45
sbsba(ischedule
Activity
p1073
(dp1074
g8
(lp1075
g91
ag98
ag63
ag70
ag107
ag94
ag83
ag58
ag101
ag67
ag66
ag61
ag81
asg35
g559
sg36
g109
sg38
g354
sg40
g513
sg41
(iread_data
Room
p1076
(dp1077
g35
g261
sg36
g262
sbsba(ischedule
Activity
p1078
(dp1079
g8
g9
sg35
I1000
sg36
g37
sg38
g39
sg40
I0
sg41
(iread_data
Room
p1080
(dp1081
g35
g112
sg36
g113
sbsba(ischedule
Activity
p1082
(dp1083
g8
(lp1084
g501
ag587
ag683
ag78
ag784
ag403
ag632
ag221
ag222
ag789
ag788
ag72
ag428
ag790
ag142
ag787
ag303
ag791
ag785
ag786
asg35
g746
sg36
g747
sg38
g203
sg40
g204
sg41
(iread_data
Room
p1085
(dp1086
g35
g248
sg36
g249
sbsba(ischedule
Activity
p1087
(dp1088
g8
(lp1089
g385
ag896
ag829
ag361
ag689
ag630
aS'14179347'
p1090
aS'55480737'
p1091
ag975
ag59
asg35
g494
sg36
g495
sg38
g354
sg40
g204
sg41
(iread_data
Room
p1092
(dp1093
g35
g160
sg36
g161
sbsbaa(lp1094
(ischedule
Activity
p1095
(dp1096
g8
(lp1097
g289
ag894
ag82
ag825
ag71
ag544
ag89
ag632
ag577
ag320
ag829
ag188
ag51
ag346
ag125
ag140
ag893
ag827
ag339
ag135
ag896
ag531
ag826
ag710
ag823
ag824
ag396
ag895
asg35
g662
sg36
g258
sg38
g354
sg40
g204
sg41
(iread_data
Room
p1098
(dp1099
g35
g112
sg36
g113
sbsba(ischedule
Activity
p1100
(dp1101
g8
(lp1102
g912
ag654
ag985
ag273
ag508
ag569
ag87
ag572
ag552
aS'12782624'
p1103
ag526
ag744
ag108
ag576
ag255
aS'7386961'
p1104
ag446
ag785
ag534
ag100
ag607
aS'63096281'
p1105
ag593
ag816
ag384
ag510
ag574
aS'51791169'
p1106
ag505
ag306
aS'88597745'
p1107
ag275
ag267
asg35
g839
sg36
g840
sg38
g354
sg40
g434
sg41
(iread_data
Room
p1108
(dp1109
g35
g160
sg36
g161
sbsba(ischedule
Activity
p1110
(dp1111
g8
(lp1112
g200
ag399
ag525
ag253
ag708
ag592
ag73
ag75
ag1042
ag606
ag124
ag90
ag503
ag372
ag547
asg35
g839
sg36
g840
sg38
g354
sg40
g378
sg41
(iread_data
Room
p1113
(dp1114
g35
g44
sg36
g45
sbsba(ischedule
Activity
p1115
(dp1116
g8
g932
sg35
I1000
sg36
g478
sg38
g39
sg40
I0
sg41
(iread_data
Room
p1117
(dp1118
g35
g207
sg36
g208
sbsba(ischedule
Activity
p1119
(dp1120
g8
(lp1121
g239
ag405
ag127
ag65
asg35
g675
sg36
g245
sg38
g354
sg40
g204
sg41
(iread_data
Room
p1122
(dp1123
g35
g233
sg36
g234
sbsba(ischedule
Activity
p1124
(dp1125
g8
(lp1126
g180
ag978
ag151
ag371
ag66
ag316
ag189
ag791
ag279
ag225
ag524
asg35
g494
sg36
g495
sg38
g354
sg40
g513
sg41
(iread_data
Room
p1127
(dp1128
g35
g248
sg36
g249
sbsba(ischedule
Activity
p1129
(dp1130
g8
(lp1131
g594
ag776
asg35
g996
sg36
g778
sg38
g203
sg40
g204
sg41
(iread_data
Room
p1132
(dp1133
g35
g261
sg36
g262
sbsbaaa(lp1134
(lp1135
(ischedule
Activity
p1136
(dp1137
g8
g523
sg35
I1000
sg36
g553
sg38
g39
sg40
I0
sg41
g110
sba(ischedule
Activity
p1138
(dp1139
g8
(lp1140
g144
aS'93361408'
p1141
aS'53139134'
p1142
ag1031
ag155
ag567
ag17
ag578
aS'62363761'
p1143
ag226
aS'75446434'
p1144
ag171
aS'11593163'
p1145
aS'59220392'
p1146
ag684
aS'65978354'
p1147
ag184
ag824
ag279
ag602
ag859
ag141
ag858
ag271
ag72
aS'31306819'
p1148
aS'72526473'
p1149
ag607
aS'34173695'
p1150
ag657
ag167
ag606
ag336
ag631
ag862
ag134
aS'75623387'
p1151
aS'56348773'
p1152
ag1035
ag135
ag131
ag508
asg35
g324
sg36
g325
sg38
g203
sg40
g513
sg41
(iread_data
Room
p1153
(dp1154
g35
g207
sg36
g208
sbsba(ischedule
Activity
p1155
(dp1156
g8
(lp1157
g28
ag223
ag317
ag365
ag156
ag609
asg35
g921
sg36
g610
sg38
g354
sg40
g513
sg41
(iread_data
Room
p1158
(dp1159
g35
g233
sg36
g234
sbsba(ischedule
Activity
p1160
(dp1161
g8
(lp1162
g145
ag173
ag180
ag565
ag912
ag82
ag913
ag414
ag240
ag122
ag293
ag165
ag172
ag776
ag333
ag594
ag305
ag408
ag911
ag239
ag273
ag169
asg35
I1000
sg36
g778
sg38
g39
sg40
I0
sg41
(iread_data
Room
p1163
(dp1164
g35
g160
sg36
g161
sbsba(ischedule
Activity
p1165
(dp1166
g8
(lp1167
g404
ag647
ag397
aS'55530367'
p1168
aS'10609762'
p1169
ag604
ag1090
ag94
ag185
ag689
ag387
ag386
asg35
g324
sg36
g325
sg38
g203
sg40
g378
sg41
(iread_data
Room
p1170
(dp1171
g35
g44
sg36
g45
sbsba(ischedule
Activity
p1172
(dp1173
g8
(lp1174
g149
ag63
ag65
ag229
ag150
ag146
ag59
ag119
ag219
ag221
ag126
ag92
ag62
ag154
ag101
ag105
ag15
ag98
ag152
ag238
ag1054
ag1037
ag463
ag575
ag632
ag148
ag254
ag274
ag368
ag461
ag816
aS'14072826'
p1175
ag313
ag1020
ag896
aS'9287708'
p1176
ag405
ag276
asg35
g201
sg36
g202
sg38
g203
sg40
g513
sg41
(iread_data
Room
p1177
(dp1178
g35
g248
sg36
g249
sbsba(ischedule
Activity
p1179
(dp1180
g8
(lp1181
g683
ag504
ag222
ag142
ag61
ag789
ag744
ag58
ag790
ag740
ag742
ag785
ag402
ag303
ag745
ag787
ag23
ag587
ag743
asg35
g871
sg36
g747
sg38
g354
sg40
g204
sg41
(iread_data
Room
p1182
(dp1183
g35
g261
sg36
g262
sbsbaa(lp1184
(ischedule
Activity
p1185
(dp1186
g8
(lp1187
g827
ag710
ag471
ag339
ag427
ag442
ag893
ag253
ag657
ag82
ag544
ag823
ag125
ag461
ag661
ag71
ag51
ag656
ag829
ag254
ag317
ag49
ag826
ag396
ag256
ag660
ag188
ag131
ag132
ag255
ag658
ag659
ag531
ag577
ag318
ag824
ag896
ag371
ag894
ag346
ag135
ag221
ag828
ag89
ag64
ag140
ag320
ag825
ag289
ag227
ag632
ag654
ag895
ag655
asg35
I1000
sg36
g258
sg38
g39
sg40
I0
sg41
(iread_data
Room
p1188
(dp1189
g35
g207
sg36
g208
sbsba(ischedule
Activity
p1190
(dp1191
g8
(lp1192
g65
ag77
ag60
ag95
ag56
ag59
ag73
ag101
ag69
ag106
ag94
ag92
ag81
ag102
ag55
ag86
ag78
ag63
ag54
ag62
ag100
ag67
ag93
ag68
ag75
ag87
ag88
asg35
g760
sg36
g109
sg38
g203
sg40
g434
sg41
(iread_data
Room
p1193
(dp1194
g35
g160
sg36
g161
sbsba(ischedule
Activity
p1195
(dp1196
g8
(lp1197
g239
ag333
ag173
ag565
ag122
ag408
ag913
ag293
ag911
ag305
ag172
asg35
g996
sg36
g778
sg38
g203
sg40
g513
sg41
(iread_data
Room
p1198
(dp1199
g35
g233
sg36
g234
sbsba(ischedule
Activity
p1200
(dp1201
g8
(lp1202
g271
ag428
ag455
ag446
ag385
ag20
ag272
ag445
ag454
ag444
ag241
ag452
ag447
ag441
ag443
ag451
ag449
asg35
g376
sg36
g377
sg38
g203
sg40
g204
sg41
(iread_data
Room
p1203
(dp1204
g35
g112
sg36
g113
sbsba(ischedule
Activity
p1205
(dp1206
g8
(lp1207
g98
ag99
ag58
ag72
ag61
ag103
ag90
ag83
ag52
ag85
ag104
ag91
ag53
ag57
asg35
g760
sg36
g109
sg38
g203
sg40
g378
sg41
(iread_data
Room
p1208
(dp1209
g35
g261
sg36
g262
sbsba(ischedule
Activity
p1210
(dp1211
g8
(lp1212
g300
ag422
ag628
ag129
ag633
ag33
ag635
ag634
ag629
ag608
ag472
asg35
g968
sg36
g639
sg38
g203
sg40
g204
sg41
(iread_data
Room
p1213
(dp1214
g35
g44
sg36
g45
sbsba(ischedule
Activity
p1215
(dp1216
g8
(lp1217
g16
ag1143
ag669
ag672
aS'59887191'
p1218
ag976
ag304
ag50
aS'53267490'
p1219
ag524
ag276
ag709
ag412
ag630
ag198
ag836
ag12
ag1033
aS'64246605'
p1220
ag123
ag493
ag688
asg35
g432
sg36
g433
sg38
g354
sg40
g378
sg41
(iread_data
Room
p1221
(dp1222
g35
g248
sg36
g249
sbsbaa(lp1223
(ischedule
Activity
p1224
(dp1225
g8
g48
sg35
I1000
sg36
g109
sg38
g39
sg40
I0
sg41
(iread_data
Room
p1226
(dp1227
g35
g112
sg36
g113
sbsba(ischedule
Activity
p1228
(dp1229
g8
(lp1230
g575
ag189
ag169
ag150
ag181
ag188
ag461
ag632
ag1176
ag221
ag166
ag896
ag191
ag313
ag229
ag193
ag176
ag175
ag238
ag190
ag463
ag192
ag254
ag1020
ag1175
ag152
ag183
ag174
ag182
ag149
ag170
ag199
ag171
ag186
ag173
ag200
ag172
ag1037
ag197
ag126
ag178
ag146
ag148
ag276
ag154
ag184
ag167
ag1054
ag179
ag185
ag219
ag195
ag187
ag274
ag198
asg35
g817
sg36
g202
sg38
g354
sg40
g204
sg41
(iread_data
Room
p1231
(dp1232
g35
g248
sg36
g249
sbsba(ischedule
Activity
p1233
(dp1234
g8
(lp1235
g365
ag24
ag333
ag393
ag361
ag214
ag194
ag510
ag337
aS'19058315'
p1236
ag602
ag588
ag856
ag706
asg35
g432
sg36
g433
sg38
g354
sg40
g204
sg41
(iread_data
Room
p1237
(dp1238
g35
g207
sg36
g208
sbsba(ischedule
Activity
p1239
(dp1240
g8
(lp1241
g141
ag631
ag291
ag370
ag14
aS'54395877'
p1242
ag462
aS'90296821'
p1243
ag940
ag279
asg35
g839
sg36
g840
sg38
g354
sg40
S'6'
p1244
sg41
(iread_data
Room
p1245
(dp1246
g35
g44
sg36
g45
sbsba(ischedule
Activity
p1247
(dp1248
g8
(lp1249
g317
ag442
ag828
asg35
g662
sg36
g258
sg38
g354
sg40
g513
sg41
(iread_data
Room
p1250
(dp1251
g35
g261
sg36
g262
sbsba(ischedule
Activity
p1252
(dp1253
g8
(lp1254
g131
ag132
ag449
ag240
ag385
ag502
ag933
ag226
ag529
ag410
asg35
g477
sg36
g478
sg38
g203
sg40
g513
sg41
(iread_data
Room
p1255
(dp1256
g35
g233
sg36
g234
sbsba(ischedule
Activity
p1257
(dp1258
g8
(lp1259
g300
ag723
asg35
g847
sg36
g848
sg38
g354
sg40
g513
sg41
(iread_data
Room
p1260
(dp1261
g35
g160
sg36
g161
sbsbaa(lp1262
(ischedule
Activity
p1263
(dp1264
g8
(lp1265
g309
ag171
ag131
ag134
ag294
ag1150
ag167
ag314
ag824
ag567
ag1143
ag292
ag1169
ag17
ag98
ag68
ag303
ag72
ag289
ag279
ag1168
ag15
ag1144
ag386
ag275
ag298
ag397
ag1035
ag225
ag155
ag190
ag1148
ag1146
ag647
ag323
ag306
ag254
ag146
ag606
ag22
ag305
ag315
ag1151
ag144
ag336
ag153
ag311
ag1149
ag141
ag508
ag34
ag290
ag81
ag387
ag602
ag1145
ag300
ag316
ag319
ag271
ag631
ag318
ag143
ag859
ag320
ag308
ag1152
ag185
ag862
ag135
ag578
ag684
ag227
ag299
ag304
ag1142
ag1147
ag310
ag184
ag321
ag50
ag291
ag607
ag226
ag302
ag322
ag604
ag1090
ag313
ag56
ag296
ag301
ag689
ag139
ag297
ag307
ag657
ag293
ag404
ag317
ag295
ag94
ag858
ag312
ag1031
ag1141
asg35
I1000
sg36
g325
sg38
g39
sg40
I0
sg41
g110
sba(ischedule
Activity
p1266
(dp1267
g8
g440
sg35
I1000
sg36
g377
sg38
g39
sg40
I0
sg41
(iread_data
Room
p1268
(dp1269
g35
g248
sg36
g249
sbsba(ischedule
Activity
p1270
(dp1271
g8
g211
sg35
I1000
sg36
g230
sg38
g39
sg40
I0
sg41
(iread_data
Room
p1272
(dp1273
g35
g44
sg36
g45
sbsba(ischedule
Activity
p1274
(dp1275
g8
(lp1276
g89
ag107
ag71
ag49
ag74
ag97
ag80
ag28
ag96
ag76
ag105
asg35
g760
sg36
g109
sg38
g203
sg40
g204
sg41
(iread_data
Room
p1277
(dp1278
g35
g160
sg36
g161
sbsba(ischedule
Activity
p1279
(dp1280
g8
g1162
sg35
I1000
sg36
g778
sg38
g39
sg40
I0
sg41
(iread_data
Room
p1281
(dp1282
g35
g207
sg36
g208
sbsba(ischedule
Activity
p1283
(dp1284
g8
(lp1285
g127
ag345
ag256
ag341
ag346
ag51
ag339
ag335
ag333
ag342
ag343
ag338
ag100
asg35
g927
sg36
g347
sg38
g354
sg40
g204
sg41
(iread_data
Room
p1286
(dp1287
g35
g233
sg36
g234
sbsbaa(lp1288
(ischedule
Activity
p1289
(dp1290
g8
(lp1291
g165
ag149
ag575
ag188
ag166
ag63
ag189
ag180
ag199
ag179
ag62
ag198
ag896
ag176
ag167
ag145
ag184
ag194
ag168
ag1037
ag169
ag65
ag152
ag229
ag1175
ag150
ag148
ag197
ag98
ag177
ag105
ag146
ag183
ag59
ag1176
ag119
ag313
ag219
ag190
ag173
ag187
ag221
ag195
ag238
ag154
ag178
ag1054
ag368
ag170
ag185
ag405
ag461
ag92
ag15
ag193
ag632
ag172
ag186
ag274
ag101
ag196
ag254
ag171
ag816
ag182
ag174
ag126
ag181
ag192
ag1020
ag200
ag175
ag463
ag276
ag191
asg35
I1000
sg36
g202
sg38
g39
sg40
I0
sg41
(iread_data
Room
p1292
(dp1293
g35
g112
sg36
g113
sbsba(ischedule
Activity
p1294
(dp1295
g8
(lp1296
g55
ag99
ag122
ag131
ag121
ag155
ag129
ag118
ag132
ag144
ag133
ag137
ag140
ag85
asg35
g621
sg36
g157
sg38
g203
sg40
g204
sg41
(iread_data
Room
p1297
(dp1298
g35
g207
sg36
g208
sbsba(ischedule
Activity
p1299
(dp1300
g8
(lp1301
g24
ag187
ag505
ag188
ag510
ag239
ag723
ag57
ag75
ag11
ag185
ag501
ag524
ag508
ag106
ag509
ag293
ag447
ag182
ag56
ag318
ag33
ag446
ag504
ag506
ag178
ag939
ag502
ag431
ag147
ag279
ag507
ag25
ag65
ag503
ag174
ag942
ag274
ag368
ag940
ag403
ag941
ag343
asg35
I1000
sg36
g512
sg38
g39
sg40
I0
sg41
(iread_data
Room
p1302
(dp1303
g35
g160
sg36
g161
sbsba(ischedule
Activity
p1304
(dp1305
g8
g330
sg35
I1000
sg36
g347
sg38
g39
sg40
I0
sg41
(iread_data
Room
p1306
(dp1307
g35
g248
sg36
g249
sbsba(ischedule
Activity
p1308
(dp1309
g8
(lp1310
g243
ag242
ag732
ag422
ag16
ag308
ag753
asg35
g675
sg36
g245
sg38
g354
sg40
g378
sg41
(iread_data
Room
p1311
(dp1312
g35
g44
sg36
g45
sbsba(ischedule
Activity
p1313
(dp1314
g8
(lp1315
g82
ag594
asg35
g777
sg36
g778
sg38
g354
sg40
g378
sg41
(iread_data
Room
p1316
(dp1317
g35
g233
sg36
g234
sbsba(ischedule
Activity
p1318
(dp1319
g8
(lp1320
g661
ag577
ag227
ag568
ag709
ag306
ag278
ag703
ag571
ag704
ag702
ag705
ag142
asg35
g810
sg36
g581
sg38
g354
sg40
g513
sg41
(iread_data
Room
p1321
(dp1322
g35
g261
sg36
g262
sbsbaaa(lp1323
(lp1324
a(lp1325
a(lp1326
a(lp1327
a(lp1328
aasS'timeslot_dict'
p1329
(dp1330
I0
S'9:00-11:00'
p1331
sI1
S'11:00-13:00'
p1332
sI2
S'13:00-15:00'
p1333
sI3
S'15:00-17:00'
p1334
sI4
S'17:00-19:00'
p1335
ssS'day_dict'
p1336
(dp1337
I0
S'Monday'
p1338
sI1
S'Tuesday'
p1339
sI2
S'Wednesday'
p1340
sI3
S'Thursday'
p1341
sI4
S'Friday'
p1342
ssb.