(ischedule
Schedule
p0
(dp1
S'timetable'
p2
(lp3
(lp4
(lp5
(ischedule
Activity
p6
(dp7
S'participants'
p8
(lp9
S'13718298'
p10
aS'51415617'
p11
aS'20095994'
p12
aS'60352393'
p13
aS'20239127'
p14
aS'54569540'
p15
aS'90474003'
p16
aS'13658563'
p17
aS'68286356'
p18
aS'61518436'
p19
aS'37399898'
p20
aS'22871048'
p21
aS'78136904'
p22
aS'59753700'
p23
aS'41578612'
p24
aS'70844780'
p25
aS'4709948'
p26
aS'27370083'
p27
aS'49922855'
p28
aS'51052738'
p29
aS'43680781'
p30
aS'96554914'
p31
aS'77392404'
p32
aS'24277163'
p33
aS'27950803'
p34
aS'27805666'
p35
aS'37110913'
p36
aS'99453514'
p37
aS'42406214'
p38
aS'36213792'
p39
aS'99975346'
p40
aS'57086672'
p41
aS'3685034'
p42
aS'32044893'
p43
aS'36785409'
p44
aS'6913074'
p45
aS'84524083'
p46
aS'82390428'
p47
aS'38296757'
p48
aS'86988337'
p49
aS'13092455'
p50
aS'5298748'
p51
aS'84449005'
p52
aS'87830198'
p53
aS'70193386'
p54
aS'33776961'
p55
aS'60661905'
p56
aS'92778619'
p57
aS'22826928'
p58
aS'77960666'
p59
aS'52715680'
p60
asS'capacity'
p61
I1000
sS'name'
p62
S'Reflectie op de digitale cultuur'
p63
sS'ttype'
p64
S'lectures'
p65
sS'group_id'
p66
I0
sS'room'
p67
(iread_data
Room
p68
(dp69
g61
S'56'
p70
sg62
S'A1.10'
p71
sbsba(ischedule
Activity
p72
(dp73
g8
(lp74
S'46570285'
p75
aS'39919665'
p76
aS'31633723'
p77
aS'47605891'
p78
aS'10872825'
p79
aS'72547110'
p80
aS'42115591'
p81
aS'79858178'
p82
ag14
aS'94955328'
p83
aS'28957789'
p84
aS'5368702'
p85
aS'58522654'
p86
aS'8522855'
p87
aS'82688900'
p88
aS'84110134'
p89
aS'59544049'
p90
aS'14671406'
p91
aS'31247305'
p92
aS'11915563'
p93
aS'97371272'
p94
aS'23798155'
p95
aS'36903574'
p96
aS'91139627'
p97
aS'51186803'
p98
aS'96054456'
p99
aS'39659121'
p100
aS'77240949'
p101
ag19
aS'9731271'
p102
aS'77636749'
p103
aS'10792879'
p104
aS'97019450'
p105
aS'89338938'
p106
aS'91196968'
p107
aS'14398123'
p108
aS'94467156'
p109
ag46
aS'41527759'
p110
aS'58469172'
p111
aS'38329455'
p112
aS'37498675'
p113
aS'54310617'
p114
aS'32705005'
p115
aS'7492204'
p116
aS'65003379'
p117
aS'78735049'
p118
aS'58332004'
p119
aS'56988998'
p120
aS'5615125'
p121
aS'74182182'
p122
aS'44940353'
p123
aS'79366078'
p124
aS'23391676'
p125
aS'20331158'
p126
aS'17823206'
p127
aS'81218347'
p128
aS'14591033'
p129
aS'39230359'
p130
aS'22731474'
p131
aS'51542218'
p132
aS'69086548'
p133
aS'47462856'
p134
ag22
aS'20883994'
p135
aS'63408522'
p136
aS'56749879'
p137
aS'59075181'
p138
aS'76924297'
p139
aS'27187154'
p140
aS'18266644'
p141
ag42
aS'64296965'
p142
aS'24875739'
p143
aS'63955238'
p144
aS'34243356'
p145
aS'41585485'
p146
aS'34262212'
p147
aS'63634350'
p148
aS'38499176'
p149
aS'49631542'
p150
aS'99272880'
p151
aS'55474917'
p152
ag15
asg61
I1000
sg62
S'Kansrekenen 2'
p153
sg64
g65
sg66
I0
sg67
(iread_data
Room
p154
(dp155
g61
S'117'
p156
sg62
S'C0.110'
p157
sbsba(ischedule
Activity
p158
(dp159
g8
(lp160
S'44901052'
p161
aS'88627897'
p162
aS'52552718'
p163
aS'36508571'
p164
aS'16097870'
p165
asg61
S'10'
p166
sg62
S'Autonomous Agents 2'
p167
sg64
S'tutorials'
p168
sg66
S'2'
p169
sg67
(iread_data
Room
p170
(dp171
g61
S'41'
p172
sg62
S'A1.04'
p173
sbsba(ischedule
Activity
p174
(dp175
g8
(lp176
S'3168419'
p177
aS'89985072'
p178
aS'29526540'
p179
aS'15051051'
p180
aS'33930505'
p181
ag45
aS'53202517'
p182
ag58
ag90
ag51
aS'74131924'
p183
aS'70878567'
p184
aS'54026378'
p185
ag131
aS'44868097'
p186
aS'56815156'
p187
ag86
aS'96453361'
p188
ag129
aS'11068043'
p189
ag30
aS'30050930'
p190
aS'30195935'
p191
aS'6723948'
p192
aS'81200278'
p193
aS'247918'
p194
aS'42196732'
p195
aS'33877725'
p196
aS'66120270'
p197
aS'79617364'
p198
aS'73236988'
p199
aS'21964491'
p200
aS'7308727'
p201
aS'14816774'
p202
aS'88176729'
p203
aS'24613625'
p204
aS'64600457'
p205
aS'85335143'
p206
aS'77831658'
p207
ag99
aS'28359697'
p208
ag137
ag135
aS'4568018'
p209
aS'21029457'
p210
asg61
I1000
sg62
S'Bioinformatica'
p211
sg64
g65
sg66
I0
sg67
(iread_data
Room
p212
(dp213
g61
S'60'
p214
sg62
S'C1.112'
p215
sbsba(ischedule
Activity
p216
(dp217
g8
(lp218
S'19858730'
p219
aS'39459642'
p220
aS'70113753'
p221
asg61
g166
sg62
g167
sg64
g168
sg66
S'1'
p222
sg67
(iread_data
Room
p223
(dp224
g61
S'48'
p225
sg62
S'B0.201'
p226
sbsba(ischedule
Activity
p227
(dp228
g8
(lp229
S'75997788'
p230
aS'86807027'
p231
aS'28618400'
p232
aS'72683344'
p233
aS'14847953'
p234
aS'39429093'
p235
aS'23547619'
p236
aS'62613937'
p237
asg61
S'10'
p238
sg62
S'Advanced Heuristics'
p239
sg64
S'labs'
p240
sg66
g222
sg67
(iread_data
Room
p241
(dp242
g61
S'20'
p243
sg62
S'A1.08'
p244
sbsba(ischedule
Activity
p245
(dp246
g8
(lp247
S'5595824'
p248
aS'72895450'
p249
aS'81385263'
p250
aS'12077419'
p251
aS'8464817'
p252
aS'48308205'
p253
aS'98105190'
p254
ag145
aS'88636924'
p255
aS'86291592'
p256
aS'13284244'
p257
aS'65960683'
p258
aS'43689934'
p259
aS'75759231'
p260
asg61
S'40'
p261
sg62
S'Compilerbouw'
p262
sg64
g168
sg66
g222
sg67
(iread_data
Room
p263
(dp264
g61
S'22'
p265
sg62
S'A1.06'
p266
sbsbaa(lp267
(ischedule
Activity
p268
(dp269
g8
(lp270
S'59220392'
p271
aS'10149535'
p272
aS'23628642'
p273
aS'83266686'
p274
aS'40141996'
p275
aS'78443067'
p276
aS'62105897'
p277
aS'58592894'
p278
aS'86180471'
p279
aS'81155296'
p280
aS'79888156'
p281
aS'6709529'
p282
aS'31306819'
p283
aS'6939933'
p284
aS'70939718'
p285
ag205
aS'76661016'
p286
aS'77306636'
p287
ag143
aS'45915482'
p288
aS'14303208'
p289
aS'75623387'
p290
aS'82412626'
p291
aS'88855695'
p292
ag122
aS'87602030'
p293
aS'33672995'
p294
ag111
aS'23658570'
p295
aS'58253841'
p296
aS'53585410'
p297
ag102
aS'47932106'
p298
aS'73302736'
p299
ag202
ag140
aS'34173695'
p300
aS'97135019'
p301
aS'48357272'
p302
aS'65978354'
p303
aS'75446434'
p304
ag186
aS'75585647'
p305
ag45
aS'73823548'
p306
aS'22168693'
p307
ag121
ag210
aS'33760909'
p308
aS'23565001'
p309
aS'88752563'
p310
ag165
ag129
ag99
aS'15902055'
p311
ag148
aS'58040377'
p312
aS'12091019'
p313
aS'87900893'
p314
aS'61520025'
p315
aS'51741554'
p316
aS'27298319'
p317
aS'79167252'
p318
aS'55530367'
p319
aS'65408517'
p320
aS'3678531'
p321
aS'62363761'
p322
aS'58699305'
p323
aS'80188025'
p324
aS'26260141'
p325
aS'11593163'
p326
aS'46701583'
p327
aS'10609762'
p328
ag198
ag118
aS'14179347'
p329
ag104
aS'56872729'
p330
aS'83415514'
p331
aS'72665524'
p332
aS'19717077'
p333
aS'93361408'
p334
aS'55412918'
p335
aS'27064249'
p336
aS'27925117'
p337
aS'37279234'
p338
aS'56544130'
p339
ag84
ag48
ag230
ag231
aS'4546613'
p340
ag206
aS'64228258'
p341
aS'56348773'
p342
aS'78544592'
p343
aS'94686490'
p344
ag192
aS'38179241'
p345
aS'47477884'
p346
aS'4783858'
p347
aS'86000192'
p348
aS'53139134'
p349
ag75
ag115
aS'72526473'
p350
asg61
I1000
sg62
S'Calculus 2'
p351
sg64
g65
sg66
I0
sg67
(iread_data
Room
p352
(dp353
g61
g156
sg62
g157
sbsba(ischedule
Activity
p354
(dp355
g8
(lp356
g193
ag184
aS'50143947'
p357
ag23
ag127
ag36
ag37
ag200
aS'97136582'
p358
aS'66122625'
p359
aS'68360259'
p360
aS'13116738'
p361
aS'87314964'
p362
aS'93023961'
p363
aS'52311353'
p364
asg61
S'10'
p365
sg62
S'Data Mining'
p366
sg64
g240
sg66
S'3'
p367
sg67
(iread_data
Room
p368
(dp369
g61
g172
sg62
g173
sbsba(ischedule
Activity
p370
(dp371
g8
(lp372
S'32204977'
p373
aS'7106649'
p374
aS'68315599'
p375
aS'14309255'
p376
aS'58565406'
p377
aS'75521763'
p378
aS'22323043'
p379
ag161
aS'40434933'
p380
ag103
ag106
ag253
ag251
ag24
aS'92496780'
p381
ag133
aS'31194811'
p382
aS'70336464'
p383
aS'11996292'
p384
aS'75664412'
p385
aS'26406342'
p386
aS'9332762'
p387
ag44
aS'47982619'
p388
aS'14383795'
p389
aS'4697362'
p390
aS'77264363'
p391
aS'6249823'
p392
ag30
ag236
aS'76487754'
p393
ag272
asg61
S'20'
p394
sg62
S'Technology for games'
p395
sg64
g168
sg66
g169
sg67
(iread_data
Room
p396
(dp397
g61
g225
sg62
g226
sbsba(ischedule
Activity
p398
(dp399
g8
(lp400
S'51566595'
p401
asg61
g365
sg62
g366
sg64
g240
sg66
g222
sg67
(iread_data
Room
p402
(dp403
g61
g243
sg62
g244
sbsbaa(lp404
(ischedule
Activity
p405
(dp406
g8
(lp407
g34
ag204
ag93
ag104
aS'9067939'
p408
ag199
ag140
ag192
ag85
ag86
ag46
ag318
ag182
aS'94687383'
p409
aS'75599734'
p410
ag49
aS'60312776'
p411
aS'40791377'
p412
aS'72796858'
p413
aS'77896638'
p414
ag274
aS'34110913'
p415
aS'7957843'
p416
aS'2079771'
p417
aS'13911001'
p418
aS'34872117'
p419
aS'65852230'
p420
ag220
ag310
aS'15911353'
p421
aS'92665222'
p422
aS'80135353'
p423
ag376
aS'95007221'
p424
aS'48503689'
p425
aS'42778953'
p426
aS'11741347'
p427
aS'54772132'
p428
aS'37770881'
p429
aS'1766560'
p430
aS'44391517'
p431
aS'49683101'
p432
ag286
ag375
aS'30658799'
p433
aS'79033175'
p434
aS'46989508'
p435
ag382
aS'95631564'
p436
ag385
aS'66701209'
p437
ag292
aS'76802764'
p438
aS'3407554'
p439
aS'2317551'
p440
asg61
g261
sg62
g262
sg64
g168
sg66
g169
sg67
(iread_data
Room
p441
(dp442
g61
g70
sg62
g71
sbsba(ischedule
Activity
p443
(dp444
g8
(lp445
g142
ag81
aS'14637758'
p446
ag206
ag24
ag105
ag324
ag132
ag165
aS'97838175'
p447
ag10
ag294
ag141
ag237
aS'43027916'
p448
ag299
ag302
ag53
aS'48678993'
p449
aS'73350019'
p450
ag309
ag364
ag83
aS'18477924'
p451
aS'78822885'
p452
aS'82854435'
p453
aS'34900967'
p454
aS'72586808'
p455
aS'4921119'
p456
aS'83443653'
p457
aS'88737765'
p458
ag207
aS'58480929'
p459
ag230
ag187
aS'78821918'
p460
ag339
ag21
ag56
aS'5085194'
p461
ag44
ag41
ag54
ag248
ag95
aS'65318664'
p462
ag295
ag145
aS'72456780'
p463
asg61
I1000
sg62
S'Analysemethoden en -technieken'
p464
sg64
g65
sg66
I0
sg67
(iread_data
Room
p465
(dp466
g61
g156
sg62
g157
sbsba(ischedule
Activity
p467
(dp468
g8
(lp469
S'82689818'
p470
aS'64947290'
p471
aS'57467488'
p472
ag401
ag278
ag200
aS'43902015'
p473
aS'91527663'
p474
aS'67817269'
p475
aS'21095566'
p476
aS'5976174'
p477
ag60
ag325
ag251
ag146
aS'64554442'
p478
ag22
aS'3707829'
p479
aS'40343779'
p480
aS'51509565'
p481
ag317
aS'88596522'
p482
aS'34765676'
p483
aS'77376714'
p484
ag96
aS'66433883'
p485
ag311
ag110
ag87
ag297
asg61
S'25'
p486
sg62
S'Algoritmen en complexiteit'
p487
sg64
g240
sg66
g169
sg67
(iread_data
Room
p488
(dp489
g61
g172
sg62
g173
sbsba(ischedule
Activity
p490
(dp491
g8
(lp492
g90
ag195
ag177
ag190
ag99
ag135
ag179
ag194
ag137
ag202
ag186
ag210
ag51
ag188
ag181
ag185
ag208
ag189
ag131
ag183
ag30
ag178
ag191
asg61
S'20'
p493
sg62
g211
sg64
g168
sg66
g222
sg67
(iread_data
Room
p494
(dp495
g61
g214
sg62
g215
sbsba(ischedule
Activity
p496
(dp497
g8
(lp498
g236
aS'5517869'
p499
ag341
aS'29640619'
p500
ag33
ag101
ag387
ag50
aS'57595888'
p501
aS'1696500'
p502
aS'42171678'
p503
aS'13534377'
p504
asg61
S'20'
p505
sg62
S'Collectieve Intelligentie'
p506
sg64
g168
sg66
g367
sg67
(iread_data
Room
p507
(dp508
g61
g265
sg62
g266
sbsba(ischedule
Activity
p509
(dp510
g8
(lp511
g357
aS'81022997'
p512
ag37
ag36
ag362
ag379
ag127
ag184
ag363
aS'25330192'
p513
aS'45414528'
p514
asg61
S'10'
p515
sg62
g366
sg64
g168
sg66
g367
sg67
(iread_data
Room
p516
(dp517
g61
g225
sg62
g226
sbsba(ischedule
Activity
p518
(dp519
g8
(lp520
g152
aS'41153310'
p521
asg61
S'20'
p522
sg62
S'Programmeren in Java 2'
p523
sg64
g240
sg66
g367
sg67
(iread_data
Room
p524
(dp525
g61
g243
sg62
g244
sbsbaa(lp526
(ischedule
Activity
p527
(dp528
g8
(lp529
g430
ag438
ag251
ag310
ag253
ag192
ag419
ag286
ag420
ag182
ag418
ag437
ag426
ag140
ag254
ag34
ag249
ag274
ag440
ag250
ag260
ag408
ag410
ag413
ag439
ag432
ag145
ag428
ag85
ag431
ag423
ag417
ag318
ag46
ag257
ag220
ag93
ag411
ag199
ag425
ag255
ag415
ag292
ag422
ag435
ag204
ag104
ag434
ag385
ag259
ag382
ag375
ag414
ag412
ag86
ag409
ag376
ag429
ag424
ag421
ag256
ag252
ag258
ag416
ag436
ag427
ag248
ag49
ag433
asg61
I1000
sg62
g262
sg64
g65
sg66
I0
sg67
(iread_data
Room
p530
(dp531
g61
g156
sg62
g157
sbsba(ischedule
Activity
p532
(dp533
g8
(lp534
g512
ag357
ag360
ag200
ag362
ag183
ag184
ag23
aS'19337738'
p535
ag359
aS'98780382'
p536
ag379
ag364
ag37
ag358
ag363
ag36
ag107
ag193
ag361
ag514
aS'13996448'
p537
ag513
ag314
ag401
ag127
aS'37744525'
p538
asg61
I1000
sg62
g366
sg64
g65
sg66
I0
sg67
(iread_data
Room
p539
(dp540
g61
g225
sg62
g226
sbsba(ischedule
Activity
p541
(dp542
g8
(lp543
S'76123484'
p544
aS'61443567'
p545
ag341
ag196
aS'72577292'
p546
ag32
ag130
aS'53512831'
p547
aS'67073567'
p548
aS'69459473'
p549
aS'10698627'
p550
aS'2416751'
p551
aS'66034145'
p552
aS'3474870'
p553
aS'24891081'
p554
ag182
aS'76648468'
p555
ag336
ag121
aS'1137946'
p556
asg61
S'20'
p557
sg62
S'Webprogrammeren en databases'
p558
sg64
g240
sg66
g169
sg67
(iread_data
Room
p559
(dp560
g61
g172
sg62
g173
sbsba(ischedule
Activity
p561
(dp562
g8
(lp563
S'53107172'
p564
ag36
aS'76393508'
p565
aS'14138904'
p566
aS'61060652'
p567
ag202
aS'20830477'
p568
aS'31897288'
p569
aS'4353500'
p570
ag384
ag129
ag457
ag503
ag21
ag128
ag17
ag378
ag137
aS'45660925'
p571
ag209
ag502
ag231
ag230
ag105
ag138
ag96
aS'79879876'
p572
ag161
ag126
aS'53775014'
p573
ag254
ag347
ag302
aS'14941752'
p574
ag379
aS'92977271'
p575
aS'97417002'
p576
aS'87210640'
p577
aS'71839156'
p578
ag359
aS'94930277'
p579
aS'58736785'
p580
ag472
ag219
asg61
I1000
sg62
S'Heuristieken 1'
p581
sg64
g65
sg66
I0
sg67
(iread_data
Room
p582
(dp583
g61
g70
sg62
g71
sbsba(ischedule
Activity
p584
(dp585
g8
(lp586
g289
aS'65675896'
p587
aS'535689'
p588
aS'23215240'
p589
aS'91250534'
p590
ag482
aS'5892092'
p591
aS'51472074'
p592
ag151
aS'64418623'
p593
aS'74361881'
p594
ag461
aS'1695839'
p595
aS'82066165'
p596
ag149
aS'41644639'
p597
aS'51673172'
p598
asg61
S'15'
p599
sg62
S'Compilerbouw practicum'
p600
sg64
g240
sg66
g169
sg67
(iread_data
Room
p601
(dp602
g61
g243
sg62
g244
sbsbaa(lp603
(ischedule
Activity
p604
(dp605
g8
(lp606
S'51791169'
p607
aS'68601184'
p608
ag149
ag297
ag568
aS'51593625'
p609
ag200
ag205
aS'63111000'
p610
aS'85236626'
p611
ag96
ag119
ag140
aS'26857113'
p612
ag428
aS'23257088'
p613
ag58
ag575
ag311
aS'88597745'
p614
aS'39905995'
p615
aS'73196865'
p616
ag312
ag331
aS'70072978'
p617
ag109
ag537
ag454
ag423
ag107
ag148
aS'90296821'
p618
aS'54395877'
p619
aS'63096281'
p620
aS'28943658'
p621
aS'23983476'
p622
aS'1048485'
p623
ag485
asg61
g522
sg62
g523
sg64
g240
sg66
S'4'
p624
sg67
(iread_data
Room
p625
(dp626
g61
g214
sg62
g215
sbsba(ischedule
Activity
p627
(dp628
g8
(lp629
g552
ag196
ag544
aS'76903244'
p630
ag579
aS'49908313'
p631
aS'41790793'
p632
ag473
aS'89180944'
p633
ag289
ag550
ag182
ag32
ag546
ag547
aS'16333449'
p634
aS'22288615'
p635
asg61
S'20'
p636
sg62
g558
sg64
g168
sg66
g222
sg67
(iread_data
Room
p637
(dp638
g61
g243
sg62
g244
sbsba(ischedule
Activity
p639
(dp640
g8
(lp641
S'34806836'
p642
ag165
ag164
ag499
ag183
ag220
ag219
asg61
S'10'
p643
sg62
g167
sg64
g240
sg66
g169
sg67
(iread_data
Room
p644
(dp645
g61
g265
sg62
g266
sbsba(ischedule
Activity
p646
(dp647
g8
(lp648
g380
aS'93041523'
p649
ag236
ag373
aS'21192048'
p650
ag133
ag103
ag388
ag161
ag378
ag377
ag390
ag272
ag374
ag94
ag253
aS'12430748'
p651
ag386
ag391
ag392
ag385
ag382
ag376
ag44
ag379
ag106
ag206
ag375
ag381
ag393
ag387
ag389
ag251
ag384
ag383
ag30
ag36
ag24
asg61
I1000
sg62
g395
sg64
g65
sg66
I0
sg67
(iread_data
Room
p652
(dp653
g61
g172
sg62
g173
sbsba(ischedule
Activity
p654
(dp655
g8
(lp656
g256
ag570
aS'21677389'
p657
ag13
ag181
ag191
ag500
ag201
aS'19058315'
p658
ag455
ag463
ag588
ag416
ag449
ag513
ag470
ag285
ag26
ag472
aS'64246605'
p659
ag92
ag316
aS'82872148'
p660
ag53
ag322
aS'85284256'
p661
aS'26207525'
p662
aS'5590289'
p663
aS'12170832'
p664
aS'16912993'
p665
aS'3883025'
p666
asg61
S'20'
p667
sg62
S'Netwerken en systeembeveiliging'
p668
sg64
g240
sg66
g222
sg67
(iread_data
Room
p669
(dp670
g61
g225
sg62
g226
sbsba(ischedule
Activity
p671
(dp672
g8
(lp673
g545
ag380
ag551
ag130
ag549
aS'17092717'
p674
ag41
ag392
ag548
ag554
ag555
aS'20618153'
p675
ag121
ag553
aS'43460038'
p676
aS'28358060'
p677
ag336
ag234
ag556
ag341
aS'78243495'
p678
ag249
asg61
g636
sg62
g558
sg64
g168
sg66
g169
sg67
(iread_data
Room
p679
(dp680
g61
g156
sg62
g157
sbsba(ischedule
Activity
p681
(dp682
g8
(lp683
S'62872965'
p684
ag21
ag185
aS'68409833'
p685
aS'61611295'
p686
ag401
aS'62356458'
p687
ag221
ag413
ag93
ag163
ag162
asg61
g643
sg62
g167
sg64
g240
sg66
g222
sg67
(iread_data
Room
p688
(dp689
g61
g70
sg62
g71
sbsbaaa(lp690
(lp691
(ischedule
Activity
p692
(dp693
g8
(lp694
g22
aS'1665980'
p695
ag250
ag357
ag278
ag476
ag146
ag401
ag110
ag60
ag327
ag553
ag482
ag483
aS'19540225'
p696
ag325
ag251
ag297
ag471
ag622
ag475
ag87
ag473
ag484
ag49
aS'44828429'
p697
ag479
ag480
ag474
ag470
ag485
ag249
ag317
ag91
ag311
ag188
ag477
ag478
ag200
ag472
aS'23652927'
p698
ag96
ag481
asg61
I1000
sg62
g487
sg64
g65
sg66
I0
sg67
(iread_data
Room
p699
(dp700
g61
g70
sg62
g71
sbsba(ischedule
Activity
p701
(dp702
g8
(lp703
g310
ag230
ag348
ag286
ag283
ag347
ag300
ag299
ag301
ag140
ag308
ag313
ag104
ag298
ag148
ag99
ag291
ag75
ag275
ag325
ag45
ag345
ag84
ag319
ag296
ag334
ag309
ag198
ag305
ag118
ag192
ag327
ag338
ag279
asg61
S'40'
p704
sg62
g351
sg64
g168
sg66
g367
sg67
(iread_data
Room
p705
(dp706
g61
g225
sg62
g226
sbsba(ischedule
Activity
p707
(dp708
g8
(lp709
S'48601268'
p710
ag500
aS'25106480'
p711
ag387
ag101
aS'62701040'
p712
ag114
ag504
aS'45556081'
p713
ag411
ag195
ag414
ag316
aS'31416266'
p714
ag386
ag426
ag564
aS'3233378'
p715
ag201
ag256
ag258
asg61
S'20'
p716
sg62
g506
sg64
g240
sg66
g367
sg67
(iread_data
Room
p717
(dp718
g61
g265
sg62
g266
sbsba(ischedule
Activity
p719
(dp720
g8
(lp721
g26
ag206
ag384
ag378
ag460
ag376
ag375
ag331
ag55
aS'59111489'
p722
ag499
ag30
ag617
ag610
ag323
ag433
ag276
aS'96082155'
p723
aS'17222374'
p724
aS'27916487'
p725
aS'99283252'
p726
ag179
ag343
ag430
aS'51650744'
p727
ag150
aS'27241113'
p728
ag205
ag134
ag666
aS'1181560'
p729
aS'66621166'
p730
asg61
S'20'
p731
sg62
S'Moderne Databases'
p732
sg64
g240
sg66
g169
sg67
(iread_data
Room
p733
(dp734
g61
g172
sg62
g173
sbsba(ischedule
Activity
p735
(dp736
g8
g534
sg61
I1000
sg62
g366
sg64
g65
sg66
I0
sg67
(iread_data
Room
p737
(dp738
g61
g156
sg62
g157
sbsba(ischedule
Activity
p739
(dp740
g8
(lp741
g674
ag634
ag552
ag551
ag182
ag234
ag546
ag32
ag473
ag392
ag544
ag548
ag41
ag675
ag545
ag549
ag635
ag554
ag630
ag121
ag341
ag196
ag555
ag547
ag678
ag633
ag676
ag130
ag632
ag336
ag631
ag249
ag579
ag289
ag550
ag677
ag380
ag556
ag553
asg61
I1000
sg62
g558
sg64
g65
sg66
I0
sg67
(iread_data
Room
p742
(dp743
g61
g214
sg62
g215
sbsba(ischedule
Activity
p744
(dp745
g8
(lp746
g337
ag569
ag477
aS'52304977'
p747
ag131
ag374
asg61
S'20'
p748
sg62
S'Heuristieken 2'
p749
sg64
g168
sg66
g222
sg67
(iread_data
Room
p750
(dp751
g61
g243
sg62
g244
sbsbaa(lp752
(ischedule
Activity
p753
(dp754
g8
(lp755
g34
ag376
ag10
ag31
ag484
ag60
ag357
ag199
aS'28357474'
p756
ag21
ag91
ag347
ag203
ag93
ag185
ag90
aS'3727435'
p757
ag186
ag436
ag623
ag377
ag660
ag710
ag320
ag676
ag92
ag379
aS'9287708'
p758
ag340
ag302
ag299
ag476
aS'14072826'
p759
aS'58074656'
p760
ag189
aS'37830626'
p761
ag178
aS'70015932'
p762
ag711
ag110
ag462
ag633
asg61
S'40'
p763
sg62
S'Software engineering'
p764
sg64
g168
sg66
g169
sg67
(iread_data
Room
p765
(dp766
g61
g225
sg62
g226
sbsba(ischedule
Activity
p767
(dp768
g8
(lp769
S'21311067'
p770
ag426
aS'36527838'
p771
ag20
ag107
ag330
aS'32595335'
p772
ag250
ag335
ag344
ag499
aS'35330349'
p773
ag81
ag164
aS'83210352'
p774
ag24
ag364
aS'93566383'
p775
ag553
ag714
aS'80998260'
p776
ag414
ag165
aS'87758823'
p777
ag129
ag198
aS'80709893'
p778
ag456
ag684
ag253
ag309
ag128
aS'16011419'
p779
aS'670011'
p780
ag634
ag578
aS'75005528'
p781
ag685
aS'26172512'
p782
aS'58866007'
p783
ag152
aS'79937969'
p784
ag272
ag122
aS'54074680'
p785
aS'34588570'
p786
aS'96118484'
p787
aS'90743504'
p788
ag145
aS'66570705'
p789
ag195
ag149
ag567
ag83
asg61
I1000
sg62
S'Lineaire Algebra'
p790
sg64
g65
sg66
I0
sg67
(iread_data
Room
p791
(dp792
g61
g70
sg62
g71
sbsba(ischedule
Activity
p793
(dp794
g8
(lp795
g327
ag432
ag412
ag109
ag120
ag42
ag19
aS'33252501'
p796
ag611
ag612
ag477
ag180
ag140
aS'67625383'
p797
ag101
ag220
ag417
ag610
aS'90067329'
p798
ag538
ag95
ag48
asg61
I1000
sg62
S'Machine Learning'
p799
sg64
g65
sg66
I0
sg67
(iread_data
Room
p800
(dp801
g61
g265
sg62
g266
sbsba(ischedule
Activity
p802
(dp803
g8
(lp804
g712
ag622
ag575
ag141
ag119
ag373
ag103
ag161
ag184
ag361
aS'19958553'
p805
ag378
ag613
ag305
aS'8557857'
p806
aS'11459236'
p807
ag375
ag17
aS'17496687'
p808
aS'29718115'
p809
aS'36748818'
p810
asg61
I1000
sg62
S'Informatie- en organsatieontwerp'
p811
sg64
g65
sg66
I0
sg67
(iread_data
Room
p812
(dp813
g61
g214
sg62
g215
sbsba(ischedule
Activity
p814
(dp815
g8
(lp816
g59
ag425
aS'73893840'
p817
ag387
ag99
ag102
ag146
ag514
aS'7386961'
p818
aS'44671041'
p819
ag57
asg61
g522
sg62
g523
sg64
g240
sg66
S'6'
p820
sg67
(iread_data
Room
p821
(dp822
g61
g243
sg62
g244
sbsba(ischedule
Activity
p823
(dp824
g8
(lp825
g183
ag208
ag210
ag182
asg61
S'20'
p826
sg62
g211
sg64
g240
sg66
g222
sg67
(iread_data
Room
p827
(dp828
g61
g156
sg62
g157
sbsba(ischedule
Activity
p829
(dp830
g8
(lp831
g207
asg61
g493
sg62
g211
sg64
g168
sg66
g367
sg67
(iread_data
Room
p832
(dp833
g61
g172
sg62
g173
sbsbaa(lp834
(ischedule
Activity
p835
(dp836
g8
(lp837
g221
aS'64053722'
p838
ag635
ag105
ag589
ag137
ag56
ag500
ag675
ag252
ag116
ag409
aS'15249775'
p839
ag572
ag780
ag220
aS'2550487'
p840
ag348
ag440
ag661
ag471
ag538
ag231
ag550
aS'88263855'
p841
ag55
aS'88519892'
p842
aS'12782624'
p843
ag151
ag49
ag712
aS'10702778'
p844
asg61
g522
sg62
g523
sg64
g240
sg66
S'5'
p845
sg67
(iread_data
Room
p846
(dp847
g61
g214
sg62
g215
sbsba(ischedule
Activity
p848
(dp849
g8
(lp850
g230
ag771
ag503
ag75
aS'48198668'
p851
ag810
ag52
aS'18144425'
p852
aS'41489515'
p853
ag274
ag633
ag678
ag427
ag180
ag33
ag278
aS'49219163'
p854
aS'50184318'
p855
aS'13218321'
p856
ag484
ag119
asg61
g731
sg62
g732
sg64
g240
sg66
g222
sg67
(iread_data
Room
p857
(dp858
g61
g172
sg62
g173
sbsba(ischedule
Activity
p859
(dp860
g8
(lp861
g321
ag127
ag775
ag456
ag295
ag338
aS'64393888'
p862
ag111
ag414
ag277
ag346
ag83
ag192
ag714
ag125
ag327
ag147
ag26
ag551
ag45
ag20
asg61
g522
sg62
g523
sg64
g240
sg66
g169
sg67
(iread_data
Room
p863
(dp864
g61
g70
sg62
g71
sbsba(ischedule
Activity
p865
(dp866
g8
g648
sg61
I1000
sg62
g395
sg64
g65
sg66
I0
sg67
(iread_data
Room
p867
(dp868
g61
g225
sg62
g226
sbsba(ischedule
Activity
p869
(dp870
g8
(lp871
g201
aS'90103047'
p872
ag284
ag426
ag430
aS'21070547'
p873
ag43
aS'19214659'
p874
ag257
ag537
ag232
asg61
S'15'
p875
sg62
S'Project Numerical Recipes'
p876
sg64
g240
sg66
g169
sg67
(iread_data
Room
p877
(dp878
g61
g265
sg62
g266
sbsba(ischedule
Activity
p879
(dp880
g8
(lp881
g200
ag357
aS'29474737'
p882
ag546
ag715
aS'17575088'
p883
ag545
ag724
aS'46052388'
p884
aS'73980360'
p885
ag608
ag311
ag544
ag710
asg61
g505
sg62
g506
sg64
g168
sg66
g624
sg67
(iread_data
Room
p886
(dp887
g61
g156
sg62
g157
sbsbaa(lp888
(ischedule
Activity
p889
(dp890
g8
(lp891
g33
ag862
ag883
ag501
ag608
ag503
ag715
ag258
ag884
ag885
aS'22699561'
p892
ag50
ag504
ag714
ag426
ag448
ag414
ag311
ag544
ag347
ag378
ag695
ag101
ag200
ag308
ag411
ag499
ag710
aS'96104167'
p893
ag712
ag341
ag386
ag773
ag357
ag201
ag855
ag114
ag777
ag256
ag564
ag195
ag142
ag882
aS'1075391'
p894
ag316
ag429
ag724
ag502
aS'34773179'
p895
ag301
ag711
ag713
ag86
ag500
ag236
ag545
ag348
ag470
ag546
ag756
ag387
asg61
I1000
sg62
g506
sg64
g65
sg66
I0
sg67
(iread_data
Room
p896
(dp897
g61
g156
sg62
g157
sbsba(ischedule
Activity
p898
(dp899
g8
g176
sg61
I1000
sg62
g211
sg64
g65
sg66
I0
sg67
(iread_data
Room
p900
(dp901
g61
g70
sg62
g71
sbsba(ischedule
Activity
p902
(dp903
g8
(lp904
g183
ag686
ag413
ag162
ag185
ag21
ag317
ag401
ag687
ag161
ag685
ag220
ag684
ag164
ag219
ag165
ag221
ag93
ag36
ag163
ag499
ag642
asg61
I1000
sg62
g167
sg64
g65
sg66
I0
sg67
(iread_data
Room
p905
(dp906
g61
g265
sg62
g266
sbsba(ischedule
Activity
p907
(dp908
g8
(lp909
g579
ag249
ag289
ag630
ag234
ag473
ag41
ag677
ag674
ag635
ag678
ag675
ag633
ag631
ag634
ag676
ag392
ag380
ag632
asg61
g557
sg62
g558
sg64
g240
sg66
g222
sg67
(iread_data
Room
p910
(dp911
g61
g243
sg62
g244
sbsba(ischedule
Activity
p912
(dp913
g8
(lp914
g375
ag805
ag613
ag305
ag806
ag808
ag622
asg61
S'15'
p915
sg62
g811
sg64
g168
sg66
g169
sg67
(iread_data
Room
p916
(dp917
g61
g225
sg62
g226
sbsba(ischedule
Activity
p918
(dp919
g8
(lp920
g428
ag87
ag32
aS'25557516'
p921
aS'63573738'
p922
ag512
ag149
ag623
ag145
ag138
asg61
g667
sg62
g668
sg64
g240
sg66
g169
sg67
(iread_data
Room
p923
(dp924
g61
g172
sg62
g173
sbsba(ischedule
Activity
p925
(dp926
g8
(lp927
g108
ag53
aS'55480737'
p928
aS'25077484'
p929
ag337
asg61
S'15'
p930
sg62
S'Project Genetic Algorithms'
p931
sg64
g240
sg66
g222
sg67
(iread_data
Room
p932
(dp933
g61
g214
sg62
g215
sbsbaa(lp934
(ischedule
Activity
p935
(dp936
g8
g769
sg61
I1000
sg62
g790
sg64
g65
sg66
I0
sg67
g352
sba(ischedule
Activity
p937
(dp938
g8
(lp939
g119
ag375
asg61
S'15'
p940
sg62
g811
sg64
g240
sg66
g169
sg67
(iread_data
Room
p941
(dp942
g61
g225
sg62
g226
sbsba(ischedule
Activity
p943
(dp944
g8
(lp945
g22
ag44
ag32
ag48
ag39
ag60
ag40
ag59
ag17
ag46
ag19
ag43
ag25
ag41
ag54
ag13
ag29
ag18
ag16
ag37
ag33
ag26
ag14
ag35
asg61
S'20'
p946
sg62
g63
sg64
g168
sg66
g222
sg67
(iread_data
Room
p947
(dp948
g61
g172
sg62
g173
sbsba(ischedule
Activity
p949
(dp950
g8
g176
sg61
I1000
sg62
g211
sg64
g65
sg66
I0
sg67
(iread_data
Room
p951
(dp952
g61
g70
sg62
g71
sbsba(ischedule
Activity
p953
(dp954
g8
(lp955
g161
ag36
ag317
asg61
g643
sg62
g167
sg64
g240
sg66
g367
sg67
(iread_data
Room
p956
(dp957
g61
g265
sg62
g266
sbsba(ischedule
Activity
p958
(dp959
g8
(lp960
g21
ag12
ag49
ag56
ag34
ag10
asg61
g946
sg62
g63
sg64
g168
sg66
g169
sg67
(iread_data
Room
p961
(dp962
g61
g214
sg62
g215
sbsba(ischedule
Activity
p963
(dp964
g8
(lp965
g231
aS'40911986'
p966
ag687
ag38
aS'63939720'
p967
ag416
ag106
ag50
ag840
ag574
ag256
ag512
aS'34691309'
p968
ag42
ag425
asg61
g875
sg62
g876
sg64
g240
sg66
g367
sg67
(iread_data
Room
p969
(dp970
g61
g243
sg62
g244
sbsbaaa(lp971
(lp972
(ischedule
Activity
p973
(dp974
g8
(lp975
g135
ag177
ag22
ag25
ag13
aS'40633534'
p976
ag346
aS'1886996'
p977
ag546
ag422
ag332
ag336
asg61
g238
sg62
g239
sg64
g240
sg66
g169
sg67
(iread_data
Room
p978
(dp979
g61
g243
sg62
g244
sbsba(ischedule
Activity
p980
(dp981
g8
(lp982
g418
asg61
g731
sg62
g732
sg64
g240
sg66
g367
sg67
(iread_data
Room
p983
(dp984
g61
g225
sg62
g226
sbsba(ischedule
Activity
p985
(dp986
g8
(lp987
g457
ag577
ag137
ag571
ag502
ag209
ag503
ag17
ag36
ag578
ag567
asg61
S'25'
p988
sg62
g581
sg64
g168
sg66
g222
sg67
(iread_data
Room
p989
(dp990
g61
g265
sg62
g266
sbsba(ischedule
Activity
p991
(dp992
g8
(lp993
g564
ag138
ag105
ag573
ag568
ag570
ag129
ag96
ag580
ag579
ag574
ag379
ag472
ag230
ag565
ag347
ag161
ag231
ag569
ag575
ag302
ag378
ag128
ag384
ag572
ag576
ag359
ag566
ag126
ag219
ag254
ag202
ag21
asg61
g988
sg62
g581
sg64
g168
sg66
g169
sg67
(iread_data
Room
p994
(dp995
g61
g70
sg62
g71
sbsba(ischedule
Activity
p996
(dp997
g8
(lp998
g93
ag183
ag185
ag686
ag317
ag685
ag687
ag684
ag642
ag36
ag413
ag401
ag21
ag499
asg61
g166
sg62
g167
sg64
g168
sg66
g367
sg67
(iread_data
Room
p999
(dp1000
g61
g214
sg62
g215
sbsba(ischedule
Activity
p1001
(dp1002
g8
(lp1003
g33
ag52
ag55
ag26
ag30
ag771
ag633
ag724
ag730
ag274
ag433
ag726
ag180
ag851
ag810
ag427
ag276
ag678
ag854
ag617
ag278
ag728
ag134
ag375
ag853
ag855
ag119
ag460
ag331
ag856
asg61
S'20'
p1004
sg62
g732
sg64
g168
sg66
g222
sg67
(iread_data
Room
p1005
(dp1006
g61
g172
sg62
g173
sbsba(ischedule
Activity
p1007
(dp1008
g8
(lp1009
g253
ag781
ag131
ag651
ag411
ag310
aS'19662602'
p1010
ag207
aS'37419523'
p1011
ag199
ag922
ag122
ag306
aS'32183908'
p1012
aS'81116418'
p1013
ag249
ag189
ag89
asg61
g875
sg62
g876
sg64
g240
sg66
g222
sg67
g352
sbaa(lp1014
(ischedule
Activity
p1015
(dp1016
g8
(lp1017
g426
ag411
ag256
ag448
ag893
ag414
ag714
ag711
ag862
ag892
ag258
ag756
ag773
ag564
ag201
ag308
ag347
ag895
ag470
ag712
ag777
ag316
ag114
ag195
ag348
ag142
ag378
ag86
ag429
asg61
g505
sg62
g506
sg64
g168
sg66
g169
sg67
(iread_data
Room
p1018
(dp1019
g61
g156
sg62
g157
sbsba(ischedule
Activity
p1020
(dp1021
g8
g904
sg61
I1000
sg62
g167
sg64
g65
sg66
I0
sg67
(iread_data
Room
p1022
(dp1023
g61
g70
sg62
g71
sbsba(ischedule
Activity
p1024
(dp1025
g8
g741
sg61
I1000
sg62
g558
sg64
g65
sg66
I0
sg67
(iread_data
Room
p1026
(dp1027
g61
g225
sg62
g226
sbsba(ischedule
Activity
p1028
(dp1029
g8
(lp1030
g85
aS'37701751'
p1031
ag286
ag697
ag874
aS'64768422'
p1032
ag657
ag840
aS'69634191'
p1033
ag234
ag139
ag236
ag340
ag479
ag193
ag483
ag20
ag552
ag280
aS'20374340'
p1034
ag587
aS'28055464'
p1035
ag345
ag775
ag250
asg61
I1000
sg62
S'Interactie-ontwerp'
p1036
sg64
g65
sg66
I0
sg67
(iread_data
Room
p1037
(dp1038
g61
g214
sg62
g215
sbsba(ischedule
Activity
p1039
(dp1040
g8
(lp1041
g807
ag209
ag357
ag332
ag418
ag386
ag578
ag389
aS'47260040'
p1042
ag297
aS'55103073'
p1043
ag439
ag373
aS'25994016'
p1044
ag178
ag148
ag60
ag695
asg61
g599
sg62
g600
sg64
g240
sg66
g367
sg67
(iread_data
Room
p1045
(dp1046
g61
g172
sg62
g173
sbsba(ischedule
Activity
p1047
(dp1048
g8
(lp1049
g566
ag189
ag501
aS'42297781'
p1050
aS'44151631'
p1051
asg61
g599
sg62
g600
sg64
g240
sg66
g222
sg67
(iread_data
Room
p1052
(dp1053
g61
g243
sg62
g244
sbsbaa(lp1054
(ischedule
Activity
p1055
(dp1056
g8
(lp1057
S'4529208'
p1058
aS'15187217'
p1059
aS'56121590'
p1060
ag471
ag306
ag414
ag179
ag386
ag662
ag295
ag780
ag473
ag346
ag344
ag472
ag13
ag401
ag460
ag195
ag298
ag463
ag137
ag674
ag330
ag474
ag194
ag435
ag461
ag448
ag275
ag16
ag456
aS'5526560'
p1061
ag544
ag220
ag419
ag499
aS'58083680'
p1062
ag50
ag929
ag33
ag279
aS'62736669'
p1063
aS'56191333'
p1064
ag1031
ag150
aS'13132925'
p1065
ag470
ag310
ag278
aS'59397895'
p1066
ag119
ag724
ag380
aS'27123462'
p1067
ag413
ag99
aS'54540997'
p1068
ag500
ag177
ag384
ag142
ag49
ag781
ag617
ag613
ag202
ag59
ag132
ag313
aS'83869542'
p1069
ag163
asg61
I1000
sg62
S'Databases 2'
p1070
sg64
g65
sg66
I0
sg67
(iread_data
Room
p1071
(dp1072
g61
g156
sg62
g157
sbsba(ischedule
Activity
p1073
(dp1074
g8
(lp1075
g209
ag182
ag198
ag200
ag204
ag199
ag196
ag180
ag45
ag206
ag187
ag201
ag203
ag205
ag184
ag129
ag86
ag192
ag58
ag193
ag197
asg61
g493
sg62
g211
sg64
g168
sg66
g169
sg67
(iread_data
Room
p1076
(dp1077
g61
g214
sg62
g215
sbsba(ischedule
Activity
p1078
(dp1079
g8
(lp1080
g188
ag357
ag695
ag698
ag250
ag622
ag249
ag697
ag49
ag553
ag327
ag91
ag696
asg61
g486
sg62
g487
sg64
g240
sg66
g222
sg67
(iread_data
Room
p1081
(dp1082
g61
g225
sg62
g226
sbsba(ischedule
Activity
p1083
(dp1084
g8
(lp1085
g161
aS'59887191'
p1086
ag25
ag332
aS'123355'
p1087
aS'53267490'
p1088
ag502
ag538
ag301
ag480
ag141
ag358
ag232
asg61
g667
sg62
g668
sg64
g240
sg66
g624
sg67
(iread_data
Room
p1089
(dp1090
g61
g265
sg62
g266
sbsba(ischedule
Activity
p1091
(dp1092
g8
(lp1093
g378
ag545
ag882
ag503
asg61
g716
sg62
g506
sg64
g240
sg66
g222
sg67
(iread_data
Room
p1094
(dp1095
g61
g243
sg62
g244
sbsbaa(lp1096
(ischedule
Activity
p1097
(dp1098
g8
g74
sg61
I1000
sg62
g153
sg64
g65
sg66
I0
sg67
g352
sba(ischedule
Activity
p1099
(dp1100
g8
(lp1101
g780
ag346
ag500
ag1069
ag448
ag13
ag163
ag413
ag194
ag177
ag401
ag435
ag929
ag499
ag1059
ag613
ag463
ag50
ag471
ag386
ag474
ag310
ag662
ag461
ag544
ag195
ag460
ag344
ag1063
ag16
ag414
ag724
ag1065
ag1066
ag298
ag1064
ag295
ag1068
ag617
ag456
ag1067
asg61
S'40'
p1102
sg62
g1070
sg64
g168
sg66
g222
sg67
(iread_data
Room
p1103
(dp1104
g61
g70
sg62
g71
sbsba(ischedule
Activity
p1105
(dp1106
g8
(lp1107
S'13798030'
p1108
ag546
ag380
ag566
ag233
ag95
aS'59289233'
p1109
ag419
ag274
ag337
ag633
ag126
ag232
ag676
ag783
ag713
ag272
ag809
ag762
ag470
ag432
asg61
I1000
sg62
S'Architectuur en computerorganisatie'
p1110
sg64
g65
sg66
I0
sg67
(iread_data
Room
p1111
(dp1112
g61
g225
sg62
g226
sbsba(ischedule
Activity
p1113
(dp1114
g8
(lp1115
g429
ag204
ag549
ag286
ag34
ag895
ag711
ag976
ag458
ag685
ag327
aS'75680261'
p1116
ag597
ag594
ag437
ag293
ag1061
ag279
asg61
g930
sg62
g931
sg64
g240
sg66
g367
sg67
(iread_data
Room
p1117
(dp1118
g61
g172
sg62
g173
sbsba(ischedule
Activity
p1119
(dp1120
g8
(lp1121
S'27582862'
p1122
ag388
ag256
ag431
ag318
ag545
asg61
g522
sg62
g523
sg64
g240
sg66
g222
sg67
(iread_data
Room
p1123
(dp1124
g61
g243
sg62
g244
sbsbaa(lp1125
(ischedule
Activity
p1126
(dp1127
g8
g891
sg61
I1000
sg62
g506
sg64
g65
sg66
I0
sg67
(iread_data
Room
p1128
(dp1129
g61
g156
sg62
g157
sbsba(ischedule
Activity
p1130
(dp1131
g8
g1030
sg61
I1000
sg62
g1036
sg64
g65
sg66
I0
sg67
(iread_data
Room
p1132
(dp1133
g61
g214
sg62
g215
sbsba(ischedule
Activity
p1134
(dp1135
g8
(lp1136
g343
ag230
ag75
ag730
ag771
ag810
ag724
ag460
ag610
ag725
ag26
ag855
ag378
ag854
ag278
ag484
ag723
ag180
ag119
ag856
ag852
ag666
ag375
ag499
ag331
ag503
ag30
ag729
ag150
ag418
ag851
ag55
ag726
ag427
ag206
ag430
ag276
ag52
ag433
ag853
ag376
ag728
ag33
ag617
ag205
ag323
ag274
ag722
ag678
ag727
ag179
ag134
ag384
ag633
asg61
I1000
sg62
g732
sg64
g65
sg66
I0
sg67
(iread_data
Room
p1137
(dp1138
g61
g70
sg62
g71
sbsba(ischedule
Activity
p1139
(dp1140
g8
g795
sg61
I1000
sg62
g799
sg64
g65
sg66
I0
sg67
(iread_data
Room
p1141
(dp1142
g61
g225
sg62
g226
sbsba(ischedule
Activity
p1143
(dp1144
g8
(lp1145
g115
ag277
ag102
ag344
ag318
ag335
ag328
asg61
g704
sg62
g351
sg64
g168
sg66
g169
sg67
(iread_data
Room
p1146
(dp1147
g61
g265
sg62
g266
sbsba(ischedule
Activity
p1148
(dp1149
g8
(lp1150
g401
ag23
ag314
ag361
ag200
asg61
g515
sg62
g366
sg64
g168
sg66
g169
sg67
(iread_data
Room
p1151
(dp1152
g61
g172
sg62
g173
sbsba(ischedule
Activity
p1153
(dp1154
g8
(lp1155
g297
ag49
ag622
ag249
ag317
ag478
ag110
ag87
ag91
ag481
ag188
ag474
ag475
ag476
ag485
asg61
S'25'
p1156
sg62
g487
sg64
g168
sg66
g222
sg67
(iread_data
Room
p1157
(dp1158
g61
g243
sg62
g244
sbsbaaa(lp1159
(lp1160
(ischedule
Activity
p1161
(dp1162
g8
(lp1163
g410
ag340
ag436
ag93
ag476
ag199
ag110
ag77
ag758
ag710
ag302
ag276
ag189
ag377
ag196
ag480
ag623
ag299
ag31
ag660
ag521
ag1122
ag756
ag778
ag726
ag186
ag761
ag819
ag774
ag609
ag325
ag567
ag379
ag288
ag484
ag462
ag711
ag203
aS'31103066'
p1164
ag106
ag347
ag364
ag109
ag60
ag538
ag357
ag477
ag320
ag163
ag277
ag687
ag757
ag92
ag178
ag21
ag10
asg61
S'40'
p1165
sg62
g764
sg64
g240
sg66
g222
sg67
(iread_data
Room
p1166
(dp1167
g61
g70
sg62
g71
sbsba(ischedule
Activity
p1168
(dp1169
g8
(lp1170
g41
ag678
ag512
ag545
ag193
ag401
ag483
ag308
ag312
ag148
ag977
aS'72652638'
p1171
ag780
ag611
ag40
aS'82968410'
p1172
ag448
aS'5739011'
p1173
ag293
ag839
ag1069
aS'35315956'
p1174
ag449
ag580
ag165
ag46
asg61
g748
sg62
g749
sg64
g168
sg66
g169
sg67
(iread_data
Room
p1175
(dp1176
g61
g156
sg62
g157
sbsba(ischedule
Activity
p1177
(dp1178
g8
g1107
sg61
I1000
sg62
g1110
sg64
g65
sg66
I0
sg67
(iread_data
Room
p1179
(dp1180
g61
g172
sg62
g173
sbsba(ischedule
Activity
p1181
(dp1182
g8
g804
sg61
I1000
sg62
g811
sg64
g65
sg66
I0
sg67
(iread_data
Room
p1183
(dp1184
g61
g225
sg62
g226
sbsba(ischedule
Activity
p1185
(dp1186
g8
(lp1187
g206
ag36
ag94
ag649
ag651
ag650
asg61
g394
sg62
g395
sg64
g168
sg66
g222
sg67
(iread_data
Room
p1188
(dp1189
g61
g214
sg62
g215
sbsba(ischedule
Activity
p1190
(dp1191
g8
(lp1192
g34
ag411
ag376
ag292
ag250
ag422
ag257
ag421
ag251
ag85
ag254
ag430
ag426
ag382
ag274
ag440
ag428
ag253
asg61
S'40'
p1193
sg62
g262
sg64
g240
sg66
g169
sg67
(iread_data
Room
p1194
(dp1195
g61
g243
sg62
g244
sbsba(ischedule
Activity
p1196
(dp1197
g8
(lp1198
g200
ag86
ag50
ag724
ag855
ag777
ag499
ag501
ag301
ag885
ag33
ag695
ag884
ag502
ag348
ag608
ag236
asg61
g716
sg62
g506
sg64
g240
sg66
g624
sg67
(iread_data
Room
p1199
(dp1200
g61
g265
sg62
g266
sbsbaa(lp1201
(ischedule
Activity
p1202
(dp1203
g8
g891
sg61
I1000
sg62
g506
sg64
g65
sg66
I0
sg67
(iread_data
Room
p1204
(dp1205
g61
g214
sg62
g215
sbsba(ischedule
Activity
p1206
(dp1207
g8
g529
sg61
I1000
sg62
g262
sg64
g65
sg66
I0
sg67
(iread_data
Room
p1208
(dp1209
g61
g156
sg62
g157
sbsba(ischedule
Activity
p1210
(dp1211
g8
(lp1212
g45
ag194
ag30
ag180
ag197
ag191
ag189
ag206
ag51
ag58
ag209
ag181
ag179
ag198
ag205
ag99
ag188
ag90
ag193
ag129
ag178
ag137
ag203
ag202
ag196
asg61
g826
sg62
g211
sg64
g240
sg66
g169
sg67
(iread_data
Room
p1213
(dp1214
g61
g70
sg62
g71
sbsba(ischedule
Activity
p1215
(dp1216
g8
(lp1217
g314
ag379
ag538
ag513
ag183
ag514
ag537
ag536
ag512
ag107
ag535
asg61
g365
sg62
g366
sg64
g240
sg66
g169
sg67
(iread_data
Room
p1218
(dp1219
g61
g172
sg62
g173
sbsba(ischedule
Activity
p1220
(dp1221
g8
(lp1222
g109
ag87
ag449
ag460
ag24
ag596
ag598
ag726
ag296
ag1044
ag329
ag139
ag52
asg61
g930
sg62
g931
sg64
g240
sg66
g169
sg67
(iread_data
Room
p1223
(dp1224
g61
g225
sg62
g226
sbsbaa(lp1225
(ischedule
Activity
p1226
(dp1227
g8
(lp1228
g774
ag81
ag109
ag778
ag685
ag152
ag477
ag364
ag567
ag538
ag163
ag89
ag1122
ag411
ag819
ag500
ag480
ag196
ag106
ag1164
ag715
ag277
ag521
ag276
ag288
ag209
ag678
ag77
ag726
ag325
ag687
ag609
ag410
asg61
g763
sg62
g764
sg64
g168
sg66
g222
sg67
(iread_data
Room
p1229
(dp1230
g61
g156
sg62
g157
sbsba(ischedule
Activity
p1231
(dp1232
g8
(lp1233
g503
ag499
ag378
ag727
ag610
ag323
ag484
ag666
ag430
ag418
ag205
ag723
ag75
ag179
ag376
asg61
g1004
sg62
g732
sg64
g168
sg66
g169
sg67
(iread_data
Room
p1234
(dp1235
g61
g225
sg62
g226
sbsba(ischedule
Activity
p1236
(dp1237
g8
g9
sg61
I1000
sg62
g63
sg64
g65
sg66
I0
sg67
(iread_data
Room
p1238
(dp1239
g61
g214
sg62
g215
sbsba(ischedule
Activity
p1240
(dp1241
g8
(lp1242
g195
ag201
ag204
ag200
ag199
ag192
ag86
ag186
ag190
ag185
ag184
ag135
ag187
ag177
ag131
ag207
asg61
g826
sg62
g211
sg64
g240
sg66
g367
sg67
(iread_data
Room
p1243
(dp1244
g61
g172
sg62
g173
sbsba(ischedule
Activity
p1245
(dp1246
g8
(lp1247
g230
ag722
ag729
ag852
ag150
ag206
ag343
ag384
ag725
asg61
g1004
sg62
g732
sg64
g168
sg66
g367
sg67
(iread_data
Room
p1248
(dp1249
g61
g243
sg62
g244
sbsba(ischedule
Activity
p1250
(dp1251
g8
(lp1252
g470
ag544
ag357
ag448
ag756
ag429
ag341
ag347
ag894
ag773
ag308
ag546
ag883
ag862
ag895
ag142
ag893
ag892
ag311
asg61
g716
sg62
g506
sg64
g240
sg66
g169
sg67
(iread_data
Room
p1253
(dp1254
g61
g70
sg62
g71
sbsba(ischedule
Activity
p1255
(dp1256
g8
(lp1257
g1064
ag250
ag102
ag108
ag197
ag1063
ag96
ag385
ag193
ag1060
asg61
g667
sg62
g668
sg64
g240
sg66
g367
sg67
(iread_data
Room
p1258
(dp1259
g61
g265
sg62
g266
sbsbaa(lp1260
(ischedule
Activity
p1261
(dp1262
g8
(lp1263
g203
ag152
ag462
ag106
ag1122
ag364
ag163
ag538
ag89
ag320
ag410
ag477
ag676
ag476
ag759
ag710
ag484
ag34
ag678
ag347
ag288
ag819
ag761
ag376
ag186
ag687
ag21
ag277
ag90
ag199
ag340
ag500
ag774
ag10
ag91
ag77
ag756
ag379
ag178
ag110
ag81
ag758
ag109
ag633
ag209
ag325
ag762
ag302
ag60
ag685
ag778
ag567
ag436
ag480
ag196
ag92
ag1164
ag377
ag715
ag726
ag93
ag189
ag660
ag185
ag357
ag623
ag609
ag299
ag521
ag31
ag276
ag711
ag760
ag757
ag411
asg61
I1000
sg62
g764
sg64
g65
sg66
I0
sg67
(iread_data
Room
p1264
(dp1265
g61
g156
sg62
g157
sbsba(ischedule
Activity
p1266
(dp1267
g8
(lp1268
g137
ag150
ag142
ag99
ag132
ag278
ag119
ag470
ag380
ag419
ag1062
ag1061
ag220
ag330
ag781
ag472
ag313
ag59
ag384
ag202
ag33
ag179
ag674
ag306
ag1058
ag279
ag49
ag1031
ag275
ag1060
ag473
asg61
g1102
sg62
g1070
sg64
g168
sg66
g169
sg67
(iread_data
Room
p1269
(dp1270
g61
g172
sg62
g173
sbsba(ischedule
Activity
p1271
(dp1272
g8
(lp1273
g386
ag301
ag713
ag855
ag695
ag894
asg61
g505
sg62
g506
sg64
g168
sg66
g222
sg67
(iread_data
Room
p1274
(dp1275
g61
g265
sg62
g266
sbsba(ischedule
Activity
p1276
(dp1277
g8
(lp1278
g976
ag25
ag332
ag231
ag13
ag336
ag232
ag346
ag237
ag135
ag177
ag22
ag977
ag236
ag233
ag546
ag235
ag234
ag230
ag422
asg61
I1000
sg62
g239
sg64
g65
sg66
I0
sg67
(iread_data
Room
p1279
(dp1280
g61
g214
sg62
g215
sbsba(ischedule
Activity
p1281
(dp1282
g8
(lp1283
g184
ag161
ag17
ag712
ag808
ag806
ag305
ag361
ag103
ag810
ag613
ag141
ag805
ag575
ag373
ag378
ag809
ag807
ag622
asg61
g940
sg62
g811
sg64
g240
sg66
g222
sg67
(iread_data
Room
p1284
(dp1285
g61
g243
sg62
g244
sbsba(ischedule
Activity
p1286
(dp1287
g8
(lp1288
g312
ag611
ag545
ag448
ag293
ag449
ag839
ag780
ag1174
ag46
ag165
ag40
ag477
ag977
ag569
ag41
ag374
ag193
ag308
ag483
ag678
ag580
ag148
ag512
ag337
ag131
ag747
ag1171
ag401
ag1069
ag1172
ag1173
asg61
I1000
sg62
g749
sg64
g65
sg66
I0
sg67
(iread_data
Room
p1289
(dp1290
g61
g70
sg62
g71
sbsbaa(lp1291
(ischedule
Activity
p1292
(dp1293
g8
(lp1294
g470
ag250
ag479
ag401
ag483
ag484
ag697
ag311
ag695
ag696
ag477
ag327
ag698
ag553
ag471
ag251
ag96
ag325
ag473
ag278
ag472
ag482
ag60
ag146
ag357
ag22
ag480
ag200
asg61
g1156
sg62
g487
sg64
g168
sg66
g169
sg67
(iread_data
Room
p1295
(dp1296
g61
g70
sg62
g71
sbsba(ischedule
Activity
p1297
(dp1298
g8
(lp1299
g193
ag536
ag358
ag183
ag360
ag359
ag364
ag538
ag535
ag537
ag107
asg61
g515
sg62
g366
sg64
g168
sg66
g222
sg67
(iread_data
Room
p1300
(dp1301
g61
g225
sg62
g226
sbsba(ischedule
Activity
p1302
(dp1303
g8
(lp1304
g274
ag205
ag316
ag322
ag337
ag341
ag121
ag340
ag206
ag284
ag202
ag304
ag278
ag48
ag297
ag295
ag302
ag321
ag342
ag292
ag111
ag122
ag276
ag315
ag272
ag314
ag330
ag324
ag312
ag323
ag331
ag290
ag307
ag231
ag317
ag346
ag329
ag332
ag306
ag326
ag210
ag129
ag143
ag303
ag288
ag282
ag287
ag343
ag336
ag350
ag349
ag289
ag271
ag339
ag294
ag285
ag320
ag311
ag186
ag273
ag280
ag281
ag333
ag165
ag293
asg61
g704
sg62
g351
sg64
g168
sg66
g222
sg67
(iread_data
Room
p1305
(dp1306
g61
g156
sg62
g157
sbsba(ischedule
Activity
p1307
(dp1308
g8
(lp1309
g34
ag376
ag633
ag678
ag411
ag762
ag676
ag500
ag685
ag715
ag91
ag89
ag759
ag81
ag209
ag90
ag760
ag152
ag185
asg61
g1165
sg62
g764
sg64
g240
sg66
g169
sg67
(iread_data
Room
p1310
(dp1311
g61
g265
sg62
g266
sbsba(ischedule
Activity
p1312
(dp1313
g8
(lp1314
g419
ag410
ag93
ag199
ag436
ag432
ag439
ag86
ag375
ag192
ag46
ag249
ag409
ag414
ag258
ag252
ag145
ag434
ag182
ag420
ag415
ag431
ag425
ag427
ag385
ag435
ag286
ag408
ag433
ag259
ag417
ag49
ag418
ag104
ag416
ag438
ag140
ag437
ag310
ag429
ag424
ag248
ag260
ag255
ag256
ag220
ag413
ag423
ag412
ag318
ag204
asg61
g1193
sg62
g262
sg64
g240
sg66
g222
sg67
(iread_data
Room
p1315
(dp1316
g61
g214
sg62
g215
sbsba(ischedule
Activity
p1317
(dp1318
g8
(lp1319
g712
ag378
ag161
ag184
ag119
ag141
ag810
ag575
ag17
ag103
ag373
ag809
ag807
ag361
asg61
g915
sg62
g811
sg64
g168
sg66
g222
sg67
(iread_data
Room
p1320
(dp1321
g61
g243
sg62
g244
sbsba(ischedule
Activity
p1322
(dp1323
g8
(lp1324
g24
ag51
ag45
ag36
ag50
ag30
ag42
ag38
ag55
ag58
ag20
ag23
ag52
ag47
ag57
ag53
ag28
ag27
ag11
ag15
ag31
asg61
g946
sg62
g63
sg64
g168
sg66
g367
sg67
(iread_data
Room
p1325
(dp1326
g61
g172
sg62
g173
sbsbaaa(lp1327
(lp1328
a(lp1329
a(lp1330
a(lp1331
a(lp1332
aasS'timeslot_dict'
p1333
(dp1334
I0
S'9:00-11:00'
p1335
sI1
S'11:00-13:00'
p1336
sI2
S'13:00-15:00'
p1337
sI3
S'15:00-17:00'
p1338
sI4
S'17:00-19:00'
p1339
ssS'day_dict'
p1340
(dp1341
I0
S'Monday'
p1342
sI1
S'Tuesday'
p1343
sI2
S'Wednesday'
p1344
sI3
S'Thursday'
p1345
sI4
S'Friday'
p1346
ssb.