(ischedule
Schedule
p0
(dp1
S'timetable'
p2
(lp3
(lp4
(lp5
(ischedule
Activity
p6
(dp7
S'participants'
p8
(lp9
S'13092455'
p10
aS'11068043'
p11
aS'73236988'
p12
aS'60312776'
p13
aS'13996448'
p14
aS'2550487'
p15
aS'7957843'
p16
aS'40911986'
p17
aS'88752563'
p18
aS'7308727'
p19
aS'42778953'
p20
aS'1766560'
p21
aS'84110134'
p22
aS'75005528'
p23
aS'63573738'
p24
aS'48308205'
p25
aS'19214659'
p26
aS'74182182'
p27
aS'86291592'
p28
aS'48503689'
p29
aS'62356458'
p30
aS'13284244'
p31
aS'73823548'
p32
aS'12430748'
p33
aS'81022997'
p34
aS'32183908'
p35
aS'89338938'
p36
aS'32044893'
p37
aS'63939720'
p38
aS'22731474'
p39
aS'37419523'
p40
aS'19662602'
p41
aS'81116418'
p42
asS'capacity'
p43
S'15'
p44
sS'name'
p45
S'Project Numerical Recipes'
p46
sS'ttype'
p47
S'labs'
p48
sS'group_id'
p49
S'3'
p50
sS'room'
p51
(iread_data
Room
p52
(dp53
g43
S'48'
p54
sg45
S'B0.201'
p55
sbsba(ischedule
Activity
p56
(dp57
g8
(lp58
S'46701583'
p59
aS'81385263'
p60
aS'72895450'
p61
aS'77376714'
p62
aS'21964491'
p63
aS'58592894'
p64
aS'5976174'
p65
aS'44828429'
p66
aS'3707829'
p67
aS'34765676'
p68
aS'88596522'
p69
aS'14671406'
p70
aS'51566595'
p71
aS'12077419'
p72
aS'67817269'
p73
aS'51509565'
p74
aS'52715680'
p75
aS'21095566'
p76
aS'26260141'
p77
aS'19540225'
p78
aS'66433883'
p79
aS'41527759'
p80
aS'15902055'
p81
aS'78136904'
p82
aS'96453361'
p83
aS'53585410'
p84
aS'50143947'
p85
aS'41585485'
p86
asg43
S'25'
p87
sg45
S'Algoritmen en complexiteit'
p88
sg47
g48
sg49
S'2'
p89
sg51
(iread_data
Room
p90
(dp91
g43
S'60'
p92
sg45
S'C1.112'
p93
sbsba(ischedule
Activity
p94
(dp95
g8
(lp96
S'61443567'
p97
aS'33877725'
p98
aS'78243495'
p99
aS'64228258'
p100
aS'76123484'
p101
aS'53202517'
p102
aS'67073567'
p103
aS'14847953'
p104
aS'94930277'
p105
aS'28358060'
p106
aS'66034145'
p107
aS'41790793'
p108
aS'77392404'
p109
aS'24891081'
p110
aS'39230359'
p111
aS'76648468'
p112
aS'14303208'
p113
aS'17092717'
p114
aS'27064249'
p115
aS'76903244'
p116
aS'43460038'
p117
aS'3474870'
p118
asg43
S'20'
p119
sg45
S'Webprogrammeren en databases'
p120
sg47
S'tutorials'
p121
sg49
S'1'
p122
sg51
(iread_data
Room
p123
(dp124
g43
S'22'
p125
sg45
S'A1.06'
p126
sbsba(ischedule
Activity
p127
(dp128
g8
(lp129
S'11996292'
p130
aS'37110913'
p131
aS'4783858'
p132
aS'22323043'
p133
aS'22871048'
p134
aS'14816774'
p135
aS'86807027'
p136
aS'56749879'
p137
aS'61060652'
p138
aS'66122625'
p139
aS'57467488'
p140
aS'31897288'
p141
aS'97019450'
p142
aS'79879876'
p143
aS'87210640'
p144
aS'45660925'
p145
aS'14941752'
p146
aS'20830477'
p147
aS'48357272'
p148
aS'53775014'
p149
aS'44901052'
p150
aS'1696500'
p151
aS'76393508'
p152
aS'97417002'
p153
aS'98105190'
p154
aS'81218347'
p155
aS'71839156'
p156
aS'4568018'
p157
aS'36903574'
p158
aS'19858730'
p159
asg43
S'25'
p160
sg45
S'Heuristieken 1'
p161
sg47
g121
sg49
g89
sg51
(iread_data
Room
p162
(dp163
g43
S'41'
p164
sg45
S'A1.04'
p165
sbsba(ischedule
Activity
p166
(dp167
g8
(lp168
S'28618400'
p169
aS'70015932'
p170
aS'13798030'
p171
aS'23798155'
p172
aS'40434933'
p173
aS'89180944'
p174
aS'27925117'
p175
aS'72577292'
p176
aS'20331158'
p177
aS'72683344'
p178
aS'34872117'
p179
aS'10149535'
p180
aS'58866007'
p181
aS'83266686'
p182
aS'29718115'
p183
aS'14138904'
p184
aS'49683101'
p185
aS'82689818'
p186
ag117
aS'45556081'
p187
aS'59289233'
p188
asg43
I1000
sg45
S'Architectuur en computerorganisatie'
p189
sg47
S'lectures'
p190
sg49
I0
sg51
(iread_data
Room
p191
(dp192
g43
S'56'
p193
sg45
S'A1.10'
p194
sbsba(ischedule
Activity
p195
(dp196
g8
(lp197
S'70878567'
p198
aS'62701040'
p199
aS'75521763'
p200
aS'18266644'
p201
aS'13658563'
p202
aS'58332004'
p203
aS'19958553'
p204
aS'23983476'
p205
aS'13116738'
p206
aS'17496687'
p207
aS'68315599'
p208
aS'32204977'
p209
aS'75585647'
p210
asg43
S'15'
p211
sg45
S'Informatie- en organsatieontwerp'
p212
sg47
g121
sg49
g122
sg51
(iread_data
Room
p213
(dp214
g43
S'117'
p215
sg45
S'C0.110'
p216
sbsba(ischedule
Activity
p217
(dp218
g8
(lp219
S'63634350'
p220
aS'670011'
p221
asg43
S'20'
p222
sg45
S'Programmeren in Java 2'
p223
sg47
g48
sg49
g50
sg51
(iread_data
Room
p224
(dp225
g43
S'20'
p226
sg45
S'A1.08'
p227
sbsbaa(lp228
(ischedule
Activity
p229
(dp230
g8
(lp231
g68
ag67
aS'23547619'
p232
aS'64768422'
p233
ag60
aS'81200278'
p234
aS'37701751'
p235
aS'5368702'
p236
aS'20374340'
p237
ag66
aS'65675896'
p238
aS'21677389'
p239
aS'38179241'
p240
ag107
ag15
aS'81155296'
p241
aS'28055464'
p242
ag26
aS'4546613'
p243
aS'69634191'
p244
aS'76924297'
p245
aS'93566383'
p246
aS'37399898'
p247
aS'76661016'
p248
ag104
asg43
I1000
sg45
S'Interactie-ontwerp'
p249
sg47
g190
sg49
I0
sg51
(iread_data
Room
p250
(dp251
g43
g92
sg45
g93
sbsba(ischedule
Activity
p252
(dp253
g8
(lp254
S'42406214'
p255
aS'6913074'
p256
aS'77960666'
p257
aS'87830198'
p258
aS'92778619'
p259
aS'36785409'
p260
ag247
aS'20239127'
p261
ag109
aS'59753700'
p262
aS'68286356'
p263
aS'51052738'
p264
aS'51415617'
p265
aS'90474003'
p266
ag202
ag10
aS'5298748'
p267
aS'70193386'
p268
aS'99453514'
p269
aS'43680781'
p270
aS'33776961'
p271
aS'20095994'
p272
aS'3685034'
p273
aS'41578612'
p274
aS'38296757'
p275
aS'82390428'
p276
aS'49922855'
p277
aS'57086672'
p278
ag37
aS'4709948'
p279
aS'27950803'
p280
aS'27805666'
p281
aS'13718298'
p282
aS'27370083'
p283
aS'24277163'
p284
aS'70844780'
p285
ag134
aS'99975346'
p286
ag75
aS'96554914'
p287
aS'54569540'
p288
ag131
aS'36213792'
p289
aS'86988337'
p290
aS'84524083'
p291
aS'60661905'
p292
aS'84449005'
p293
aS'22826928'
p294
ag82
aS'60352393'
p295
aS'61518436'
p296
asg43
I1000
sg45
S'Reflectie op de digitale cultuur'
p297
sg47
g190
sg49
I0
sg51
(iread_data
Room
p298
(dp299
g43
g215
sg45
g216
sbsba(ischedule
Activity
p300
(dp301
g8
(lp302
S'58522654'
p303
aS'77240949'
p304
aS'42196732'
p305
ag85
aS'86000192'
p306
ag97
ag176
aS'37770881'
p307
ag187
ag28
aS'35330349'
p308
aS'77896638'
p309
aS'97135019'
p310
aS'43027916'
p311
aS'22699561'
p312
aS'17575088'
p313
aS'31416266'
p314
ag13
aS'33760909'
p315
aS'25106480'
p316
aS'87758823'
p317
aS'13534377'
p318
aS'51741554'
p319
asg43
S'20'
p320
sg45
S'Collectieve Intelligentie'
p321
sg47
g48
sg49
g89
sg51
(iread_data
Room
p322
(dp323
g43
g54
sg45
g55
sbsba(ischedule
Activity
p324
(dp325
g8
(lp326
g271
aS'96082155'
p327
ag64
aS'14309255'
p328
ag200
aS'49631542'
p329
aS'13911001'
p330
ag21
aS'58699305'
p331
aS'48198668'
p332
aS'36527838'
p333
aS'42171678'
p334
aS'13218321'
p335
aS'11741347'
p336
aS'5517869'
p337
aS'78821918'
p338
aS'70072978'
p339
aS'27916487'
p340
ag270
aS'30658799'
p341
aS'85335143'
p342
aS'49219163'
p343
aS'99283252'
p344
ag62
ag284
aS'64600457'
p345
ag203
aS'36748818'
p346
aS'78544592'
p347
aS'27241113'
p348
aS'83415514'
p349
aS'3883025'
p350
aS'75997788'
p351
aS'51650744'
p352
aS'29526540'
p353
ag279
ag208
aS'50184318'
p354
aS'59111489'
p355
ag182
aS'18144425'
p356
aS'46570285'
p357
aS'47462856'
p358
ag174
ag130
aS'78443067'
p359
aS'15051051'
p360
ag99
aS'17222374'
p361
ag293
aS'1181560'
p362
aS'41489515'
p363
aS'63111000'
p364
aS'66621166'
p365
asg43
I1000
sg45
S'Moderne Databases'
p366
sg47
g190
sg49
I0
sg51
(iread_data
Room
p367
(dp368
g43
g193
sg45
g194
sbsba(ischedule
Activity
p369
(dp370
g8
(lp371
g198
ag201
ag210
ag183
aS'92977271'
p372
ag199
aS'23257088'
p373
asg43
S'15'
p374
sg45
g212
sg47
g48
sg49
g122
sg51
(iread_data
Room
p375
(dp376
g43
g125
sg45
g126
sbsba(ischedule
Activity
p377
(dp378
g8
(lp379
S'11915563'
p380
aS'27298319'
p381
aS'36508571'
p382
ag71
aS'34806836'
p383
aS'62872965'
p384
ag159
aS'61611295'
p385
aS'70113753'
p386
aS'54026378'
p387
aS'72796858'
p388
aS'16097870'
p389
aS'68409833'
p390
aS'39459642'
p391
asg43
S'10'
p392
sg45
S'Autonomous Agents 2'
p393
sg47
g48
sg49
g89
sg51
(iread_data
Room
p394
(dp395
g43
g226
sg45
g227
sbsba(ischedule
Activity
p396
(dp397
g8
(lp398
S'72665524'
p399
ag156
ag11
aS'1695839'
p400
aS'99272880'
p401
aS'26406342'
p402
aS'25994016'
p403
ag69
aS'57595888'
p404
ag157
aS'1665980'
p405
aS'91250534'
p406
aS'3407554'
p407
ag84
aS'55103073'
p408
aS'41644639'
p409
aS'42297781'
p410
aS'535689'
p411
aS'89985072'
p412
ag220
aS'51673172'
p413
ag184
aS'14383795'
p414
aS'47260040'
p415
aS'5892092'
p416
aS'51472074'
p417
aS'38499176'
p418
aS'11459236'
p419
ag113
aS'5085194'
p420
aS'74361881'
p421
aS'23215240'
p422
asg43
S'15'
p423
sg45
S'Compilerbouw practicum'
p424
sg47
g48
sg49
g122
sg51
(iread_data
Room
p425
(dp426
g43
g164
sg45
g165
sbsbaa(lp427
(ischedule
Activity
p428
(dp429
g8
(lp430
S'28357474'
p431
ag328
aS'52311353'
p432
ag174
ag344
aS'82872148'
p433
aS'45915482'
p434
aS'83210352'
p435
aS'88176729'
p436
ag282
ag70
aS'55474917'
p437
aS'3727435'
p438
ag85
aS'48601268'
p439
aS'62105897'
p440
ag12
aS'80709893'
p441
ag36
aS'51593625'
p442
ag65
ag13
aS'9287708'
p443
ag148
aS'31103066'
p444
aS'14072826'
p445
ag280
aS'41153310'
p446
ag22
ag412
aS'29640619'
p447
aS'75599734'
p448
aS'52552718'
p449
aS'59544049'
p450
ag76
ag387
ag134
aS'44671041'
p451
ag157
ag380
ag30
aS'31633723'
p452
aS'37744525'
p453
ag390
aS'65408517'
p454
aS'94467156'
p455
aS'40343779'
p456
aS'65318664'
p457
ag316
ag133
aS'1048485'
p458
aS'58074656'
p459
ag138
aS'95631564'
p460
ag243
ag77
ag98
aS'31247305'
p461
aS'3233378'
p462
ag11
aS'73302736'
p463
ag170
ag117
aS'42115591'
p464
ag75
ag80
aS'44868097'
p465
aS'27582862'
p466
ag132
ag287
ag99
ag359
ag62
aS'37830626'
p467
aS'58565406'
p468
asg43
I1000
sg45
S'Software engineering'
p469
sg47
g190
sg49
I0
sg51
(iread_data
Room
p470
(dp471
g43
g215
sg45
g216
sbsba(ischedule
Activity
p472
(dp473
g8
(lp474
g28
ag186
ag402
ag317
ag307
ag100
ag313
aS'73980360'
p475
aS'29474737'
p476
ag310
ag187
ag304
aS'64393888'
p477
ag404
aS'9332762'
p478
asg43
S'20'
p479
sg45
g321
sg47
g121
sg49
g89
sg51
(iread_data
Room
p480
(dp481
g43
g226
sg45
g227
sbsba(ischedule
Activity
p482
(dp483
g8
(lp484
g351
ag203
ag338
ag339
ag329
ag363
ag358
ag360
ag279
ag330
ag346
ag64
ag343
ag293
ag340
ag208
ag130
ag182
ag331
ag354
ag200
ag327
ag365
ag355
ag364
asg43
S'20'
p485
sg45
g366
sg47
g48
sg49
g122
sg51
(iread_data
Room
p486
(dp487
g43
g193
sg45
g194
sbsba(ischedule
Activity
p488
(dp489
g8
(lp490
g270
ag289
ag269
ag275
ag260
ag292
ag131
ag271
ag263
ag257
ag82
ag290
ag278
ag272
ag265
ag276
ag266
ag261
asg43
S'20'
p491
sg45
g297
sg47
g121
sg49
g89
sg51
(iread_data
Room
p492
(dp493
g43
g54
sg45
g55
sbsba(ischedule
Activity
p494
(dp495
g8
(lp496
S'14591033'
p497
ag198
ag303
ag137
ag135
aS'96054456'
p498
ag234
ag267
ag342
aS'30050930'
p499
ag353
aS'247918'
p500
aS'74131924'
p501
aS'3168419'
p502
aS'77831658'
p503
aS'30195935'
p504
ag294
aS'21029457'
p505
aS'79617364'
p506
ag102
ag305
asg43
S'20'
p507
sg45
S'Bioinformatica'
p508
sg47
g121
sg49
g122
sg51
(iread_data
Room
p509
(dp510
g43
g164
sg45
g165
sbsba(ischedule
Activity
p511
(dp512
g8
(lp513
g158
aS'3678531'
p514
aS'6723948'
p515
aS'15249775'
p516
aS'2317551'
p517
aS'64947290'
p518
ag391
ag142
aS'54772132'
p519
ag349
asg43
g222
sg45
g223
sg47
g48
sg49
S'4'
p520
sg51
(iread_data
Room
p521
(dp522
g43
g92
sg45
g93
sbsbaa(lp523
(ischedule
Activity
p524
(dp525
g8
(lp526
g71
aS'88627897'
p527
ag159
ag131
asg43
S'10'
p528
sg45
g393
sg47
g121
sg49
g89
sg51
(iread_data
Room
p529
(dp530
g43
g226
sg45
g227
sbsba(ischedule
Activity
p531
(dp532
g8
(lp533
g220
aS'61520025'
p534
ag210
aS'78735049'
p535
aS'6939933'
p536
ag515
ag506
aS'22168693'
p537
aS'10792879'
p538
aS'79167252'
p539
aS'40141996'
p540
aS'93361408'
p541
ag345
aS'70939718'
p542
aS'62363761'
p543
aS'27187154'
p544
ag136
ag497
ag434
ag59
ag463
aS'10609762'
p545
aS'65978354'
p546
aS'56872729'
p547
aS'56348773'
p548
ag351
ag359
aS'23658570'
p549
ag243
aS'75446434'
p550
aS'47477884'
p551
aS'32705005'
p552
ag389
ag32
aS'31306819'
p553
aS'12091019'
p554
aS'86180471'
p555
ag357
aS'23565001'
p556
aS'5615125'
p557
aS'14179347'
p558
aS'9731271'
p559
aS'58040377'
p560
asg43
S'40'
p561
sg45
S'Calculus 2'
p562
sg47
g121
sg49
g122
sg51
(iread_data
Room
p563
(dp564
g43
g193
sg45
g194
sbsba(ischedule
Activity
p565
(dp566
g8
(lp567
S'6249823'
p568
ag174
ag111
ag113
ag112
ag108
aS'43902015'
p569
ag173
aS'69459473'
p570
ag99
ag61
ag103
ag104
aS'53512831'
p571
ag107
ag557
aS'1137946'
p572
aS'2416751'
p573
ag110
ag105
aS'16333449'
p574
ag100
ag102
aS'10698627'
p575
aS'20618153'
p576
ag176
ag114
ag101
aS'22288615'
p577
ag109
ag278
ag116
ag98
ag117
ag115
ag106
ag97
aS'49908313'
p578
ag118
asg43
I1000
sg45
g120
sg47
g190
sg49
I0
sg51
(iread_data
Room
p579
(dp580
g43
g164
sg45
g165
sbsba(ischedule
Activity
p581
(dp582
g8
(lp583
g234
ag432
ag85
ag206
ag198
aS'25330192'
p584
ag501
ag133
ag453
aS'98780382'
p585
aS'91196968'
p586
aS'19337738'
p587
ag34
aS'87314964'
p588
asg43
S'10'
p589
sg45
S'Data Mining'
p590
sg47
g48
sg49
g122
sg51
(iread_data
Room
p591
(dp592
g43
g92
sg45
g93
sbsba(ischedule
Activity
p593
(dp594
g8
(lp595
g236
aS'5595824'
p596
ag60
aS'34243356'
p597
aS'40791377'
p598
ag391
ag290
aS'2079771'
p599
ag185
ag330
ag182
ag29
aS'88855695'
p600
ag280
ag336
aS'9067939'
p601
ag388
aS'80135353'
p602
ag341
ag248
aS'65960683'
p603
ag72
aS'88636924'
p604
ag517
ag179
aS'75664412'
p605
aS'46989508'
p606
ag20
ag21
ag25
aS'92665222'
p607
ag31
ag519
ag12
aS'31194811'
p608
aS'94687383'
p609
ag154
aS'15911353'
p610
aS'75759231'
p611
ag208
ag309
aS'8464817'
p612
ag407
aS'76802764'
p613
asg43
S'40'
p614
sg45
S'Compilerbouw'
p615
sg47
g121
sg49
g122
sg51
(iread_data
Room
p616
(dp617
g43
g215
sg45
g216
sbsba(ischedule
Activity
p618
(dp619
g8
(lp620
g279
ag264
ag256
ag287
ag288
ag273
ag296
ag284
ag247
ag281
ag134
ag202
ag10
ag286
ag291
ag258
ag293
ag277
asg43
g491
sg45
g297
sg47
g121
sg49
g50
sg51
(iread_data
Room
p621
(dp622
g43
g125
sg45
g126
sbsba(ischedule
Activity
p623
(dp624
g8
(lp625
g342
aS'28957789'
p626
ag319
ag498
ag440
ag148
aS'33672995'
p627
ag240
aS'59220392'
p628
aS'55530367'
p629
aS'34173695'
p630
ag331
aS'58253841'
p631
ag180
aS'24875739'
p632
aS'87900893'
p633
ag64
ag241
aS'94686490'
p634
aS'55412918'
p635
ag27
aS'58469172'
p636
ag18
ag315
ag514
ag306
ag132
aS'47932106'
p637
aS'56544130'
p638
ag84
asg43
g561
sg45
g562
sg47
g121
sg49
g89
sg51
(iread_data
Room
p639
(dp640
g43
g54
sg45
g55
sbsbaa(lp641
(ischedule
Activity
p642
(dp643
g8
(lp644
g500
ag294
ag502
ag501
ag135
ag345
ag506
aS'20883994'
p645
aS'56815156'
p646
ag83
ag450
ag270
ag504
asg43
S'20'
p647
sg45
g508
sg47
g48
sg49
g50
sg51
(iread_data
Room
p648
(dp649
g43
g92
sg45
g93
sbsba(ischedule
Activity
p650
(dp651
g8
(lp652
g100
ag151
ag199
ag232
ag313
ag101
aS'53107172'
p653
ag307
ag318
aS'46052388'
p654
ag478
ag477
ag314
ag475
ag13
ag187
ag402
ag439
ag315
ag334
ag304
ag303
ag10
ag309
ag19
ag462
ag361
ag305
ag284
aS'34773179'
p655
aS'68601184'
p656
ag312
ag405
ag200
ag306
aS'54310617'
p657
ag176
ag186
ag317
ag97
ag476
ag316
ag81
aS'64296965'
p658
ag85
ag20
ag308
ag310
ag431
ag447
ag63
ag319
ag354
ag311
aS'96104167'
p659
ag404
ag132
ag337
ag603
aS'1075391'
p660
ag28
asg43
I1000
sg45
g321
sg47
g190
sg49
I0
sg51
(iread_data
Room
p661
(dp662
g43
g215
sg45
g216
sbsba(ischedule
Activity
p663
(dp664
g8
(lp665
g551
aS'40633534'
p666
asg43
S'10'
p667
sg45
S'Advanced Heuristics'
p668
sg47
g48
sg49
g89
sg51
(iread_data
Room
p669
(dp670
g43
g164
sg45
g165
sbsba(ischedule
Activity
p671
(dp672
g8
(lp673
S'1886996'
p674
ag389
aS'85236626'
p675
aS'7106649'
p676
ag141
ag220
ag71
aS'5739011'
p677
ag291
ag65
ag278
ag99
ag175
ag68
aS'82968410'
p678
aS'35315956'
p679
aS'52304977'
p680
asg43
S'20'
p681
sg45
S'Heuristieken 2'
p682
sg47
g121
sg49
g122
sg51
(iread_data
Room
p683
(dp684
g43
g193
sg45
g194
sbsba(ischedule
Activity
p685
(dp686
g8
(lp687
g206
ag150
ag209
ag346
ag202
ag183
ag199
ag373
ag372
ag201
aS'8557857'
p688
ag205
ag210
ag208
ag419
ag200
ag203
ag207
aS'77636749'
p689
ag204
ag198
asg43
I1000
sg45
g212
sg47
g190
sg49
I0
sg51
(iread_data
Room
p690
(dp691
g43
g54
sg45
g55
sbsba(ischedule
Activity
p692
(dp693
g8
(lp694
g453
ag14
ag71
ag34
ag584
asg43
S'10'
p695
sg45
g590
sg47
g121
sg49
g122
sg51
(iread_data
Room
p696
(dp697
g43
g226
sg45
g227
sbsba(ischedule
Activity
p698
(dp699
g8
(lp700
S'53267490'
p701
ag605
ag169
ag295
ag433
aS'72456780'
p702
aS'33930505'
p703
aS'8522855'
p704
aS'97136582'
p705
ag279
ag542
aS'85284256'
p706
aS'59887191'
p707
ag16
asg43
S'20'
p708
sg45
S'Netwerken en systeembeveiliging'
p709
sg47
g48
sg49
g520
sg51
(iread_data
Room
p710
(dp711
g43
g125
sg45
g126
sbsbaaa(lp712
(lp713
(ischedule
Activity
p714
(dp715
g8
g652
sg43
I1000
sg45
g321
sg47
g190
sg49
I0
sg51
(iread_data
Room
p716
(dp717
g43
g215
sg45
g216
sbsba(ischedule
Activity
p718
(dp719
g8
(lp720
g437
ag464
ag75
ag441
ag328
ag456
ag70
ag435
ag99
ag453
ag138
ag448
ag390
ag77
ag432
ag117
ag443
ag22
ag243
ag457
ag80
ag133
ag440
ag454
ag134
ag461
ag148
ag458
ag98
ag467
ag466
ag30
ag438
ag359
ag433
ag446
ag468
ag444
asg43
S'40'
p721
sg45
g469
sg47
g48
sg49
g89
sg51
(iread_data
Room
p722
(dp723
g43
g92
sg45
g93
sbsba(ischedule
Activity
p724
(dp725
g8
(lp726
g267
ag83
ag499
ag465
ag303
ag703
ag270
ag39
ag305
ag102
ag646
ag12
ag645
ag135
aS'66120270'
p727
ag497
ag198
ag436
ag360
ag503
ag505
ag63
aS'24613625'
p728
ag353
ag387
ag504
ag234
aS'28359697'
p729
ag502
ag450
ag342
ag256
ag11
ag506
ag19
ag500
ag345
ag498
ag412
ag157
ag501
ag137
ag98
ag294
ag515
asg43
I1000
sg45
g508
sg47
g190
sg49
I0
sg51
(iread_data
Room
p730
(dp731
g43
g193
sg45
g194
sbsba(ischedule
Activity
p732
(dp733
g8
(lp734
g183
ag372
ag150
ag688
ag346
ag373
ag419
ag689
asg43
g211
sg45
g212
sg47
g121
sg49
g89
sg51
(iread_data
Room
p735
(dp736
g43
g54
sg45
g55
sbsba(ischedule
Activity
p737
(dp738
g8
(lp739
g61
ag173
ag569
ag174
ag557
ag568
ag278
ag578
ag576
ag577
ag573
ag574
ag571
ag570
ag572
ag176
ag575
asg43
g119
sg45
g120
sg47
g121
sg49
g89
sg51
(iread_data
Room
p740
(dp741
g43
g164
sg45
g165
sbsba(ischedule
Activity
p742
(dp743
g8
(lp744
g273
asg43
g44
sg45
g46
sg47
g48
sg49
g122
sg51
(iread_data
Room
p745
(dp746
g43
g125
sg45
g126
sbsbaa(lp747
(ischedule
Activity
p748
(dp749
g8
(lp750
S'37498675'
p751
ag177
ag329
aS'72547110'
p752
ag36
ag380
ag201
aS'14398123'
p753
aS'82688900'
p754
ag288
ag70
ag658
aS'79858178'
p755
aS'94955328'
p756
ag544
ag203
aS'23391676'
p757
ag498
ag82
ag632
aS'63408522'
p758
aS'51186803'
p759
ag27
aS'69086548'
p760
aS'97371272'
p761
aS'7492204'
p762
aS'65003379'
p763
ag357
ag552
ag597
ag418
ag296
ag155
ag261
ag450
ag559
aS'47605891'
p764
aS'63955238'
p765
ag535
aS'39919665'
p766
ag689
ag452
ag273
ag358
ag636
ag111
ag464
ag22
ag704
aS'10872825'
p767
aS'17823206'
p768
ag626
ag497
aS'59075181'
p769
ag586
ag291
aS'91139627'
p770
ag39
aS'39659121'
p771
ag137
ag645
aS'34262212'
p772
ag455
aS'79366078'
p773
aS'44940353'
p774
aS'38329455'
p775
ag304
ag236
ag401
ag172
ag245
ag557
aS'51542218'
p776
ag538
ag220
aS'56988998'
p777
ag461
ag657
ag80
ag158
ag303
ag86
ag142
ag437
asg43
I1000
sg45
S'Kansrekenen 2'
p778
sg47
g190
sg49
I0
sg51
(iread_data
Room
p779
(dp780
g43
g215
sg45
g216
sbsba(ischedule
Activity
p781
(dp782
g8
(lp783
g19
ag655
ag361
ag603
ag20
ag63
ag354
ag402
ag151
ag654
ag186
ag653
ag284
ag475
ag439
ag10
ag132
asg43
g320
sg45
g321
sg47
g48
sg49
g122
sg51
(iread_data
Room
p784
(dp785
g43
g226
sg45
g227
sbsba(ischedule
Activity
p786
(dp787
g8
(lp788
g61
ag278
ag97
ag99
ag104
ag102
ag117
ag101
ag576
ag571
ag173
ag575
ag98
ag116
ag115
ag572
ag112
asg43
S'20'
p789
sg45
g120
sg47
g48
sg49
g122
sg51
(iread_data
Room
p790
(dp791
g43
g193
sg45
g194
sbsba(ischedule
Activity
p792
(dp793
g8
(lp794
g274
aS'25077484'
p795
aS'87602030'
p796
ag728
ag666
ag293
ag390
ag248
ag555
aS'88737765'
p797
ag403
ag59
ag338
ag316
aS'82066165'
p798
aS'5526560'
p799
aS'48678993'
p800
ag413
aS'66701209'
p801
asg43
S'15'
p802
sg45
S'Project Genetic Algorithms'
p803
sg47
g48
sg49
g50
sg51
(iread_data
Room
p804
(dp805
g43
g92
sg45
g93
sbsba(ischedule
Activity
p806
(dp807
g8
(lp808
g75
ag85
ag330
ag238
aS'44151631'
p809
aS'64418623'
p810
asg43
g423
sg45
g424
sg47
g48
sg49
g89
sg51
(iread_data
Room
p811
(dp812
g43
g125
sg45
g126
sbsba(ischedule
Activity
p813
(dp814
g8
(lp815
g337
ag150
ag527
ag30
ag131
asg43
g392
sg45
g393
sg47
g48
sg49
g122
sg51
(iread_data
Room
p816
(dp817
g43
g54
sg45
g55
sbsba(ischedule
Activity
p818
(dp819
g8
(lp820
g345
ag458
ag279
ag246
aS'88263855'
p821
ag14
aS'45414528'
p822
asg43
g222
sg45
g223
sg47
g48
sg49
S'5'
p823
sg51
(iread_data
Room
p824
(dp825
g43
g164
sg45
g165
sbsbaa(lp826
(ischedule
Activity
p827
(dp828
g8
(lp829
g25
ag613
aS'95007221'
p830
ag341
aS'79033175'
p831
ag303
ag16
ag330
ag20
ag603
ag236
ag544
ag336
ag13
ag602
ag607
ag610
ag611
ag31
ag515
ag596
ag102
ag179
ag600
ag154
aS'44391517'
p832
ag460
ag12
ag601
ag61
ag60
aS'43689934'
p833
ag605
ag604
ag29
ag185
ag309
ag328
ag728
ag407
ag21
ag248
ag539
ag598
aS'65852230'
p834
ag608
ag18
ag291
ag391
ag517
ag801
aS'34110913'
p835
ag182
ag448
ag599
ag606
ag609
ag28
ag388
ag307
ag280
ag519
ag538
ag290
ag612
ag72
ag208
ag597
ag380
asg43
I1000
sg45
g615
sg47
g190
sg49
I0
sg51
(iread_data
Room
p836
(dp837
g43
g215
sg45
g216
sbsba(ischedule
Activity
p838
(dp839
g8
(lp840
g81
ag140
ag66
ag77
ag186
ag518
ag381
ag569
ag84
ag76
ag63
ag74
aS'23652927'
p841
ag59
ag405
ag60
ag290
ag456
ag79
ag69
ag71
aS'91527663'
p842
ag85
ag158
ag75
ag68
ag82
ag73
ag64
ag65
ag86
ag118
ag704
ag72
ag67
ag205
aS'64554442'
p843
ag61
ag80
ag62
ag70
ag78
ag83
asg43
I1000
sg45
g88
sg47
g190
sg49
I0
sg51
(iread_data
Room
p844
(dp845
g43
g54
sg45
g55
sbsba(ischedule
Activity
p846
(dp847
g8
(lp848
g798
ag209
asg43
g423
sg45
g424
sg47
g48
sg49
g50
sg51
(iread_data
Room
p849
(dp850
g43
g125
sg45
g126
sbsba(ischedule
Activity
p851
(dp852
g8
(lp853
g447
ag504
ag19
aS'16912993'
p854
ag543
ag258
ag559
aS'26207525'
p855
asg43
g708
sg45
g709
sg47
g48
sg49
g122
sg51
(iread_data
Room
p856
(dp857
g43
g226
sg45
g227
sbsba(ischedule
Activity
p858
(dp859
g8
(lp860
g284
ag657
ag318
ag656
ag311
ag319
ag151
asg43
g479
sg45
g321
sg47
g121
sg49
g50
sg51
(iread_data
Room
p861
(dp862
g43
g92
sg45
g93
sbsbaa(lp863
(ischedule
Activity
p864
(dp865
g8
(lp866
g361
ag447
ag130
ag402
ag10
ag658
ag101
ag284
ag135
ag702
ag309
ag137
ag311
ag606
aS'59397895'
p867
ag540
ag32
ag551
ag547
ag776
ag799
ag502
ag634
aS'27123462'
p868
ag554
ag842
ag295
ag337
ag18
ag290
ag569
ag329
ag235
ag549
aS'83869542'
p869
aS'13132925'
p870
asg43
S'40'
p871
sg45
S'Databases 2'
p872
sg47
g121
sg49
g89
sg51
g661
sba(ischedule
Activity
p873
(dp874
g8
(lp875
g391
ag389
ag388
ag380
ag134
ag501
ag337
ag382
ag385
ag383
ag386
ag390
ag381
asg43
g528
sg45
g393
sg47
g121
sg49
g122
sg51
(iread_data
Room
p876
(dp877
g43
g226
sg45
g227
sbsba(ischedule
Activity
p878
(dp879
g8
(lp880
g60
ag150
aS'25557516'
p881
ag28
ag140
ag158
aS'56191333'
p882
ag769
ag319
aS'19058315'
p883
ag458
ag519
ag456
ag151
ag727
aS'12170832'
p884
ag310
ag24
ag597
ag399
aS'62736669'
p885
aS'4353500'
p886
ag109
aS'64246605'
p887
aS'123355'
p888
ag584
ag453
ag418
ag800
ag285
aS'5590289'
p889
ag350
ag461
ag201
ag34
ag239
aS'72586808'
p890
ag234
asg43
g708
sg45
g709
sg47
g48
sg49
g50
sg51
(iread_data
Room
p891
(dp892
g43
g92
sg45
g93
sbsba(ischedule
Activity
p893
(dp894
g8
(lp895
g85
ag63
ag585
ag133
ag588
ag139
ag633
ag269
ag131
asg43
g695
sg45
g590
sg47
g121
sg49
g50
sg51
(iread_data
Room
p896
(dp897
g43
g54
sg45
g55
sbsba(ischedule
Activity
p898
(dp899
g8
(lp900
S'88597745'
p901
ag256
ag372
aS'54395877'
p902
ag539
ag294
ag15
aS'34900967'
p903
ag675
aS'28943658'
p904
ag373
ag576
ag612
ag314
ag203
ag81
ag602
ag498
ag306
ag451
ag247
ag59
ag136
ag577
aS'64053722'
p905
ag573
ag442
ag29
ag79
aS'90296821'
p906
ag422
ag772
asg43
g222
sg45
g223
sg47
g48
sg49
S'6'
p907
sg51
(iread_data
Room
p908
(dp909
g43
g193
sg45
g194
sbsba(ischedule
Activity
p910
(dp911
g8
(lp912
g305
ag98
ag102
ag12
ag465
ag11
ag412
ag342
ag728
ag436
ag497
ag505
ag39
ag360
ag353
ag387
ag157
ag303
asg43
g647
sg45
g508
sg47
g48
sg49
g122
sg51
(iread_data
Room
p913
(dp914
g43
g125
sg45
g126
sbsba(ischedule
Activity
p915
(dp916
g8
g168
sg43
I1000
sg45
g189
sg47
g190
sg49
I0
sg51
(iread_data
Room
p917
(dp918
g43
g164
sg45
g165
sbsbaa(lp919
(ischedule
Activity
p920
(dp921
g8
g567
sg43
I1000
sg45
g120
sg47
g190
sg49
I0
sg51
g591
sba(ischedule
Activity
p922
(dp923
g8
(lp924
g464
aS'79937969'
p925
aS'54074680'
p926
ag547
ag586
ag180
ag497
ag246
ag221
ag27
aS'80998260'
p927
aS'90743504'
p928
aS'26172512'
p929
ag597
ag390
ag181
aS'32595335'
p930
ag441
ag247
ag317
ag155
ag314
ag635
aS'4921119'
p931
ag20
ag437
ag138
ag634
ag308
ag418
ag435
ag309
ag432
ag333
ag305
aS'16011419'
p932
ag60
ag556
ag156
ag506
ag756
ag274
ag25
ag574
aS'21311067'
p933
ag384
ag23
aS'66570705'
p934
aS'96118484'
p935
ag382
ag118
ag337
aS'34588570'
p936
ag389
asg43
I1000
sg45
S'Lineaire Algebra'
p937
sg47
g190
sg49
I0
sg51
(iread_data
Room
p938
(dp939
g43
g215
sg45
g216
sbsba(ischedule
Activity
p940
(dp941
g8
(lp942
g59
ag81
ag64
ag72
ag290
ag71
ag82
ag75
ag77
ag381
ag84
ag842
ag79
ag73
ag83
ag405
ag70
ag68
ag186
ag67
ag205
asg43
S'25'
p943
sg45
g88
sg47
g121
sg49
g89
sg51
(iread_data
Room
p944
(dp945
g43
g164
sg45
g165
sbsba(ischedule
Activity
p946
(dp947
g8
(lp948
g139
ag131
ag768
ag705
aS'93023961'
p949
ag262
asg43
g589
sg45
g590
sg47
g48
sg49
g50
sg51
(iread_data
Room
p950
(dp951
g43
g125
sg45
g126
sbsba(ischedule
Activity
p952
(dp953
g8
(lp954
g364
ag351
ag349
ag130
ag270
ag357
ag284
ag21
ag335
ag338
ag342
ag328
ag203
ag347
ag293
ag340
ag208
ag182
ag279
ag354
ag360
ag353
ag346
ag361
ag336
ag343
ag363
ag365
ag355
asg43
S'20'
p955
sg45
g366
sg47
g121
sg49
g89
sg51
(iread_data
Room
p956
(dp957
g43
g54
sg45
g55
sbsba(ischedule
Activity
p958
(dp959
g8
(lp960
g234
ag63
ag198
ag19
ag499
ag256
ag703
ag137
ag515
ag267
ag503
ag498
ag729
ag727
asg43
g647
sg45
g508
sg47
g48
sg49
g89
sg51
(iread_data
Room
p961
(dp962
g43
g226
sg45
g227
sbsba(ischedule
Activity
p963
(dp964
g8
(lp965
g431
ag436
ag439
ag12
ag447
ag316
ag462
ag465
ag132
ag85
ag174
ag412
ag11
ag13
ag387
ag451
ag282
ag463
ag460
ag287
ag170
ag36
ag434
ag442
ag65
ag157
ag380
ag445
ag62
ag459
ag450
ag455
ag344
ag76
ag449
ag280
ag452
asg43
g721
sg45
g469
sg47
g48
sg49
g122
sg51
(iread_data
Room
p966
(dp967
g43
g193
sg45
g194
sbsbaaa(lp968
(lp969
(ischedule
Activity
p970
(dp971
g8
(lp972
g180
aS'6709529'
p973
ag558
aS'19717077'
p974
ag541
ag434
ag351
ag498
ag315
ag113
ag210
aS'53139134'
p975
ag629
ag357
ag535
ag306
ag635
ag347
ag342
ag638
ag633
ag310
ag389
aS'11593163'
p976
ag546
ag349
ag506
aS'75623387'
p977
ag557
ag132
ag256
ag148
ag560
ag59
ag399
ag553
ag627
ag544
ag248
aS'23628642'
p978
ag536
ag796
ag538
ag241
ag550
ag182
ag514
aS'37279234'
p979
aS'72526473'
p980
ag636
ag537
ag543
ag345
ag465
ag77
ag32
ag275
ag631
ag559
ag319
ag81
ag18
ag539
ag556
ag626
ag220
ag634
ag540
ag463
ag440
ag240
aS'80188025'
p981
ag637
ag555
ag534
ag542
ag551
ag454
ag630
ag100
ag552
ag175
ag331
ag115
ag545
ag505
ag64
ag27
ag243
ag497
ag600
ag632
ag554
ag515
aS'77306636'
p982
ag359
ag135
aS'82412626'
p983
aS'79888156'
p984
ag381
ag84
ag628
ag548
ag547
ag549
ag136
asg43
I1000
sg45
g562
sg47
g190
sg49
I0
sg51
g661
sba(ischedule
Activity
p985
(dp986
g8
(lp987
g389
ag382
ag501
ag391
ag380
ag385
ag150
ag390
ag386
ag384
ag449
ag337
ag71
ag527
ag131
ag388
ag381
ag159
ag30
ag134
ag383
ag387
asg43
I1000
sg45
g393
sg47
g190
sg49
I0
sg51
(iread_data
Room
p988
(dp989
g43
g193
sg45
g194
sbsba(ischedule
Activity
p990
(dp991
g8
g254
sg43
I1000
sg45
g297
sg47
g190
sg49
I0
sg51
(iread_data
Room
p992
(dp993
g43
g92
sg45
g93
sbsba(ischedule
Activity
p994
(dp995
g8
(lp996
S'76487754'
p997
aS'70336464'
p998
ag328
ag208
ag270
ag760
aS'47982619'
p999
ag605
ag568
ag468
aS'93041523'
p1000
ag478
ag72
ag209
ag133
ag200
aS'92496780'
p1001
ag402
ag180
aS'77264363'
p1002
ag130
ag676
ag414
aS'4697362'
p1003
ag274
ag173
ag33
ag761
aS'21192048'
p1004
ag260
ag608
ag232
ag342
ag689
ag131
ag25
ag36
ag150
asg43
I1000
sg45
S'Technology for games'
p1005
sg47
g190
sg49
I0
sg51
(iread_data
Room
p1006
(dp1007
g43
g164
sg45
g165
sbsba(ischedule
Activity
p1008
(dp1009
g8
(lp1010
g455
asg43
g802
sg45
g803
sg47
g48
sg49
g122
sg51
(iread_data
Room
p1011
(dp1012
g43
g125
sg45
g126
sbsba(ischedule
Activity
p1013
(dp1014
g8
(lp1015
g569
ag61
ag60
ag118
ag63
ag85
ag80
ag62
ag841
ag65
ag158
ag518
ag76
ag78
ag843
ag69
ag74
ag66
ag456
ag86
ag704
ag140
asg43
g943
sg45
g88
sg47
g121
sg49
g122
sg51
(iread_data
Room
p1016
(dp1017
g43
g54
sg45
g55
sbsba(ischedule
Activity
p1018
(dp1019
g8
(lp1020
g334
asg43
g955
sg45
g366
sg47
g121
sg49
g122
sg51
(iread_data
Room
p1021
(dp1022
g43
g226
sg45
g227
sbsbaa(lp1023
(ischedule
Activity
p1024
(dp1025
g8
(lp1026
g678
ag68
ag141
ag234
ag99
ag39
ag389
aS'72652638'
p1027
ag676
ag291
ag221
ag516
ag315
ag311
ag560
ag869
ag278
ag34
ag71
ag679
ag677
aS'58736785'
p1028
ag680
ag97
ag175
ag286
ag674
ag800
ag796
ag65
ag675
ag220
asg43
I1000
sg45
g682
sg47
g190
sg49
I0
sg51
(iread_data
Room
p1029
(dp1030
g43
g92
sg45
g93
sbsba(ischedule
Activity
p1031
(dp1032
g8
(lp1033
g280
ag388
ag460
ag25
ag613
ag544
ag801
ag609
ag612
ag517
ag185
ag835
ag596
ag599
ag515
ag16
ag539
ag607
ag154
ag606
ag602
ag728
ag291
ag290
ag600
ag833
ag29
ag28
ag336
ag18
ag61
ag20
ag330
ag831
ag391
ag598
ag21
ag601
ag208
ag303
ag341
ag610
ag832
ag236
ag605
ag448
ag597
ag834
ag407
ag604
ag31
ag538
ag519
ag608
ag603
ag307
ag248
ag13
ag60
asg43
S'40'
p1034
sg45
g615
sg47
g48
sg49
g122
sg51
(iread_data
Room
p1035
(dp1036
g43
g215
sg45
g216
sbsba(ischedule
Activity
p1037
(dp1038
g8
(lp1039
g206
ag949
ag768
ag633
ag585
ag453
ag822
aS'68360259'
p1040
ag588
ag262
ag34
ag85
ag234
ag584
ag586
ag71
ag131
ag501
ag432
ag63
ag269
ag139
ag705
ag198
ag587
ag14
ag133
asg43
I1000
sg45
g590
sg47
g190
sg49
I0
sg51
(iread_data
Room
p1041
(dp1042
g43
g193
sg45
g194
sbsba(ischedule
Activity
p1043
(dp1044
g8
(lp1045
g12
ag380
ag102
ag179
ag830
ag309
ag72
ag328
ag182
ag611
asg43
g1034
sg45
g615
sg47
g48
sg49
g89
sg51
(iread_data
Room
p1046
(dp1047
g43
g226
sg45
g227
sbsba(ischedule
Activity
p1048
(dp1049
g8
(lp1050
g232
ag658
ag659
ag337
ag200
ag477
ag462
ag199
ag431
ag476
ag447
ag405
asg43
g320
sg45
g321
sg47
g48
sg49
g50
sg51
(iread_data
Room
p1051
(dp1052
g43
g164
sg45
g165
sbsba(ischedule
Activity
p1053
(dp1054
g8
(lp1055
g150
ag449
ag387
ag30
ag384
asg43
g528
sg45
g393
sg47
g121
sg49
g50
sg51
(iread_data
Room
p1056
(dp1057
g43
g125
sg45
g126
sbsba(ischedule
Activity
p1058
(dp1059
g8
(lp1060
g111
ag557
ag113
ag110
ag107
ag103
ag577
ag568
ag574
ag570
ag105
ag174
ag108
ag106
ag118
ag569
ag109
ag578
ag176
ag573
ag114
ag100
asg43
g789
sg45
g120
sg47
g48
sg49
g89
sg51
(iread_data
Room
p1061
(dp1062
g43
g54
sg45
g55
sbsbaa(lp1063
(ischedule
Activity
p1064
(dp1065
g8
g726
sg43
I1000
sg45
g508
sg47
g190
sg49
I0
sg51
(iread_data
Room
p1066
(dp1067
g43
g215
sg45
g216
sbsba(ischedule
Activity
p1068
(dp1069
g8
g996
sg43
I1000
sg45
g1005
sg47
g190
sg49
I0
sg51
(iread_data
Room
p1070
(dp1071
g43
g54
sg45
g55
sbsba(ischedule
Activity
p1072
(dp1073
g8
(lp1074
g132
ag20
ag439
ag97
ag314
ag603
ag316
ag659
ag447
ag13
ag653
ag312
ag85
ag308
ag199
ag81
ag309
ag361
ag334
ag462
ag405
ag337
asg43
g479
sg45
g321
sg47
g121
sg49
g520
sg51
(iread_data
Room
p1075
(dp1076
g43
g164
sg45
g165
sbsbaa(lp1077
(ischedule
Activity
p1078
(dp1079
g8
g750
sg43
I1000
sg45
g778
sg47
g190
sg49
I0
sg51
g661
sba(ischedule
Activity
p1080
(dp1081
g8
g687
sg43
I1000
sg45
g212
sg47
g190
sg49
I0
sg51
(iread_data
Room
p1082
(dp1083
g43
g193
sg45
g194
sbsba(ischedule
Activity
p1084
(dp1085
g8
(lp1086
g134
ag501
ag449
asg43
g392
sg45
g393
sg47
g48
sg49
g50
sg51
(iread_data
Room
p1087
(dp1088
g43
g226
sg45
g227
sbsba(ischedule
Activity
p1089
(dp1090
g8
(lp1091
g284
ag337
ag270
ag342
ag362
ag353
ag334
ag348
ag356
ag344
ag333
ag352
ag359
ag328
ag99
ag21
ag350
ag336
ag335
ag341
ag361
asg43
g485
sg45
g366
sg47
g48
sg49
g89
sg51
(iread_data
Room
p1092
(dp1093
g43
g54
sg45
g55
sbsba(ischedule
Activity
p1094
(dp1095
g8
(lp1096
g157
ag19
ag11
ag515
ag63
ag345
ag703
ag83
ag727
asg43
g507
sg45
g508
sg47
g121
sg49
g50
sg51
(iread_data
Room
p1097
(dp1098
g43
g125
sg45
g126
sbsba(ischedule
Activity
p1099
(dp1100
g8
(lp1101
g280
ag285
ag75
ag274
ag282
ag109
ag268
ag267
ag294
ag255
ag295
ag259
ag262
ag283
ag37
asg43
g491
sg45
g297
sg47
g121
sg49
g122
sg51
(iread_data
Room
p1102
(dp1103
g43
g92
sg45
g93
sbsba(ischedule
Activity
p1104
(dp1105
g8
(lp1106
g115
ag182
ag983
ag113
ag984
ag454
ag600
ag505
ag77
ag381
ag975
ag100
ag256
ag796
ag135
ag248
ag465
ag982
ag979
ag310
ag981
ag175
ag974
ag275
ag976
ag399
ag81
ag980
ag347
ag973
ag349
ag978
ag977
asg43
g561
sg45
g562
sg47
g121
sg49
g50
sg51
(iread_data
Room
p1107
(dp1108
g43
g164
sg45
g165
sbsbaa(lp1109
(ischedule
Activity
p1110
(dp1111
g8
(lp1112
g130
ag608
ag173
ag270
ag1002
ag150
ag133
ag998
ag760
ag1000
ag605
ag414
ag274
ag402
ag208
ag1003
asg43
S'20'
p1113
sg45
g1005
sg47
g121
sg49
g122
sg51
(iread_data
Room
p1114
(dp1115
g43
g54
sg45
g55
sbsba(ischedule
Activity
p1116
(dp1117
g8
(lp1118
g311
ag97
ag315
ag34
ag1028
ag516
ag286
ag869
ag796
ag221
ag800
ag234
ag1027
ag39
ag560
asg43
g681
sg45
g682
sg47
g121
sg49
g89
sg51
(iread_data
Room
p1119
(dp1120
g43
g164
sg45
g165
sbsba(ischedule
Activity
p1121
(dp1122
g8
g987
sg43
I1000
sg45
g393
sg47
g190
sg49
I0
sg51
(iread_data
Room
p1123
(dp1124
g43
g125
sg45
g126
sbsba(ischedule
Activity
p1125
(dp1126
g8
(lp1127
g674
ag176
ag502
ag169
ag295
ag104
aS'62613937'
p1128
ag351
ag178
ag645
ag82
ag136
ag285
aS'39429093'
p1129
ag399
ag115
ag607
ag232
asg43
g667
sg45
g668
sg47
g48
sg49
g122
sg51
(iread_data
Room
p1130
(dp1131
g43
g226
sg45
g227
sbsba(ischedule
Activity
p1132
(dp1133
g8
(lp1134
g85
ag133
ag458
ag432
ag447
ag437
ag157
ag287
ag462
ag435
ag282
ag457
ag359
ag412
ag76
ag12
ag138
ag466
ag463
ag459
ag440
ag132
ag444
ag448
ag451
asg43
S'40'
p1135
sg45
g469
sg47
g121
sg49
g89
sg51
(iread_data
Room
p1136
(dp1137
g43
g193
sg45
g194
sbsba(ischedule
Activity
p1138
(dp1139
g8
(lp1140
g63
ag832
ag446
ag137
ag768
ag706
ag478
ag309
ag762
ag259
aS'88519892'
p1141
aS'26857113'
p1142
aS'10702778'
p1143
ag290
aS'39905995'
p1144
ag86
ag147
ag453
ag544
ag979
ag455
ag931
ag609
ag551
aS'73196865'
p1145
ag401
ag271
ag999
ag636
ag757
ag549
ag339
ag84
ag477
ag28
ag756
aS'51791169'
p1146
ag364
ag205
ag559
ag257
aS'63096281'
p1147
asg43
g222
sg45
g223
sg47
g48
sg49
g122
sg51
g591
sba(ischedule
Activity
p1148
(dp1149
g8
(lp1150
g997
ag25
ag131
ag1004
ag232
ag342
ag1001
ag72
ag209
ag568
ag999
ag200
ag478
ag33
ag761
ag260
ag468
ag676
ag328
ag36
ag180
ag689
asg43
g1113
sg45
g1005
sg47
g121
sg49
g89
sg51
(iread_data
Room
p1151
(dp1152
g43
g215
sg45
g216
sbsbaaa(lp1153
(lp1154
(ischedule
Activity
p1155
(dp1156
g8
(lp1157
g449
ag606
ag130
aS'15187217'
p1158
ag402
ag140
ag555
ag32
ag266
ag337
ag235
ag502
ag931
aS'58083680'
p1159
ag868
ag353
ag114
ag361
ag447
ag137
ag658
aS'56121590'
p1160
ag882
ag855
ag870
ag795
ag295
ag179
ag637
ag64
ag776
ag549
aS'54540997'
p1161
ag702
ag135
ag518
ag498
ag329
ag186
ag867
aS'4529208'
p1162
ag554
ag500
ag311
ag391
ag569
ag634
ag23
ag221
ag10
ag799
ag842
ag388
ag203
ag18
ag101
ag173
ag540
ag284
ag309
ag373
ag420
ag257
ag551
ag338
ag305
ag290
ag339
ag547
ag71
ag885
ag869
asg43
I1000
sg45
g872
sg47
g190
sg49
I0
sg51
(iread_data
Room
p1163
(dp1164
g43
g215
sg45
g216
sbsba(ischedule
Activity
p1165
(dp1166
g8
(lp1167
g134
ag30
ag328
ag380
ag390
ag446
ag441
ag455
ag387
ag174
ag467
ag36
ag438
ag243
ag75
ag280
ag11
ag468
ag450
ag452
ag316
ag117
ag465
ag434
ag98
ag461
ag464
ag99
ag65
ag77
ag443
ag449
ag439
ag62
ag170
ag453
ag460
ag13
ag442
ag454
ag148
ag80
ag344
ag431
ag445
ag456
ag22
ag70
ag433
ag436
asg43
g1135
sg45
g469
sg47
g121
sg49
g122
sg51
(iread_data
Room
p1168
(dp1169
g43
g193
sg45
g194
sbsba(ischedule
Activity
p1170
(dp1171
g8
g1039
sg43
I1000
sg45
g590
sg47
g190
sg49
I0
sg51
(iread_data
Room
p1172
(dp1173
g43
g164
sg45
g165
sbsba(ischedule
Activity
p1174
(dp1175
g8
(lp1176
g177
ag184
ag200
ag202
ag105
ag886
ag334
ag372
ag497
ag351
aS'83443653'
p1177
ag653
ag1028
ag769
asg43
g160
sg45
g161
sg47
g121
sg49
g122
sg51
(iread_data
Room
p1178
(dp1179
g43
g54
sg45
g55
sbsba(ischedule
Activity
p1180
(dp1181
g8
(lp1182
g61
aS'21070547'
p1183
ag503
ag146
ag255
ag136
aS'34691309'
p1184
aS'90103047'
p1185
ag536
ag169
asg43
g44
sg45
g46
sg47
g48
sg49
g89
sg51
(iread_data
Room
p1186
(dp1187
g43
g125
sg45
g126
sbsbaa(lp1188
(ischedule
Activity
p1189
(dp1190
g8
(lp1191
g660
ag100
ag101
ag334
ag81
ag656
ag478
ag657
ag404
asg43
g320
sg45
g321
sg47
g48
sg49
g520
sg51
(iread_data
Room
p1192
(dp1193
g43
g125
sg45
g126
sbsba(ischedule
Activity
p1194
(dp1195
g8
g726
sg43
I1000
sg45
g508
sg47
g190
sg49
I0
sg51
(iread_data
Room
p1196
(dp1197
g43
g54
sg45
g55
sbsba(ischedule
Activity
p1198
(dp1199
g8
(lp1200
g360
ag455
ag1142
ag453
ag65
ag675
ag172
ag777
ag273
ag364
ag296
ag598
aS'33252501'
p1201
ag544
ag185
ag275
aS'90067329'
p1202
aS'67625383'
p1203
ag391
ag599
ag304
ag59
asg43
I1000
sg45
S'Machine Learning'
p1204
sg47
g190
sg49
I0
sg51
g661
sba(ischedule
Activity
p1205
(dp1206
g8
g924
sg43
I1000
sg45
g937
sg47
g190
sg49
I0
sg51
(iread_data
Room
p1207
(dp1208
g43
g92
sg45
g93
sbsba(ischedule
Activity
p1209
(dp1210
g8
(lp1211
g399
ag645
ag285
ag115
ag502
ag104
ag674
ag178
ag136
ag169
ag232
ag295
ag82
ag1129
ag176
ag351
ag607
ag551
ag666
ag1128
asg43
I1000
sg45
g668
sg47
g190
sg49
I0
sg51
(iread_data
Room
p1212
(dp1213
g43
g193
sg45
g194
sbsba(ischedule
Activity
p1214
(dp1215
g8
(lp1216
g346
ag208
ag203
ag200
ag202
ag209
ag206
ag419
ag150
ag207
ag204
ag205
ag689
ag688
asg43
g374
sg45
g212
sg47
g48
sg49
g89
sg51
(iread_data
Room
p1217
(dp1218
g43
g164
sg45
g165
sbsba(ischedule
Activity
p1219
(dp1220
g8
(lp1221
g655
ag245
ag753
ag175
ag280
ag421
ag258
aS'55480737'
p1222
ag307
ag558
ag409
ag704
ag344
aS'75680261'
p1223
ag570
ag631
asg43
g802
sg45
g803
sg47
g48
sg49
g89
sg51
(iread_data
Room
p1224
(dp1225
g43
g226
sg45
g227
sbsbaa(lp1226
(ischedule
Activity
p1227
(dp1228
g8
g829
sg43
I1000
sg45
g615
sg47
g190
sg49
I0
sg51
g661
sba(ischedule
Activity
p1229
(dp1230
g8
(lp1231
g186
ag1160
ag411
ag753
asg43
g708
sg45
g709
sg47
g48
sg49
g89
sg51
(iread_data
Room
p1232
(dp1233
g43
g226
sg45
g227
sbsba(ischedule
Activity
p1234
(dp1235
g8
(lp1236
g10
ag200
ag658
ag431
ag354
ag654
ag63
ag176
ag305
ag19
ag660
ag306
ag232
ag101
ag655
ag315
ag303
asg43
g479
sg45
g321
sg47
g121
sg49
g122
sg51
(iread_data
Room
p1237
(dp1238
g43
g164
sg45
g165
sbsba(ischedule
Activity
p1239
(dp1240
g8
(lp1241
g586
aS'73893840'
p1242
ag437
ag447
ag418
ag386
ag97
ag656
ag466
ag199
aS'7386961'
p1243
ag292
ag560
ag143
ag575
ag440
aS'12782624'
p1244
asg43
g222
sg45
g223
sg47
g48
sg49
g89
sg51
(iread_data
Room
p1245
(dp1246
g43
g125
sg45
g126
sbsbaa(lp1247
(ischedule
Activity
p1248
(dp1249
g8
g652
sg43
I1000
sg45
g321
sg47
g190
sg49
I0
sg51
g661
sba(ischedule
Activity
p1250
(dp1251
g8
(lp1252
g465
ag450
ag645
ag387
ag360
ag436
ag39
ag270
ag412
ag729
ag12
ag728
ag98
ag256
ag646
asg43
g507
sg45
g508
sg47
g121
sg49
g89
sg51
(iread_data
Room
p1253
(dp1254
g43
g54
sg45
g55
sbsba(ischedule
Activity
p1255
(dp1256
g8
(lp1257
g949
ag234
ag501
ag705
ag206
ag198
ag432
ag586
ag1040
ag262
ag587
ag768
ag822
asg43
g695
sg45
g590
sg47
g121
sg49
g89
sg51
(iread_data
Room
p1258
(dp1259
g43
g193
sg45
g194
sbsba(ischedule
Activity
p1260
(dp1261
g8
(lp1262
g137
ag149
ag146
ag200
ag497
ag130
ag372
ag142
ag886
ag141
ag144
ag177
ag653
ag131
ag156
ag153
ag184
ag138
ag159
ag151
ag1028
ag136
ag158
ag139
ag769
ag351
ag202
ag143
ag155
ag132
ag154
ag145
ag152
ag1177
ag105
ag148
ag135
ag147
ag140
ag157
ag133
ag334
ag134
ag150
asg43
I1000
sg45
g161
sg47
g190
sg49
I0
sg51
(iread_data
Room
p1263
(dp1264
g43
g92
sg45
g93
sbsba(ischedule
Activity
p1265
(dp1266
g8
(lp1267
g882
ag388
ag71
ag391
ag179
ag353
ag498
ag373
ag173
ag637
ag203
ag885
ag1162
ag186
ag1159
ag338
ag23
ag257
ag305
ag855
ag931
ag221
ag1158
ag339
ag140
ag500
ag420
ag1161
ag449
ag266
ag518
ag795
ag555
ag64
ag114
ag1160
asg43
g871
sg45
g872
sg47
g121
sg49
g122
sg51
(iread_data
Room
p1268
(dp1269
g43
g164
sg45
g165
sbsba(ischedule
Activity
p1270
(dp1271
g8
(lp1272
g62
ag347
ag345
ag349
ag174
ag271
ag357
ag332
asg43
g485
sg45
g366
sg47
g48
sg49
g50
sg51
(iread_data
Room
p1273
(dp1274
g43
g226
sg45
g227
sbsbaa(lp1275
(ischedule
Activity
p1276
(dp1277
g8
(lp1278
g102
ag61
ag291
ag539
ag538
ag515
ag307
ag18
ag834
ag835
ag380
ag544
ag830
ag328
ag16
ag448
ag460
ag801
ag28
ag832
ag13
ag303
ag833
ag728
ag831
asg43
g614
sg45
g615
sg47
g121
sg49
g89
sg51
(iread_data
Room
p1279
(dp1280
g43
g54
sg45
g55
sbsba(ischedule
Activity
p1281
(dp1282
g8
(lp1283
g596
ag797
ag201
ag556
ag981
ag134
aS'58480929'
p1284
ag292
aS'97838175'
p1285
ag457
ag274
ag258
ag464
ag776
ag597
aS'14637758'
p1286
ag338
ag260
ag1128
ag420
ag931
ag1177
ag142
aS'82854435'
p1287
ag890
ag282
ag278
ag268
ag702
ag627
ag389
ag646
aS'18477924'
p1288
ag503
ag148
aS'73350019'
p1289
ag549
ag351
ag311
ag463
ag903
aS'78822885'
p1290
ag658
ag638
ag342
ag432
ag756
ag800
ag172
asg43
I1000
sg45
S'Analysemethoden en -technieken'
p1291
sg47
g190
sg49
I0
sg51
(iread_data
Room
p1292
(dp1293
g43
g215
sg45
g216
sbsba(ischedule
Activity
p1294
(dp1295
g8
g231
sg43
I1000
sg45
g249
sg47
g190
sg49
I0
sg51
(iread_data
Room
p1296
(dp1297
g43
g164
sg45
g165
sbsba(ischedule
Activity
p1298
(dp1299
g8
(lp1300
g71
ag63
ag633
ag1040
ag14
ag822
ag269
asg43
g589
sg45
g590
sg47
g48
sg49
g89
sg51
(iread_data
Room
p1301
(dp1302
g43
g226
sg45
g227
sbsba(ischedule
Activity
p1303
(dp1304
g8
(lp1305
g337
ag64
ag359
ag62
ag200
ag174
ag99
ag329
ag330
ag331
ag333
ag271
ag350
ag344
ag345
ag348
ag332
ag352
ag339
ag341
ag327
ag356
ag358
ag362
asg43
g955
sg45
g366
sg47
g121
sg49
g50
sg51
(iread_data
Room
p1306
(dp1307
g43
g92
sg45
g93
sbsba(ischedule
Activity
p1308
(dp1309
g8
g1200
sg43
I1000
sg45
g1204
sg47
g190
sg49
I0
sg51
(iread_data
Room
p1310
(dp1311
g43
g125
sg45
g126
sbsba(ischedule
Activity
p1312
(dp1313
g8
(lp1314
g186
ag118
ag140
ag290
ag518
ag569
ag381
ag405
ag205
ag158
ag842
ag456
ag704
ag841
ag843
asg43
g87
sg45
g88
sg47
g48
sg49
g122
sg51
(iread_data
Room
p1315
(dp1316
g43
g193
sg45
g194
sbsbaaa(lp1317
(lp1318
a(lp1319
a(lp1320
a(lp1321
a(lp1322
aasS'timeslot_dict'
p1323
(dp1324
I0
S'9:00-11:00'
p1325
sI1
S'11:00-13:00'
p1326
sI2
S'13:00-15:00'
p1327
sI3
S'15:00-17:00'
p1328
sI4
S'17:00-19:00'
p1329
ssS'day_dict'
p1330
(dp1331
I0
S'Monday'
p1332
sI1
S'Tuesday'
p1333
sI2
S'Wednesday'
p1334
sI3
S'Thursday'
p1335
sI4
S'Friday'
p1336
ssb.