(ischedule
Schedule
p0
(dp1
S'timetable'
p2
(lp3
(lp4
(lp5
(ischedule
Activity
p6
(dp7
S'participants'
p8
(lp9
S'34243356'
p10
aS'11915563'
p11
aS'5368702'
p12
aS'72895450'
p13
aS'39459642'
p14
aS'53202517'
p15
aS'27187154'
p16
aS'10792879'
p17
aS'72796858'
p18
aS'76802764'
p19
aS'15911353'
p20
aS'94687383'
p21
aS'13284244'
p22
aS'77896638'
p23
aS'95631564'
p24
aS'5595824'
p25
aS'80135353'
p26
aS'65852230'
p27
aS'95007221'
p28
aS'81385263'
p29
aS'43689934'
p30
aS'58522654'
p31
aS'98105190'
p32
aS'66701209'
p33
aS'14309255'
p34
aS'8464817'
p35
aS'34872117'
p36
aS'2317551'
p37
aS'48503689'
p38
aS'24613625'
p39
asS'capacity'
p40
S'40'
p41
sS'name'
p42
S'Compilerbouw'
p43
sS'ttype'
p44
S'tutorials'
p45
sS'group_id'
p46
S'1'
p47
sS'room'
p48
(iread_data
Room
p49
(dp50
g40
S'60'
p51
sg42
S'C1.112'
p52
sbsba(ischedule
Activity
p53
(dp54
g8
(lp55
S'51566595'
p56
aS'52552718'
p57
aS'74131924'
p58
aS'62872965'
p59
aS'62356458'
p60
aS'44901052'
p61
aS'88627897'
p62
aS'19858730'
p63
aS'61611295'
p64
aS'5517869'
p65
aS'36508571'
p66
aS'34806836'
p67
asg40
S'10'
p68
sg42
S'Autonomous Agents 2'
p69
sg44
g45
sg46
S'3'
p70
sg48
(iread_data
Room
p71
(dp72
g40
S'22'
p73
sg42
S'A1.06'
p74
sbsba(ischedule
Activity
p75
(dp76
g8
(lp77
S'75585647'
p78
aS'8557857'
p79
asg40
S'15'
p80
sg42
S'Informatie- en organsatieontwerp'
p81
sg44
S'labs'
p82
sg46
g47
sg48
(iread_data
Room
p83
(dp84
g40
S'20'
p85
sg42
S'A1.08'
p86
sbsba(ischedule
Activity
p87
(dp88
g8
(lp89
S'60352393'
p90
aS'37399898'
p91
aS'77392404'
p92
aS'84524083'
p93
aS'3685034'
p94
aS'13658563'
p95
aS'37110913'
p96
aS'92778619'
p97
aS'78136904'
p98
aS'49922855'
p99
aS'99975346'
p100
aS'59753700'
p101
aS'86988337'
p102
aS'70844780'
p103
aS'87830198'
p104
aS'6913074'
p105
aS'90474003'
p106
aS'57086672'
p107
aS'27950803'
p108
aS'84449005'
p109
aS'33776961'
p110
aS'54569540'
p111
aS'51052738'
p112
aS'20239127'
p113
aS'22826928'
p114
aS'99453514'
p115
aS'77960666'
p116
aS'24277163'
p117
aS'20095994'
p118
aS'41578612'
p119
aS'36213792'
p120
aS'22871048'
p121
aS'82390428'
p122
aS'61518436'
p123
aS'13718298'
p124
aS'43680781'
p125
aS'68286356'
p126
aS'52715680'
p127
aS'36785409'
p128
aS'42406214'
p129
aS'27370083'
p130
aS'13092455'
p131
aS'51415617'
p132
aS'5298748'
p133
aS'32044893'
p134
aS'4709948'
p135
aS'96554914'
p136
aS'27805666'
p137
aS'70193386'
p138
aS'60661905'
p139
aS'38296757'
p140
asg40
I1000
sg42
S'Reflectie op de digitale cultuur'
p141
sg44
S'lectures'
p142
sg46
I0
sg48
(iread_data
Room
p143
(dp144
g40
S'56'
p145
sg42
S'A1.10'
p146
sbsba(ischedule
Activity
p147
(dp148
g8
(lp149
S'50184318'
p150
aS'75521763'
p151
aS'58699305'
p152
aS'59111489'
p153
aS'49219163'
p154
aS'51650744'
p155
aS'1181560'
p156
aS'77376714'
p157
aS'58592894'
p158
aS'36527838'
p159
aS'89180944'
p160
aS'83415514'
p161
ag117
aS'99283252'
p162
aS'78544592'
p163
aS'11741347'
p164
ag110
aS'78821918'
p165
aS'46570285'
p166
aS'13218321'
p167
aS'36748818'
p168
aS'70072978'
p169
aS'27916487'
p170
aS'18144425'
p171
aS'30658799'
p172
aS'11996292'
p173
aS'85335143'
p174
aS'75997788'
p175
aS'1766560'
p176
aS'17222374'
p177
aS'83266686'
p178
ag65
aS'66621166'
p179
aS'48198668'
p180
ag125
ag109
aS'58332004'
p181
aS'29526540'
p182
aS'47462856'
p183
ag34
aS'78243495'
p184
aS'41489515'
p185
aS'42171678'
p186
aS'49631542'
p187
aS'3883025'
p188
aS'13911001'
p189
ag135
aS'78443067'
p190
aS'27241113'
p191
aS'96082155'
p192
aS'63111000'
p193
aS'15051051'
p194
aS'64600457'
p195
aS'68315599'
p196
asg40
I1000
sg42
S'Moderne Databases'
p197
sg44
g142
sg46
I0
sg48
(iread_data
Room
p198
(dp199
g40
S'117'
p200
sg42
S'C0.110'
p201
sbsba(ischedule
Activity
p202
(dp203
g8
(lp204
S'4568018'
p205
aS'54026378'
p206
aS'7308727'
p207
aS'59544049'
p208
ag31
aS'247918'
p209
aS'22731474'
p210
aS'21964491'
p211
aS'96054456'
p212
aS'42196732'
p213
aS'20883994'
p214
aS'14591033'
p215
aS'56815156'
p216
aS'73236988'
p217
aS'14816774'
p218
aS'96453361'
p219
aS'70878567'
p220
aS'21029457'
p221
asg40
S'20'
p222
sg42
S'Bioinformatica'
p223
sg44
g45
sg46
g47
sg48
(iread_data
Room
p224
(dp225
g40
S'41'
p226
sg42
S'A1.04'
p227
sbsba(ischedule
Activity
p228
(dp229
g8
(lp230
S'88263855'
p231
aS'56749879'
p232
aS'46701583'
p233
aS'9332762'
p234
aS'38499176'
p235
aS'29640619'
p236
aS'34262212'
p237
aS'20618153'
p238
aS'62105897'
p239
aS'31416266'
p240
aS'88597745'
p241
aS'51791169'
p242
aS'91196968'
p243
aS'23658570'
p244
aS'17823206'
p245
aS'22288615'
p246
aS'54772132'
p247
aS'39905995'
p248
aS'94955328'
p249
asg40
S'20'
p250
sg42
S'Programmeren in Java 2'
p251
sg44
g82
sg46
g70
sg48
(iread_data
Room
p252
(dp253
g40
S'48'
p254
sg42
S'B0.201'
p255
sbsbaa(lp256
(ischedule
Activity
p257
(dp258
g8
(lp259
S'41153310'
p260
ag34
aS'58074656'
p261
ag127
aS'48601268'
p262
aS'84110134'
p263
aS'52311353'
p264
aS'89338938'
p265
aS'94467156'
p266
aS'60312776'
p267
aS'68409833'
p268
ag108
aS'41527759'
p269
ag124
aS'70015932'
p270
aS'88176729'
p271
ag190
aS'11068043'
p272
ag205
aS'58565406'
p273
ag136
aS'26260141'
p274
aS'21095566'
p275
aS'61060652'
p276
aS'80709893'
p277
aS'73302736'
p278
aS'3233378'
p279
aS'40343779'
p280
aS'25106480'
p281
ag236
aS'22323043'
p282
ag184
ag208
ag121
aS'5976174'
p283
aS'28357474'
p284
ag217
aS'48357272'
p285
aS'55474917'
p286
ag157
aS'37830626'
p287
aS'4783858'
p288
aS'31247305'
p289
aS'37744525'
p290
ag11
ag24
aS'4546613'
p291
aS'50143947'
p292
ag239
ag57
aS'65408517'
p293
aS'83210352'
p294
aS'89985072'
p295
ag60
aS'14671406'
p296
aS'44868097'
p297
aS'31633723'
p298
aS'9287708'
p299
aS'14072826'
p300
aS'44671041'
p301
aS'3727435'
p302
aS'75599734'
p303
ag206
aS'31103066'
p304
aS'45915482'
p305
ag160
aS'42115591'
p306
aS'1048485'
p307
aS'51593625'
p308
aS'43460038'
p309
aS'82872148'
p310
aS'65318664'
p311
aS'27582862'
p312
aS'33877725'
p313
ag162
asg40
I1000
sg42
S'Software engineering'
p314
sg44
g142
sg46
I0
sg48
(iread_data
Room
p315
(dp316
g40
g200
sg42
g201
sbsba(ischedule
Activity
p317
(dp318
g8
(lp319
S'5615125'
p320
ag215
aS'64228258'
p321
aS'74182182'
p322
ag218
aS'28957789'
p323
aS'86180471'
p324
ag152
aS'75446434'
p325
aS'9731271'
p326
ag17
aS'47477884'
p327
aS'6723948'
p328
aS'82412626'
p329
ag244
aS'56872729'
p330
aS'37279234'
p331
aS'53585410'
p332
aS'79888156'
p333
aS'87900893'
p334
ag140
ag233
ag163
aS'23565001'
p335
aS'77306636'
p336
aS'11593163'
p337
aS'58253841'
p338
aS'6939933'
p339
aS'10609762'
p340
aS'87602030'
p341
ag158
aS'58040377'
p342
aS'34173695'
p343
aS'97135019'
p344
ag195
ag166
ag16
aS'27064249'
p345
aS'33672995'
p346
aS'31306819'
p347
ag78
aS'56544130'
p348
asg40
S'40'
p349
sg42
S'Calculus 2'
p350
sg44
g45
sg46
S'2'
p351
sg48
(iread_data
Room
p352
(dp353
g40
g51
sg42
g52
sbsba(ischedule
Activity
p354
(dp355
g8
(lp356
g15
ag133
ag58
aS'30050930'
p357
ag125
ag182
asg40
g222
sg42
g223
sg44
g45
sg46
g351
sg48
(iread_data
Room
p358
(dp359
g40
g85
sg42
g86
sbsba(ischedule
Activity
p360
(dp361
g8
(lp362
S'14847953'
p363
aS'37701751'
p364
aS'2550487'
p365
ag291
aS'38179241'
p366
aS'44828429'
p367
aS'81200278'
p368
aS'81155296'
p369
aS'3707829'
p370
aS'19214659'
p371
aS'76924297'
p372
aS'64768422'
p373
aS'28055464'
p374
aS'34765676'
p375
aS'65675896'
p376
ag12
aS'21677389'
p377
aS'76661016'
p378
aS'69634191'
p379
aS'66034145'
p380
aS'93566383'
p381
ag29
aS'23547619'
p382
ag91
aS'20374340'
p383
asg40
I1000
sg42
S'Interactie-ontwerp'
p384
sg44
g142
sg46
I0
sg48
(iread_data
Room
p385
(dp386
g40
g145
sg42
g146
sbsba(ischedule
Activity
p387
(dp388
g8
(lp389
g95
aS'94930277'
p390
ag151
ag61
aS'92977271'
p391
aS'86807027'
p392
ag175
aS'53107172'
p393
aS'31897288'
p394
ag186
aS'71839156'
p395
aS'53775014'
p396
aS'1696500'
p397
aS'81218347'
p398
aS'14138904'
p399
aS'20830477'
p400
aS'36903574'
p401
aS'76393508'
p402
aS'87210640'
p403
aS'59075181'
p404
ag63
aS'4353500'
p405
aS'97019450'
p406
ag232
aS'83443653'
p407
asg40
S'25'
p408
sg42
S'Heuristieken 1'
p409
sg44
g45
sg46
g47
sg48
(iread_data
Room
p410
(dp411
g40
g254
sg42
g255
sbsba(ischedule
Activity
p412
(dp413
g8
(lp414
g31
ag240
aS'29474737'
p415
aS'45556081'
p416
aS'86291592'
p417
ag207
aS'33760909'
p418
aS'61443567'
p419
ag23
aS'65960683'
p420
aS'35330349'
p421
aS'86000192'
p422
aS'26406342'
p423
aS'34773179'
p424
ag150
aS'72577292'
p425
ag117
ag177
aS'37770881'
p426
aS'1075391'
p427
aS'73980360'
p428
aS'76123484'
p429
ag131
asg40
S'20'
p430
sg42
S'Collectieve Intelligentie'
p431
sg44
g45
sg46
g47
sg48
(iread_data
Room
p432
(dp433
g40
g226
sg42
g227
sbsbaa(lp434
(ischedule
Activity
p435
(dp436
g8
(lp437
g205
ag328
ag58
ag215
ag133
ag295
aS'33930505'
p438
ag211
ag39
ag207
ag214
ag105
ag218
ag297
aS'3168419'
p439
ag357
aS'66120270'
p440
ag216
ag220
ag208
ag206
ag31
aS'28359697'
p441
ag313
ag212
ag125
ag182
ag219
ag210
aS'77831658'
p442
ag232
ag114
ag213
ag174
ag194
ag272
ag195
aS'79617364'
p443
ag368
ag271
ag217
aS'30195935'
p444
ag15
ag221
ag209
asg40
I1000
sg42
g223
sg44
g142
sg46
I0
sg48
(iread_data
Room
p445
(dp446
g40
g200
sg42
g201
sbsba(ischedule
Activity
p447
(dp448
g8
(lp449
g127
aS'88596522'
p450
ag98
aS'64554442'
p451
ag211
ag233
aS'67817269'
p452
ag370
aS'23983476'
p453
ag274
ag367
ag375
aS'27298319'
p454
aS'15902055'
p455
aS'66433883'
p456
aS'1665980'
p457
aS'19540225'
p458
ag401
ag29
aS'43902015'
p459
ag219
ag157
ag102
aS'12077419'
p460
aS'82689818'
p461
aS'57467488'
p462
aS'41585485'
p463
aS'23652927'
p464
ag296
ag275
ag292
aS'8522855'
p465
ag280
aS'91527663'
p466
ag332
aS'51509565'
p467
ag56
ag158
ag13
ag283
aS'64947290'
p468
asg40
S'25'
p469
sg42
S'Algoritmen en complexiteit'
p470
sg44
g82
sg46
g47
sg48
(iread_data
Room
p471
(dp472
g40
g254
sg42
g255
sbsba(ischedule
Activity
p473
(dp474
g8
(lp475
g110
ag153
ag161
ag177
ag187
ag150
ag183
ag193
ag166
ag169
ag160
ag156
ag152
ag191
ag165
ag186
ag185
ag188
ag170
asg40
S'20'
p476
sg42
g197
sg44
g82
sg46
g351
sg48
(iread_data
Room
p477
(dp478
g40
g145
sg42
g146
sbsba(ischedule
Activity
p479
(dp480
g8
(lp481
g93
asg40
S'20'
p482
sg42
g141
sg44
g45
sg46
g70
sg48
(iread_data
Room
p483
(dp484
g40
g85
sg42
g86
sbsba(ischedule
Activity
p485
(dp486
g8
(lp487
g135
ag342
ag97
aS'15249775'
p488
ag392
ag331
ag307
aS'85284256'
p489
aS'73196865'
p490
aS'99272880'
p491
aS'10698627'
p492
aS'44391517'
p493
aS'28943658'
p494
asg40
g250
sg42
g251
sg44
g82
sg46
g351
sg48
(iread_data
Room
p495
(dp496
g40
g73
sg42
g74
sbsba(ischedule
Activity
p497
(dp498
g8
(lp499
S'75664412'
p500
aS'69086548'
p501
ag234
aS'21192048'
p502
aS'4697362'
p503
aS'77636749'
p504
aS'97371272'
p505
aS'77264363'
p506
ag173
ag119
ag128
aS'12430748'
p507
ag125
ag174
ag61
aS'47982619'
p508
ag282
aS'93041523'
p509
ag34
ag273
ag460
aS'40434933'
p510
aS'32204977'
p511
aS'7106649'
p512
aS'48308205'
p513
aS'6249823'
p514
ag382
ag265
aS'70336464'
p515
ag96
aS'92496780'
p516
aS'10149535'
p517
ag423
ag151
aS'76487754'
p518
aS'14383795'
p519
ag196
aS'31194811'
p520
asg40
I1000
sg42
S'Technology for games'
p521
sg44
g142
sg46
I0
sg48
(iread_data
Room
p522
(dp523
g40
g51
sg42
g52
sbsbaa(lp524
(ischedule
Activity
p525
(dp526
g8
(lp527
g455
ag211
ag382
ag426
ag234
ag416
ag117
ag23
ag279
ag417
ag177
aS'42778953'
p528
ag457
aS'13534377'
p529
aS'64393888'
p530
asg40
S'20'
p531
sg42
g431
sg44
g82
sg46
g47
sg48
(iread_data
Room
p532
(dp533
g40
g145
sg42
g146
sbsba(ischedule
Activity
p534
(dp535
g8
(lp536
S'62701040'
p537
aS'18266644'
p538
ag78
ag61
ag220
aS'17496687'
p539
ag79
ag95
aS'23257088'
p540
ag168
ag196
ag504
ag511
ag181
aS'13116738'
p541
ag151
aS'19958553'
p542
ag453
ag391
aS'11459236'
p543
aS'29718115'
p544
asg40
I1000
sg42
g81
sg44
g142
sg46
I0
sg48
(iread_data
Room
p545
(dp546
g40
g254
sg42
g255
sbsba(ischedule
Activity
p547
(dp548
g8
(lp549
g206
ag18
ag56
ag58
ag60
ag65
ag62
ag96
asg40
S'10'
p550
sg42
g69
sg44
g82
sg46
g351
sg48
(iread_data
Room
p551
(dp552
g40
g85
sg42
g86
sbsba(ischedule
Activity
p553
(dp554
g8
(lp555
S'3474870'
p556
ag510
aS'16333449'
p557
ag15
ag514
ag321
ag184
ag309
aS'17092717'
p558
aS'1137946'
p559
ag492
ag13
ag313
ag160
aS'28358060'
p560
ag246
ag238
asg40
S'20'
p561
sg42
S'Webprogrammeren en databases'
p562
sg44
g45
sg46
g47
sg48
(iread_data
Room
p563
(dp564
g40
g73
sg42
g74
sbsba(ischedule
Activity
p565
(dp566
g8
(lp567
g419
ag461
aS'57595888'
p568
ag425
ag427
ag418
ag292
ag262
ag423
aS'54310617'
p569
asg40
g531
sg42
g431
sg44
g82
sg46
S'4'
p570
sg48
(iread_data
Room
p571
(dp572
g40
g200
sg42
g201
sbsba(ischedule
Activity
p573
(dp574
g8
(lp575
S'2079771'
p576
ag290
aS'67625383'
p577
ag140
ag16
ag14
ag194
aS'26857113'
p578
ag233
aS'23798155'
p579
ag123
aS'56988998'
p580
aS'49683101'
p581
aS'33252501'
p582
aS'40791377'
p583
aS'90067329'
p584
aS'77240949'
p585
ag283
ag94
ag193
aS'85236626'
p586
ag266
asg40
I1000
sg42
S'Machine Learning'
p587
sg44
g142
sg46
I0
sg48
(iread_data
Room
p588
(dp589
g40
g226
sg42
g227
sbsba(ischedule
Activity
p590
(dp591
g8
(lp592
g372
ag165
ag338
ag378
ag162
ag39
ag109
ag465
aS'27925117'
p593
aS'14398123'
p594
aS'69459473'
p595
ag108
aS'40633534'
p596
aS'82066165'
p597
ag281
aS'5526560'
p598
ag341
ag104
ag33
aS'25994016'
p599
aS'25077484'
p600
aS'41644639'
p601
ag119
ag324
aS'74361881'
p602
aS'55480737'
p603
aS'51673172'
p604
aS'48678993'
p605
asg40
S'15'
p606
sg42
S'Project Genetic Algorithms'
p607
sg44
g82
sg46
g47
sg48
(iread_data
Room
p608
(dp609
g40
g51
sg42
g52
sbsbaa(lp610
(ischedule
Activity
p611
(dp612
g8
(lp613
g157
ag233
ag211
ag460
ag453
ag269
ag468
ag451
ag98
ag452
ag466
ag455
ag280
ag465
ag450
ag219
ag457
ag13
ag367
ag102
ag462
ag454
ag332
ag375
ag283
ag401
ag275
ag29
ag370
ag274
ag458
ag296
ag461
ag464
ag456
ag292
ag127
ag56
ag467
ag459
ag463
ag556
ag158
asg40
I1000
sg42
g470
sg44
g142
sg46
I0
sg48
(iread_data
Room
p614
(dp615
g40
g145
sg42
g146
sbsba(ischedule
Activity
p616
(dp617
g8
g437
sg40
I1000
sg42
g223
sg44
g142
sg46
I0
sg48
(iread_data
Room
p618
(dp619
g40
g200
sg42
g201
sbsba(ischedule
Activity
p620
(dp621
g8
(lp622
g344
ag31
aS'17575088'
p623
ag213
ag585
ag284
ag537
aS'46052388'
p624
ag65
ag267
ag281
ag240
aS'51741554'
p625
ag131
aS'87758823'
p626
aS'64296965'
p627
ag186
ag236
ag420
aS'43027916'
p628
ag429
ag415
ag428
ag321
ag424
ag421
ag288
aS'68601184'
p629
ag150
aS'22699561'
p630
ag397
ag393
asg40
g531
sg42
g431
sg44
g82
sg46
g70
sg48
(iread_data
Room
p631
(dp632
g40
g226
sg42
g227
sbsba(ischedule
Activity
p633
(dp634
g8
g499
sg40
I1000
sg42
g521
sg44
g142
sg46
I0
sg48
(iread_data
Room
p635
(dp636
g40
g51
sg42
g52
sbsba(ischedule
Activity
p637
(dp638
g8
(lp639
g181
ag164
ag185
ag109
ag178
ag192
asg40
S'20'
p640
sg42
g197
sg44
g45
sg46
g70
sg48
(iread_data
Room
p641
(dp642
g40
g254
sg42
g255
sbsba(ischedule
Activity
p643
(dp644
g8
(lp645
g175
ag392
ag345
ag327
aS'72665524'
p646
aS'28618400'
p647
aS'1886996'
p648
aS'39429093'
p649
ag103
ag425
aS'72683344'
p650
ag363
aS'92665222'
p651
asg40
S'10'
p652
sg42
S'Advanced Heuristics'
p653
sg44
g82
sg46
g47
sg48
(iread_data
Room
p654
(dp655
g40
g85
sg42
g86
sbsba(ischedule
Activity
p656
(dp657
g8
(lp658
S'97136582'
p659
ag290
ag541
aS'98780382'
p660
aS'87314964'
p661
asg40
S'10'
p662
sg42
S'Data Mining'
p663
sg44
g45
sg46
g70
sg48
(iread_data
Room
p664
(dp665
g40
g73
sg42
g74
sbsbaaa(lp666
(lp667
(ischedule
Activity
p668
(dp669
g8
(lp670
g648
ag342
ag593
aS'81022997'
p671
ag368
ag107
ag184
aS'83869542'
p672
aS'82968410'
p673
aS'670011'
p674
ag394
aS'5739011'
p675
ag628
aS'52304977'
p676
ag93
aS'63634350'
p677
aS'58736785'
p678
ag341
ag100
ag283
ag605
ag512
ag375
ag586
ag210
aS'72652638'
p679
aS'35315956'
p680
ag56
aS'16097870'
p681
ag419
ag418
ag488
asg40
I1000
sg42
S'Heuristieken 2'
p682
sg44
g142
sg46
I0
sg48
(iread_data
Room
p683
(dp684
g40
g226
sg42
g227
sbsba(ischedule
Activity
p685
(dp686
g8
(lp687
g267
ag272
ag236
ag284
ag288
ag160
ag309
ag206
ag271
ag281
ag270
ag279
ag262
ag295
ag217
ag60
ag127
ag108
ag263
ag301
ag239
ag313
ag34
ag205
ag162
ag124
ag299
ag292
ag269
ag265
ag305
ag293
ag208
ag24
ag297
ag285
ag298
ag190
ag304
ag261
ag311
ag296
ag286
ag289
ag274
ag268
ag287
ag308
ag157
ag310
ag276
ag260
ag300
ag307
ag275
asg40
S'40'
p688
sg42
g314
sg44
g82
sg46
g351
sg48
(iread_data
Room
p689
(dp690
g40
g200
sg42
g201
sbsba(ischedule
Activity
p691
(dp692
g8
(lp693
S'4921119'
p694
ag330
ag423
aS'75005528'
p695
ag213
ag18
ag23
ag540
aS'94686490'
p696
aS'46989508'
p697
ag181
ag65
aS'88752563'
p698
ag510
ag177
ag327
ag429
aS'13132925'
p699
aS'26207525'
p700
ag169
aS'56191333'
p701
ag102
ag165
aS'56121590'
p702
ag131
ag627
ag558
ag466
ag36
aS'72456780'
p703
ag461
ag212
ag232
ag57
aS'47932106'
p704
ag598
aS'4529208'
p705
aS'59397895'
p706
ag364
ag324
ag158
ag244
ag209
aS'73823548'
p707
ag439
aS'15187217'
p708
aS'58083680'
p709
ag90
ag116
ag459
aS'51542218'
p710
ag106
ag468
aS'5085194'
p711
ag182
ag600
asg40
S'40'
p712
sg42
S'Databases 2'
p713
sg44
g45
sg46
g351
sg48
(iread_data
Room
p714
(dp715
g40
g145
sg42
g146
sbsba(ischedule
Activity
p716
(dp717
g8
(lp718
g661
ag243
ag96
ag56
ag58
aS'45414528'
p719
aS'93023961'
p720
aS'68360259'
p721
ag101
aS'25330192'
p722
ag282
ag659
ag292
ag541
ag115
ag245
aS'66122625'
p723
ag220
ag334
ag671
ag264
ag290
ag211
aS'19337738'
p724
ag660
ag368
aS'13996448'
p725
asg40
I1000
sg42
g663
sg44
g142
sg46
I0
sg48
(iread_data
Room
p726
(dp727
g40
g51
sg42
g52
sbsba(ischedule
Activity
p728
(dp729
g8
g575
sg40
I1000
sg42
g587
sg44
g142
sg46
I0
sg48
(iread_data
Room
p730
(dp731
g40
g73
sg42
g74
sbsba(ischedule
Activity
p732
(dp733
g8
(lp734
g13
ag15
aS'14303208'
p735
ag246
ag514
ag363
aS'39230359'
p736
aS'76903244'
p737
ag390
ag557
aS'2416751'
p738
aS'41790793'
p739
aS'24891081'
p740
ag492
ag425
ag345
ag595
ag380
aS'76648468'
p741
asg40
S'20'
p742
sg42
g562
sg44
g82
sg46
g47
sg48
(iread_data
Room
p743
(dp744
g40
g85
sg42
g86
sbsba(ischedule
Activity
p745
(dp746
g8
(lp747
g121
ag11
ag454
asg40
g68
sg42
g69
sg44
g45
sg46
g351
sg48
(iread_data
Room
p748
(dp749
g40
g254
sg42
g255
sbsbaa(lp750
(ischedule
Activity
p751
(dp752
g8
(lp753
g651
ag93
ag417
ag18
ag37
ag35
ag10
aS'34110913'
p754
ag108
ag576
ag19
ag460
ag11
ag500
ag102
aS'9067939'
p755
ag30
aS'79167252'
p756
ag12
ag303
ag25
ag528
ag13
ag15
ag426
ag328
ag697
ag20
ag267
ag698
ag24
ag247
ag172
aS'88855695'
p757
ag28
ag26
ag178
ag23
ag21
ag32
ag34
ag217
aS'7957843'
p758
ag378
ag176
ag27
ag164
ag520
ag39
ag513
ag33
ag581
ag14
ag583
ag16
ag493
ag38
ag420
ag29
aS'88636924'
p759
ag22
ag189
aS'75759231'
p760
ag31
ag17
ag196
ag36
aS'3407554'
p761
aS'79033175'
p762
asg40
I1000
sg42
g43
sg44
g142
sg46
I0
sg48
(iread_data
Room
p763
(dp764
g40
g200
sg42
g201
sbsba(ischedule
Activity
p765
(dp766
g8
(lp767
g151
ag422
aS'96104167'
p768
ag207
asg40
g531
sg42
g431
sg44
g82
sg46
g351
sg48
(iread_data
Room
p769
(dp770
g40
g73
sg42
g74
sbsba(ischedule
Activity
p771
(dp772
g8
(lp773
g457
ag283
ag455
ag292
ag461
ag280
ag158
ag375
ag211
ag269
ag453
ag275
ag556
ag157
ag467
asg40
S'25'
p774
sg42
g470
sg44
g45
sg46
g47
sg48
(iread_data
Room
p775
(dp776
g40
g226
sg42
g227
sbsba(ischedule
Activity
p777
(dp778
g8
(lp779
g596
ag382
ag425
aS'62613937'
p780
ag103
ag214
ag648
ag650
ag327
ag345
ag90
ag98
ag175
ag363
ag649
ag647
ag651
ag439
ag392
ag646
asg40
I1000
sg42
g653
sg44
g142
sg46
I0
sg48
(iread_data
Room
p781
(dp782
g40
g145
sg42
g146
sbsba(ischedule
Activity
p783
(dp784
g8
(lp785
g579
ag216
ag119
aS'97838175'
p786
ag306
ag121
ag175
ag124
ag278
ag407
aS'34900967'
p787
ag138
ag311
ag285
ag694
ag25
ag538
ag627
ag128
aS'80188025'
p788
ag442
aS'82854435'
p789
ag703
ag139
aS'88737765'
p790
aS'58480929'
p791
ag628
ag406
aS'72586808'
p792
ag174
ag249
ag346
ag681
ag335
ag104
ag244
ag165
ag107
aS'14637758'
p793
ag711
ag605
ag10
aS'78822885'
p794
ag348
ag264
ag710
aS'18477924'
p795
aS'73350019'
p796
ag780
asg40
I1000
sg42
S'Analysemethoden en -technieken'
p797
sg44
g142
sg46
I0
sg48
(iread_data
Room
p798
(dp799
g40
g51
sg42
g52
sbsba(ischedule
Activity
p800
(dp801
g8
g718
sg40
I1000
sg42
g663
sg44
g142
sg46
I0
sg48
(iread_data
Room
p802
(dp803
g40
g254
sg42
g255
sbsba(ischedule
Activity
p804
(dp805
g8
(lp806
g321
asg40
g430
sg42
g431
sg44
g45
sg46
g570
sg48
(iread_data
Room
p807
(dp808
g40
g85
sg42
g86
sbsbaa(lp809
(ischedule
Activity
p810
(dp811
g8
(lp812
g418
ag626
ag117
ag428
ag419
ag455
ag397
ag150
ag284
ag211
ag415
ag279
ag425
ag461
ag768
ag585
ag426
ag177
ag457
ag236
ag420
ag569
ag267
ag624
ag424
ag131
ag281
ag528
ag207
ag630
ag344
ag627
ag262
ag530
ag417
ag321
ag151
ag423
ag416
ag421
ag65
ag234
ag629
ag288
ag31
ag427
ag186
ag292
ag393
ag623
ag628
ag422
ag568
ag625
ag529
ag537
ag240
ag429
ag23
ag213
ag382
asg40
I1000
sg42
g431
sg44
g142
sg46
I0
sg48
g198
sba(ischedule
Activity
p813
(dp814
g8
(lp815
g110
ag102
ag114
ag138
ag119
ag111
ag130
ag116
ag99
ag128
ag103
ag120
ag97
ag124
ag137
ag95
ag104
ag91
asg40
g482
sg42
g141
sg44
g45
sg46
g47
sg48
(iread_data
Room
p816
(dp817
g40
g85
sg42
g86
sbsba(ischedule
Activity
p818
(dp819
g8
(lp820
g136
ag127
ag108
ag307
ag290
ag160
ag184
ag311
ag297
ag291
ag309
ag269
ag157
ag300
ag305
ag283
ag271
ag312
ag121
ag277
ag285
ag306
ag266
ag268
ag57
ag208
ag286
ag273
ag289
ag24
ag11
ag301
ag293
ag287
ag303
ag304
asg40
S'40'
p821
sg42
g314
sg44
g45
sg46
g47
sg48
(iread_data
Room
p822
(dp823
g40
g226
sg42
g227
sbsbaa(lp824
(ischedule
Activity
p825
(dp826
g8
g437
sg40
I1000
sg42
g223
sg44
g142
sg46
I0
sg48
(iread_data
Room
p827
(dp828
g40
g145
sg42
g146
sbsba(ischedule
Activity
p829
(dp830
g8
(lp831
g292
ag659
ag721
ag245
ag722
asg40
S'10'
p832
sg42
g663
sg44
g82
sg46
g47
sg48
(iread_data
Room
p833
(dp834
g40
g254
sg42
g255
sbsba(ischedule
Activity
p835
(dp836
g8
(lp837
g14
ag61
ag57
ag11
ag64
ag63
asg40
g550
sg42
g69
sg44
g82
sg46
g70
sg48
(iread_data
Room
p838
(dp839
g40
g73
sg42
g74
sbsba(ischedule
Activity
p840
(dp841
g8
(lp842
g381
ag398
ag395
aS'80998260'
p843
ag626
ag213
aS'32595335'
p844
ag695
ag235
aS'34588570'
p845
ag10
ag528
ag119
ag330
ag322
ag335
ag240
ag249
ag556
ag513
aS'55412918'
p846
aS'66570705'
p847
ag29
aS'58866007'
p848
ag294
ag557
ag443
ag306
aS'90743504'
p849
ag276
ag65
ag696
ag91
ag264
ag421
aS'54074680'
p850
aS'96118484'
p851
ag66
ag59
ag517
aS'16011419'
p852
ag286
ag277
ag674
aS'26172512'
p853
aS'21311067'
p854
ag268
ag243
ag694
ag159
aS'79937969'
p855
ag681
ag215
ag23
asg40
I1000
sg42
S'Lineaire Algebra'
p856
sg44
g142
sg46
I0
sg48
(iread_data
Room
p857
(dp858
g40
g200
sg42
g201
sbsba(ischedule
Activity
p859
(dp860
g8
(lp861
g848
ag178
ag461
ag647
ag650
ag270
ag416
ag579
ag544
aS'13798030'
p862
ag160
ag517
aS'20331158'
p863
ag399
ag510
aS'59289233'
p864
ag309
ag425
ag581
ag36
ag593
asg40
I1000
sg42
S'Architectuur en computerorganisatie'
p865
sg44
g142
sg46
I0
sg48
(iread_data
Room
p866
(dp867
g40
g51
sg42
g52
sbsba(ischedule
Activity
p868
(dp869
g8
(lp870
g93
ag671
ag184
ag107
ag419
ag56
ag100
ag512
ag375
ag677
ag341
ag418
asg40
S'20'
p871
sg42
g682
sg44
g45
sg46
g351
sg48
(iread_data
Room
p872
(dp873
g40
g226
sg42
g227
sbsbaa(lp874
(ischedule
Activity
p875
(dp876
g8
(lp877
S'72526473'
p878
ag646
ag338
aS'14179347'
p879
ag698
ag345
ag331
ag347
ag322
ag297
ag239
ag336
ag328
ag327
ag105
ag285
ag161
ag140
ag333
ag178
ag517
aS'58469172'
p880
ag329
ag321
ag455
ag704
ag378
ag346
ag78
aS'22168693'
p881
ag788
ag756
ag369
ag190
ag158
ag339
aS'75623387'
p882
ag343
aS'3678531'
p883
ag454
aS'40141996'
p884
aS'19717077'
p885
ag278
ag320
ag16
ag274
ag344
ag163
ag757
ag681
ag293
ag696
ag330
aS'12091019'
p886
ag342
ag341
ag291
aS'59220392'
p887
ag215
ag233
ag422
aS'65978354'
p888
ag212
ag324
aS'61520025'
p889
ag221
ag366
aS'6709529'
p890
ag174
ag288
aS'93361408'
p891
ag166
aS'24875739'
p892
aS'56348773'
p893
ag348
aS'53139134'
p894
ag707
aS'32705005'
p895
ag392
aS'55530367'
p896
ag152
ag326
ag418
aS'70939718'
p897
ag593
ag175
ag325
ag332
ag337
ag625
ag17
ag218
ag340
aS'62363761'
p898
ag735
aS'23628642'
p899
ag244
aS'78735049'
p900
ag443
ag195
ag305
ag677
ag846
ag334
ag323
ag335
asg40
I1000
sg42
g350
sg44
g142
sg46
I0
sg48
(iread_data
Room
p901
(dp902
g40
g200
sg42
g201
sbsba(ischedule
Activity
p903
(dp904
g8
(lp905
g307
ag444
ag500
ag135
ag465
ag659
ag701
ag103
aS'62736669'
p906
ag758
asg40
S'20'
p907
sg42
S'Netwerken en systeembeveiliging'
p908
sg44
g82
sg46
g70
sg48
(iread_data
Room
p909
(dp910
g40
g145
sg42
g146
sbsba(ischedule
Activity
p911
(dp912
g8
(lp913
g29
ag14
ag528
ag23
ag217
ag513
ag35
ag755
ag10
ag303
ag460
ag15
ag102
ag172
ag33
ag27
ag26
ag32
ag108
ag164
ag247
ag19
ag13
ag581
ag762
ag176
ag583
ag426
ag22
ag189
ag93
ag754
ag11
ag760
ag38
ag30
asg40
S'40'
p914
sg42
g43
sg44
g82
sg46
g47
sg48
(iread_data
Room
p915
(dp916
g40
g226
sg42
g227
sbsba(ischedule
Activity
p917
(dp918
g8
(lp919
g98
ag382
ag214
ag439
ag90
ag596
ag780
asg40
g652
sg42
g653
sg44
g82
sg46
g351
sg48
(iread_data
Room
p920
(dp921
g40
g51
sg42
g52
sbsba(ischedule
Activity
p922
(dp923
g8
(lp924
g168
ag95
ag181
ag151
ag196
ag543
ag539
ag61
ag544
ag453
ag511
ag540
ag391
ag541
ag220
ag504
ag542
ag537
ag538
asg40
g80
sg42
g81
sg44
g82
sg46
g351
sg48
(iread_data
Room
p925
(dp926
g40
g85
sg42
g86
sbsba(ischedule
Activity
p927
(dp928
g8
(lp929
g368
ag725
ag719
asg40
g832
sg42
g663
sg44
g82
sg46
g351
sg48
(iread_data
Room
p930
(dp931
g40
g73
sg42
g74
sbsba(ischedule
Activity
p932
(dp933
g8
(lp934
g442
aS'14941752'
p935
aS'63573738'
p936
ag265
ag263
ag129
ag365
ag371
ag134
asg40
S'15'
p937
sg42
S'Project Numerical Recipes'
p938
sg44
g82
sg46
g47
sg48
(iread_data
Room
p939
(dp940
g40
g254
sg42
g255
sbsbaaa(lp941
(lp942
(ischedule
Activity
p943
(dp944
g8
g861
sg40
I1000
sg42
g865
sg44
g142
sg46
I0
sg48
(iread_data
Room
p945
(dp946
g40
g254
sg42
g255
sbsba(ischedule
Activity
p947
(dp948
g8
(lp949
g264
ag266
ag283
ag282
ag121
ag290
ag11
ag184
ag57
ag277
ag302
ag136
ag273
ag280
ag278
ag312
ag291
ag306
ag294
ag303
asg40
g688
sg42
g314
sg44
g82
sg46
g47
sg48
(iread_data
Room
p950
(dp951
g40
g73
sg42
g74
sbsba(ischedule
Activity
p952
(dp953
g8
g812
sg40
I1000
sg42
g431
sg44
g142
sg46
I0
sg48
g198
sba(ischedule
Activity
p954
(dp955
g8
(lp956
g13
ag98
ag102
ag29
ag56
ag452
ag466
ag460
ag463
ag450
ag465
ag462
ag464
ag296
ag456
ag367
ag233
ag458
ag274
ag454
ag401
ag219
ag468
ag127
ag332
ag370
ag459
ag451
asg40
g774
sg42
g470
sg44
g45
sg46
g351
sg48
(iread_data
Room
p957
(dp958
g40
g145
sg42
g146
sbsba(ischedule
Activity
p959
(dp960
g8
(lp961
g295
ag195
ag328
ag194
ag271
ag174
ag313
ag368
ag114
ag441
ag438
ag297
ag440
ag442
ag105
ag443
ag439
ag39
ag272
ag232
ag444
asg40
g222
sg42
g223
sg44
g45
sg46
g70
sg48
(iread_data
Room
p962
(dp963
g40
g51
sg42
g52
sbsba(ischedule
Activity
p964
(dp965
g8
(lp966
g119
ag513
ag504
ag196
ag61
ag506
ag511
ag520
ag500
ag173
ag265
ag34
ag502
ag507
ag516
ag519
ag503
ag508
asg40
S'20'
p967
sg42
g521
sg44
g45
sg46
g351
sg48
(iread_data
Room
p968
(dp969
g40
g226
sg42
g227
sbsba(ischedule
Activity
p970
(dp971
g8
(lp972
g14
ag206
ag96
ag18
ag268
aS'70113753'
p973
ag681
asg40
g68
sg42
g69
sg44
g45
sg46
g47
sg48
(iread_data
Room
p974
(dp975
g40
g85
sg42
g86
sbsbaa(lp976
(ischedule
Activity
p977
(dp978
g8
(lp979
g94
aS'10872825'
p980
ag296
aS'39659121'
p981
aS'82688900'
p982
ag166
ag12
aS'51186803'
p983
aS'63955238'
p984
ag123
ag491
ag465
ag214
aS'37498675'
p985
aS'79858178'
p986
ag372
ag298
ag320
ag322
ag208
aS'79366078'
p987
ag892
aS'65003379'
p988
ag505
ag895
ag237
ag111
aS'7492204'
p989
ag580
ag406
ag627
aS'47605891'
p990
ag98
ag286
ag93
ag245
ag401
ag504
ag289
ag183
ag269
ag538
ag326
aS'44940353'
p991
ag210
ag212
ag463
ag880
ag323
ag710
ag404
ag306
ag677
ag263
aS'63408522'
p992
ag17
ag900
ag569
ag187
ag863
ag113
ag232
aS'23391676'
p993
ag11
ag16
ag181
ag10
aS'72547110'
p994
ag579
ag243
aS'38329455'
p995
ag249
aS'91139627'
p996
ag398
ag215
ag31
ag736
ag585
ag501
aS'39919665'
p997
ag266
ag594
ag265
ag235
asg40
I1000
sg42
S'Kansrekenen 2'
p998
sg44
g142
sg46
I0
sg48
g198
sba(ischedule
Activity
p999
(dp1000
g8
(lp1001
g288
ag894
ag392
ag897
ag887
ag757
ag455
ag418
ag593
ag698
ag285
ag890
ag278
ag885
ag756
ag735
ag378
ag178
ag366
ag517
ag174
ag221
ag883
ag422
ag878
ag888
ag161
ag896
asg40
g349
sg42
g350
sg44
g45
sg46
g47
sg48
(iread_data
Room
p1002
(dp1003
g40
g226
sg42
g227
sbsba(ischedule
Activity
p1004
(dp1005
g8
(lp1006
g63
ag206
ag62
ag60
ag121
ag64
ag65
ag58
ag11
ag454
ag59
ag973
ag681
ag96
ag67
ag268
ag18
ag56
ag66
ag61
ag57
ag14
asg40
I1000
sg42
g69
sg44
g142
sg46
I0
sg48
(iread_data
Room
p1007
(dp1008
g40
g254
sg42
g255
sbsba(ischedule
Activity
p1009
(dp1010
g8
(lp1011
g217
ag13
ag707
ag207
ag695
aS'40911986'
p1012
aS'37419523'
p1013
ag131
aS'81116418'
p1014
ag671
aS'90103047'
p1015
asg40
g937
sg42
g938
sg44
g82
sg46
g351
sg48
(iread_data
Room
p1016
(dp1017
g40
g85
sg42
g86
sbsba(ischedule
Activity
p1018
(dp1019
g8
(lp1020
g292
ag211
ag151
ag267
ag279
ag628
ag382
ag630
ag568
ag629
ag262
ag461
ag768
ag529
ag236
ag213
ag281
ag234
ag397
ag528
ag344
ag457
asg40
g430
sg42
g431
sg44
g45
sg46
g70
sg48
(iread_data
Room
p1021
(dp1022
g40
g51
sg42
g52
sbsba(ischedule
Activity
p1023
(dp1024
g8
(lp1025
g602
asg40
S'15'
p1026
sg42
S'Compilerbouw practicum'
p1027
sg44
g82
sg46
g47
sg48
(iread_data
Room
p1028
(dp1029
g40
g73
sg42
g74
sbsbaa(lp1030
(ischedule
Activity
p1031
(dp1032
g8
(lp1033
g117
ag173
ag151
ag125
ag34
ag192
ag189
ag162
ag164
ag65
ag171
ag135
ag174
ag194
ag154
ag175
ag109
ag190
ag180
ag167
ag159
ag178
ag184
ag163
asg40
g476
sg42
g197
sg44
g82
sg46
g70
sg48
(iread_data
Room
p1034
(dp1035
g40
g254
sg42
g255
sbsba(ischedule
Activity
p1036
(dp1037
g8
(lp1038
g23
ag116
ag91
aS'23215240'
p1039
ag260
ag105
ag468
ag301
ag139
ag756
ag989
ag169
ag328
ag406
ag725
ag308
aS'79879876'
p1040
ag161
aS'90296821'
p1041
ag195
ag463
ag880
ag677
ag21
ag332
ag629
ag193
ag586
ag787
ag540
aS'88519892'
p1042
asg40
g250
sg42
g251
sg44
g82
sg46
S'5'
p1043
sg48
(iread_data
Room
p1044
(dp1045
g40
g200
sg42
g201
sbsba(ischedule
Activity
p1046
(dp1047
g8
(lp1048
g401
ag936
aS'53267490'
p1049
ag898
ag326
ag646
aS'25557516'
p1050
ag722
ag417
ag625
ag368
ag703
ag438
ag29
ag538
ag235
ag594
ag405
aS'535689'
p1051
ag792
ag702
ag404
ag104
ag10
ag92
ag188
ag440
ag647
ag605
aS'16912993'
p1052
asg40
g907
sg42
g908
sg44
g82
sg46
g570
sg48
(iread_data
Room
p1053
(dp1054
g40
g145
sg42
g146
sbsba(ischedule
Activity
p1055
(dp1056
g8
(lp1057
g215
ag15
ag218
ag313
ag442
ag205
ag212
ag220
ag210
ag443
ag271
ag272
ag133
ag213
ag31
asg40
S'20'
p1058
sg42
g223
sg44
g82
sg46
g47
sg48
(iread_data
Room
p1059
(dp1060
g40
g226
sg42
g227
sbsba(ischedule
Activity
p1061
(dp1062
g8
(lp1063
g90
ag310
ag247
ag461
aS'64246605'
p1064
ag61
ag462
ag377
ag280
ag489
ag290
aS'123355'
p1065
ag671
aS'5590289'
p1066
aS'12170832'
p1067
aS'59887191'
p1068
ag344
ag289
ag207
ag700
ag397
asg40
g907
sg42
g908
sg44
g82
sg46
g351
sg48
(iread_data
Room
p1069
(dp1070
g40
g51
sg42
g52
sbsba(ischedule
Activity
p1071
(dp1072
g8
(lp1073
g236
aS'19058315'
p1074
ag897
asg40
g907
sg42
g908
sg44
g82
sg46
g47
sg48
(iread_data
Room
p1075
(dp1076
g40
g85
sg42
g86
sbsbaa(lp1077
(ischedule
Activity
p1078
(dp1079
g8
g753
sg40
I1000
sg42
g43
sg44
g142
sg46
I0
sg48
(iread_data
Room
p1080
(dp1081
g40
g200
sg42
g201
sbsba(ischedule
Activity
p1082
(dp1083
g8
(lp1084
g309
ag313
ag107
ag419
ag184
ag160
ag429
ag510
ag558
ag320
aS'49908313'
p1085
aS'67073567'
p1086
aS'53512831'
p1087
ag459
ag559
ag560
ag556
ag92
ag321
ag238
asg40
g742
sg42
g562
sg44
g82
sg46
g351
sg48
(iread_data
Room
p1088
(dp1089
g40
g51
sg42
g52
sbsba(ischedule
Activity
p1090
(dp1091
g8
(lp1092
g368
ag210
ag681
ag674
ag593
ag342
ag672
ag680
ag675
ag648
ag628
ag673
ag283
ag676
ag488
ag394
ag679
ag586
ag678
ag605
asg40
g871
sg42
g682
sg44
g45
sg46
g47
sg48
(iread_data
Room
p1093
(dp1094
g40
g145
sg42
g146
sbsba(ischedule
Activity
p1095
(dp1096
g8
(lp1097
g235
ag295
aS'42297781'
p1098
aS'91250534'
p1099
ag543
ag423
ag395
ag735
aS'55103073'
p1100
ag292
ag568
ag519
ag332
aS'1695839'
p1101
ag711
aS'51472074'
p1102
ag450
ag457
asg40
g1026
sg42
g1027
sg44
g82
sg46
g351
sg48
(iread_data
Room
p1103
(dp1104
g40
g85
sg42
g86
sbsba(ischedule
Activity
p1105
(dp1106
g8
(lp1107
g211
ag282
ag671
ag541
ag290
ag220
ag243
ag334
ag724
ag661
ag56
ag101
ag720
ag96
ag723
ag264
ag660
ag58
ag115
asg40
g832
sg42
g663
sg44
g82
sg46
g70
sg48
(iread_data
Room
p1108
(dp1109
g40
g254
sg42
g255
sbsba(ischedule
Activity
p1110
(dp1111
g8
(lp1112
g288
ag627
ag537
ag569
ag585
ag393
ag284
ag625
ag530
ag623
ag626
ag624
ag65
ag455
ag186
asg40
g430
sg42
g431
sg44
g45
sg46
g351
sg48
(iread_data
Room
p1113
(dp1114
g40
g226
sg42
g227
sbsbaa(lp1115
(ischedule
Activity
p1116
(dp1117
g8
g979
sg40
I1000
sg42
g998
sg44
g142
sg46
I0
sg48
g198
sba(ischedule
Activity
p1118
(dp1119
g8
(lp1120
g108
ag176
ag189
ag196
ag178
ag172
ag164
ag102
ag500
ag757
ag756
ag755
ag576
ag760
ag247
ag761
ag267
ag758
ag697
ag493
ag754
ag217
ag759
ag520
ag651
ag93
ag762
ag420
ag460
ag583
ag426
ag328
ag417
ag698
ag303
ag513
ag528
ag378
ag581
asg40
g41
sg42
g43
sg44
g45
sg46
g351
sg48
(iread_data
Room
p1121
(dp1122
g40
g226
sg42
g227
sbsba(ischedule
Activity
p1123
(dp1124
g8
(lp1125
g135
ag167
ag34
ag117
ag162
ag179
ag174
ag193
ag161
ag190
ag194
ag156
ag125
ag170
ag169
ag158
ag175
ag154
asg40
g640
sg42
g197
sg44
g45
sg46
g351
sg48
(iread_data
Room
p1126
(dp1127
g40
g85
sg42
g86
sbsba(ischedule
Activity
p1128
(dp1129
g8
(lp1130
g1086
ag514
ag107
ag15
ag419
ag309
ag238
ag246
ag736
ag738
ag556
ag560
ag510
ag160
ag92
ag1087
ag740
ag739
ag425
ag558
ag345
ag595
ag363
ag429
ag459
ag321
ag557
ag741
ag492
ag735
ag390
ag13
ag559
ag737
ag320
ag380
ag184
ag313
ag1085
asg40
I1000
sg42
g562
sg44
g142
sg46
I0
sg48
(iread_data
Room
p1131
(dp1132
g40
g145
sg42
g146
sbsba(ischedule
Activity
p1133
(dp1134
g8
(lp1135
g151
ag542
ag541
ag537
ag544
ag511
asg40
S'15'
p1136
sg42
g81
sg44
g45
sg46
g47
sg48
(iread_data
Room
p1137
(dp1138
g40
g73
sg42
g74
sbsba(ischedule
Activity
p1139
(dp1140
g8
g1006
sg40
I1000
sg42
g69
sg44
g142
sg46
I0
sg48
(iread_data
Room
p1141
(dp1142
g40
g51
sg42
g52
sbsba(ischedule
Activity
p1143
(dp1144
g8
(lp1145
g790
ag879
asg40
g606
sg42
g607
sg44
g82
sg46
g351
sg48
(iread_data
Room
p1146
(dp1147
g40
g254
sg42
g255
sbsbaaa(lp1148
(lp1149
(ischedule
Activity
p1150
(dp1151
g8
(lp1152
g236
ag14
ag56
ag628
ag672
aS'27123462'
p1153
ag117
ag906
ag173
ag462
ag674
aS'54540997'
p1154
ag218
ag884
ag886
ag187
asg40
g712
sg42
g713
sg44
g45
sg46
g47
sg48
(iread_data
Room
p1155
(dp1156
g40
g51
sg42
g52
sbsba(ischedule
Activity
p1157
(dp1158
g8
g842
sg40
I1000
sg42
g856
sg44
g142
sg46
I0
sg48
(iread_data
Room
p1159
(dp1160
g40
g145
sg42
g146
sbsba(ischedule
Activity
p1161
(dp1162
g8
(lp1163
g540
ag61
ag504
ag181
ag538
ag78
ag168
ag391
ag539
ag79
ag543
ag95
ag220
ag453
ag196
asg40
g1136
sg42
g81
sg44
g45
sg46
g351
sg48
(iread_data
Room
p1164
(dp1165
g40
g226
sg42
g227
sbsba(ischedule
Activity
p1166
(dp1167
g8
(lp1168
g282
ag382
ag423
ag510
ag96
ag234
ag174
ag125
ag273
ag151
ag460
ag517
ag128
ag501
ag505
ag515
ag518
ag509
ag514
ag512
asg40
g967
sg42
g521
sg44
g45
sg46
g47
sg48
(iread_data
Room
p1169
(dp1170
g40
g85
sg42
g86
sbsba(ischedule
Activity
p1171
(dp1172
g8
(lp1173
g105
ag114
ag194
ag440
ag297
ag217
ag368
ag214
ag441
ag438
ag207
ag295
ag232
ag209
ag195
ag439
ag58
asg40
g1058
sg42
g223
sg44
g82
sg46
g351
sg48
(iread_data
Room
p1174
(dp1175
g40
g73
sg42
g74
sbsba(ischedule
Activity
p1176
(dp1177
g8
(lp1178
g419
ag425
ag107
ag595
ag736
ag737
ag380
ag741
ag739
ag92
ag345
ag320
ag1087
ag735
ag740
ag390
ag1086
ag429
ag738
ag363
ag1085
ag459
asg40
g561
sg42
g562
sg44
g45
sg46
g351
sg48
(iread_data
Room
p1179
(dp1180
g40
g200
sg42
g201
sbsba(ischedule
Activity
p1181
(dp1182
g8
(lp1183
g756
ag328
ag698
ag757
ag378
ag178
ag17
ag16
ag697
ag651
ag520
ag758
ag21
ag500
ag267
ag36
ag18
ag34
ag196
ag493
ag759
ag576
ag417
ag28
ag37
ag20
ag24
ag12
ag420
ag25
ag39
ag761
ag31
asg40
g914
sg42
g43
sg44
g82
sg46
g351
sg48
(iread_data
Room
p1184
(dp1185
g40
g254
sg42
g255
sbsbaa(lp1186
(ischedule
Activity
p1187
(dp1188
g8
(lp1189
g205
ag288
ag215
ag121
ag276
ag282
ag218
ag285
ag96
ag678
ag462
ag935
aS'97417002'
p1190
ag173
aS'45660925'
p1191
ag1040
ag32
ag863
ag723
asg40
g408
sg42
g409
sg44
g45
sg46
g351
sg48
(iread_data
Room
p1192
(dp1193
g40
g73
sg42
g74
sbsba(ischedule
Activity
p1194
(dp1195
g8
g1130
sg40
I1000
sg42
g562
sg44
g142
sg46
I0
sg48
(iread_data
Room
p1196
(dp1197
g40
g145
sg42
g146
sbsba(ischedule
Activity
p1198
(dp1199
g8
(lp1200
g291
ag899
ag677
ag293
ag884
ag454
ag369
ag900
ag889
ag895
ag891
ag707
ag305
ag190
ag105
ag646
ag274
ag898
ag239
ag625
ag212
ag886
ag681
ag297
ag892
ag846
ag696
ag882
ag893
ag880
ag881
ag788
ag704
ag443
ag175
ag879
asg40
g349
sg42
g350
sg44
g45
sg46
g70
sg48
(iread_data
Room
p1201
(dp1202
g40
g226
sg42
g227
sbsba(ischedule
Activity
p1203
(dp1204
g8
(lp1205
g267
ag94
ag322
ag272
ag417
ag22
ag210
ag647
aS'34691309'
p1206
ag698
aS'19662602'
p1207
ag38
ag392
aS'32183908'
p1208
ag339
ag513
ag758
ag176
ag507
ag60
ag528
aS'63939720'
p1209
ag725
aS'21070547'
p1210
asg40
g937
sg42
g938
sg44
g82
sg46
g70
sg48
(iread_data
Room
p1211
(dp1212
g40
g200
sg42
g201
sbsba(ischedule
Activity
p1213
(dp1214
g8
(lp1215
g125
ag328
ag174
ag211
ag219
ag182
ag444
ag221
ag206
ag216
ag357
ag208
ag39
asg40
g1058
sg42
g223
sg44
g82
sg46
g70
sg48
(iread_data
Room
p1216
(dp1217
g40
g85
sg42
g86
sbsba(ischedule
Activity
p1218
(dp1219
g8
g536
sg40
I1000
sg42
g81
sg44
g142
sg46
I0
sg48
(iread_data
Room
p1220
(dp1221
g40
g254
sg42
g255
sbsba(ischedule
Activity
p1222
(dp1223
g8
(lp1224
g286
ag719
ag110
ag973
ag530
aS'73893840'
p1225
ag266
ag883
ag993
ag401
ag694
asg40
g250
sg42
g251
sg44
g82
sg46
g47
sg48
(iread_data
Room
p1226
(dp1227
g40
g51
sg42
g52
sbsbaa(lp1228
(ischedule
Activity
p1229
(dp1230
g8
(lp1231
g236
ag284
ag292
ag313
ag288
ag279
ag124
ag262
ag267
ag281
ag260
ag60
ag206
ag265
ag34
ag295
ag190
ag278
ag263
ag205
ag282
ag270
ag274
ag217
ag308
ag162
ag299
ag302
ag280
ag310
ag272
ag296
ag276
ag239
ag298
ag275
ag261
ag294
ag264
asg40
g821
sg42
g314
sg44
g45
sg46
g351
sg48
(iread_data
Room
p1232
(dp1233
g40
g145
sg42
g146
sbsba(ischedule
Activity
p1234
(dp1235
g8
(lp1236
g65
ag196
ag195
ag150
ag171
ag151
ag110
ag177
ag189
ag186
ag182
ag157
ag172
ag180
ag152
ag176
ag160
ag168
ag159
ag187
ag153
ag191
ag183
ag184
ag166
ag165
ag163
ag173
ag155
ag188
asg40
g640
sg42
g197
sg44
g45
sg46
g47
sg48
(iread_data
Room
p1237
(dp1238
g40
g254
sg42
g255
sbsba(ischedule
Activity
p1239
(dp1240
g8
(lp1241
g326
ag391
aS'64053722'
p1242
ag738
ag422
ag419
aS'12782624'
p1243
ag14
ag417
ag455
ag35
ag312
ag453
asg40
g250
sg42
g251
sg44
g82
sg46
S'6'
p1244
sg48
(iread_data
Room
p1245
(dp1246
g40
g73
sg42
g74
sbsba(ischedule
Activity
p1247
(dp1248
g8
(lp1249
g266
ag426
ag268
ag424
ag233
aS'75680261'
p1250
asg40
g606
sg42
g607
sg44
g82
sg46
g70
sg48
(iread_data
Room
p1251
(dp1252
g40
g85
sg42
g86
sbsba(ischedule
Activity
p1253
(dp1254
g8
(lp1255
g290
aS'10702778'
p1256
ag16
ag212
ag102
ag38
ag578
ag211
ag365
ag381
ag456
ag37
ag674
ag327
aS'63096281'
p1257
ag114
aS'7386961'
p1258
aS'54395877'
p1259
ag26
ag508
ag400
ag537
ag181
asg40
g250
sg42
g251
sg44
g82
sg46
g570
sg48
(iread_data
Room
p1260
(dp1261
g40
g226
sg42
g227
sbsba(ischedule
Activity
p1262
(dp1263
g8
(lp1264
g117
ag127
ag96
ag136
ag122
ag108
ag123
ag129
ag132
ag139
ag133
ag109
ag100
ag92
ag107
ag140
ag101
ag118
ag121
ag131
ag90
ag113
ag98
ag126
ag134
ag115
ag135
ag125
ag112
ag105
ag106
ag94
asg40
g482
sg42
g141
sg44
g45
sg46
g351
sg48
(iread_data
Room
p1265
(dp1266
g40
g200
sg42
g201
sbsba(ischedule
Activity
p1267
(dp1268
g8
(lp1269
g269
ag556
asg40
g469
sg42
g470
sg44
g82
sg46
g351
sg48
(iread_data
Room
p1270
(dp1271
g40
g51
sg42
g52
sbsbaa(lp1272
(ischedule
Activity
p1273
(dp1274
g8
(lp1275
g711
ag116
ag710
ag694
ag697
ag364
ag236
ag1154
ag704
ag1153
ag182
ag709
ag884
ag558
ag23
ag705
ag707
ag106
ag674
ag702
ag700
ag429
ag14
ag218
ag117
ag461
ag459
ag90
ag598
ag886
ag696
ag672
ag165
ag468
ag36
ag628
ag102
ag56
ag698
ag181
ag706
ag708
ag701
ag906
ag462
ag600
ag324
ag439
ag57
ag330
ag212
ag232
ag173
ag510
ag244
ag209
ag18
ag627
ag187
ag158
ag65
ag177
ag327
ag169
ag699
ag423
ag466
ag695
ag131
ag213
ag540
ag703
asg40
I1000
sg42
g713
sg44
g142
sg46
I0
sg48
(iread_data
Room
p1276
(dp1277
g40
g200
sg42
g201
sbsba(ischedule
Activity
p1278
(dp1279
g8
(lp1280
g1039
ag677
ag761
ag189
ag376
aS'64418623'
p1281
ag599
ag511
ag272
ag205
ag604
ag646
ag399
ag597
ag1051
ag491
ag127
aS'47260040'
p1282
aS'44151631'
p1283
aS'5892092'
p1284
ag601
asg40
g1026
sg42
g1027
sg44
g82
sg46
g70
sg48
(iread_data
Room
p1285
(dp1286
g40
g73
sg42
g74
sbsba(ischedule
Activity
p1287
(dp1288
g8
(lp1289
g368
ag96
ag723
ag671
ag245
ag58
ag211
ag243
ag292
ag264
ag719
ag725
ag334
ag220
ag282
ag724
ag101
ag721
ag722
ag115
asg40
g662
sg42
g663
sg44
g45
sg46
g351
sg48
(iread_data
Room
p1290
(dp1291
g40
g254
sg42
g255
sbsba(ischedule
Activity
p1292
(dp1293
g8
(lp1294
g59
ag454
ag67
ag268
ag973
ag66
ag121
ag681
asg40
g550
sg42
g69
sg44
g82
sg46
g47
sg48
(iread_data
Room
p1295
(dp1296
g40
g85
sg42
g86
sbsbaa(lp1297
(ischedule
Activity
p1298
(dp1299
g8
g89
sg40
I1000
sg42
g141
sg44
g142
sg46
I0
sg48
(iread_data
Room
p1300
(dp1301
g40
g51
sg42
g52
sbsba(ischedule
Activity
p1302
(dp1303
g8
g812
sg40
I1000
sg42
g431
sg44
g142
sg46
I0
sg48
g198
sba(ischedule
Activity
p1304
(dp1305
g8
(lp1306
g395
ag205
ag405
ag175
ag276
ag723
ag186
ag32
ag397
ag404
ag288
ag400
ag394
ag935
ag215
ag1191
ag678
ag392
ag96
ag403
ag1040
ag396
ag282
ag232
ag95
ag1190
ag173
ag218
ag121
ag399
ag462
ag407
ag63
ag61
ag398
ag151
ag393
ag402
ag401
ag863
ag406
ag390
ag285
ag391
asg40
I1000
sg42
g409
sg44
g142
sg46
I0
sg48
(iread_data
Room
p1307
(dp1308
g40
g145
sg42
g146
sbsba(ischedule
Activity
p1309
(dp1310
g8
g362
sg40
I1000
sg42
g384
sg44
g142
sg46
I0
sg48
(iread_data
Room
p1311
(dp1312
g40
g226
sg42
g227
sbsba(ischedule
Activity
p1313
(dp1314
g8
(lp1315
g56
ag720
asg40
g662
sg42
g663
sg44
g45
sg46
g47
sg48
(iread_data
Room
p1316
(dp1317
g40
g85
sg42
g86
sbsba(ischedule
Activity
p1318
(dp1319
g8
(lp1320
g195
ag172
ag168
ag158
ag155
ag176
ag181
ag182
ag196
ag179
ag157
asg40
g476
sg42
g197
sg44
g82
sg46
g47
sg48
(iread_data
Room
p1321
(dp1322
g40
g254
sg42
g255
sbsbaaa(lp1323
(lp1324
a(lp1325
a(lp1326
a(lp1327
a(lp1328
aasS'timeslot_dict'
p1329
(dp1330
I0
S'9:00-11:00'
p1331
sI1
S'11:00-13:00'
p1332
sI2
S'13:00-15:00'
p1333
sI3
S'15:00-17:00'
p1334
sI4
S'17:00-19:00'
p1335
ssS'day_dict'
p1336
(dp1337
I0
S'Monday'
p1338
sI1
S'Tuesday'
p1339
sI2
S'Wednesday'
p1340
sI3
S'Thursday'
p1341
sI4
S'Friday'
p1342
ssb.