(ischedule
Schedule
p0
(dp1
S'timetable'
p2
(lp3
(lp4
(lp5
(ischedule
Activity
p6
(dp7
S'participants'
p8
(lp9
S'4568018'
p10
aS'88176729'
p11
aS'30195935'
p12
aS'24613625'
p13
aS'44868097'
p14
aS'3168419'
p15
aS'21029457'
p16
aS'7308727'
p17
aS'96054456'
p18
aS'66120270'
p19
aS'89985072'
p20
aS'28359697'
p21
aS'247918'
p22
aS'29526540'
p23
aS'56749879'
p24
aS'33877725'
p25
aS'56815156'
p26
aS'64600457'
p27
aS'74131924'
p28
aS'85335143'
p29
aS'5298748'
p30
aS'33930505'
p31
aS'73236988'
p32
aS'58522654'
p33
aS'20883994'
p34
aS'70878567'
p35
aS'21964491'
p36
aS'6913074'
p37
aS'6723948'
p38
aS'81200278'
p39
aS'53202517'
p40
aS'11068043'
p41
aS'79617364'
p42
aS'22731474'
p43
aS'54026378'
p44
aS'43680781'
p45
aS'30050930'
p46
aS'15051051'
p47
aS'77831658'
p48
aS'42196732'
p49
aS'96453361'
p50
aS'14816774'
p51
aS'22826928'
p52
aS'59544049'
p53
aS'14591033'
p54
asS'capacity'
p55
I1000
sS'group'
p56
NsS'room'
p57
(iread_data
Room
p58
(dp59
g55
S'48'
p60
sS'name'
p61
S'B0.201'
p62
sbsS'ttype'
p63
S'lectures'
p64
sS'group_id'
p65
I0
sg61
S'Bioinformatica'
p66
sba(ischedule
Activity
p67
(dp68
g8
(lp69
S'22323043'
p70
aS'14309255'
p71
aS'75521763'
p72
aS'37110913'
p73
aS'68315599'
p74
aS'26406342'
p75
aS'23547619'
p76
aS'9332762'
p77
aS'48308205'
p78
aS'12077419'
p79
aS'6249823'
p80
aS'31194811'
p81
aS'47982619'
p82
aS'12430748'
p83
aS'92496780'
p84
aS'7106649'
p85
aS'4697362'
p86
aS'77636749'
p87
aS'41578612'
p88
aS'21192048'
p89
aS'36785409'
p90
aS'76487754'
p91
aS'97371272'
p92
aS'10149535'
p93
aS'14383795'
p94
aS'44901052'
p95
aS'75664412'
p96
aS'11996292'
p97
aS'70336464'
p98
aS'58565406'
p99
aS'32204977'
p100
asg55
S'20'
p101
sg56
(ischedule
Group
p102
(dp103
g8
g69
sg61
S'Technology for games1'
p104
sbsg57
(iread_data
Room
p105
(dp106
g55
S'56'
p107
sg61
S'A1.10'
p108
sbsg63
S'tutorials'
p109
sg65
S'1'
p110
sg61
S'Technology for games'
p111
sba(ischedule
Activity
p112
(dp113
g8
(lp114
S'88519892'
p115
aS'51593625'
p116
aS'68601184'
p117
aS'7492204'
p118
aS'63111000'
p119
aS'37399898'
p120
aS'29640619'
p121
aS'83415514'
p122
aS'2550487'
p123
aS'13996448'
p124
aS'44391517'
p125
aS'58040377'
p126
aS'66433883'
p127
aS'12782624'
p128
asg55
S'20'
p129
sg56
(ischedule
Group
p130
(dp131
g8
g114
sg61
S'Programmeren in Java 25'
p132
sbsg57
(iread_data
Room
p133
(dp134
g55
S'117'
p135
sg61
S'C0.110'
p136
sbsg63
S'labs'
p137
sg65
S'5'
p138
sg61
S'Programmeren in Java 2'
p139
sba(ischedule
Activity
p140
(dp141
g8
(lp142
S'52715680'
p143
aS'27298319'
p144
aS'5976174'
p145
aS'51566595'
p146
aS'15902055'
p147
aS'72895450'
p148
aS'3474870'
p149
aS'58592894'
p150
aS'43902015'
p151
aS'19540225'
p152
aS'57467488'
p153
aS'21095566'
p154
aS'50143947'
p155
aS'36903574'
p156
aS'44828429'
p157
aS'40343779'
p158
aS'51509565'
p159
aS'86988337'
p160
aS'23983476'
p161
aS'91527663'
p162
aS'46701583'
p163
aS'53585410'
p164
aS'41585485'
p165
aS'8522855'
p166
aS'14671406'
p167
aS'64947290'
p168
aS'3707829'
p169
aS'41527759'
p170
aS'77376714'
p171
aS'23652927'
p172
aS'64554442'
p173
aS'81385263'
p174
aS'34765676'
p175
asg55
S'25'
p176
sg56
(ischedule
Group
p177
(dp178
g8
g142
sg61
S'Algoritmen en complexiteit2'
p179
sbsg57
(iread_data
Room
p180
(dp181
g55
S'60'
p182
sg61
S'C1.112'
p183
sbsg63
g109
sg65
S'2'
p184
sg61
S'Algoritmen en complexiteit'
p185
sba(ischedule
Activity
p186
(dp187
g8
(lp188
S'25106480'
p189
aS'76661016'
p190
aS'86180471'
p191
aS'37770881'
p192
aS'74361881'
p193
aS'84449005'
p194
aS'14179347'
p195
aS'40633534'
p196
aS'58253841'
p197
aS'25994016'
p198
aS'94467156'
p199
aS'82066165'
p200
aS'87602030'
p201
aS'5526560'
p202
aS'68409833'
p203
aS'78821918'
p204
aS'48678993'
p205
aS'14398123'
p206
aS'51673172'
p207
aS'69459473'
p208
aS'34773179'
p209
asg55
S'15'
p210
sg56
(ischedule
Group
p211
(dp212
g8
g188
sg61
S'Project Genetic Algorithms1'
p213
sbsg57
(iread_data
Room
p214
(dp215
g55
S'41'
p216
sg61
S'A1.04'
p217
sbsg63
g137
sg65
g110
sg61
S'Project Genetic Algorithms'
p218
sbaa(lp219
(ischedule
Activity
p220
(dp221
g8
(lp222
g120
aS'77392404'
p223
aS'3685034'
p224
aS'13658563'
p225
aS'61518436'
p226
aS'84524083'
p227
ag45
aS'27805666'
p228
aS'60352393'
p229
ag88
aS'13092455'
p230
aS'24277163'
p231
ag73
aS'27370083'
p232
aS'36213792'
p233
ag90
aS'20239127'
p234
aS'51415617'
p235
aS'82390428'
p236
aS'13718298'
p237
aS'33776961'
p238
aS'38296757'
p239
aS'68286356'
p240
aS'99453514'
p241
aS'59753700'
p242
aS'78136904'
p243
aS'42406214'
p244
aS'77960666'
p245
aS'70844780'
p246
aS'20095994'
p247
aS'57086672'
p248
ag30
aS'4709948'
p249
ag160
ag52
aS'54569540'
p250
aS'22871048'
p251
ag37
aS'87830198'
p252
ag143
aS'32044893'
p253
aS'99975346'
p254
aS'60661905'
p255
aS'70193386'
p256
aS'49922855'
p257
aS'27950803'
p258
aS'96554914'
p259
ag194
aS'92778619'
p260
aS'51052738'
p261
aS'90474003'
p262
asg55
I1000
sg56
Nsg57
(iread_data
Room
p263
(dp264
g55
g107
sg61
g108
sbsg63
g64
sg65
I0
sg61
S'Reflectie op de digitale cultuur'
p265
sba(ischedule
Activity
p266
(dp267
g8
(lp268
g25
aS'11915563'
p269
ag11
ag41
ag53
ag10
aS'89338938'
p270
ag14
ag71
ag32
ag44
aS'60312776'
p271
ag20
aS'62356458'
p272
aS'41153310'
p273
ag99
ag70
aS'62105897'
p274
aS'28357474'
p275
ag203
aS'26260141'
p276
ag170
aS'37830626'
p277
aS'84110134'
p278
aS'45915482'
p279
aS'78443067'
p280
ag116
aS'44671041'
p281
ag121
aS'73302736'
p282
ag171
aS'61060652'
p283
aS'65318664'
p284
aS'1048485'
p285
aS'83210352'
p286
aS'48601268'
p287
aS'3233378'
p288
aS'37744525'
p289
aS'52552718'
p290
aS'31633723'
p291
aS'4783858'
p292
aS'3727435'
p293
aS'55474917'
p294
aS'75599734'
p295
aS'31247305'
p296
aS'80709893'
p297
ag167
ag189
aS'31103066'
p298
aS'48357272'
p299
aS'9287708'
p300
ag154
aS'82872148'
p301
aS'99283252'
p302
aS'65408517'
p303
ag158
ag155
ag199
asg55
S'40'
p304
sg56
(ischedule
Group
p305
(dp306
g8
g268
sg61
S'Software engineering1'
p307
sbsg57
(iread_data
Room
p308
(dp309
g55
g135
sg61
g136
sbsg63
g109
sg65
g110
sg61
S'Software engineering'
p310
sba(ischedule
Activity
p311
(dp312
g8
(lp313
g148
aS'94930277'
p314
ag149
aS'16333449'
p315
aS'53512831'
p316
aS'14847953'
p317
aS'17092717'
p318
aS'10698627'
p319
aS'49908313'
p320
aS'67073567'
p321
aS'22288615'
p322
aS'76903244'
p323
aS'41790793'
p324
asg55
S'20'
p325
sg56
(ischedule
Group
p326
(dp327
g8
g313
sg61
S'Webprogrammeren en databases2'
p328
sbsg57
(iread_data
Room
p329
(dp330
g55
g216
sg61
g217
sbsg63
g109
sg65
g184
sg61
S'Webprogrammeren en databases'
p331
sba(ischedule
Activity
p332
(dp333
g8
(lp334
S'29718115'
p335
aS'83266686'
p336
aS'45556081'
p337
aS'59289233'
p338
aS'27925117'
p339
aS'58866007'
p340
aS'70015932'
p341
aS'13798030'
p342
aS'28618400'
p343
aS'82689818'
p344
aS'72683344'
p345
aS'34872117'
p346
aS'72577292'
p347
aS'20331158'
p348
aS'23798155'
p349
aS'49683101'
p350
aS'89180944'
p351
aS'14138904'
p352
aS'40434933'
p353
ag93
aS'43460038'
p354
asg55
I1000
sg56
Nsg57
(iread_data
Room
p355
(dp356
g55
S'22'
p357
sg61
S'A1.06'
p358
sbsg63
g64
sg65
I0
sg61
S'Architectuur en computerorganisatie'
p359
sba(ischedule
Activity
p360
(dp361
g8
(lp362
S'5517869'
p363
aS'75997788'
p364
aS'42171678'
p365
aS'46570285'
p366
ag72
ag27
aS'27241113'
p367
aS'36748818'
p368
aS'1766560'
p369
aS'11741347'
p370
ag122
aS'78544592'
p371
aS'78243495'
p372
ag97
ag119
aS'59111489'
p373
aS'27916487'
p374
asg55
S'20'
p375
sg56
(ischedule
Group
p376
(dp377
g8
g362
sg61
S'Moderne Databases2'
p378
sbsg57
(iread_data
Room
p379
(dp380
g55
g60
sg61
g62
sbsg63
g137
sg65
g184
sg61
S'Moderne Databases'
p381
sba(ischedule
Activity
p382
(dp383
g8
(lp384
g74
ag47
aS'87758823'
p385
aS'88627897'
p386
aS'28957789'
p387
aS'57701414'
p388
aS'36527838'
p389
aS'57419039'
p390
ag125
aS'4529208'
p391
aS'41644639'
p392
asg55
S'15'
p393
sg56
(ischedule
Group
p394
(dp395
g8
g384
sg61
S'Zoeken sturen en bewegen2'
p396
sbsg57
(iread_data
Room
p397
(dp398
g55
g182
sg61
g183
sbsg63
g137
sg65
g184
sg61
S'Zoeken sturen en bewegen'
p399
sba(ischedule
Activity
p400
(dp401
g8
(lp402
g35
ag95
aS'11459236'
p403
aS'58332004'
p404
aS'18266644'
p405
aS'13116738'
p406
asg55
S'15'
p407
sg56
(ischedule
Group
p408
(dp409
g8
g402
sg61
S'Informatie- en organisatieontwerp2'
p410
sbsg57
(iread_data
Room
p411
(dp412
g55
S'20'
p413
sg61
S'A1.08'
p414
sbsg63
g109
sg65
g184
sg61
S'Informatie- en organisatieontwerp'
p415
sbaa(lp416
(ischedule
Activity
p417
(dp418
g8
(lp419
S'88752563'
p420
aS'72796858'
p421
ag160
ag71
aS'77896638'
p422
ag346
ag174
aS'46989508'
p423
ag190
ag74
aS'39459642'
p424
ag295
aS'95631564'
p425
ag32
aS'5368702'
p426
ag258
ag269
aS'66701209'
p427
ag81
aS'13284244'
p428
ag13
ag350
aS'80135353'
p429
ag125
ag271
aS'15911353'
p430
ag336
aS'7957843'
p431
aS'76802764'
p432
aS'48503689'
p433
ag79
aS'94687383'
p434
aS'10792879'
p435
ag78
ag369
aS'88855695'
p436
aS'2079771'
p437
aS'54772132'
p438
aS'79033175'
p439
aS'79167252'
p440
aS'13911001'
p441
asg55
S'40'
p442
sg56
(ischedule
Group
p443
(dp444
g8
g419
sg61
S'Compilerbouw2'
p445
sbsg57
(iread_data
Room
p446
(dp447
g55
g60
sg61
g62
sbsg63
g109
sg65
g184
sg61
S'Compilerbouw'
p448
sba(ischedule
Activity
p449
(dp450
g8
(lp451
g49
aS'50184318'
p452
ag292
aS'64228258'
p453
aS'42778953'
p454
aS'1696500'
p455
ag230
aS'86000192'
p456
aS'61443567'
p457
aS'62701040'
p458
aS'17222374'
p459
aS'1665980'
p460
aS'35330349'
p461
ag117
ag189
aS'64393888'
p462
aS'29474737'
p463
ag209
ag121
aS'13534377'
p464
asg55
S'20'
p465
sg56
(ischedule
Group
p466
(dp467
g8
g451
sg61
S'Collectieve Intelligentie4'
p468
sbsg57
(iread_data
Room
p469
(dp470
g55
g413
sg61
g414
sbsg63
g137
sg65
S'4'
p471
sg61
S'Collectieve Intelligentie'
p472
sba(ischedule
Activity
p473
(dp474
g8
(lp475
S'72586808'
p476
ag251
ag256
ag349
ag88
aS'34243356'
p477
aS'43027916'
p478
aS'64296965'
p479
ag26
ag299
aS'72456780'
p480
aS'62613937'
p481
aS'51542218'
p482
aS'88737765'
p483
aS'5085194'
p484
ag90
aS'23658570'
p485
ag248
aS'23565001'
p486
ag205
aS'83443653'
p487
ag204
aS'5595824'
p488
aS'16097870'
p489
aS'94955328'
p490
aS'33672995'
p491
aS'97019450'
p492
ag405
aS'14637758'
p493
aS'80188025'
p494
aS'82854435'
p495
aS'78822885'
p496
aS'52311353'
p497
ag29
ag255
aS'73350019'
p498
ag237
aS'42115591'
p499
aS'97838175'
p500
ag252
aS'18477924'
p501
aS'34900967'
p502
ag364
aS'4921119'
p503
aS'58480929'
p504
aS'56544130'
p505
ag284
ag48
ag282
asg55
I1000
sg56
Nsg57
(iread_data
Room
p506
(dp507
g55
g107
sg61
g108
sbsg63
g64
sg65
I0
sg61
S'Analysemethoden en -technieken'
p508
sba(ischedule
Activity
p509
(dp510
g8
(lp511
g363
ag72
ag147
ag231
aS'86291592'
p512
aS'31416266'
p513
aS'77240949'
p514
ag365
ag347
aS'1075391'
p515
aS'33760909'
p516
aS'53107172'
p517
aS'73980360'
p518
aS'97135019'
p519
ag385
aS'76123484'
p520
aS'17575088'
p521
aS'46052388'
p522
ag76
aS'51741554'
p523
asg55
g465
sg56
(ischedule
Group
p524
(dp525
g8
g511
sg61
S'Collectieve Intelligentie2'
p526
sbsg57
(iread_data
Room
p527
(dp528
g55
g357
sg61
g358
sbsg63
g137
sg65
g184
sg61
g472
sba(ischedule
Activity
p529
(dp530
g8
(lp531
g39
ag12
ag156
aS'19058315'
p532
ag289
aS'38499176'
p533
ag249
aS'59887191'
p534
ag246
aS'72665524'
p535
aS'26207525'
p536
asg55
S'20'
p537
sg56
(ischedule
Group
p538
(dp539
g8
g531
sg61
S'Netwerken en systeembeveiliging3'
p540
sbsg57
(iread_data
Room
p541
(dp542
g55
g182
sg61
g183
sbsg63
g137
sg65
S'3'
p543
sg61
S'Netwerken en systeembeveiliging'
p544
sba(ischedule
Activity
p545
(dp546
g8
(lp547
g17
ag36
ag50
ag38
ag27
ag45
ag22
ag19
ag18
ag42
ag40
ag46
ag34
asg55
S'20'
p548
sg56
(ischedule
Group
p549
(dp550
g8
g547
sg61
S'Bioinformatica3'
p551
sbsg57
(iread_data
Room
p552
(dp553
g55
g135
sg61
g136
sbsg63
g109
sg65
g543
sg61
g66
sba(ischedule
Activity
p554
(dp555
g8
(lp556
g155
ag200
aS'88596522'
p557
aS'65675896'
p558
aS'23215240'
p559
ag392
aS'71839156'
p560
aS'1695839'
p561
ag193
ag75
aS'63634350'
p562
aS'5892092'
p563
asg55
S'15'
p564
sg56
(ischedule
Group
p565
(dp566
g8
g556
sg61
S'Compilerbouw practicum2'
p567
sbsg57
(iread_data
Room
p568
(dp569
g55
g216
sg61
g217
sbsg63
g137
sg65
g184
sg61
S'Compilerbouw practicum'
p570
sbaa(lp571
(ischedule
Activity
p572
(dp573
g8
g268
sg55
S'40'
p574
sg56
g305
sg57
(iread_data
Room
p575
(dp576
g55
g182
sg61
g183
sbsg63
g137
sg65
g110
sg61
g310
sba(ischedule
Activity
p577
(dp578
g8
(lp579
g146
ag43
aS'72652638'
p580
ag489
ag126
ag372
ag248
ag478
ag175
aS'85236626'
p581
ag39
aS'31897288'
p582
ag516
ag145
ag339
ag562
ag227
aS'5739011'
p583
ag457
ag85
aS'1886996'
p584
ag205
aS'52304977'
p585
aS'81022997'
p586
ag201
aS'58736785'
p587
aS'15249775'
p588
aS'83869542'
p589
aS'82968410'
p590
aS'670011'
p591
ag254
aS'35315956'
p592
asg55
I1000
sg56
Nsg57
(iread_data
Room
p593
(dp594
g55
g107
sg61
g108
sbsg63
g64
sg65
I0
sg61
S'Heuristieken 2'
p595
sba(ischedule
Activity
p596
(dp597
g8
(lp598
g95
ag100
aS'8557857'
p599
ag404
ag406
ag458
ag87
ag368
aS'75585647'
p600
aS'17496687'
p601
ag72
ag35
ag335
ag405
ag225
aS'23257088'
p602
ag161
ag403
aS'92977271'
p603
ag74
aS'19958553'
p604
asg55
I1000
sg56
Nsg57
(iread_data
Room
p605
(dp606
g55
g135
sg61
g136
sbsg63
g64
sg65
I0
sg61
g415
sba(ischedule
Activity
p607
(dp608
g8
(lp609
g37
ag230
ag73
ag260
ag246
ag234
ag30
ag251
ag120
ag223
ag224
ag228
ag242
ag231
ag261
ag194
asg55
S'20'
p610
sg56
(ischedule
Group
p611
(dp612
g8
g609
sg61
S'Reflectie op de digitale cultuur2'
p613
sbsg57
(iread_data
Room
p614
(dp615
g55
g60
sg61
g62
sbsg63
g109
sg65
g184
sg61
g265
sba(ischedule
Activity
p616
(dp617
g8
(lp618
S'27064249'
p619
ag347
ag76
ag364
ag317
ag343
ag345
aS'47477884'
p620
ag535
ag243
ag15
aS'86807027'
p621
ag196
ag229
ag481
aS'92665222'
p622
aS'39429093'
p623
asg55
S'10'
p624
sg56
(ischedule
Group
p625
(dp626
g8
g618
sg61
S'Advanced Heuristics2'
p627
sbsg57
(iread_data
Room
p628
(dp629
g55
g413
sg61
g414
sbsg63
g137
sg65
g184
sg61
S'Advanced Heuristics'
p630
sba(ischedule
Activity
p631
(dp632
g8
g547
sg55
S'20'
p633
sg56
g549
sg57
(iread_data
Room
p634
(dp635
g55
g357
sg61
g358
sbsg63
g137
sg65
g543
sg61
g66
sba(ischedule
Activity
p636
(dp637
g8
(lp638
S'6939933'
p639
asg55
S'15'
p640
sg56
(ischedule
Group
p641
(dp642
g8
g638
sg61
S'Project Numerical Recipes1'
p643
sbsg57
(iread_data
Room
p644
(dp645
g55
g216
sg61
g217
sbsg63
g137
sg65
g110
sg61
S'Project Numerical Recipes'
p646
sbaa(lp647
(ischedule
Activity
p648
(dp649
g8
g142
sg55
S'25'
p650
sg56
g177
sg57
(iread_data
Room
p651
(dp652
g55
g182
sg61
g183
sbsg63
g137
sg65
g184
sg61
g185
sba(ischedule
Activity
p653
(dp654
g8
(lp655
g44
ag363
ag251
aS'36508571'
p656
ag28
ag489
asg55
S'10'
p657
sg56
(ischedule
Group
p658
(dp659
g8
g655
sg61
S'Autonomous Agents 22'
p660
sbsg57
(iread_data
Room
p661
(dp662
g55
g413
sg61
g414
sbsg63
g137
sg65
g184
sg61
S'Autonomous Agents 2'
p663
sba(ischedule
Activity
p664
(dp665
g8
(lp666
g94
aS'69086548'
p667
ag80
ag78
ag70
ag75
ag79
ag95
aS'93041523'
p668
ag73
ag87
ag89
ag91
ag92
ag99
ag45
ag77
ag84
ag270
aS'77264363'
p669
ag71
ag74
ag81
ag98
ag85
ag86
ag90
ag97
ag100
ag76
ag93
ag29
ag96
ag88
ag72
ag83
ag82
ag353
asg55
I1000
sg56
Nsg57
(iread_data
Room
p670
(dp671
g55
g216
sg61
g217
sbsg63
g64
sg65
I0
sg61
g111
sba(ischedule
Activity
p672
(dp673
g8
g451
sg55
S'20'
p674
sg56
g466
sg57
(iread_data
Room
p675
(dp676
g55
g107
sg61
g108
sbsg63
g109
sg65
g471
sg61
g472
sba(ischedule
Activity
p677
(dp678
g8
g334
sg55
I1000
sg56
Nsg57
(iread_data
Room
p679
(dp680
g55
g60
sg61
g62
sbsg63
g64
sg65
I0
sg61
g359
sba(ischedule
Activity
p681
(dp682
g8
(lp683
g406
ag39
ag35
aS'97136582'
p684
ag289
aS'68360259'
p685
ag497
asg55
S'10'
p686
sg56
(ischedule
Group
p687
(dp688
g8
g683
sg61
S'Data Mining1'
p689
sbsg57
(iread_data
Room
p690
(dp691
g55
g357
sg61
g358
sbsg63
g109
sg65
g110
sg61
S'Data Mining'
p692
sba(ischedule
Activity
p693
(dp694
g8
(lp695
S'91139627'
p696
aS'82688900'
p697
ag250
aS'59075181'
p698
aS'51186803'
p699
aS'99272880'
p700
ag33
ag92
ag270
aS'65003379'
p701
ag227
aS'81218347'
p702
ag404
ag118
ag199
ag296
aS'79858178'
p703
ag477
ag166
ag34
aS'49631542'
p704
aS'39230359'
p705
aS'56988998'
p706
ag348
ag53
aS'76924297'
p707
ag278
ag349
ag170
ag533
aS'63408522'
p708
aS'34262212'
p709
ag435
aS'10872825'
p710
aS'23391676'
p711
ag479
ag226
ag43
ag514
aS'9731271'
p712
ag24
aS'39659121'
p713
aS'24875739'
p714
ag366
ag234
aS'27187154'
p715
aS'72547110'
p716
ag499
ag224
ag206
ag243
ag482
aS'39919665'
p717
aS'38329455'
p718
aS'44940353'
p719
aS'91196968'
p720
ag87
ag492
aS'79366078'
p721
aS'54310617'
p722
ag294
aS'78735049'
p723
ag167
aS'37498675'
p724
ag291
ag490
ag387
aS'47605891'
p725
aS'63955238'
p726
aS'58469172'
p727
ag156
ag405
aS'5615125'
p728
ag269
ag54
aS'32705005'
p729
ag667
ag18
aS'74182182'
p730
aS'47462856'
p731
ag165
ag562
aS'17823206'
p732
ag426
asg55
I1000
sg56
Nsg57
(iread_data
Room
p733
(dp734
g55
g135
sg61
g136
sbsg63
g64
sg65
I0
sg61
S'Kansrekenen 2'
p735
sbaaa(lp736
(lp737
(ischedule
Activity
p738
(dp739
g8
(lp740
g71
ag20
ag25
ag189
ag499
ag288
ag302
ag158
ag99
ag270
aS'58074656'
p741
ag116
ag354
ag272
ag297
ag284
aS'14072826'
p742
ag301
aS'4546613'
p743
ag143
ag269
ag372
ag275
ag10
ag300
ag32
ag276
ag341
ag299
ag298
ag11
ag295
ag271
ag291
ag293
ag258
ag41
ag289
ag280
ag425
ag279
ag199
aS'27582862'
p744
ag170
ag145
ag273
ag290
ag70
ag259
ag14
ag283
ag237
ag167
ag296
ag292
ag154
ag285
ag294
ag171
ag44
ag303
ag277
ag286
ag251
ag278
ag351
ag497
ag281
ag282
ag287
ag121
ag203
ag274
ag155
ag53
asg55
I1000
sg56
Nsg57
(iread_data
Room
p745
(dp746
g55
g135
sg61
g136
sbsg63
g64
sg65
I0
sg61
g310
sba(ischedule
Activity
p747
(dp748
g8
g598
sg55
I1000
sg56
Nsg57
(iread_data
Room
p749
(dp750
g55
g60
sg61
g62
sbsg63
g64
sg65
I0
sg61
g415
sba(ischedule
Activity
p751
(dp752
g8
(lp753
g160
ag24
ag51
ag346
ag423
ag421
ag422
ag424
ag97
ag520
ag353
ag153
ag420
ag318
aS'56121590'
p754
ag151
aS'70072978'
p755
ag620
aS'40141996'
p756
ag503
ag204
aS'47932106'
p757
ag191
ag391
ag591
ag262
ag479
ag482
aS'56872729'
p758
ag162
ag150
ag49
ag536
ag18
aS'94686490'
p759
ag22
ag245
ag23
aS'75005528'
p760
ag480
ag202
ag704
aS'25077484'
p761
aS'15187217'
p762
aS'12091019'
p763
ag229
aS'73823548'
p764
ag231
asg55
S'40'
p765
sg56
(ischedule
Group
p766
(dp767
g8
g753
sg61
S'Databases 21'
p768
sbsg57
(iread_data
Room
p769
(dp770
g55
g107
sg61
g108
sbsg63
g109
sg65
g110
sg61
S'Databases 2'
p771
sba(ischedule
Activity
p772
(dp773
g8
(lp774
g192
ag454
aS'65960683'
p775
ag512
ag227
ag33
ag622
ag38
ag477
ag96
ag488
aS'8464817'
p776
aS'2317551'
p777
aS'95007221'
p778
aS'30658799'
p779
aS'43689934'
p780
aS'65852230'
p781
aS'40791377'
p782
ag40
aS'98105190'
p783
aS'88636924'
p784
ag148
ag715
ag370
aS'34110913'
p785
aS'9067939'
p786
aS'75759231'
p787
aS'3407554'
p788
asg55
g442
sg56
(ischedule
Group
p789
(dp790
g8
g774
sg61
S'Compilerbouw1'
p791
sbsg57
(iread_data
Room
p792
(dp793
g55
g216
sg61
g217
sbsg63
g109
sg65
g110
sg61
g448
sba(ischedule
Activity
p794
(dp795
g8
(lp796
g146
ag39
ag516
ag457
ag586
ag478
ag584
ag592
ag589
ag339
ag43
ag248
ag489
ag585
ag580
ag205
ag590
ag581
ag582
ag254
ag175
ag588
ag583
ag562
ag201
ag587
ag85
ag126
asg55
S'20'
p797
sg56
(ischedule
Group
p798
(dp799
g8
g796
sg61
S'Heuristieken 21'
p800
sbsg57
(iread_data
Room
p801
(dp802
g55
g182
sg61
g183
sbsg63
g109
sg65
g110
sg61
g595
sbaa(lp803
(ischedule
Activity
p804
(dp805
g8
(lp806
g78
ag13
ag125
ag431
ag423
ag33
ag190
ag420
ag438
ag370
ag437
ag432
ag425
ag427
ag782
ag788
ag781
ag148
ag787
ag421
ag192
ag38
ag454
ag512
ag786
ag160
ag776
ag71
ag350
ag441
ag775
ag422
ag429
ag784
ag780
ag779
ag79
ag622
ag295
ag778
ag434
ag96
ag440
ag74
ag424
ag271
ag435
ag430
ag477
ag32
ag777
ag436
ag715
ag346
ag785
ag227
ag426
ag783
ag488
ag174
ag369
ag428
ag439
ag40
ag433
ag269
ag258
ag336
ag81
asg55
I1000
sg56
Nsg57
g745
sg63
g64
sg65
I0
sg61
g448
sba(ischedule
Activity
p807
(dp808
g8
(lp809
g121
ag146
ag404
ag290
ag478
ag602
ag589
ag459
aS'13132925'
p810
ag344
ag484
aS'37701751'
p811
aS'59397895'
p812
aS'27123462'
p813
aS'62736669'
p814
aS'54540997'
p815
ag485
aS'56191333'
p816
ag230
ag168
ag75
aS'58083680'
p817
ag363
ag15
asg55
g765
sg56
(ischedule
Group
p818
(dp819
g8
g809
sg61
S'Databases 22'
p820
sbsg57
(iread_data
Room
p821
(dp822
g55
g182
sg61
g183
sbsg63
g109
sg65
g184
sg61
g771
sba(ischedule
Activity
p823
(dp824
g8
(lp825
g603
ag72
ag348
ag156
ag698
ag352
ag314
ag54
ag587
aS'4353500'
p826
ag251
ag95
ag702
ag299
ag24
ag560
ag283
ag73
ag492
aS'14941752'
p827
aS'19858730'
p828
ag517
ag292
aS'87210640'
p829
aS'79879876'
p830
ag51
ag455
aS'66122625'
p831
ag364
ag70
aS'76393508'
p832
ag153
ag97
aS'20830477'
p833
ag582
ag225
ag365
aS'53775014'
p834
asg55
S'25'
p835
sg56
(ischedule
Group
p836
(dp837
g8
g825
sg61
S'Heuristieken 12'
p838
sbsg57
(iread_data
Room
p839
(dp840
g55
g107
sg61
g108
sbsg63
g109
sg65
g184
sg61
S'Heuristieken 1'
p841
sba(ischedule
Activity
p842
(dp843
g8
(lp844
g25
ag354
ag351
ag248
ag223
ag353
ag347
ag372
ag520
ag80
aS'2416751'
p845
aS'66034145'
p846
ag619
ag208
ag457
ag453
ag705
aS'28358060'
p847
aS'14303208'
p848
ag40
ag151
aS'1137946'
p849
ag728
aS'76648468'
p850
aS'20618153'
p851
aS'24891081'
p852
asg55
S'20'
p853
sg56
(ischedule
Group
p854
(dp855
g8
g844
sg61
S'Webprogrammeren en databases1'
p856
sbsg57
(iread_data
Room
p857
(dp858
g55
g216
sg61
g217
sbsg63
g137
sg65
g110
sg61
g331
sba(ischedule
Activity
p859
(dp860
g8
(lp861
g28
ag720
aS'45414528'
p862
ag36
aS'93023961'
p863
aS'19337738'
p864
aS'87314964'
p865
ag242
ag155
asg55
g686
sg56
(ischedule
Group
p866
(dp867
g8
g861
sg61
S'Data Mining2'
p868
sbsg57
(iread_data
Room
p869
(dp870
g55
g357
sg61
g358
sbsg63
g109
sg65
g184
sg61
g692
sba(ischedule
Activity
p871
(dp872
g8
g683
sg55
S'10'
p873
sg56
g687
sg57
(iread_data
Room
p874
(dp875
g55
g413
sg61
g414
sbsg63
g137
sg65
g110
sg61
g692
sbaa(lp876
(ischedule
Activity
p877
(dp878
g8
(lp879
g25
ag31
ag10
ag53
ag13
ag23
ag29
ag37
ag28
ag43
ag39
ag41
ag26
ag47
ag24
ag48
ag15
ag44
ag11
ag35
ag52
ag20
ag32
asg55
g633
sg56
(ischedule
Group
p880
(dp881
g8
g879
sg61
S'Bioinformatica2'
p882
sbsg57
(iread_data
Room
p883
(dp884
g55
g60
sg61
g62
sbsg63
g137
sg65
g184
sg61
g66
sba(ischedule
Activity
p885
(dp886
g8
g362
sg55
S'20'
p887
sg56
g376
sg57
(iread_data
Room
p888
(dp889
g55
g216
sg61
g217
sbsg63
g109
sg65
g184
sg61
g381
sba(ischedule
Activity
p890
(dp891
g8
(lp892
g77
ag38
aS'7386961'
p893
ag512
ag833
ag513
ag709
ag294
aS'51791169'
p894
aS'93566383'
p895
ag755
ag533
aS'39905995'
p896
ag199
ag490
ag744
ag559
ag319
aS'26857113'
p897
ag18
ag260
ag255
aS'73893840'
p898
ag851
asg55
g129
sg56
(ischedule
Group
p899
(dp900
g8
g892
sg61
S'Programmeren in Java 24'
p901
sbsg57
(iread_data
Room
p902
(dp903
g55
g135
sg61
g136
sbsg63
g137
sg65
g471
sg61
g139
sba(ischedule
Activity
p904
(dp905
g8
(lp906
g149
ag165
ag172
ag174
ag144
ag168
ag147
ag159
ag50
ag150
ag171
ag148
ag146
ag145
ag169
ag155
ag344
ag173
ag166
ag170
ag161
ag154
ag163
ag153
ag36
ag79
ag158
ag143
ag152
ag557
ag127
ag276
ag160
ag243
ag156
ag164
ag157
ag175
ag151
ag460
ag162
ag167
aS'67817269'
p907
asg55
I1000
sg56
Nsg57
(iread_data
Room
p908
(dp909
g55
g107
sg61
g108
sbsg63
g64
sg65
I0
sg61
g185
sba(ischedule
Activity
p910
(dp911
g8
(lp912
g270
ag230
ag343
ag124
ag271
ag83
ag621
ag17
ag78
aS'19662602'
p913
ag428
ag433
ag827
ag420
aS'37419523'
p914
aS'34691309'
p915
asg55
g640
sg56
(ischedule
Group
p916
(dp917
g8
g912
sg61
S'Project Numerical Recipes2'
p918
sbsg57
(iread_data
Room
p919
(dp920
g55
g413
sg61
g414
sbsg63
g137
sg65
g184
sg61
g646
sba(ischedule
Activity
p921
(dp922
g8
(lp923
g49
ag12
ag14
ag54
ag30
ag21
ag16
ag51
ag33
asg55
g633
sg56
(ischedule
Group
p924
(dp925
g8
g923
sg61
S'Bioinformatica1'
p926
sbsg57
(iread_data
Room
p927
(dp928
g55
g357
sg61
g358
sbsg63
g137
sg65
g110
sg61
g66
sbaa(lp929
(ischedule
Activity
p930
(dp931
g8
(lp932
g25
ag40
ag353
ag318
ag316
ag354
ag248
ag705
ag319
ag728
ag321
ag324
ag347
ag852
ag149
ag317
ag223
ag846
ag151
ag314
ag619
ag851
ag208
ag453
ag849
ag351
ag850
ag372
ag520
ag322
ag848
ag148
ag315
ag457
ag320
ag847
ag845
ag80
ag323
asg55
I1000
sg56
Nsg57
(iread_data
Room
p933
(dp934
g55
g135
sg61
g136
sbsg63
g64
sg65
I0
sg61
g331
sba(ischedule
Activity
p935
(dp936
g8
(lp937
g365
ag119
ag231
ag369
ag204
ag171
ag374
ag452
ag368
ag194
aS'49219163'
p938
ag27
ag779
ag373
aS'13218321'
p939
ag704
aS'3883025'
p940
ag367
ag150
ag404
ag755
aS'48198668'
p941
ag280
ag441
ag366
aS'96082155'
p942
ag71
aS'66621166'
p943
ag372
ag97
ag370
aS'18144425'
p944
ag336
ag23
aS'1181560'
p945
ag351
ag122
ag389
aS'41489515'
p946
ag29
ag74
ag731
aS'51650744'
p947
ag364
ag363
ag238
ag371
ag45
ag72
aS'58699305'
p948
ag459
ag47
ag249
ag302
asg55
I1000
sg56
Nsg57
(iread_data
Room
p949
(dp950
g55
g182
sg61
g183
sbsg63
g64
sg65
I0
sg61
g381
sba(ischedule
Activity
p951
(dp952
g8
(lp953
g252
aS'70939718'
p954
ag174
ag455
ag17
ag816
ag343
ag19
ag96
ag477
ag158
ag698
aS'63573738'
p955
ag684
aS'85284256'
p956
aS'5590289'
p957
aS'21677389'
p958
aS'16912993'
p959
ag301
aS'53267490'
p960
ag344
ag121
aS'25557516'
p961
ag153
aS'535689'
p962
ag205
ag523
aS'12170832'
p963
ag712
ag296
aS'25330192'
p964
ag814
ag826
ag476
asg55
g537
sg56
(ischedule
Group
p965
(dp966
g8
g953
sg61
S'Netwerken en systeembeveiliging4'
p967
sbsg57
(iread_data
Room
p968
(dp969
g55
g60
sg61
g62
sbsg63
g137
sg65
g471
sg61
g544
sba(ischedule
Activity
p970
(dp971
g8
(lp972
g73
ag144
ag146
ag386
ag269
ag203
ag421
aS'61611295'
p973
ag290
ag828
aS'70113753'
p974
aS'34806836'
p975
ag424
ag95
asg55
g657
sg56
(ischedule
Group
p976
(dp977
g8
g972
sg61
S'Autonomous Agents 21'
p978
sbsg57
(iread_data
Room
p979
(dp980
g55
g107
sg61
g108
sbsg63
g137
sg65
g110
sg61
g663
sba(ischedule
Activity
p981
(dp982
g8
(lp983
S'88597745'
p984
ag76
ag260
ag197
aS'82233873'
p985
ag262
ag534
ag50
ag500
ag786
ag38
ag229
ag120
ag242
asg55
g393
sg56
(ischedule
Group
p986
(dp987
g8
g983
sg61
S'Zoeken sturen en bewegen3'
p988
sbsg57
(iread_data
Room
p989
(dp990
g55
g216
sg61
g217
sbsg63
g137
sg65
g543
sg61
g399
sba(ischedule
Activity
p991
(dp992
g8
g923
sg55
g548
sg56
g924
sg57
(iread_data
Room
p993
(dp994
g55
g413
sg61
g414
sbsg63
g109
sg65
g110
sg61
g66
sbaa(lp995
(ischedule
Activity
p996
(dp997
g8
(lp998
g272
aS'62872965'
p999
asg55
g657
sg56
(ischedule
Group
p1000
(dp1001
g8
g998
sg61
S'Autonomous Agents 23'
p1002
sbsg57
(iread_data
Room
p1003
(dp1004
g55
g357
sg61
g358
sbsg63
g137
sg65
g543
sg61
g663
sba(ischedule
Activity
p1005
(dp1006
g8
g9
sg55
I1000
sg56
Nsg57
(iread_data
Room
p1007
(dp1008
g55
g107
sg61
g108
sbsg63
g64
sg65
I0
sg61
g66
sba(ischedule
Activity
p1009
(dp1010
g8
(lp1011
g143
ag372
ag237
ag251
ag259
ag145
ag351
ag341
ag354
ag258
ag741
ag499
ag743
ag744
ag425
ag497
ag742
asg55
g304
sg56
(ischedule
Group
p1012
(dp1013
g8
g1011
sg61
S'Software engineering2'
p1014
sbsg57
(iread_data
Room
p1015
(dp1016
g55
g135
sg61
g136
sbsg63
g109
sg65
g184
sg61
g310
sba(ischedule
Activity
p1017
(dp1018
g8
g511
sg55
g674
sg56
g524
sg57
(iread_data
Room
p1019
(dp1020
g55
g182
sg61
g183
sbsg63
g109
sg65
g184
sg61
g472
sba(ischedule
Activity
p1021
(dp1022
g8
g972
sg55
S'10'
p1023
sg56
g976
sg57
(iread_data
Room
p1024
(dp1025
g55
g60
sg61
g62
sbsg63
g109
sg65
g110
sg61
g663
sba(ischedule
Activity
p1026
(dp1027
g8
(lp1028
g344
ag79
ag460
ag50
ag276
ag36
ag557
ag127
ag907
ag243
asg55
g650
sg56
(ischedule
Group
p1029
(dp1030
g8
g1028
sg61
S'Algoritmen en complexiteit1'
p1031
sbsg57
(iread_data
Room
p1032
(dp1033
g55
g413
sg61
g414
sbsg63
g137
sg65
g110
sg61
g185
sba(ischedule
Activity
p1034
(dp1035
g8
g313
sg55
g853
sg56
g326
sg57
(iread_data
Room
p1036
(dp1037
g55
g216
sg61
g217
sbsg63
g137
sg65
g184
sg61
g331
sbaaa(lp1038
(lp1039
(ischedule
Activity
p1040
(dp1041
g8
g695
sg55
I1000
sg56
Nsg57
(iread_data
Room
p1042
(dp1043
g55
g135
sg61
g136
sbsg63
g64
sg65
I0
sg61
g735
sba(ischedule
Activity
p1044
(dp1045
g8
(lp1046
g251
ag146
ag44
ag272
ag974
ag421
ag656
ag828
ag203
ag95
ag269
ag999
ag424
ag363
ag73
ag489
ag386
ag975
ag973
ag290
ag144
ag28
asg55
I1000
sg56
Nsg57
(iread_data
Room
p1047
(dp1048
g55
g357
sg61
g358
sbsg63
g64
sg65
I0
sg61
g663
sba(ischedule
Activity
p1049
(dp1050
g8
g932
sg55
I1000
sg56
Nsg57
(iread_data
Room
p1051
(dp1052
g55
g107
sg61
g108
sbsg63
g64
sg65
I0
sg61
g331
sba(ischedule
Activity
p1053
(dp1054
g8
g1028
sg55
g176
sg56
g1029
sg57
(iread_data
Room
p1055
(dp1056
g55
g216
sg61
g217
sbsg63
g109
sg65
g110
sg61
g185
sba(ischedule
Activity
p1057
(dp1058
g8
(lp1059
g783
ag621
aS'97417002'
p1060
aS'45660925'
p1061
ag487
ag10
asg55
g835
sg56
(ischedule
Group
p1062
(dp1063
g8
g1059
sg61
S'Heuristieken 11'
p1064
sbsg57
(iread_data
Room
p1065
(dp1066
g55
g413
sg61
g414
sbsg63
g109
sg65
g110
sg61
g841
sba(ischedule
Activity
p1067
(dp1068
g8
(lp1069
g150
ag231
ag45
ag194
ag238
ag302
ag280
ag336
ag29
ag249
ag948
ag938
ag23
ag459
ag779
ag452
ag939
ag940
ag946
ag171
ag943
ag74
ag941
asg55
g887
sg56
(ischedule
Group
p1070
(dp1071
g8
g1069
sg61
S'Moderne Databases3'
p1072
sbsg57
(iread_data
Room
p1073
(dp1074
g55
g182
sg61
g183
sbsg63
g109
sg65
g543
sg61
g381
sbaa(lp1075
(ischedule
Activity
p1076
(dp1077
g8
(lp1078
g315
ag93
ag489
ag999
aS'34588570'
p1079
ag363
ag149
ag297
ag286
ag720
ag490
ag461
ag758
aS'80998260'
p1080
ag533
ag656
ag497
aS'32595335'
p1081
aS'16011419'
p1082
aS'66570705'
p1083
ag385
ag389
ag591
ag78
aS'96118484'
p1084
ag294
ag454
aS'26172512'
p1085
ag513
ag340
ag503
ag203
ag486
ag759
ag283
ag730
ag49
aS'79937969'
p1086
ag120
ag895
ag702
aS'90743504'
p1087
ag760
ag477
ag174
ag42
ag88
ag499
ag560
aS'21311067'
p1088
aS'54074680'
p1089
aS'55412918'
p1090
ag54
ag422
asg55
I1000
sg56
Nsg57
(iread_data
Room
p1091
(dp1092
g55
g182
sg61
g183
sbsg63
g64
sg65
I0
sg61
S'Lineaire Algebra'
p1093
sba(ischedule
Activity
p1094
(dp1095
g8
g9
sg55
I1000
sg56
Nsg57
(iread_data
Room
p1096
(dp1097
g55
g135
sg61
g136
sbsg63
g64
sg65
I0
sg61
g66
sba(ischedule
Activity
p1098
(dp1099
g8
(lp1100
g70
ag73
ag146
ag831
ag732
aS'98780382'
p1101
ag241
ag124
ag586
ag964
aS'87900893'
p1102
asg55
g686
sg56
(ischedule
Group
p1103
(dp1104
g8
g1100
sg61
S'Data Mining3'
p1105
sbsg57
(iread_data
Room
p1106
(dp1107
g55
g60
sg61
g62
sbsg63
g109
sg65
g543
sg61
g692
sba(ischedule
Activity
p1108
(dp1109
g8
(lp1110
g72
ag74
ag335
ag368
ag225
ag600
ag599
ag601
ag87
ag458
ag604
ag603
ag161
ag602
ag100
asg55
S'15'
p1111
sg56
(ischedule
Group
p1112
(dp1113
g8
g1110
sg61
S'Informatie- en organisatieontwerp1'
p1114
sbsg57
(iread_data
Room
p1115
(dp1116
g55
g413
sg61
g414
sbsg63
g137
sg65
g110
sg61
g415
sba(ischedule
Activity
p1117
(dp1118
g8
(lp1119
g163
ag239
ag199
aS'90067329'
p1120
ag349
ag706
ag581
ag782
ag715
aS'67625383'
p1121
ag145
ag289
ag424
ag514
ag897
ag350
ag437
ag47
ag226
aS'33252501'
p1122
ag119
ag224
asg55
I1000
sg56
Nsg57
(iread_data
Room
p1123
(dp1124
g55
g107
sg61
g108
sbsg63
g64
sg65
I0
sg61
S'Machine Learning'
p1125
sba(ischedule
Activity
p1126
(dp1127
g8
(lp1128
g441
ag143
ag848
ag94
ag403
ag788
ag198
aS'55103073'
p1129
ag460
ag962
aS'42297781'
p1130
ag164
ag352
asg55
g564
sg56
(ischedule
Group
p1131
(dp1132
g8
g1128
sg61
S'Compilerbouw practicum3'
p1133
sbsg57
(iread_data
Room
p1134
(dp1135
g55
g357
sg61
g358
sbsg63
g137
sg65
g543
sg61
g570
sba(ischedule
Activity
p1136
(dp1137
g8
(lp1138
g519
ag940
ag512
aS'123355'
p1139
ag229
ag438
ag95
ag206
ag405
aS'62363761'
p1140
ag166
ag431
ag223
asg55
g537
sg56
(ischedule
Group
p1141
(dp1142
g8
g1138
sg61
S'Netwerken en systeembeveiliging2'
p1143
sbsg57
(iread_data
Room
p1144
(dp1145
g55
g216
sg61
g217
sbsg63
g137
sg65
g184
sg61
g544
sbaa(lp1146
(ischedule
Activity
p1147
(dp1148
g8
g666
sg55
I1000
sg56
Nsg57
(iread_data
Room
p1149
(dp1150
g55
g135
sg61
g136
sbsg63
g64
sg65
I0
sg61
g111
sba(ischedule
Activity
p1151
(dp1152
g8
(lp1153
g160
ag24
ag424
ag156
ag163
aS'37279234'
p1154
ag422
ag27
aS'54395877'
p1155
ag440
ag273
ag457
ag588
ag429
ag732
ag984
ag161
ag238
ag581
ag776
ag37
ag956
asg55
g129
sg56
(ischedule
Group
p1156
(dp1157
g8
g1153
sg61
S'Programmeren in Java 26'
p1158
sbsg57
(iread_data
Room
p1159
(dp1160
g55
g357
sg61
g358
sbsg63
g137
sg65
S'6'
p1161
sg61
g139
sba(ischedule
Activity
p1162
(dp1163
g8
(lp1164
g40
ag144
ag365
ag21
aS'59220392'
p1165
ag26
aS'33946407'
p1166
ag519
ag279
aS'13210212'
p1167
ag726
ag406
ag225
ag169
aS'24167153'
p1168
ag520
aS'37804282'
p1169
asg55
g393
sg56
(ischedule
Group
p1170
(dp1171
g8
g1164
sg61
S'Zoeken sturen en bewegen1'
p1172
sbsg57
(iread_data
Room
p1173
(dp1174
g55
g413
sg61
g414
sbsg63
g137
sg65
g110
sg61
g399
sba(ischedule
Activity
p1175
(dp1176
g8
(lp1177
g777
ag147
ag245
ag591
ag249
ag164
ag485
ag492
ag621
ag862
ag274
ag562
aS'88263855'
p1178
ag974
ag458
ag168
ag715
ag462
ag404
ag281
ag322
aS'3678531'
p1179
ag620
ag433
ag830
ag456
aS'64053722'
p1180
aS'63096281'
p1181
ag438
ag727
ag165
ag434
ag711
ag845
asg55
g129
sg56
(ischedule
Group
p1182
(dp1183
g8
g1177
sg61
S'Programmeren in Java 21'
p1184
sbsg57
(iread_data
Room
p1185
(dp1186
g55
g107
sg61
g108
sbsg63
g137
sg65
g110
sg61
g139
sba(ischedule
Activity
p1187
(dp1188
g8
(lp1189
g48
ag43
ag41
ag369
aS'40911986'
p1190
ag278
ag32
ag512
ag730
aS'90103047'
p1191
aS'32183908'
p1192
ag148
ag764
ag454
ag760
ag955
ag224
ag123
aS'63939720'
p1193
ag586
aS'19214659'
p1194
aS'81116418'
p1195
ag253
ag244
ag272
aS'21070547'
p1196
ag431
asg55
g640
sg56
(ischedule
Group
p1197
(dp1198
g8
g1189
sg61
S'Project Numerical Recipes3'
p1199
sbsg57
(iread_data
Room
p1200
(dp1201
g55
g216
sg61
g217
sbsg63
g137
sg65
g543
sg61
g646
sba(ischedule
Activity
p1202
(dp1203
g8
g1011
sg55
g574
sg56
g1012
sg57
(iread_data
Room
p1204
(dp1205
g55
g60
sg61
g62
sbsg63
g137
sg65
g184
sg61
g310
sba(ischedule
Activity
p1206
(dp1207
g8
(lp1208
S'10702778'
p1209
ag602
aS'90296821'
p1210
ag603
ag712
ag289
aS'28943658'
p1211
ag720
ag36
ag502
ag52
aS'73196865'
p1212
asg55
g129
sg56
(ischedule
Group
p1213
(dp1214
g8
g1208
sg61
S'Programmeren in Java 23'
p1215
sbsg57
(iread_data
Room
p1216
(dp1217
g55
g182
sg61
g183
sbsg63
g137
sg65
g543
sg61
g139
sbaa(lp1218
(ischedule
Activity
p1219
(dp1220
g8
(lp1221
g72
ag464
ag147
ag519
ag75
ag457
ag458
ag192
ag516
ag363
ag121
ag231
ag514
ag520
ag288
ag521
ag337
ag365
ag459
ag189
aS'96104167'
p1222
ag275
ag17
ag347
ag515
ag49
ag33
ag454
ag344
ag775
aS'57595888'
p1223
ag422
ag209
ag722
ag512
ag271
ag155
ag518
ag292
ag287
ag461
ag76
ag523
ag517
ag117
ag452
ag479
ag455
ag463
ag456
ag462
ag460
ag478
ag453
ag77
ag522
ag36
aS'22699561'
p1224
ag230
ag385
ag513
asg55
I1000
sg56
Nsg57
g745
sg63
g64
sg65
I0
sg61
g472
sba(ischedule
Activity
p1225
(dp1226
g8
(lp1227
g38
ag239
ag1102
ag494
ag436
ag190
aS'79888156'
p1228
ag1165
ag440
aS'55530367'
p1229
aS'82412626'
p1230
ag18
ag197
ag1140
ag164
ag364
ag336
aS'11593163'
p1231
ag954
ag201
ag299
aS'10609762'
p1232
ag191
ag27
ag639
ag620
ag144
ag420
aS'23628642'
p1233
ag535
ag712
ag126
ag54
ag763
ag366
ag276
aS'81155296'
p1234
ag51
ag715
aS'6709529'
p1235
ag435
ag730
aS'19717077'
p1236
ag486
ag279
ag303
ag489
aS'38179241'
p1237
ag387
ag764
aS'56348773'
p1238
ag619
asg55
S'40'
p1239
sg56
(ischedule
Group
p1240
(dp1241
g8
g1227
sg61
S'Calculus 22'
p1242
sbsg57
(iread_data
Room
p1243
(dp1244
g55
g182
sg61
g183
sbsg63
g109
sg65
g184
sg61
S'Calculus 2'
p1245
sba(ischedule
Activity
p1246
(dp1247
g8
g879
sg55
g548
sg56
g880
sg57
(iread_data
Room
p1248
(dp1249
g55
g60
sg61
g62
sbsg63
g109
sg65
g184
sg61
g66
sba(ischedule
Activity
p1250
(dp1251
g8
g998
sg55
g1023
sg56
g1000
sg57
(iread_data
Room
p1252
(dp1253
g55
g216
sg61
g217
sbsg63
g109
sg65
g543
sg61
g663
sba(ischedule
Activity
p1254
(dp1255
g8
(lp1256
g584
ag246
ag34
asg55
g624
sg56
(ischedule
Group
p1257
(dp1258
g8
g1256
sg61
S'Advanced Heuristics1'
p1259
sbsg57
(iread_data
Room
p1260
(dp1261
g55
g357
sg61
g358
sbsg63
g137
sg65
g110
sg61
g630
sba(ischedule
Activity
p1262
(dp1263
g8
(lp1264
g160
ag227
ag256
ag238
ag243
ag250
ag229
ag253
ag259
ag236
ag258
ag241
ag248
ag262
ag225
ag254
ag237
ag255
asg55
g610
sg56
(ischedule
Group
p1265
(dp1266
g8
g1264
sg61
S'Reflectie op de digitale cultuur1'
p1267
sbsg57
(iread_data
Room
p1268
(dp1269
g55
g413
sg61
g414
sbsg63
g109
sg65
g110
sg61
g265
sba(ischedule
Activity
p1270
(dp1271
g8
(lp1272
g88
ag483
ag252
ag427
ag707
aS'75680261'
p1273
ag761
aS'55480737'
p1274
ag302
asg55
g210
sg56
(ischedule
Group
p1275
(dp1276
g8
g1272
sg61
S'Project Genetic Algorithms3'
p1277
sbsg57
(iread_data
Room
p1278
(dp1279
g55
g107
sg61
g108
sbsg63
g137
sg65
g543
sg61
g218
sbaa(lp1280
(ischedule
Activity
p1281
(dp1282
g8
(lp1283
g76
aS'69634191'
p1284
ag157
aS'20374340'
p1285
ag426
ag1194
ag811
ag39
ag958
ag123
aS'64768422'
p1286
ag317
ag743
ag1237
ag175
ag120
ag174
ag707
ag190
ag846
ag895
ag558
ag169
aS'28055464'
p1287
ag1234
asg55
I1000
sg56
Nsg57
(iread_data
Room
p1288
(dp1289
g55
g107
sg61
g108
sbsg63
g64
sg65
I0
sg61
S'Interactie-ontwerp'
p1290
sba(ischedule
Activity
p1291
(dp1292
g8
g402
sg55
g1111
sg56
g408
sg57
(iread_data
Room
p1293
(dp1294
g55
g182
sg61
g183
sbsg63
g137
sg65
g184
sg61
g415
sba(ischedule
Activity
p1295
(dp1296
g8
g1110
sg55
g407
sg56
g1112
sg57
(iread_data
Room
p1297
(dp1298
g55
g413
sg61
g414
sbsg63
g109
sg65
g110
sg61
g415
sba(ischedule
Activity
p1299
(dp1300
g8
g861
sg55
g873
sg56
g866
sg57
(iread_data
Room
p1301
(dp1302
g55
g216
sg61
g217
sbsg63
g137
sg65
g184
sg61
g692
sba(ischedule
Activity
p1303
(dp1304
g8
(lp1305
g160
ag18
ag22
ag424
ag24
ag97
ag813
ag814
ag591
ag761
ag51
ag810
ag811
ag353
ag484
ag759
ag815
ag191
ag202
ag231
ag168
ag23
ag346
ag520
ag423
ag817
ag75
ag620
ag151
ag762
ag363
ag480
ag230
ag121
ag764
ag391
ag756
ag245
ag763
ag162
ag204
ag755
ag482
ag485
ag459
ag760
ag49
ag704
ag479
ag589
ag344
ag146
ag757
ag816
ag812
ag404
ag421
ag420
ag150
ag536
ag758
ag15
ag503
ag318
ag229
ag754
ag422
ag290
ag153
ag478
ag602
ag262
asg55
I1000
sg56
Nsg57
(iread_data
Room
p1306
(dp1307
g55
g135
sg61
g136
sbsg63
g64
sg65
I0
sg61
g771
sba(ischedule
Activity
p1308
(dp1309
g8
g1100
sg55
g873
sg56
g1103
sg57
(iread_data
Room
p1310
(dp1311
g55
g357
sg61
g358
sbsg63
g137
sg65
g543
sg61
g692
sba(ischedule
Activity
p1312
(dp1313
g8
g774
sg55
S'40'
p1314
sg56
g789
sg57
(iread_data
Room
p1315
(dp1316
g55
g60
sg61
g62
sbsg63
g137
sg65
g110
sg61
g448
sbaaa(lp1317
(lp1318
(ischedule
Activity
p1319
(dp1320
g8
g1221
sg55
I1000
sg56
Nsg57
g745
sg63
g64
sg65
I0
sg61
g472
sba(ischedule
Activity
p1321
(dp1322
g8
(lp1323
g45
ag29
ag669
ag270
ag668
ag667
ag353
asg55
g101
sg56
(ischedule
Group
p1324
(dp1325
g8
g1323
sg61
S'Technology for games2'
p1326
sbsg57
(iread_data
Room
p1327
(dp1328
g55
g107
sg61
g108
sbsg63
g109
sg65
g184
sg61
g111
sba(ischedule
Activity
p1329
(dp1330
g8
g419
sg55
g1314
sg56
g443
sg57
(iread_data
Room
p1331
(dp1332
g55
g182
sg61
g183
sbsg63
g137
sg65
g184
sg61
g448
sba(ischedule
Activity
p1333
(dp1334
g8
(lp1335
g372
ag145
ag227
ag591
asg55
g797
sg56
(ischedule
Group
p1336
(dp1337
g8
g1335
sg61
S'Heuristieken 22'
p1338
sbsg57
(iread_data
Room
p1339
(dp1340
g55
g357
sg61
g358
sbsg63
g109
sg65
g184
sg61
g595
sba(ischedule
Activity
p1341
(dp1342
g8
(lp1343
g345
ag243
ag619
ag584
ag623
ag347
ag535
ag343
ag481
ag196
ag621
ag317
ag364
ag229
ag246
ag622
ag15
ag620
ag34
ag76
asg55
I1000
sg56
Nsg57
(iread_data
Room
p1344
(dp1345
g55
g413
sg61
g414
sbsg63
g64
sg65
I0
sg61
g630
sba(ischedule
Activity
p1346
(dp1347
g8
(lp1348
g1102
ag684
ag39
ag720
ag497
ag289
ag732
ag863
ag862
ag28
ag685
ag241
ag70
ag146
ag124
ag242
ag36
ag35
ag406
ag155
ag964
ag73
ag1101
ag831
ag865
ag586
ag864
asg55
I1000
sg56
Nsg57
(iread_data
Room
p1349
(dp1350
g55
g216
sg61
g217
sbsg63
g64
sg65
I0
sg61
g692
sba(ischedule
Activity
p1351
(dp1352
g8
(lp1353
g285
ag82
ag503
ag700
asg55
g129
sg56
(ischedule
Group
p1354
(dp1355
g8
g1353
sg61
S'Programmeren in Java 22'
p1356
sbsg57
(iread_data
Room
p1357
(dp1358
g55
g60
sg61
g62
sbsg63
g137
sg65
g184
sg61
g139
sbaa(lp1359
(ischedule
Activity
p1360
(dp1361
g8
g1221
sg55
I1000
sg56
Nsg57
(iread_data
Room
p1362
(dp1363
g55
g135
sg61
g136
sbsg63
g64
sg65
I0
sg61
g472
sba(ischedule
Activity
p1364
(dp1365
g8
g1046
sg55
I1000
sg56
Nsg57
(iread_data
Room
p1366
(dp1367
g55
g182
sg61
g183
sbsg63
g64
sg65
I0
sg61
g663
sba(ischedule
Activity
p1368
(dp1369
g8
(lp1370
g351
ag755
ag47
ag947
ag389
ag731
ag404
ag704
ag942
ag204
ag441
ag944
ag945
ag71
asg55
g887
sg56
(ischedule
Group
p1371
(dp1372
g8
g1370
sg61
S'Moderne Databases1'
p1373
sbsg57
(iread_data
Room
p1374
(dp1375
g55
g413
sg61
g414
sbsg63
g109
sg65
g110
sg61
g381
sba(ischedule
Activity
p1376
(dp1377
g8
(lp1378
g586
ag480
ag285
ag31
aS'64246605'
p1379
ag754
asg55
g537
sg56
(ischedule
Group
p1380
(dp1381
g8
g1378
sg61
S'Netwerken en systeembeveiliging1'
p1382
sbsg57
(iread_data
Room
p1383
(dp1384
g55
g107
sg61
g108
sbsg63
g137
sg65
g110
sg61
g544
sba(ischedule
Activity
p1385
(dp1386
g8
g1283
sg55
I1000
sg56
Nsg57
(iread_data
Room
p1387
(dp1388
g55
g60
sg61
g62
sbsg63
g64
sg65
I0
sg61
g1290
sba(ischedule
Activity
p1389
(dp1390
g8
(lp1391
g13
ag163
ag166
ag392
ag339
ag258
asg55
g210
sg56
(ischedule
Group
p1392
(dp1393
g8
g1391
sg61
S'Project Genetic Algorithms2'
p1394
sbsg57
(iread_data
Room
p1395
(dp1396
g55
g216
sg61
g217
sbsg63
g137
sg65
g184
sg61
g218
sbaa(lp1397
(ischedule
Activity
p1398
(dp1399
g8
(lp1400
g280
aS'77306636'
p1401
ag1229
aS'53139134'
p1402
ag190
ag485
ag758
ag1228
ag16
ag387
ag619
ag712
ag453
ag494
ag1165
ag339
ag764
aS'75623387'
p1403
ag519
ag516
ag489
ag505
ag299
ag1179
ag420
ag191
ag486
ag715
ag29
ag948
ag147
ag38
ag743
ag639
aS'93361408'
p1404
ag126
ag51
ag727
ag364
ag303
ag239
aS'72526473'
p1405
ag282
ag144
ag274
ag1154
ag122
ag164
ag366
ag757
ag730
ag1232
ag27
ag523
ag150
ag436
ag728
aS'65978354'
p1406
ag371
ag1140
aS'22168693'
p1407
aS'31306819'
p1408
ag535
ag491
ag197
ag600
ag1233
ag1090
ag729
aS'61520025'
p1409
ag562
ag1230
ag759
ag279
ag1237
ag14
ag42
ag163
ag54
ag201
ag621
ag93
ag620
ag756
ag276
ag37
ag1234
ag1238
ag848
ag435
ag456
ag292
ag336
ag18
aS'75446434'
p1410
ag1236
ag1102
ag1235
ag1231
ag954
aS'34173695'
p1411
ag723
ag440
ag714
ag763
ag195
asg55
I1000
sg56
Nsg57
(iread_data
Room
p1412
(dp1413
g55
g135
sg61
g136
sbsg63
g64
sg65
I0
sg61
g1245
sba(ischedule
Activity
p1414
(dp1415
g8
(lp1416
g478
ag77
ag1222
asg55
g674
sg56
(ischedule
Group
p1417
(dp1418
g8
g1416
sg61
S'Collectieve Intelligentie1'
p1419
sbsg57
(iread_data
Room
p1420
(dp1421
g55
g182
sg61
g183
sbsg63
g109
sg65
g110
sg61
g472
sba(ischedule
Activity
p1422
(dp1423
g8
g222
sg55
I1000
sg56
Nsg57
(iread_data
Room
p1424
(dp1425
g55
g107
sg61
g108
sbsg63
g64
sg65
I0
sg61
g265
sba(ischedule
Activity
p1426
(dp1427
g8
(lp1428
g33
ag344
ag288
ag1224
ag479
ag155
ag422
ag775
ag192
ag36
ag75
ag275
ag17
ag271
ag1223
ag722
ag287
ag337
asg55
g465
sg56
(ischedule
Group
p1429
(dp1430
g8
g1428
sg61
S'Collectieve Intelligentie3'
p1431
sbsg57
(iread_data
Room
p1432
(dp1433
g55
g357
sg61
g358
sbsg63
g137
sg65
g543
sg61
g472
sba(ischedule
Activity
p1434
(dp1435
g8
g1370
sg55
g375
sg56
g1371
sg57
(iread_data
Room
p1436
(dp1437
g55
g413
sg61
g414
sbsg63
g137
sg65
g110
sg61
g381
sbaa(lp1438
(ischedule
Activity
p1439
(dp1440
g8
g806
sg55
I1000
sg56
Nsg57
(iread_data
Room
p1441
(dp1442
g55
g135
sg61
g136
sbsg63
g64
sg65
I0
sg61
g448
sba(ischedule
Activity
p1443
(dp1444
g8
(lp1445
g292
ag339
ag163
ag756
ag1405
ag1407
ag456
ag280
ag371
ag42
ag948
ag505
ag728
ag743
ag485
ag14
ag1179
ag37
ag195
ag758
ag1411
ag757
ag1406
ag1154
ag491
ag621
ag150
ag1404
ag29
ag714
ag93
ag600
ag16
ag1410
ag1408
ag1402
ag453
ag274
ag1401
ag723
ag848
ag519
ag562
ag759
ag727
ag1090
ag523
ag282
ag729
ag122
ag1409
asg55
g1239
sg56
(ischedule
Group
p1446
(dp1447
g8
g1445
sg61
S'Calculus 21'
p1448
sbsg57
(iread_data
Room
p1449
(dp1450
g55
g107
sg61
g108
sbsg63
g109
sg65
g110
sg61
g1245
sba(ischedule
Activity
p1451
(dp1452
g8
g1348
sg55
I1000
sg56
Nsg57
(iread_data
Room
p1453
(dp1454
g55
g216
sg61
g217
sbsg63
g64
sg65
I0
sg61
g692
sba(ischedule
Activity
p1455
(dp1456
g8
(lp1457
g533
ag1223
ag484
ag10
aS'44151631'
p1458
ag700
aS'91250534'
p1459
ag20
aS'47260040'
p1460
aS'64418623'
p1461
ag535
ag207
ag41
aS'51472074'
p1462
ag100
asg55
g564
sg56
(ischedule
Group
p1463
(dp1464
g8
g1457
sg61
S'Compilerbouw practicum1'
p1465
sbsg57
(iread_data
Room
p1466
(dp1467
g55
g357
sg61
g358
sbsg63
g137
sg65
g110
sg61
g570
sba(ischedule
Activity
p1468
(dp1469
g8
(lp1470
g90
ag239
ag226
ag88
ag257
ag143
ag233
ag247
ag252
ag240
ag45
ag244
ag245
ag52
ag235
ag249
ag232
asg55
g610
sg56
(ischedule
Group
p1471
(dp1472
g8
g1470
sg61
S'Reflectie op de digitale cultuur3'
p1473
sbsg57
(iread_data
Room
p1474
(dp1475
g55
g182
sg61
g183
sbsg63
g109
sg65
g543
sg61
g265
sba(ischedule
Activity
p1476
(dp1477
g8
g655
sg55
g1023
sg56
g658
sg57
(iread_data
Room
p1478
(dp1479
g55
g413
sg61
g414
sbsg63
g109
sg65
g184
sg61
g663
sba(ischedule
Activity
p1480
(dp1481
g8
(lp1482
g1403
ag516
ag147
asg55
g1239
sg56
(ischedule
Group
p1483
(dp1484
g8
g1482
sg61
S'Calculus 23'
p1485
sbsg57
(iread_data
Room
p1486
(dp1487
g55
g60
sg61
g62
sbsg63
g109
sg65
g543
sg61
g1245
sbaa(lp1488
(ischedule
Activity
p1489
(dp1490
g8
(lp1491
g97
ag70
ag832
ag828
ag582
ag314
ag455
ag292
ag621
ag156
ag95
ag51
ag10
ag560
ag364
ag702
ag348
ag517
ag829
ag72
ag826
ag24
ag830
ag833
ag603
ag487
ag1060
ag783
ag54
ag153
ag587
ag834
ag492
ag251
ag1061
ag698
ag283
ag73
ag365
ag299
ag831
ag225
ag352
ag827
asg55
I1000
sg56
Nsg57
(iread_data
Room
p1492
(dp1493
g55
g60
sg61
g62
sbsg63
g64
sg65
I0
sg61
g841
sba(ischedule
Activity
p1494
(dp1495
g8
g1078
sg55
I1000
sg56
Nsg57
(iread_data
Room
p1496
(dp1497
g55
g135
sg61
g136
sbsg63
g64
sg65
I0
sg61
g1093
sba(ischedule
Activity
p1498
(dp1499
g8
g1428
sg55
g674
sg56
g1429
sg57
(iread_data
Room
p1500
(dp1501
g55
g357
sg61
g358
sbsg63
g109
sg65
g543
sg61
g472
sba(ischedule
Activity
p1502
(dp1503
g8
g1119
sg55
I1000
sg56
Nsg57
(iread_data
Room
p1504
(dp1505
g55
g216
sg61
g217
sbsg63
g64
sg65
I0
sg61
g1125
sba(ischedule
Activity
p1506
(dp1507
g8
g844
sg55
g325
sg56
g854
sg57
(iread_data
Room
p1508
(dp1509
g55
g182
sg61
g183
sbsg63
g109
sg65
g110
sg61
g331
sba(ischedule
Activity
p1510
(dp1511
g8
g1069
sg55
g375
sg56
g1070
sg57
g1007
sg63
g137
sg65
g543
sg61
g381
sba(ischedule
Activity
p1512
(dp1513
g8
g1416
sg55
g465
sg56
g1417
sg57
(iread_data
Room
p1514
(dp1515
g55
g413
sg61
g414
sbsg63
g137
sg65
g110
sg61
g472
sbaaa(lp1516
(lp1517
a(lp1518
a(lp1519
a(lp1520
a(lp1521
aasS'timeslot_dict'
p1522
(dp1523
I0
S'9:00-11:00'
p1524
sI1
S'11:00-13:00'
p1525
sI2
S'13:00-15:00'
p1526
sI3
S'15:00-17:00'
p1527
sI4
S'17:00-19:00'
p1528
ssS'day_dict'
p1529
(dp1530
I0
S'Monday'
p1531
sI1
S'Tuesday'
p1532
sI2
S'Wednesday'
p1533
sI3
S'Thursday'
p1534
sI4
S'Friday'
p1535
ssb.