(ischedule
Schedule
p0
(dp1
S'timetable'
p2
(lp3
(lp4
(lp5
(ischedule
Activity
p6
(dp7
S'participants'
p8
(lp9
S'81022997'
p10
aS'68360259'
p11
aS'19337738'
p12
aS'50143947'
p13
aS'22323043'
p14
aS'70878567'
p15
aS'21964491'
p16
aS'51566595'
p17
aS'13996448'
p18
aS'25330192'
p19
aS'45414528'
p20
aS'91196968'
p21
aS'74131924'
p22
aS'52311353'
p23
aS'81200278'
p24
aS'97136582'
p25
aS'66122625'
p26
aS'99453514'
p27
aS'93023961'
p28
aS'37744525'
p29
aS'98780382'
p30
aS'87314964'
p31
aS'17823206'
p32
aS'87900893'
p33
aS'59753700'
p34
aS'13116738'
p35
aS'37110913'
p36
asS'capacity'
p37
I1000
sS'group'
p38
NsS'room'
p39
(iread_data
Room
p40
(dp41
g37
S'41'
p42
sS'name'
p43
S'A1.04'
p44
sbsS'ttype'
p45
S'lectures'
p46
sS'group_id'
p47
I0
sg43
S'Data Mining'
p48
sba(ischedule
Activity
p49
(dp50
g8
(lp51
S'11915563'
p52
aS'58522654'
p53
aS'24613625'
p54
aS'5368702'
p55
aS'53202517'
p56
aS'10792879'
p57
aS'73236988'
p58
aS'6723948'
p59
aS'86988337'
p60
aS'37770881'
p61
aS'86291592'
p62
aS'72796858'
p63
aS'60312776'
p64
aS'34243356'
p65
aS'65960683'
p66
aS'80135353'
p67
aS'27950803'
p68
aS'34110913'
p69
aS'92665222'
p70
aS'84524083'
p71
aS'66701209'
p72
aS'13284244'
p73
aS'27187154'
p74
aS'7957843'
p75
aS'5595824'
p76
aS'98105190'
p77
aS'76802764'
p78
aS'88855695'
p79
aS'11741347'
p80
aS'9067939'
p81
aS'75599734'
p82
aS'13911001'
p83
aS'1766560'
p84
aS'88636924'
p85
aS'30658799'
p86
aS'75664412'
p87
aS'12077419'
p88
aS'31194811'
p89
aS'8464817'
p90
aS'34872117'
p91
aS'2317551'
p92
aS'95007221'
p93
aS'43689934'
p94
aS'95631564'
p95
aS'48503689'
p96
aS'46989508'
p97
aS'14309255'
p98
aS'75759231'
p99
asg37
S'40'
p100
sg38
(ischedule
Group
p101
(dp102
g8
g51
sg43
S'Compilerbouw2'
p103
sbsg39
(iread_data
Room
p104
(dp105
g37
S'48'
p106
sg43
S'B0.201'
p107
sbsg45
S'labs'
p108
sg47
S'2'
p109
sg43
S'Compilerbouw'
p110
sba(ischedule
Activity
p111
(dp112
g8
(lp113
S'8557857'
p114
aS'62701040'
p115
aS'23257088'
p116
aS'17496687'
p117
aS'44901052'
p118
aS'36748818'
p119
aS'68315599'
p120
aS'11459236'
p121
aS'19958553'
p122
ag35
aS'13658563'
p123
aS'92977271'
p124
aS'18266644'
p125
aS'77636749'
p126
ag15
aS'29718115'
p127
aS'75585647'
p128
aS'23983476'
p129
aS'75521763'
p130
aS'58332004'
p131
aS'32204977'
p132
asg37
I1000
sg38
Nsg39
(iread_data
Room
p133
(dp134
g37
S'22'
p135
sg43
S'A1.06'
p136
sbsg45
g46
sg47
I0
sg43
S'Informatie- en organisatieontwerp'
p137
sba(ischedule
Activity
p138
(dp139
g8
(lp140
S'85335143'
p141
aS'46570285'
p142
aS'61520025'
p143
aS'14816774'
p144
aS'73823548'
p145
aS'83266686'
p146
aS'58592894'
p147
aS'4783858'
p148
aS'75446434'
p149
aS'14179347'
p150
aS'87602030'
p151
aS'23628642'
p152
aS'3678531'
p153
aS'27298319'
p154
aS'47932106'
p155
aS'14303208'
p156
aS'86807027'
p157
aS'63634350'
p158
aS'65408517'
p159
asg37
S'40'
p160
sg38
(ischedule
Group
p161
(dp162
g8
g140
sg43
S'Calculus 22'
p163
sbsg39
(iread_data
Room
p164
(dp165
g37
S'20'
p166
sg43
S'A1.08'
p167
sbsg45
S'tutorials'
p168
sg47
g109
sg43
S'Calculus 2'
p169
sba(ischedule
Activity
p170
(dp171
g8
(lp172
S'90067329'
p173
aS'15051051'
p174
aS'56988998'
p175
aS'94467156'
p176
aS'63111000'
p177
aS'38296757'
p178
aS'5976174'
p179
aS'77240949'
p180
aS'26857113'
p181
aS'40791377'
p182
aS'3685034'
p183
ag29
aS'49683101'
p184
aS'33252501'
p185
aS'67625383'
p186
aS'2079771'
p187
aS'61518436'
p188
aS'23798155'
p189
aS'39459642'
p190
aS'46701583'
p191
ag74
aS'85236626'
p192
asg37
I1000
sg38
Nsg39
(iread_data
Room
p193
(dp194
g37
S'117'
p195
sg43
S'C0.110'
p196
sbsg45
g46
sg47
I0
sg43
S'Machine Learning'
p197
sba(ischedule
Activity
p198
(dp199
g8
(lp200
S'79937969'
p201
aS'75005528'
p202
aS'37399898'
p203
ag21
aS'10149535'
p204
aS'42778953'
p205
aS'35330349'
p206
aS'3474870'
p207
aS'66570705'
p208
aS'32595335'
p209
aS'26172512'
p210
aS'94955328'
p211
aS'42196732'
p212
aS'81218347'
p213
aS'83210352'
p214
aS'55474917'
p215
aS'16333449'
p216
aS'71839156'
p217
aS'79617364'
p218
ag23
aS'31416266'
p219
aS'94686490'
p220
aS'42115591'
p221
aS'54074680'
p222
aS'36527838'
p223
aS'34588570'
p224
aS'62872965'
p225
aS'74182182'
p226
aS'80709893'
p227
aS'41578612'
p228
ag65
aS'61060652'
p229
aS'58866007'
p230
aS'16011419'
p231
aS'14591033'
p232
aS'21311067'
p233
aS'56872729'
p234
aS'87758823'
p235
aS'38499176'
p236
aS'48308205'
p237
aS'36508571'
p238
aS'68409833'
p239
aS'96118484'
p240
aS'55412918'
p241
aS'93566383'
p242
aS'5517869'
p243
aS'80998260'
p244
aS'81385263'
p245
aS'23565001'
p246
aS'90743504'
p247
aS'670011'
p248
aS'77896638'
p249
aS'16097870'
p250
aS'4921119'
p251
asg37
I1000
sg38
Nsg39
(iread_data
Room
p252
(dp253
g37
S'60'
p254
sg43
S'C1.112'
p255
sbsg45
g46
sg47
I0
sg43
S'Lineaire Algebra'
p256
sba(ischedule
Activity
p257
(dp258
g8
(lp259
S'39230359'
p260
aS'14847953'
p261
aS'72577292'
p262
aS'66034145'
p263
aS'43902015'
p264
aS'5615125'
p265
aS'57086672'
p266
aS'77392404'
p267
aS'61443567'
p268
aS'6249823'
p269
aS'40434933'
p270
aS'76123484'
p271
aS'1137946'
p272
aS'22288615'
p273
aS'27064249'
p274
aS'72895450'
p275
aS'94930277'
p276
aS'53512831'
p277
aS'69459473'
p278
aS'28358060'
p279
aS'24891081'
p280
aS'17092717'
p281
aS'49908313'
p282
aS'2416751'
p283
aS'41790793'
p284
aS'20618153'
p285
aS'89180944'
p286
asg37
S'20'
p287
sg38
(ischedule
Group
p288
(dp289
g8
g259
sg43
S'Webprogrammeren en databases2'
p290
sbsg39
(iread_data
Room
p291
(dp292
g37
S'56'
p293
sg43
S'A1.10'
p294
sbsg45
g168
sg47
g109
sg43
S'Webprogrammeren en databases'
p295
sbaa(lp296
(ischedule
Activity
p297
(dp298
g8
(lp299
g57
ag52
ag93
ag64
ag69
aS'3407554'
p300
ag63
ag65
aS'15911353'
p301
ag98
ag70
ag79
ag84
ag96
ag58
ag184
ag99
ag76
ag78
ag120
ag205
ag95
ag249
ag91
ag82
ag86
ag80
ag53
ag182
ag54
ag67
ag88
ag74
ag66
aS'44391517'
p302
ag90
aS'88752563'
p303
ag68
ag77
ag245
ag61
ag55
ag60
ag59
ag89
aS'79167252'
p304
ag187
aS'79033175'
p305
ag87
aS'65852230'
p306
ag83
ag94
ag72
ag97
ag92
ag85
ag190
ag73
ag146
ag71
aS'94687383'
p307
ag56
aS'76661016'
p308
ag62
aS'54772132'
p309
ag81
ag237
ag275
ag75
asg37
I1000
sg38
Nsg39
(iread_data
Room
p310
(dp311
g37
g254
sg43
g255
sbsg45
g46
sg47
I0
sg43
g110
sba(ischedule
Activity
p312
(dp313
g8
(lp314
S'3168419'
p315
aS'15187217'
p316
aS'59397895'
p317
aS'91527663'
p318
aS'57467488'
p319
aS'17222374'
p320
ag220
aS'26406342'
p321
aS'72456780'
p322
aS'24277163'
p323
ag60
aS'62736669'
p324
ag155
ag91
aS'37701751'
p325
ag131
ag303
aS'47477884'
p326
ag249
aS'26207525'
p327
aS'13092455'
p328
aS'64947290'
p329
ag281
aS'247918'
p330
aS'96054456'
p331
ag145
aS'54540997'
p332
aS'49631542'
p333
aS'12091019'
p334
ag234
aS'5085194'
p335
aS'25077484'
p336
aS'77960666'
p337
aS'23658570'
p338
aS'60352393'
p339
ag116
aS'78821918'
p340
aS'86180471'
p341
ag251
aS'51542218'
p342
aS'56191333'
p343
aS'27123462'
p344
ag243
aS'58083680'
p345
aS'43027916'
p346
aS'70072978'
p347
ag190
aS'29640619'
p348
aS'82689818'
p349
aS'29526540'
p350
aS'56749879'
p351
ag63
aS'56121590'
p352
ag144
ag97
aS'52552718'
p353
aS'90474003'
p354
ag202
ag17
ag147
aS'5526560'
p355
ag212
ag270
aS'83869542'
p356
aS'13132925'
p357
ag271
aS'64296965'
p358
aS'11996292'
p359
ag248
aS'40141996'
p360
ag264
aS'4529208'
p361
asg37
I1000
sg38
Nsg39
(iread_data
Room
p362
(dp363
g37
g195
sg43
g196
sbsg45
g46
sg47
I0
sg43
S'Databases 2'
p364
sba(ischedule
Activity
p365
(dp366
g8
(lp367
S'1696500'
p368
aS'75997788'
p369
aS'42171678'
p370
aS'14138904'
p371
aS'53107172'
p372
ag217
ag14
ag276
aS'36903574'
p373
ag77
aS'53775014'
p374
aS'19858730'
p375
ag319
aS'20331158'
p376
aS'83443653'
p377
ag148
aS'48357272'
p378
ag26
ag232
aS'58736785'
p379
ag144
aS'97019450'
p380
aS'14941752'
p381
ag359
aS'31897288'
p382
ag213
aS'20830477'
p383
aS'87210640'
p384
aS'76393508'
p385
ag123
ag351
ag229
ag157
aS'4568018'
p386
aS'59075181'
p387
aS'45660925'
p388
ag118
aS'4353500'
p389
ag130
ag124
aS'97417002'
p390
aS'22871048'
p391
ag36
aS'79879876'
p392
asg37
I1000
sg38
Nsg39
(iread_data
Room
p393
(dp394
g37
g106
sg43
g107
sbsg45
g46
sg47
I0
sg43
S'Heuristieken 1'
p395
sba(ischedule
Activity
p396
(dp397
g8
(lp398
g35
ag18
ag33
ag10
ag34
ag22
ag23
ag20
asg37
S'10'
p399
sg38
(ischedule
Group
p400
(dp401
g8
g398
sg43
S'Data Mining2'
p402
sbsg39
(iread_data
Room
p403
(dp404
g37
g42
sg43
g44
sbsg45
g168
sg47
g109
sg43
g48
sba(ischedule
Activity
p405
(dp406
g8
(lp407
S'8522855'
p408
aS'40633534'
p409
aS'58253841'
p410
asg37
S'15'
p411
sg38
(ischedule
Group
p412
(dp413
g8
g407
sg43
S'Project Genetic Algorithms3'
p414
sbsg39
(iread_data
Room
p415
(dp416
g37
g166
sg43
g167
sbsg45
g108
sg47
S'3'
p417
sg43
S'Project Genetic Algorithms'
p418
sba(ischedule
Activity
p419
(dp420
g8
(lp421
g24
ag13
ag16
ag17
ag15
ag27
ag25
ag21
ag12
asg37
g399
sg38
(ischedule
Group
p422
(dp423
g8
g421
sg43
S'Data Mining3'
p424
sbsg39
(iread_data
Room
p425
(dp426
g37
g293
sg43
g294
sbsg45
g168
sg47
g417
sg43
g48
sbaa(lp427
(ischedule
Activity
p428
(dp429
g8
(lp430
g180
ag130
aS'54310617'
p431
ag13
ag321
ag372
aS'64228258'
p432
ag64
aS'1665980'
p433
ag235
aS'50184318'
p434
aS'29474737'
p435
aS'51741554'
p436
aS'23547619'
p437
ag66
aS'48601268'
p438
aS'22699561'
p439
aS'97135019'
p440
aS'73980360'
p441
ag349
aS'68601184'
p442
aS'33760909'
p443
aS'45556081'
p444
aS'9332762'
p445
aS'46052388'
p446
aS'96104167'
p447
ag320
ag323
ag148
ag206
aS'64393888'
p448
aS'28357474'
p449
ag370
asg37
S'20'
p450
sg38
(ischedule
Group
p451
(dp452
g8
g430
sg43
S'Collectieve Intelligentie2'
p453
sbsg39
(iread_data
Room
p454
(dp455
g37
g254
sg43
g255
sbsg45
g168
sg47
g109
sg43
S'Collectieve Intelligentie'
p456
sba(ischedule
Activity
p457
(dp458
g8
(lp459
S'22826928'
p460
aS'44868097'
p461
ag16
aS'5298748'
p462
aS'30050930'
p463
ag58
aS'66120270'
p464
aS'77831658'
p465
ag212
aS'43680781'
p466
aS'96453361'
p467
aS'30195935'
p468
ag15
ag330
ag386
ag59
aS'11068043'
p469
ag144
aS'54026378'
p470
ag232
ag174
aS'6913074'
p471
ag350
aS'59544049'
p472
ag331
ag22
ag351
ag54
ag315
aS'21029457'
p473
aS'33877725'
p474
aS'33930505'
p475
ag56
aS'28359697'
p476
aS'7308727'
p477
aS'88176729'
p478
ag141
aS'22731474'
p479
aS'64600457'
p480
ag24
ag53
aS'89985072'
p481
ag218
aS'20883994'
p482
aS'56815156'
p483
asg37
I1000
sg38
Nsg39
(iread_data
Room
p484
(dp485
g37
g195
sg43
g196
sbsg45
g46
sg47
I0
sg43
S'Bioinformatica'
p486
sba(ischedule
Activity
p487
(dp488
g8
(lp489
S'82854435'
p490
ag338
ag342
ag221
aS'65318664'
p491
aS'80188025'
p492
ag369
ag251
aS'34900967'
p493
aS'48678993'
p494
aS'36785409'
p495
ag346
ag266
ag189
aS'13718298'
p496
ag125
aS'33672995'
p497
ag391
aS'73302736'
p498
ag65
aS'62613937'
p499
ag23
aS'60661905'
p500
aS'97838175'
p501
aS'18477924'
p502
aS'72586808'
p503
ag246
ag250
aS'70193386'
p504
aS'58480929'
p505
ag141
aS'87830198'
p506
aS'73350019'
p507
aS'88737765'
p508
ag358
aS'78822885'
p509
ag465
ag211
ag380
aS'14637758'
p510
ag378
ag228
ag377
aS'56544130'
p511
ag76
ag335
ag322
ag483
ag340
asg37
I1000
sg38
Nsg39
(iread_data
Room
p512
(dp513
g37
g293
sg43
g294
sbsg45
g46
sg47
I0
sg43
S'Analysemethoden en -technieken'
p514
sba(ischedule
Activity
p515
(dp516
g8
(lp517
S'99975346'
p518
aS'78136904'
p519
aS'27370083'
p520
aS'20239127'
p521
aS'82390428'
p522
ag188
aS'70844780'
p523
aS'33776961'
p524
ag34
aS'51415617'
p525
asg37
S'20'
p526
sg38
(ischedule
Group
p527
(dp528
g8
g517
sg43
S'Reflectie op de digitale cultuur2'
p529
sbsg39
(iread_data
Room
p530
(dp531
g37
g106
sg43
g107
sbsg45
g168
sg47
g109
sg43
S'Reflectie op de digitale cultuur'
p532
sba(ischedule
Activity
p533
(dp534
g8
(lp535
g359
ag243
ag333
aS'58699305'
p536
aS'1181560'
p537
aS'66621166'
p538
asg37
S'20'
p539
sg38
(ischedule
Group
p540
(dp541
g8
g535
sg43
S'Moderne Databases3'
p542
sbsg39
(iread_data
Room
p543
(dp544
g37
g135
sg43
g136
sbsg45
g108
sg47
g417
sg43
S'Moderne Databases'
p545
sba(ischedule
Activity
p546
(dp547
g8
(lp548
g158
aS'535689'
p549
aS'5892092'
p550
ag236
ag121
aS'53585410'
p551
aS'55103073'
p552
aS'82066165'
p553
aS'99272880'
p554
aS'74361881'
p555
aS'23215240'
p556
aS'88596522'
p557
asg37
S'15'
p558
sg38
(ischedule
Group
p559
(dp560
g8
g548
sg43
S'Compilerbouw practicum2'
p561
sbsg39
(iread_data
Room
p562
(dp563
g37
g42
sg43
g44
sbsg45
g108
sg47
g109
sg43
S'Compilerbouw practicum'
p564
sba(ischedule
Activity
p565
(dp566
g8
(lp567
g249
ag268
ag271
ag205
aS'17575088'
p568
aS'25106480'
p569
ag62
aS'13534377'
p570
asg37
S'20'
p571
sg38
(ischedule
Group
p572
(dp573
g8
g567
sg43
S'Collectieve Intelligentie3'
p574
sbsg39
(iread_data
Room
p575
(dp576
g37
g166
sg43
g167
sbsg45
g108
sg47
g417
sg43
g456
sbaa(lp577
(ischedule
Activity
p578
(dp579
g8
(lp580
g262
ag449
ag434
ag445
ag13
ag321
ag439
ag243
ag442
ag62
ag219
aS'57595888'
p581
aS'3233378'
p582
ag180
ag358
ag346
ag16
ag66
ag206
ag477
ag570
ag569
ag446
ag437
ag435
ag443
ag444
aS'15902055'
p583
ag148
ag436
ag323
ag130
ag53
ag320
ag349
ag372
ag212
ag568
aS'1075391'
p584
ag271
ag235
ag64
aS'34773179'
p585
ag447
ag448
ag431
ag268
ag61
ag438
ag328
ag440
ag432
ag370
ag348
ag115
ag368
ag433
ag441
ag249
aS'86000192'
p586
ag205
asg37
I1000
sg38
Nsg39
(iread_data
Room
p587
(dp588
g37
g195
sg43
g196
sbsg45
g46
sg47
I0
sg43
g456
sba(ischedule
Activity
p589
(dp590
g8
(lp591
g525
aS'20095994'
p592
ag183
aS'42406214'
p593
aS'49922855'
p594
ag123
aS'32044893'
p595
ag460
ag506
ag504
ag523
aS'84449005'
p596
ag267
ag518
aS'27805666'
p597
ag203
ag228
ag391
aS'52715680'
p598
ag328
ag178
aS'36213792'
p599
ag323
ag34
ag471
aS'51052738'
p600
ag462
ag68
ag521
ag520
ag495
ag337
aS'4709948'
p601
aS'96554914'
p602
ag519
ag339
ag500
ag27
ag188
ag354
ag522
ag71
ag466
ag60
aS'54569540'
p603
ag36
aS'92778619'
p604
aS'68286356'
p605
ag524
ag496
ag266
asg37
I1000
sg38
Nsg39
(iread_data
Room
p606
(dp607
g37
g254
sg43
g255
sbsg45
g46
sg47
I0
sg43
g532
sba(ischedule
Activity
p608
(dp609
g8
g459
sg37
I1000
sg38
Nsg39
(iread_data
Room
p610
(dp611
g37
g293
sg43
g294
sbsg45
g46
sg47
I0
sg43
g486
sba(ischedule
Activity
p612
(dp613
g8
(lp614
g18
ag285
ag176
ag309
ag347
ag157
ag190
asg37
S'20'
p615
sg38
(ischedule
Group
p616
(dp617
g8
g614
sg43
S'Programmeren in Java 23'
p618
sbsg39
(iread_data
Room
p619
(dp620
g37
g106
sg43
g107
sbsg45
g108
sg47
g417
sg43
S'Programmeren in Java 2'
p621
sba(ischedule
Activity
p622
(dp623
g8
(lp624
g371
ag444
aS'70015932'
p625
aS'59289233'
p626
ag204
ag376
ag91
aS'72683344'
p627
ag230
ag349
aS'43460038'
p628
ag286
aS'13798030'
p629
aS'27925117'
p630
aS'28618400'
p631
ag127
ag184
ag270
ag146
ag262
ag189
asg37
I1000
sg38
Nsg39
(iread_data
Room
p632
(dp633
g37
g42
sg43
g44
sbsg45
g46
sg47
I0
sg43
S'Architectuur en computerorganisatie'
p634
sbaa(lp635
(ischedule
Activity
p636
(dp637
g8
(lp638
g433
aS'51509565'
p639
ag179
ag207
aS'21095566'
p640
ag13
ag245
ag60
ag349
aS'34765676'
p641
ag583
aS'14671406'
p642
ag373
aS'67817269'
p643
aS'26260141'
p644
aS'19540225'
p645
ag88
aS'23652927'
p646
ag598
ag147
aS'44828429'
p647
ag275
aS'41527759'
p648
aS'41585485'
p649
aS'3707829'
p650
ag154
ag16
aS'66433883'
p651
aS'77376714'
p652
ag557
ag319
ag329
ag129
ag264
aS'40343779'
p653
aS'64554442'
p654
ag318
ag467
ag551
ag17
ag519
ag191
ag408
asg37
I1000
sg38
Nsg39
(iread_data
Room
p655
(dp656
g37
g254
sg43
g255
sbsg45
g46
sg47
I0
sg43
S'Algoritmen en complexiteit'
p657
sba(ischedule
Activity
p658
(dp659
g8
g398
sg37
S'10'
p660
sg38
g400
sg39
(iread_data
Room
p661
(dp662
g37
g195
sg43
g196
sbsg45
g108
sg47
g109
sg43
g48
sba(ischedule
Activity
p663
(dp664
g8
(lp665
g216
ag56
ag474
ag432
ag156
aS'78243495'
p666
aS'10698627'
p667
aS'67073567'
p668
aS'76648468'
p669
aS'76903244'
p670
ag207
ag628
asg37
S'20'
p671
sg38
(ischedule
Group
p672
(dp673
g8
g665
sg43
S'Webprogrammeren en databases1'
p674
sbsg39
(iread_data
Room
p675
(dp676
g37
g166
sg43
g167
sbsg45
g108
sg47
S'1'
p677
sg43
g295
sba(ischedule
Activity
p678
(dp679
g8
g567
sg37
g450
sg38
g572
sg39
(iread_data
Room
p680
(dp681
g37
g135
sg43
g136
sbsg45
g168
sg47
g417
sg43
g456
sba(ischedule
Activity
p682
(dp683
g8
(lp684
g203
aS'76924297'
p685
ag641
aS'4546613'
p686
ag437
aS'38179241'
p687
aS'69634191'
p688
aS'21677389'
p689
aS'2550487'
p690
ag242
ag647
ag308
ag261
aS'19214659'
p691
ag245
ag55
ag325
ag650
ag263
aS'28055464'
p692
aS'64768422'
p693
aS'20374340'
p694
aS'65675896'
p695
aS'81155296'
p696
ag24
asg37
I1000
sg38
Nsg39
(iread_data
Room
p697
(dp698
g37
g293
sg43
g294
sbsg45
g46
sg47
I0
sg43
S'Interactie-ontwerp'
p699
sba(ischedule
Activity
p700
(dp701
g8
(lp702
g118
ag130
ag120
ag466
ag36
ag359
aS'47982619'
p703
ag141
ag98
ag14
aS'92496780'
p704
ag89
aS'89338938'
p705
aS'21192048'
p706
aS'69086548'
p707
aS'76487754'
p708
ag228
ag87
aS'4697362'
p709
ag445
ag321
aS'97371272'
p710
ag126
ag204
ag237
aS'14383795'
p711
aS'77264363'
p712
aS'12430748'
p713
aS'58565406'
p714
ag270
aS'70336464'
p715
asg37
S'20'
p716
sg38
(ischedule
Group
p717
(dp718
g8
g702
sg43
S'Technology for games2'
p719
sbsg39
(iread_data
Room
p720
(dp721
g37
g42
sg43
g44
sbsg45
g168
sg47
g109
sg43
S'Technology for games'
p722
sba(ischedule
Activity
p723
(dp724
g8
(lp725
g376
ag392
ag380
ag386
ag377
asg37
S'25'
p726
sg38
(ischedule
Group
p727
(dp728
g8
g725
sg43
S'Heuristieken 11'
p729
sbsg39
(iread_data
Room
p730
(dp731
g37
g106
sg43
g107
sbsg45
g168
sg47
g677
sg43
g395
sbaaa(lp732
(lp733
(ischedule
Activity
p734
(dp735
g8
g580
sg37
I1000
sg38
Nsg39
(iread_data
Room
p736
(dp737
g37
g195
sg43
g196
sbsg45
g46
sg47
I0
sg43
g456
sba(ischedule
Activity
p738
(dp739
g8
g624
sg37
I1000
sg38
Nsg39
(iread_data
Room
p740
(dp741
g37
g135
sg43
g136
sbsg45
g46
sg47
I0
sg43
g634
sba(ischedule
Activity
p742
(dp743
g8
(lp744
g641
ag88
ag644
ag598
ag207
ag642
ag154
ag245
ag648
ag551
ag640
ag179
ag653
ag651
ag264
ag645
ag643
ag191
ag329
ag60
ag650
ag408
ag639
ag373
ag649
ag646
ag129
ag467
ag319
asg37
S'25'
p745
sg38
(ischedule
Group
p746
(dp747
g8
g744
sg43
S'Algoritmen en complexiteit1'
p748
sbsg39
(iread_data
Room
p749
(dp750
g37
g293
sg43
g294
sbsg45
g168
sg47
g677
sg43
g657
sba(ischedule
Activity
p751
(dp752
g8
(lp753
g22
ag17
ag36
ag63
ag470
ag375
ag239
ag391
aS'62356458'
p754
ag353
aS'34806836'
p755
aS'61611295'
p756
ag52
ag250
aS'88627897'
p757
ag238
asg37
S'10'
p758
sg38
(ischedule
Group
p759
(dp760
g8
g753
sg43
S'Autonomous Agents 21'
p761
sbsg39
(iread_data
Room
p762
(dp763
g37
g106
sg43
g107
sbsg45
g108
sg47
g677
sg43
S'Autonomous Agents 2'
p764
sba(ischedule
Activity
p765
(dp766
g8
(lp767
g482
ag519
ag523
ag70
aS'1886996'
p768
ag499
ag339
ag409
ag274
asg37
S'10'
p769
sg38
(ischedule
Group
p770
(dp771
g8
g767
sg43
S'Advanced Heuristics1'
p772
sbsg39
(iread_data
Room
p773
(dp774
g37
g42
sg43
g44
sbsg45
g108
sg47
g677
sg43
S'Advanced Heuristics'
p775
sba(ischedule
Activity
p776
(dp777
g8
(lp778
g118
ag190
asg37
S'10'
p779
sg38
(ischedule
Group
p780
(dp781
g8
g778
sg43
S'Autonomous Agents 22'
p782
sbsg39
(iread_data
Room
p783
(dp784
g37
g254
sg43
g255
sbsg45
g168
sg47
g109
sg43
g764
sba(ischedule
Activity
p785
(dp786
g8
(lp787
g479
ag480
ag466
ag351
ag59
ag471
ag218
ag461
ag315
ag478
ag468
ag350
ag472
ag54
ag469
ag174
ag141
ag476
ag465
asg37
S'20'
p788
sg38
(ischedule
Group
p789
(dp790
g8
g787
sg43
S'Bioinformatica2'
p791
sbsg39
(iread_data
Room
p792
(dp793
g37
g166
sg43
g167
sbsg45
g168
sg47
g109
sg43
g486
sbaa(lp794
(ischedule
Activity
p795
(dp796
g8
(lp797
g491
ag14
aS'9287708'
p798
ag474
aS'82872148'
p799
ag686
ag58
aS'99283252'
p800
ag498
ag68
ag705
ag227
ag239
ag602
ag82
aS'31103066'
p801
ag642
aS'51593625'
p802
ag598
ag13
aS'3727435'
p803
ag23
ag469
aS'31633723'
p804
ag582
ag52
aS'84110134'
p805
ag478
ag215
ag470
aS'78443067'
p806
aS'14072826'
p807
ag64
ag625
ag666
ag221
ag461
ag754
ag229
ag653
aS'62105897'
p808
ag628
ag449
ag159
ag98
aS'1048485'
p809
ag481
ag348
ag391
ag648
ag652
ag569
ag176
ag29
ag438
ag386
aS'31247305'
p810
ag640
ag714
ag148
ag353
aS'27582862'
p811
aS'45915482'
p812
aS'44671041'
p813
ag496
aS'41153310'
p814
ag378
ag179
ag472
ag214
ag644
ag286
aS'37830626'
p815
ag95
aS'58074656'
p816
asg37
I1000
sg38
Nsg39
(iread_data
Room
p817
(dp818
g37
g195
sg43
g196
sbsg45
g46
sg47
I0
sg43
S'Software engineering'
p819
sba(ischedule
Activity
p820
(dp821
g8
(lp822
g115
ag130
ag15
ag121
ag116
ag117
ag129
ag126
ag119
ag122
ag123
ag131
ag125
ag35
ag128
ag132
asg37
S'15'
p823
sg38
(ischedule
Group
p824
(dp825
g8
g822
sg43
S'Informatie- en organisatieontwerp1'
p826
sbsg39
(iread_data
Room
p827
(dp828
g37
g42
sg43
g44
sbsg45
g108
sg47
g677
sg43
g137
sba(ischedule
Activity
p829
(dp830
g8
g535
sg37
S'20'
p831
sg38
g540
sg39
(iread_data
Room
p832
(dp833
g37
g254
sg43
g255
sbsg45
g168
sg47
g417
sg43
g545
sba(ischedule
Activity
p834
(dp835
g8
(lp836
g467
asg37
S'15'
p837
sg38
(ischedule
Group
p838
(dp839
g8
g836
sg43
S'Zoeken sturen en bewegen1'
p840
sbsg39
(iread_data
Room
p841
(dp842
g37
g106
sg43
g107
sbsg45
g108
sg47
g677
sg43
S'Zoeken sturen en bewegen'
p843
sba(ischedule
Activity
p844
(dp845
g8
(lp846
g581
aS'42297781'
p847
ag711
aS'51673172'
p848
aS'41644639'
p849
ag335
aS'51472074'
p850
ag300
ag83
ag695
ag371
asg37
g558
sg38
(ischedule
Group
p851
(dp852
g8
g846
sg43
S'Compilerbouw practicum3'
p853
sbsg39
(iread_data
Room
p854
(dp855
g37
g166
sg43
g167
sbsg45
g108
sg47
g417
sg43
g564
sbaa(lp856
(ischedule
Activity
p857
(dp858
g8
(lp859
g157
ag226
aS'6939933'
p860
ag10
aS'21070547'
p861
ag477
aS'63939720'
p862
ag469
aS'63573738'
p863
ag328
ag75
ag96
ag145
aS'34691309'
p864
ag465
ag691
ag183
ag595
aS'81116418'
p865
ag303
ag381
ag631
ag18
ag805
ag64
ag58
ag593
asg37
S'15'
p866
sg38
(ischedule
Group
p867
(dp868
g8
g859
sg43
S'Project Numerical Recipes2'
p869
sbsg39
(iread_data
Room
p870
(dp871
g37
g42
sg43
g44
sbsg45
g108
sg47
g109
sg43
S'Project Numerical Recipes'
p872
sba(ischedule
Activity
p873
(dp874
g8
g744
sg37
S'25'
p875
sg38
g746
sg39
(iread_data
Room
p876
(dp877
g37
g293
sg43
g294
sbsg45
g108
sg47
g677
sg43
g657
sba(ischedule
Activity
p878
(dp879
g8
(lp880
g466
ag708
ag445
ag87
ag132
ag359
aS'93041523'
p881
ag711
ag437
ag36
ag707
ag715
ag269
ag228
ag710
ag706
ag126
ag89
ag709
ag120
aS'7106649'
p882
ag237
ag495
ag118
ag141
ag704
ag321
ag714
ag88
ag713
ag14
ag130
ag204
ag98
ag705
ag703
ag712
ag270
asg37
I1000
sg38
Nsg39
(iread_data
Room
p883
(dp884
g37
g195
sg43
g196
sbsg45
g46
sg47
I0
sg43
g722
sba(ischedule
Activity
p885
(dp886
g8
(lp887
g61
ag68
ag239
ag308
ag506
ag54
ag355
ag72
ag630
ag585
ag494
ag685
ag800
ag569
aS'14398123'
p888
ag553
ag596
aS'55480737'
p889
ag278
ag848
aS'25994016'
p890
ag151
ag176
asg37
g411
sg38
(ischedule
Group
p891
(dp892
g8
g887
sg43
S'Project Genetic Algorithms2'
p893
sbsg39
(iread_data
Room
p894
(dp895
g37
g106
sg43
g107
sbsg45
g108
sg47
g109
sg43
g418
sba(ischedule
Activity
p896
(dp897
g8
(lp898
g480
ag174
ag434
ag601
ag369
ag131
ag286
ag350
ag320
aS'48198668'
p899
ag323
ag223
ag119
ag80
aS'47462856'
p900
ag806
ag666
ag340
ag524
aS'3883025'
p901
ag142
ag177
aS'59111489'
p902
ag370
ag84
aS'83415514'
p903
aS'13218321'
p904
aS'49219163'
p905
asg37
g539
sg38
(ischedule
Group
p906
(dp907
g8
g898
sg43
S'Moderne Databases1'
p908
sbsg39
(iread_data
Room
p909
(dp910
g37
g254
sg43
g255
sbsg45
g108
sg47
g677
sg43
g545
sba(ischedule
Activity
p911
(dp912
g8
(lp913
g17
ag519
ag433
ag349
ag583
ag16
ag652
ag147
ag557
ag13
ag654
ag647
ag275
ag318
asg37
g745
sg38
(ischedule
Group
p914
(dp915
g8
g913
sg43
S'Algoritmen en complexiteit2'
p916
sbsg39
(iread_data
Room
p917
(dp918
g37
g166
sg43
g167
sbsg45
g168
sg47
g109
sg43
g657
sba(ischedule
Activity
p919
(dp920
g8
(lp921
g62
asg37
g866
sg38
(ischedule
Group
p922
(dp923
g8
g921
sg43
S'Project Numerical Recipes3'
p924
sbsg39
(iread_data
Room
p925
(dp926
g37
g135
sg43
g136
sbsg45
g108
sg47
g417
sg43
g872
sbaa(lp927
(ischedule
Activity
p928
(dp929
g8
g299
sg37
I1000
sg38
Nsg39
(iread_data
Room
p930
(dp931
g37
g195
sg43
g196
sbsg45
g46
sg47
I0
sg43
g110
sba(ischedule
Activity
p932
(dp933
g8
(lp934
g472
ag470
ag714
ag474
ag705
ag666
ag652
ag481
ag286
ag806
ag808
ag239
ag438
ag179
ag814
ag809
ag804
ag803
ag686
ag812
ag159
ag811
ag628
ag807
ag815
ag449
ag640
ag13
ag802
ag602
ag625
ag215
ag214
ag229
ag813
asg37
S'40'
p935
sg38
(ischedule
Group
p936
(dp937
g8
g934
sg43
S'Software engineering1'
p938
sbsg39
(iread_data
Room
p939
(dp940
g37
g42
sg43
g44
sbsg45
g168
sg47
g677
sg43
g819
sba(ischedule
Activity
p941
(dp942
g8
(lp943
S'72665524'
p944
ag627
ag261
ag631
ag274
ag409
aS'39429093'
p945
ag768
ag523
ag519
ag262
ag369
ag499
ag339
ag482
ag437
ag70
ag315
ag326
ag157
asg37
I1000
sg38
Nsg39
(iread_data
Room
p946
(dp947
g37
g135
sg43
g136
sbsg45
g46
sg47
I0
sg43
g775
sba(ischedule
Activity
p948
(dp949
g8
(lp950
g191
ag340
ag228
ag336
ag341
ag849
ag150
aS'75680261'
p951
ag508
ag555
asg37
g411
sg38
(ischedule
Group
p952
(dp953
g8
g950
sg43
S'Project Genetic Algorithms1'
p954
sbsg39
(iread_data
Room
p955
(dp956
g37
g166
sg43
g167
sbsg45
g108
sg47
g677
sg43
g418
sba(ischedule
Activity
p957
(dp958
g8
g9
sg37
I1000
sg38
Nsg39
(iread_data
Room
p959
(dp960
g37
g254
sg43
g255
sbsg45
g46
sg47
I0
sg43
g48
sba(ischedule
Activity
p961
(dp962
g8
(lp963
g243
ag154
ag225
aS'70113753'
p964
asg37
g779
sg38
(ischedule
Group
p965
(dp966
g8
g963
sg43
S'Autonomous Agents 23'
p967
sbsg39
(iread_data
Room
p968
(dp969
g37
g106
sg43
g107
sbsg45
g168
sg47
g417
sg43
g764
sba(ischedule
Activity
p970
(dp971
g8
(lp972
g649
aS'73196865'
p973
ag129
ag392
ag283
ag329
ag442
ag524
asg37
g615
sg38
(ischedule
Group
p974
(dp975
g8
g972
sg43
S'Programmeren in Java 25'
p976
sbsg39
(iread_data
Room
p977
(dp978
g37
g293
sg43
g294
sbsg45
g108
sg47
S'5'
p979
sg43
g621
sbaa(lp980
(ischedule
Activity
p981
(dp982
g8
(lp983
g248
ag356
ag24
ag266
ag641
aS'35315956'
p984
ag666
aS'82968410'
p985
aS'58040377'
p986
ag192
aS'72652638'
p987
ag10
ag268
ag250
ag382
aS'15249775'
p988
ag882
ag158
ag630
ag151
ag71
ag494
ag518
ag379
ag179
aS'52304977'
p989
ag17
aS'5739011'
p990
ag768
ag443
ag479
ag346
asg37
I1000
sg38
Nsg39
(iread_data
Room
p991
(dp992
g37
g42
sg43
g44
sbsg45
g46
sg47
I0
sg43
S'Heuristieken 2'
p993
sba(ischedule
Activity
p994
(dp995
g8
g200
sg37
I1000
sg38
Nsg39
(iread_data
Room
p996
(dp997
g37
g254
sg43
g255
sbsg45
g46
sg47
I0
sg43
g256
sba(ischedule
Activity
p998
(dp999
g8
g822
sg37
S'15'
p1000
sg38
g824
sg39
(iread_data
Room
p1001
(dp1002
g37
g195
sg43
g196
sbsg45
g168
sg47
g677
sg43
g137
sba(ischedule
Activity
p1003
(dp1004
g8
(lp1005
g120
ag114
ag118
ag124
ag127
asg37
g823
sg38
(ischedule
Group
p1006
(dp1007
g8
g1005
sg43
S'Informatie- en organisatieontwerp2'
p1008
sbsg39
(iread_data
Room
p1009
(dp1010
g37
g135
sg43
g136
sbsg45
g108
sg47
g109
sg43
g137
sba(ischedule
Activity
p1011
(dp1012
g8
(lp1013
g16
ag348
ag368
ag328
ag585
asg37
g571
sg38
(ischedule
Group
p1014
(dp1015
g8
g1013
sg43
S'Collectieve Intelligentie4'
p1016
sbsg39
(iread_data
Room
p1017
(dp1018
g37
g166
sg43
g167
sbsg45
g108
sg47
S'4'
p1019
sg43
g456
sba(ischedule
Activity
p1020
(dp1021
g8
g51
sg37
S'40'
p1022
sg38
g101
sg39
(iread_data
Room
p1023
(dp1024
g37
g106
sg43
g107
sbsg45
g168
sg47
g109
sg43
g110
sba(ischedule
Activity
p1025
(dp1026
g8
(lp1027
g36
ag14
ag26
ag31
ag30
ag11
ag19
ag29
ag32
ag28
asg37
g399
sg38
(ischedule
Group
p1028
(dp1029
g8
g1027
sg43
S'Data Mining1'
p1030
sbsg39
(iread_data
Room
p1031
(dp1032
g37
g293
sg43
g294
sbsg45
g168
sg47
g677
sg43
g48
sbaaa(lp1033
(lp1034
(ischedule
Activity
p1035
(dp1036
g8
g898
sg37
g831
sg38
g906
sg39
(iread_data
Room
p1037
(dp1038
g37
g106
sg43
g107
sbsg45
g168
sg47
g677
sg43
g545
sba(ischedule
Activity
p1039
(dp1040
g8
g913
sg37
g875
sg38
g914
sg39
(iread_data
Room
p1041
(dp1042
g37
g254
sg43
g255
sbsg45
g108
sg47
g109
sg43
g657
sba(ischedule
Activity
p1043
(dp1044
g8
(lp1045
g268
ag24
ag641
ag443
ag346
ag379
ag382
ag479
ag10
ag158
ag248
ag192
ag990
asg37
S'20'
p1046
sg38
(ischedule
Group
p1047
(dp1048
g8
g1045
sg43
S'Heuristieken 22'
p1049
sbsg39
(iread_data
Room
p1050
(dp1051
g37
g135
sg43
g136
sbsg45
g168
sg47
g109
sg43
g993
sba(ischedule
Activity
p1052
(dp1053
g8
(lp1054
g265
ag250
ag274
ag241
ag178
ag246
ag860
aS'24875739'
p1055
ag234
ag808
ag128
ag986
ag432
ag436
ag33
ag497
ag630
ag944
aS'56348773'
p1056
aS'34173695'
p1057
ag326
ag471
asg37
g160
sg38
(ischedule
Group
p1058
(dp1059
g8
g1054
sg43
S'Calculus 21'
p1060
sbsg39
(iread_data
Room
p1061
(dp1062
g37
g42
sg43
g44
sbsg45
g168
sg47
g677
sg43
g169
sba(ischedule
Activity
p1063
(dp1064
g8
(lp1065
g52
ag64
ag95
ag23
ag82
ag58
ag68
ag29
ag378
ag800
ag176
ag569
ag227
ag816
ag598
ag582
ag14
ag648
ag498
ag478
ag805
ag496
ag644
ag221
ag799
ag798
ag801
ag491
ag810
ag348
ag653
ag391
ag642
ag353
ag469
ag461
ag98
ag386
ag148
ag754
asg37
g935
sg38
(ischedule
Group
p1066
(dp1067
g8
g1065
sg43
S'Software engineering2'
p1068
sbsg39
(iread_data
Room
p1069
(dp1070
g37
g293
sg43
g294
sbsg45
g168
sg47
g109
sg43
g819
sba(ischedule
Activity
p1071
(dp1072
g8
(lp1073
g470
ag482
ag22
ag144
ag473
ag56
ag53
ag232
ag460
ag462
ag331
ag474
ag15
ag467
asg37
g788
sg38
(ischedule
Group
p1074
(dp1075
g8
g1073
sg43
S'Bioinformatica1'
p1076
sbsg39
(iread_data
Room
p1077
(dp1078
g37
g166
sg43
g167
sbsg45
g168
sg47
g677
sg43
g486
sba(ischedule
Activity
p1079
(dp1080
g8
g880
sg37
I1000
sg38
Nsg39
(iread_data
Room
p1081
(dp1082
g37
g195
sg43
g196
sbsg45
g46
sg47
I0
sg43
g722
sbaa(lp1083
(ischedule
Activity
p1084
(dp1085
g8
(lp1086
g191
ag204
ag59
ag303
ag551
ag232
ag498
aS'28957789'
p1087
aS'11593163'
p1088
ag443
ag331
aS'78735049'
p1089
ag226
ag461
ag812
ag806
ag218
ag378
ag480
ag220
ag360
ag583
ag341
ag74
aS'19717077'
p1090
ag410
aS'77306636'
p1091
aS'79888156'
p1092
ag586
aS'72526473'
p1093
ag334
ag79
ag308
aS'59220392'
p1094
ag536
aS'6709529'
p1095
ag511
ag369
aS'78544592'
p1096
ag903
aS'93361408'
p1097
aS'70939718'
p1098
ag57
aS'62363761'
p1099
aS'10609762'
p1100
aS'55530367'
p1101
aS'82412626'
p1102
ag687
aS'37279234'
p1103
ag492
ag644
ag473
aS'75623387'
p1104
aS'65978354'
p1105
ag338
aS'9731271'
p1106
aS'58469172'
p1107
aS'32705005'
p1108
ag304
ag686
ag440
ag696
aS'53139134'
p1109
aS'31306819'
p1110
aS'22168693'
p1111
asg37
g160
sg38
(ischedule
Group
p1112
(dp1113
g8
g1086
sg43
S'Calculus 23'
p1114
sbsg39
(iread_data
Room
p1115
(dp1116
g37
g195
sg43
g196
sbsg45
g168
sg47
g417
sg43
g169
sba(ischedule
Activity
p1117
(dp1118
g8
g591
sg37
I1000
sg38
Nsg39
(iread_data
Room
p1119
(dp1120
g37
g293
sg43
g294
sbsg45
g46
sg47
I0
sg43
g532
sba(ischedule
Activity
p1121
(dp1122
g8
(lp1123
g270
ag282
ag272
ag279
ag286
ag670
ag275
ag277
ag207
ag260
ag280
ag432
ag216
ag474
ag273
ag269
ag281
ag261
ag266
ag267
ag666
ag262
ag628
ag263
ag669
ag668
ag278
ag156
ag56
ag284
ag276
ag264
ag667
ag268
ag271
ag274
ag283
ag265
ag285
asg37
I1000
sg38
Nsg39
(iread_data
Room
p1124
(dp1125
g37
g106
sg43
g107
sbsg45
g46
sg47
I0
sg43
g295
sba(ischedule
Activity
p1126
(dp1127
g8
(lp1128
g352
ag387
ag245
asg37
S'20'
p1129
sg38
(ischedule
Group
p1130
(dp1131
g8
g1128
sg43
S'Netwerken en systeembeveiliging4'
p1132
sbsg39
(iread_data
Room
p1133
(dp1134
g37
g166
sg43
g167
sbsg45
g108
sg47
g1019
sg43
S'Netwerken en systeembeveiliging'
p1135
sba(ischedule
Activity
p1136
(dp1137
g8
(lp1138
g16
ag58
ag386
ag477
ag212
ag475
ag24
ag464
ag463
ag483
ag481
ag330
asg37
g788
sg38
(ischedule
Group
p1139
(dp1140
g8
g1138
sg43
S'Bioinformatica3'
p1141
sbsg39
(iread_data
Room
p1142
(dp1143
g37
g254
sg43
g255
sbsg45
g168
sg47
g417
sg43
g486
sba(ischedule
Activity
p1144
(dp1145
g8
(lp1146
g250
ag52
ag754
ag36
ag225
ag353
ag391
ag470
ag154
ag63
ag17
ag239
ag375
ag756
ag22
ag238
ag757
ag964
ag190
ag118
ag243
ag755
asg37
I1000
sg38
Nsg39
(iread_data
Room
p1147
(dp1148
g37
g42
sg43
g44
sbsg45
g46
sg47
I0
sg43
g764
sbaa(lp1149
(ischedule
Activity
p1150
(dp1151
g8
(lp1152
g264
ag63
ag350
ag331
ag243
ag17
ag351
ag144
ag212
ag190
ag330
ag315
ag281
ag321
ag155
ag271
ag339
ag323
ag358
ag270
ag327
ag359
ag342
ag344
ag353
ag352
ag320
ag249
ag343
ag317
ag145
ag91
ag60
ag349
ag325
ag116
ag329
ag316
ag338
ag131
ag97
ag319
ag355
ag347
ag234
ag147
ag303
ag332
ag202
ag220
ag333
ag356
ag360
ag345
ag334
ag322
ag326
ag335
ag361
asg37
S'40'
p1153
sg38
(ischedule
Group
p1154
(dp1155
g8
g1152
sg43
S'Databases 22'
p1156
sbsg39
(iread_data
Room
p1157
(dp1158
g37
g254
sg43
g255
sbsg45
g168
sg47
g109
sg43
g364
sba(ischedule
Activity
p1159
(dp1160
g8
g1065
sg37
S'40'
p1161
sg38
g1066
sg39
(iread_data
Room
p1162
(dp1163
g37
g106
sg43
g107
sbsg45
g108
sg47
g109
sg43
g819
sba(ischedule
Activity
p1164
(dp1165
g8
(lp1166
g1106
ag125
ag118
aS'53267490'
p1167
aS'19058315'
p1168
ag944
ag389
ag523
aS'25557516'
p1169
ag373
ag475
ag87
ag436
aS'123355'
p1170
ag503
ag689
ag408
ag65
aS'59887191'
p1171
ag75
asg37
g1129
sg38
(ischedule
Group
p1172
(dp1173
g8
g1166
sg43
S'Netwerken en systeembeveiliging1'
p1174
sbsg39
(iread_data
Room
p1175
(dp1176
g37
g42
sg43
g44
sbsg45
g108
sg47
g677
sg43
g1135
sba(ischedule
Activity
p1177
(dp1178
g8
g934
sg37
g1161
sg38
g936
sg39
(iread_data
Room
p1179
(dp1180
g37
g293
sg43
g294
sbsg45
g108
sg47
g677
sg43
g819
sba(ischedule
Activity
p1181
(dp1182
g8
(lp1183
g370
ag437
ag476
ag120
ag35
ag1087
aS'82233873'
p1184
ag604
ag849
aS'88597745'
p1185
aS'63955238'
p1186
ag410
aS'57701414'
p1187
ag59
ag235
ag650
asg37
g837
sg38
(ischedule
Group
p1188
(dp1189
g8
g1183
sg43
S'Zoeken sturen en bewegen3'
p1190
sbsg39
(iread_data
Room
p1191
(dp1192
g37
g195
sg43
g196
sbsg45
g108
sg47
g417
sg43
g843
sbaa(lp1193
(ischedule
Activity
p1194
(dp1195
g8
(lp1196
g436
ag326
ag1110
ag33
ag142
ag144
ag145
ag156
ag1101
ag443
ag148
ag241
ag1098
ag1100
ag234
ag155
ag1094
ag159
ag1097
ag586
ag1091
ag79
ag1108
ag440
ag1111
ag498
ag497
ag334
ag1056
ag432
ag806
ag1090
ag57
ag687
ag812
ag128
ag808
ag152
ag378
ag141
ag149
ag471
ag204
ag154
ag511
ag220
ag246
ag1088
ag150
ag1104
ag147
ag232
ag341
ag1103
ag1109
ag1057
ag331
ag686
ag308
ag536
ag696
ag218
ag1093
ag369
ag360
ag1099
ag1092
ag1089
ag265
ag630
ag1095
ag153
ag146
ag143
ag644
ag274
ag1096
ag151
ag338
ag860
ag1102
ag1106
ag226
ag1107
ag492
ag461
ag74
ag551
ag304
ag410
ag1087
ag250
ag158
ag303
ag480
ag944
ag1105
ag59
ag157
ag1055
ag903
ag986
ag191
ag178
ag583
ag473
asg37
I1000
sg38
Nsg39
(iread_data
Room
p1197
(dp1198
g37
g195
sg43
g196
sbsg45
g46
sg47
I0
sg43
g169
sba(ischedule
Activity
p1199
(dp1200
g8
(lp1201
g177
aS'90296821'
p1202
ag62
aS'64053722'
p1203
ag249
asg37
g615
sg38
(ischedule
Group
p1204
(dp1205
g8
g1201
sg43
S'Programmeren in Java 21'
p1206
sbsg39
(iread_data
Room
p1207
(dp1208
g37
g42
sg43
g44
sbsg45
g108
sg47
g677
sg43
g621
sba(ischedule
Activity
p1209
(dp1210
g8
g113
sg37
I1000
sg38
Nsg39
(iread_data
Room
p1211
(dp1212
g37
g254
sg43
g255
sbsg45
g46
sg47
I0
sg43
g137
sba(ischedule
Activity
p1213
(dp1214
g8
(lp1215
g799
ag339
ag24
ag29
ag319
ag464
aS'16912993'
p1216
ag601
ag19
ag477
ag468
ag631
ag901
ag810
ag809
ag653
ag888
ag327
ag236
ag348
ag309
ag322
aS'85284256'
p1217
ag267
aS'12170832'
p1218
ag349
asg37
g1129
sg38
(ischedule
Group
p1219
(dp1220
g8
g1215
sg43
S'Netwerken en systeembeveiliging3'
p1221
sbsg39
(iread_data
Room
p1222
(dp1223
g37
g293
sg43
g294
sbsg45
g108
sg47
g417
sg43
g1135
sba(ischedule
Activity
p1224
(dp1225
g8
(lp1226
g705
ag205
ag237
ag84
ag713
aS'37419523'
p1227
aS'32183908'
p1228
ag73
ag754
ag275
aS'40911986'
p1229
aS'19662602'
p1230
ag479
ag690
ag202
aS'90103047'
p1231
asg37
g866
sg38
(ischedule
Group
p1232
(dp1233
g8
g1226
sg43
S'Project Numerical Recipes1'
p1234
sbsg39
(iread_data
Room
p1235
(dp1236
g37
g106
sg43
g107
sbsg45
g108
sg47
g677
sg43
g872
sbaa(lp1237
(ischedule
Activity
p1238
(dp1239
g8
g430
sg37
g571
sg38
g451
sg39
(iread_data
Room
p1240
(dp1241
g37
g42
sg43
g44
sbsg45
g108
sg47
g109
sg43
g456
sba(ischedule
Activity
p1242
(dp1243
g8
g459
sg37
I1000
sg38
Nsg39
(iread_data
Room
p1244
(dp1245
g37
g254
sg43
g255
sbsg45
g46
sg47
I0
sg43
g486
sba(ischedule
Activity
p1246
(dp1247
g8
g259
sg37
g671
sg38
g288
sg39
(iread_data
Room
p1248
(dp1249
g37
g195
sg43
g196
sbsg45
g108
sg47
g109
sg43
g295
sba(ischedule
Activity
p1250
(dp1251
g8
(lp1252
g339
ag594
ag603
ag183
ag593
ag228
ag495
ag71
ag203
ag504
ag123
ag68
ag605
ag598
ag595
asg37
g526
sg38
(ischedule
Group
p1253
(dp1254
g8
g1252
sg43
S'Reflectie op de digitale cultuur3'
p1255
sbsg39
(iread_data
Room
p1256
(dp1257
g37
g166
sg43
g167
sbsg45
g168
sg47
g417
sg43
g532
sba(ischedule
Activity
p1258
(dp1259
g8
g1146
sg37
I1000
sg38
Nsg39
(iread_data
Room
p1260
(dp1261
g37
g135
sg43
g136
sbsg45
g46
sg47
I0
sg43
g764
sba(ischedule
Activity
p1262
(dp1263
g8
(lp1264
g348
ag251
ag318
ag337
ag357
ag346
ag324
ag340
ag248
ag354
ag328
ag336
ag341
asg37
g1153
sg38
(ischedule
Group
p1265
(dp1266
g8
g1264
sg43
S'Databases 21'
p1267
sbsg39
(iread_data
Room
p1268
(dp1269
g37
g293
sg43
g294
sbsg45
g168
sg47
g677
sg43
g364
sba(ischedule
Activity
p1270
(dp1271
g8
(lp1272
g205
ag249
ag182
ag187
ag237
ag184
ag120
ag245
ag146
ag304
ag302
ag301
ag305
ag308
ag309
ag307
ag275
ag306
ag190
ag300
ag303
asg37
g1022
sg38
(ischedule
Group
p1273
(dp1274
g8
g1272
sg43
S'Compilerbouw1'
p1275
sbsg39
(iread_data
Room
p1276
(dp1277
g37
g106
sg43
g107
sbsg45
g168
sg47
g677
sg43
g110
sbaaa(lp1278
(lp1279
(ischedule
Activity
p1280
(dp1281
g8
g1272
sg37
g100
sg38
g1273
sg39
(iread_data
Room
p1282
(dp1283
g37
g135
sg43
g136
sbsg45
g108
sg47
g677
sg43
g110
sba(ischedule
Activity
p1284
(dp1285
g8
(lp1286
g142
aS'34262212'
p1287
ag55
ag221
aS'44940353'
p1288
ag1087
aS'37498675'
p1289
ag188
ag176
ag373
ag125
ag482
ag333
ag707
aS'91139627'
p1290
ag52
ag472
ag805
ag57
ag126
ag431
ag554
ag649
ag65
ag1186
ag685
ag521
ag603
ag211
ag380
ag232
ag175
aS'82688900'
p1291
ag710
ag408
ag53
ag376
ag189
ag260
aS'38329455'
p1292
ag705
ag1089
ag213
ag131
aS'79858178'
p1293
ag74
ag1107
ag236
aS'63408522'
p1294
ag1108
aS'39659121'
p1295
aS'47605891'
p1296
ag387
aS'51186803'
p1297
aS'72547110'
p1298
aS'23391676'
p1299
ag331
ag180
aS'10872825'
p1300
ag342
aS'79366078'
p1301
ag358
ag1055
ag226
ag804
ag183
ag158
ag648
ag810
ag888
ag32
ag519
ag642
ag21
ag71
ag265
ag215
ag479
ag351
ag900
aS'39919665'
p1302
ag1106
aS'7492204'
p1303
aS'65003379'
p1304
asg37
I1000
sg38
Nsg39
(iread_data
Room
p1305
(dp1306
g37
g195
sg43
g196
sbsg45
g46
sg47
I0
sg43
S'Kansrekenen 2'
p1307
sba(ischedule
Activity
p1308
(dp1309
g8
(lp1310
g627
ag631
ag437
ag262
ag945
ag315
ag261
ag369
ag157
ag944
ag326
asg37
g769
sg38
(ischedule
Group
p1311
(dp1312
g8
g1310
sg43
S'Advanced Heuristics2'
p1313
sbsg39
(iread_data
Room
p1314
(dp1315
g37
g254
sg43
g255
sbsg45
g108
sg47
g109
sg43
g775
sba(ischedule
Activity
p1316
(dp1317
g8
(lp1318
g391
ag471
ag266
ag462
ag466
ag460
ag597
ag496
ag27
ag60
ag267
ag354
ag596
ag178
ag328
ag337
ag600
ag602
ag601
ag323
ag604
ag506
ag36
ag592
ag599
ag500
asg37
g526
sg38
(ischedule
Group
p1319
(dp1320
g8
g1318
sg43
S'Reflectie op de digitale cultuur1'
p1321
sbsg39
(iread_data
Room
p1322
(dp1323
g37
g293
sg43
g294
sbsg45
g168
sg47
g677
sg43
g532
sba(ischedule
Activity
p1324
(dp1325
g8
g665
sg37
g287
sg38
g672
sg39
(iread_data
Room
p1326
(dp1327
g37
g166
sg43
g167
sbsg45
g168
sg47
g677
sg43
g295
sba(ischedule
Activity
p1328
(dp1329
g8
g963
sg37
g758
sg38
g965
sg39
(iread_data
Room
p1330
(dp1331
g37
g42
sg43
g44
sbsg45
g108
sg47
g417
sg43
g764
sba(ischedule
Activity
p1332
(dp1333
g8
g1138
sg37
S'20'
p1334
sg38
g1139
sg39
(iread_data
Room
p1335
(dp1336
g37
g106
sg43
g107
sbsg45
g108
sg47
g417
sg43
g486
sbaa(lp1337
(ischedule
Activity
p1338
(dp1339
g8
g684
sg37
I1000
sg38
Nsg39
(iread_data
Room
p1340
(dp1341
g37
g106
sg43
g107
sbsg45
g46
sg47
I0
sg43
g699
sba(ischedule
Activity
p1342
(dp1343
g8
g580
sg37
I1000
sg38
Nsg39
(iread_data
Room
p1344
(dp1345
g37
g195
sg43
g196
sbsg45
g46
sg47
I0
sg43
g456
sba(ischedule
Activity
p1346
(dp1347
g8
g1073
sg37
g1334
sg38
g1074
sg39
(iread_data
Room
p1348
(dp1349
g37
g293
sg43
g294
sbsg45
g108
sg47
g677
sg43
g486
sba(ischedule
Activity
p1350
(dp1351
g8
(lp1352
g17
ag882
ag250
ag986
ag666
ag989
ag768
ag71
ag266
ag630
ag494
ag179
ag985
ag356
ag151
ag987
ag988
ag518
ag984
asg37
g1046
sg38
(ischedule
Group
p1353
(dp1354
g8
g1352
sg43
S'Heuristieken 21'
p1355
sbsg39
(iread_data
Room
p1356
(dp1357
g37
g135
sg43
g136
sbsg45
g168
sg47
g677
sg43
g993
sba(ischedule
Activity
p1358
(dp1359
g8
g1005
sg37
g1000
sg38
g1006
sg39
(iread_data
Room
p1360
(dp1361
g37
g254
sg43
g255
sbsg45
g168
sg47
g109
sg43
g137
sba(ischedule
Activity
p1362
(dp1363
g8
g1027
sg37
g660
sg38
g1028
sg39
(iread_data
Room
p1364
(dp1365
g37
g166
sg43
g167
sbsg45
g108
sg47
g677
sg43
g48
sba(ischedule
Activity
p1366
(dp1367
g8
g787
sg37
g1334
sg38
g789
sg39
(iread_data
Room
p1368
(dp1369
g37
g42
sg43
g44
sbsg45
g108
sg47
g109
sg43
g486
sbaa(lp1370
(ischedule
Activity
p1371
(dp1372
g8
g1286
sg37
I1000
sg38
Nsg39
(iread_data
Room
p1373
(dp1374
g37
g195
sg43
g196
sbsg45
g46
sg47
I0
sg43
g1307
sba(ischedule
Activity
p1375
(dp1376
g8
g1013
sg37
g450
sg38
g1014
sg39
(iread_data
Room
p1377
(dp1378
g37
g293
sg43
g294
sbsg45
g168
sg47
g1019
sg43
g456
sba(ischedule
Activity
p1379
(dp1380
g8
(lp1381
g130
ag120
ag141
ag466
ag98
ag652
ag800
ag347
aS'41489515'
p1382
ag147
ag596
aS'51650744'
p1383
aS'18144425'
p1384
ag146
ag1096
aS'96082155'
p1385
aS'27241113'
p1386
ag83
ag86
aS'27916487'
p1387
asg37
g539
sg38
(ischedule
Group
p1388
(dp1389
g8
g1381
sg43
S'Moderne Databases2'
p1390
sbsg39
(iread_data
Room
p1391
(dp1392
g37
g166
sg43
g167
sbsg45
g108
sg47
g109
sg43
g545
sba(ischedule
Activity
p1393
(dp1394
g8
(lp1395
g53
ag219
ag212
ag262
ag586
ag358
ag346
ag243
ag581
ag582
ag477
ag583
ag115
ag61
ag584
asg37
g571
sg38
(ischedule
Group
p1396
(dp1397
g8
g1395
sg43
S'Collectieve Intelligentie1'
p1398
sbsg39
(iread_data
Room
p1399
(dp1400
g37
g106
sg43
g107
sbsg45
g108
sg47
g677
sg43
g456
sba(ischedule
Activity
p1401
(dp1402
g8
(lp1403
g90
ag181
ag383
ag273
ag604
ag29
ag808
ag903
ag471
asg37
g615
sg38
(ischedule
Group
p1404
(dp1405
g8
g1403
sg43
S'Programmeren in Java 26'
p1406
sbsg39
(iread_data
Room
p1407
(dp1408
g37
g135
sg43
g136
sbsg45
g108
sg47
S'6'
p1409
sg43
g621
sba(ischedule
Activity
p1410
(dp1411
g8
(lp1412
g481
ag469
ag598
ag386
ag321
ag13
aS'64418623'
p1413
aS'44151631'
p1414
ag433
ag944
aS'47260040'
p1415
aS'1695839'
p1416
ag156
aS'91250534'
p1417
ag132
ag217
ag890
asg37
g558
sg38
(ischedule
Group
p1418
(dp1419
g8
g1412
sg43
S'Compilerbouw practicum1'
p1420
sbsg39
(iread_data
Room
p1421
(dp1422
g37
g254
sg43
g255
sbsg45
g108
sg47
g677
sg43
g564
sba(ischedule
Activity
p1423
(dp1424
g8
(lp1425
g271
ag440
aS'24167153'
p1426
ag812
ag483
ag223
ag154
ag1171
aS'37804282'
p1427
ag34
ag302
ag1094
aS'13210212'
p1428
ag123
ag203
ag361
aS'33946407'
p1429
ag501
ag339
ag354
ag81
aS'57419039'
p1430
ag56
ag757
ag174
asg37
g837
sg38
(ischedule
Group
p1431
(dp1432
g8
g1425
sg43
S'Zoeken sturen en bewegen2'
p1433
sbsg39
(iread_data
Room
p1434
(dp1435
g37
g42
sg43
g44
sbsg45
g108
sg47
g109
sg43
g843
sbaa(lp1436
(ischedule
Activity
p1437
(dp1438
g8
(lp1439
g1287
ag813
ag74
ag1106
ag373
ag554
ag988
ag331
ag802
aS'7386961'
p1440
ag60
ag32
ag338
ag326
ag59
ag191
ag16
ag115
ag92
ag21
ag307
ag158
aS'88263855'
p1441
aS'10702778'
p1442
ag380
ag192
ag586
ag809
ag242
aS'51791169'
p1443
ag124
aS'12782624'
p1444
ag219
ag500
ag690
ag351
ag651
ag583
ag1299
ag556
ag814
ag1303
aS'28943658'
p1445
aS'88519892'
p1446
ag20
ag460
ag1217
ag445
asg37
g615
sg38
(ischedule
Group
p1447
(dp1448
g8
g1439
sg43
S'Programmeren in Java 24'
p1449
sbsg39
(iread_data
Room
p1450
(dp1451
g37
g106
sg43
g107
sbsg45
g108
sg47
g1019
sg43
g621
sba(ischedule
Activity
p1452
(dp1453
g8
(lp1454
g347
ag146
ag903
ag131
ag596
ag899
ag243
ag905
ag130
ag466
ag800
ag524
ag902
ag340
ag147
ag86
ag601
ag320
ag369
ag98
ag480
ag900
ag1384
ag1385
ag370
ag904
ag1096
ag223
ag1382
ag323
ag652
ag1387
ag80
ag359
ag350
ag142
ag806
ag286
ag434
ag333
ag119
ag537
ag83
ag120
ag901
ag1386
ag177
ag1383
ag174
ag84
ag536
ag666
ag538
ag141
asg37
I1000
sg38
Nsg39
(iread_data
Room
p1455
(dp1456
g37
g195
sg43
g196
sbsg45
g46
sg47
I0
sg43
g545
sba(ischedule
Activity
p1457
(dp1458
g8
g778
sg37
g758
sg38
g780
sg39
(iread_data
Room
p1459
(dp1460
g37
g293
sg43
g294
sbsg45
g108
sg47
g109
sg43
g764
sba(ischedule
Activity
p1461
(dp1462
g8
g753
sg37
g779
sg38
g759
sg39
(iread_data
Room
p1463
(dp1464
g37
g254
sg43
g255
sbsg45
g168
sg47
g677
sg43
g764
sba(ischedule
Activity
p1465
(dp1466
g8
g1123
sg37
I1000
sg38
Nsg39
(iread_data
Room
p1467
(dp1468
g37
g42
sg43
g44
sbsg45
g46
sg47
I0
sg43
g295
sba(ischedule
Activity
p1469
(dp1470
g8
(lp1471
g440
ag324
ag1099
ag506
ag549
ag1098
ag368
ag343
ag62
ag10
ag863
aS'5590289'
p1472
ag494
ag25
aS'64246605'
p1473
asg37
g1129
sg38
(ischedule
Group
p1474
(dp1475
g8
g1471
sg43
S'Netwerken en systeembeveiliging2'
p1476
sbsg39
(iread_data
Room
p1477
(dp1478
g37
g166
sg43
g167
sbsg45
g108
sg47
g109
sg43
g1135
sbaa(lp1479
(ischedule
Activity
p1480
(dp1481
g8
(lp1482
g437
ag88
ag881
ag882
ag495
ag132
ag269
asg37
g716
sg38
(ischedule
Group
p1483
(dp1484
g8
g1482
sg43
S'Technology for games1'
p1485
sbsg39
(iread_data
Room
p1486
(dp1487
g37
g166
sg43
g167
sbsg45
g168
sg47
g677
sg43
g722
sba(ischedule
Activity
p1488
(dp1489
g8
g1395
sg37
g450
sg38
g1396
sg39
(iread_data
Room
p1490
(dp1491
g37
g42
sg43
g44
sbsg45
g168
sg47
g677
sg43
g456
sba(ischedule
Activity
p1492
(dp1493
g8
g421
sg37
g660
sg38
g422
sg39
(iread_data
Room
p1494
(dp1495
g37
g195
sg43
g196
sbsg45
g108
sg47
g417
sg43
g48
sba(ischedule
Activity
p1496
(dp1497
g8
(lp1498
g118
ag351
ag232
ag36
ag359
ag373
ag387
ag371
ag14
ag148
ag383
ag319
ag378
ag368
ag389
ag388
ag381
ag276
ag374
ag369
ag26
ag391
ag382
ag130
ag385
ag213
ag123
ag370
ag384
ag157
ag217
ag124
ag77
ag379
ag390
ag229
ag372
ag144
ag375
asg37
g726
sg38
(ischedule
Group
p1499
(dp1500
g8
g1498
sg43
S'Heuristieken 12'
p1501
sbsg39
(iread_data
Room
p1502
(dp1503
g37
g254
sg43
g255
sbsg45
g168
sg47
g109
sg43
g395
sba(ischedule
Activity
p1504
(dp1505
g8
g1381
sg37
g831
sg38
g1388
sg39
(iread_data
Room
p1506
(dp1507
g37
g135
sg43
g136
sbsg45
g168
sg47
g109
sg43
g545
sba(ischedule
Activity
p1508
(dp1509
g8
(lp1510
g448
ag1185
ag153
ag703
ag131
ag215
ag203
ag268
aS'39905995'
p1511
ag986
ag302
ag601
ag348
ag551
ag67
ag248
ag116
ag480
aS'73893840'
p1512
ag96
ag304
ag1107
ag337
aS'54395877'
p1513
ag1103
ag964
ag236
aS'63096281'
p1514
ag251
ag667
ag493
ag211
ag811
asg37
g615
sg38
(ischedule
Group
p1515
(dp1516
g8
g1510
sg43
S'Programmeren in Java 22'
p1517
sbsg39
(iread_data
Room
p1518
(dp1519
g37
g106
sg43
g107
sbsg45
g108
sg47
g109
sg43
g621
sba(ischedule
Activity
p1520
(dp1521
g8
g172
sg37
I1000
sg38
Nsg39
(iread_data
Room
p1522
(dp1523
g37
g293
sg43
g294
sbsg45
g46
sg47
I0
sg43
g197
sbaaa(lp1524
(lp1525
a(lp1526
a(lp1527
a(lp1528
a(lp1529
aasS'timeslot_dict'
p1530
(dp1531
I0
S'9:00-11:00'
p1532
sI1
S'11:00-13:00'
p1533
sI2
S'13:00-15:00'
p1534
sI3
S'15:00-17:00'
p1535
sI4
S'17:00-19:00'
p1536
ssS'day_dict'
p1537
(dp1538
I0
S'Monday'
p1539
sI1
S'Tuesday'
p1540
sI2
S'Wednesday'
p1541
sI3
S'Thursday'
p1542
sI4
S'Friday'
p1543
ssb.