(ischedule
Schedule
p0
(dp1
S'timetable'
p2
(lp3
(lp4
(lp5
(ischedule
Activity
p6
(dp7
S'participants'
p8
(lp9
S'22826928'
p10
aS'24613625'
p11
aS'89985072'
p12
aS'28359697'
p13
aS'7308727'
p14
aS'56749879'
p15
aS'6913074'
p16
aS'73236988'
p17
aS'3168419'
p18
aS'96054456'
p19
aS'81200278'
p20
aS'53202517'
p21
aS'66120270'
p22
aS'30195935'
p23
aS'30050930'
p24
aS'77831658'
p25
aS'96453361'
p26
aS'88176729'
p27
aS'85335143'
p28
aS'6723948'
p29
aS'74131924'
p30
aS'14591033'
p31
aS'70878567'
p32
aS'4568018'
p33
aS'54026378'
p34
aS'79617364'
p35
aS'21964491'
p36
aS'247918'
p37
aS'42196732'
p38
aS'15051051'
p39
aS'33930505'
p40
aS'59544049'
p41
aS'44868097'
p42
aS'11068043'
p43
aS'20883994'
p44
aS'22731474'
p45
aS'43680781'
p46
aS'29526540'
p47
aS'14816774'
p48
aS'58522654'
p49
aS'64600457'
p50
aS'5298748'
p51
aS'33877725'
p52
aS'56815156'
p53
aS'21029457'
p54
asS'capacity'
p55
I1000
sS'group'
p56
NsS'room'
p57
(iread_data
Room
p58
(dp59
g55
S'56'
p60
sS'name'
p61
S'A1.10'
p62
sbsS'ttype'
p63
S'lectures'
p64
sS'group_id'
p65
I0
sg61
S'Bioinformatica'
p66
sba(ischedule
Activity
p67
(dp68
g8
(lp69
S'3407554'
p70
aS'68315599'
p71
aS'75599734'
p72
aS'11741347'
p73
aS'92665222'
p74
aS'49683101'
p75
aS'39459642'
p76
ag17
aS'79167252'
p77
ag29
aS'34243356'
p78
aS'65960683'
p79
aS'79033175'
p80
aS'75759231'
p81
aS'37770881'
p82
aS'30658799'
p83
aS'75664412'
p84
aS'14309255'
p85
aS'86291592'
p86
aS'9067939'
p87
aS'48308205'
p88
aS'72895450'
p89
aS'84524083'
p90
aS'83266686'
p91
aS'72796858'
p92
aS'48503689'
p93
aS'95631564'
p94
ag21
aS'7957843'
p95
aS'44391517'
p96
aS'34110913'
p97
aS'10792879'
p98
aS'2317551'
p99
aS'80135353'
p100
aS'27187154'
p101
aS'8464817'
p102
aS'40791377'
p103
aS'60312776'
p104
aS'13911001'
p105
aS'76661016'
p106
aS'31194811'
p107
aS'95007221'
p108
ag11
aS'27950803'
p109
aS'66701209'
p110
aS'5368702'
p111
aS'88752563'
p112
aS'13284244'
p113
aS'77896638'
p114
aS'11915563'
p115
aS'65852230'
p116
aS'15911353'
p117
aS'2079771'
p118
aS'1766560'
p119
aS'34872117'
p120
aS'12077419'
p121
aS'86988337'
p122
aS'94687383'
p123
aS'81385263'
p124
aS'88855695'
p125
aS'5595824'
p126
ag49
aS'76802764'
p127
aS'88636924'
p128
aS'54772132'
p129
aS'42778953'
p130
aS'98105190'
p131
aS'43689934'
p132
aS'46989508'
p133
asg55
I1000
sg56
Nsg57
(iread_data
Room
p134
(dp135
g55
S'117'
p136
sg61
S'C0.110'
p137
sbsg63
g64
sg65
I0
sg61
S'Compilerbouw'
p138
sba(ischedule
Activity
p139
(dp140
g8
(lp141
S'40434933'
p142
aS'26406342'
p143
aS'22323043'
p144
aS'11996292'
p145
aS'75521763'
p146
aS'44901052'
p147
aS'92496780'
p148
aS'77264363'
p149
aS'93041523'
p150
aS'69086548'
p151
aS'10149535'
p152
aS'89338938'
p153
aS'6249823'
p154
aS'58565406'
p155
aS'4697362'
p156
aS'47982619'
p157
aS'77636749'
p158
aS'41578612'
p159
asg55
S'20'
p160
sg56
(ischedule
Group
p161
(dp162
g8
g141
sg61
S'Technology for games1'
p163
sbsg57
(iread_data
Room
p164
(dp165
g55
S'22'
p166
sg61
S'A1.06'
p167
sbsg63
S'tutorials'
p168
sg65
S'1'
p169
sg61
S'Technology for games'
p170
sba(ischedule
Activity
p171
(dp172
g8
(lp173
S'43902015'
p174
aS'64228258'
p175
aS'5615125'
p176
aS'39230359'
p177
aS'78243495'
p178
aS'69459473'
p179
aS'14847953'
p180
aS'94930277'
p181
aS'43460038'
p182
asg55
S'20'
p183
sg56
(ischedule
Group
p184
(dp185
g8
g173
sg61
S'Webprogrammeren en databases2'
p186
sbsg57
(iread_data
Room
p187
(dp188
g55
S'20'
p189
sg61
S'A1.08'
p190
sbsg63
S'labs'
p191
sg65
S'2'
p192
sg61
S'Webprogrammeren en databases'
p193
sba(ischedule
Activity
p194
(dp195
g8
(lp196
S'22871048'
p197
aS'51566595'
p198
aS'52552718'
p199
aS'68409833'
p200
aS'34806836'
p201
aS'37110913'
p202
aS'19858730'
p203
aS'16097870'
p204
aS'27298319'
p205
aS'5517869'
p206
ag115
asg55
S'10'
p207
sg56
(ischedule
Group
p208
(dp209
g8
g196
sg61
S'Autonomous Agents 21'
p210
sbsg57
(iread_data
Room
p211
(dp212
g55
S'48'
p213
sg61
S'B0.201'
p214
sbsg63
g191
sg65
g169
sg61
S'Autonomous Agents 2'
p215
sba(ischedule
Activity
p216
(dp217
g8
(lp218
S'29640619'
p219
aS'21677389'
p220
aS'51741554'
p221
aS'82872148'
p222
aS'70844780'
p223
aS'3883025'
p224
aS'72665524'
p225
aS'38499176'
p226
asg55
S'20'
p227
sg56
(ischedule
Group
p228
(dp229
g8
g218
sg61
S'Netwerken en systeembeveiliging3'
p230
sbsg57
(iread_data
Room
p231
(dp232
g55
S'41'
p233
sg61
S'A1.04'
p234
sbsg63
g191
sg65
S'3'
p235
sg61
S'Netwerken en systeembeveiliging'
p236
sbaa(lp237
(ischedule
Activity
p238
(dp239
g8
(lp240
S'39919665'
p241
aS'99272880'
p242
aS'34262212'
p243
aS'47605891'
p244
aS'44940353'
p245
aS'97019450'
p246
aS'3685034'
p247
aS'10872825'
p248
aS'94955328'
p249
aS'65003379'
p250
ag78
aS'54310617'
p251
aS'37498675'
p252
aS'61518436'
p253
ag19
aS'42115591'
p254
ag111
aS'94467156'
p255
ag44
ag101
aS'32705005'
p256
aS'28957789'
p257
ag41
aS'9731271'
p258
ag153
aS'79366078'
p259
aS'91196968'
p260
aS'14671406'
p261
aS'18266644'
p262
aS'8522855'
p263
aS'7492204'
p264
aS'17823206'
p265
aS'58332004'
p266
aS'63955238'
p267
aS'72547110'
p268
ag176
aS'46570285'
p269
aS'78136904'
p270
ag90
aS'77240949'
p271
aS'58469172'
p272
aS'78735049'
p273
aS'51542218'
p274
aS'41585485'
p275
aS'64296965'
p276
ag151
aS'38329455'
p277
aS'84110134'
p278
aS'81218347'
p279
ag158
aS'51186803'
p280
aS'76924297'
p281
aS'24875739'
p282
ag98
aS'39659121'
p283
aS'36903574'
p284
aS'54569540'
p285
aS'14398123'
p286
aS'55474917'
p287
aS'31247305'
p288
aS'49631542'
p289
ag45
aS'82688900'
p290
aS'20239127'
p291
ag49
ag15
ag115
aS'63408522'
p292
ag226
aS'79858178'
p293
aS'41527759'
p294
ag31
aS'56988998'
p295
aS'23391676'
p296
aS'23798155'
p297
aS'97371272'
p298
ag177
aS'63634350'
p299
aS'91139627'
p300
aS'31633723'
p301
aS'59075181'
p302
aS'20331158'
p303
aS'47462856'
p304
aS'74182182'
p305
asg55
I1000
sg56
Nsg57
(iread_data
Room
p306
(dp307
g55
g136
sg61
g137
sbsg63
g64
sg65
I0
sg61
S'Kansrekenen 2'
p308
sba(ischedule
Activity
p309
(dp310
g8
(lp311
g219
aS'15902055'
p312
aS'45556081'
p313
ag114
aS'31416266'
p314
ag79
aS'3233378'
p315
aS'50184318'
p316
ag143
aS'42171678'
p317
ag221
aS'33760909'
p318
aS'64393888'
p319
aS'62701040'
p320
aS'1075391'
p321
aS'23547619'
p322
ag130
aS'1696500'
p323
aS'82689818'
p324
aS'96104167'
p325
ag146
aS'25106480'
p326
aS'73980360'
p327
aS'17575088'
p328
aS'24277163'
p329
asg55
S'20'
p330
sg56
(ischedule
Group
p331
(dp332
g8
g311
sg61
S'Collectieve Intelligentie2'
p333
sbsg57
(iread_data
Room
p334
(dp335
g55
S'60'
p336
sg61
S'C1.112'
p337
sbsg63
g191
sg65
g192
sg61
S'Collectieve Intelligentie'
p338
sba(ischedule
Activity
p339
(dp340
g8
(lp341
g38
aS'13092455'
p342
aS'28357474'
p343
aS'57595888'
p344
aS'68601184'
p345
ag104
asg55
S'20'
p346
sg56
(ischedule
Group
p347
(dp348
g8
g341
sg61
S'Collectieve Intelligentie4'
p349
sbsg57
(iread_data
Room
p350
(dp351
g55
g166
sg61
g167
sbsg63
g168
sg65
S'4'
p352
sg61
g338
sba(ischedule
Activity
p353
(dp354
g8
(lp355
g89
aS'3474870'
p356
ag142
ag52
ag21
aS'16333449'
p357
aS'61443567'
p358
aS'77392404'
p359
aS'57086672'
p360
aS'53512831'
p361
aS'27064249'
p362
aS'2416751'
p363
ag154
aS'49908313'
p364
aS'14303208'
p365
aS'1137946'
p366
aS'24891081'
p367
aS'76648468'
p368
aS'89180944'
p369
aS'76123484'
p370
aS'67073567'
p371
aS'66034145'
p372
aS'76903244'
p373
aS'41790793'
p374
aS'20618153'
p375
aS'17092717'
p376
aS'72577292'
p377
aS'28358060'
p378
aS'22288615'
p379
aS'10698627'
p380
asg55
g183
sg56
(ischedule
Group
p381
(dp382
g8
g355
sg61
S'Webprogrammeren en databases1'
p383
sbsg57
(iread_data
Room
p384
(dp385
g55
g213
sg61
g214
sbsg63
g191
sg65
g169
sg61
g193
sba(ischedule
Activity
p386
(dp387
g8
(lp388
S'66122625'
p389
ag198
ag30
ag202
aS'98780382'
p390
aS'59753700'
p391
aS'99453514'
p392
aS'68360259'
p393
asg55
S'10'
p394
sg56
(ischedule
Group
p395
(dp396
g8
g388
sg61
S'Data Mining2'
p397
sbsg57
(iread_data
Room
p398
(dp399
g55
g60
sg61
g62
sbsg63
g191
sg65
g192
sg61
S'Data Mining'
p400
sba(ischedule
Activity
p401
(dp402
g8
(lp403
g36
ag20
ag144
asg55
S'10'
p404
sg56
(ischedule
Group
p405
(dp406
g8
g403
sg61
S'Data Mining3'
p407
sbsg57
(iread_data
Room
p408
(dp409
g55
g233
sg61
g234
sbsg63
g168
sg65
g235
sg61
g400
sba(ischedule
Activity
p410
(dp411
g8
(lp412
g25
aS'32183908'
p413
aS'13996448'
p414
aS'12430748'
p415
ag113
asg55
S'15'
p416
sg56
(ischedule
Group
p417
(dp418
g8
g412
sg61
S'Project Numerical Recipes1'
p419
sbsg57
(iread_data
Room
p420
(dp421
g55
g189
sg61
g190
sbsg63
g191
sg65
g169
sg61
S'Project Numerical Recipes'
p422
sbaa(lp423
(ischedule
Activity
p424
(dp425
g8
(lp426
g319
ag322
ag370
aS'46052388'
p427
aS'50143947'
p428
aS'35330349'
p429
ag104
ag221
ag175
ag219
ag315
ag321
ag86
ag377
ag320
ag327
ag344
aS'29474737'
p430
aS'97135019'
p431
ag14
ag328
aS'48601268'
p432
ag342
ag343
aS'1665980'
p433
ag36
aS'17222374'
p434
aS'53107172'
p435
ag114
ag318
aS'4783858'
p436
ag314
ag143
ag345
ag49
ag324
ag79
aS'86000192'
p437
ag329
ag325
ag358
ag312
ag251
aS'87758823'
p438
ag130
aS'22699561'
p439
aS'13534377'
p440
ag326
ag317
ag313
ag316
ag82
ag323
ag146
aS'9332762'
p441
ag206
aS'34773179'
p442
ag38
ag276
aS'43027916'
p443
ag271
asg55
I1000
sg56
Nsg57
(iread_data
Room
p444
(dp445
g55
g136
sg61
g137
sbsg63
g64
sg65
I0
sg61
g338
sba(ischedule
Activity
p446
(dp447
g8
(lp448
g16
aS'52715680'
p449
ag360
ag46
aS'49922855'
p450
ag10
aS'36785409'
p451
ag51
ag359
ag90
aS'92778619'
p452
aS'60661905'
p453
aS'42406214'
p454
ag122
ag223
aS'99975346'
p455
aS'51415617'
p456
aS'90474003'
p457
ag392
aS'27370083'
p458
ag202
aS'13718298'
p459
aS'37399898'
p460
ag253
aS'38296757'
p461
aS'20095994'
p462
asg55
S'20'
p463
sg56
(ischedule
Group
p464
(dp465
g8
g448
sg61
S'Reflectie op de digitale cultuur3'
p466
sbsg57
(iread_data
Room
p467
(dp468
g55
g336
sg61
g337
sbsg63
g168
sg65
g235
sg61
S'Reflectie op de digitale cultuur'
p469
sba(ischedule
Activity
p470
(dp471
g8
(lp472
S'73302736'
p473
ag153
ag85
ag155
aS'62105897'
p474
aS'45915482'
p475
ag144
aS'65408517'
p476
aS'26260141'
p477
aS'48357272'
p478
aS'1048485'
p479
aS'51593625'
p480
ag254
aS'52311353'
p481
ag255
aS'65318664'
p482
ag288
aS'58074656'
p483
aS'40343779'
p484
ag301
asg55
S'40'
p485
sg56
(ischedule
Group
p486
(dp487
g8
g472
sg61
S'Software engineering1'
p488
sbsg57
(iread_data
Room
p489
(dp490
g55
g60
sg61
g62
sbsg63
g191
sg65
g169
sg61
S'Software engineering'
p491
sba(ischedule
Activity
p492
(dp493
g8
(lp494
S'41644639'
p495
ag43
ag33
ag12
ag225
aS'74361881'
p496
aS'5892092'
p497
aS'535689'
p498
aS'42297781'
p499
aS'25994016'
p500
ag365
ag242
aS'14383795'
p501
aS'53585410'
p502
aS'71839156'
p503
ag105
aS'64418623'
p504
aS'14138904'
p505
aS'88596522'
p506
aS'1695839'
p507
asg55
S'15'
p508
sg56
(ischedule
Group
p509
(dp510
g8
g494
sg61
S'Compilerbouw practicum1'
p511
sbsg57
(iread_data
Room
p512
(dp513
g55
g166
sg61
g167
sbsg63
g191
sg65
g169
sg61
S'Compilerbouw practicum'
p514
sba(ischedule
Activity
p515
(dp516
g8
(lp517
g28
ag50
ag266
ag39
aS'78821918'
p518
aS'58592894'
p519
ag91
ag47
aS'36748818'
p520
aS'70072978'
p521
aS'48198668'
p522
ag119
aS'36527838'
p523
aS'13218321'
p524
aS'84449005'
p525
aS'27916487'
p526
aS'4709948'
p527
aS'83415514'
p528
ag304
asg55
S'20'
p529
sg56
(ischedule
Group
p530
(dp531
g8
g517
sg61
S'Moderne Databases1'
p532
sbsg57
(iread_data
Room
p533
(dp534
g55
g233
sg61
g234
sbsg63
g191
sg65
g169
sg61
S'Moderne Databases'
p535
sba(ischedule
Activity
p536
(dp537
g8
(lp538
S'23983476'
p539
ag356
aS'46701583'
p540
ag89
aS'66433883'
p541
aS'57467488'
p542
aS'64554442'
p543
ag263
aS'5976174'
p544
aS'67817269'
p545
aS'51509565'
p546
asg55
S'25'
p547
sg56
(ischedule
Group
p548
(dp549
g8
g538
sg61
S'Algoritmen en complexiteit2'
p550
sbsg57
(iread_data
Room
p551
(dp552
g55
g189
sg61
g190
sbsg63
g191
sg65
g192
sg61
S'Algoritmen en complexiteit'
p553
sbaa(lp554
(ischedule
Activity
p555
(dp556
g8
(lp557
g518
ag48
ag542
aS'23658570'
p558
ag15
ag145
ag47
ag219
aS'47477884'
p559
aS'670011'
p560
ag37
ag19
aS'4921119'
p561
aS'86180471'
p562
aS'25077484'
p563
ag120
aS'5526560'
p564
ag38
ag18
ag521
aS'62736669'
p565
aS'27123462'
p566
ag266
aS'12091019'
p567
aS'58083680'
p568
ag519
aS'91527663'
p569
aS'56191333'
p570
ag174
aS'23257088'
p571
ag112
ag114
aS'75005528'
p572
aS'4529208'
p573
ag142
aS'56121590'
p574
ag376
aS'94686490'
p575
asg55
S'40'
p576
sg56
(ischedule
Group
p577
(dp578
g8
g557
sg61
S'Databases 21'
p579
sbsg57
(iread_data
Room
p580
(dp581
g55
g213
sg61
g214
sbsg63
g168
sg65
g169
sg61
S'Databases 2'
p582
sba(ischedule
Activity
p583
(dp584
g8
(lp585
g291
ag329
ag247
ag453
ag197
aS'36213792'
p586
ag525
ag285
ag392
ag458
ag46
ag527
ag202
aS'87830198'
p587
aS'32044893'
p588
ag360
ag457
aS'51052738'
p589
ag391
ag452
aS'77960666'
p590
aS'82390428'
p591
ag109
ag459
ag90
ag10
aS'13658563'
p592
ag454
ag270
ag359
ag342
aS'70193386'
p593
ag51
ag122
ag450
aS'33776961'
p594
ag462
ag455
ag16
aS'60352393'
p595
aS'96554914'
p596
ag253
ag159
aS'68286356'
p597
aS'27805666'
p598
ag449
ag223
ag451
ag461
ag456
ag460
asg55
I1000
sg56
Nsg57
(iread_data
Room
p599
(dp600
g55
g60
sg61
g62
sbsg63
g64
sg65
I0
sg61
g469
sba(ischedule
Activity
p601
(dp602
g8
(lp603
g146
aS'75997788'
p604
ag178
ag71
aS'77376714'
p605
aS'63111000'
p606
ag317
ag434
ag369
ag105
aS'27241113'
p607
ag316
aS'59111489'
p608
aS'99283252'
p609
ag73
ag289
ag83
aS'1181560'
p610
ag269
ag206
aS'96082155'
p611
asg55
g529
sg56
(ischedule
Group
p612
(dp613
g8
g603
sg61
S'Moderne Databases3'
p614
sbsg57
(iread_data
Room
p615
(dp616
g55
g166
sg61
g167
sbsg63
g191
sg65
g235
sg61
g535
sba(ischedule
Activity
p617
(dp618
g8
(lp619
g377
ag49
ag36
ag175
ag433
ag429
ag86
ag442
ag438
ag82
ag436
ag428
ag427
ag443
asg55
g346
sg56
(ischedule
Group
p620
(dp621
g8
g619
sg61
S'Collectieve Intelligentie1'
p622
sbsg57
(iread_data
Room
p623
(dp624
g55
g136
sg61
g137
sbsg63
g168
sg65
g169
sg61
g338
sbaa(lp625
(ischedule
Activity
p626
(dp627
g8
(lp628
g287
aS'66570705'
p629
ag314
aS'16011419'
p630
ag152
aS'90743504'
p631
ag503
aS'26172512'
p632
ag254
ag204
ag560
aS'62872965'
p633
ag575
aS'93566383'
p634
ag226
ag206
aS'55412918'
p635
ag357
ag305
aS'56872729'
p636
ag88
aS'61060652'
p637
aS'23565001'
p638
ag356
ag279
aS'79937969'
p639
aS'54074680'
p640
ag159
ag481
aS'83210352'
p641
aS'80998260'
p642
ag35
ag114
ag124
ag523
ag572
ag130
aS'58866007'
p643
aS'21311067'
p644
ag200
ag31
ag438
aS'32595335'
p645
ag260
ag429
ag38
ag78
aS'36508571'
p646
ag249
ag460
aS'96118484'
p647
aS'34588570'
p648
aS'80709893'
p649
ag561
asg55
I1000
sg56
Nsg57
(iread_data
Room
p650
(dp651
g55
g336
sg61
g337
sbsg63
g64
sg65
I0
sg61
S'Lineaire Algebra'
p652
sba(ischedule
Activity
p653
(dp654
g8
(lp655
g544
ag539
aS'3707829'
p656
aS'64947290'
p657
ag26
aS'21095566'
p658
ag284
ag356
aS'19540225'
p659
ag605
ag543
ag312
ag569
ag545
aS'34765676'
p660
ag122
ag324
ag484
ag174
ag124
ag541
ag121
ag506
ag261
ag36
aS'23652927'
p661
ag428
aS'44828429'
p662
ag477
ag263
ag294
ag502
ag89
ag519
ag275
ag546
ag270
ag542
ag540
ag433
ag449
ag198
ag205
asg55
I1000
sg56
Nsg57
(iread_data
Room
p663
(dp664
g55
g136
sg61
g137
sbsg63
g64
sg65
I0
sg61
g553
sba(ischedule
Activity
p665
(dp666
g8
(lp667
S'15249775'
p668
aS'58736785'
p669
aS'82968410'
p670
ag299
aS'85236626'
p671
ag178
ag660
aS'58040377'
p672
ag318
ag45
ag358
ag204
ag544
aS'5739011'
p673
ag20
aS'1886996'
p674
aS'87602030'
p675
aS'31897288'
p676
ag560
aS'81022997'
p677
aS'35315956'
p678
ag90
ag198
aS'83869542'
p679
aS'27925117'
p680
aS'7106649'
p681
ag443
ag455
aS'48678993'
p682
aS'52304977'
p683
ag360
aS'72652638'
p684
asg55
I1000
sg56
Nsg57
(iread_data
Room
p685
(dp686
g55
g233
sg61
g234
sbsg63
g64
sg65
I0
sg61
S'Heuristieken 2'
p687
sba(ischedule
Activity
p688
(dp689
g8
(lp690
g98
ag101
ag21
ag111
ag49
ag76
ag92
ag74
ag73
ag87
ag72
ag110
ag17
ag104
ag86
ag116
ag91
ag128
ag117
ag103
ag115
ag125
ag106
ag119
ag29
ag132
ag120
ag99
ag93
ag129
ag105
ag133
ag107
ag100
ag97
ag77
ag81
asg55
S'40'
p691
sg56
(ischedule
Group
p692
(dp693
g8
g690
sg61
S'Compilerbouw2'
p694
sbsg57
(iread_data
Room
p695
(dp696
g55
g213
sg61
g214
sbsg63
g191
sg65
g192
sg61
g138
sba(ischedule
Activity
p697
(dp698
g8
(lp699
g320
ag32
aS'11459236'
p700
ag158
aS'19958553'
p701
ag592
ag147
ag539
aS'8557857'
p702
aS'32204977'
p703
ag520
ag571
aS'92977271'
p704
aS'29718115'
p705
ag146
aS'17496687'
p706
aS'13116738'
p707
aS'75585647'
p708
ag71
ag266
ag262
asg55
I1000
sg56
Nsg57
(iread_data
Room
p709
(dp710
g55
g166
sg61
g167
sbsg63
g64
sg65
I0
sg61
S'Informatie- en organisatieontwerp'
p711
sba(ischedule
Activity
p712
(dp713
g8
(lp714
g34
ag30
aS'62356458'
p715
aS'88627897'
p716
asg55
g207
sg56
(ischedule
Group
p717
(dp718
g8
g714
sg61
S'Autonomous Agents 23'
p719
sbsg57
(iread_data
Room
p720
(dp721
g55
g60
sg61
g62
sbsg63
g191
sg65
g235
sg61
g215
sba(ischedule
Activity
p722
(dp723
g8
(lp724
g181
ag131
ag317
ag203
aS'76393508'
p725
asg55
S'25'
p726
sg56
(ischedule
Group
p727
(dp728
g8
g724
sg61
S'Heuristieken 12'
p729
sbsg57
(iread_data
Room
p730
(dp731
g55
g189
sg61
g190
sbsg63
g168
sg65
g192
sg61
S'Heuristieken 1'
p732
sbaaa(lp733
(lp734
(ischedule
Activity
p735
(dp736
g8
g355
sg55
S'20'
p737
sg56
g381
sg57
(iread_data
Room
p738
(dp739
g55
g60
sg61
g62
sbsg63
g168
sg65
g169
sg61
g193
sba(ischedule
Activity
p740
(dp741
g8
g699
sg55
I1000
sg56
Nsg57
(iread_data
Room
p742
(dp743
g55
g233
sg61
g234
sbsg63
g64
sg65
I0
sg61
g711
sba(ischedule
Activity
p744
(dp745
g8
(lp746
S'26857113'
p747
ag297
ag101
ag255
ag75
ag39
aS'90067329'
p748
ag606
ag461
aS'33252501'
p749
ag76
ag271
ag295
ag103
ag671
aS'37744525'
p750
ag118
ag253
aS'67625383'
p751
ag544
ag247
ag540
asg55
I1000
sg56
Nsg57
(iread_data
Room
p752
(dp753
g55
g136
sg61
g137
sbsg63
g64
sg65
I0
sg61
S'Machine Learning'
p754
sba(ischedule
Activity
p755
(dp756
g8
(lp757
g324
ag36
ag428
ag312
ag433
ag449
ag270
ag198
ag477
ag122
ag519
ag261
ag294
ag502
ag205
ag275
ag121
ag174
ag659
ag657
ag656
ag26
ag661
ag506
ag124
ag569
ag660
ag484
ag605
ag284
ag658
ag662
asg55
g547
sg56
(ischedule
Group
p758
(dp759
g8
g757
sg61
S'Algoritmen en complexiteit1'
p760
sbsg57
(iread_data
Room
p761
(dp762
g55
g213
sg61
g214
sbsg63
g191
sg65
g169
sg61
g553
sba(ischedule
Activity
p763
(dp764
g8
(lp765
g269
ag175
aS'53139134'
p766
aS'3678531'
p767
ag50
ag48
aS'62363761'
p768
ag272
ag91
ag636
aS'70939718'
p769
aS'75446434'
p770
aS'87900893'
p771
ag273
aS'72526473'
p772
aS'14179347'
p773
ag54
ag152
aS'4546613'
p774
aS'40141996'
p775
ag77
aS'6939933'
p776
ag478
ag29
ag282
ag305
ag635
ag436
ag559
aS'47932106'
p777
ag125
ag558
aS'56544130'
p778
ag112
aS'79888156'
p779
ag476
ag675
aS'61520025'
p780
ag258
ag437
aS'56348773'
p781
ag638
ag35
asg55
S'40'
p782
sg56
(ischedule
Group
p783
(dp784
g8
g765
sg61
S'Calculus 21'
p785
sbsg57
(iread_data
Room
p786
(dp787
g55
g336
sg61
g337
sbsg63
g168
sg65
g169
sg61
S'Calculus 2'
p788
sba(ischedule
Activity
p789
(dp790
g8
(lp791
g329
ag46
aS'78443067'
p792
aS'49219163'
p793
ag224
aS'78544592'
p794
aS'66621166'
p795
aS'51650744'
p796
ag85
ag594
ag145
aS'41489515'
p797
aS'18144425'
p798
aS'58699305'
p799
asg55
S'20'
p800
sg56
(ischedule
Group
p801
(dp802
g8
g791
sg61
S'Moderne Databases2'
p803
sbsg57
(iread_data
Room
p804
(dp805
g55
g166
sg61
g167
sbsg63
g168
sg65
g192
sg61
g535
sba(ischedule
Activity
p806
(dp807
g8
(lp808
g90
ag20
ag560
ag204
ag178
ag674
ag684
ag677
ag299
ag45
ag682
asg55
S'20'
p809
sg56
(ischedule
Group
p810
(dp811
g8
g808
sg61
S'Heuristieken 22'
p812
sbsg57
(iread_data
Room
p813
(dp814
g55
g189
sg61
g190
sbsg63
g168
sg65
g192
sg61
g687
sbaa(lp815
(ischedule
Activity
p816
(dp817
g8
g69
sg55
I1000
sg56
Nsg57
(iread_data
Room
p818
(dp819
g55
g136
sg61
g137
sbsg63
g64
sg65
I0
sg61
g138
sba(ischedule
Activity
p820
(dp821
g8
g628
sg55
I1000
sg56
Nsg57
(iread_data
Room
p822
(dp823
g55
g60
sg61
g62
sbsg63
g64
sg65
I0
sg61
g652
sba(ischedule
Activity
p824
(dp825
g8
(lp826
g147
ag146
ag320
ag592
ag700
ag539
ag704
asg55
S'15'
p827
sg56
(ischedule
Group
p828
(dp829
g8
g826
sg61
S'Informatie- en organisatieontwerp1'
p830
sbsg57
(iread_data
Room
p831
(dp832
g55
g189
sg61
g190
sbsg63
g168
sg65
g169
sg61
g711
sba(ischedule
Activity
p833
(dp834
g8
(lp835
g671
ag544
ag198
ag358
ag672
ag660
ag443
ag676
ag360
ag683
ag318
ag673
ag680
ag681
ag669
ag678
ag675
ag668
ag455
ag679
ag670
asg55
g809
sg56
(ischedule
Group
p836
(dp837
g8
g835
sg61
S'Heuristieken 21'
p838
sbsg57
(iread_data
Room
p839
(dp840
g55
g336
sg61
g337
sbsg63
g168
sg65
g169
sg61
g687
sba(ischedule
Activity
p841
(dp842
g8
(lp843
g20
ag32
ag39
ag27
ag24
ag40
ag51
ag23
ag52
asg55
S'20'
p844
sg56
(ischedule
Group
p845
(dp846
g8
g843
sg61
S'Bioinformatica3'
p847
sbsg57
(iread_data
Room
p848
(dp849
g55
g166
sg61
g167
sbsg63
g191
sg65
g235
sg61
g66
sba(ischedule
Activity
p850
(dp851
g8
g173
sg55
g737
sg56
g184
sg57
(iread_data
Room
p852
(dp853
g55
g233
sg61
g234
sbsg63
g168
sg65
g192
sg61
g193
sba(ischedule
Activity
p854
(dp855
g8
(lp856
g14
aS'28618400'
p857
ag284
aS'123355'
p858
aS'63573738'
p859
aS'5590289'
p860
aS'16912993'
p861
ag769
ag768
aS'25557516'
p862
ag258
ag262
asg55
g227
sg56
(ischedule
Group
p863
(dp864
g8
g856
sg61
S'Netwerken en systeembeveiliging4'
p865
sbsg57
(iread_data
Room
p866
(dp867
g55
g213
sg61
g214
sbsg63
g191
sg65
g352
sg61
g236
sbaa(lp868
(ischedule
Activity
p869
(dp870
g8
(lp871
g360
aS'88737765'
p872
aS'5085194'
p873
ag638
ag78
ag778
aS'83443653'
p874
aS'18477924'
p875
ag126
ag482
aS'72586808'
p876
ag204
ag518
ag274
ag561
ag558
aS'58480929'
p877
ag587
aS'72456780'
p878
ag297
ag459
aS'62613937'
p879
aS'80188025'
p880
ag682
ag478
aS'78822885'
p881
ag254
ag453
ag159
ag197
aS'14637758'
p882
aS'73350019'
p883
ag443
ag28
aS'97838175'
p884
ag593
ag262
ag451
ag53
aS'82854435'
p885
aS'33672995'
p886
ag246
ag604
ag481
aS'34900967'
p887
ag473
ag25
ag249
ag276
asg55
I1000
sg56
Nsg57
(iread_data
Room
p888
(dp889
g55
g336
sg61
g337
sbsg63
g64
sg65
I0
sg61
S'Analysemethoden en -technieken'
p890
sba(ischedule
Activity
p891
(dp892
g8
(lp893
g104
ag454
ag572
ag89
ag278
aS'2550487'
p894
ag45
ag14
aS'14941752'
p895
ag95
aS'63939720'
p896
aS'19662602'
p897
ag776
ag88
ag677
ag17
aS'81116418'
p898
ag342
ag119
ag715
aS'90103047'
p899
ag859
ag86
ag93
aS'37419523'
p900
ag153
aS'21070547'
p901
aS'73823548'
p902
aS'86807027'
p903
ag43
ag247
aS'40911986'
p904
asg55
g416
sg56
(ischedule
Group
p905
(dp906
g8
g893
sg61
S'Project Numerical Recipes3'
p907
sbsg57
(iread_data
Room
p908
(dp909
g55
g136
sg61
g137
sbsg63
g191
sg65
g235
sg61
g422
sba(ischedule
Activity
p910
(dp911
g8
g757
sg55
S'25'
p912
sg56
g758
sg57
(iread_data
Room
p913
(dp914
g55
g60
sg61
g62
sbsg63
g168
sg65
g169
sg61
g553
sba(ischedule
Activity
p915
(dp916
g8
(lp917
S'34691309'
p918
ag588
ag857
ag305
ag130
ag112
aS'19214659'
p919
asg55
g416
sg56
(ischedule
Group
p920
(dp921
g8
g917
sg61
S'Project Numerical Recipes2'
p922
sbsg57
(iread_data
Room
p923
(dp924
g55
g233
sg61
g234
sbsg63
g191
sg65
g192
sg61
g422
sba(ischedule
Activity
p925
(dp926
g8
g791
sg55
g529
sg56
g801
sg57
(iread_data
Room
p927
(dp928
g55
g189
sg61
g190
sbsg63
g191
sg65
g192
sg61
g535
sba(ischedule
Activity
p929
(dp930
g8
(lp931
g71
aS'33946407'
p932
ag322
ag716
aS'24167153'
p933
aS'82233873'
p934
ag96
ag592
ag431
ag475
ag29
ag438
aS'13210212'
p935
asg55
S'15'
p936
sg56
(ischedule
Group
p937
(dp938
g8
g931
sg61
S'Zoeken sturen en bewegen3'
p939
sbsg57
(iread_data
Room
p940
(dp941
g55
g166
sg61
g167
sbsg63
g191
sg65
g235
sg61
S'Zoeken sturen en bewegen'
p942
sbaa(lp943
(ischedule
Activity
p944
(dp945
g8
(lp946
g32
ag707
ag71
ag701
ag158
ag571
ag520
ag705
ag262
ag266
ag703
ag702
ag708
ag706
asg55
g827
sg56
(ischedule
Group
p947
(dp948
g8
g946
sg61
S'Informatie- en organisatieontwerp2'
p949
sbsg57
(iread_data
Room
p950
(dp951
g55
g189
sg61
g190
sbsg63
g168
sg65
g192
sg61
g711
sba(ischedule
Activity
p952
(dp953
g8
g746
sg55
I1000
sg56
Nsg57
(iread_data
Room
p954
(dp955
g55
g233
sg61
g234
sbsg63
g64
sg65
I0
sg61
g754
sba(ischedule
Activity
p956
(dp957
g8
g341
sg55
g330
sg56
g347
sg57
(iread_data
Room
p958
(dp959
g55
g166
sg61
g167
sbsg63
g191
sg65
g352
sg61
g338
sba(ischedule
Activity
p960
(dp961
g8
(lp962
g180
ag178
ag366
ag373
ag181
ag370
ag378
ag177
ag375
ag154
ag371
ag379
ag358
ag21
ag364
ag372
ag359
ag376
ag362
ag175
ag89
ag174
ag356
ag363
ag182
ag179
ag368
ag369
ag176
ag360
ag142
ag380
ag367
ag377
ag52
ag374
ag357
ag361
ag365
asg55
I1000
sg56
Nsg57
(iread_data
Room
p963
(dp964
g55
g213
sg61
g214
sbsg63
g64
sg65
I0
sg61
g193
sba(ischedule
Activity
p965
(dp966
g8
g311
sg55
g346
sg56
g331
sg57
(iread_data
Room
p967
(dp968
g55
g336
sg61
g337
sbsg63
g168
sg65
g192
sg61
g338
sba(ischedule
Activity
p969
(dp970
g8
(lp971
g201
ag205
ag199
ag202
ag203
ag34
ag115
ag715
aS'61611295'
p972
ag30
ag204
ag197
ag147
ag646
aS'70113753'
p973
ag206
ag633
ag716
ag200
ag198
ag76
ag92
asg55
I1000
sg56
Nsg57
(iread_data
Room
p974
(dp975
g55
g136
sg61
g137
sbsg63
g64
sg65
I0
sg61
g215
sba(ischedule
Activity
p976
(dp977
g8
(lp978
g15
ag48
ag36
ag19
ag29
ag31
ag16
ag33
ag45
ag17
ag46
ag22
ag49
ag14
ag26
ag11
ag35
ag12
ag37
ag54
ag43
ag42
ag53
ag10
ag13
asg55
g844
sg56
(ischedule
Group
p979
(dp980
g8
g978
sg61
S'Bioinformatica1'
p981
sbsg57
(iread_data
Room
p982
(dp983
g55
g60
sg61
g62
sbsg63
g191
sg65
g169
sg61
g66
sbaa(lp984
(ischedule
Activity
p985
(dp986
g8
g426
sg55
I1000
sg56
Nsg57
(iread_data
Room
p987
(dp988
g55
g136
sg61
g137
sbsg63
g64
sg65
I0
sg61
g338
sba(ischedule
Activity
p989
(dp990
g8
g472
sg55
S'40'
p991
sg56
g486
sg57
(iread_data
Room
p992
(dp993
g55
g189
sg61
g190
sbsg63
g168
sg65
g169
sg61
g491
sba(ischedule
Activity
p994
(dp995
g8
g9
sg55
I1000
sg56
Nsg57
(iread_data
Room
p996
(dp997
g55
g213
sg61
g214
sbsg63
g64
sg65
I0
sg61
g66
sba(ischedule
Activity
p998
(dp999
g8
(lp1000
g303
ag152
ag705
aS'72683344'
p1001
ag369
ag505
ag75
ag377
ag120
ag297
ag182
ag142
ag324
aS'59289233'
p1002
ag680
aS'13798030'
p1003
ag857
ag313
ag91
aS'70015932'
p1004
ag643
asg55
I1000
sg56
Nsg57
(iread_data
Room
p1005
(dp1006
g55
g60
sg61
g62
sbsg63
g64
sg65
I0
sg61
S'Architectuur en computerorganisatie'
p1007
sba(ischedule
Activity
p1008
(dp1009
g8
(lp1010
S'64768422'
p1011
ag894
aS'81155296'
p1012
ag124
ag106
ag20
ag662
ag919
aS'37701751'
p1013
aS'69634191'
p1014
ag322
ag460
ag660
ag634
aS'28055464'
p1015
aS'20374340'
p1016
ag220
ag111
ag656
ag180
aS'38179241'
p1017
aS'65675896'
p1018
ag372
ag281
ag774
asg55
I1000
sg56
Nsg57
(iread_data
Room
p1019
(dp1020
g55
g233
sg61
g234
sbsg63
g64
sg65
I0
sg61
S'Interactie-ontwerp'
p1021
sba(ischedule
Activity
p1022
(dp1023
g8
g196
sg55
S'10'
p1024
sg56
g208
sg57
(iread_data
Room
p1025
(dp1026
g55
g166
sg61
g167
sbsg63
g168
sg65
g169
sg61
g215
sba(ischedule
Activity
p1027
(dp1028
g8
(lp1029
g119
ag145
ag527
ag794
ag610
ag607
ag146
ag105
ag525
ag434
ag609
ag524
ag47
ag519
ag523
ag793
ag526
ag798
ag795
ag206
ag85
ag606
ag521
ag608
ag796
ag792
ag611
ag520
ag317
ag266
ag594
ag799
ag73
ag91
ag329
ag178
ag224
ag289
ag605
ag518
ag369
ag797
ag304
ag522
ag71
ag83
ag316
ag528
ag28
ag269
ag604
ag39
ag50
ag46
asg55
I1000
sg56
Nsg57
(iread_data
Room
p1030
(dp1031
g55
g336
sg61
g337
sbsg63
g64
sg65
I0
sg61
g535
sbaaa(lp1032
(lp1033
(ischedule
Activity
p1034
(dp1035
g8
(lp1036
g178
ag94
ag473
ag544
aS'44671041'
p1037
ag109
ag459
ag1004
aS'14072826'
p1038
ag197
ag715
ag294
aS'9287708'
p1039
ag222
ag104
ag369
ag254
ag52
ag609
aS'27582862'
p1040
ag153
ag750
ag481
ag255
ag436
ag301
ag774
ag278
ag482
ag27
ag428
aS'3727435'
p1041
ag41
ag315
ag480
ag42
ag326
ag477
ag85
ag478
ag155
ag479
ag72
ag484
ag17
ag343
ag288
ag43
ag474
ag483
ag605
ag200
aS'37830626'
p1042
ag641
ag219
ag287
ag649
ag476
ag475
ag144
ag449
ag33
ag792
aS'31103066'
p1043
ag199
ag637
ag658
ag34
ag261
ag115
ag182
ag12
ag596
ag432
aS'41153310'
p1044
asg55
I1000
sg56
Nsg57
(iread_data
Room
p1045
(dp1046
g55
g136
sg61
g137
sbsg63
g64
sg65
I0
sg61
g491
sba(ischedule
Activity
p1047
(dp1048
g8
g426
sg55
I1000
sg56
Nsg57
(iread_data
Room
p1049
(dp1050
g55
g336
sg61
g337
sbsg63
g64
sg65
I0
sg61
g338
sba(ischedule
Activity
p1051
(dp1052
g8
g517
sg55
g800
sg56
g530
sg57
(iread_data
Room
p1053
(dp1054
g55
g213
sg61
g214
sbsg63
g168
sg65
g169
sg61
g535
sba(ischedule
Activity
p1055
(dp1056
g8
(lp1057
g595
ag674
ag604
aS'40633534'
p1058
ag903
ag879
aS'39429093'
p1059
ag377
ag270
ag322
ag74
ag44
ag559
ag223
ag180
ag18
ag225
ag1001
ag362
ag857
asg55
I1000
sg56
Nsg57
(iread_data
Room
p1060
(dp1061
g55
g60
sg61
g62
sbsg63
g64
sg65
I0
sg61
S'Advanced Heuristics'
p1062
sba(ischedule
Activity
p1063
(dp1064
g8
(lp1065
g147
ag76
ag92
ag633
ag972
ag646
ag973
asg55
g207
sg56
(ischedule
Group
p1066
(dp1067
g8
g1065
sg61
S'Autonomous Agents 22'
p1068
sbsg57
(iread_data
Room
p1069
(dp1070
g55
g189
sg61
g190
sbsg63
g191
sg65
g192
sg61
g215
sba(ischedule
Activity
p1071
(dp1072
g8
g388
sg55
g404
sg56
g395
sg57
(iread_data
Room
p1073
(dp1074
g55
g233
sg61
g234
sbsg63
g168
sg65
g192
sg61
g400
sba(ischedule
Activity
p1075
(dp1076
g8
g538
sg55
g912
sg56
g548
sg57
(iread_data
Room
p1077
(dp1078
g55
g166
sg61
g167
sbsg63
g168
sg65
g192
sg61
g553
sbaa(lp1079
(ischedule
Activity
p1080
(dp1081
g8
(lp1082
g477
ag502
ag312
ag31
ag205
ag461
ag98
aS'58253841'
p1083
ag362
aS'55530367'
p1084
ag318
ag540
aS'34173695'
p1085
ag16
ag365
ag575
aS'82412626'
p1086
ag474
ag473
ag880
ag567
aS'22168693'
p1087
ag42
aS'93361408'
p1088
ag886
aS'19717077'
p1089
ag528
ag680
ag794
ag19
aS'10609762'
p1090
aS'6709529'
p1091
ag562
ag799
aS'23628642'
p1092
ag204
ag792
ag176
ag604
ag1017
aS'31306819'
p1093
ag903
ag1012
ag672
ag475
ag221
ag106
aS'37279234'
p1094
asg55
g782
sg56
(ischedule
Group
p1095
(dp1096
g8
g1082
sg61
S'Calculus 22'
p1097
sbsg57
(iread_data
Room
p1098
(dp1099
g55
g213
sg61
g214
sbsg63
g168
sg65
g192
sg61
g788
sba(ischedule
Activity
p1100
(dp1101
g8
(lp1102
g358
ag14
ag439
ag271
ag251
ag430
ag370
ag441
ag437
ag276
ag206
ag432
ag440
ag434
ag431
ag435
asg55
g346
sg56
(ischedule
Group
p1103
(dp1104
g8
g1102
sg61
S'Collectieve Intelligentie3'
p1105
sbsg57
(iread_data
Room
p1106
(dp1107
g55
g233
sg61
g234
sbsg63
g168
sg65
g235
sg61
g338
sba(ischedule
Activity
p1108
(dp1109
g8
g585
sg55
I1000
sg56
Nsg57
(iread_data
Room
p1110
(dp1111
g55
g336
sg61
g337
sbsg63
g64
sg65
I0
sg61
g469
sba(ischedule
Activity
p1112
(dp1113
g8
g619
sg55
g330
sg56
g620
sg57
(iread_data
Room
p1114
(dp1115
g55
g60
sg61
g62
sbsg63
g191
sg65
g169
sg61
g338
sba(ischedule
Activity
p1116
(dp1117
g8
g946
sg55
S'15'
p1118
sg56
g947
sg57
(iread_data
Room
p1119
(dp1120
g55
g189
sg61
g190
sbsg63
g191
sg65
g192
sg61
g711
sba(ischedule
Activity
p1121
(dp1122
g8
(lp1123
g21
ag38
ag30
ag47
ag25
ag34
ag50
ag28
ag41
ag18
ag44
asg55
S'20'
p1124
sg56
(ischedule
Group
p1125
(dp1126
g8
g1123
sg61
S'Bioinformatica2'
p1127
sbsg57
(iread_data
Room
p1128
(dp1129
g55
g136
sg61
g137
sbsg63
g168
sg65
g192
sg61
g66
sba(ischedule
Activity
p1130
(dp1131
g8
(lp1132
S'10702778'
p1133
ag1037
ag634
asg55
S'20'
p1134
sg56
(ischedule
Group
p1135
(dp1136
g8
g1132
sg61
S'Programmeren in Java 25'
p1137
sbsg57
(iread_data
Room
p1138
(dp1139
g55
g166
sg61
g167
sbsg63
g191
sg65
S'5'
p1140
sg61
S'Programmeren in Java 2'
p1141
sbaa(lp1142
(ischedule
Activity
p1143
(dp1144
g8
(lp1145
g484
ag750
ag359
aS'53267490'
p1146
ag84
ag78
ag147
ag565
ag431
aS'97136582'
p1147
aS'59887191'
p1148
ag574
ag498
ag677
aS'4353500'
p1149
aS'26207525'
p1150
aS'64246605'
p1151
ag323
ag95
aS'25330192'
p1152
ag479
ag302
ag263
ag878
ag682
asg55
g227
sg56
(ischedule
Group
p1153
(dp1154
g8
g1145
sg61
S'Netwerken en systeembeveiliging1'
p1155
sbsg57
(iread_data
Room
p1156
(dp1157
g55
g233
sg61
g234
sbsg63
g191
sg65
g169
sg61
g236
sba(ischedule
Activity
p1158
(dp1159
g8
g9
sg55
I1000
sg56
Nsg57
(iread_data
Room
p1160
(dp1161
g55
g60
sg61
g62
sbsg63
g64
sg65
I0
sg61
g66
sba(ischedule
Activity
p1162
(dp1163
g8
(lp1164
g704
ag275
ag668
ag453
ag903
ag296
ag299
ag671
aS'79879876'
p1165
aS'64053722'
p1166
ag76
ag560
ag1044
ag284
ag219
aS'28943658'
p1167
ag129
ag441
ag265
ag541
ag157
ag887
ag96
ag99
ag452
ag437
ag474
aS'90296821'
p1168
ag319
ag363
aS'45414528'
p1169
aS'85284256'
p1170
asg55
g1134
sg56
(ischedule
Group
p1171
(dp1172
g8
g1164
sg61
S'Programmeren in Java 21'
p1173
sbsg57
(iread_data
Room
p1174
(dp1175
g55
g213
sg61
g214
sbsg63
g191
sg65
g169
sg61
g1141
sba(ischedule
Activity
p1176
(dp1177
g8
(lp1178
g197
ag597
ag527
ag270
ag589
ag285
ag159
ag247
ag594
ag391
ag596
ag109
ag598
ag586
ag291
ag525
ag595
ag588
ag593
ag329
ag587
ag592
ag591
ag590
asg55
g463
sg56
(ischedule
Group
p1179
(dp1180
g8
g1178
sg61
S'Reflectie op de digitale cultuur1'
p1181
sbsg57
(iread_data
Room
p1182
(dp1183
g55
g136
sg61
g137
sbsg63
g168
sg65
g169
sg61
g469
sba(ischedule
Activity
p1184
(dp1185
g8
(lp1186
g143
ag344
aS'47260040'
p1187
ag428
aS'91250534'
p1188
aS'82066165'
p1189
ag449
aS'23215240'
p1190
aS'51472074'
p1191
ag226
ag700
aS'51673172'
p1192
aS'44151631'
p1193
ag703
ag873
ag70
ag1018
asg55
g508
sg56
(ischedule
Group
p1194
(dp1195
g8
g1186
sg61
S'Compilerbouw practicum2'
p1196
sbsg57
(iread_data
Room
p1197
(dp1198
g55
g166
sg61
g167
sbsg63
g191
sg65
g192
sg61
g514
sba(ischedule
Activity
p1199
(dp1200
g8
g603
sg55
g800
sg56
g612
sg57
(iread_data
Room
p1201
(dp1202
g55
g336
sg61
g337
sbsg63
g168
sg65
g235
sg61
g535
sba(ischedule
Activity
p1203
(dp1204
g8
(lp1205
g342
asg55
g463
sg56
(ischedule
Group
p1206
(dp1207
g8
g1205
sg61
S'Reflectie op de digitale cultuur2'
p1208
sbsg57
(iread_data
Room
p1209
(dp1210
g55
g189
sg61
g190
sbsg63
g168
sg65
g192
sg61
g469
sbaa(lp1211
(ischedule
Activity
p1212
(dp1213
g8
(lp1214
g457
ag329
ag122
ag595
ag342
ag590
ag434
ag206
ag276
ag133
ag636
ag370
ag1150
ag443
ag199
ag289
ag1013
ag902
ag274
ag878
aS'54540997'
p1215
aS'15187217'
p1216
ag679
ag657
ag198
ag92
ag777
ag873
aS'13132925'
p1217
ag143
ag76
aS'59397895'
p1218
ag775
ag324
asg55
g576
sg56
(ischedule
Group
p1219
(dp1220
g8
g1214
sg61
S'Databases 22'
p1221
sbsg57
(iread_data
Room
p1222
(dp1223
g55
g233
sg61
g234
sbsg63
g168
sg65
g192
sg61
g582
sba(ischedule
Activity
p1224
(dp1225
g8
g1123
sg55
g844
sg56
g1125
sg57
(iread_data
Room
p1226
(dp1227
g55
g136
sg61
g137
sbsg63
g191
sg65
g192
sg61
g66
sba(ischedule
Activity
p1228
(dp1229
g8
(lp1230
g48
ag145
ag592
ag542
ag146
ag604
ag284
ag676
ag31
ag389
ag1165
ag279
ag147
aS'97417002'
p1231
aS'20830477'
p1232
ag435
ag303
ag246
ag436
ag895
ag669
ag1149
ag478
ag144
ag637
ag503
ag704
aS'87210640'
p1233
ag874
ag903
ag15
ag197
ag323
ag202
ag33
aS'53775014'
p1234
ag302
ag505
aS'45660925'
p1235
asg55
g726
sg56
(ischedule
Group
p1236
(dp1237
g8
g1230
sg61
S'Heuristieken 11'
p1238
sbsg57
(iread_data
Room
p1239
(dp1240
g55
g60
sg61
g62
sbsg63
g168
sg65
g169
sg61
g732
sba(ischedule
Activity
p1241
(dp1242
g8
(lp1243
g255
ag750
ag36
aS'39905995'
p1244
ag672
ag558
ag559
ag527
aS'73196865'
p1245
ag100
ag561
ag19
ag101
ag260
ag93
ag973
ag1040
ag77
ag29
ag249
aS'88263855'
p1246
ag226
ag86
aS'51791169'
p1247
ag123
ag521
ag258
ag767
aS'7386961'
p1248
ag894
asg55
g1134
sg56
(ischedule
Group
p1249
(dp1250
g8
g1243
sg61
S'Programmeren in Java 24'
p1251
sbsg57
(iread_data
Room
p1252
(dp1253
g55
g213
sg61
g214
sbsg63
g191
sg65
g352
sg61
g1141
sba(ischedule
Activity
p1254
(dp1255
g8
g843
sg55
g1124
sg56
g845
sg57
(iread_data
Room
p1256
(dp1257
g55
g189
sg61
g190
sbsg63
g168
sg65
g235
sg61
g66
sba(ischedule
Activity
p1258
(dp1259
g8
(lp1260
g106
ag1083
ag1189
ag563
ag518
ag326
ag500
ag609
ag562
ag496
ag564
ag675
ag179
ag540
ag281
ag263
ag159
ag109
ag200
asg55
S'15'
p1261
sg56
(ischedule
Group
p1262
(dp1263
g8
g1260
sg61
S'Project Genetic Algorithms1'
p1264
sbsg57
(iread_data
Room
p1265
(dp1266
g55
g166
sg61
g167
sbsg63
g191
sg65
g169
sg61
S'Project Genetic Algorithms'
p1267
sbaa(lp1268
(ischedule
Activity
p1269
(dp1270
g8
g240
sg55
I1000
sg56
Nsg57
(iread_data
Room
p1271
(dp1272
g55
g136
sg61
g137
sbsg63
g64
sg65
I0
sg61
g308
sba(ischedule
Activity
p1273
(dp1274
g8
(lp1275
g36
aS'87314964'
p1276
ag481
ag771
ag391
ag428
ag392
ag144
ag393
ag265
ag32
aS'19337738'
p1277
ag260
ag707
ag389
ag1147
ag202
ag1169
aS'93023961'
p1278
ag750
ag198
ag390
ag1152
ag30
ag414
ag677
ag20
asg55
I1000
sg56
Nsg57
(iread_data
Room
p1279
(dp1280
g55
g233
sg61
g234
sbsg63
g64
sg65
I0
sg61
g400
sba(ischedule
Activity
p1281
(dp1282
g8
(lp1283
g130
ag88
ag124
ag122
ag71
ag121
ag114
ag123
ag109
ag127
ag83
ag82
ag118
ag102
ag84
ag78
ag70
ag131
ag11
ag89
ag113
ag108
ag85
ag95
ag94
ag79
ag75
ag96
ag126
ag80
ag90
ag112
asg55
g691
sg56
(ischedule
Group
p1284
(dp1285
g8
g1283
sg61
S'Compilerbouw1'
p1286
sbsg57
(iread_data
Room
p1287
(dp1288
g55
g336
sg61
g337
sbsg63
g191
sg65
g169
sg61
g138
sba(ischedule
Activity
p1289
(dp1290
g8
g962
sg55
I1000
sg56
Nsg57
(iread_data
Room
p1291
(dp1292
g55
g60
sg61
g62
sbsg63
g64
sg65
I0
sg61
g193
sba(ischedule
Activity
p1293
(dp1294
g8
(lp1295
g884
aS'88597745'
p1296
ag595
ag460
ag452
ag523
aS'57419039'
p1297
asg55
g936
sg56
(ischedule
Group
p1298
(dp1299
g8
g1295
sg61
S'Zoeken sturen en bewegen1'
p1300
sbsg57
(iread_data
Room
p1301
(dp1302
g55
g166
sg61
g167
sbsg63
g191
sg65
g169
sg61
g942
sba(ischedule
Activity
p1303
(dp1304
g8
g1065
sg55
g1024
sg56
g1066
sg57
(iread_data
Room
p1305
(dp1306
g55
g213
sg61
g214
sbsg63
g168
sg65
g192
sg61
g215
sbaaa(lp1307
(lp1308
(ischedule
Activity
p1309
(dp1310
g8
(lp1311
g595
ag568
ag542
ag289
ag562
ag571
ag590
ag122
ag518
ag266
ag198
ag775
ag145
ag563
ag1216
ag1217
ag1150
ag76
ag1013
ag329
ag174
ag573
ag114
ag92
ag370
ag575
ag558
ag48
ag206
ag636
ag324
ag199
ag574
ag521
ag565
ag120
ag878
ag519
ag561
ag342
ag112
ag902
ag219
ag572
ag38
ag569
ag777
ag873
ag376
ag567
ag47
ag276
ag37
ag274
ag19
ag1215
ag570
ag443
ag657
ag18
ag133
ag457
ag679
ag143
ag142
ag434
ag564
ag560
ag566
ag15
ag1218
ag559
asg55
I1000
sg56
Nsg57
(iread_data
Room
p1312
(dp1313
g55
g136
sg61
g137
sbsg63
g64
sg65
I0
sg61
g582
sba(ischedule
Activity
p1314
(dp1315
g8
(lp1316
g15
ag1235
ag302
ag1232
ag31
ag1234
ag436
ag202
ag478
ag1149
ag303
ag146
ag1231
ag604
ag676
ag895
ag284
ag147
ag874
ag389
ag48
ag503
ag669
ag903
ag145
ag725
ag505
ag279
ag435
ag637
ag1233
ag181
ag131
ag33
ag704
ag203
ag592
ag323
ag1165
ag144
ag197
ag317
ag246
ag542
asg55
I1000
sg56
Nsg57
(iread_data
Room
p1317
(dp1318
g55
g336
sg61
g337
sbsg63
g64
sg65
I0
sg61
g732
sba(ischedule
Activity
p1319
(dp1320
g8
g403
sg55
g394
sg56
g405
sg57
(iread_data
Room
p1321
(dp1322
g55
g166
sg61
g167
sbsg63
g191
sg65
g235
sg61
g400
sba(ischedule
Activity
p1323
(dp1324
g8
(lp1325
g28
ag46
ag121
ag107
ag84
ag88
ag85
ag71
ag322
aS'76487754'
p1326
ag298
ag441
ag415
ag703
aS'21192048'
p1327
ag501
ag202
ag451
aS'70336464'
p1328
ag681
asg55
g160
sg56
(ischedule
Group
p1329
(dp1330
g8
g1325
sg61
S'Technology for games2'
p1331
sbsg57
(iread_data
Room
p1332
(dp1333
g55
g213
sg61
g214
sbsg63
g168
sg65
g192
sg61
g170
sba(ischedule
Activity
p1334
(dp1335
g8
g714
sg55
g1024
sg56
g717
sg57
(iread_data
Room
p1336
(dp1337
g55
g60
sg61
g62
sbsg63
g168
sg65
g235
sg61
g215
sba(ischedule
Activity
p1338
(dp1339
g8
(lp1340
g428
ag260
ag750
ag265
ag32
ag771
ag1169
ag1277
ag414
ag1276
ag1152
ag1278
ag481
ag677
ag707
ag1147
asg55
g394
sg56
(ischedule
Group
p1341
(dp1342
g8
g1340
sg61
S'Data Mining1'
p1343
sbsg57
(iread_data
Room
p1344
(dp1345
g55
g233
sg61
g234
sbsg63
g191
sg65
g169
sg61
g400
sba(ischedule
Activity
p1346
(dp1347
g8
(lp1348
g525
ag11
ag682
ag255
ag872
ag773
ag1058
ag286
ag110
ag82
ag442
ag587
ag680
aS'55480737'
p1349
ag495
asg55
g1261
sg56
(ischedule
Group
p1350
(dp1351
g8
g1348
sg61
S'Project Genetic Algorithms2'
p1352
sbsg57
(iread_data
Room
p1353
(dp1354
g55
g189
sg61
g190
sbsg63
g191
sg65
g192
sg61
g1267
sbaa(lp1355
(ischedule
Activity
p1356
(dp1357
g8
g971
sg55
I1000
sg56
Nsg57
(iread_data
Room
p1358
(dp1359
g55
g136
sg61
g137
sbsg63
g64
sg65
I0
sg61
g215
sba(ischedule
Activity
p1360
(dp1361
g8
g1000
sg55
I1000
sg56
Nsg57
(iread_data
Room
p1362
(dp1363
g55
g60
sg61
g62
sbsg63
g64
sg65
I0
sg61
g1007
sba(ischedule
Activity
p1364
(dp1365
g8
g1010
sg55
I1000
sg56
Nsg57
(iread_data
Room
p1366
(dp1367
g55
g233
sg61
g234
sbsg63
g64
sg65
I0
sg61
g1021
sba(ischedule
Activity
p1368
(dp1369
g8
g978
sg55
g1124
sg56
g979
sg57
(iread_data
Room
p1370
(dp1371
g55
g213
sg61
g214
sbsg63
g168
sg65
g169
sg61
g66
sba(ischedule
Activity
p1372
(dp1373
g8
g1340
sg55
g404
sg56
g1341
sg57
(iread_data
Room
p1374
(dp1375
g55
g336
sg61
g337
sbsg63
g168
sg65
g169
sg61
g400
sba(ischedule
Activity
p1376
(dp1377
g8
(lp1378
g28
ag708
ag101
ag256
aS'77306636'
p1379
aS'11593163'
p1380
aS'75623387'
p1381
aS'65978354'
p1382
ag431
ag225
ag299
ag902
ag257
aS'59220392'
p1383
ag519
asg55
g782
sg56
(ischedule
Group
p1384
(dp1385
g8
g1378
sg61
S'Calculus 23'
p1386
sbsg57
(iread_data
Room
p1387
(dp1388
g55
g189
sg61
g190
sbsg63
g168
sg65
g235
sg61
g788
sba(ischedule
Activity
p1389
(dp1390
g8
(lp1391
g122
ag312
ag539
aS'88519892'
p1392
ag480
ag243
ag590
ag571
ag657
ag594
ag266
ag314
ag345
ag287
aS'54395877'
p1393
asg55
g1134
sg56
(ischedule
Group
p1394
(dp1395
g8
g1391
sg61
S'Programmeren in Java 23'
p1396
sbsg57
(iread_data
Room
p1397
(dp1398
g55
g166
sg61
g167
sbsg63
g191
sg65
g235
sg61
g1141
sbaa(lp1399
(ischedule
Activity
p1400
(dp1401
g8
(lp1402
g1004
ag197
ag369
ag52
ag27
ag315
ag343
ag43
ag33
ag34
ag12
ag432
ag219
ag182
ag17
ag104
ag326
ag41
ag428
ag449
ag436
ag199
ag200
ag715
ag1041
ag459
ag609
ag109
ag294
ag544
ag649
ag178
ag605
ag94
ag72
ag792
ag641
ag1042
ag42
ag1044
ag1043
ag637
ag222
ag261
ag115
ag1038
ag750
ag1037
ag1040
ag774
ag278
ag658
ag1039
ag596
ag287
asg55
g991
sg56
(ischedule
Group
p1403
(dp1404
g8
g1402
sg61
S'Software engineering2'
p1405
sbsg57
(iread_data
Room
p1406
(dp1407
g55
g336
sg61
g337
sbsg63
g168
sg65
g192
sg61
g491
sba(ischedule
Activity
p1408
(dp1409
g8
(lp1410
g26
ag87
ag39
ag391
ag656
ag1383
ag1083
ag53
ag267
ag21
ag257
ag205
ag495
ag573
ag13
ag317
ag707
aS'37804282'
p1411
aS'57701414'
p1412
ag1148
ag370
ag457
asg55
g936
sg56
(ischedule
Group
p1413
(dp1414
g8
g1410
sg61
S'Zoeken sturen en bewegen2'
p1415
sbsg57
(iread_data
Room
p1416
(dp1417
g55
g213
sg61
g214
sbsg63
g191
sg65
g192
sg61
g942
sba(ischedule
Activity
p1418
(dp1419
g8
(lp1420
g142
ag159
ag121
ag88
ag155
ag202
ag85
ag71
ag46
ag441
ag154
ag681
ag152
ag298
ag149
ag156
ag158
ag147
ag322
ag146
ag1326
ag84
ag143
ag157
ag703
ag153
ag144
ag1327
ag451
ag151
ag107
ag150
ag145
ag28
ag415
ag148
ag501
ag1328
asg55
I1000
sg56
Nsg57
(iread_data
Room
p1421
(dp1422
g55
g233
sg61
g234
sbsg63
g64
sg65
I0
sg61
g170
sba(ischedule
Activity
p1423
(dp1424
g8
(lp1425
g246
ag479
ag264
ag15
ag540
ag272
ag50
ag460
ag747
ag114
ag414
ag502
ag242
ag1296
ag1094
asg55
g1134
sg56
(ischedule
Group
p1426
(dp1427
g8
g1425
sg61
S'Programmeren in Java 26'
p1428
sbsg57
(iread_data
Room
p1429
(dp1430
g55
g166
sg61
g167
sbsg63
g191
sg65
S'6'
p1431
sg61
g1141
sba(ischedule
Activity
p1432
(dp1433
g8
(lp1434
g527
ag23
ag124
ag324
ag86
ag587
ag20
ag22
ag542
ag40
aS'19058315'
p1435
aS'12170832'
p1436
ag286
ag129
ag595
ag876
ag288
ag1170
ag570
asg55
g227
sg56
(ischedule
Group
p1437
(dp1438
g8
g1434
sg61
S'Netwerken en systeembeveiliging2'
p1439
sbsg57
(iread_data
Room
p1440
(dp1441
g55
g189
sg61
g190
sbsg63
g191
sg65
g192
sg61
g236
sba(ischedule
Activity
p1442
(dp1443
g8
(lp1444
g299
aS'55103073'
p1445
ag433
asg55
g508
sg56
(ischedule
Group
p1446
(dp1447
g8
g1444
sg61
S'Compilerbouw practicum3'
p1448
sbsg57
(iread_data
Room
p1449
(dp1450
g55
g136
sg61
g137
sbsg63
g191
sg65
g235
sg61
g514
sba(ischedule
Activity
p1451
(dp1452
g8
(lp1453
g606
ag10
ag375
ag1232
ag16
ag1190
ag528
aS'73893840'
p1454
ag379
ag102
aS'12782624'
p1455
ag358
ag380
aS'63096281'
p1456
ag320
asg55
g1134
sg56
(ischedule
Group
p1457
(dp1458
g8
g1453
sg61
S'Programmeren in Java 22'
p1459
sbsg57
(iread_data
Room
p1460
(dp1461
g55
g60
sg61
g62
sbsg63
g191
sg65
g192
sg61
g1141
sbaa(lp1462
(ischedule
Activity
p1463
(dp1464
g8
g1283
sg55
S'40'
p1465
sg56
g1284
sg57
(iread_data
Room
p1466
(dp1467
g55
g233
sg61
g234
sbsg63
g168
sg65
g169
sg61
g138
sba(ischedule
Activity
p1468
(dp1469
g8
g826
sg55
g1118
sg56
g828
sg57
(iread_data
Room
p1470
(dp1471
g55
g60
sg61
g62
sbsg63
g191
sg65
g169
sg61
g711
sba(ischedule
Activity
p1472
(dp1473
g8
g690
sg55
g1465
sg56
g692
sg57
(iread_data
Room
p1474
(dp1475
g55
g213
sg61
g214
sbsg63
g168
sg65
g192
sg61
g138
sba(ischedule
Activity
p1476
(dp1477
g8
g1275
sg55
I1000
sg56
Nsg57
(iread_data
Room
p1478
(dp1479
g55
g336
sg61
g337
sbsg63
g64
sg65
I0
sg61
g400
sba(ischedule
Activity
p1480
(dp1481
g8
g1102
sg55
g330
sg56
g1103
sg57
(iread_data
Room
p1482
(dp1483
g55
g136
sg61
g137
sbsg63
g191
sg65
g235
sg61
g338
sba(ischedule
Activity
p1484
(dp1485
g8
(lp1486
g362
ag180
ag270
ag44
ag377
ag595
ag857
ag559
ag1059
ag225
ag1058
ag18
ag604
ag223
ag903
ag1001
ag674
ag322
asg55
S'10'
p1487
sg56
(ischedule
Group
p1488
(dp1489
g8
g1486
sg61
S'Advanced Heuristics1'
p1490
sbsg57
(iread_data
Room
p1491
(dp1492
g55
g166
sg61
g167
sbsg63
g191
sg65
g169
sg61
g1062
sbaa(lp1493
(ischedule
Activity
p1494
(dp1495
g8
(lp1496
g1383
ag175
ag766
ag1083
ag778
ag771
ag540
ag675
ag794
ag473
ag312
ag28
ag559
ag282
ag54
ag772
ag886
ag768
ag1380
ag258
ag558
ag575
ag365
ag1012
ag902
ag777
ag1088
ag767
ag708
ag29
ag1093
ag256
ag35
ag461
ag257
ag1382
ag773
ag31
ag1084
ag774
ag567
ag1094
ag1087
ag780
ag101
ag269
ag799
ag437
ag77
ag205
ag779
ag431
ag273
ag519
ag1085
ag528
ag221
ag680
ag672
ag474
ag770
ag477
ag903
ag502
ag106
ag19
ag1089
ag638
ag478
ag299
ag16
ag475
ag305
ag769
ag1091
ag604
ag562
ag1086
ag436
ag792
ag362
ag1090
ag775
ag781
ag1092
ag318
ag272
ag225
ag636
ag91
ag476
ag152
ag50
ag98
ag776
ag1379
ag48
ag125
ag112
ag1017
ag1381
ag42
ag635
ag880
ag176
ag204
asg55
I1000
sg56
Nsg57
g444
sg63
g64
sg65
I0
sg61
g788
sba(ischedule
Activity
p1497
(dp1498
g8
g1402
sg55
g485
sg56
g1403
sg57
(iread_data
Room
p1499
(dp1500
g55
g336
sg61
g337
sbsg63
g191
sg65
g192
sg61
g491
sba(ischedule
Activity
p1501
(dp1502
g8
(lp1503
S'75680261'
p1504
ag1192
asg55
g1261
sg56
(ischedule
Group
p1505
(dp1506
g8
g1503
sg61
S'Project Genetic Algorithms3'
p1507
sbsg57
(iread_data
Room
p1508
(dp1509
g55
g189
sg61
g190
sbsg63
g191
sg65
g235
sg61
g1267
sba(ischedule
Activity
p1510
(dp1511
g8
(lp1512
g74
ag879
asg55
g1487
sg56
(ischedule
Group
p1513
(dp1514
g8
g1512
sg61
S'Advanced Heuristics2'
p1515
sbsg57
(iread_data
Room
p1516
(dp1517
g55
g233
sg61
g234
sbsg63
g191
sg65
g192
sg61
g1062
sba(ischedule
Activity
p1518
(dp1519
g8
g1420
sg55
I1000
sg56
Nsg57
(iread_data
Room
p1520
(dp1521
g55
g213
sg61
g214
sbsg63
g64
sg65
I0
sg61
g170
sbaaa(lp1522
(lp1523
a(lp1524
a(lp1525
a(lp1526
a(lp1527
aasS'timeslot_dict'
p1528
(dp1529
I0
S'9:00-11:00'
p1530
sI1
S'11:00-13:00'
p1531
sI2
S'13:00-15:00'
p1532
sI3
S'15:00-17:00'
p1533
sI4
S'17:00-19:00'
p1534
ssS'day_dict'
p1535
(dp1536
I0
S'Monday'
p1537
sI1
S'Tuesday'
p1538
sI2
S'Wednesday'
p1539
sI3
S'Thursday'
p1540
sI4
S'Friday'
p1541
ssb.