(ischedule
Schedule
p0
(dp1
S'timetable'
p2
(lp3
(lp4
(lp5
(ischedule
Activity
p6
(dp7
S'participants'
p8
(lp9
S'96054456'
p10
aS'15051051'
p11
aS'56815156'
p12
aS'73236988'
p13
aS'22826928'
p14
aS'11068043'
p15
aS'6913074'
p16
aS'7308727'
p17
aS'29526540'
p18
aS'30195935'
p19
aS'24613625'
p20
aS'70878567'
p21
aS'88176729'
p22
aS'53202517'
p23
aS'21029457'
p24
aS'3168419'
p25
aS'54026378'
p26
aS'58522654'
p27
aS'21964491'
p28
aS'77831658'
p29
aS'4568018'
p30
aS'96453361'
p31
aS'89985072'
p32
aS'20883994'
p33
aS'28359697'
p34
aS'33930505'
p35
aS'74131924'
p36
aS'14816774'
p37
aS'5298748'
p38
aS'247918'
p39
aS'14591033'
p40
aS'43680781'
p41
aS'66120270'
p42
aS'33877725'
p43
aS'79617364'
p44
aS'56749879'
p45
aS'30050930'
p46
aS'42196732'
p47
aS'22731474'
p48
aS'64600457'
p49
aS'44868097'
p50
aS'6723948'
p51
aS'81200278'
p52
aS'85335143'
p53
aS'59544049'
p54
asS'capacity'
p55
I1000
sS'group'
p56
NsS'room'
p57
(iread_data
Room
p58
(dp59
g55
S'60'
p60
sS'name'
p61
S'C1.112'
p62
sbsS'ttype'
p63
S'lectures'
p64
sS'group_id'
p65
I0
sg61
S'Bioinformatica'
p66
sba(ischedule
Activity
p67
(dp68
g8
(lp69
S'11915563'
p70
aS'72796858'
p71
aS'5517869'
p72
aS'19858730'
p73
aS'68409833'
p74
asg55
S'10'
p75
sg56
(ischedule
Group
p76
(dp77
g8
g69
sg61
S'Autonomous Agents 23'
p78
sbsg57
(iread_data
Room
p79
(dp80
g55
S'20'
p81
sg61
S'A1.08'
p82
sbsg63
S'labs'
p83
sg65
S'3'
p84
sg61
S'Autonomous Agents 2'
p85
sba(ischedule
Activity
p86
(dp87
g8
(lp88
S'58736785'
p89
aS'51566595'
p90
aS'5739011'
p91
aS'52304977'
p92
aS'35315956'
p93
aS'34765676'
p94
aS'16097870'
p95
aS'84524083'
p96
ag48
aS'670011'
p97
aS'43027916'
p98
aS'99975346'
p99
aS'15249775'
p100
aS'87602030'
p101
aS'82968410'
p102
aS'61443567'
p103
aS'83869542'
p104
aS'48678993'
p105
aS'63634350'
p106
aS'5976174'
p107
ag52
aS'31897288'
p108
aS'78243495'
p109
aS'57086672'
p110
aS'81022997'
p111
aS'7106649'
p112
aS'85236626'
p113
aS'27925117'
p114
aS'58040377'
p115
aS'72652638'
p116
aS'33760909'
p117
aS'1886996'
p118
asg55
I1000
sg56
Nsg57
(iread_data
Room
p119
(dp120
g55
S'117'
p121
sg61
S'C0.110'
p122
sbsg63
g64
sg65
I0
sg61
S'Heuristieken 2'
p123
sba(ischedule
Activity
p124
(dp125
g8
(lp126
S'87900893'
p127
aS'37744525'
p128
aS'97136582'
p129
aS'68360259'
p130
aS'13996448'
p131
asg55
S'10'
p132
sg56
(ischedule
Group
p133
(dp134
g8
g126
sg61
S'Data Mining1'
p135
sbsg57
(iread_data
Room
p136
(dp137
g55
S'56'
p138
sg61
S'A1.10'
p139
sbsg63
S'tutorials'
p140
sg65
S'1'
p141
sg61
S'Data Mining'
p142
sba(ischedule
Activity
p143
(dp144
g8
(lp145
S'82689818'
p146
aS'81385263'
p147
aS'78136904'
p148
aS'86988337'
p149
aS'52715680'
p150
aS'72895450'
p151
aS'50143947'
p152
aS'1665980'
p153
aS'14671406'
p154
aS'88596522'
p155
aS'21095566'
p156
aS'3707829'
p157
aS'19540225'
p158
aS'12077419'
p159
aS'57467488'
p160
aS'91527663'
p161
aS'64554442'
p162
aS'3474870'
p163
aS'41527759'
p164
aS'43902015'
p165
aS'66433883'
p166
aS'40343779'
p167
aS'23983476'
p168
asg55
S'25'
p169
sg56
(ischedule
Group
p170
(dp171
g8
g145
sg61
S'Algoritmen en complexiteit1'
p172
sbsg57
(iread_data
Room
p173
(dp174
g55
S'41'
p175
sg61
S'A1.04'
p176
sbsg63
g83
sg65
g141
sg61
S'Algoritmen en complexiteit'
p177
sba(ischedule
Activity
p178
(dp179
g8
(lp180
S'22323043'
p181
aS'41578612'
p182
aS'36785409'
p183
aS'93041523'
p184
aS'32204977'
p185
ag112
aS'44901052'
p186
aS'77264363'
p187
aS'97371272'
p188
aS'26406342'
p189
aS'76487754'
p190
aS'10149535'
p191
aS'6249823'
p192
ag159
aS'37110913'
p193
aS'21192048'
p194
ag53
aS'77636749'
p195
aS'31194811'
p196
aS'23547619'
p197
aS'75664412'
p198
aS'48308205'
p199
aS'58565406'
p200
ag41
aS'14383795'
p201
aS'9332762'
p202
aS'12430748'
p203
aS'47982619'
p204
aS'92496780'
p205
aS'89338938'
p206
aS'40434933'
p207
aS'75521763'
p208
aS'14309255'
p209
aS'69086548'
p210
aS'11996292'
p211
aS'4697362'
p212
aS'70336464'
p213
aS'68315599'
p214
asg55
I1000
sg56
Nsg57
(iread_data
Room
p215
(dp216
g55
S'48'
p217
sg61
S'B0.201'
p218
sbsg63
g64
sg65
I0
sg61
S'Technology for games'
p219
sbaa(lp220
(ischedule
Activity
p221
(dp222
g8
(lp223
S'46052388'
p224
aS'77896638'
p225
aS'28357474'
p226
aS'86291592'
p227
aS'51741554'
p228
aS'48601268'
p229
aS'1696500'
p230
aS'73980360'
p231
ag208
aS'62701040'
p232
aS'50184318'
p233
ag189
ag98
ag27
aS'17575088'
p234
aS'42778953'
p235
ag146
ag72
aS'17222374'
p236
aS'31416266'
p237
aS'3233378'
p238
aS'1075391'
p239
aS'76123484'
p240
aS'15902055'
p241
ag117
aS'64296965'
p242
ag152
aS'68601184'
p243
aS'57595888'
p244
aS'29474737'
p245
ag197
aS'34773179'
p246
aS'86000192'
p247
aS'87758823'
p248
aS'24277163'
p249
aS'25106480'
p250
aS'96104167'
p251
aS'72577292'
p252
aS'77240949'
p253
aS'13534377'
p254
aS'35330349'
p255
aS'29640619'
p256
aS'13092455'
p257
aS'64393888'
p258
ag202
ag17
ag153
aS'54310617'
p259
aS'53107172'
p260
ag28
aS'97135019'
p261
aS'45556081'
p262
aS'42171678'
p263
aS'64228258'
p264
aS'37770881'
p265
aS'4783858'
p266
aS'65960683'
p267
ag47
aS'60312776'
p268
ag103
aS'22699561'
p269
asg55
I1000
sg56
Nsg57
(iread_data
Room
p270
(dp271
g55
g121
sg61
g122
sbsg63
g64
sg65
I0
sg61
S'Collectieve Intelligentie'
p272
sba(ischedule
Activity
p273
(dp274
g8
(lp275
g131
ag130
aS'66122625'
p276
aS'87314964'
p277
ag111
aS'19337738'
p278
ag127
aS'52311353'
p279
ag152
aS'13116738'
p280
ag28
aS'93023961'
p281
aS'17823206'
p282
aS'91196968'
p283
aS'59753700'
p284
ag193
ag90
aS'25330192'
p285
aS'98780382'
p286
ag181
ag129
ag128
ag36
ag21
ag52
aS'99453514'
p287
aS'45414528'
p288
asg55
I1000
sg56
Nsg57
(iread_data
Room
p289
(dp290
g55
g175
sg61
g176
sbsg63
g64
sg65
I0
sg61
g142
sba(ischedule
Activity
p291
(dp292
g8
(lp293
S'4546613'
p294
ag26
aS'52552718'
p295
aS'89180944'
p296
ag15
ag13
aS'14072826'
p297
ag54
aS'96554914'
p298
ag167
aS'27582862'
p299
ag43
aS'78443067'
p300
ag50
ag32
aS'45915482'
p301
aS'9287708'
p302
aS'95631564'
p303
aS'99283252'
p304
aS'3727435'
p305
ag256
ag74
aS'31103066'
p306
aS'31633723'
p307
aS'51593625'
p308
aS'42115591'
p309
ag206
ag154
aS'83210352'
p310
ag109
ag150
aS'31247305'
p311
aS'80709893'
p312
ag107
aS'22871048'
p313
aS'82872148'
p314
aS'62105897'
p315
aS'41153310'
p316
ag200
ag156
aS'37830626'
p317
aS'70015932'
p318
aS'77376714'
p319
aS'48357272'
p320
asg55
S'40'
p321
sg56
(ischedule
Group
p322
(dp323
g8
g293
sg61
S'Software engineering1'
p324
sbsg57
(iread_data
Room
p325
(dp326
g55
g217
sg61
g218
sbsg63
g83
sg65
g141
sg61
S'Software engineering'
p327
sba(ischedule
Activity
p328
(dp329
g8
(lp330
S'72665524'
p331
aS'27187154'
p332
aS'55412918'
p333
aS'27064249'
p334
aS'33672995'
p335
ag53
aS'38296757'
p336
aS'58253841'
p337
aS'61520025'
p338
aS'53139134'
p339
asg55
S'40'
p340
sg56
(ischedule
Group
p341
(dp342
g8
g330
sg61
S'Calculus 21'
p343
sbsg57
(iread_data
Room
p344
(dp345
g55
S'22'
p346
sg61
S'A1.06'
p347
sbsg63
g140
sg65
g141
sg61
S'Calculus 2'
p348
sbaa(lp349
(ischedule
Activity
p350
(dp351
g8
(lp352
S'56544130'
p353
ag53
aS'86807027'
p354
aS'94686490'
p355
aS'79888156'
p356
ag44
aS'81155296'
p357
aS'6939933'
p358
aS'27298319'
p359
aS'78544592'
p360
aS'46701583'
p361
aS'74182182'
p362
ag261
aS'76661016'
p363
aS'88855695'
p364
aS'58592894'
p365
ag117
aS'78735049'
p366
aS'75446434'
p367
aS'23565001'
p368
aS'26260141'
p369
ag337
aS'53585410'
p370
aS'58699305'
p371
ag320
aS'83415514'
p372
aS'56872729'
p373
aS'14179347'
p374
aS'28957789'
p375
ag101
ag16
aS'88752563'
p376
ag333
ag300
aS'9731271'
p377
ag336
aS'40141996'
p378
aS'75623387'
p379
ag37
aS'83266686'
p380
aS'38179241'
p381
aS'65978354'
p382
ag95
aS'19717077'
p383
ag24
aS'46570285'
p384
aS'12091019'
p385
aS'59220392'
p386
aS'47477884'
p387
aS'24875739'
p388
aS'14303208'
p389
aS'6709529'
p390
aS'56348773'
p391
aS'10609762'
p392
aS'5615125'
p393
ag51
ag241
ag301
aS'93361408'
p394
aS'80188025'
p395
aS'34173695'
p396
ag127
aS'72526473'
p397
aS'10792879'
p398
ag335
aS'79167252'
p399
ag339
ag114
aS'82412626'
p400
ag10
aS'31306819'
p401
aS'75997788'
p402
aS'32705005'
p403
ag49
ag264
aS'62363761'
p404
ag106
ag334
aS'75585647'
p405
aS'23658570'
p406
aS'73302736'
p407
ag332
ag294
ag115
ag315
aS'73823548'
p408
ag228
aS'47932106'
p409
aS'58469172'
p410
aS'77306636'
p411
aS'23628642'
p412
ag50
aS'22168693'
p413
aS'55530367'
p414
ag191
ag266
aS'37279234'
p415
ag247
ag338
ag40
aS'65408517'
p416
ag331
aS'70939718'
p417
aS'11593163'
p418
aS'3678531'
p419
aS'86180471'
p420
asg55
I1000
sg56
Nsg57
(iread_data
Room
p421
(dp422
g55
g121
sg61
g122
sbsg63
g64
sg65
I0
sg61
g348
sba(ischedule
Activity
p423
(dp424
g8
(lp425
g41
ag12
ag32
ag18
asg55
S'20'
p426
sg56
(ischedule
Group
p427
(dp428
g8
g425
sg61
S'Bioinformatica3'
p429
sbsg57
(iread_data
Room
p430
(dp431
g55
g175
sg61
g176
sbsg63
g140
sg65
g84
sg61
g66
sba(ischedule
Activity
p432
(dp433
g8
(lp434
g200
ag206
ag181
ag209
ag214
ag182
ag194
ag197
ag213
ag190
ag189
ag195
ag196
ag208
ag204
ag188
ag205
ag203
ag184
asg55
S'20'
p435
sg56
(ischedule
Group
p436
(dp437
g8
g434
sg61
S'Technology for games2'
p438
sbsg57
(iread_data
Room
p439
(dp440
g55
g60
sg61
g62
sbsg63
g140
sg65
S'2'
p441
sg61
g219
sba(ischedule
Activity
p442
(dp443
g8
(lp444
g27
ag28
ag202
ag253
ag17
ag240
ag233
ag245
ag226
ag236
ag103
ag269
ag260
ag254
ag47
ag239
ag243
ag258
ag257
ag242
asg55
S'20'
p445
sg56
(ischedule
Group
p446
(dp447
g8
g444
sg61
S'Collectieve Intelligentie1'
p448
sbsg57
(iread_data
Room
p449
(dp450
g55
g346
sg61
g347
sbsg63
g83
sg65
g141
sg61
g272
sba(ischedule
Activity
p451
(dp452
g8
g145
sg55
S'25'
p453
sg56
g170
sg57
(iread_data
Room
p454
(dp455
g55
g217
sg61
g218
sbsg63
g140
sg65
g141
sg61
g177
sba(ischedule
Activity
p456
(dp457
g8
(lp458
S'1766560'
p459
aS'28618400'
p460
ag15
aS'63573738'
p461
aS'3685034'
p462
aS'32183908'
p463
ag29
aS'62356458'
p464
aS'14941752'
p465
aS'19214659'
p466
ag13
ag227
aS'2550487'
p467
aS'32044893'
p468
aS'19662602'
p469
aS'42406214'
p470
aS'81116418'
p471
ag131
asg55
S'15'
p472
sg56
(ischedule
Group
p473
(dp474
g8
g458
sg61
S'Project Numerical Recipes3'
p475
sbsg57
(iread_data
Room
p476
(dp477
g55
g81
sg61
g82
sbsg63
g83
sg65
g84
sg61
S'Project Numerical Recipes'
p478
sba(ischedule
Activity
p479
(dp480
g8
(lp481
S'97838175'
p482
aS'41644639'
p483
aS'57419039'
p484
asg55
S'15'
p485
sg56
(ischedule
Group
p486
(dp487
g8
g481
sg61
S'Zoeken sturen en bewegen2'
p488
sbsg57
(iread_data
Room
p489
(dp490
g55
g138
sg61
g139
sbsg63
g83
sg65
g441
sg61
S'Zoeken sturen en bewegen'
p491
sbaa(lp492
(ischedule
Activity
p493
(dp494
g8
(lp495
S'43460038'
p496
aS'59289233'
p497
aS'58866007'
p498
ag318
ag207
aS'14138904'
p499
ag146
aS'13798030'
p500
ag252
aS'29718115'
p501
ag262
aS'20331158'
p502
ag191
ag460
ag114
aS'34872117'
p503
aS'49683101'
p504
ag380
ag296
aS'72683344'
p505
aS'23798155'
p506
asg55
I1000
sg56
Nsg57
(iread_data
Room
p507
(dp508
g55
g60
sg61
g62
sbsg63
g64
sg65
I0
sg61
S'Architectuur en computerorganisatie'
p509
sba(ischedule
Activity
p510
(dp511
g8
g69
sg55
S'10'
p512
sg56
g76
sg57
(iread_data
Room
p513
(dp514
g55
g217
sg61
g218
sbsg63
g140
sg65
g84
sg61
g85
sba(ischedule
Activity
p515
(dp516
g8
(lp517
g36
ag26
ag186
aS'62872965'
p518
aS'70113753'
p519
ag95
aS'34806836'
p520
ag295
asg55
g512
sg56
(ischedule
Group
p521
(dp522
g8
g517
sg61
S'Autonomous Agents 21'
p523
sbsg57
(iread_data
Room
p524
(dp525
g55
g121
sg61
g122
sbsg63
g140
sg65
g141
sg61
g85
sba(ischedule
Activity
p526
(dp527
g8
g444
sg55
S'20'
p528
sg56
g446
sg57
(iread_data
Room
p529
(dp530
g55
g81
sg61
g82
sbsg63
g140
sg65
g141
sg61
g272
sba(ischedule
Activity
p531
(dp532
g8
(lp533
S'37399898'
p534
aS'94467156'
p535
aS'92778619'
p536
ag10
aS'64947290'
p537
aS'39459642'
p538
ag51
ag467
aS'94687383'
p539
aS'73893840'
p540
ag315
aS'4921119'
p541
ag204
ag168
ag283
aS'94955328'
p542
aS'77960666'
p543
aS'92977271'
p544
aS'38499176'
p545
aS'20618153'
p546
aS'28943658'
p547
aS'7386961'
p548
aS'44391517'
p549
ag377
aS'73196865'
p550
ag106
aS'55474917'
p551
ag415
ag387
aS'26857113'
p552
aS'80135353'
p553
ag45
aS'70072978'
p554
ag370
ag225
asg55
S'20'
p555
sg56
(ischedule
Group
p556
(dp557
g8
g533
sg61
S'Programmeren in Java 23'
p558
sbsg57
(iread_data
Room
p559
(dp560
g55
g175
sg61
g176
sbsg63
g83
sg65
g84
sg61
S'Programmeren in Java 2'
p561
sba(ischedule
Activity
p562
(dp563
g8
(lp564
S'12170832'
p565
aS'5590289'
p566
aS'77392404'
p567
aS'26207525'
p568
aS'34243356'
p569
ag52
ag285
aS'25557516'
p570
aS'59887191'
p571
ag35
ag227
aS'18266644'
p572
ag417
aS'19058315'
p573
ag461
ag105
aS'7957843'
p574
aS'123355'
p575
asg55
S'20'
p576
sg56
(ischedule
Group
p577
(dp578
g8
g564
sg61
S'Netwerken en systeembeveiliging2'
p579
sbsg57
(iread_data
Room
p580
(dp581
g55
g346
sg61
g347
sbsg63
g83
sg65
g441
sg61
S'Netwerken en systeembeveiliging'
p582
sba(ischedule
Activity
p583
(dp584
g8
(lp585
g301
aS'88597745'
p586
ag12
ag337
aS'33946407'
p587
aS'9067939'
p588
aS'36527838'
p589
ag248
ag23
aS'82233873'
p590
ag284
ag11
ag375
aS'63955238'
p591
aS'37804282'
p592
asg55
g485
sg56
(ischedule
Group
p593
(dp594
g8
g585
sg61
S'Zoeken sturen en bewegen1'
p595
sbsg57
(iread_data
Room
p596
(dp597
g55
g138
sg61
g139
sbsg63
g83
sg65
g141
sg61
g491
sbaa(lp598
(ischedule
Activity
p599
(dp600
g8
(lp601
g199
ag47
ag569
ag74
ag225
aS'16011419'
p602
aS'75005528'
p603
aS'93566383'
p604
ag191
ag40
aS'36508571'
p605
ag279
ag283
ag589
ag309
ag355
aS'26172512'
p606
ag542
ag310
ag541
ag534
ag545
ag182
ag368
ag518
aS'54074680'
p607
aS'16333449'
p608
aS'66570705'
p609
ag362
aS'71839156'
p610
ag312
ag97
aS'61060652'
p611
aS'90743504'
p612
ag44
ag147
ag235
ag551
aS'96118484'
p613
ag248
aS'79937969'
p614
ag95
ag333
aS'21311067'
p615
aS'34588570'
p616
ag498
aS'32595335'
p617
aS'81218347'
p618
ag255
aS'80998260'
p619
ag237
ag373
ag72
ag163
asg55
I1000
sg56
Nsg57
(iread_data
Room
p620
(dp621
g55
g138
sg61
g139
sbsg63
g64
sg65
I0
sg61
S'Lineaire Algebra'
p622
sba(ischedule
Activity
p623
(dp624
g8
(lp625
g465
ag230
aS'97417002'
p626
ag208
ag45
ag30
ag160
aS'83443653'
p627
ag73
ag354
ag502
ag181
aS'87210640'
p628
ag544
aS'53775014'
p629
ag402
aS'97019450'
p630
aS'36903574'
p631
ag193
ag108
aS'59075181'
p632
ag40
ag260
ag499
ag610
aS'76393508'
p633
aS'94930277'
p634
ag276
ag611
aS'98105190'
p635
ag266
aS'45660925'
p636
ag320
ag186
aS'79879876'
p637
aS'20830477'
p638
ag37
aS'4353500'
p639
ag211
aS'13658563'
p640
ag313
ag263
ag618
ag89
asg55
I1000
sg56
Nsg57
(iread_data
Room
p641
(dp642
g55
g60
sg61
g62
sbsg63
g64
sg65
I0
sg61
S'Heuristieken 1'
p643
sba(ischedule
Activity
p644
(dp645
g8
(lp646
g207
aS'17092717'
p647
ag240
ag334
ag192
ag252
ag389
aS'76648468'
p648
ag546
aS'49908313'
p649
ag165
asg55
S'20'
p650
sg56
(ischedule
Group
p651
(dp652
g8
g646
sg61
S'Webprogrammeren en databases2'
p653
sbsg57
(iread_data
Room
p654
(dp655
g55
g346
sg61
g347
sbsg63
g140
sg65
g441
sg61
S'Webprogrammeren en databases'
p656
sba(ischedule
Activity
p657
(dp658
g8
(lp659
S'23652927'
p660
ag163
ag164
ag365
ag631
ag167
ag161
ag157
ag146
ag107
aS'8522855'
p661
ag158
aS'67817269'
p662
aS'41585485'
p663
ag361
ag166
ag319
ag152
ag155
ag370
ag537
ag241
ag147
ag31
ag154
ag151
ag168
ag150
ag148
ag359
aS'51509565'
p664
ag94
ag153
ag90
ag149
ag369
ag28
aS'44828429'
p665
ag156
ag159
ag162
ag160
ag165
asg55
I1000
sg56
Nsg57
(iread_data
Room
p666
(dp667
g55
g121
sg61
g122
sbsg63
g64
sg65
I0
sg61
g177
sba(ischedule
Activity
p668
(dp669
g8
(lp670
g506
ag504
ag462
ag128
ag107
aS'67625383'
p671
ag538
ag332
aS'40791377'
p672
aS'2079771'
p673
aS'61518436'
p674
ag361
ag253
aS'90067329'
p675
aS'33252501'
p676
ag552
ag336
ag535
aS'56988998'
p677
aS'63111000'
p678
ag113
ag11
asg55
I1000
sg56
Nsg57
(iread_data
Room
p679
(dp680
g55
g217
sg61
g218
sbsg63
g64
sg65
I0
sg61
S'Machine Learning'
p681
sba(ischedule
Activity
p682
(dp683
g8
(lp684
g331
asg55
g576
sg56
(ischedule
Group
p685
(dp686
g8
g684
sg61
S'Netwerken en systeembeveiliging4'
p687
sbsg57
(iread_data
Room
p688
(dp689
g55
g81
sg61
g82
sbsg63
g83
sg65
S'4'
p690
sg61
g582
sba(ischedule
Activity
p691
(dp692
g8
(lp693
g304
asg55
S'15'
p694
sg56
(ischedule
Group
p695
(dp696
g8
g693
sg61
S'Project Genetic Algorithms2'
p697
sbsg57
(iread_data
Room
p698
(dp699
g55
g175
sg61
g176
sbsg63
g83
sg65
g441
sg61
S'Project Genetic Algorithms'
p700
sbaaa(lp701
(lp702
(ischedule
Activity
p703
(dp704
g8
(lp705
g52
ag36
ag21
ag28
ag111
ag280
ag152
ag279
ag283
ag282
ag288
ag287
ag286
asg55
S'10'
p706
sg56
(ischedule
Group
p707
(dp708
g8
g705
sg61
S'Data Mining3'
p709
sbsg57
(iread_data
Room
p710
(dp711
g55
g60
sg61
g62
sbsg63
g83
sg65
g84
sg61
g142
sba(ischedule
Activity
p712
(dp713
g8
(lp714
g127
ag364
ag264
ag16
ag241
ag376
ag366
ag398
ag406
ag261
ag370
ag393
ag396
ag381
ag10
ag395
ag385
ag24
ag356
ag363
ag106
ag401
ag405
ag95
ag300
ag389
ag353
ag40
ag397
ag407
ag392
ag374
ag368
ag101
ag247
ag390
ag301
ag411
ag37
ag415
ag419
ag380
ag410
ag408
ag358
asg55
g340
sg56
(ischedule
Group
p715
(dp716
g8
g714
sg61
S'Calculus 22'
p717
sbsg57
(iread_data
Room
p718
(dp719
g55
g217
sg61
g218
sbsg63
g140
sg65
g441
sg61
g348
sba(ischedule
Activity
p720
(dp721
g8
(lp722
g90
ag181
ag193
ag285
ag281
ag278
ag276
ag277
ag284
asg55
g706
sg56
(ischedule
Group
p723
(dp724
g8
g722
sg61
S'Data Mining2'
p725
sbsg57
(iread_data
Room
p726
(dp727
g55
g81
sg61
g82
sbsg63
g83
sg65
g441
sg61
g142
sba(ischedule
Activity
p728
(dp729
g8
g670
sg55
I1000
sg56
Nsg57
(iread_data
Room
p730
(dp731
g55
g138
sg61
g139
sbsg63
g64
sg65
I0
sg61
g681
sba(ischedule
Activity
p732
(dp733
g8
(lp734
g460
ag354
ag505
aS'14847953'
p735
ag387
ag25
ag402
ag252
aS'62613937'
p736
ag334
ag331
aS'39429093'
p737
aS'40633534'
p738
aS'60352393'
p739
ag118
aS'92665222'
p740
ag33
ag148
aS'70844780'
p741
ag197
asg55
I1000
sg56
Nsg57
(iread_data
Room
p742
(dp743
g55
g346
sg61
g347
sbsg63
g64
sg65
I0
sg61
S'Advanced Heuristics'
p744
sba(ischedule
Activity
p745
(dp746
g8
(lp747
g230
aS'4709948'
p748
ag146
ag631
ag19
ag17
aS'54772132'
p749
ag314
aS'1048485'
p750
aS'62736669'
p751
aS'3883025'
p752
aS'53267490'
p753
aS'72456780'
p754
ag160
ag377
aS'14398123'
p755
aS'64246605'
p756
ag256
ag311
ag404
aS'87830198'
p757
ag147
ag167
aS'21677389'
p758
ag661
aS'56121590'
p759
aS'535689'
p760
aS'72586808'
p761
ag198
ag42
aS'56191333'
p762
aS'16912993'
p763
ag632
ag186
ag228
asg55
g576
sg56
(ischedule
Group
p764
(dp765
g8
g747
sg61
S'Netwerken en systeembeveiliging1'
p766
sbsg57
(iread_data
Room
p767
(dp768
g55
g121
sg61
g122
sbsg63
g83
sg65
g141
sg61
g582
sba(ischedule
Activity
p769
(dp770
g8
(lp771
g236
ag249
ag72
ag109
ag233
ag263
ag208
aS'49631542'
p772
aS'47462856'
p773
aS'58332004'
p774
ag296
ag384
ag214
ag18
aS'13911001'
p775
aS'78821918'
p776
aS'1181560'
p777
aS'27241113'
p778
aS'49219163'
p779
aS'13218321'
p780
ag589
ag49
aS'27916487'
p781
ag360
aS'84449005'
p782
aS'48198668'
p783
aS'30658799'
p784
aS'41489515'
p785
aS'18144425'
p786
ag319
ag554
asg55
S'20'
p787
sg56
(ischedule
Group
p788
(dp789
g8
g771
sg61
S'Moderne Databases2'
p790
sbsg57
(iread_data
Room
p791
(dp792
g55
g175
sg61
g176
sbsg63
g83
sg65
g441
sg61
S'Moderne Databases'
p793
sbaa(lp794
(ischedule
Activity
p795
(dp796
g8
(lp797
g95
ag407
aS'73350019'
p798
ag53
ag776
ag572
ag105
ag630
ag395
ag482
ag242
ag353
ag736
aS'5595824'
p799
aS'60661905'
p800
ag541
ag569
ag402
ag110
aS'51542218'
p801
ag320
aS'14637758'
p802
ag506
ag754
ag335
aS'70193386'
p803
aS'13718298'
p804
ag761
aS'78822885'
p805
ag29
aS'65318664'
p806
ag309
aS'5085194'
p807
aS'58480929'
p808
ag98
ag757
aS'88737765'
p809
ag182
ag183
ag627
aS'82854435'
p810
ag542
aS'18477924'
p811
ag12
ag279
ag406
ag313
aS'34900967'
p812
ag368
asg55
I1000
sg56
Nsg57
(iread_data
Room
p813
(dp814
g55
g60
sg61
g62
sbsg63
g64
sg65
I0
sg61
S'Analysemethoden en -technieken'
p815
sba(ischedule
Activity
p816
(dp817
g8
(lp818
g28
ag256
ag202
ag232
ag372
aS'44671041'
p819
aS'34262212'
p820
aS'10702778'
p821
aS'99272880'
p822
ag361
ag631
ag131
ag258
aS'33776961'
p823
ag14
aS'88263855'
p824
ag678
ag774
aS'8464817'
p825
ag748
aS'2317551'
p826
ag113
ag308
ag149
ag247
aS'64053722'
p827
ag586
aS'90296821'
p828
ag637
asg55
g555
sg56
(ischedule
Group
p829
(dp830
g8
g818
sg61
S'Programmeren in Java 25'
p831
sbsg57
(iread_data
Room
p832
(dp833
g55
g175
sg61
g176
sbsg63
g83
sg65
S'5'
p834
sg61
g561
sba(ischedule
Activity
p835
(dp836
g8
(lp837
g192
aS'69459473'
p838
ag296
ag252
ag608
ag165
ag546
ag163
ag103
ag207
ag109
ag151
aS'41790793'
p839
aS'1137946'
p840
ag334
aS'76903244'
p841
ag110
aS'2416751'
p842
aS'66034145'
p843
ag389
ag496
ag567
ag634
ag647
ag43
aS'10698627'
p844
ag393
ag23
ag240
aS'67073567'
p845
aS'28358060'
p846
aS'39230359'
p847
aS'24891081'
p848
ag649
aS'53512831'
p849
ag264
ag735
ag648
aS'22288615'
p850
asg55
I1000
sg56
Nsg57
(iread_data
Room
p851
(dp852
g55
g138
sg61
g139
sbsg63
g64
sg65
I0
sg61
g656
sba(ischedule
Activity
p853
(dp854
g8
(lp855
g10
ag37
ag17
ag49
ag47
ag45
ag20
ag25
ag40
ag54
ag21
ag11
ag42
ag39
ag33
ag30
ag22
ag51
ag52
asg55
g426
sg56
(ischedule
Group
p856
(dp857
g8
g855
sg61
S'Bioinformatica1'
p858
sbsg57
(iread_data
Room
p859
(dp860
g55
g217
sg61
g218
sbsg63
g140
sg65
g141
sg61
g66
sba(ischedule
Activity
p861
(dp862
g8
(lp863
g95
ag26
ag295
ag193
ag605
ag359
ag464
ag538
ag313
aS'61611295'
p864
ag519
aS'88627897'
p865
ag518
ag90
ag70
ag72
ag36
ag73
ag520
ag186
ag71
ag74
asg55
I1000
sg56
Nsg57
(iread_data
Room
p866
(dp867
g55
g121
sg61
g122
sbsg63
g64
sg65
I0
sg61
g85
sba(ischedule
Activity
p868
(dp869
g8
(lp870
S'3407554'
p871
ag152
ag185
aS'74361881'
p872
ag106
aS'1695839'
p873
ag610
ag150
ag775
aS'44151631'
p874
aS'5892092'
p875
aS'55103073'
p876
asg55
S'15'
p877
sg56
(ischedule
Group
p878
(dp879
g8
g870
sg61
S'Compilerbouw practicum2'
p880
sbsg57
(iread_data
Room
p881
(dp882
g55
g346
sg61
g347
sbsg63
g83
sg65
g441
sg61
S'Compilerbouw practicum'
p883
sba(ischedule
Activity
p884
(dp885
g8
(lp886
g499
aS'25994016'
p887
ag370
aS'51472074'
p888
aS'65675896'
p889
aS'51673172'
p890
ag15
ag201
asg55
g877
sg56
(ischedule
Group
p891
(dp892
g8
g886
sg61
S'Compilerbouw practicum3'
p893
sbsg57
(iread_data
Room
p894
(dp895
g55
g81
sg61
g82
sbsg63
g83
sg65
g84
sg61
g883
sbaa(lp896
(ischedule
Activity
p897
(dp898
g8
(lp899
S'20239127'
p900
ag567
ag298
ag38
ag96
ag99
aS'54569540'
p901
aS'68286356'
p902
ag287
ag823
ag183
ag16
ag313
aS'36213792'
p903
ag193
ag249
ag536
ag182
ag757
ag640
aS'27370083'
p904
ag543
aS'20095994'
p905
ag148
aS'82390428'
p906
ag782
ag804
aS'27805666'
p907
ag336
ag150
ag803
ag462
ag468
aS'51415617'
p908
ag257
ag534
ag748
ag674
aS'27950803'
p909
ag739
aS'49922855'
p910
ag800
ag149
ag41
aS'51052738'
p911
ag14
ag741
ag284
aS'90474003'
p912
ag470
ag110
asg55
I1000
sg56
Nsg57
(iread_data
Room
p913
(dp914
g55
g121
sg61
g122
sbsg63
g64
sg65
I0
sg61
S'Reflectie op de digitale cultuur'
p915
sba(ischedule
Activity
p916
(dp917
g8
g855
sg55
S'20'
p918
sg56
g856
sg57
(iread_data
Room
p919
(dp920
g55
g60
sg61
g62
sbsg63
g83
sg65
g141
sg61
g66
sba(ischedule
Activity
p921
(dp922
g8
(lp923
g53
ag300
asg55
g787
sg56
(ischedule
Group
p924
(dp925
g8
g923
sg61
S'Moderne Databases1'
p926
sbsg57
(iread_data
Room
p927
(dp928
g55
g346
sg61
g347
sbsg63
g83
sg65
g141
sg61
g793
sba(ischedule
Activity
p929
(dp930
g8
(lp931
g365
ag107
ag370
ag31
ag359
ag94
ag90
ag369
ag361
ag28
ag241
ag537
ag661
ag660
ag631
ag662
ag665
ag663
ag319
ag664
asg55
g169
sg56
(ischedule
Group
p932
(dp933
g8
g931
sg61
S'Algoritmen en complexiteit2'
p934
sbsg57
(iread_data
Room
p935
(dp936
g55
g81
sg61
g82
sbsg63
g83
sg65
g441
sg61
g177
sba(ischedule
Activity
p937
(dp938
g8
(lp939
g268
ag153
ag208
ag229
ag261
ag256
ag98
ag265
ag250
ag246
ag235
asg55
g445
sg56
(ischedule
Group
p940
(dp941
g8
g939
sg61
S'Collectieve Intelligentie4'
p942
sbsg57
(iread_data
Room
p943
(dp944
g55
g138
sg61
g139
sbsg63
g83
sg65
g690
sg61
g272
sba(ischedule
Activity
p945
(dp946
g8
(lp947
g152
ag117
ag266
ag146
ag267
ag244
ag263
ag227
ag252
ag225
ag262
ag251
ag264
ag238
ag234
ag232
ag247
ag237
ag248
ag197
ag228
asg55
g445
sg56
(ischedule
Group
p948
(dp949
g8
g947
sg61
S'Collectieve Intelligentie3'
p950
sbsg57
(iread_data
Room
p951
(dp952
g55
g175
sg61
g176
sbsg63
g83
sg65
g84
sg61
g272
sba(ischedule
Activity
p953
(dp954
g8
(lp955
S'34691309'
p956
ag206
ag408
aS'48503689'
p957
ag48
ag354
ag151
ag111
ag199
aS'13284244'
p958
aS'37419523'
p959
ag603
aS'21070547'
p960
asg55
g472
sg56
(ischedule
Group
p961
(dp962
g8
g955
sg61
S'Project Numerical Recipes1'
p963
sbsg57
(iread_data
Room
p964
(dp965
g55
g217
sg61
g218
sbsg63
g83
sg65
g141
sg61
g478
sbaa(lp966
(ischedule
Activity
p967
(dp968
g8
(lp969
g296
ag608
ag109
ag496
ag634
ag43
ag735
ag163
ag23
ag151
ag844
ag110
ag841
ag264
ag848
ag847
ag838
ag850
ag845
ag839
ag840
ag103
ag393
ag849
ag567
ag842
ag846
ag843
asg55
S'20'
p970
sg56
(ischedule
Group
p971
(dp972
g8
g969
sg61
S'Webprogrammeren en databases1'
p973
sbsg57
(iread_data
Room
p974
(dp975
g55
g175
sg61
g176
sbsg63
g83
sg65
g141
sg61
g656
sba(ischedule
Activity
p976
(dp977
g8
(lp978
g30
ag155
ag32
aS'82066165'
p979
aS'42297781'
p980
aS'91250534'
p981
ag483
ag760
ag244
ag331
ag153
ag189
ag807
aS'23215240'
p982
aS'11459236'
p983
ag389
ag545
ag822
aS'64418623'
p984
aS'47260040'
p985
asg55
g877
sg56
(ischedule
Group
p986
(dp987
g8
g978
sg61
S'Compilerbouw practicum1'
p988
sbsg57
(iread_data
Room
p989
(dp990
g55
g346
sg61
g347
sbsg63
g83
sg65
g141
sg61
g883
sba(ischedule
Activity
p991
(dp992
g8
(lp993
g402
ag361
ag355
ag228
ag294
ag379
ag191
ag388
ag387
ag386
ag384
ag44
ag266
ag315
ag49
ag369
ag412
ag418
ag409
ag417
ag50
ag420
ag378
ag375
ag403
ag383
ag359
ag362
ag357
ag391
ag354
ag377
ag404
ag371
ag414
ag320
ag394
ag360
ag51
ag365
ag114
ag367
ag399
ag400
ag117
ag382
ag373
ag372
ag413
ag115
ag416
asg55
g340
sg56
(ischedule
Group
p994
(dp995
g8
g993
sg61
S'Calculus 23'
p996
sbsg57
(iread_data
Room
p997
(dp998
g55
g138
sg61
g139
sbsg63
g140
sg65
g84
sg61
g348
sba(ischedule
Activity
p999
(dp1000
g8
g275
sg55
I1000
sg56
Nsg57
(iread_data
Room
p1001
(dp1002
g55
g217
sg61
g218
sbsg63
g64
sg65
I0
sg61
g142
sba(ischedule
Activity
p1003
(dp1004
g8
(lp1005
g909
ag268
ag96
ag13
ag209
aS'75599734'
p1006
ag303
ag70
ag227
ag267
aS'75759231'
p1007
aS'65852230'
p1008
ag225
aS'88636924'
p1009
ag198
ag196
ag784
ag235
ag574
ag740
ag265
ag332
ag538
aS'46989508'
p1010
ag149
aS'34110913'
p1011
ag71
ag871
ag398
ag363
ag775
aS'11741347'
p1012
ag825
aS'43689934'
p1013
ag364
ag159
aS'5368702'
p1014
ag672
ag20
ag957
ag459
ag380
ag635
ag799
ag553
ag569
ag504
ag147
ag588
ag673
ag27
ag826
ag539
ag549
aS'15911353'
p1015
ag376
ag199
ag958
aS'79033175'
p1016
asg55
S'40'
p1017
sg56
(ischedule
Group
p1018
(dp1019
g8
g1005
sg61
S'Compilerbouw1'
p1020
sbsg57
(iread_data
Room
p1021
(dp1022
g55
g60
sg61
g62
sbsg63
g83
sg65
g141
sg61
S'Compilerbouw'
p1023
sba(ischedule
Activity
p1024
(dp1025
g8
(lp1026
g572
ag195
ag232
ag774
ag208
ag405
aS'36748818'
p1027
ag185
asg55
S'15'
p1028
sg56
(ischedule
Group
p1029
(dp1030
g8
g1026
sg61
S'Informatie- en organisatieontwerp2'
p1031
sbsg57
(iread_data
Room
p1032
(dp1033
g55
g121
sg61
g122
sbsg63
g83
sg65
g441
sg61
S'Informatie- en organisatieontwerp'
p1034
sbaa(lp1035
(ischedule
Activity
p1036
(dp1037
g8
g223
sg55
I1000
sg56
Nsg57
(iread_data
Room
p1038
(dp1039
g55
g121
sg61
g122
sbsg63
g64
sg65
I0
sg61
g272
sba(ischedule
Activity
p1040
(dp1041
g8
g863
sg55
I1000
sg56
Nsg57
(iread_data
Room
p1042
(dp1043
g55
g217
sg61
g218
sbsg63
g64
sg65
I0
sg61
g85
sba(ischedule
Activity
p1044
(dp1045
g8
(lp1046
g785
ag319
ag41
ag783
ag775
ag304
ag214
ag777
ag72
ag459
ag752
ag109
ag780
ag782
ag249
ag772
ag296
ag371
aS'66621166'
p1047
ag773
ag781
ag778
ag774
ag49
ag384
ag11
ag263
ag589
ag236
ag211
ag209
ag300
ag786
ag233
ag554
ag823
ag402
ag748
ag779
aS'96082155'
p1048
ag208
ag784
ag365
ag776
ag678
aS'59111489'
p1049
ag1027
ag380
ag372
ag18
ag360
ag1012
ag53
aS'51650744'
p1050
asg55
I1000
sg56
Nsg57
(iread_data
Room
p1051
(dp1052
g55
g138
sg61
g139
sbsg63
g64
sg65
I0
sg61
g793
sba(ischedule
Activity
p1053
(dp1054
g8
(lp1055
g157
ag467
ag197
ag94
ag1014
ag466
ag534
ag843
ag294
ag363
ag889
ag381
aS'28055464'
p1056
ag604
ag357
ag665
ag735
aS'64768422'
p1057
aS'69634191'
p1058
aS'20374340'
p1059
ag758
ag147
ag52
aS'37701751'
p1060
aS'76924297'
p1061
asg55
I1000
sg56
Nsg57
(iread_data
Room
p1062
(dp1063
g55
g60
sg61
g62
sbsg63
g64
sg65
I0
sg61
S'Interactie-ontwerp'
p1064
sba(ischedule
Activity
p1065
(dp1066
g8
(lp1067
g14
ag640
ag741
ag148
ag336
ag757
ag536
ag99
ag674
ag284
ag16
ag903
ag150
ag901
ag803
ag41
ag298
ag739
asg55
S'20'
p1068
sg56
(ischedule
Group
p1069
(dp1070
g8
g1067
sg61
S'Reflectie op de digitale cultuur1'
p1071
sbsg57
(iread_data
Room
p1072
(dp1073
g55
g81
sg61
g82
sbsg63
g140
sg65
g141
sg61
g915
sba(ischedule
Activity
p1074
(dp1075
g8
(lp1076
g567
ag38
ag543
ag182
ag183
ag908
ag910
ag902
ag904
ag909
ag110
ag193
ag906
ag900
ag912
ag907
ag149
ag462
ag287
ag911
ag96
asg55
g1068
sg56
(ischedule
Group
p1077
(dp1078
g8
g1076
sg61
S'Reflectie op de digitale cultuur2'
p1079
sbsg57
(iread_data
Room
p1080
(dp1081
g55
g346
sg61
g347
sbsg63
g140
sg65
g441
sg61
g915
sba(ischedule
Activity
p1082
(dp1083
g8
(lp1084
g23
ag151
ag51
ag399
ag503
ag749
aS'76802764'
p1085
aS'95007221'
p1086
ag214
aS'66701209'
p1087
asg55
S'40'
p1088
sg56
(ischedule
Group
p1089
(dp1090
g8
g1084
sg61
S'Compilerbouw2'
p1091
sbsg57
(iread_data
Room
p1092
(dp1093
g55
g175
sg61
g176
sbsg63
g140
sg65
g441
sg61
g1023
sbaaa(lp1094
(lp1095
(ischedule
Activity
p1096
(dp1097
g8
(lp1098
S'44940353'
p1099
ag502
ag362
ag27
ag242
ag210
ag54
ag801
aS'79858178'
p1100
aS'38329455'
p1101
ag33
ag195
ag506
aS'79366078'
p1102
ag901
ag70
ag307
ag45
ag332
ag551
ag148
aS'91139627'
p1103
ag462
aS'63408522'
p1104
ag772
ag900
ag820
aS'51186803'
p1105
aS'7492204'
p1106
ag106
aS'47605891'
p1107
aS'37498675'
p1108
ag259
ag661
ag48
aS'23391676'
p1109
ag309
ag1061
ag773
ag1014
ag96
ag398
ag388
ag572
aS'39659121'
p1110
aS'82688900'
p1111
ag569
aS'39919665'
p1112
ag40
ag377
ag10
ag375
ag282
ag206
ag188
ag535
ag755
ag618
ag774
ag677
ag542
ag847
ag545
aS'84110134'
p1113
ag632
ag663
ag822
ag403
ag311
aS'65003379'
p1114
ag393
ag253
ag366
ag674
ag283
ag384
ag164
aS'10872825'
p1115
ag591
ag630
ag154
ag410
aS'72547110'
p1116
ag631
asg55
I1000
sg56
Nsg57
(iread_data
Room
p1117
(dp1118
g55
g121
sg61
g122
sbsg63
g64
sg65
I0
sg61
S'Kansrekenen 2'
p1119
sba(ischedule
Activity
p1120
(dp1121
g8
g837
sg55
I1000
sg56
Nsg57
(iread_data
Room
p1122
(dp1123
g55
g138
sg61
g139
sbsg63
g64
sg65
I0
sg61
g656
sba(ischedule
Activity
p1124
(dp1125
g8
g223
sg55
I1000
sg56
Nsg57
(iread_data
Room
p1126
(dp1127
g55
g60
sg61
g62
sbsg63
g64
sg65
I0
sg61
g272
sba(ischedule
Activity
p1128
(dp1129
g8
(lp1130
g90
ag193
ag538
ag313
ag359
ag464
ag605
ag864
ag865
asg55
g512
sg56
(ischedule
Group
p1131
(dp1132
g8
g1130
sg61
S'Autonomous Agents 22'
p1133
sbsg57
(iread_data
Room
p1134
(dp1135
g55
g81
sg61
g82
sbsg63
g140
sg65
g441
sg61
g85
sba(ischedule
Activity
p1136
(dp1137
g8
g923
sg55
S'20'
p1138
sg56
g924
sg57
(iread_data
Room
p1139
(dp1140
g55
g175
sg61
g176
sbsg63
g140
sg65
g141
sg61
g793
sba(ischedule
Activity
p1141
(dp1142
g8
(lp1143
g280
ag186
ag501
ag640
ag214
ag168
ag983
aS'23257088'
p1144
aS'17496687'
p1145
ag544
aS'8557857'
p1146
aS'19958553'
p1147
ag21
asg55
S'15'
p1148
sg56
(ischedule
Group
p1149
(dp1150
g8
g1143
sg61
S'Informatie- en organisatieontwerp1'
p1151
sbsg57
(iread_data
Room
p1152
(dp1153
g55
g217
sg61
g218
sbsg63
g140
sg65
g141
sg61
g1034
sba(ischedule
Activity
p1154
(dp1155
g8
(lp1156
g11
ag748
ag823
ag678
ag1047
ag41
ag380
ag752
ag304
ag402
ag365
ag1027
ag372
ag1012
ag459
ag1050
ag1048
ag209
ag371
ag1049
ag211
asg55
g787
sg56
(ischedule
Group
p1157
(dp1158
g8
g1156
sg61
S'Moderne Databases3'
p1159
sbsg57
(iread_data
Room
p1160
(dp1161
g55
g346
sg61
g347
sbsg63
g83
sg65
g84
sg61
g793
sbaa(lp1162
(ischedule
Activity
p1163
(dp1164
g8
(lp1165
g98
ag568
ag47
ag739
ag242
aS'58083680'
p1166
ag18
ag211
ag295
ag355
ag161
ag406
ag378
aS'27123462'
p1167
ag1060
ag541
ag373
ag603
ag1010
ag807
ag71
ag149
aS'15187217'
p1168
ag240
ag72
ag774
ag409
ag365
ag25
ag420
ag189
ag776
ag554
aS'25077484'
p1169
ag503
ag538
ag754
ag249
ag647
ag104
aS'5526560'
p1170
ag236
ag45
ag762
ag37
ag1144
ag10
ag225
ag387
ag408
ag207
ag97
ag801
aS'59397895'
p1171
ag543
ag376
aS'4529208'
p1172
ag146
ag257
ag160
ag385
ag772
ag912
ag759
ag537
ag39
ag751
aS'13132925'
p1173
ag256
ag90
aS'54540997'
p1174
ag165
asg55
I1000
sg56
Nsg57
(iread_data
Room
p1175
(dp1176
g55
g121
sg61
g122
sbsg63
g64
sg65
I0
sg61
S'Databases 2'
p1177
sba(ischedule
Activity
p1178
(dp1179
g8
(lp1180
g16
ag28
ag53
ag26
ag29
ag23
ag24
ag44
ag15
ag38
ag50
ag34
ag19
ag31
ag43
ag48
ag35
ag27
ag13
ag36
ag46
ag14
asg55
g426
sg56
(ischedule
Group
p1181
(dp1182
g8
g1180
sg61
S'Bioinformatica2'
p1183
sbsg57
(iread_data
Room
p1184
(dp1185
g55
g175
sg61
g176
sbsg63
g140
sg65
g441
sg61
g66
sba(ischedule
Activity
p1186
(dp1187
g8
g1055
sg55
I1000
sg56
Nsg57
(iread_data
Room
p1188
(dp1189
g55
g217
sg61
g218
sbsg63
g64
sg65
I0
sg61
g1064
sba(ischedule
Activity
p1190
(dp1191
g8
(lp1192
g1147
ag1027
ag168
ag280
ag1144
ag186
ag21
ag572
ag1146
ag640
ag1145
ag405
ag983
ag501
ag185
ag195
ag214
ag232
ag208
ag774
ag544
asg55
I1000
sg56
Nsg57
(iread_data
Room
p1193
(dp1194
g55
g346
sg61
g347
sbsg63
g64
sg65
I0
sg61
g1034
sba(ischedule
Activity
p1195
(dp1196
g8
(lp1197
g181
ag279
ag229
ag266
ag238
ag152
ag128
ag226
ag250
ag268
ag819
ag535
ag611
ag496
ag30
ag407
ag806
ag369
ag551
ag22
ag750
aS'58074656'
p1198
ag464
ag909
ag70
ag804
ag416
ag209
ag164
ag1006
ag1113
asg55
g321
sg56
(ischedule
Group
p1199
(dp1200
g8
g1197
sg61
S'Software engineering2'
p1201
sbsg57
(iread_data
Room
p1202
(dp1203
g55
g60
sg61
g62
sbsg63
g83
sg65
g441
sg61
g327
sba(ischedule
Activity
p1204
(dp1205
g8
(lp1206
g812
ag227
ag49
aS'39905995'
p1207
ag844
ag299
ag800
ag410
ag237
asg55
g555
sg56
(ischedule
Group
p1208
(dp1209
g8
g1206
sg61
S'Programmeren in Java 26'
p1210
sbsg57
(iread_data
Room
p1211
(dp1212
g55
g81
sg61
g82
sbsg63
g83
sg65
S'6'
p1213
sg61
g561
sbaa(lp1214
(ischedule
Activity
p1215
(dp1216
g8
g1180
sg55
g918
sg56
g1181
sg57
(iread_data
Room
p1217
(dp1218
g55
g346
sg61
g347
sbsg63
g83
sg65
g441
sg61
g66
sba(ischedule
Activity
p1219
(dp1220
g8
(lp1221
g739
ag460
ag128
ag545
ag639
ag111
aS'85284256'
p1222
ag261
ag741
ag129
asg55
g576
sg56
(ischedule
Group
p1223
(dp1224
g8
g1221
sg61
S'Netwerken en systeembeveiliging3'
p1225
sbsg57
(iread_data
Room
p1226
(dp1227
g55
g81
sg61
g82
sbsg63
g83
sg65
g84
sg61
g582
sba(ischedule
Activity
p1228
(dp1229
g8
g1156
sg55
g1138
sg56
g1157
sg57
(iread_data
Room
p1230
(dp1231
g55
g175
sg61
g176
sbsg63
g140
sg65
g84
sg61
g793
sba(ischedule
Activity
p1232
(dp1233
g8
(lp1234
g909
ag535
ag74
ag246
ag738
ag483
ag809
aS'55480737'
p1235
ag838
ag250
ag890
aS'75680261'
p1236
ag1169
ag1061
ag105
ag979
ag361
ag337
asg55
g694
sg56
(ischedule
Group
p1237
(dp1238
g8
g1234
sg61
S'Project Genetic Algorithms3'
p1239
sbsg57
(iread_data
Room
p1240
(dp1241
g55
g60
sg61
g62
sbsg63
g83
sg65
g84
sg61
g700
sba(ischedule
Activity
p1242
(dp1243
g8
(lp1244
g17
ag257
ag268
ag358
ag376
aS'63939720'
p1245
aS'90103047'
p1246
ag1113
ag235
aS'40911986'
p1247
ag362
ag574
ag203
asg55
g472
sg56
(ischedule
Group
p1248
(dp1249
g8
g1244
sg61
S'Project Numerical Recipes2'
p1250
sbsg57
(iread_data
Room
p1251
(dp1252
g55
g138
sg61
g139
sbsg63
g83
sg65
g441
sg61
g478
sba(ischedule
Activity
p1253
(dp1254
g8
g771
sg55
g1138
sg56
g788
sg57
(iread_data
Room
p1255
(dp1256
g55
g217
sg61
g218
sbsg63
g140
sg65
g441
sg61
g793
sba(ischedule
Activity
p1257
(dp1258
g8
(lp1259
g630
ag332
ag638
ag354
ag1144
ag1106
asg55
g555
sg56
(ischedule
Group
p1260
(dp1261
g8
g1259
sg61
S'Programmeren in Java 24'
p1262
sbsg57
(iread_data
Room
p1263
(dp1264
g55
g121
sg61
g122
sbsg63
g83
sg65
g690
sg61
g561
sbaa(lp1265
(ischedule
Activity
p1266
(dp1267
g8
g293
sg55
S'40'
p1268
sg56
g322
sg57
(iread_data
Room
p1269
(dp1270
g55
g138
sg61
g139
sbsg63
g140
sg65
g141
sg61
g327
sba(ischedule
Activity
p1271
(dp1272
g8
g646
sg55
g970
sg56
g651
sg57
(iread_data
Room
p1273
(dp1274
g55
g346
sg61
g347
sbsg63
g83
sg65
g441
sg61
g656
sba(ischedule
Activity
p1275
(dp1276
g8
(lp1277
g735
ag739
ag197
ag25
ag387
ag331
ag460
ag33
ag148
ag738
ag354
asg55
S'10'
p1278
sg56
(ischedule
Group
p1279
(dp1280
g8
g1277
sg61
S'Advanced Heuristics2'
p1281
sbsg57
(iread_data
Room
p1282
(dp1283
g55
g81
sg61
g82
sbsg63
g83
sg65
g441
sg61
g744
sba(ischedule
Activity
p1284
(dp1285
g8
(lp1286
g48
ag52
ag96
ag90
ag108
ag92
ag93
ag116
ag106
ag114
ag101
ag113
ag89
ag111
asg55
S'20'
p1287
sg56
(ischedule
Group
p1288
(dp1289
g8
g1286
sg61
S'Heuristieken 21'
p1290
sbsg57
(iread_data
Room
p1291
(dp1292
g55
g121
sg61
g122
sbsg63
g140
sg65
g141
sg61
g123
sba(ischedule
Activity
p1293
(dp1294
g8
(lp1295
g241
ag72
ag255
ag249
ag231
ag189
ag224
ag230
ag259
asg55
g445
sg56
(ischedule
Group
p1296
(dp1297
g8
g1295
sg61
S'Collectieve Intelligentie2'
p1298
sbsg57
(iread_data
Room
p1299
(dp1300
g55
g60
sg61
g62
sbsg63
g83
sg65
g441
sg61
g272
sba(ischedule
Activity
p1301
(dp1302
g8
g1197
sg55
g1268
sg56
g1199
sg57
(iread_data
Room
p1303
(dp1304
g55
g217
sg61
g218
sbsg63
g140
sg65
g441
sg61
g327
sba(ischedule
Activity
p1305
(dp1306
g8
g1084
sg55
g1017
sg56
g1089
sg57
(iread_data
Room
p1307
(dp1308
g55
g175
sg61
g176
sbsg63
g83
sg65
g441
sg61
g1023
sbaa(lp1309
(ischedule
Activity
p1310
(dp1311
g8
g9
sg55
I1000
sg56
Nsg57
(iread_data
Room
p1312
(dp1313
g55
g138
sg61
g139
sbsg63
g64
sg65
I0
sg61
g66
sba(ischedule
Activity
p1314
(dp1315
g8
g1005
sg55
g1088
sg56
g1018
sg57
(iread_data
Room
p1316
(dp1317
g55
g60
sg61
g62
sbsg63
g140
sg65
g141
sg61
g1023
sba(ischedule
Activity
p1318
(dp1319
g8
(lp1320
g107
ag109
ag112
ag94
ag117
ag103
ag95
ag100
ag91
ag102
ag104
ag105
ag115
ag98
ag118
ag110
ag97
ag99
asg55
g1287
sg56
(ischedule
Group
p1321
(dp1322
g8
g1320
sg61
S'Heuristieken 22'
p1323
sbsg57
(iread_data
Room
p1324
(dp1325
g55
g346
sg61
g347
sbsg63
g140
sg65
g441
sg61
g123
sba(ischedule
Activity
p1326
(dp1327
g8
g722
sg55
g132
sg56
g723
sg57
(iread_data
Room
p1328
(dp1329
g55
g121
sg61
g122
sbsg63
g140
sg65
g441
sg61
g142
sba(ischedule
Activity
p1330
(dp1331
g8
g1192
sg55
I1000
sg56
Nsg57
(iread_data
Room
p1332
(dp1333
g55
g175
sg61
g176
sbsg63
g64
sg65
I0
sg61
g1034
sba(ischedule
Activity
p1334
(dp1335
g8
(lp1336
g249
ag748
ag782
ag257
ag823
ag313
ag534
ag470
ag905
ag468
ag800
ag804
asg55
g1068
sg56
(ischedule
Group
p1337
(dp1338
g8
g1336
sg61
S'Reflectie op de digitale cultuur3'
p1339
sbsg57
(iread_data
Room
p1340
(dp1341
g55
g81
sg61
g82
sbsg63
g140
sg65
g84
sg61
g915
sbaaa(lp1342
(lp1343
(ischedule
Activity
p1344
(dp1345
g8
(lp1346
g799
ag399
ag363
ag825
ag20
ag574
ag151
ag1008
ag198
ag503
ag504
ag96
ag27
ag235
ag149
ag398
ag227
ag1015
ag1014
ag1013
ag784
ag740
ag265
ag196
ag909
ag332
ag539
ag380
ag1010
ag569
ag588
ag549
ag826
ag1011
ag957
ag1006
ag225
ag1016
ag1086
ag71
ag553
ag1007
ag1012
ag147
ag159
ag214
ag23
ag673
ag303
ag364
ag459
ag958
ag1087
ag51
ag199
ag267
ag871
ag775
ag672
ag376
ag1009
ag635
ag268
ag70
ag13
ag1085
ag538
ag209
ag749
asg55
I1000
sg56
Nsg57
(iread_data
Room
p1347
(dp1348
g55
g121
sg61
g122
sbsg63
g64
sg65
I0
sg61
g1023
sba(ischedule
Activity
p1349
(dp1350
g8
g899
sg55
I1000
sg56
Nsg57
(iread_data
Room
p1351
(dp1352
g55
g60
sg61
g62
sbsg63
g64
sg65
I0
sg61
g915
sba(ischedule
Activity
p1353
(dp1354
g8
(lp1355
g610
ag611
ag618
ag40
ag402
ag632
ag635
ag629
ag354
ag45
ag637
ag108
ag181
ag160
ag266
ag89
ag633
ag628
ag638
asg55
S'25'
p1356
sg56
(ischedule
Group
p1357
(dp1358
g8
g1355
sg61
S'Heuristieken 11'
p1359
sbsg57
(iread_data
Room
p1360
(dp1361
g55
g175
sg61
g176
sbsg63
g140
sg65
g141
sg61
g643
sba(ischedule
Activity
p1362
(dp1363
g8
g495
sg55
I1000
sg56
Nsg57
(iread_data
Room
p1364
(dp1365
g55
g217
sg61
g218
sbsg63
g64
sg65
I0
sg61
g509
sba(ischedule
Activity
p1366
(dp1367
g8
g931
sg55
g453
sg56
g932
sg57
(iread_data
Room
p1368
(dp1369
g55
g138
sg61
g139
sbsg63
g140
sg65
g441
sg61
g177
sba(ischedule
Activity
p1370
(dp1371
g8
g517
sg55
g75
sg56
g521
sg57
(iread_data
Room
p1372
(dp1373
g55
g81
sg61
g82
sbsg63
g83
sg65
g141
sg61
g85
sba(ischedule
Activity
p1374
(dp1375
g8
g1026
sg55
g1148
sg56
g1029
sg57
(iread_data
Room
p1376
(dp1377
g55
g346
sg61
g347
sbsg63
g140
sg65
g441
sg61
g1034
sbaa(lp1378
(ischedule
Activity
p1379
(dp1380
g8
g1346
sg55
I1000
sg56
Nsg57
(iread_data
Room
p1381
(dp1382
g55
g121
sg61
g122
sbsg63
g64
sg65
I0
sg61
g1023
sba(ischedule
Activity
p1383
(dp1384
g8
g601
sg55
I1000
sg56
Nsg57
(iread_data
Room
p1385
(dp1386
g55
g60
sg61
g62
sbsg63
g64
sg65
I0
sg61
g622
sba(ischedule
Activity
p1387
(dp1388
g8
g425
sg55
g918
sg56
g427
sg57
(iread_data
Room
p1389
(dp1390
g55
g81
sg61
g82
sbsg63
g83
sg65
g84
sg61
g66
sba(ischedule
Activity
p1391
(dp1392
g8
(lp1393
g499
ag640
ag502
ag193
ag186
ag313
ag208
ag639
ag631
ag211
ag627
ag465
ag544
ag260
ag634
ag230
ag73
ag37
ag276
ag636
ag320
ag630
ag263
ag626
ag30
asg55
g1356
sg56
(ischedule
Group
p1394
(dp1395
g8
g1393
sg61
S'Heuristieken 12'
p1396
sbsg57
(iread_data
Room
p1397
(dp1398
g55
g217
sg61
g218
sbsg63
g140
sg65
g441
sg61
g643
sbaa(lp1399
(ischedule
Activity
p1400
(dp1401
g8
(lp1402
g611
ag181
ag268
ag279
ag54
ag13
ag319
ag229
ag107
ag464
ag256
ag313
ag294
ag407
ag250
ag200
ag315
ag303
ag806
ag308
ag318
ag209
ag226
ag298
ag307
ag266
ag496
ag15
ag74
ag238
ag50
ag30
ag750
ag43
ag535
ag304
ag1113
ag306
ag1006
ag1198
ag32
ag70
ag320
ag22
ag314
ag804
ag309
ag152
ag819
ag150
ag317
ag302
ag300
ag312
ag551
ag128
ag297
ag316
ag311
ag369
ag310
ag296
ag26
ag206
ag156
ag416
ag295
ag164
ag301
ag909
ag167
ag109
ag154
ag299
ag305
asg55
I1000
sg56
Nsg57
(iread_data
Room
p1403
(dp1404
g55
g121
sg61
g122
sbsg63
g64
sg65
I0
sg61
g327
sba(ischedule
Activity
p1405
(dp1406
g8
(lp1407
g912
ag157
ag34
ag240
ag359
ag571
ag261
ag865
ag739
ag640
ag197
ag1172
aS'13210212'
p1408
ag214
ag263
aS'24167153'
p1409
aS'57701414'
p1410
ag51
ag534
ag31
ag280
ag386
ag549
ag536
asg55
g485
sg56
(ischedule
Group
p1411
(dp1412
g8
g1407
sg61
S'Zoeken sturen en bewegen3'
p1413
sbsg57
(iread_data
Room
p1414
(dp1415
g55
g217
sg61
g218
sbsg63
g83
sg65
g84
sg61
g491
sba(ischedule
Activity
p1416
(dp1417
g8
(lp1418
g191
ag41
ag53
ag112
ag202
ag185
ag192
ag211
ag198
ag212
ag199
ag193
ag207
ag159
ag187
ag210
ag183
ag186
ag201
asg55
g435
sg56
(ischedule
Group
p1419
(dp1420
g8
g1418
sg61
S'Technology for games1'
p1421
sbsg57
(iread_data
Room
p1422
(dp1423
g55
g81
sg61
g82
sbsg63
g140
sg65
g141
sg61
g219
sba(ischedule
Activity
p1424
(dp1425
g8
g1295
sg55
g528
sg56
g1296
sg57
(iread_data
Room
p1426
(dp1427
g55
g346
sg61
g347
sbsg63
g140
sg65
g441
sg61
g272
sba(ischedule
Activity
p1428
(dp1429
g8
(lp1430
g182
ag776
ag101
ag20
ag887
ag265
ag755
ag782
ag363
ag420
ag374
ag872
ag757
ag1170
ag1087
ag114
ag661
asg55
g694
sg56
(ischedule
Group
p1431
(dp1432
g8
g1430
sg61
S'Project Genetic Algorithms1'
p1433
sbsg57
(iread_data
Room
p1434
(dp1435
g55
g175
sg61
g176
sbsg63
g83
sg65
g141
sg61
g700
sba(ischedule
Activity
p1436
(dp1437
g8
(lp1438
S'63096281'
p1439
ag663
ag982
ag100
ag604
ag399
ag1222
ag749
ag419
aS'12782624'
p1440
aS'54395877'
p1441
aS'88519892'
p1442
ag282
ag16
ag1109
ag243
aS'51791169'
p1443
ag115
ag842
ag406
ag97
asg55
g555
sg56
(ischedule
Group
p1444
(dp1445
g8
g1438
sg61
S'Programmeren in Java 21'
p1446
sbsg57
(iread_data
Room
p1447
(dp1448
g55
g138
sg61
g139
sbsg63
g83
sg65
g141
sg61
g561
sbaa(lp1449
(ischedule
Activity
p1450
(dp1451
g8
g1098
sg55
I1000
sg56
Nsg57
(iread_data
Room
p1452
(dp1453
g55
g121
sg61
g122
sbsg63
g64
sg65
I0
sg61
g1119
sba(ischedule
Activity
p1454
(dp1455
g8
g939
sg55
g528
sg56
g940
sg57
(iread_data
Room
p1456
(dp1457
g55
g346
sg61
g347
sbsg63
g140
sg65
g690
sg61
g272
sba(ischedule
Activity
p1458
(dp1459
g8
g947
sg55
g528
sg56
g948
sg57
(iread_data
Room
p1460
(dp1461
g55
g175
sg61
g176
sbsg63
g140
sg65
g84
sg61
g272
sba(ischedule
Activity
p1462
(dp1463
g8
g1130
sg55
g75
sg56
g1131
sg57
(iread_data
Room
p1464
(dp1465
g55
g138
sg61
g139
sbsg63
g83
sg65
g441
sg61
g85
sba(ischedule
Activity
p1466
(dp1467
g8
g9
sg55
I1000
sg56
Nsg57
(iread_data
Room
p1468
(dp1469
g55
g60
sg61
g62
sbsg63
g64
sg65
I0
sg61
g66
sba(ischedule
Activity
p1470
(dp1471
g8
g1143
sg55
g1028
sg56
g1149
sg57
(iread_data
Room
p1472
(dp1473
g55
g217
sg61
g218
sbsg63
g83
sg65
g141
sg61
g1034
sba(ischedule
Activity
p1474
(dp1475
g8
(lp1476
g519
ag241
ag128
ag850
ag316
ag103
ag288
ag957
ag750
ag166
asg55
g555
sg56
(ischedule
Group
p1477
(dp1478
g8
g1476
sg61
S'Programmeren in Java 22'
p1479
sbsg57
(iread_data
Room
p1480
(dp1481
g55
g81
sg61
g82
sbsg63
g83
sg65
g441
sg61
g561
sbaa(lp1482
(ischedule
Activity
p1483
(dp1484
g8
g180
sg55
I1000
sg56
Nsg57
(iread_data
Room
p1485
(dp1486
g55
g138
sg61
g139
sbsg63
g64
sg65
I0
sg61
g219
sba(ischedule
Activity
p1487
(dp1488
g8
(lp1489
g189
ag161
ag543
ag257
ag603
ag759
ag568
ag365
ag378
ag47
ag751
ag39
ag1174
ag406
ag537
ag10
ag165
ag242
ag1010
ag104
ag774
ag807
ag1169
ag295
ag1173
ag160
ag207
ag801
ag538
ag225
ag739
ag647
ag373
ag1171
ag772
ag236
ag754
ag90
ag408
ag420
ag149
ag387
ag1168
ag376
ag554
ag256
ag18
ag1172
ag409
ag1166
ag1144
ag762
ag146
ag1167
asg55
S'40'
p1490
sg56
(ischedule
Group
p1491
(dp1492
g8
g1489
sg61
S'Databases 21'
p1493
sbsg57
(iread_data
Room
p1494
(dp1495
g55
g121
sg61
g122
sbsg63
g140
sg65
g141
sg61
g1177
sba(ischedule
Activity
p1496
(dp1497
g8
(lp1498
g385
ag776
ag98
ag249
ag240
ag37
ag71
ag211
ag541
ag912
ag1060
ag355
ag72
ag97
ag1170
ag25
ag45
ag503
asg55
g1490
sg56
(ischedule
Group
p1499
(dp1500
g8
g1498
sg61
S'Databases 22'
p1501
sbsg57
(iread_data
Room
p1502
(dp1503
g55
g346
sg61
g347
sbsg63
g140
sg65
g441
sg61
g1177
sba(ischedule
Activity
p1504
(dp1505
g8
g705
sg55
g132
sg56
g707
sg57
(iread_data
Room
p1506
(dp1507
g55
g81
sg61
g82
sbsg63
g140
sg65
g84
sg61
g142
sba(ischedule
Activity
p1508
(dp1509
g8
(lp1510
g334
ag252
ag118
ag741
ag402
ag740
ag737
ag505
ag736
asg55
g1278
sg56
(ischedule
Group
p1511
(dp1512
g8
g1510
sg61
S'Advanced Heuristics1'
p1513
sbsg57
(iread_data
Room
p1514
(dp1515
g55
g60
sg61
g62
sbsg63
g83
sg65
g141
sg61
g744
sba(ischedule
Activity
p1516
(dp1517
g8
g969
sg55
g650
sg56
g971
sg57
(iread_data
Room
p1518
(dp1519
g55
g175
sg61
g176
sbsg63
g140
sg65
g141
sg61
g656
sba(ischedule
Activity
p1520
(dp1521
g8
g126
sg55
g706
sg56
g133
sg57
(iread_data
Room
p1522
(dp1523
g55
g217
sg61
g218
sbsg63
g83
sg65
g141
sg61
g142
sbaaa(lp1524
(lp1525
a(lp1526
a(lp1527
a(lp1528
a(lp1529
aasS'timeslot_dict'
p1530
(dp1531
I0
S'9:00-11:00'
p1532
sI1
S'11:00-13:00'
p1533
sI2
S'13:00-15:00'
p1534
sI3
S'15:00-17:00'
p1535
sI4
S'17:00-19:00'
p1536
ssS'day_dict'
p1537
(dp1538
I0
S'Monday'
p1539
sI1
S'Tuesday'
p1540
sI2
S'Wednesday'
p1541
sI3
S'Thursday'
p1542
sI4
S'Friday'
p1543
ssb.