(ischedule
Schedule
p0
(dp1
S'timetable'
p2
(lp3
(lp4
(lp5
(ischedule
Activity
p6
(dp7
S'participants'
p8
(lp9
S'40141996'
p10
aS'23257088'
p11
aS'34872117'
p12
aS'56872729'
p13
aS'29640619'
p14
aS'88752563'
p15
aS'15187217'
p16
aS'37701751'
p17
aS'43027916'
p18
aS'11996292'
p19
aS'96054456'
p20
aS'247918'
p21
aS'60352393'
p22
aS'26207525'
p23
aS'42196732'
p24
aS'91527663'
p25
aS'670011'
p26
aS'86988337'
p27
aS'5526560'
p28
aS'4529208'
p29
aS'72456780'
p30
aS'39459642'
p31
aS'59397895'
p32
aS'77960666'
p33
aS'17092717'
p34
aS'24277163'
p35
aS'5085194'
p36
aS'5517869'
p37
aS'86180471'
p38
aS'46989508'
p39
aS'75005528'
p40
aS'56191333'
p41
aS'3168419'
p42
aS'14816774'
p43
aS'57467488'
p44
aS'58083680'
p45
aS'58332004'
p46
aS'43902015'
p47
aS'51542218'
p48
aS'64947290'
p49
aS'49631542'
p50
aS'70072978'
p51
aS'76123484'
p52
aS'64296965'
p53
aS'52552718'
p54
aS'94686490'
p55
aS'13092455'
p56
aS'13132925'
p57
aS'73823548'
p58
aS'62736669'
p59
aS'17222374'
p60
aS'4921119'
p61
aS'26406342'
p62
aS'23658570'
p63
aS'47932106'
p64
aS'72796858'
p65
aS'25077484'
p66
aS'47477884'
p67
aS'82689818'
p68
aS'40434933'
p69
aS'27123462'
p70
aS'51566595'
p71
aS'58592894'
p72
aS'54540997'
p73
aS'12091019'
p74
aS'90474003'
p75
aS'78821918'
p76
aS'29526540'
p77
aS'83869542'
p78
aS'56121590'
p79
aS'77896638'
p80
aS'56749879'
p81
asS'capacity'
p82
I1000
sS'group'
p83
NsS'room'
p84
(iread_data
Room
p85
(dp86
g82
S'117'
p87
sS'name'
p88
S'C0.110'
p89
sbsS'ttype'
p90
S'lectures'
p91
sS'group_id'
p92
I0
sg88
S'Databases 2'
p93
sba(ischedule
Activity
p94
(dp95
g8
(lp96
S'76661016'
p97
aS'5368702'
p98
aS'72895450'
p99
aS'11915563'
p100
aS'10792879'
p101
aS'27187154'
p102
aS'84524083'
p103
aS'75599734'
p104
aS'43689934'
p105
aS'75759231'
p106
aS'95631564'
p107
aS'27950803'
p108
aS'13911001'
p109
aS'11741347'
p110
asg82
S'40'
p111
sg83
(ischedule
Group
p112
(dp113
g8
g96
sg88
S'Compilerbouw2'
p114
sbsg84
(iread_data
Room
p115
(dp116
g82
S'22'
p117
sg88
S'A1.06'
p118
sbsg90
S'tutorials'
p119
sg92
S'2'
p120
sg88
S'Compilerbouw'
p121
sba(ischedule
Activity
p122
(dp123
g8
(lp124
g24
aS'4568018'
p125
aS'64600457'
p126
aS'66120270'
p127
aS'59544049'
p128
aS'21029457'
p129
aS'70878567'
p130
aS'54026378'
p131
aS'53202517'
p132
aS'85335143'
p133
aS'22731474'
p134
aS'79617364'
p135
ag77
aS'58522654'
p136
ag20
aS'20883994'
p137
aS'6723948'
p138
aS'96453361'
p139
aS'11068043'
p140
aS'22826928'
p141
aS'56815156'
p142
aS'81200278'
p143
aS'43680781'
p144
aS'28359697'
p145
aS'15051051'
p146
ag43
aS'30050930'
p147
aS'6913074'
p148
aS'24613625'
p149
aS'77831658'
p150
aS'14591033'
p151
aS'73236988'
p152
aS'33877725'
p153
aS'7308727'
p154
aS'33930505'
p155
aS'74131924'
p156
ag21
aS'88176729'
p157
ag81
aS'89985072'
p158
aS'21964491'
p159
aS'5298748'
p160
aS'44868097'
p161
ag42
aS'30195935'
p162
asg82
I1000
sg83
Nsg84
(iread_data
Room
p163
(dp164
g82
S'48'
p165
sg88
S'B0.201'
p166
sbsg90
g91
sg92
I0
sg88
S'Bioinformatica'
p167
sba(ischedule
Activity
p168
(dp169
g8
(lp170
S'50143947'
p171
aS'17823206'
p172
aS'91196968'
p173
aS'45414528'
p174
aS'99453514'
p175
aS'87314964'
p176
asg82
S'10'
p177
sg83
(ischedule
Group
p178
(dp179
g8
g170
sg88
S'Data Mining1'
p180
sbsg84
(iread_data
Room
p181
(dp182
g82
S'20'
p183
sg88
S'A1.08'
p184
sbsg90
S'labs'
p185
sg92
S'1'
p186
sg88
S'Data Mining'
p187
sba(ischedule
Activity
p188
(dp189
g8
(lp190
S'75585647'
p191
asg82
S'40'
p192
sg83
(ischedule
Group
p193
(dp194
g8
g190
sg88
S'Calculus 23'
p195
sbsg84
(iread_data
Room
p196
(dp197
g82
S'56'
p198
sg88
S'A1.10'
p199
sbsg90
g119
sg92
S'3'
p200
sg88
S'Calculus 2'
p201
sba(ischedule
Activity
p202
(dp203
g8
(lp204
S'75521763'
p205
aS'41578612'
p206
aS'77636749'
p207
aS'32204977'
p208
aS'12077419'
p209
aS'68315599'
p210
aS'44901052'
p211
aS'37110913'
p212
aS'36785409'
p213
aS'14309255'
p214
aS'10149535'
p215
aS'14383795'
p216
aS'6249823'
p217
aS'31194811'
p218
aS'4697362'
p219
aS'7106649'
p220
aS'97371272'
p221
aS'9332762'
p222
aS'76487754'
p223
aS'21192048'
p224
aS'93041523'
p225
ag144
aS'12430748'
p226
aS'75664412'
p227
aS'22323043'
p228
asg82
S'20'
p229
sg83
(ischedule
Group
p230
(dp231
g8
g204
sg88
S'Technology for games1'
p232
sbsg84
(iread_data
Room
p233
(dp234
g82
S'41'
p235
sg88
S'A1.04'
p236
sbsg90
g119
sg92
g186
sg88
S'Technology for games'
p237
sba(ischedule
Activity
p238
(dp239
g8
(lp240
g12
aS'72577292'
p241
ag69
aS'14138904'
p242
aS'13798030'
p243
aS'45556081'
p244
aS'59289233'
p245
ag68
aS'83266686'
p246
aS'27925117'
p247
aS'43460038'
p248
aS'29718115'
p249
aS'89180944'
p250
aS'28618400'
p251
aS'20331158'
p252
ag215
aS'49683101'
p253
aS'58866007'
p254
aS'70015932'
p255
aS'23798155'
p256
aS'72683344'
p257
asg82
I1000
sg83
Nsg84
(iread_data
Room
p258
(dp259
g82
S'60'
p260
sg88
S'C1.112'
p261
sbsg90
g91
sg92
I0
sg88
S'Architectuur en computerorganisatie'
p262
sbaa(lp263
(ischedule
Activity
p264
(dp265
g8
(lp266
S'64228258'
p267
ag222
ag62
aS'34773179'
p268
ag52
aS'57595888'
p269
aS'54310617'
p270
ag56
aS'61443567'
p271
aS'25106480'
p272
aS'42171678'
p273
aS'1075391'
p274
aS'1665980'
p275
ag53
ag35
ag68
aS'15902055'
p276
ag18
ag171
ag154
aS'96104167'
p277
aS'37770881'
p278
aS'50184318'
p279
ag244
ag205
aS'29474737'
p280
aS'35330349'
p281
ag37
aS'46052388'
p282
aS'62701040'
p283
ag80
aS'17575088'
p284
aS'42778953'
p285
aS'53107172'
p286
aS'65960683'
p287
ag60
aS'86000192'
p288
aS'77240949'
p289
aS'87758823'
p290
aS'68601184'
p291
aS'23547619'
p292
ag24
ag14
ag241
aS'51741554'
p293
ag136
aS'86291592'
p294
aS'31416266'
p295
aS'22699561'
p296
aS'3233378'
p297
aS'33760909'
p298
ag159
aS'28357474'
p299
aS'4783858'
p300
aS'13534377'
p301
aS'1696500'
p302
aS'73980360'
p303
aS'97135019'
p304
aS'48601268'
p305
aS'60312776'
p306
aS'64393888'
p307
asg82
I1000
sg83
Nsg84
(iread_data
Room
p308
(dp309
g82
g87
sg88
g89
sbsg90
g91
sg92
I0
sg88
S'Collectieve Intelligentie'
p310
sba(ischedule
Activity
p311
(dp312
g8
(lp313
S'66034145'
p314
aS'21677389'
p315
aS'37399898'
p316
aS'81385263'
p317
ag292
aS'64768422'
p318
aS'44828429'
p319
aS'4546613'
p320
aS'69634191'
p321
aS'38179241'
p322
aS'3707829'
p323
ag98
aS'14847953'
p324
aS'19214659'
p325
aS'2550487'
p326
aS'81155296'
p327
aS'76924297'
p328
aS'28055464'
p329
ag97
aS'93566383'
p330
aS'20374340'
p331
ag17
aS'34765676'
p332
ag143
aS'65675896'
p333
asg82
I1000
sg83
Nsg84
(iread_data
Room
p334
(dp335
g82
g198
sg88
g199
sbsg90
g91
sg92
I0
sg88
S'Interactie-ontwerp'
p336
sba(ischedule
Activity
p337
(dp338
g8
(lp339
S'67625383'
p340
aS'2079771'
p341
aS'3685034'
p342
aS'5976174'
p343
aS'26857113'
p344
ag289
ag31
aS'38296757'
p345
ag146
aS'37744525'
p346
aS'85236626'
p347
ag256
ag253
aS'94467156'
p348
aS'61518436'
p349
aS'40791377'
p350
ag102
aS'56988998'
p351
aS'33252501'
p352
aS'46701583'
p353
aS'90067329'
p354
aS'63111000'
p355
asg82
I1000
sg83
Nsg84
(iread_data
Room
p356
(dp357
g82
g165
sg88
g166
sbsg90
g91
sg92
I0
sg88
S'Machine Learning'
p358
sba(ischedule
Activity
p359
(dp360
g8
(lp361
g130
aS'13116738'
p362
ag210
ag191
aS'23983476'
p363
aS'13658563'
p364
ag208
ag11
aS'36748818'
p365
ag249
ag46
ag207
aS'8557857'
p366
aS'92977271'
p367
aS'17496687'
p368
asg82
S'15'
p369
sg83
(ischedule
Group
p370
(dp371
g8
g361
sg88
S'Informatie- en organisatieontwerp1'
p372
sbsg84
(iread_data
Room
p373
(dp374
g82
g235
sg88
g236
sbsg90
g185
sg92
g186
sg88
S'Informatie- en organisatieontwerp'
p375
sba(ischedule
Activity
p376
(dp377
g8
(lp378
S'36508571'
p379
aS'70113753'
p380
aS'62872965'
p381
ag37
aS'19858730'
p382
ag211
aS'34806836'
p383
ag131
ag156
aS'61611295'
p384
aS'88627897'
p385
ag65
aS'16097870'
p386
aS'62356458'
p387
ag54
ag100
aS'68409833'
p388
ag71
aS'27298319'
p389
aS'22871048'
p390
ag212
ag31
asg82
I1000
sg83
Nsg84
(iread_data
Room
p391
(dp392
g82
g260
sg88
g261
sbsg90
g91
sg92
I0
sg88
S'Autonomous Agents 2'
p393
sbaa(lp394
(ischedule
Activity
p395
(dp396
g8
g266
sg82
I1000
sg83
Nsg84
(iread_data
Room
p397
(dp398
g82
g87
sg88
g89
sbsg90
g91
sg92
I0
sg88
g310
sba(ischedule
Activity
p399
(dp400
g8
(lp401
S'20618153'
p402
ag138
aS'4709948'
p403
ag141
aS'41153310'
p404
aS'54772132'
p405
aS'85284256'
p406
aS'83415514'
p407
aS'99272880'
p408
ag126
aS'27582862'
p409
aS'80135353'
p410
ag63
aS'97019450'
p411
aS'2416751'
p412
aS'22288615'
p413
ag172
aS'44391517'
p414
aS'51593625'
p415
aS'2317551'
p416
ag380
ag31
aS'73196865'
p417
ag49
ag367
ag61
ag363
ag174
aS'34900967'
p418
aS'58469172'
p419
aS'79167252'
p420
ag148
aS'37279234'
p421
aS'7492204'
p422
ag347
asg82
S'20'
p423
sg83
(ischedule
Group
p424
(dp425
g8
g401
sg88
S'Programmeren in Java 24'
p426
sbsg84
(iread_data
Room
p427
(dp428
g82
g235
sg88
g236
sbsg90
g185
sg92
S'4'
p429
sg88
S'Programmeren in Java 2'
p430
sba(ischedule
Activity
p431
(dp432
g8
(lp433
g214
ag225
ag219
aS'58565406'
p434
ag133
ag216
aS'69086548'
p435
aS'48308205'
p436
ag227
ag208
ag223
ag209
aS'89338938'
p437
ag144
ag212
ag207
aS'70336464'
p438
ag218
ag221
ag69
ag292
ag206
ag19
aS'92496780'
p439
ag213
ag210
ag224
aS'47982619'
p440
ag217
aS'77264363'
p441
ag226
ag220
ag222
ag62
ag215
ag228
ag205
ag211
asg82
I1000
sg83
Nsg84
(iread_data
Room
p442
(dp443
g82
g198
sg88
g199
sbsg90
g91
sg92
I0
sg88
g237
sba(ischedule
Activity
p444
(dp445
g8
(lp446
S'52715680'
p447
aS'78136904'
p448
aS'54569540'
p449
ag345
aS'13718298'
p450
aS'59753700'
p451
aS'49922855'
p452
ag27
aS'57086672'
p453
ag364
aS'36213792'
p454
ag103
asg82
S'20'
p455
sg83
(ischedule
Group
p456
(dp457
g8
g446
sg88
S'Reflectie op de digitale cultuur2'
p458
sbsg84
(iread_data
Room
p459
(dp460
g82
g260
sg88
g261
sbsg90
g119
sg92
g120
sg88
S'Reflectie op de digitale cultuur'
p461
sba(ischedule
Activity
p462
(dp463
g8
(lp464
S'40633534'
p465
ag353
ag97
aS'51673172'
p466
aS'74361881'
p467
asg82
S'15'
p468
sg83
(ischedule
Group
p469
(dp470
g8
g464
sg88
S'Project Genetic Algorithms1'
p471
sbsg84
(iread_data
Room
p472
(dp473
g82
g165
sg88
g166
sbsg90
g185
sg92
g186
sg88
S'Project Genetic Algorithms'
p474
sba(ischedule
Activity
p475
(dp476
g8
(lp477
S'27370083'
p478
aS'84449005'
p479
aS'51415617'
p480
aS'68286356'
p481
ag75
aS'51052738'
p482
ag22
ag349
aS'27805666'
p483
asg82
g455
sg83
(ischedule
Group
p484
(dp485
g8
g477
sg88
S'Reflectie op de digitale cultuur3'
p486
sbsg84
(iread_data
Room
p487
(dp488
g82
g183
sg88
g184
sbsg90
g119
sg92
g200
sg88
g461
sbaa(lp489
(ischedule
Activity
p490
(dp491
g8
(lp492
g24
ag276
ag287
ag302
ag60
ag275
ag288
ag154
ag297
ag293
ag277
ag283
ag298
ag279
ag300
ag222
asg82
S'20'
p493
sg83
(ischedule
Group
p494
(dp495
g8
g492
sg88
S'Collectieve Intelligentie1'
p496
sbsg84
(iread_data
Room
p497
(dp498
g82
g198
sg88
g199
sbsg90
g119
sg92
g186
sg88
g310
sba(ischedule
Activity
p499
(dp500
g8
g240
sg82
I1000
sg83
Nsg84
(iread_data
Room
p501
(dp502
g82
g117
sg88
g118
sbsg90
g91
sg92
I0
sg88
g262
sba(ischedule
Activity
p503
(dp504
g8
(lp505
g143
ag159
ag136
ag130
ag153
ag128
ag131
ag138
ag145
ag20
ag135
ag149
asg82
S'20'
p506
sg83
(ischedule
Group
p507
(dp508
g8
g505
sg88
S'Bioinformatica1'
p509
sbsg84
(iread_data
Room
p510
(dp511
g82
g165
sg88
g166
sbsg90
g119
sg92
g186
sg88
g167
sba(ischedule
Activity
p512
(dp513
g8
(lp514
g43
ag146
ag158
ag156
ag132
ag161
ag133
ag139
ag140
ag137
ag77
ag155
ag157
ag21
ag152
ag42
ag150
ag147
ag129
asg82
g506
sg83
(ischedule
Group
p515
(dp516
g8
g514
sg88
S'Bioinformatica2'
p517
sbsg84
(iread_data
Room
p518
(dp519
g82
g183
sg88
g184
sbsg90
g119
sg92
g120
sg88
g167
sba(ischedule
Activity
p520
(dp521
g8
(lp522
g289
ag267
ag294
ag272
ag285
ag303
ag205
ag284
ag280
ag292
ag305
ag274
ag52
ag291
ag304
ag301
ag80
ag37
ag290
ag271
ag62
ag270
ag306
asg82
g493
sg83
(ischedule
Group
p523
(dp524
g8
g522
sg88
S'Collectieve Intelligentie2'
p525
sbsg84
(iread_data
Room
p526
(dp527
g82
g235
sg88
g236
sbsg90
g119
sg92
g120
sg88
g310
sba(ischedule
Activity
p528
(dp529
g8
(lp530
S'96554914'
p531
aS'20239127'
p532
aS'82390428'
p533
ag364
ag141
ag33
ag483
ag27
ag342
ag212
aS'70193386'
p534
ag206
ag22
ag479
ag75
ag349
ag454
ag447
aS'60661905'
p535
ag316
ag345
ag160
ag450
ag148
aS'20095994'
p536
ag56
ag103
ag213
aS'33776961'
p537
ag144
ag482
aS'77392404'
p538
ag452
aS'92778619'
p539
ag108
ag451
aS'99975346'
p540
ag478
ag35
ag390
aS'87830198'
p541
aS'42406214'
p542
ag481
ag448
ag175
ag453
ag480
aS'32044893'
p543
ag403
ag449
aS'70844780'
p544
asg82
I1000
sg83
Nsg84
(iread_data
Room
p545
(dp546
g82
g260
sg88
g261
sbsg90
g91
sg92
I0
sg88
g461
sba(ischedule
Activity
p547
(dp548
g8
(lp549
g389
ag386
ag211
ag383
ag65
asg82
S'10'
p550
sg83
(ischedule
Group
p551
(dp552
g8
g549
sg88
S'Autonomous Agents 23'
p553
sbsg84
(iread_data
Room
p554
(dp555
g82
g87
sg88
g89
sbsg90
g119
sg92
g200
sg88
g393
sbaa(lp556
(ischedule
Activity
p557
(dp558
g8
(lp559
g447
ag346
aS'52311353'
p560
ag320
ag152
ag306
ag171
ag140
ag125
ag228
ag108
ag348
aS'83210352'
p561
aS'31247305'
p562
ag415
ag409
aS'44671041'
p563
ag272
ag158
aS'61060652'
p564
ag255
aS'3727435'
p565
aS'9287708'
p566
ag128
aS'42115591'
p567
aS'14671406'
p568
ag437
aS'14072826'
p569
aS'62105897'
p570
aS'58074656'
p571
ag434
ag450
ag404
ag305
asg82
S'40'
p572
sg83
(ischedule
Group
p573
(dp574
g8
g559
sg88
S'Software engineering1'
p575
sbsg84
(iread_data
Room
p576
(dp577
g82
g260
sg88
g261
sbsg90
g119
sg92
g186
sg88
S'Software engineering'
p578
sba(ischedule
Activity
p579
(dp580
g8
(lp581
g22
ag465
aS'39429093'
p582
ag544
ag137
aS'1886996'
p583
aS'27064249'
p584
aS'62613937'
p585
aS'92665222'
p586
aS'75997788'
p587
ag324
ag448
ag257
ag292
ag67
ag251
ag42
ag241
aS'72665524'
p588
asg82
S'10'
p589
sg83
(ischedule
Group
p590
(dp591
g8
g581
sg88
S'Advanced Heuristics1'
p592
sbsg84
(iread_data
Room
p593
(dp594
g82
g87
sg88
g89
sbsg90
g185
sg92
g186
sg88
S'Advanced Heuristics'
p595
sba(ischedule
Activity
p596
(dp597
g8
(lp598
S'36527838'
p599
aS'48198668'
p600
aS'13218321'
p601
ag146
ag246
aS'78443067'
p602
aS'77376714'
p603
aS'1181560'
p604
ag144
aS'27241113'
p605
aS'1766560'
p606
ag72
ag77
ag279
aS'58699305'
p607
aS'46570285'
p608
ag407
ag60
ag46
ag355
ag214
ag403
ag210
ag50
ag76
aS'51650744'
p609
aS'30658799'
p610
ag273
ag37
ag110
aS'59111489'
p611
aS'96082155'
p612
ag479
ag51
ag35
aS'47462856'
p613
ag126
aS'99283252'
p614
ag537
ag19
aS'27916487'
p615
aS'78243495'
p616
ag365
aS'66621166'
p617
aS'78544592'
p618
ag205
ag109
aS'3883025'
p619
ag587
ag133
aS'49219163'
p620
ag250
aS'41489515'
p621
aS'18144425'
p622
asg82
I1000
sg83
Nsg84
(iread_data
Room
p623
(dp624
g82
g198
sg88
g199
sbsg90
g91
sg92
I0
sg88
S'Moderne Databases'
p625
sba(ischedule
Activity
p626
(dp627
g8
(lp628
g209
ag159
ag44
aS'36903574'
p629
ag343
ag353
aS'19540225'
p630
ag332
ag25
ag275
aS'64554442'
p631
ag363
aS'88596522'
p632
ag319
ag49
aS'23652927'
p633
aS'67817269'
p634
aS'26260141'
p635
ag317
aS'21095566'
p636
aS'41585485'
p637
asg82
S'25'
p638
sg83
(ischedule
Group
p639
(dp640
g8
g628
sg88
S'Algoritmen en complexiteit2'
p641
sbsg84
(iread_data
Room
p642
(dp643
g82
g117
sg88
g118
sbsg90
g185
sg92
g120
sg88
S'Algoritmen en complexiteit'
p644
sba(ischedule
Activity
p645
(dp646
g8
g378
sg82
I1000
sg83
Nsg84
(iread_data
Room
p647
(dp648
g82
g165
sg88
g166
sbsg90
g91
sg92
I0
sg88
g393
sba(ischedule
Activity
p649
(dp650
g8
(lp651
S'86807027'
p652
asg82
g589
sg83
(ischedule
Group
p653
(dp654
g8
g651
sg88
S'Advanced Heuristics2'
p655
sbsg84
(iread_data
Room
p656
(dp657
g82
g183
sg88
g184
sbsg90
g185
sg92
g120
sg88
g595
sbaaa(lp658
(lp659
(ischedule
Activity
p660
(dp661
g8
(lp662
S'3474870'
p663
ag27
ag332
ag568
ag323
ag389
ag71
aS'66433883'
p664
ag209
ag171
ag139
ag634
ag637
ag630
ag99
ag635
aS'53585410'
p665
aS'8522855'
p666
ag353
ag636
aS'41527759'
p667
ag44
aS'51509565'
p668
ag276
ag343
ag603
ag448
ag47
ag275
ag632
aS'40343779'
p669
ag447
ag159
ag633
ag631
ag317
ag68
ag363
ag72
ag49
ag629
ag319
ag25
asg82
I1000
sg83
Nsg84
(iread_data
Room
p670
(dp671
g82
g260
sg88
g261
sbsg90
g91
sg92
I0
sg88
g644
sba(ischedule
Activity
p672
(dp673
g8
(lp674
S'73302736'
p675
ag588
aS'87900893'
p676
ag67
aS'65978354'
p677
aS'58253841'
p678
ag247
ag15
ag293
aS'70939718'
p679
aS'82412626'
p680
ag38
ag63
ag126
ag64
ag304
aS'56544130'
p681
ag101
aS'87602030'
p682
ag587
aS'58040377'
p683
ag43
ag151
aS'24875739'
p684
ag608
aS'63634350'
p685
ag267
ag386
ag584
ag13
ag652
ag322
aS'32705005'
p686
ag10
aS'72526473'
p687
aS'59220392'
p688
aS'33672995'
p689
ag288
ag215
aS'6939933'
p690
ag135
ag345
aS'61520025'
p691
aS'55530367'
p692
ag618
aS'75623387'
p693
ag420
ag607
aS'79888156'
p694
ag97
aS'62363761'
p695
aS'23565001'
p696
aS'3678531'
p697
ag298
ag161
aS'80188025'
p698
aS'93361408'
p699
ag102
ag129
aS'10609762'
p700
aS'11593163'
p701
aS'74182182'
p702
ag421
aS'14303208'
p703
aS'34173695'
p704
aS'55412918'
p705
ag419
aS'75446434'
p706
ag327
aS'31306819'
p707
aS'19717077'
p708
aS'53139134'
p709
aS'14179347'
p710
aS'48357272'
p711
asg82
g192
sg83
(ischedule
Group
p712
(dp713
g8
g674
sg88
S'Calculus 21'
p714
sbsg84
(iread_data
Room
p715
(dp716
g82
g87
sg88
g89
sbsg90
g119
sg92
g186
sg88
g201
sba(ischedule
Activity
p717
(dp718
g8
(lp719
g210
ag366
ag130
ag46
ag362
ag205
ag211
ag368
ag367
ag11
ag364
ag207
ag363
aS'11459236'
p720
ag249
ag191
ag208
aS'19958553'
p721
aS'18266644'
p722
ag365
ag283
asg82
I1000
sg83
Nsg84
(iread_data
Room
p723
(dp724
g82
g235
sg88
g236
sbsg90
g91
sg92
I0
sg88
g375
sba(ischedule
Activity
p725
(dp726
g8
(lp727
g614
ag616
ag602
ag250
ag214
ag603
ag621
ag407
ag601
ag619
ag609
ag622
ag246
ag355
ag606
ag60
ag620
ag604
ag615
asg82
S'20'
p728
sg83
(ischedule
Group
p729
(dp730
g8
g727
sg88
S'Moderne Databases2'
p731
sbsg84
(iread_data
Room
p732
(dp733
g82
g117
sg88
g118
sbsg90
g185
sg92
g120
sg88
g625
sba(ischedule
Activity
p734
(dp735
g8
(lp736
g69
ag62
ag19
ag133
ag439
ag292
ag436
ag434
ag441
ag440
ag438
ag435
ag437
asg82
g229
sg83
(ischedule
Group
p737
(dp738
g8
g736
sg88
S'Technology for games2'
p739
sbsg84
(iread_data
Room
p740
(dp741
g82
g183
sg88
g184
sbsg90
g119
sg92
g120
sg88
g237
sba(ischedule
Activity
p742
(dp743
g8
(lp744
g35
ag141
ag206
ag212
ag144
ag213
ag403
ag539
ag56
ag532
ag342
ag160
ag544
ag540
ag531
ag390
ag108
ag536
ag175
ag148
ag535
ag316
ag538
ag533
ag542
ag543
ag537
ag541
ag534
ag33
asg82
g455
sg83
(ischedule
Group
p745
(dp746
g8
g744
sg88
S'Reflectie op de digitale cultuur1'
p747
sbsg84
(iread_data
Room
p748
(dp749
g82
g198
sg88
g199
sbsg90
g119
sg92
g186
sg88
g461
sba(ischedule
Activity
p750
(dp751
g8
(lp752
g100
ag31
ag381
ag387
asg82
g550
sg83
(ischedule
Group
p753
(dp754
g8
g752
sg88
S'Autonomous Agents 21'
p755
sbsg84
(iread_data
Room
p756
(dp757
g82
g165
sg88
g166
sbsg90
g119
sg92
g186
sg88
g393
sbaa(lp758
(ischedule
Activity
p759
(dp760
g8
(lp761
g682
ag78
ag247
ag103
aS'15249775'
p762
ag71
aS'81022997'
p763
aS'5739011'
p764
ag143
ag220
ag343
aS'31897288'
p765
ag453
aS'35315956'
p766
ag18
ag685
ag347
ag683
ag26
ag616
aS'82968410'
p767
ag134
ag271
aS'72652638'
p768
aS'52304977'
p769
aS'58736785'
p770
ag386
ag540
ag298
ag583
aS'48678993'
p771
ag332
asg82
I1000
sg83
Nsg84
(iread_data
Room
p772
(dp773
g82
g165
sg88
g166
sbsg90
g91
sg92
I0
sg88
S'Heuristieken 2'
p774
sba(ischedule
Activity
p775
(dp776
g8
(lp777
g22
ag42
ag324
ag586
ag544
ag582
ag241
ag257
ag251
ag448
ag583
ag465
ag585
ag587
ag67
ag137
ag292
ag588
ag584
ag652
asg82
I1000
sg83
Nsg84
(iread_data
Room
p778
(dp779
g82
g183
sg88
g184
sbsg90
g91
sg92
I0
sg88
g595
sba(ischedule
Activity
p780
(dp781
g8
(lp782
g72
ag133
ag148
ag353
ag665
ag74
ag246
ag58
ag276
ag635
aS'45915482'
p783
aS'88855695'
p784
aS'6709529'
p785
ag389
aS'65408517'
p786
aS'9731271'
p787
aS'28957789'
p788
aS'5615125'
p789
ag407
ag55
aS'22168693'
p790
aS'78735049'
p791
ag300
ag138
ag20
ag320
ag570
aS'56348773'
p792
aS'23628642'
p793
aS'77306636'
p794
ag602
asg82
g192
sg83
(ischedule
Group
p795
(dp796
g8
g782
sg88
S'Calculus 22'
p797
sbsg84
(iread_data
Room
p798
(dp799
g82
g260
sg88
g261
sbsg90
g119
sg92
g120
sg88
g201
sba(ischedule
Activity
p800
(dp801
g8
(lp802
S'68360259'
p803
aS'97136582'
p804
ag176
ag228
ag171
ag172
ag346
ag560
aS'25330192'
p805
aS'66122625'
p806
ag156
aS'13996448'
p807
ag676
aS'98780382'
p808
ag212
ag130
ag159
ag143
ag173
ag175
ag763
aS'93023961'
p809
ag451
ag174
aS'19337738'
p810
ag362
ag71
asg82
I1000
sg83
Nsg84
(iread_data
Room
p811
(dp812
g82
g198
sg88
g199
sbsg90
g91
sg92
I0
sg88
g187
sba(ischedule
Activity
p813
(dp814
g8
(lp815
g268
ag278
ag388
ag272
aS'88737765'
p816
ag541
ag206
ag149
ag479
ag76
ag38
aS'69459473'
p817
ag348
aS'55480737'
p818
aS'14398123'
p819
aS'41644639'
p820
ag108
asg82
g468
sg83
(ischedule
Group
p821
(dp822
g8
g815
sg88
S'Project Genetic Algorithms3'
p823
sbsg84
(iread_data
Room
p824
(dp825
g82
g87
sg88
g89
sbsg90
g185
sg92
g200
sg88
g474
sba(ischedule
Activity
p826
(dp827
g8
(lp828
g152
ag436
ag702
ag306
ag437
ag99
aS'7957843'
p829
ag606
aS'84110134'
p830
aS'90103047'
p831
aS'63939720'
p832
ag326
ag387
aS'48503689'
p833
ag543
aS'63573738'
p834
asg82
S'15'
p835
sg83
(ischedule
Group
p836
(dp837
g8
g828
sg88
S'Project Numerical Recipes3'
p838
sbsg84
(iread_data
Room
p839
(dp840
g82
g235
sg88
g236
sbsg90
g185
sg92
g200
sg88
S'Project Numerical Recipes'
p841
sbaa(lp842
(ischedule
Activity
p843
(dp844
g8
g124
sg82
I1000
sg83
Nsg84
(iread_data
Room
p845
(dp846
g82
g198
sg88
g199
sbsg90
g91
sg92
I0
sg88
g167
sba(ischedule
Activity
p847
(dp848
g8
(lp849
g534
aS'82854435'
p850
ag560
ag53
ag48
ag567
ag675
ag418
ag386
aS'5595824'
p851
ag453
ag206
aS'14637758'
p852
aS'94955328'
p853
ag535
ag76
ag63
aS'83443653'
p854
ag696
ag390
ag771
ag722
ag450
aS'18477924'
p855
aS'73350019'
p856
ag213
ag61
ag30
ag587
ag411
aS'34243356'
p857
ag36
ag541
ag816
aS'97838175'
p858
aS'58480929'
p859
ag142
ag681
ag711
ag150
ag689
aS'78822885'
p860
aS'65318664'
p861
ag585
aS'72586808'
p862
ag698
ag256
ag133
ag18
asg82
I1000
sg83
Nsg84
(iread_data
Room
p863
(dp864
g82
g260
sg88
g261
sbsg90
g91
sg92
I0
sg88
S'Analysemethoden en -technieken'
p865
sba(ischedule
Activity
p866
(dp867
g8
g522
sg82
S'20'
p868
sg83
g523
sg84
(iread_data
Room
p869
(dp870
g82
g235
sg88
g236
sbsg90
g185
sg92
g120
sg88
g310
sba(ischedule
Activity
p871
(dp872
g8
g628
sg82
S'25'
p873
sg83
g639
sg84
(iread_data
Room
p874
(dp875
g82
g87
sg88
g89
sbsg90
g119
sg92
g120
sg88
g644
sba(ischedule
Activity
p876
(dp877
g8
(lp878
g448
ag72
ag389
ag447
ag71
ag171
ag603
ag568
ag139
ag667
ag665
ag47
ag666
ag68
ag99
ag669
ag276
ag663
ag664
ag323
ag27
ag668
asg82
g638
sg83
(ischedule
Group
p879
(dp880
g8
g878
sg88
S'Algoritmen en complexiteit1'
p881
sbsg84
(iread_data
Room
p882
(dp883
g82
g117
sg88
g118
sbsg90
g185
sg92
g186
sg88
g644
sba(ischedule
Activity
p884
(dp885
g8
(lp886
g56
ag342
ag807
aS'37419523'
p887
aS'32183908'
p888
aS'13284244'
p889
ag251
ag652
aS'40911986'
p890
asg82
g835
sg83
(ischedule
Group
p891
(dp892
g8
g886
sg88
S'Project Numerical Recipes1'
p893
sbsg84
(iread_data
Room
p894
(dp895
g82
g165
sg88
g166
sbsg90
g185
sg92
g186
sg88
g841
sbaa(lp896
(ischedule
Activity
p897
(dp898
g8
(lp899
g693
ag20
ag708
ag786
ag215
ag608
ag665
ag704
ag684
ag126
ag692
ag74
ag696
ag570
ag587
ag304
ag10
ag151
ag676
ag345
ag787
ag688
ag386
ag320
ag680
ag102
ag686
ag694
ag681
ag677
ag709
ag300
ag705
ag246
ag785
ag407
ag322
ag63
ag683
ag783
ag419
ag267
ag607
ag699
ag58
ag15
ag13
ag695
ag420
ag618
ag161
ag353
ag327
ag706
ag135
ag276
ag584
ag793
ag678
ag701
ag635
ag788
ag710
ag675
ag698
ag43
ag703
ag602
ag685
ag148
ag64
ag97
ag700
ag38
ag687
ag72
ag682
ag679
ag133
ag689
ag707
ag588
ag711
ag794
ag129
ag789
ag247
ag652
ag702
ag690
ag101
ag55
ag691
ag191
ag138
ag293
ag792
ag421
ag697
ag298
ag389
ag67
ag288
ag791
ag790
ag784
asg82
I1000
sg83
Nsg84
(iread_data
Room
p900
(dp901
g82
g87
sg88
g89
sbsg90
g91
sg92
I0
sg88
g201
sba(ischedule
Activity
p902
(dp903
g8
(lp904
g159
ag68
ag136
ag53
ag268
ag278
ag295
ag269
ag307
asg82
g868
sg83
(ischedule
Group
p905
(dp906
g8
g904
sg88
S'Collectieve Intelligentie4'
p907
sbsg84
(iread_data
Room
p908
(dp909
g82
g235
sg88
g236
sbsg90
g185
sg92
g429
sg88
g310
sba(ischedule
Activity
p910
(dp911
g8
(lp912
g212
ag71
ag390
ag37
ag54
ag379
ag156
ag385
ag382
ag131
ag380
ag384
ag388
asg82
g550
sg83
(ischedule
Group
p913
(dp914
g8
g912
sg88
S'Autonomous Agents 22'
p915
sbsg84
(iread_data
Room
p916
(dp917
g82
g165
sg88
g166
sbsg90
g119
sg92
g120
sg88
g393
sba(ischedule
Activity
p918
(dp919
g8
(lp920
g11
ag27
ag39
ag65
ag46
ag80
ag31
ag24
ag12
ag81
ag50
ag30
ag52
ag78
ag51
ag66
ag23
ag36
ag60
ag48
asg82
S'40'
p921
sg83
(ischedule
Group
p922
(dp923
g8
g920
sg88
S'Databases 22'
p924
sbsg84
(iread_data
Room
p925
(dp926
g82
g117
sg88
g118
sbsg90
g119
sg92
g120
sg88
g93
sba(ischedule
Activity
p927
(dp928
g8
(lp929
g403
ag22
aS'38499176'
p930
ag302
ag562
aS'64246605'
p931
aS'12170832'
p932
ag294
ag143
ag804
ag541
ag538
ag346
ag227
aS'82872148'
p933
ag669
ag544
ag154
ag619
ag829
ag666
ag857
ag41
aS'1048485'
p934
aS'53267490'
p935
asg82
S'20'
p936
sg83
(ischedule
Group
p937
(dp938
g8
g929
sg88
S'Netwerken en systeembeveiliging1'
p939
sbsg84
(iread_data
Room
p940
(dp941
g82
g198
sg88
g199
sbsg90
g185
sg92
g186
sg88
S'Netwerken en systeembeveiliging'
p942
sba(ischedule
Activity
p943
(dp944
g8
(lp945
g241
ag18
ag35
ag299
ag273
ag281
ag56
ag282
ag296
ag171
ag244
ag14
ag286
asg82
g493
sg83
(ischedule
Group
p946
(dp947
g8
g945
sg88
S'Collectieve Intelligentie3'
p948
sbsg84
(iread_data
Room
p949
(dp950
g82
g260
sg88
g261
sbsg90
g119
sg92
g200
sg88
g310
sba(ischedule
Activity
p951
(dp952
g8
(lp953
g109
aS'71839156'
p954
ag447
ag275
ag333
ag408
ag720
asg82
S'15'
p955
sg83
(ischedule
Group
p956
(dp957
g8
g953
sg88
S'Compilerbouw practicum1'
p958
sbsg84
(iread_data
Room
p959
(dp960
g82
g183
sg88
g184
sbsg90
g185
sg92
g186
sg88
S'Compilerbouw practicum'
p961
sbaa(lp962
(ischedule
Activity
p963
(dp964
g8
(lp965
g205
ag283
ag211
ag720
ag721
ag722
asg82
S'15'
p966
sg83
(ischedule
Group
p967
(dp968
g8
g965
sg88
S'Informatie- en organisatieontwerp2'
p969
sbsg84
(iread_data
Room
p970
(dp971
g82
g183
sg88
g184
sbsg90
g119
sg92
g120
sg88
g375
sba(ischedule
Activity
p972
(dp973
g8
g313
sg82
I1000
sg83
Nsg84
(iread_data
Room
p974
(dp975
g82
g165
sg88
g166
sbsg90
g91
sg92
I0
sg88
g336
sba(ischedule
Activity
p976
(dp977
g8
(lp978
g54
ag131
ag388
ag390
ag603
ag614
ag616
ag214
ag602
ag387
ag250
ag100
ag343
aS'55474917'
p979
ag711
aS'31633723'
p980
ag783
ag635
ag297
ag157
ag669
aS'31103066'
p981
ag104
ag675
ag786
ag636
ag830
ag861
ag299
ag153
ag667
ag248
ag934
ag933
ag14
ag531
aS'80709893'
p982
aS'37830626'
p983
ag300
ag161
ag107
asg82
S'40'
p984
sg83
(ischedule
Group
p985
(dp986
g8
g978
sg88
S'Software engineering2'
p987
sbsg84
(iread_data
Room
p988
(dp989
g82
g260
sg88
g261
sbsg90
g185
sg92
g120
sg88
g578
sba(ischedule
Activity
p990
(dp991
g8
(lp992
g52
ag271
ag267
ag789
aS'39230359'
p993
ag663
aS'16333449'
p994
ag99
ag241
ag132
aS'76903244'
p995
ag47
aS'49908313'
p996
aS'1137946'
p997
aS'10698627'
p998
ag69
aS'76648468'
p999
ag34
ag817
aS'28358060'
p1000
ag538
aS'53512831'
p1001
aS'94930277'
p1002
aS'24891081'
p1003
aS'41790793'
p1004
asg82
S'20'
p1005
sg83
(ischedule
Group
p1006
(dp1007
g8
g992
sg88
S'Webprogrammeren en databases1'
p1008
sbsg84
(iread_data
Room
p1009
(dp1010
g82
g235
sg88
g236
sbsg90
g119
sg92
g186
sg88
S'Webprogrammeren en databases'
p1011
sba(ischedule
Activity
p1012
(dp1013
g8
(lp1014
g80
ag138
ag15
ag12
ag65
ag136
ag39
ag31
ag149
ag152
ag306
ag287
ag285
ag436
ag27
ag278
ag209
ag210
ag294
ag253
ag606
ag784
ag586
ag889
aS'95007221'
p1015
aS'3407554'
p1016
aS'34110913'
p1017
ag410
ag857
ag317
ag218
ag246
ag610
aS'88636924'
p1018
ag851
ag833
ag132
aS'94687383'
p1019
ag341
aS'79033175'
p1020
ag416
aS'15911353'
p1021
aS'98105190'
p1022
ag227
ag829
aS'9067939'
p1023
aS'65852230'
p1024
aS'66701209'
p1025
ag405
aS'8464817'
p1026
ag350
ag414
ag214
ag420
aS'76802764'
p1027
asg82
S'40'
p1028
sg83
(ischedule
Group
p1029
(dp1030
g8
g1014
sg88
S'Compilerbouw1'
p1031
sbsg84
(iread_data
Room
p1032
(dp1033
g82
g87
sg88
g89
sbsg90
g185
sg92
g186
sg88
g121
sba(ischedule
Activity
p1034
(dp1035
g8
(lp1036
g144
ag141
ag160
ag24
ag148
ag151
ag154
ag81
ag125
ag162
ag142
ag126
ag127
ag134
asg82
S'20'
p1037
sg83
(ischedule
Group
p1038
(dp1039
g8
g1036
sg88
S'Bioinformatica3'
p1040
sbsg84
(iread_data
Room
p1041
(dp1042
g82
g117
sg88
g118
sbsg90
g185
sg92
g200
sg88
g167
sba(ischedule
Activity
p1043
(dp1044
g8
g802
sg82
I1000
sg83
Nsg84
(iread_data
Room
p1045
(dp1046
g82
g198
sg88
g199
sbsg90
g91
sg92
I0
sg88
g187
sbaaa(lp1047
(lp1048
(ischedule
Activity
p1049
(dp1050
g8
(lp1051
g103
ag722
ag787
ag685
aS'47605891'
p1052
ag819
ag411
ag667
ag788
ag437
aS'44940353'
p1053
ag419
ag151
ag136
aS'37498675'
p1054
aS'63955238'
p1055
ag637
ag137
ag252
ag830
ag613
ag448
ag53
ag81
ag134
ag702
ag207
ag666
ag993
aS'72547110'
p1056
ag256
aS'79858178'
p1057
ag221
aS'39919665'
p1058
ag100
ag50
ag980
ag853
ag102
ag101
ag789
ag349
ag608
aS'34262212'
p1059
aS'82688900'
p1060
ag98
aS'81218347'
p1061
ag328
ag435
ag629
ag46
ag173
ag930
ag979
ag686
ag172
ag684
ag791
ag348
ag422
ag351
aS'51186803'
p1062
aS'38329455'
p1063
ag568
aS'65003379'
p1064
ag128
ag449
ag567
ag532
aS'39659121'
p1065
aS'59075181'
p1066
aS'23391676'
p1067
ag270
ag408
ag342
ag20
ag289
ag857
aS'91139627'
p1068
aS'63408522'
p1069
aS'10872825'
p1070
aS'79366078'
p1071
ag48
ag562
asg82
I1000
sg83
Nsg84
(iread_data
Room
p1072
(dp1073
g82
g87
sg88
g89
sbsg90
g91
sg92
I0
sg88
S'Kansrekenen 2'
p1074
sba(ischedule
Activity
p1075
(dp1076
g8
(lp1077
g153
ag314
ag616
ag324
ag250
ag248
ag413
aS'67073567'
p1078
ag453
ag402
ag703
ag412
ag217
ag584
asg82
S'20'
p1079
sg83
(ischedule
Group
p1080
(dp1081
g8
g1077
sg88
S'Webprogrammeren en databases2'
p1082
sbsg84
(iread_data
Room
p1083
(dp1084
g82
g165
sg88
g166
sbsg90
g185
sg92
g120
sg88
g1011
sba(ischedule
Activity
p1085
(dp1086
g8
g1014
sg82
g111
sg83
g1029
sg84
(iread_data
Room
p1087
(dp1088
g82
g260
sg88
g261
sbsg90
g119
sg92
g186
sg88
g121
sba(ischedule
Activity
p1089
(dp1090
g8
g945
sg82
g868
sg83
g946
sg84
(iread_data
Room
p1091
(dp1092
g82
g117
sg88
g118
sbsg90
g185
sg92
g200
sg88
g310
sba(ischedule
Activity
p1093
(dp1094
g8
g912
sg82
S'10'
p1095
sg83
g913
sg84
(iread_data
Room
p1096
(dp1097
g82
g235
sg88
g236
sbsg90
g185
sg92
g120
sg88
g393
sba(ischedule
Activity
p1098
(dp1099
g8
(lp1100
g228
ag810
ag804
ag560
ag803
ag346
ag159
ag806
ag451
asg82
g177
sg83
(ischedule
Group
p1101
(dp1102
g8
g1100
sg88
S'Data Mining2'
p1103
sbsg84
(iread_data
Room
p1104
(dp1105
g82
g183
sg88
g184
sbsg90
g185
sg92
g120
sg88
g187
sba(ischedule
Activity
p1106
(dp1107
g8
(lp1108
S'4353500'
p1109
aS'123355'
p1110
aS'25557516'
p1111
ag304
ag155
ag211
ag251
ag68
asg82
g936
sg83
(ischedule
Group
p1112
(dp1113
g8
g1108
sg88
S'Netwerken en systeembeveiliging2'
p1114
sbsg84
(iread_data
Room
p1115
(dp1116
g82
g198
sg88
g199
sbsg90
g185
sg92
g120
sg88
g942
sbaa(lp1117
(ischedule
Activity
p1118
(dp1119
g8
(lp1120
g436
ag1022
ag610
ag31
ag246
ag101
ag1025
ag99
ag857
ag851
ag1026
ag341
ag80
ag97
ag152
ag106
ag253
ag210
ag1023
ag1019
ag1020
ag287
ag138
ag105
ag317
ag98
ag103
ag1016
ag294
ag285
ag414
ag214
ag278
ag829
ag586
ag350
ag1024
ag209
ag132
ag1015
ag15
ag107
ag12
ag218
ag410
ag102
ag65
ag416
ag136
ag420
ag27
ag306
ag833
ag1017
ag108
ag889
ag100
ag1027
ag110
ag104
ag39
ag784
ag109
ag1021
ag606
ag405
ag1018
ag149
ag227
asg82
I1000
sg83
Nsg84
(iread_data
Room
p1121
(dp1122
g82
g87
sg88
g89
sbsg90
g91
sg92
I0
sg88
g121
sba(ischedule
Activity
p1123
(dp1124
g8
(lp1125
g954
ag382
aS'53775014'
p1126
ag854
ag286
ag564
ag273
ag411
ag302
aS'14941752'
p1127
ag765
aS'20830477'
p1128
ag1002
ag1066
ag81
ag228
ag587
ag711
ag806
ag629
ag205
aS'79879876'
p1129
ag367
aS'97417002'
p1130
ag300
aS'76393508'
p1131
ag151
ag390
ag211
aS'45660925'
p1132
ag19
ag212
ag770
ag252
ag125
ag1061
ag1022
ag242
ag652
ag44
ag43
aS'87210640'
p1133
ag364
ag1109
asg82
I1000
sg83
Nsg84
(iread_data
Room
p1134
(dp1135
g82
g260
sg88
g261
sbsg90
g91
sg92
I0
sg88
S'Heuristieken 1'
p1136
sba(ischedule
Activity
p1137
(dp1138
g8
(lp1139
g324
ag99
ag1003
ag663
ag538
ag999
ag52
ag402
ag271
ag997
ag703
ag413
ag1004
ag817
ag34
ag1001
ag267
ag993
ag250
ag153
ag1002
ag453
ag412
ag248
ag314
ag1000
ag995
ag241
ag998
ag996
ag584
ag616
ag69
ag47
ag789
ag132
ag1078
ag994
ag217
asg82
I1000
sg83
Nsg84
(iread_data
Room
p1140
(dp1141
g82
g235
sg88
g236
sbsg90
g91
sg92
I0
sg88
g1011
sba(ischedule
Activity
p1142
(dp1143
g8
(lp1144
g930
ag140
ag158
aS'91250534'
p1145
asg82
g955
sg83
(ischedule
Group
p1146
(dp1147
g8
g1144
sg88
S'Compilerbouw practicum2'
p1148
sbsg84
(iread_data
Room
p1149
(dp1150
g82
g198
sg88
g199
sbsg90
g185
sg92
g120
sg88
g961
sba(ischedule
Activity
p1151
(dp1152
g8
(lp1153
g14
aS'23215240'
p1154
ag440
ag348
asg82
g423
sg83
(ischedule
Group
p1155
(dp1156
g8
g1153
sg88
S'Programmeren in Java 22'
p1157
sbsg84
(iread_data
Room
p1158
(dp1159
g82
g183
sg88
g184
sbsg90
g185
sg92
g120
sg88
g430
sba(ischedule
Activity
p1160
(dp1161
g8
(lp1162
g934
ag563
aS'88597745'
p1163
ag853
ag355
ag787
aS'73893840'
p1164
ag51
ag353
aS'39905995'
p1165
ag683
ag664
aS'51791169'
p1166
ag283
ag570
ag537
aS'63096281'
p1167
ag539
aS'64053722'
p1168
asg82
g423
sg83
(ischedule
Group
p1169
(dp1170
g8
g1162
sg88
S'Programmeren in Java 25'
p1171
sbsg84
(iread_data
Room
p1172
(dp1173
g82
g117
sg88
g118
sbsg90
g185
sg92
S'5'
p1174
sg88
g430
sbaa(lp1175
(ischedule
Activity
p1176
(dp1177
g8
(lp1178
S'88519892'
p1179
ag1026
ag291
ag102
ag979
ag27
ag807
aS'28943658'
p1180
ag46
aS'12782624'
p1181
ag294
ag326
ag173
ag535
aS'88263855'
p1182
ag1129
ag67
ag295
ag26
ag33
ag316
ag652
ag665
ag930
ag288
ag330
ag1067
ag697
ag762
aS'10702778'
p1183
ag1128
ag998
aS'90296821'
p1184
ag1019
ag276
ag833
aS'7386961'
p1185
ag271
ag81
asg82
g423
sg83
(ischedule
Group
p1186
(dp1187
g8
g1178
sg88
S'Programmeren in Java 23'
p1188
sbsg84
(iread_data
Room
p1189
(dp1190
g82
g235
sg88
g236
sbsg90
g185
sg92
g200
sg88
g430
sba(ischedule
Activity
p1191
(dp1192
g8
(lp1193
S'16912993'
p1194
ag629
ag44
ag30
ag805
ag763
ag162
ag1066
ag862
ag127
ag317
ag771
ag405
aS'19058315'
p1195
asg82
g936
sg83
(ischedule
Group
p1196
(dp1197
g8
g1193
sg88
S'Netwerken en systeembeveiliging3'
p1198
sbsg84
(iread_data
Room
p1199
(dp1200
g82
g183
sg88
g184
sbsg90
g185
sg92
g200
sg88
g942
sba(ischedule
Activity
p1201
(dp1202
g8
g559
sg82
g984
sg83
g573
sg84
(iread_data
Room
p1203
(dp1204
g82
g165
sg88
g166
sbsg90
g185
sg92
g186
sg88
g578
sba(ischedule
Activity
p1205
(dp1206
g8
(lp1207
g20
ag685
ag159
ag11
ag80
ag344
asg82
g423
sg83
(ischedule
Group
p1208
(dp1209
g8
g1207
sg88
S'Programmeren in Java 26'
p1210
sbsg84
(iread_data
Room
p1211
(dp1212
g82
g117
sg88
g118
sbsg90
g185
sg92
S'6'
p1213
sg88
g430
sba(ischedule
Activity
p1214
(dp1215
g8
(lp1216
g210
ag304
ag451
ag688
ag52
ag1023
ag292
ag362
ag75
ag273
ag783
ag364
ag22
ag29
ag145
ag788
ag142
ag539
ag385
ag1055
aS'82233873'
p1217
aS'57701414'
p1218
aS'37804282'
p1219
ag146
asg82
S'15'
p1220
sg83
(ischedule
Group
p1221
(dp1222
g8
g1216
sg88
S'Zoeken sturen en bewegen2'
p1223
sbsg84
(iread_data
Room
p1224
(dp1225
g82
g87
sg88
g89
sbsg90
g185
sg92
g120
sg88
S'Zoeken sturen en bewegen'
p1226
sba(ischedule
Activity
p1227
(dp1228
g8
g727
sg82
S'20'
p1229
sg83
g729
sg84
(iread_data
Room
p1230
(dp1231
g82
g198
sg88
g199
sbsg90
g119
sg92
g120
sg88
g625
sba(ischedule
Activity
p1232
(dp1233
g8
(lp1234
g293
ag23
ag787
ag315
ag722
ag679
ag79
aS'59887191'
p1235
ag588
ag819
aS'5590289'
p1236
ag406
ag59
ag695
aS'535689'
p1237
ag834
ag14
asg82
g936
sg83
(ischedule
Group
p1238
(dp1239
g8
g1234
sg88
S'Netwerken en systeembeveiliging4'
p1240
sbsg84
(iread_data
Room
p1241
(dp1242
g82
g260
sg88
g261
sbsg90
g185
sg92
g429
sg88
g942
sbaa(lp1243
(ischedule
Activity
p1244
(dp1245
g8
g1051
sg82
I1000
sg83
Nsg84
(iread_data
Room
p1246
(dp1247
g82
g87
sg88
g89
sbsg90
g91
sg92
I0
sg88
g1074
sba(ischedule
Activity
p1248
(dp1249
g8
(lp1250
g71
ag212
ag130
ag143
ag156
ag763
ag805
ag362
ag676
ag809
ag808
ag807
asg82
S'10'
p1251
sg83
(ischedule
Group
p1252
(dp1253
g8
g1250
sg88
S'Data Mining3'
p1254
sbsg84
(iread_data
Room
p1255
(dp1256
g82
g183
sg88
g184
sbsg90
g119
sg92
g200
sg88
g187
sba(ischedule
Activity
p1257
(dp1258
g8
g1139
sg82
I1000
sg83
Nsg84
(iread_data
Room
p1259
(dp1260
g82
g165
sg88
g166
sbsg90
g91
sg92
I0
sg88
g1011
sba(ischedule
Activity
p1261
(dp1262
g8
g752
sg82
g1095
sg83
g753
sg84
(iread_data
Room
p1263
(dp1264
g82
g117
sg88
g118
sbsg90
g185
sg92
g186
sg88
g393
sba(ischedule
Activity
p1265
(dp1266
g8
g492
sg82
g868
sg83
g494
sg84
(iread_data
Room
p1267
(dp1268
g82
g260
sg88
g261
sbsg90
g185
sg92
g186
sg88
g310
sbaa(lp1269
(ischedule
Activity
p1270
(dp1271
g8
(lp1272
g18
ag298
ag616
ag386
ag26
ag271
ag103
ag762
ag134
ag453
ag769
asg82
S'20'
p1273
sg83
(ischedule
Group
p1274
(dp1275
g8
g1272
sg88
S'Heuristieken 21'
p1276
sbsg84
(iread_data
Room
p1277
(dp1278
g82
g165
sg88
g166
sbsg90
g119
sg92
g186
sg88
g774
sba(ischedule
Activity
p1279
(dp1280
g8
(lp1281
g1066
ag367
ag364
ag228
ag151
ag44
ag286
ag1126
ag711
ag382
ag1061
ag252
ag1109
ag854
ag302
ag1022
ag211
ag1132
ag19
ag1128
ag125
ag242
ag273
ag629
ag806
ag652
ag765
ag205
ag390
ag954
ag1127
ag587
ag212
ag43
asg82
S'25'
p1282
sg83
(ischedule
Group
p1283
(dp1284
g8
g1281
sg88
S'Heuristieken 11'
p1285
sbsg84
(iread_data
Room
p1286
(dp1287
g82
g235
sg88
g236
sbsg90
g119
sg92
g186
sg88
g1136
sba(ischedule
Activity
p1288
(dp1289
g8
g878
sg82
g873
sg83
g879
sg84
(iread_data
Room
p1290
(dp1291
g82
g117
sg88
g118
sbsg90
g119
sg92
g186
sg88
g644
sba(ischedule
Activity
p1292
(dp1293
g8
g339
sg82
I1000
sg83
Nsg84
(iread_data
Room
p1294
(dp1295
g82
g198
sg88
g199
sbsg90
g91
sg92
I0
sg88
g358
sba(ischedule
Activity
p1296
(dp1297
g8
g433
sg82
I1000
sg83
Nsg84
(iread_data
Room
p1298
(dp1299
g82
g87
sg88
g89
sbsg90
g91
sg92
I0
sg88
g237
sba(ischedule
Activity
p1300
(dp1301
g8
g505
sg82
g1037
sg83
g507
sg84
(iread_data
Room
p1302
(dp1303
g82
g260
sg88
g261
sbsg90
g185
sg92
g186
sg88
g167
sba(ischedule
Activity
p1304
(dp1305
g8
(lp1306
g1131
ag1129
ag1002
ag770
ag564
ag1130
ag81
ag411
ag1133
ag300
asg82
g1282
sg83
(ischedule
Group
p1307
(dp1308
g8
g1306
sg88
S'Heuristieken 12'
p1309
sbsg84
(iread_data
Room
p1310
(dp1311
g82
g183
sg88
g184
sbsg90
g119
sg92
g120
sg88
g1136
sbaaa(lp1312
(lp1313
(ischedule
Activity
p1314
(dp1315
g8
(lp1316
g447
ag562
ag214
ag564
ag250
ag272
ag346
ag636
ag409
ag54
ag415
ag711
ag563
ag131
ag568
ag157
ag387
ag125
ag404
ag108
ag158
ag566
ag171
ag152
ag306
ag982
ag140
ag569
ag933
ag297
ag299
ag783
ag861
ag561
ag571
ag567
ag560
ag570
ag934
ag979
ag616
ag531
ag981
ag128
ag305
ag100
ag248
ag300
ag434
ag14
ag348
ag786
ag153
ag602
ag830
ag437
ag107
ag388
ag228
ag450
ag255
ag390
ag343
ag635
ag104
ag675
ag320
ag980
ag669
ag603
ag667
ag565
ag161
ag614
ag983
asg82
I1000
sg83
Nsg84
g900
sg90
g91
sg92
I0
sg88
g578
sba(ischedule
Activity
p1317
(dp1318
g8
(lp1319
g126
ag403
ag279
ag19
ag599
ag613
ag72
ag109
ag77
ag110
ag146
ag617
ag611
ag37
ag51
ag50
ag612
ag76
ag537
ag600
asg82
g728
sg83
(ischedule
Group
p1320
(dp1321
g8
g1319
sg88
S'Moderne Databases1'
p1322
sbsg84
(iread_data
Room
p1323
(dp1324
g82
g117
sg88
g118
sbsg90
g185
sg92
g186
sg88
g625
sba(ischedule
Activity
p1325
(dp1326
g8
g992
sg82
g1079
sg83
g1006
sg84
(iread_data
Room
p1327
(dp1328
g82
g235
sg88
g236
sbsg90
g185
sg92
g186
sg88
g1011
sba(ischedule
Activity
p1329
(dp1330
g8
g549
sg82
g1095
sg83
g551
sg84
(iread_data
Room
p1331
(dp1332
g82
g183
sg88
g184
sbsg90
g185
sg92
g200
sg88
g393
sba(ischedule
Activity
p1333
(dp1334
g8
g1250
sg82
g177
sg83
g1252
sg84
(iread_data
Room
p1335
(dp1336
g82
g198
sg88
g199
sbsg90
g185
sg92
g200
sg88
g187
sba(ischedule
Activity
p1337
(dp1338
g8
(lp1339
g607
ag35
ag618
ag210
ag587
ag273
ag144
ag479
ag610
ag205
ag608
ag133
ag365
ag46
ag605
asg82
g1229
sg83
(ischedule
Group
p1340
(dp1341
g8
g1339
sg88
S'Moderne Databases3'
p1342
sbsg84
(iread_data
Room
p1343
(dp1344
g82
g165
sg88
g166
sbsg90
g119
sg92
g200
sg88
g625
sba(ischedule
Activity
p1345
(dp1346
g8
g904
sg82
g493
sg83
g905
sg84
(iread_data
Room
p1347
(dp1348
g82
g260
sg88
g261
sbsg90
g119
sg92
g429
sg88
g310
sbaa(lp1349
(ischedule
Activity
p1350
(dp1351
g8
g530
sg82
I1000
sg83
Nsg84
(iread_data
Room
p1352
(dp1353
g82
g87
sg88
g89
sbsg90
g91
sg92
I0
sg88
g461
sba(ischedule
Activity
p1354
(dp1355
g8
g124
sg82
I1000
sg83
Nsg84
(iread_data
Room
p1356
(dp1357
g82
g165
sg88
g166
sbsg90
g91
sg92
I0
sg88
g167
sba(ischedule
Activity
p1358
(dp1359
g8
(lp1360
g1061
ag930
ag24
ag80
ag982
aS'90743504'
p1361
ag696
ag281
ag151
ag560
aS'80998260'
p1362
ag702
ag386
ag857
aS'26172512'
p1363
ag40
ag173
ag379
ag979
ag853
aS'96118484'
p1364
aS'66570705'
p1365
ag206
ag295
ag954
ag285
ag290
ag567
ag55
aS'54074680'
p1366
aS'32595335'
p1367
ag388
ag436
ag37
aS'34588570'
p1368
ag316
ag564
ag599
aS'21311067'
p1369
ag330
ag663
ag994
ag13
ag705
aS'16011419'
p1370
ag561
ag254
ag215
ag135
aS'79937969'
p1371
ag26
ag381
ag61
ag317
asg82
I1000
sg83
Nsg84
(iread_data
Room
p1372
(dp1373
g82
g260
sg88
g261
sbsg90
g91
sg92
I0
sg88
S'Lineaire Algebra'
p1374
sba(ischedule
Activity
p1375
(dp1376
g8
(lp1377
g710
ag614
aS'82066165'
p1378
ag682
ag1025
ag666
ag328
aS'25994016'
p1379
ag678
aS'75680261'
p1380
ag66
ag771
ag247
ag28
asg82
g468
sg83
(ischedule
Group
p1381
(dp1382
g8
g1377
sg88
S'Project Genetic Algorithms2'
p1383
sbsg84
(iread_data
Room
p1384
(dp1385
g82
g183
sg88
g184
sbsg90
g185
sg92
g120
sg88
g474
sba(ischedule
Activity
p1386
(dp1387
g8
g965
sg82
g369
sg83
g967
sg84
(iread_data
Room
p1388
(dp1389
g82
g117
sg88
g118
sbsg90
g185
sg92
g120
sg88
g375
sbaa(lp1390
(ischedule
Activity
p1391
(dp1392
g8
(lp1393
g62
ag703
ag1016
ag125
ag269
ag665
ag1154
aS'42297781'
p1394
ag588
aS'44151631'
p1395
aS'47260040'
p1396
ag1237
ag216
ag467
ag466
aS'1695839'
p1397
aS'64418623'
p1398
ag36
aS'51472074'
p1399
aS'5892092'
p1400
ag1379
ag242
aS'55103073'
p1401
ag820
ag685
ag632
ag208
ag1378
ag171
asg82
g955
sg83
(ischedule
Group
p1402
(dp1403
g8
g1393
sg88
S'Compilerbouw practicum3'
p1404
sbsg84
(iread_data
Room
p1405
(dp1406
g82
g260
sg88
g261
sbsg90
g185
sg92
g200
sg88
g961
sba(ischedule
Activity
p1407
(dp1408
g8
g978
sg82
g572
sg83
g985
sg84
(iread_data
Room
p1409
(dp1410
g82
g235
sg88
g236
sbsg90
g119
sg92
g120
sg88
g578
sba(ischedule
Activity
p1411
(dp1412
g8
g1319
sg82
g1229
sg83
g1320
sg84
(iread_data
Room
p1413
(dp1414
g82
g165
sg88
g166
sbsg90
g119
sg92
g186
sg88
g625
sba(ischedule
Activity
p1415
(dp1416
g8
g1339
sg82
g728
sg83
g1340
sg84
(iread_data
Room
p1417
(dp1418
g82
g198
sg88
g199
sbsg90
g185
sg92
g200
sg88
g625
sba(ischedule
Activity
p1419
(dp1420
g8
(lp1421
g58
ag140
ag134
ag542
ag294
ag150
ag154
ag15
aS'81116418'
p1422
ag763
aS'21070547'
p1423
ag40
aS'34691309'
p1424
ag226
ag325
ag690
ag285
ag1127
aS'19662602'
p1425
asg82
g835
sg83
(ischedule
Group
p1426
(dp1427
g8
g1421
sg88
S'Project Numerical Recipes2'
p1428
sbsg84
(iread_data
Room
p1429
(dp1430
g82
g87
sg88
g89
sbsg90
g185
sg92
g120
sg88
g841
sba(ischedule
Activity
p1431
(dp1432
g8
(lp1433
g307
ag629
ag346
ag222
ag1059
aS'54395877'
p1434
ag637
asg82
g423
sg83
(ischedule
Group
p1435
(dp1436
g8
g1433
sg88
S'Programmeren in Java 21'
p1437
sbsg84
(iread_data
Room
p1438
(dp1439
g82
g183
sg88
g184
sbsg90
g185
sg92
g186
sg88
g430
sba(ischedule
Activity
p1440
(dp1441
g8
(lp1442
g316
ag414
ag1235
aS'57419039'
p1443
ag138
aS'33946407'
p1444
ag132
ag290
ag323
ag1163
ag389
asg82
g1220
sg83
(ischedule
Group
p1445
(dp1446
g8
g1442
sg88
S'Zoeken sturen en bewegen1'
p1447
sbsg84
(iread_data
Room
p1448
(dp1449
g82
g117
sg88
g118
sbsg90
g185
sg92
g186
sg88
g1226
sbaa(lp1450
(ischedule
Activity
p1451
(dp1452
g8
g1120
sg82
I1000
sg83
Nsg84
(iread_data
Room
p1453
(dp1454
g82
g87
sg88
g89
sbsg90
g91
sg92
I0
sg88
g121
sba(ischedule
Activity
p1455
(dp1456
g8
(lp1457
g10
ag20
ag38
ag54
ag56
ag58
ag64
ag72
ag74
ag67
ag63
ag43
ag13
ag35
ag37
ag68
ag71
ag55
ag62
ag28
ag77
ag44
ag22
ag40
ag41
ag49
ag53
ag76
ag25
ag61
ag73
ag45
ag29
ag19
ag75
ag18
ag21
ag32
ag70
ag26
ag47
ag16
ag34
ag57
ag42
ag15
ag17
ag59
ag14
ag79
ag69
ag33
asg82
g921
sg83
(ischedule
Group
p1458
(dp1459
g8
g1457
sg88
S'Databases 21'
p1460
sbsg84
(iread_data
Room
p1461
(dp1462
g82
g198
sg88
g199
sbsg90
g119
sg92
g186
sg88
g93
sba(ischedule
Activity
p1463
(dp1464
g8
g170
sg82
g1251
sg83
g178
sg84
(iread_data
Room
p1465
(dp1466
g82
g235
sg88
g236
sbsg90
g119
sg92
g186
sg88
g187
sba(ischedule
Activity
p1467
(dp1468
g8
g719
sg82
I1000
sg83
Nsg84
(iread_data
Room
p1469
(dp1470
g82
g260
sg88
g261
sbsg90
g91
sg92
I0
sg88
g375
sba(ischedule
Activity
p1471
(dp1472
g8
(lp1473
S'24167153'
p1474
ag599
ag139
ag678
ag858
ag820
aS'13210212'
p1475
asg82
g1220
sg83
(ischedule
Group
p1476
(dp1477
g8
g1473
sg88
S'Zoeken sturen en bewegen3'
p1478
sbsg84
(iread_data
Room
p1479
(dp1480
g82
g183
sg88
g184
sbsg90
g185
sg92
g200
sg88
g1226
sba(ischedule
Activity
p1481
(dp1482
g8
g1036
sg82
g506
sg83
g1038
sg84
(iread_data
Room
p1483
(dp1484
g82
g165
sg88
g166
sbsg90
g119
sg92
g200
sg88
g167
sba(ischedule
Activity
p1485
(dp1486
g8
g1100
sg82
g1251
sg83
g1101
sg84
(iread_data
Room
p1487
(dp1488
g82
g117
sg88
g118
sbsg90
g119
sg92
g120
sg88
g187
sbaa(lp1489
(ischedule
Activity
p1490
(dp1491
g8
(lp1492
g220
ag143
ag71
ag770
ag765
ag347
ag343
ag332
ag683
ag247
ag766
ag685
ag764
ag768
ag583
ag763
ag682
ag78
ag540
ag767
ag771
asg82
g1273
sg83
(ischedule
Group
p1493
(dp1494
g8
g1492
sg88
S'Heuristieken 22'
p1495
sbsg84
(iread_data
Room
p1496
(dp1497
g82
g117
sg88
g118
sbsg90
g119
sg92
g120
sg88
g774
sba(ischedule
Activity
p1498
(dp1499
g8
g266
sg82
I1000
sg83
Nsg84
g900
sg90
g91
sg92
I0
sg88
g310
sba(ischedule
Activity
p1500
(dp1501
g8
g1360
sg82
I1000
sg83
Nsg84
(iread_data
Room
p1502
(dp1503
g82
g198
sg88
g199
sbsg90
g91
sg92
I0
sg88
g1374
sba(ischedule
Activity
p1504
(dp1505
g8
g514
sg82
g1037
sg83
g515
sg84
(iread_data
Room
p1506
(dp1507
g82
g260
sg88
g261
sbsg90
g185
sg92
g120
sg88
g167
sba(ischedule
Activity
p1508
(dp1509
g8
g96
sg82
g1028
sg83
g112
sg84
(iread_data
Room
p1510
(dp1511
g82
g235
sg88
g236
sbsg90
g185
sg92
g120
sg88
g121
sba(ischedule
Activity
p1512
(dp1513
g8
g1077
sg82
g1005
sg83
g1080
sg84
(iread_data
Room
p1514
(dp1515
g82
g165
sg88
g166
sbsg90
g119
sg92
g120
sg88
g1011
sba(ischedule
Activity
p1516
(dp1517
g8
g361
sg82
g966
sg83
g370
sg84
(iread_data
Room
p1518
(dp1519
g82
g183
sg88
g184
sbsg90
g119
sg92
g186
sg88
g375
sbaaa(lp1520
(lp1521
a(lp1522
a(lp1523
a(lp1524
a(lp1525
aasS'timeslot_dict'
p1526
(dp1527
I0
S'9:00-11:00'
p1528
sI1
S'11:00-13:00'
p1529
sI2
S'13:00-15:00'
p1530
sI3
S'15:00-17:00'
p1531
sI4
S'17:00-19:00'
p1532
ssS'day_dict'
p1533
(dp1534
I0
S'Monday'
p1535
sI1
S'Tuesday'
p1536
sI2
S'Wednesday'
p1537
sI3
S'Thursday'
p1538
sI4
S'Friday'
p1539
ssb.