(ischedule
Schedule
p0
(dp1
S'timetable'
p2
(lp3
(lp4
(lp5
(ischedule
Activity
p6
(dp7
S'participants'
p8
(lp9
S'92665222'
p10
aS'39459642'
p11
aS'27187154'
p12
aS'34243356'
p13
aS'42778953'
p14
aS'68315599'
p15
aS'48308205'
p16
aS'81385263'
p17
aS'77896638'
p18
aS'88855695'
p19
aS'2079771'
p20
aS'72895450'
p21
aS'40791377'
p22
aS'53202517'
p23
aS'49683101'
p24
aS'72796858'
p25
aS'10792879'
p26
aS'24613625'
p27
aS'5368702'
p28
aS'1766560'
p29
aS'48503689'
p30
aS'2317551'
p31
aS'43689934'
p32
aS'3407554'
p33
aS'88636924'
p34
aS'6723948'
p35
aS'13911001'
p36
aS'13284244'
p37
aS'34872117'
p38
aS'8464817'
p39
aS'88752563'
p40
aS'34110913'
p41
aS'46989508'
p42
aS'79033175'
p43
aS'65852230'
p44
aS'66701209'
p45
aS'30658799'
p46
aS'5595824'
p47
aS'58522654'
p48
aS'12077419'
p49
aS'75759231'
p50
asS'capacity'
p51
S'40'
p52
sS'group'
p53
(ischedule
Group
p54
(dp55
g8
g9
sS'name'
p56
S'Compilerbouw2'
p57
sbsS'room'
p58
(iread_data
Room
p59
(dp60
g51
S'117'
p61
sg56
S'C0.110'
p62
sbsS'ttype'
p63
S'labs'
p64
sS'group_id'
p65
S'2'
p66
sg56
S'Compilerbouw'
p67
sba(ischedule
Activity
p68
(dp69
g8
(lp70
S'58332004'
p71
aS'49631542'
p72
aS'27241113'
p73
asg51
S'20'
p74
sg53
(ischedule
Group
p75
(dp76
g8
g70
sg56
S'Moderne Databases2'
p77
sbsg58
(iread_data
Room
p78
(dp79
g51
S'22'
p80
sg56
S'A1.06'
p81
sbsg63
g64
sg65
g66
sg56
S'Moderne Databases'
p82
sba(ischedule
Activity
p83
(dp84
g8
(lp85
S'43902015'
p86
aS'14671406'
p87
aS'78136904'
p88
aS'41527759'
p89
aS'41585485'
p90
aS'8522855'
p91
aS'36903574'
p92
aS'82689818'
p93
aS'66433883'
p94
aS'15902055'
p95
aS'19540225'
p96
aS'26260141'
p97
aS'44828429'
p98
aS'23983476'
p99
aS'64947290'
p100
aS'96453361'
p101
aS'27298319'
p102
aS'57467488'
p103
aS'46701583'
p104
asg51
S'25'
p105
sg53
(ischedule
Group
p106
(dp107
g8
g85
sg56
S'Algoritmen en complexiteit2'
p108
sbsg58
(iread_data
Room
p109
(dp110
g51
S'20'
p111
sg56
S'A1.08'
p112
sbsg63
S'tutorials'
p113
sg65
g66
sg56
S'Algoritmen en complexiteit'
p114
sba(ischedule
Activity
p115
(dp116
g8
(lp117
S'37110913'
p118
aS'13658563'
p119
aS'22871048'
p120
aS'41578612'
p121
aS'27950803'
p122
aS'20095994'
p123
aS'51052738'
p124
aS'22826928'
p125
aS'70844780'
p126
aS'86988337'
p127
aS'77392404'
p128
aS'54569540'
p129
aS'5298748'
p130
asg51
S'20'
p131
sg53
(ischedule
Group
p132
(dp133
g8
g117
sg56
S'Reflectie op de digitale cultuur2'
p134
sbsg58
(iread_data
Room
p135
(dp136
g51
S'41'
p137
sg56
S'A1.04'
p138
sbsg63
g113
sg65
g66
sg56
S'Reflectie op de digitale cultuur'
p139
sba(ischedule
Activity
p140
(dp141
g8
(lp142
S'75997788'
p143
aS'17222374'
p144
aS'78821918'
p145
aS'85335143'
p146
aS'5517869'
p147
aS'75521763'
p148
aS'42171678'
p149
aS'50184318'
p150
aS'24277163'
p151
aS'47462856'
p152
aS'78243495'
p153
aS'99283252'
p154
aS'78544592'
p155
aS'43680781'
p156
aS'70072978'
p157
aS'78443067'
p158
aS'51650744'
p159
aS'11996292'
p160
aS'46570285'
p161
aS'13218321'
p162
aS'33776961'
p163
aS'59111489'
p164
aS'41489515'
p165
aS'63111000'
p166
aS'49219163'
p167
aS'29526540'
p168
aS'15051051'
p169
aS'89180944'
p170
aS'36748818'
p171
aS'18144425'
p172
aS'27916487'
p173
aS'1181560'
p174
aS'96082155'
p175
asg51
S'20'
p176
sg53
(ischedule
Group
p177
(dp178
g8
g142
sg56
S'Moderne Databases3'
p179
sbsg58
(iread_data
Room
p180
(dp181
g51
S'56'
p182
sg56
S'A1.10'
p183
sbsg63
g113
sg65
S'3'
p184
sg56
g82
sba(ischedule
Activity
p185
(dp186
g8
(lp187
S'42196732'
p188
aS'21964491'
p189
aS'76123484'
p190
aS'86000192'
p191
aS'1696500'
p192
aS'23547619'
p193
aS'13092455'
p194
aS'97135019'
p195
aS'61443567'
p196
aS'54310617'
p197
aS'64228258'
p198
aS'9332762'
p199
aS'7308727'
p200
aS'25106480'
p201
aS'26406342'
p202
aS'46052388'
p203
aS'35330349'
p204
asg51
S'20'
p205
sg53
(ischedule
Group
p206
(dp207
g8
g187
sg56
S'Collectieve Intelligentie2'
p208
sbsg58
(iread_data
Room
p209
(dp210
g51
S'48'
p211
sg56
S'B0.201'
p212
sbsg63
g64
sg65
g66
sg56
S'Collectieve Intelligentie'
p213
sba(ischedule
Activity
p214
(dp215
g8
(lp216
S'81200278'
p217
aS'22731474'
p218
aS'81022997'
p219
aS'58040377'
p220
aS'51566595'
p221
aS'84524083'
p222
aS'63634350'
p223
aS'31897288'
p224
aS'16097870'
p225
aS'670011'
p226
aS'52304977'
p227
aS'15249775'
p228
aS'83869542'
p229
aS'99975346'
p230
aS'72652638'
p231
aS'7106649'
p232
aS'87602030'
p233
aS'5739011'
p234
aS'48678993'
p235
aS'5976174'
p236
aS'58736785'
p237
aS'35315956'
p238
aS'33760909'
p239
asg51
S'20'
p240
sg53
(ischedule
Group
p241
(dp242
g8
g216
sg56
S'Heuristieken 21'
p243
sbsg58
(iread_data
Room
p244
(dp245
g51
S'60'
p246
sg56
S'C1.112'
p247
sbsg63
g113
sg65
S'1'
p248
sg56
S'Heuristieken 2'
p249
sbaa(lp250
(ischedule
Activity
p251
(dp252
g8
(lp253
S'44901052'
p254
ag148
aS'10149535'
p255
aS'4697362'
p256
ag232
aS'6249823'
p257
aS'77264363'
p258
ag121
aS'92496780'
p259
ag160
aS'97371272'
p260
aS'40434933'
p261
aS'76487754'
p262
ag199
ag15
ag202
aS'21192048'
p263
aS'70336464'
p264
ag118
aS'14383795'
p265
aS'32204977'
p266
aS'22323043'
p267
aS'69086548'
p268
ag156
ag193
aS'89338938'
p269
aS'75664412'
p270
aS'14309255'
p271
ag49
aS'12430748'
p272
ag16
aS'31194811'
p273
aS'58565406'
p274
aS'47982619'
p275
aS'36785409'
p276
ag146
aS'77636749'
p277
aS'93041523'
p278
asg51
I1000
sg53
Nsg58
(iread_data
Room
p279
(dp280
g51
g137
sg56
g138
sbsg63
S'lectures'
p281
sg65
I0
sg56
S'Technology for games'
p282
sba(ischedule
Activity
p283
(dp284
g8
(lp285
S'37744525'
p286
ag189
aS'23257088'
p287
aS'54772132'
p288
aS'53585410'
p289
aS'62701040'
p290
aS'88597745'
p291
aS'45414528'
p292
ag125
ag95
ag31
aS'93566383'
p293
ag163
aS'79167252'
p294
ag30
aS'44391517'
p295
aS'7386961'
p296
aS'97019450'
p297
aS'10702778'
p298
aS'20830477'
p299
aS'68601184'
p300
aS'27582862'
p301
ag127
asg51
S'20'
p302
sg53
(ischedule
Group
p303
(dp304
g8
g285
sg56
S'Programmeren in Java 21'
p305
sbsg58
(iread_data
Room
p306
(dp307
g51
g211
sg56
g212
sbsg63
g64
sg65
g248
sg56
S'Programmeren in Java 2'
p308
sba(ischedule
Activity
p309
(dp310
g8
(lp311
S'4546613'
p312
aS'73236988'
p313
aS'13718298'
p314
aS'45915482'
p315
aS'44868097'
p316
aS'96554914'
p317
ag120
aS'52715680'
p318
aS'48357272'
p319
aS'73302736'
p320
aS'62105897'
p321
aS'65408517'
p322
ag97
ag122
aS'4783858'
p323
ag158
aS'60312776'
p324
aS'50143947'
p325
aS'84110134'
p326
aS'52552718'
p327
aS'14072826'
p328
aS'54026378'
p329
aS'37830626'
p330
aS'11068043'
p331
aS'51593625'
p332
aS'9287708'
p333
aS'31247305'
p334
aS'3727435'
p335
aS'58074656'
p336
aS'31633723'
p337
aS'83210352'
p338
ag89
ag236
aS'89985072'
p339
aS'40343779'
p340
aS'75599734'
p341
aS'44671041'
p342
aS'59544049'
p343
ag87
aS'28357474'
p344
ag154
aS'4568018'
p345
aS'88176729'
p346
aS'61060652'
p347
ag153
aS'77376714'
p348
aS'62356458'
p349
asg51
S'40'
p350
sg53
(ischedule
Group
p351
(dp352
g8
g311
sg56
S'Software engineering1'
p353
sbsg58
(iread_data
Room
p354
(dp355
g51
g182
sg56
g183
sbsg63
g64
sg65
g248
sg56
S'Software engineering'
p356
sba(ischedule
Activity
p357
(dp358
g8
(lp359
S'43460038'
p360
aS'72577292'
p361
aS'33877725'
p362
ag170
ag21
aS'16333449'
p363
aS'94930277'
p364
aS'3474870'
p365
ag23
aS'2416751'
p366
aS'22288615'
p367
aS'57086672'
p368
ag128
aS'5615125'
p369
aS'76648468'
p370
aS'27064249'
p371
aS'1137946'
p372
aS'14847953'
p373
aS'24891081'
p374
aS'76903244'
p375
aS'67073567'
p376
aS'39230359'
p377
aS'28358060'
p378
aS'66034145'
p379
aS'41790793'
p380
aS'14303208'
p381
asg51
S'20'
p382
sg53
(ischedule
Group
p383
(dp384
g8
g359
sg56
S'Webprogrammeren en databases1'
p385
sbsg58
(iread_data
Room
p386
(dp387
g51
g61
sg56
g62
sbsg63
g113
sg65
g248
sg56
S'Webprogrammeren en databases'
p388
sba(ischedule
Activity
p389
(dp390
g8
(lp391
g195
aS'1048485'
p392
ag192
ag235
aS'66120270'
p393
aS'72665524'
p394
ag219
aS'59887191'
p395
aS'25557516'
p396
aS'63573738'
p397
ag200
aS'3883025'
p398
ag91
aS'56121590'
p399
aS'64246605'
p400
aS'85284256'
p401
aS'7957843'
p402
asg51
S'20'
p403
sg53
(ischedule
Group
p404
(dp405
g8
g391
sg56
S'Netwerken en systeembeveiliging3'
p406
sbsg58
(iread_data
Room
p407
(dp408
g51
g246
sg56
g247
sbsg63
g64
sg65
g184
sg56
S'Netwerken en systeembeveiliging'
p409
sba(ischedule
Activity
p410
(dp411
g8
(lp412
g71
aS'58469172'
p413
ag196
aS'54395877'
p414
aS'94687383'
p415
aS'90296821'
p416
ag226
aS'34900967'
p417
aS'10698627'
p418
aS'92977271'
p419
ag100
aS'94467156'
p420
aS'38499176'
p421
aS'64600457'
p422
aS'39905995'
p423
aS'20618153'
p424
aS'31416266'
p425
aS'51791169'
p426
asg51
g302
sg53
(ischedule
Group
p427
(dp428
g8
g412
sg56
S'Programmeren in Java 22'
p429
sbsg58
(iread_data
Room
p430
(dp431
g51
g80
sg56
g81
sbsg63
g64
sg65
g66
sg56
g308
sba(ischedule
Activity
p432
(dp433
g8
(lp434
g222
aS'37399898'
p435
aS'70193386'
p436
aS'49922855'
p437
aS'38296757'
p438
asg51
g131
sg53
(ischedule
Group
p439
(dp440
g8
g434
sg56
S'Reflectie op de digitale cultuur3'
p441
sbsg58
(iread_data
Room
p442
(dp443
g51
g111
sg56
g112
sbsg63
g113
sg65
g184
sg56
g139
sbaa(lp444
(ischedule
Activity
p445
(dp446
g8
(lp447
g12
ag222
ag223
aS'63408522'
p448
aS'56749879'
p449
ag343
aS'39659121'
p450
aS'64296965'
p451
ag297
aS'72547110'
p452
ag260
aS'18266644'
p453
ag421
ag326
aS'79858178'
p454
ag72
aS'96054456'
p455
ag218
aS'7492204'
p456
aS'23391676'
p457
aS'99272880'
p458
aS'20883994'
p459
aS'44940353'
p460
ag87
ag377
aS'82688900'
p461
aS'78735049'
p462
ag268
aS'10872825'
p463
aS'63955238'
p464
aS'55474917'
p465
ag334
aS'11915563'
p466
ag337
ag71
aS'77240949'
p467
aS'74182182'
p468
aS'20239127'
p469
aS'37498675'
p470
aS'65003379'
p471
aS'56988998'
p472
aS'51542218'
p473
ag129
ag89
ag369
aS'28957789'
p474
aS'23798155'
p475
aS'61518436'
p476
aS'20331158'
p477
ag161
ag92
aS'9731271'
p478
aS'79366078'
p479
aS'17823206'
p480
aS'59075181'
p481
aS'32705005'
p482
ag90
aS'14591033'
p483
aS'47605891'
p484
aS'3685034'
p485
aS'91139627'
p486
aS'76924297'
p487
aS'24875739'
p488
aS'94955328'
p489
ag28
ag413
ag88
aS'51186803'
p490
ag91
ag277
aS'91196968'
p491
ag152
ag197
aS'14398123'
p492
aS'34262212'
p493
aS'42115591'
p494
aS'39919665'
p495
ag26
ag269
aS'38329455'
p496
aS'81218347'
p497
ag420
ag48
ag13
asg51
I1000
sg53
Nsg58
(iread_data
Room
p498
(dp499
g51
g61
sg56
g62
sbsg63
g281
sg65
I0
sg56
S'Kansrekenen 2'
p500
sba(ischedule
Activity
p501
(dp502
g8
(lp503
S'14816774'
p504
ag169
ag362
aS'3168419'
p505
ag168
ag188
aS'247918'
p506
ag156
ag146
ag23
ag125
ag422
ag346
ag200
ag27
ag455
aS'70878567'
p507
ag35
aS'56815156'
p508
ag316
ag130
ag345
ag101
asg51
S'20'
p509
sg53
(ischedule
Group
p510
(dp511
g8
g503
sg56
S'Bioinformatica1'
p512
sbsg58
(iread_data
Room
p513
(dp514
g51
g211
sg56
g212
sbsg63
g64
sg65
g248
sg56
S'Bioinformatica'
p515
sba(ischedule
Activity
p516
(dp517
g8
(lp518
g128
aS'62363761'
p519
ag286
aS'4709948'
p520
aS'86291592'
p521
ag254
aS'33930505'
p522
ag288
aS'4353500'
p523
aS'72586808'
p524
aS'56191333'
p525
aS'60352393'
p526
aS'5590289'
p527
aS'535689'
p528
aS'21677389'
p529
ag270
aS'26207525'
p530
aS'25330192'
p531
aS'82872148'
p532
aS'70939718'
p533
ag217
aS'16912993'
p534
aS'51741554'
p535
aS'53267490'
p536
aS'97136582'
p537
aS'28618400'
p538
aS'62736669'
p539
asg51
g403
sg53
(ischedule
Group
p540
(dp541
g8
g518
sg56
S'Netwerken en systeembeveiliging4'
p542
sbsg58
(iread_data
Room
p543
(dp544
g51
g246
sg56
g247
sbsg63
g64
sg65
S'4'
p545
sg56
g409
sba(ischedule
Activity
p546
(dp547
g8
(lp548
S'1665980'
p549
ag189
ag127
ag17
ag21
ag221
ag49
ag236
ag348
aS'58592894'
p550
aS'23652927'
p551
aS'51509565'
p552
aS'67817269'
p553
aS'64554442'
p554
aS'3707829'
p555
ag365
aS'91527663'
p556
ag325
ag340
aS'21095566'
p557
ag289
ag318
aS'88596522'
p558
aS'34765676'
p559
asg51
S'25'
p560
sg53
(ischedule
Group
p561
(dp562
g8
g548
sg56
S'Algoritmen en complexiteit1'
p563
sbsg58
(iread_data
Room
p564
(dp565
g51
g137
sg56
g138
sbsg63
g64
sg65
g248
sg56
g114
sba(ischedule
Activity
p566
(dp567
g8
(lp568
g15
aS'24167153'
p569
aS'57701414'
p570
ag195
ag190
aS'28359697'
p571
aS'37804282'
p572
aS'92778619'
p573
aS'9067939'
p574
asg51
S'15'
p575
sg53
(ischedule
Group
p576
(dp577
g8
g568
sg56
S'Zoeken sturen en bewegen1'
p578
sbsg58
(iread_data
Room
p579
(dp580
g51
g182
sg56
g183
sbsg63
g64
sg65
g248
sg56
S'Zoeken sturen en bewegen'
p581
sba(ischedule
Activity
p582
(dp583
g8
(lp584
g93
ag361
ag18
aS'29640619'
p585
aS'3233378'
p586
ag325
ag324
ag144
aS'64393888'
p587
ag151
aS'96104167'
p588
ag344
ag95
aS'22699561'
p589
aS'73980360'
p590
aS'29474737'
p591
ag300
aS'45556081'
p592
ag14
aS'65960683'
p593
asg51
S'20'
p594
sg53
(ischedule
Group
p595
(dp596
g8
g584
sg56
S'Collectieve Intelligentie1'
p597
sbsg58
(iread_data
Room
p598
(dp599
g51
g111
sg56
g112
sbsg63
g113
sg65
g248
sg56
g213
sbaa(lp600
(ischedule
Activity
p601
(dp602
g8
(lp603
g329
ag343
ag48
ag101
aS'30050930'
p604
ag506
ag422
ag168
ag393
ag504
ag339
ag27
aS'6913074'
p605
aS'74131924'
p606
ag331
ag316
ag571
ag218
ag522
ag455
ag346
ag169
ag23
aS'21029457'
p607
ag189
ag200
ag35
ag362
ag483
ag507
ag125
ag345
aS'30195935'
p608
ag156
ag188
aS'77831658'
p609
ag313
ag508
ag449
ag130
ag146
ag459
ag505
ag217
aS'79617364'
p610
asg51
I1000
sg53
Nsg58
(iread_data
Room
p611
(dp612
g51
g182
sg56
g183
sbsg63
g281
sg65
I0
sg56
g515
sba(ischedule
Activity
p613
(dp614
g8
g584
sg51
g205
sg53
g595
sg58
(iread_data
Room
p615
(dp616
g51
g211
sg56
g212
sbsg63
g64
sg65
g248
sg56
g213
sba(ischedule
Activity
p617
(dp618
g8
(lp619
g99
ag71
ag119
ag266
ag287
aS'11459236'
p620
ag507
aS'17496687'
p621
ag277
ag15
aS'29718115'
p622
ag171
ag148
ag254
aS'13116738'
p623
aS'75585647'
p624
ag453
aS'19958553'
p625
ag290
ag419
aS'8557857'
p626
asg51
I1000
sg53
Nsg58
(iread_data
Room
p627
(dp628
g51
g80
sg56
g81
sbsg63
g281
sg65
I0
sg56
S'Informatie- en organisatieontwerp'
p629
sba(ischedule
Activity
p630
(dp631
g8
(lp632
S'23215240'
p633
ag435
aS'47477884'
p634
ag39
aS'77960666'
p635
ag321
ag166
aS'70113753'
p636
ag220
ag342
ag480
ag191
ag521
ag199
aS'28943658'
p637
aS'4921119'
p638
ag520
asg51
g302
sg53
(ischedule
Group
p639
(dp640
g8
g632
sg56
S'Programmeren in Java 23'
p641
sbsg58
(iread_data
Room
p642
(dp643
g51
g61
sg56
g62
sbsg63
g64
sg65
g184
sg56
g308
sba(ischedule
Activity
p644
(dp645
g8
(lp646
g91
aS'51673172'
p647
ag122
aS'37770881'
p648
ag121
aS'68409833'
p649
aS'74361881'
p650
aS'87830198'
p651
aS'75680261'
p652
aS'25994016'
p653
ag235
ag420
aS'55480737'
p654
aS'5526560'
p655
ag154
aS'76661016'
p656
ag145
asg51
S'15'
p657
sg53
(ischedule
Group
p658
(dp659
g8
g646
sg56
S'Project Genetic Algorithms1'
p660
sbsg58
(iread_data
Room
p661
(dp662
g51
g111
sg56
g112
sbsg63
g64
sg65
g248
sg56
S'Project Genetic Algorithms'
p663
sba(ischedule
Activity
p664
(dp665
g8
(lp666
g492
ag201
aS'82066165'
p667
aS'40633534'
p668
aS'88737765'
p669
aS'34773179'
p670
aS'41644639'
p671
aS'25077484'
p672
aS'84449005'
p673
aS'14179347'
p674
ag233
aS'69459473'
p675
ag104
ag45
aS'86180471'
p676
aS'27925117'
p677
asg51
g657
sg53
(ischedule
Group
p678
(dp679
g8
g666
sg56
S'Project Genetic Algorithms2'
p680
sbsg58
(iread_data
Room
p681
(dp682
g51
g246
sg56
g247
sbsg63
g64
sg65
g66
sg56
g663
sba(ischedule
Activity
p683
(dp684
g8
(lp685
S'41153310'
p686
asg51
g302
sg53
(ischedule
Group
p687
(dp688
g8
g685
sg56
S'Programmeren in Java 26'
p689
sbsg58
(iread_data
Room
p690
(dp691
g51
g137
sg56
g138
sbsg63
g64
sg65
S'6'
p692
sg56
g308
sbaa(lp693
(ischedule
Activity
p694
(dp695
g8
(lp696
g98
ag91
ag550
ag97
ag96
ag554
ag95
ag552
ag348
ag559
ag99
ag86
ag289
ag340
ag556
ag553
ag102
ag17
ag100
ag365
ag103
ag94
ag93
ag87
ag325
ag88
ag92
ag127
ag549
ag101
ag557
ag558
ag49
ag189
ag236
ag89
ag21
ag221
ag551
ag90
ag104
ag555
ag318
asg51
I1000
sg53
Nsg58
(iread_data
Room
p697
(dp698
g51
g182
sg56
g183
sbsg63
g281
sg65
I0
sg56
g114
sba(ischedule
Activity
p699
(dp700
g8
(lp701
g323
ag143
ag160
ag192
ag254
ag148
aS'53107172'
p702
ag149
ag118
aS'19858730'
p703
ag120
aS'79879876'
p704
ag237
ag299
ag364
aS'87210640'
p705
aS'53775014'
p706
aS'45660925'
p707
aS'76393508'
p708
ag419
aS'14138904'
p709
aS'14941752'
p710
ag267
asg51
S'25'
p711
sg53
(ischedule
Group
p712
(dp713
g8
g701
sg56
S'Heuristieken 11'
p714
sbsg58
(iread_data
Room
p715
(dp716
g51
g137
sg56
g138
sbsg63
g113
sg65
g248
sg56
S'Heuristieken 1'
p717
sba(ischedule
Activity
p718
(dp719
g8
g603
sg51
I1000
sg53
Nsg58
(iread_data
Room
p720
(dp721
g51
g61
sg56
g62
sbsg63
g281
sg65
I0
sg56
g515
sba(ischedule
Activity
p722
(dp723
g8
(lp724
g147
aS'75005528'
p725
ag638
ag18
aS'17092717'
p726
ag226
aS'94686490'
p727
ag190
ag261
aS'56872729'
p728
ag11
ag655
aS'23658570'
p729
ag526
ag287
ag676
ag71
ag38
ag157
aS'58083680'
p730
ag399
ag327
aS'54540997'
p731
aS'37701751'
p732
ag42
ag145
aS'90474003'
p733
ag86
aS'72456780'
p734
aS'43027916'
p735
ag473
ag144
aS'12091019'
p736
ag672
ag72
aS'59397895'
p737
ag530
asg51
S'40'
p738
sg53
(ischedule
Group
p739
(dp740
g8
g724
sg56
S'Databases 22'
p741
sbsg58
(iread_data
Room
p742
(dp743
g51
g246
sg56
g247
sbsg63
g113
sg65
g66
sg56
S'Databases 2'
p744
sba(ischedule
Activity
p745
(dp746
g8
(lp747
g10
aS'1886996'
p748
ag126
ag538
ag373
aS'72683344'
p749
ag526
ag361
ag193
ag88
asg51
S'10'
p750
sg53
(ischedule
Group
p751
(dp752
g8
g747
sg56
S'Advanced Heuristics1'
p753
sbsg58
(iread_data
Room
p754
(dp755
g51
g80
sg56
g81
sbsg63
g64
sg65
g248
sg56
S'Advanced Heuristics'
p756
sbaaa(lp757
(lp758
(ischedule
Activity
p759
(dp760
g8
(lp761
g48
ag148
ag451
ag147
ag467
ag735
ag149
ag150
aS'87758823'
p762
ag648
aS'17575088'
p763
aS'13534377'
p764
aS'1075391'
p765
aS'57595888'
p766
ag290
aS'48601268'
p767
asg51
g594
sg53
(ischedule
Group
p768
(dp769
g8
g761
sg56
S'Collectieve Intelligentie4'
p770
sbsg58
(iread_data
Room
p771
(dp772
g51
g211
sg56
g212
sbsg63
g113
sg65
g545
sg56
g213
sba(ischedule
Activity
p773
(dp774
g8
(lp775
g86
ag190
ag726
ag261
ag257
ag196
ag418
ag424
ag153
ag198
aS'53512831'
p776
aS'49908313'
p777
ag675
asg51
S'20'
p778
sg53
(ischedule
Group
p779
(dp780
g8
g775
sg56
S'Webprogrammeren en databases2'
p781
sbsg58
(iread_data
Room
p782
(dp783
g51
g111
sg56
g112
sbsg63
g64
sg65
g66
sg56
g388
sba(ischedule
Activity
p784
(dp785
g8
(lp786
g585
ag449
ag605
ag90
ag367
ag587
ag11
ag275
ag465
aS'12782624'
p787
ag478
ag157
ag94
ag392
aS'85236626'
p788
aS'80135353'
p789
ag704
ag456
ag12
ag489
aS'3678531'
p790
aS'64053722'
p791
aS'13996448'
p792
aS'26857113'
p793
aS'86807027'
p794
ag458
ag18
aS'73893840'
p795
aS'2550487'
p796
aS'60661905'
p797
ag223
ag366
ag401
aS'88519892'
p798
ag92
aS'83415514'
p799
ag332
ag493
ag457
ag228
aS'73196865'
p800
asg51
g302
sg53
(ischedule
Group
p801
(dp802
g8
g786
sg56
S'Programmeren in Java 25'
p803
sbsg58
(iread_data
Room
p804
(dp805
g51
g182
sg56
g183
sbsg63
g64
sg65
S'5'
p806
sg56
g308
sba(ischedule
Activity
p807
(dp808
g8
g503
sg51
S'20'
p809
sg53
g510
sg58
(iread_data
Room
p810
(dp811
g51
g137
sg56
g138
sbsg63
g113
sg65
g248
sg56
g515
sba(ischedule
Activity
p812
(dp813
g8
(lp814
g118
ag267
ag606
ag491
ag219
ag217
ag286
aS'52311353'
p815
ag221
ag480
aS'19337738'
p816
aS'66122625'
p817
asg51
S'10'
p818
sg53
(ischedule
Group
p819
(dp820
g8
g814
sg56
S'Data Mining2'
p821
sbsg58
(iread_data
Room
p822
(dp823
g51
g61
sg56
g62
sbsg63
g64
sg65
g66
sg56
S'Data Mining'
p824
sba(ischedule
Activity
p825
(dp826
g8
g548
sg51
g105
sg53
g561
sg58
(iread_data
Room
p827
(dp828
g51
g246
sg56
g247
sbsg63
g113
sg65
g248
sg56
g114
sba(ischedule
Activity
p829
(dp830
g8
(lp831
g38
ag709
ag170
ag255
aS'70015932'
p832
ag93
ag538
ag677
aS'58866007'
p833
aS'59289233'
p834
ag749
ag592
ag361
ag622
ag475
ag360
aS'83266686'
p835
ag477
aS'13798030'
p836
ag261
ag24
asg51
I1000
sg53
Nsg58
(iread_data
Room
p837
(dp838
g51
g80
sg56
g81
sbsg63
g281
sg65
I0
sg56
S'Architectuur en computerorganisatie'
p839
sbaa(lp840
(ischedule
Activity
p841
(dp842
g8
(lp843
g702
ag648
ag535
ag767
ag589
ag188
ag592
ag147
ag196
ag467
ag18
ag764
ag202
ag200
ag763
ag344
ag197
ag199
ag670
ag735
ag587
ag323
ag521
ag324
ag549
ag451
ag192
ag593
ag149
ag148
ag586
ag203
ag762
ag95
ag588
ag766
ag325
ag190
ag201
ag425
ag765
ag191
ag14
ag590
ag585
ag239
ag195
ag204
ag591
ag144
ag290
ag189
ag48
ag93
ag150
ag198
ag300
ag194
ag193
ag151
ag361
asg51
I1000
sg53
Nsg58
(iread_data
Room
p844
(dp845
g51
g61
sg56
g62
sbsg63
g281
sg65
I0
sg56
g213
sba(ischedule
Activity
p846
(dp847
g8
g603
sg51
I1000
sg53
Nsg58
(iread_data
Room
p848
(dp849
g51
g182
sg56
g183
sbsg63
g281
sg65
I0
sg56
g515
sba(ischedule
Activity
p850
(dp851
g8
(lp852
S'19214659'
p853
aS'38179241'
p854
ag193
ag732
ag293
ag559
ag312
ag28
ag217
ag487
aS'28055464'
p855
ag17
ag796
aS'65675896'
p856
ag98
aS'20374340'
p857
ag555
aS'64768422'
p858
ag435
aS'69634191'
p859
ag373
ag656
ag379
ag529
aS'81155296'
p860
asg51
I1000
sg53
Nsg58
(iread_data
Room
p861
(dp862
g51
g137
sg56
g138
sbsg63
g281
sg65
I0
sg56
S'Interactie-ontwerp'
p863
sba(ischedule
Activity
p864
(dp865
g8
(lp866
g40
ag37
ag792
ag725
aS'34691309'
p867
ag794
ag397
aS'73823548'
p868
asg51
S'15'
p869
sg53
(ischedule
Group
p870
(dp871
g8
g866
sg56
S'Project Numerical Recipes3'
p872
sbsg58
(iread_data
Room
p873
(dp874
g51
g111
sg56
g112
sbsg63
g64
sg65
g184
sg56
S'Project Numerical Recipes'
p875
sba(ischedule
Activity
p876
(dp877
g8
g619
sg51
I1000
sg53
Nsg58
(iread_data
Room
p878
(dp879
g51
g80
sg56
g81
sbsg63
g281
sg65
I0
sg56
g629
sba(ischedule
Activity
p880
(dp881
g8
(lp882
S'5892092'
p883
aS'42297781'
p884
asg51
S'15'
p885
sg53
(ischedule
Group
p886
(dp887
g8
g882
sg56
S'Compilerbouw practicum2'
p888
sbsg58
(iread_data
Room
p889
(dp890
g51
g211
sg56
g212
sbsg63
g64
sg65
g66
sg56
S'Compilerbouw practicum'
p891
sbaa(lp892
(ischedule
Activity
p893
(dp894
g8
(lp895
g789
ag574
ag30
ag294
ag19
ag16
ag12
ag29
ag27
aS'11741347'
p896
ag38
ag24
ag11
ag127
ag402
ag324
ag25
aS'15911353'
p897
ag341
ag40
ag47
ag270
ag49
ag273
ag22
ag835
ag26
aS'95631564'
p898
ag313
ag122
ag44
aS'98105190'
p899
ag36
ag648
ag42
ag415
ag33
ag48
ag28
ag271
ag31
ag13
ag17
aS'76802764'
p900
ag37
ag10
ag39
ag14
ag23
ag15
ag593
ag35
ag32
ag45
ag20
ag43
ag466
ag521
ag18
ag46
ag656
ag34
aS'95007221'
p901
ag41
ag295
ag222
ag288
ag21
ag50
asg51
I1000
sg53
Nsg58
(iread_data
Room
p902
(dp903
g51
g61
sg56
g62
sbsg63
g281
sg65
I0
sg56
g67
sba(ischedule
Activity
p904
(dp905
g8
g142
sg51
g74
sg53
g177
sg58
(iread_data
Room
p906
(dp907
g51
g182
sg56
g183
sbsg63
g64
sg65
g184
sg56
g82
sba(ischedule
Activity
p908
(dp909
g8
(lp910
g421
ag856
ag266
ag265
ag667
ag223
ag381
aS'51472074'
p911
aS'44151631'
p912
aS'47260040'
p913
ag653
aS'5085194'
p914
ag633
ag528
ag549
ag331
ag339
ag620
aS'71839156'
p915
ag671
aS'1695839'
p916
ag202
asg51
g885
sg53
(ischedule
Group
p917
(dp918
g8
g910
sg56
S'Compilerbouw practicum3'
p919
sbsg58
(iread_data
Room
p920
(dp921
g51
g246
sg56
g247
sbsg63
g64
sg65
g184
sg56
g891
sba(ischedule
Activity
p922
(dp923
g8
(lp924
S'87900893'
p925
aS'59753700'
p926
ag325
ag292
ag792
ag507
aS'87314964'
p927
ag817
ag219
ag480
ag537
ag189
aS'99453514'
p928
ag286
ag491
ag217
aS'68360259'
p929
ag118
ag816
aS'98780382'
p930
ag623
aS'93023961'
p931
ag606
ag531
ag267
ag221
ag815
asg51
I1000
sg53
Nsg58
(iread_data
Room
p932
(dp933
g51
g211
sg56
g212
sbsg63
g281
sg65
I0
sg56
g824
sba(ischedule
Activity
p934
(dp935
g8
(lp936
g269
aS'6939933'
p937
ag609
ag349
asg51
g869
sg53
(ischedule
Group
p938
(dp939
g8
g936
sg56
S'Project Numerical Recipes2'
p940
sbsg58
(iread_data
Room
p941
(dp942
g51
g111
sg56
g112
sbsg63
g64
sg65
g66
sg56
g875
sba(ischedule
Activity
p943
(dp944
g8
g85
sg51
g560
sg53
g106
sg58
(iread_data
Room
p945
(dp946
g51
g80
sg56
g81
sbsg63
g64
sg65
g66
sg56
g114
sbaa(lp947
(ischedule
Activity
p948
(dp949
g8
(lp950
g464
ag474
ag623
aS'88627897'
p951
ag102
ag526
ag149
aS'57419039'
p952
ag169
ag671
ag733
ag101
aS'97838175'
p953
ag35
aS'13210212'
p954
ag555
ag395
ag435
ag315
ag762
ag926
aS'82233873'
p955
ag295
aS'59220392'
p956
aS'33946407'
p957
ag508
ag119
aS'4529208'
p958
aS'36527838'
p959
asg51
g575
sg53
(ischedule
Group
p960
(dp961
g8
g950
sg56
S'Zoeken sturen en bewegen3'
p962
sbsg58
(iread_data
Room
p963
(dp964
g51
g182
sg56
g183
sbsg63
g64
sg65
g184
sg56
g581
sba(ischedule
Activity
p965
(dp966
g8
(lp967
g225
ag120
ag349
ag327
ag606
ag636
ag221
aS'62872965'
p968
asg51
S'10'
p969
sg53
(ischedule
Group
p970
(dp971
g8
g967
sg56
S'Autonomous Agents 22'
p972
sbsg58
(iread_data
Room
p973
(dp974
g51
g246
sg56
g247
sbsg63
g64
sg65
g66
sg56
S'Autonomous Agents 2'
p975
sba(ischedule
Activity
p976
(dp977
g8
(lp978
g323
ag670
ag239
ag535
ag425
ag549
ag521
ag702
asg51
g594
sg53
(ischedule
Group
p979
(dp980
g8
g978
sg56
S'Collectieve Intelligentie3'
p981
sbsg58
(iread_data
Room
p982
(dp983
g51
g61
sg56
g62
sbsg63
g113
sg65
g184
sg56
g213
sba(ischedule
Activity
p984
(dp985
g8
(lp986
g340
ag93
aS'12170832'
p987
ag103
ag92
ag585
ag734
aS'123355'
p988
ag608
ag421
ag492
aS'19058315'
p989
asg51
g403
sg53
(ischedule
Group
p990
(dp991
g8
g986
sg56
S'Netwerken en systeembeveiliging2'
p992
sbsg58
(iread_data
Room
p993
(dp994
g51
g80
sg56
g81
sbsg63
g64
sg65
g66
sg56
g409
sba(ischedule
Activity
p995
(dp996
g8
(lp997
g372
ag675
ag373
ag369
ag21
ag376
ag377
ag374
ag418
ag86
ag360
ag381
ag368
ag366
ag257
ag23
ag380
ag170
ag370
ag424
ag363
ag777
ag361
ag371
ag726
ag776
ag362
ag261
ag378
ag367
ag196
ag379
ag128
ag190
ag375
ag364
ag365
ag198
ag153
asg51
I1000
sg53
Nsg58
(iread_data
Room
p998
(dp999
g51
g211
sg56
g212
sbsg63
g281
sg65
I0
sg56
g388
sba(ischedule
Activity
p1000
(dp1001
g8
g253
sg51
I1000
sg53
Nsg58
(iread_data
Room
p1002
(dp1003
g51
g137
sg56
g138
sbsg63
g281
sg65
I0
sg56
g282
sba(ischedule
Activity
p1004
(dp1005
g8
(lp1006
g36
ag325
ag558
aS'91250534'
p1007
aS'55103073'
p1008
ag33
ag709
ag345
ag647
ag318
ag394
ag458
ag766
aS'64418623'
p1009
ag289
ag650
asg51
g885
sg53
(ischedule
Group
p1010
(dp1011
g8
g1006
sg56
S'Compilerbouw practicum1'
p1012
sbsg58
(iread_data
Room
p1013
(dp1014
g51
g111
sg56
g112
sbsg63
g64
sg65
g248
sg56
g891
sbaa(lp1015
(ischedule
Activity
p1016
(dp1017
g8
g843
sg51
I1000
sg53
Nsg58
(iread_data
Room
p1018
(dp1019
g51
g61
sg56
g62
sbsg63
g281
sg65
I0
sg56
g213
sba(ischedule
Activity
p1020
(dp1021
g8
(lp1022
g673
ag959
ag151
ag15
ag271
ag72
ag159
ag171
ag172
ag170
ag71
ag166
ag36
aS'48198668'
p1023
ag154
ag422
ag175
ag153
aS'58699305'
p1024
ag167
ag163
ag161
ag896
ag162
ag157
aS'66621166'
p1025
ag835
ag144
ag145
ag550
ag799
ag156
ag143
ag148
ag165
ag348
ag520
ag160
ag173
ag149
ag158
ag164
ag46
ag168
ag398
ag152
ag147
ag155
ag169
ag146
ag174
ag29
ag150
ag73
asg51
I1000
sg53
Nsg58
(iread_data
Room
p1026
(dp1027
g51
g182
sg56
g183
sbsg63
g281
sg65
I0
sg56
g82
sba(ischedule
Activity
p1028
(dp1029
g8
g852
sg51
I1000
sg53
Nsg58
(iread_data
Room
p1030
(dp1031
g51
g137
sg56
g138
sbsg63
g281
sg65
I0
sg56
g863
sba(ischedule
Activity
p1032
(dp1033
g8
(lp1034
g483
ag449
ag103
ag92
ag504
ag345
ag297
ag915
aS'83443653'
p1035
ag899
ag523
ag817
aS'97417002'
p1036
ag794
ag481
ag319
ag477
ag497
ag224
ag347
ag119
asg51
g711
sg53
(ischedule
Group
p1037
(dp1038
g8
g1034
sg56
S'Heuristieken 12'
p1039
sbsg58
(iread_data
Room
p1040
(dp1041
g51
g211
sg56
g212
sbsg63
g113
sg65
g66
sg56
g717
sba(ischedule
Activity
p1042
(dp1043
g8
(lp1044
g225
ag703
aS'34806836'
p1045
ag25
ag327
ag606
ag329
ag968
aS'36508571'
p1046
ag466
ag951
ag147
ag102
ag349
ag221
ag120
ag649
ag636
ag11
aS'61611295'
p1047
ag254
ag118
asg51
I1000
sg53
Nsg58
(iread_data
Room
p1048
(dp1049
g51
g246
sg56
g247
sbsg63
g281
sg65
I0
sg56
g975
sba(ischedule
Activity
p1050
(dp1051
g8
(lp1052
g573
aS'37279234'
p1053
ag35
ag729
ag491
aS'88263855'
p1054
ag104
aS'63096281'
p1055
ag99
ag455
asg51
g302
sg53
(ischedule
Group
p1056
(dp1057
g8
g1052
sg56
S'Programmeren in Java 24'
p1058
sbsg58
(iread_data
Room
p1059
(dp1060
g51
g111
sg56
g112
sbsg63
g64
sg65
g545
sg56
g308
sba(ischedule
Activity
p1061
(dp1062
g8
(lp1063
g507
ag928
ag931
ag930
ag623
asg51
g818
sg53
(ischedule
Group
p1064
(dp1065
g8
g1063
sg56
S'Data Mining3'
p1066
sbsg58
(iread_data
Room
p1067
(dp1068
g51
g80
sg56
g81
sbsg63
g64
sg65
g184
sg56
g824
sbaaa(lp1069
(lp1070
(ischedule
Activity
p1071
(dp1072
g8
g359
sg51
g778
sg53
g383
sg58
(iread_data
Room
p1073
(dp1074
g51
g211
sg56
g212
sbsg63
g64
sg65
g248
sg56
g388
sba(ischedule
Activity
p1075
(dp1076
g8
(lp1077
g476
aS'33252501'
p1078
ag11
ag236
ag788
ag12
ag166
ag169
ag22
ag438
aS'90067329'
p1079
ag467
ag20
ag286
ag24
ag793
ag485
aS'67625383'
p1080
ag104
ag475
ag420
ag472
asg51
I1000
sg53
Nsg58
(iread_data
Room
p1081
(dp1082
g51
g80
sg56
g81
sbsg63
g281
sg65
I0
sg56
S'Machine Learning'
p1083
sba(ischedule
Activity
p1084
(dp1085
g8
(lp1086
g127
ag147
ag473
ag40
ag525
ag655
aS'27123462'
p1087
ag725
ag634
ag168
ag86
ag585
ag71
ag638
ag190
ag530
ag287
ag327
ag731
ag157
ag42
ag188
ag261
ag539
ag399
ag145
ag25
ag556
ag160
ag550
ag100
ag676
ag732
ag38
ag733
ag526
ag451
ag505
ag729
aS'47932106'
p1088
ag202
ag18
aS'40141996'
p1089
ag734
aS'15187217'
p1090
ag735
ag93
ag103
ag72
ag736
ag730
aS'13132925'
p1091
ag914
ag726
ag449
ag144
ag737
ag958
ag11
ag151
ag635
ag194
ag455
ag229
ag506
ag226
ag728
ag727
ag868
ag221
ag672
ag504
asg51
I1000
sg53
Nsg58
(iread_data
Room
p1092
(dp1093
g51
g61
sg56
g62
sbsg63
g281
sg65
I0
sg56
g744
sba(ischedule
Activity
p1094
(dp1095
g8
(lp1096
g483
ag605
ag522
ag610
ag604
ag218
ag459
ag393
ag608
ag607
ag339
ag449
ag313
asg51
g809
sg53
(ischedule
Group
p1097
(dp1098
g8
g1096
sg56
S'Bioinformatica2'
p1099
sbsg58
(iread_data
Room
p1100
(dp1101
g51
g246
sg56
g247
sbsg63
g113
sg65
g66
sg56
g515
sba(ischedule
Activity
p1102
(dp1103
g8
(lp1104
g146
ag269
ag156
ag255
ag274
ag271
ag276
ag121
ag118
ag267
ag49
ag262
ag199
ag16
ag260
ag263
ag193
ag258
ag278
ag148
ag266
ag232
ag15
ag275
ag254
ag259
ag256
asg51
S'20'
p1105
sg53
(ischedule
Group
p1106
(dp1107
g8
g1104
sg56
S'Technology for games1'
p1108
sbsg58
(iread_data
Room
p1109
(dp1110
g51
g182
sg56
g183
sbsg63
g113
sg65
g248
sg56
g282
sba(ischedule
Activity
p1111
(dp1112
g8
(lp1113
g48
ag189
ag609
ag606
ag217
ag331
ag329
ag571
ag343
asg51
g809
sg53
(ischedule
Group
p1114
(dp1115
g8
g1113
sg56
S'Bioinformatica3'
p1116
sbsg58
(iread_data
Room
p1117
(dp1118
g51
g111
sg56
g112
sbsg63
g113
sg65
g184
sg56
g515
sba(ischedule
Activity
p1119
(dp1120
g8
g978
sg51
g205
sg53
g979
sg58
(iread_data
Room
p1121
(dp1122
g51
g137
sg56
g138
sbsg63
g64
sg65
g184
sg56
g213
sbaa(lp1123
(ischedule
Activity
p1124
(dp1125
g8
g447
sg51
I1000
sg53
Nsg58
(iread_data
Room
p1126
(dp1127
g51
g61
sg56
g62
sbsg63
g281
sg65
I0
sg56
g500
sba(ischedule
Activity
p1128
(dp1129
g8
g924
sg51
I1000
sg53
Nsg58
(iread_data
Room
p1130
(dp1131
g51
g137
sg56
g138
sbsg63
g281
sg65
I0
sg56
g824
sba(ischedule
Activity
p1132
(dp1133
g8
(lp1134
g23
ag193
aS'58253841'
p1135
ag291
asg51
g575
sg53
(ischedule
Group
p1136
(dp1137
g8
g1134
sg56
S'Zoeken sturen en bewegen2'
p1138
sbsg58
(iread_data
Room
p1139
(dp1140
g51
g246
sg56
g247
sbsg63
g64
sg65
g66
sg56
g581
sba(ischedule
Activity
p1141
(dp1142
g8
(lp1143
g15
ag29
ag896
ag36
ag520
ag46
ag1024
ag422
ag799
ag271
ag673
ag398
ag348
ag959
ag1025
ag835
ag1023
ag550
asg51
g74
sg53
(ischedule
Group
p1144
(dp1145
g8
g1143
sg56
S'Moderne Databases1'
p1146
sbsg58
(iread_data
Room
p1147
(dp1148
g51
g182
sg56
g183
sbsg63
g64
sg65
g248
sg56
g82
sba(ischedule
Activity
p1149
(dp1150
g8
(lp1151
g153
ag196
ag677
aS'82968410'
p1152
ag735
ag368
ag559
ag788
ag748
asg51
g240
sg53
(ischedule
Group
p1153
(dp1154
g8
g1151
sg56
S'Heuristieken 22'
p1155
sbsg58
(iread_data
Room
p1156
(dp1157
g51
g111
sg56
g112
sbsg63
g113
sg65
g66
sg56
g249
sba(ischedule
Activity
p1158
(dp1159
g8
g1044
sg51
I1000
sg53
Nsg58
(iread_data
Room
p1160
(dp1161
g51
g80
sg56
g81
sbsg63
g281
sg65
I0
sg56
g975
sbaa(lp1162
(ischedule
Activity
p1163
(dp1164
g8
g843
sg51
I1000
sg53
Nsg58
(iread_data
Room
p1165
(dp1166
g51
g61
sg56
g62
sbsg63
g281
sg65
I0
sg56
g213
sba(ischedule
Activity
p1167
(dp1168
g8
(lp1169
S'23565001'
p1170
aS'73350019'
p1171
ag225
aS'56544130'
p1172
ag815
aS'18477924'
p1173
ag451
ag1035
aS'62613937'
p1174
ag13
ag319
ag734
ag368
ag314
ag953
aS'33672995'
p1175
ag494
ag797
ag120
ag638
ag297
ag121
aS'58480929'
p1176
aS'78822885'
p1177
ag417
ag436
ag475
ag453
ag651
ag508
ag729
aS'82854435'
p1178
ag735
ag524
aS'80188025'
p1179
ag276
ag146
ag235
ag489
ag609
ag143
ag473
ag47
ag669
ag320
aS'65318664'
p1180
aS'14637758'
p1181
ag145
ag914
asg51
I1000
sg53
Nsg58
(iread_data
Room
p1182
(dp1183
g51
g182
sg56
g183
sbsg63
g281
sg65
I0
sg56
S'Analysemethoden en -technieken'
p1184
sba(ischedule
Activity
p1185
(dp1186
g8
g1096
sg51
g509
sg53
g1097
sg58
(iread_data
Room
p1187
(dp1188
g51
g111
sg56
g112
sbsg63
g64
sg65
g66
sg56
g515
sba(ischedule
Activity
p1189
(dp1190
g8
g1143
sg51
g176
sg53
g1144
sg58
(iread_data
Room
p1191
(dp1192
g51
g80
sg56
g81
sbsg63
g113
sg65
g248
sg56
g82
sba(ischedule
Activity
p1193
(dp1194
g8
(lp1195
g254
ag466
ag102
ag649
ag703
ag1046
ag25
ag1047
ag11
asg51
S'10'
p1196
sg53
(ischedule
Group
p1197
(dp1198
g8
g1195
sg56
S'Autonomous Agents 23'
p1199
sbsg58
(iread_data
Room
p1200
(dp1201
g51
g246
sg56
g247
sbsg63
g113
sg65
g184
sg56
g975
sba(ischedule
Activity
p1202
(dp1203
g8
(lp1204
g27
ag487
ag1135
asg51
g657
sg53
(ischedule
Group
p1205
(dp1206
g8
g1204
sg56
S'Project Genetic Algorithms3'
p1207
sbsg58
(iread_data
Room
p1208
(dp1209
g51
g211
sg56
g212
sbsg63
g64
sg65
g184
sg56
g663
sba(ischedule
Activity
p1210
(dp1211
g8
g70
sg51
g176
sg53
g75
sg58
(iread_data
Room
p1212
(dp1213
g51
g137
sg56
g138
sbsg63
g113
sg65
g66
sg56
g82
sbaa(lp1214
(ischedule
Activity
p1215
(dp1216
g8
g311
sg51
S'40'
p1217
sg53
g351
sg58
(iread_data
Room
p1218
(dp1219
g51
g61
sg56
g62
sbsg63
g113
sg65
g248
sg56
g356
sba(ischedule
Activity
p1220
(dp1221
g8
g814
sg51
S'10'
p1222
sg53
g819
sg58
(iread_data
Room
p1223
(dp1224
g51
g111
sg56
g112
sbsg63
g113
sg65
g66
sg56
g824
sba(ischedule
Activity
p1225
(dp1226
g8
g1195
sg51
g969
sg53
g1197
sg58
(iread_data
Room
p1227
(dp1228
g51
g246
sg56
g247
sbsg63
g64
sg65
g184
sg56
g975
sba(ischedule
Activity
p1229
(dp1230
g8
g831
sg51
I1000
sg53
Nsg58
(iread_data
Room
p1231
(dp1232
g51
g137
sg56
g138
sbsg63
g281
sg65
I0
sg56
g839
sba(ischedule
Activity
p1233
(dp1234
g8
g187
sg51
g594
sg53
g206
sg58
(iread_data
Room
p1235
(dp1236
g51
g80
sg56
g81
sbsg63
g113
sg65
g66
sg56
g213
sba(ischedule
Activity
p1237
(dp1238
g8
g761
sg51
g205
sg53
g768
sg58
(iread_data
Room
p1239
(dp1240
g51
g182
sg56
g183
sbsg63
g64
sg65
g545
sg56
g213
sba(ischedule
Activity
p1241
(dp1242
g8
g1063
sg51
g1222
sg53
g1064
sg58
(iread_data
Room
p1243
(dp1244
g51
g211
sg56
g212
sbsg63
g113
sg65
g184
sg56
g824
sbaa(lp1245
(ischedule
Activity
p1246
(dp1247
g8
(lp1248
g649
ag97
ag327
ag466
ag336
ag320
ag338
ag331
ag348
ag170
ag312
ag286
ag585
ag420
ag313
ag1180
ag341
ag335
ag347
ag339
ag274
ag153
ag815
ag323
ag330
ag898
ag767
ag328
ag87
ag158
ag329
ag333
ag301
ag236
aS'80709893'
p1249
ag326
ag494
ag334
ag342
ag322
ag832
ag686
ag586
ag340
ag325
ag465
ag314
ag122
ag532
ag332
ag344
ag346
ag392
ag321
ag315
ag269
ag337
ag557
ag316
ag343
ag317
ag349
ag271
ag362
ag120
ag360
ag267
ag201
aS'31103066'
p1250
ag154
ag324
ag345
ag318
ag89
ag319
asg51
I1000
sg53
Nsg58
(iread_data
Room
p1251
(dp1252
g51
g61
sg56
g62
sbsg63
g281
sg65
I0
sg56
g356
sba(ischedule
Activity
p1253
(dp1254
g8
g9
sg51
S'40'
p1255
sg53
g54
sg58
(iread_data
Room
p1256
(dp1257
g51
g182
sg56
g183
sbsg63
g113
sg65
g66
sg56
g67
sba(ischedule
Activity
p1258
(dp1259
g8
(lp1260
g230
ag520
ag368
ag437
ag120
aS'36213792'
p1261
ag124
ag121
ag88
ag635
ag605
ag130
ag126
ag485
ag476
ag151
ag436
ag122
aS'27370083'
p1262
ag222
ag573
ag926
ag118
aS'82390428'
p1263
ag469
ag129
ag733
ag156
ag435
ag125
aS'68286356'
p1264
ag438
aS'42406214'
p1265
ag276
ag127
ag119
aS'51415617'
p1266
ag526
ag673
ag928
ag797
ag318
ag163
ag123
ag128
aS'32044893'
p1267
ag317
aS'27805666'
p1268
ag194
ag314
ag651
asg51
I1000
sg53
Nsg58
(iread_data
Room
p1269
(dp1270
g51
g246
sg56
g247
sbsg63
g281
sg65
I0
sg56
g139
sba(ischedule
Activity
p1271
(dp1272
g8
(lp1273
g223
ag226
ag229
ag748
ag230
ag238
ag221
ag225
ag196
ag233
ag228
ag153
ag735
ag224
ag1152
ag788
ag222
ag220
ag219
ag559
ag368
ag218
ag231
ag237
ag235
ag234
ag236
ag232
ag677
ag227
ag217
ag239
asg51
I1000
sg53
Nsg58
(iread_data
Room
p1274
(dp1275
g51
g211
sg56
g212
sbsg63
g281
sg65
I0
sg56
g249
sba(ischedule
Activity
p1276
(dp1277
g8
(lp1278
g287
ag148
ag623
ag620
ag266
ag290
ag453
ag624
asg51
S'15'
p1279
sg53
(ischedule
Group
p1280
(dp1281
g8
g1278
sg56
S'Informatie- en organisatieontwerp2'
p1282
sbsg58
(iread_data
Room
p1283
(dp1284
g51
g137
sg56
g138
sbsg63
g64
sg65
g66
sg56
g629
sba(ischedule
Activity
p1285
(dp1286
g8
(lp1287
g143
ag505
ag459
ag634
ag794
ag371
ag1174
ag668
aS'39429093'
p1288
ag394
asg51
g750
sg53
(ischedule
Group
p1289
(dp1290
g8
g1287
sg56
S'Advanced Heuristics2'
p1291
sbsg58
(iread_data
Room
p1292
(dp1293
g51
g80
sg56
g81
sbsg63
g64
sg65
g66
sg56
g756
sba(ischedule
Activity
p1294
(dp1295
g8
(lp1296
g160
ag261
ag202
ag257
ag268
ag272
ag270
ag265
ag277
ag264
ag273
asg51
g1105
sg53
(ischedule
Group
p1297
(dp1298
g8
g1296
sg56
S'Technology for games2'
p1299
sbsg58
(iread_data
Room
p1300
(dp1301
g51
g111
sg56
g112
sbsg63
g113
sg65
g66
sg56
g282
sbaaa(lp1302
(lp1303
(ischedule
Activity
p1304
(dp1305
g8
(lp1306
g271
ag122
ag222
ag898
ag341
ag313
ag324
ag466
ag648
ag897
ag899
ag900
ag270
ag127
ag656
ag835
ag288
ag896
ag415
ag294
ag574
ag901
ag789
ag295
ag593
ag273
ag402
ag521
asg51
g52
sg53
(ischedule
Group
p1307
(dp1308
g8
g1306
sg56
S'Compilerbouw1'
p1309
sbsg58
(iread_data
Room
p1310
(dp1311
g51
g137
sg56
g138
sbsg63
g64
sg65
g248
sg56
g67
sba(ischedule
Activity
p1312
(dp1313
g8
(lp1314
g729
aS'11593163'
p1315
ag1172
ag468
ag1135
ag26
ag1024
ag925
ag1179
ag223
ag320
ag195
aS'61520025'
p1316
ag677
ag482
ag550
ag478
ag868
aS'55530367'
p1317
aS'77306636'
p1318
aS'75623387'
p1319
aS'31306819'
p1320
aS'34173695'
p1321
ag676
ag220
aS'56348773'
p1322
ag255
ag146
ag233
ag40
ag321
ag322
ag319
ag312
asg51
S'40'
p1323
sg53
(ischedule
Group
p1324
(dp1325
g8
g1314
sg56
S'Calculus 23'
p1326
sbsg58
(iread_data
Room
p1327
(dp1328
g51
g61
sg56
g62
sbsg63
g113
sg65
g184
sg56
S'Calculus 2'
p1329
sba(ischedule
Activity
p1330
(dp1331
g8
(lp1332
g193
ag143
ag10
ag1174
ag126
ag749
ag1288
ag748
ag373
ag88
ag459
ag634
ag505
ag526
ag371
ag538
ag361
ag668
ag394
ag794
asg51
I1000
sg53
Nsg58
g244
sg63
g281
sg65
I0
sg56
g756
sba(ischedule
Activity
p1333
(dp1334
g8
g1278
sg51
S'15'
p1335
sg53
g1280
sg58
(iread_data
Room
p1336
(dp1337
g51
g211
sg56
g212
sbsg63
g113
sg65
g66
sg56
g629
sba(ischedule
Activity
p1338
(dp1339
g8
g967
sg51
g1196
sg53
g970
sg58
(iread_data
Room
p1340
(dp1341
g51
g80
sg56
g81
sbsg63
g113
sg65
g66
sg56
g975
sba(ischedule
Activity
p1342
(dp1343
g8
(lp1344
g15
ag119
ag277
ag621
ag625
ag626
ag254
ag99
ag507
ag171
ag419
ag622
ag71
asg51
g1335
sg53
(ischedule
Group
p1345
(dp1346
g8
g1344
sg56
S'Informatie- en organisatieontwerp1'
p1347
sbsg58
(iread_data
Room
p1348
(dp1349
g51
g182
sg56
g183
sbsg63
g113
sg65
g248
sg56
g629
sba(ischedule
Activity
p1350
(dp1351
g8
(lp1352
g118
ag329
ag951
ag1045
ag147
asg51
g969
sg53
(ischedule
Group
p1353
(dp1354
g8
g1352
sg56
S'Autonomous Agents 21'
p1355
sbsg58
(iread_data
Room
p1356
(dp1357
g51
g111
sg56
g112
sbsg63
g64
sg65
g248
sg56
g975
sbaa(lp1358
(ischedule
Activity
p1359
(dp1360
g8
g895
sg51
I1000
sg53
Nsg58
(iread_data
Room
p1361
(dp1362
g51
g61
sg56
g62
sbsg63
g281
sg65
I0
sg56
g67
sba(ischedule
Activity
p1363
(dp1364
g8
(lp1365
g435
aS'16011419'
p1366
aS'32595335'
p1367
ag468
ag497
ag610
ag363
ag915
aS'55412918'
p1368
ag1046
ag638
ag13
ag491
aS'96118484'
p1369
ag649
ag338
aS'80998260'
p1370
ag968
aS'54074680'
p1371
ag1170
ag483
aS'34588570'
p1372
ag833
ag293
aS'90743504'
p1373
ag815
ag225
aS'79937969'
p1374
ag121
aS'21311067'
p1375
ag728
ag727
ag16
ag347
ag255
ag14
ag188
ag1249
aS'26172512'
p1376
ag18
ag17
ag494
ag465
ag147
ag725
ag489
ag365
ag421
ag762
ag959
ag204
aS'66570705'
p1377
ag425
ag226
asg51
I1000
sg53
Nsg58
(iread_data
Room
p1378
(dp1379
g51
g182
sg56
g183
sbsg63
g281
sg65
I0
sg56
S'Lineaire Algebra'
p1380
sba(ischedule
Activity
p1381
(dp1382
g8
(lp1383
g1266
ag318
ag163
ag151
ag156
ag317
ag368
ag314
ag733
ag797
ag469
ag230
ag194
ag1267
ag635
ag476
ag1265
ag1261
ag651
ag1262
ag605
ag1264
ag926
ag1268
ag520
ag673
ag1263
ag573
ag928
ag526
ag88
ag485
ag276
asg51
g131
sg53
(ischedule
Group
p1384
(dp1385
g8
g1383
sg56
S'Reflectie op de digitale cultuur1'
p1386
sbsg58
(iread_data
Room
p1387
(dp1388
g51
g137
sg56
g138
sbsg63
g113
sg65
g248
sg56
g139
sba(ischedule
Activity
p1389
(dp1390
g8
(lp1391
g703
ag483
ag915
ag148
ag794
ag899
ag705
ag299
ag323
ag297
ag143
ag118
ag160
ag119
ag345
ag523
ag192
ag347
ag254
ag449
ag504
ag817
ag1035
ag708
ag497
ag224
ag419
ag1036
ag707
ag481
ag709
ag120
ag237
ag149
ag710
ag477
ag364
ag706
ag704
ag103
ag319
ag702
ag267
ag92
asg51
I1000
sg53
Nsg58
(iread_data
Room
p1392
(dp1393
g51
g211
sg56
g212
sbsg63
g281
sg65
I0
sg56
g717
sba(ischedule
Activity
p1394
(dp1395
g8
g775
sg51
g382
sg53
g779
sg58
(iread_data
Room
p1396
(dp1397
g51
g111
sg56
g112
sbsg63
g113
sg65
g66
sg56
g388
sbaa(lp1398
(ischedule
Activity
p1399
(dp1400
g8
(lp1401
g1089
ag255
ag835
ag656
ag468
ag550
ag676
ag316
aS'53139134'
p1402
ag1088
ag1135
ag483
ag191
ag504
ag323
ag438
ag1320
ag956
ag860
ag220
ag320
ag1179
ag239
ag155
ag289
aS'65978354'
p1403
ag315
ag854
ag790
ag488
ag1170
ag102
ag322
aS'23628642'
p1404
ag1316
ag605
ag925
ag198
ag462
ag195
ag474
aS'79888156'
p1405
ag1053
aS'22168693'
p1406
ag736
ag422
ag729
ag394
ag146
ag26
aS'82412626'
p1407
ag1024
aS'10609762'
p1408
ag1318
ag937
ag371
ag607
ag478
aS'75446434'
p1409
aS'19717077'
p1410
ag455
ag535
ag482
ag1317
ag727
ag1368
ag610
ag321
ag1319
ag40
ag35
ag233
ag519
ag225
ag674
ag1172
ag369
ag143
ag161
ag223
ag533
ag19
aS'6709529'
p1411
ag794
ag97
ag1321
ag799
ag634
ag319
ag1175
ag294
aS'72526473'
p1412
ag1322
ag104
ag728
ag95
aS'93361408'
p1413
ag381
ag12
ag158
ag312
ag624
ag868
ag413
ag677
ag1315
asg51
I1000
sg53
Nsg58
(iread_data
Room
p1414
(dp1415
g51
g61
sg56
g62
sbsg63
g281
sg65
I0
sg56
g1329
sba(ischedule
Activity
p1416
(dp1417
g8
g1260
sg51
I1000
sg53
Nsg58
(iread_data
Room
p1418
(dp1419
g51
g246
sg56
g247
sbsg63
g281
sg65
I0
sg56
g139
sba(ischedule
Activity
p1420
(dp1421
g8
(lp1422
g170
ag286
ag269
ag362
ag360
ag274
ag267
ag271
ag392
ag466
ag832
ag420
ag767
ag649
ag586
ag201
ag557
ag898
ag301
ag585
ag815
ag494
ag1250
ag1249
ag532
ag686
ag1180
ag465
asg51
g350
sg53
(ischedule
Group
p1423
(dp1424
g8
g1422
sg56
S'Software engineering2'
p1425
sbsg58
(iread_data
Room
p1426
(dp1427
g51
g137
sg56
g138
sbsg63
g64
sg65
g66
sg56
g356
sba(ischedule
Activity
p1428
(dp1429
g8
g1113
sg51
g509
sg53
g1114
sg58
(iread_data
Room
p1430
(dp1431
g51
g211
sg56
g212
sbsg63
g64
sg65
g184
sg56
g515
sbaa(lp1432
(ischedule
Activity
p1433
(dp1434
g8
g1352
sg51
g1196
sg53
g1353
sg58
(iread_data
Room
p1435
(dp1436
g51
g211
sg56
g212
sbsg63
g113
sg65
g248
sg56
g975
sba(ischedule
Activity
p1437
(dp1438
g8
(lp1439
g325
ag189
ag792
ag531
ag929
ag537
ag292
ag927
ag926
ag925
asg51
g818
sg53
(ischedule
Group
p1440
(dp1441
g8
g1439
sg56
S'Data Mining1'
p1442
sbsg58
(iread_data
Room
p1443
(dp1444
g51
g80
sg56
g81
sbsg63
g64
sg65
g248
sg56
g824
sba(ischedule
Activity
p1445
(dp1446
g8
(lp1447
g371
ag394
ag12
ag161
ag1412
ag323
ag504
ag1368
ag102
ag605
ag937
ag607
ag422
ag35
ag790
ag104
ag198
ag854
ag316
ag315
ag634
ag674
ag1410
ag1053
ag95
ag736
ag483
ag1403
ag289
ag1175
ag656
ag956
ag728
ag1407
ag1402
ag19
ag488
ag727
ag1405
ag799
ag191
ag1170
ag533
ag1413
ag455
ag413
asg51
g1323
sg53
(ischedule
Group
p1448
(dp1449
g8
g1447
sg56
S'Calculus 22'
p1450
sbsg58
(iread_data
Room
p1451
(dp1452
g51
g182
sg56
g183
sbsg63
g113
sg65
g66
sg56
g1329
sba(ischedule
Activity
p1453
(dp1454
g8
(lp1455
g485
ag200
ag16
ag194
ag326
aS'32183908'
p1456
ag538
ag313
ag219
ag468
ag796
ag14
ag324
ag30
ag710
ag521
aS'90103047'
p1457
ag29
ag1265
ag21
ag331
ag218
ag402
aS'19662602'
p1458
aS'63939720'
p1459
ag853
aS'21070547'
p1460
aS'40911986'
p1461
ag1267
ag272
aS'81116418'
p1462
aS'37419523'
p1463
asg51
g869
sg53
(ischedule
Group
p1464
(dp1465
g8
g1455
sg56
S'Project Numerical Recipes1'
p1466
sbsg58
(iread_data
Room
p1467
(dp1468
g51
g137
sg56
g138
sbsg63
g64
sg65
g248
sg56
g875
sba(ischedule
Activity
p1469
(dp1470
g8
(lp1471
g1404
ag519
ag225
ag381
ag610
ag794
ag462
ag143
ag1411
ag860
ag474
ag1408
ag624
ag1089
ag1409
ag1406
ag535
ag1088
ag158
ag239
ag438
ag294
ag155
ag369
ag97
ag835
asg51
g1323
sg53
(ischedule
Group
p1472
(dp1473
g8
g1471
sg56
S'Calculus 21'
p1474
sbsg58
(iread_data
Room
p1475
(dp1476
g51
g246
sg56
g247
sbsg63
g113
sg65
g248
sg56
g1329
sba(ischedule
Activity
p1477
(dp1478
g8
g1422
sg51
g1217
sg53
g1423
sg58
(iread_data
Room
p1479
(dp1480
g51
g61
sg56
g62
sbsg63
g113
sg65
g66
sg56
g356
sba(ischedule
Activity
p1481
(dp1482
g8
(lp1483
g478
ag481
ag334
ag17
ag13
ag453
ag651
ag126
asg51
g403
sg53
(ischedule
Group
p1484
(dp1485
g8
g1483
sg56
S'Netwerken en systeembeveiliging1'
p1486
sbsg58
(iread_data
Room
p1487
(dp1488
g51
g111
sg56
g112
sbsg63
g64
sg65
g248
sg56
g409
sbaa(lp1489
(ischedule
Activity
p1490
(dp1491
g8
g997
sg51
I1000
sg53
Nsg58
(iread_data
Room
p1492
(dp1493
g51
g61
sg56
g62
sbsg63
g281
sg65
I0
sg56
g388
sba(ischedule
Activity
p1494
(dp1495
g8
g1344
sg51
g1279
sg53
g1345
sg58
(iread_data
Room
p1496
(dp1497
g51
g111
sg56
g112
sbsg63
g64
sg65
g248
sg56
g629
sba(ischedule
Activity
p1498
(dp1499
g8
(lp1500
g127
ag160
ag100
ag93
ag449
ag455
ag506
ag556
ag550
ag103
ag504
ag168
ag505
ag958
ag539
ag229
ag1090
ag1088
ag194
ag188
ag221
ag151
ag451
ag1091
ag635
ag585
ag25
ag914
ag525
ag40
ag1089
ag1087
ag202
ag868
ag634
asg51
g738
sg53
(ischedule
Group
p1501
(dp1502
g8
g1500
sg56
S'Databases 21'
p1503
sbsg58
(iread_data
Room
p1504
(dp1505
g51
g211
sg56
g212
sbsg63
g113
sg65
g248
sg56
g744
sba(ischedule
Activity
p1506
(dp1507
g8
g1365
sg51
I1000
sg53
Nsg58
(iread_data
Room
p1508
(dp1509
g51
g182
sg56
g183
sbsg63
g281
sg65
I0
sg56
g1380
sba(ischedule
Activity
p1510
(dp1511
g8
g1077
sg51
I1000
sg53
Nsg58
(iread_data
Room
p1512
(dp1513
g51
g137
sg56
g138
sbsg63
g281
sg65
I0
sg56
g1083
sba(ischedule
Activity
p1514
(dp1515
g8
g1439
sg51
g1222
sg53
g1440
sg58
(iread_data
Room
p1516
(dp1517
g51
g80
sg56
g81
sbsg63
g113
sg65
g248
sg56
g824
sba(ischedule
Activity
p1518
(dp1519
g8
g1306
sg51
g1255
sg53
g1307
sg58
(iread_data
Room
p1520
(dp1521
g51
g246
sg56
g247
sbsg63
g113
sg65
g248
sg56
g67
sbaaa(lp1522
(lp1523
a(lp1524
a(lp1525
a(lp1526
a(lp1527
aasS'timeslot_dict'
p1528
(dp1529
I0
S'9:00-11:00'
p1530
sI1
S'11:00-13:00'
p1531
sI2
S'13:00-15:00'
p1532
sI3
S'15:00-17:00'
p1533
sI4
S'17:00-19:00'
p1534
ssS'day_dict'
p1535
(dp1536
I0
S'Monday'
p1537
sI1
S'Tuesday'
p1538
sI2
S'Wednesday'
p1539
sI3
S'Thursday'
p1540
sI4
S'Friday'
p1541
ssb.