(ischedule
Schedule
p0
(dp1
S'timetable'
p2
(lp3
(lp4
(lp5
(ischedule
Activity
p6
(dp7
S'participants'
p8
(lp9
S'87758823'
p10
aS'17222374'
p11
aS'23547619'
p12
aS'9332762'
p13
aS'68601184'
p14
aS'3233378'
p15
aS'50184318'
p16
aS'34773179'
p17
aS'96104167'
p18
aS'45556081'
p19
aS'7308727'
p20
aS'48601268'
p21
aS'1665980'
p22
aS'86291592'
p23
aS'46052388'
p24
aS'61443567'
p25
aS'1696500'
p26
aS'54310617'
p27
aS'43027916'
p28
aS'97135019'
p29
aS'26406342'
p30
aS'53107172'
p31
aS'50143947'
p32
aS'58522654'
p33
aS'73980360'
p34
aS'15902055'
p35
aS'17575088'
p36
aS'42778953'
p37
aS'64228258'
p38
aS'77896638'
p39
aS'64393888'
p40
aS'64296965'
p41
aS'86000192'
p42
aS'65960683'
p43
aS'35330349'
p44
aS'29640619'
p45
aS'4783858'
p46
aS'60312776'
p47
aS'5517869'
p48
aS'76123484'
p49
aS'37770881'
p50
aS'22699561'
p51
aS'28357474'
p52
aS'1075391'
p53
aS'25106480'
p54
aS'13534377'
p55
aS'21964491'
p56
aS'29474737'
p57
aS'77240949'
p58
aS'42196732'
p59
aS'33760909'
p60
aS'82689818'
p61
aS'31416266'
p62
aS'57595888'
p63
aS'13092455'
p64
aS'42171678'
p65
aS'62701040'
p66
aS'51741554'
p67
aS'24277163'
p68
aS'72577292'
p69
aS'75521763'
p70
asS'capacity'
p71
I1000
sS'group'
p72
NsS'room'
p73
(iread_data
Room
p74
(dp75
g71
S'117'
p76
sS'name'
p77
S'C0.110'
p78
sbsS'ttype'
p79
S'lectures'
p80
sS'group_id'
p81
I0
sg77
S'Collectieve Intelligentie'
p82
sba(ischedule
Activity
p83
(dp84
g8
(lp85
S'3474870'
p86
aS'77376714'
p87
aS'81385263'
p88
aS'12077419'
p89
aS'58592894'
p90
aS'86988337'
p91
aS'52715680'
p92
aS'78136904'
p93
aS'64554442'
p94
aS'23983476'
p95
aS'51509565'
p96
aS'8522855'
p97
aS'14671406'
p98
aS'34765676'
p99
aS'3707829'
p100
aS'40343779'
p101
asg71
S'25'
p102
sg72
(ischedule
Group
p103
(dp104
g8
g85
sg77
S'Algoritmen en complexiteit2'
p105
sbsg73
(iread_data
Room
p106
(dp107
g71
S'56'
p108
sg77
S'A1.10'
p109
sbsg79
S'tutorials'
p110
sg81
S'2'
p111
sg77
S'Algoritmen en complexiteit'
p112
sba(ischedule
Activity
p113
(dp114
g8
(lp115
S'22323043'
p116
aS'17823206'
p117
aS'13116738'
p118
aS'19337738'
p119
aS'51566595'
p120
aS'45414528'
p121
aS'52311353'
p122
aS'99453514'
p123
aS'93023961'
p124
aS'74131924'
p125
aS'98780382'
p126
aS'37110913'
p127
aS'97136582'
p128
aS'66122625'
p129
aS'70878567'
p130
aS'25330192'
p131
aS'87314964'
p132
aS'81022997'
p133
aS'37744525'
p134
aS'81200278'
p135
ag56
aS'91196968'
p136
ag32
aS'13996448'
p137
aS'68360259'
p138
aS'87900893'
p139
aS'59753700'
p140
asg71
I1000
sg72
Nsg73
(iread_data
Room
p141
(dp142
g71
S'48'
p143
sg77
S'B0.201'
p144
sbsg79
g80
sg81
I0
sg77
S'Data Mining'
p145
sba(ischedule
Activity
p146
(dp147
g8
(lp148
S'85335143'
p149
aS'68315599'
p150
aS'14309255'
p151
aS'48308205'
p152
aS'41578612'
p153
aS'11996292'
p154
aS'36785409'
p155
aS'43680781'
p156
aS'31194811'
p157
aS'93041523'
p158
ag127
aS'77264363'
p159
aS'77636749'
p160
aS'75664412'
p161
aS'12430748'
p162
aS'4697362'
p163
aS'7106649'
p164
aS'21192048'
p165
asg71
S'20'
p166
sg72
(ischedule
Group
p167
(dp168
g8
g148
sg77
S'Technology for games1'
p169
sbsg73
(iread_data
Room
p170
(dp171
g71
S'20'
p172
sg77
S'A1.08'
p173
sbsg79
g110
sg81
S'1'
p174
sg77
S'Technology for games'
p175
sba(ischedule
Activity
p176
(dp177
g8
(lp178
S'58040377'
p179
aS'26260141'
p180
aS'86180471'
p181
aS'79888156'
p182
aS'10792879'
p183
aS'14303208'
p184
aS'65408517'
p185
aS'58699305'
p186
aS'55530367'
p187
aS'53585410'
p188
aS'87602030'
p189
aS'27298319'
p190
aS'58469172'
p191
aS'46570285'
p192
aS'77306636'
p193
aS'47932106'
p194
aS'46701583'
p195
aS'27064249'
p196
aS'9731271'
p197
aS'27187154'
p198
aS'14591033'
p199
aS'21029457'
p200
aS'47477884'
p201
aS'74182182'
p202
asg71
S'40'
p203
sg72
(ischedule
Group
p204
(dp205
g8
g178
sg77
S'Calculus 23'
p206
sbsg73
(iread_data
Room
p207
(dp208
g71
S'41'
p209
sg77
S'A1.04'
p210
sbsg79
g110
sg81
S'3'
p211
sg77
S'Calculus 2'
p212
sba(ischedule
Activity
p213
(dp214
g8
(lp215
S'75446434'
p216
aS'75623387'
p217
aS'16097870'
p218
aS'73302736'
p219
aS'72665524'
p220
aS'53139134'
p221
aS'75585647'
p222
aS'63634350'
p223
aS'78544592'
p224
aS'61520025'
p225
aS'72526473'
p226
aS'62105897'
p227
aS'88855695'
p228
aS'34173695'
p229
aS'22168693'
p230
aS'83415514'
p231
aS'96054456'
p232
aS'12091019'
p233
aS'82412626'
p234
aS'38296757'
p235
aS'64600457'
p236
aS'56872729'
p237
aS'10609762'
p238
aS'80188025'
p239
aS'62363761'
p240
aS'6913074'
p241
aS'73823548'
p242
aS'4546613'
p243
aS'6709529'
p244
asg71
g203
sg72
(ischedule
Group
p245
(dp246
g8
g215
sg77
S'Calculus 21'
p247
sbsg73
(iread_data
Room
p248
(dp249
g71
S'60'
p250
sg77
S'C1.112'
p251
sbsg79
g110
sg81
g174
sg77
g212
sba(ischedule
Activity
p252
(dp253
g8
(lp254
S'10149535'
p255
aS'34872117'
p256
aS'23798155'
p257
aS'20331158'
p258
aS'59289233'
p259
aS'29718115'
p260
aS'72683344'
p261
aS'83266686'
p262
aS'13798030'
p263
ag61
aS'58866007'
p264
aS'89180944'
p265
aS'14138904'
p266
aS'43460038'
p267
aS'70015932'
p268
ag69
aS'27925117'
p269
ag19
aS'40434933'
p270
aS'49683101'
p271
aS'28618400'
p272
asg71
I1000
sg72
Nsg73
(iread_data
Room
p273
(dp274
g71
S'22'
p275
sg77
S'A1.06'
p276
sbsg79
g80
sg81
I0
sg77
S'Architectuur en computerorganisatie'
p277
sbaa(lp278
(ischedule
Activity
p279
(dp280
g8
(lp281
S'38499176'
p282
aS'31247305'
p283
aS'59544049'
p284
aS'84110134'
p285
aS'3685034'
p286
aS'39230359'
p287
ag136
aS'79366078'
p288
ag183
aS'61518436'
p289
ag98
ag160
aS'51186803'
p290
aS'5368702'
p291
aS'47605891'
p292
aS'84524083'
p293
aS'94955328'
p294
aS'82688900'
p295
ag97
aS'63955238'
p296
aS'34262212'
p297
aS'78735049'
p298
aS'20239127'
p299
aS'11915563'
p300
aS'5615125'
p301
aS'44940353'
p302
ag258
ag197
ag198
ag117
aS'42115591'
p303
aS'20883994'
p304
aS'41585485'
p305
aS'41527759'
p306
ag192
aS'63408522'
p307
aS'34243356'
p308
aS'79858178'
p309
aS'65003379'
p310
aS'72547110'
p311
ag257
aS'49631542'
p312
aS'47462856'
p313
aS'10872825'
p314
aS'59075181'
p315
aS'38329455'
p316
aS'56749879'
p317
aS'22731474'
p318
aS'55474917'
p319
aS'32705005'
p320
ag191
aS'54569540'
p321
aS'89338938'
p322
aS'18266644'
p323
aS'97371272'
p324
aS'24875739'
p325
aS'39919665'
p326
aS'51542218'
p327
ag199
ag58
aS'81218347'
p328
ag223
aS'7492204'
p329
aS'56988998'
p330
ag93
aS'58332004'
p331
aS'91139627'
p332
aS'36903574'
p333
aS'94467156'
p334
aS'76924297'
p335
aS'31633723'
p336
ag41
aS'28957789'
p337
aS'37498675'
p338
ag27
aS'14398123'
p339
aS'69086548'
p340
aS'99272880'
p341
aS'23391676'
p342
ag33
ag202
aS'39659121'
p343
aS'97019450'
p344
ag232
asg71
I1000
sg72
Nsg73
(iread_data
Room
p345
(dp346
g71
g76
sg77
g78
sbsg79
g80
sg81
I0
sg77
S'Kansrekenen 2'
p347
sba(ischedule
Activity
p348
(dp349
g8
g9
sg71
I1000
sg72
Nsg73
(iread_data
Room
p350
(dp351
g71
g250
sg77
g251
sbsg79
g80
sg81
I0
sg77
g82
sba(ischedule
Activity
p352
(dp353
g8
(lp354
g125
aS'53202517'
p355
aS'73236988'
p356
aS'6723948'
p357
aS'66120270'
p358
ag130
aS'33877725'
p359
aS'14816774'
p360
aS'24613625'
p361
aS'247918'
p362
aS'33930505'
p363
ag241
ag33
aS'11068043'
p364
aS'22826928'
p365
aS'5298748'
p366
asg71
S'20'
p367
sg72
(ischedule
Group
p368
(dp369
g8
g354
sg77
S'Bioinformatica3'
p370
sbsg73
(iread_data
Room
p371
(dp372
g71
g108
sg77
g109
sbsg79
S'labs'
p373
sg81
g211
sg77
S'Bioinformatica'
p374
sba(ischedule
Activity
p375
(dp376
g8
(lp377
g127
aS'44901052'
p378
ag120
aS'88627897'
p379
aS'54026378'
p380
aS'72796858'
p381
asg71
S'10'
p382
sg72
(ischedule
Group
p383
(dp384
g8
g377
sg77
S'Autonomous Agents 23'
p385
sbsg73
(iread_data
Room
p386
(dp387
g71
g143
sg77
g144
sbsg79
g373
sg81
g211
sg77
S'Autonomous Agents 2'
p388
sba(ischedule
Activity
p389
(dp390
g8
(lp391
g218
aS'61611295'
p392
ag190
aS'70113753'
p393
asg71
g382
sg72
(ischedule
Group
p394
(dp395
g8
g391
sg77
S'Autonomous Agents 21'
p396
sbsg73
(iread_data
Room
p397
(dp398
g71
g172
sg77
g173
sbsg79
g373
sg81
g174
sg77
g388
sbaa(lp399
(ischedule
Activity
p400
(dp401
g8
(lp402
g304
aS'28359697'
p403
ag360
ag200
ag317
ag380
ag366
aS'88176729'
p404
ag241
aS'56815156'
p405
ag363
ag199
ag232
ag284
ag125
aS'30195935'
p406
ag318
ag355
ag365
aS'15051051'
p407
ag156
ag358
ag149
aS'3168419'
p408
aS'44868097'
p409
ag135
aS'4568018'
p410
ag56
ag359
ag20
aS'89985072'
p411
ag364
aS'77831658'
p412
ag362
aS'79617364'
p413
ag357
aS'30050930'
p414
ag361
ag130
aS'29526540'
p415
ag59
ag356
ag33
aS'96453361'
p416
ag236
asg71
I1000
sg72
Nsg73
(iread_data
Room
p417
(dp418
g71
g143
sg77
g144
sbsg79
g80
sg81
I0
sg77
g374
sba(ischedule
Activity
p419
(dp420
g8
(lp421
g120
ag35
ag22
ag32
ag61
ag56
ag195
ag190
ag180
ag188
aS'91527663'
p422
aS'57467488'
p423
aS'43902015'
p424
aS'21095566'
p425
aS'19540225'
p426
aS'72895450'
p427
ag306
aS'67817269'
p428
aS'23652927'
p429
aS'64947290'
p430
aS'66433883'
p431
aS'44828429'
p432
ag416
aS'5976174'
p433
ag305
aS'88596522'
p434
ag333
asg71
S'25'
p435
sg72
(ischedule
Group
p436
(dp437
g8
g421
sg77
S'Algoritmen en complexiteit1'
p438
sbsg73
(iread_data
Room
p439
(dp440
g71
g209
sg77
g210
sbsg79
g373
sg81
g174
sg77
g112
sba(ischedule
Activity
p441
(dp442
g8
(lp443
g11
ag68
ag48
ag331
ag312
aS'4709948'
p444
aS'78443067'
p445
aS'78821918'
p446
aS'36748818'
p447
aS'70072978'
p448
aS'36527838'
p449
aS'3883025'
p450
ag70
aS'33776961'
p451
aS'13911001'
p452
aS'96082155'
p453
aS'18144425'
p454
ag231
aS'51650744'
p455
ag16
aS'27916487'
p456
ag224
aS'27241113'
p457
aS'75997788'
p458
aS'30658799'
p459
ag186
asg71
S'20'
p460
sg72
(ischedule
Group
p461
(dp462
g8
g443
sg77
S'Moderne Databases3'
p463
sbsg73
(iread_data
Room
p464
(dp465
g71
g250
sg77
g251
sbsg79
g373
sg81
g211
sg77
S'Moderne Databases'
p466
sba(ischedule
Activity
p467
(dp468
g8
(lp469
g23
ag42
ag44
ag47
asg71
S'20'
p470
sg72
(ischedule
Group
p471
(dp472
g8
g469
sg77
S'Collectieve Intelligentie4'
p473
sbsg73
(iread_data
Room
p474
(dp475
g71
g275
sg77
g276
sbsg79
g373
sg81
S'4'
p476
sg77
g82
sba(ischedule
Activity
p477
(dp478
g8
(lp479
g64
aS'42406214'
p480
aS'87830198'
p481
aS'36213792'
p482
ag299
aS'84449005'
p483
aS'60352393'
p484
aS'68286356'
p485
aS'60661905'
p486
aS'27950803'
p487
aS'51415617'
p488
ag127
asg71
S'20'
p489
sg72
(ischedule
Group
p490
(dp491
g8
g479
sg77
S'Reflectie op de digitale cultuur2'
p492
sbsg73
(iread_data
Room
p493
(dp494
g71
g108
sg77
g109
sbsg79
g110
sg81
g111
sg77
S'Reflectie op de digitale cultuur'
p495
sba(ischedule
Activity
p496
(dp497
g8
g85
sg71
g435
sg72
g103
sg73
(iread_data
Room
p498
(dp499
g71
g172
sg77
g173
sbsg79
g373
sg81
g111
sg77
g112
sbaa(lp500
(ischedule
Activity
p501
(dp502
g8
(lp503
g122
aS'5085194'
p504
ag257
aS'82854435'
p505
aS'56544130'
p506
ag405
aS'72586808'
p507
aS'5595824'
p508
aS'58480929'
p509
aS'88737765'
p510
aS'33672995'
p511
ag41
ag323
ag303
ag239
aS'97838175'
p512
aS'22871048'
p513
aS'57086672'
p514
aS'23658570'
p515
ag308
aS'14637758'
p516
ag446
aS'65318664'
p517
ag219
aS'4921119'
p518
ag218
aS'73350019'
p519
ag153
ag486
ag344
ag412
ag327
aS'78822885'
p520
aS'34900967'
p521
ag294
ag481
aS'18477924'
p522
ag155
aS'62613937'
p523
ag149
aS'23565001'
p524
aS'72456780'
p525
aS'13718298'
p526
aS'70193386'
p527
aS'48678993'
p528
aS'83443653'
p529
ag28
ag458
aS'48357272'
p530
asg71
I1000
sg72
Nsg73
(iread_data
Room
p531
(dp532
g71
g250
sg77
g251
sbsg79
g80
sg81
I0
sg77
S'Analysemethoden en -technieken'
p533
sba(ischedule
Activity
p534
(dp535
g8
(lp536
g150
ag331
aS'13658563'
p537
ag118
aS'11459236'
p538
aS'19958553'
p539
aS'92977271'
p540
aS'23257088'
p541
ag260
aS'32204977'
p542
aS'17496687'
p543
ag95
ag222
ag130
asg71
S'15'
p544
sg72
(ischedule
Group
p545
(dp546
g8
g536
sg77
S'Informatie- en organisatieontwerp1'
p547
sbsg73
(iread_data
Room
p548
(dp549
g71
g108
sg77
g109
sbsg79
g373
sg81
g174
sg77
S'Informatie- en organisatieontwerp'
p550
sba(ischedule
Activity
p551
(dp552
g8
g469
sg71
S'20'
p553
sg72
g471
sg73
(iread_data
Room
p554
(dp555
g71
g172
sg77
g173
sbsg79
g110
sg81
g476
sg77
g82
sba(ischedule
Activity
p556
(dp557
g8
(lp558
S'14847953'
p559
ag99
aS'21677389'
p560
aS'76661016'
p561
ag100
aS'65675896'
p562
aS'37399898'
p563
aS'93566383'
p564
ag135
aS'28055464'
p565
aS'38179241'
p566
ag243
aS'19214659'
p567
aS'81155296'
p568
aS'69634191'
p569
aS'37701751'
p570
aS'20374340'
p571
ag432
aS'2550487'
p572
aS'64768422'
p573
ag88
ag291
ag335
aS'66034145'
p574
ag12
asg71
I1000
sg72
Nsg73
(iread_data
Room
p575
(dp576
g71
g209
sg77
g210
sbsg79
g80
sg81
I0
sg77
S'Interactie-ontwerp'
p577
sba(ischedule
Activity
p578
(dp579
g8
(lp580
g20
ag30
ag49
ag13
ag61
ag70
ag48
ag17
ag65
ag18
ag56
ag25
ag38
ag16
ag11
ag19
ag69
ag36
ag22
ag32
ag50
ag59
ag51
ag39
ag43
ag33
ag67
ag37
ag29
ag55
ag35
ag27
ag66
ag62
ag31
ag34
ag40
ag14
ag57
ag52
ag15
asg71
g470
sg72
(ischedule
Group
p581
(dp582
g8
g580
sg77
S'Collectieve Intelligentie3'
p583
sbsg73
(iread_data
Room
p584
(dp585
g71
g76
sg77
g78
sbsg79
g373
sg81
g211
sg77
g82
sba(ischedule
Activity
p586
(dp587
g8
(lp588
S'63111000'
p589
ag198
ag58
ag235
aS'67625383'
p590
ag195
ag257
aS'40791377'
p591
ag334
aS'26857113'
p592
aS'39459642'
p593
ag330
ag134
aS'90067329'
p594
ag433
aS'33252501'
p595
ag407
ag271
ag289
ag286
aS'2079771'
p596
aS'85236626'
p597
asg71
I1000
sg72
Nsg73
(iread_data
Room
p598
(dp599
g71
g143
sg77
g144
sbsg79
g80
sg81
I0
sg77
S'Machine Learning'
p600
sba(ischedule
Activity
p601
(dp602
g8
g377
sg71
S'10'
p603
sg72
g383
sg73
(iread_data
Room
p604
(dp605
g71
g275
sg77
g276
sbsg79
g110
sg81
g211
sg77
g388
sbaa(lp606
(ischedule
Activity
p607
(dp608
g8
(lp609
g514
ag25
aS'78243495'
p610
ag28
ag318
ag135
aS'99975346'
p611
ag293
ag60
ag218
aS'72652638'
p612
aS'58736785'
p613
ag223
ag597
aS'52304977'
p614
aS'15249775'
p615
ag269
ag133
aS'35315956'
p616
aS'670011'
p617
ag528
aS'83869542'
p618
ag189
ag120
ag179
asg71
S'20'
p619
sg72
(ischedule
Group
p620
(dp621
g8
g609
sg77
S'Heuristieken 21'
p622
sbsg73
(iread_data
Room
p623
(dp624
g71
g250
sg77
g251
sbsg79
g110
sg81
g174
sg77
S'Heuristieken 2'
p625
sba(ischedule
Activity
p626
(dp627
g8
(lp628
g92
ag91
ag305
ag422
ag431
ag56
ag188
ag195
ag93
ag416
ag427
ag86
ag101
ag87
ag120
ag434
ag428
ag32
ag97
ag99
ag35
ag423
ag22
ag61
ag424
ag88
ag94
ag432
ag429
ag95
ag433
ag430
ag425
ag306
ag90
ag98
ag426
ag89
ag190
ag333
ag100
ag96
ag180
asg71
I1000
sg72
Nsg73
(iread_data
Room
p629
(dp630
g71
g143
sg77
g144
sbsg79
g80
sg81
I0
sg77
g112
sba(ischedule
Activity
p631
(dp632
g8
g443
sg71
S'20'
p633
sg72
g461
sg73
(iread_data
Room
p634
(dp635
g71
g209
sg77
g210
sbsg79
g110
sg81
g211
sg77
g466
sba(ischedule
Activity
p636
(dp637
g8
(lp638
g161
ag13
ag270
ag165
ag378
ag89
ag159
ag154
aS'14383795'
p639
ag542
aS'58565406'
p640
ag149
ag116
ag150
ag127
ag155
ag340
ag158
aS'92496780'
p641
ag151
ag30
ag157
ag70
ag324
aS'6249823'
p642
ag163
ag164
ag255
aS'76487754'
p643
ag152
ag162
ag12
aS'47982619'
p644
ag153
aS'70336464'
p645
ag322
ag156
ag160
asg71
I1000
sg72
Nsg73
(iread_data
Room
p646
(dp647
g71
g108
sg77
g109
sbsg79
g80
sg81
I0
sg77
g175
sba(ischedule
Activity
p648
(dp649
g8
g354
sg71
S'20'
p650
sg72
g368
sg73
(iread_data
Room
p651
(dp652
g71
g172
sg77
g173
sbsg79
g110
sg81
g211
sg77
g374
sba(ischedule
Activity
p653
(dp654
g8
(lp655
g20
ag284
ag232
ag412
ag304
ag199
ag317
ag414
ag406
ag236
ag403
ag415
ag410
ag409
ag380
asg71
g367
sg72
(ischedule
Group
p656
(dp657
g8
g655
sg77
S'Bioinformatica1'
p658
sbsg73
(iread_data
Room
p659
(dp660
g71
g76
sg77
g78
sbsg79
g373
sg81
g174
sg77
g374
sba(ischedule
Activity
p661
(dp662
g8
(lp663
S'45915482'
p664
ag379
ag49
asg71
S'15'
p665
sg72
(ischedule
Group
p666
(dp667
g8
g663
sg77
S'Zoeken sturen en bewegen1'
p668
sbsg73
(iread_data
Room
p669
(dp670
g71
g275
sg77
g276
sbsg79
g373
sg81
g174
sg77
S'Zoeken sturen en bewegen'
p671
sbaaa(lp672
(lp673
(ischedule
Activity
p674
(dp675
g8
(lp676
g66
ag543
ag537
ag540
ag323
ag130
ag331
ag260
ag538
ag160
ag150
ag542
ag70
aS'8557857'
p677
ag222
ag541
ag118
ag447
ag539
ag95
ag378
asg71
I1000
sg72
Nsg73
(iread_data
Room
p678
(dp679
g71
g76
sg77
g78
sbsg79
g80
sg81
I0
sg77
g550
sba(ischedule
Activity
p680
(dp681
g8
g588
sg71
I1000
sg72
Nsg73
(iread_data
Room
p682
(dp683
g71
g275
sg77
g276
sbsg79
g80
sg81
I0
sg77
g600
sba(ischedule
Activity
p684
(dp685
g8
(lp686
g355
ag574
aS'94930277'
p687
ag359
ag427
ag559
ag196
aS'16333449'
p688
aS'67073567'
p689
ag287
ag25
aS'49908313'
p690
ag514
aS'1137946'
p691
aS'28358060'
p692
aS'41790793'
p693
aS'69459473'
p694
ag184
ag424
aS'53512831'
p695
asg71
S'20'
p696
sg72
(ischedule
Group
p697
(dp698
g8
g686
sg77
S'Webprogrammeren en databases1'
p699
sbsg73
(iread_data
Room
p700
(dp701
g71
g172
sg77
g173
sbsg79
g110
sg81
g174
sg77
S'Webprogrammeren en databases'
p702
sba(ischedule
Activity
p703
(dp704
g8
(lp705
g35
ag60
ag139
ag29
ag42
ag149
ag46
ag90
ag38
ag67
aS'3678531'
p706
ag262
ag255
ag515
ag269
ag409
aS'93361408'
p707
ag357
ag301
ag524
ag568
aS'40141996'
p708
ag325
ag360
ag337
aS'86807027'
p709
ag298
aS'55412918'
p710
ag566
aS'58253841'
p711
aS'59220392'
p712
ag561
aS'19717077'
p713
ag445
aS'79167252'
p714
ag320
aS'31306819'
p715
ag664
ag506
aS'37279234'
p716
aS'70939718'
p717
aS'94686490'
p718
ag511
aS'23628642'
p719
aS'56348773'
p720
aS'65978354'
p721
aS'6939933'
p722
aS'11593163'
p723
aS'14179347'
p724
ag413
aS'88752563'
p725
ag530
ag458
asg71
g203
sg72
(ischedule
Group
p726
(dp727
g8
g705
sg77
S'Calculus 22'
p728
sbsg73
(iread_data
Room
p729
(dp730
g71
g250
sg77
g251
sbsg79
g110
sg81
g111
sg77
g212
sba(ischedule
Activity
p731
(dp732
g8
(lp733
g125
ag190
ag378
ag48
aS'68409833'
p734
ag218
ag381
aS'34806836'
p735
ag393
aS'36508571'
p736
ag380
ag379
ag392
ag127
aS'52552718'
p737
ag120
aS'62356458'
p738
aS'62872965'
p739
aS'19858730'
p740
ag300
ag593
ag513
asg71
I1000
sg72
Nsg73
(iread_data
Room
p741
(dp742
g71
g143
sg77
g144
sbsg79
g80
sg81
I0
sg77
g388
sba(ischedule
Activity
p743
(dp744
g8
(lp745
S'80709893'
p746
ag303
ag122
ag32
aS'83210352'
p747
aS'61060652'
p748
ag319
ag116
ag151
aS'75599734'
p749
ag517
aS'95631564'
p750
ag610
ag283
ag54
ag356
ag322
ag227
ag285
aS'1048485'
p751
ag410
ag267
ag98
ag425
aS'58074656'
p752
ag185
aS'14072826'
p753
aS'27582862'
p754
asg71
S'40'
p755
sg72
(ischedule
Group
p756
(dp757
g8
g745
sg77
S'Software engineering1'
p758
sbsg73
(iread_data
Room
p759
(dp760
g71
g209
sg77
g210
sbsg79
g373
sg81
g174
sg77
S'Software engineering'
p761
sbaa(lp762
(ischedule
Activity
p763
(dp764
g8
(lp765
g150
ag88
ag152
ag37
ag39
aS'92665222'
p766
aS'11741347'
p767
ag487
ag561
ag47
aS'9067939'
p768
ag357
aS'76802764'
p769
ag452
ag300
ag89
ag308
ag725
aS'46989508'
p770
aS'8464817'
p771
ag361
ag459
aS'95007221'
p772
aS'48503689'
p773
aS'88636924'
p774
ag256
ag749
aS'34110913'
p775
ag157
aS'44391517'
p776
ag591
asg71
S'40'
p777
sg72
(ischedule
Group
p778
(dp779
g8
g765
sg77
S'Compilerbouw2'
p780
sbsg73
(iread_data
Room
p781
(dp782
g71
g209
sg77
g210
sbsg79
g110
sg81
g111
sg77
S'Compilerbouw'
p783
sba(ischedule
Activity
p784
(dp785
g8
(lp786
S'98105190'
p787
ag183
ag198
ag291
ag33
ag293
ag427
ag355
ag381
ag714
aS'75759231'
p788
aS'65852230'
p789
aS'66701209'
p790
aS'43689934'
p791
ag593
ag596
ag151
ag262
ag750
aS'79033175'
p792
ag508
ag161
aS'1766560'
p793
aS'80135353'
p794
ag228
ag23
ag91
aS'94687383'
p795
aS'2317551'
p796
aS'3407554'
p797
ag43
aS'15911353'
p798
ag271
aS'54772132'
p799
ag356
ag50
aS'7957843'
p800
aS'13284244'
p801
asg71
S'40'
p802
sg72
(ischedule
Group
p803
(dp804
g8
g786
sg77
S'Compilerbouw1'
p805
sbsg73
(iread_data
Room
p806
(dp807
g71
g76
sg77
g78
sbsg79
g373
sg81
g174
sg77
g783
sba(ischedule
Activity
p808
(dp809
g8
g655
sg71
g650
sg72
g656
sg73
(iread_data
Room
p810
(dp811
g71
g172
sg77
g173
sbsg79
g110
sg81
g174
sg77
g374
sba(ischedule
Activity
p812
(dp813
g8
(lp814
g559
ag201
ag709
ag196
ag458
ag484
aS'1886996'
p815
ag272
ag220
ag12
ag93
ag523
aS'70844780'
p816
aS'40633534'
p817
ag408
asg71
S'10'
p818
sg72
(ischedule
Group
p819
(dp820
g8
g814
sg77
S'Advanced Heuristics1'
p821
sbsg73
(iread_data
Room
p822
(dp823
g71
g143
sg77
g144
sbsg79
g373
sg81
g174
sg77
S'Advanced Heuristics'
p824
sba(ischedule
Activity
p825
(dp826
g8
g115
sg71
I1000
sg72
Nsg73
(iread_data
Room
p827
(dp828
g71
g108
sg77
g109
sbsg79
g80
sg81
I0
sg77
g145
sba(ischedule
Activity
p829
(dp830
g8
(lp831
g38
ag301
ag69
aS'77392404'
p832
ag610
aS'17092717'
p833
aS'2416751'
p834
aS'20618153'
p835
ag267
ag265
aS'76648468'
p836
aS'76903244'
p837
aS'24891081'
p838
ag642
ag49
aS'22288615'
p839
aS'10698627'
p840
ag86
ag270
asg71
g696
sg72
(ischedule
Group
p841
(dp842
g8
g831
sg77
S'Webprogrammeren en databases2'
p843
sbsg73
(iread_data
Room
p844
(dp845
g71
g250
sg77
g251
sbsg79
g110
sg81
g111
sg77
g702
sbaa(lp846
(ischedule
Activity
p847
(dp848
g8
(lp849
g152
aS'75005528'
p850
ag23
aS'63573738'
p851
ag133
aS'37419523'
p852
ag285
ag322
ag318
ag480
ag709
aS'21070547'
p853
ag738
ag801
ag364
asg71
S'15'
p854
sg72
(ischedule
Group
p855
(dp856
g8
g849
sg77
S'Project Numerical Recipes3'
p857
sbsg73
(iread_data
Room
p858
(dp859
g71
g108
sg77
g109
sbsg79
g373
sg81
g211
sg77
S'Project Numerical Recipes'
p860
sba(ischedule
Activity
p861
(dp862
g8
g580
sg71
g553
sg72
g581
sg73
(iread_data
Room
p863
(dp864
g71
g209
sg77
g210
sbsg79
g110
sg81
g211
sg77
g82
sba(ischedule
Activity
p865
(dp866
g8
(lp867
g832
ag365
ag68
aS'27370083'
p868
aS'77960666'
p869
ag289
ag321
ag286
ag514
aS'20095994'
p870
ag123
aS'27805666'
p871
ag451
ag537
ag513
ag155
ag91
asg71
g489
sg72
(ischedule
Group
p872
(dp873
g8
g867
sg77
S'Reflectie op de digitale cultuur1'
p874
sbsg73
(iread_data
Room
p875
(dp876
g71
g76
sg77
g78
sbsg79
g110
sg81
g174
sg77
g495
sba(ischedule
Activity
p877
(dp878
g8
(lp879
g154
ag151
ag610
ag87
ag90
ag415
ag150
ag793
ag407
ag149
aS'41489515'
p880
aS'48198668'
p881
ag262
ag313
aS'49219163'
p882
ag265
aS'99283252'
p883
aS'66621166'
p884
aS'13218321'
p885
aS'1181560'
p886
asg71
g460
sg72
(ischedule
Group
p887
(dp888
g8
g879
sg77
S'Moderne Databases1'
p889
sbsg73
(iread_data
Room
p890
(dp891
g71
g250
sg77
g251
sbsg79
g373
sg81
g174
sg77
g466
sba(ischedule
Activity
p892
(dp893
g8
(lp894
g58
ag12
ag41
ag60
ag64
ag24
ag21
ag53
ag10
ag26
ag28
ag46
ag54
ag45
ag63
asg71
g553
sg72
(ischedule
Group
p895
(dp896
g8
g894
sg77
S'Collectieve Intelligentie1'
p897
sbsg73
(iread_data
Room
p898
(dp899
g71
g172
sg77
g173
sbsg79
g110
sg81
g174
sg77
g82
sba(ischedule
Activity
p900
(dp901
g8
(lp902
g241
ag527
aS'51052738'
p903
ag293
ag526
aS'82390428'
p904
ag140
aS'96554914'
p905
ag366
ag816
ag93
ag235
ag444
ag156
ag92
aS'92778619'
p906
ag611
ag563
ag153
aS'32044893'
p907
aS'90474003'
p908
aS'49922855'
p909
asg71
g489
sg72
(ischedule
Group
p910
(dp911
g8
g902
sg77
S'Reflectie op de digitale cultuur3'
p912
sbsg73
(iread_data
Room
p913
(dp914
g71
g143
sg77
g144
sbsg79
g110
sg81
g211
sg77
g495
sba(ischedule
Activity
p915
(dp916
g8
(lp917
g754
ag319
aS'85284256'
p918
asg71
S'20'
p919
sg72
(ischedule
Group
p920
(dp921
g8
g917
sg77
S'Programmeren in Java 25'
p922
sbsg73
(iread_data
Room
p923
(dp924
g71
g275
sg77
g276
sbsg79
g373
sg81
S'5'
p925
sg77
S'Programmeren in Java 2'
p926
sbaa(lp927
(ischedule
Activity
p928
(dp929
g8
(lp930
g320
ag337
ag218
ag198
ag35
ag183
ag413
ag228
ag192
ag90
ag706
ag445
ag238
ag721
ag506
ag202
ag60
ag217
ag707
ag236
ag301
ag716
ag229
ag357
ag230
ag196
ag710
ag269
ag561
ag185
ag216
ag221
ag722
ag201
ag511
ag200
ag149
ag715
ag712
ag237
ag566
ag242
ag180
ag190
ag179
ag241
ag725
ag38
ag409
ag222
ag719
ag199
ag139
ag67
ag243
ag232
ag235
ag194
ag515
ag181
ag530
ag723
ag244
ag709
ag225
ag360
ag325
ag724
ag187
ag524
ag193
ag195
ag708
ag713
ag233
ag720
ag188
ag219
ag186
ag46
ag255
ag298
ag568
ag184
ag718
ag239
ag711
ag234
ag714
ag191
ag458
ag262
ag227
ag182
ag220
ag664
ag223
ag717
ag197
ag42
ag29
ag240
ag231
ag226
ag189
ag224
asg71
I1000
sg72
Nsg73
(iread_data
Room
p931
(dp932
g71
g76
sg77
g78
sbsg79
g80
sg81
I0
sg77
g212
sba(ischedule
Activity
p933
(dp934
g8
(lp935
g300
ag125
ag513
ag593
ag48
ag740
ag739
ag734
ag738
ag736
ag737
ag735
asg71
g382
sg72
(ischedule
Group
p936
(dp937
g8
g935
sg77
S'Autonomous Agents 22'
p938
sbsg73
(iread_data
Room
p939
(dp940
g71
g108
sg77
g109
sbsg79
g373
sg81
g111
sg77
g388
sba(ischedule
Activity
p941
(dp942
g8
(lp943
g32
aS'47260040'
p944
aS'51472074'
p945
ag542
ag92
ag63
ag504
asg71
S'15'
p946
sg72
(ischedule
Group
p947
(dp948
g8
g943
sg77
S'Compilerbouw practicum2'
p949
sbsg73
(iread_data
Room
p950
(dp951
g71
g275
sg77
g276
sbsg79
g373
sg81
g111
sg77
S'Compilerbouw practicum'
p952
sba(ischedule
Activity
p953
(dp954
g8
(lp955
g127
ag140
ag131
ag130
ag134
ag138
asg71
S'10'
p956
sg72
(ischedule
Group
p957
(dp958
g8
g955
sg77
S'Data Mining3'
p959
sbsg73
(iread_data
Room
p960
(dp961
g71
g250
sg77
g251
sbsg79
g110
sg81
g211
sg77
g145
sba(ischedule
Activity
p962
(dp963
g8
(lp964
g834
ag359
ag355
ag427
ag832
ag837
ag689
ag196
ag693
ag610
ag835
ag514
ag69
ag694
ag833
ag838
ag690
ag839
ag840
ag687
ag574
ag267
ag49
ag86
ag270
ag559
ag424
ag287
ag265
ag301
ag691
ag642
ag688
ag836
ag25
ag38
ag695
ag692
ag184
asg71
I1000
sg72
Nsg73
(iread_data
Room
p965
(dp966
g71
g143
sg77
g144
sbsg79
g80
sg81
I0
sg77
g702
sba(ischedule
Activity
p967
(dp968
g8
(lp969
g68
asg71
g470
sg72
(ischedule
Group
p970
(dp971
g8
g969
sg77
S'Collectieve Intelligentie2'
p972
sbsg73
(iread_data
Room
p973
(dp974
g71
g172
sg77
g173
sbsg79
g373
sg81
g111
sg77
g82
sba(ischedule
Activity
p975
(dp976
g8
(lp977
g136
ag118
ag126
ag122
ag135
asg71
S'10'
p978
sg72
(ischedule
Group
p979
(dp980
g8
g977
sg77
S'Data Mining1'
p981
sbsg73
(iread_data
Room
p982
(dp983
g71
g209
sg77
g210
sbsg79
g373
sg81
g174
sg77
g145
sbaa(lp984
(ischedule
Activity
p985
(dp986
g8
g964
sg71
I1000
sg72
Nsg73
(iread_data
Room
p987
(dp988
g71
g209
sg77
g210
sbsg79
g80
sg81
I0
sg77
g702
sba(ischedule
Activity
p989
(dp990
g8
g765
sg71
g802
sg72
g778
sg73
(iread_data
Room
p991
(dp992
g71
g108
sg77
g109
sbsg79
g373
sg81
g111
sg77
g783
sba(ischedule
Activity
p993
(dp994
g8
(lp995
g737
ag617
ag28
ag45
ag618
ag120
aS'4529208'
p996
ag484
ag718
aS'5526560'
p997
aS'56121590'
p998
aS'54540997'
p999
ag908
ag415
aS'59397895'
p1000
ag68
ag30
ag11
aS'58083680'
p1001
ag518
ag242
ag90
ag181
ag233
ag869
aS'25077484'
p1002
ag237
ag448
ag194
ag381
aS'13132925'
p1003
ag593
ag430
ag360
aS'15187217'
p1004
asg71
S'40'
p1005
sg72
(ischedule
Group
p1006
(dp1007
g8
g995
sg77
S'Databases 22'
p1008
sbsg73
(iread_data
Room
p1009
(dp1010
g71
g143
sg77
g144
sbsg79
g110
sg81
g111
sg77
S'Databases 2'
p1011
sba(ischedule
Activity
p1012
(dp1013
g8
g281
sg71
I1000
sg72
Nsg73
(iread_data
Room
p1014
(dp1015
g71
g76
sg77
g78
sbsg79
g80
sg81
I0
sg77
g347
sba(ischedule
Activity
p1016
(dp1017
g8
(lp1018
g116
ag70
ag787
ag378
ag740
ag26
ag410
ag530
ag458
aS'76393508'
p1019
aS'97417002'
p1020
ag129
aS'4353500'
p1021
ag31
ag748
aS'31897288'
p1022
ag513
ag154
asg71
S'25'
p1023
sg72
(ischedule
Group
p1024
(dp1025
g8
g1018
sg77
S'Heuristieken 12'
p1026
sbsg73
(iread_data
Room
p1027
(dp1028
g71
g250
sg77
g251
sbsg79
g110
sg81
g111
sg77
S'Heuristieken 1'
p1029
sba(ischedule
Activity
p1030
(dp1031
g8
g955
sg71
g978
sg72
g957
sg73
(iread_data
Room
p1032
(dp1033
g71
g275
sg77
g276
sbsg79
g373
sg81
g211
sg77
g145
sba(ischedule
Activity
p1034
(dp1035
g8
(lp1036
g149
ag135
ag416
ag56
ag156
ag59
ag407
ag404
ag408
ag413
ag411
ag405
ag318
ag200
asg71
g367
sg72
(ischedule
Group
p1037
(dp1038
g8
g1036
sg77
S'Bioinformatica2'
p1039
sbsg73
(iread_data
Room
p1040
(dp1041
g71
g172
sg77
g173
sbsg79
g373
sg81
g111
sg77
g374
sbaaa(lp1042
(lp1043
(ischedule
Activity
p1044
(dp1045
g8
(lp1046
S'90743504'
p1047
aS'21311067'
p1048
aS'32595335'
p1049
ag202
ag850
ag747
ag748
ag199
ag518
aS'96118484'
p1050
ag617
ag564
aS'16011419'
p1051
ag44
ag734
ag152
ag237
ag449
ag303
aS'66570705'
p1052
ag308
ag294
ag413
aS'54074680'
p1053
ag86
ag746
ag62
ag122
aS'34588570'
p1054
ag524
ag264
ag10
ag218
aS'79937969'
p1055
ag739
ag48
aS'80998260'
p1056
aS'26172512'
p1057
ag37
ag710
aS'71839156'
p1058
ag39
ag736
ag136
ag688
ag282
ag88
ag718
ag59
ag153
ag255
ag328
ag319
ag563
asg71
I1000
sg72
Nsg73
(iread_data
Room
p1059
(dp1060
g71
g76
sg77
g78
sbsg79
g80
sg81
I0
sg77
S'Lineaire Algebra'
p1061
sba(ischedule
Activity
p1062
(dp1063
g8
(lp1064
g87
ag149
ag882
ag446
ag610
ag262
ag457
ag886
ag150
ag312
ag450
ag11
ag236
ag331
ag883
ag154
aS'59111489'
p1065
ag455
ag885
ag459
ag68
ag48
ag156
ag16
ag192
ag231
ag449
ag265
ag451
ag90
ag415
ag453
ag70
ag767
ag458
ag313
ag151
ag65
ag444
ag447
ag483
ag454
ag880
ag884
ag186
ag407
ag456
ag452
ag589
ag224
ag448
ag793
ag881
ag445
asg71
I1000
sg72
Nsg73
(iread_data
Room
p1066
(dp1067
g71
g108
sg77
g109
sbsg79
g80
sg81
I0
sg77
g466
sba(ischedule
Activity
p1068
(dp1069
g8
(lp1070
g563
ag299
ag289
ag366
ag482
ag514
ag93
ag481
ag483
ag365
ag905
ag451
ag140
ag908
ag156
ag153
ag484
ag906
ag832
ag909
ag870
ag486
ag64
ag155
ag235
ag868
ag127
ag286
ag321
ag444
ag91
ag869
ag241
ag526
ag513
ag871
ag537
ag907
ag485
ag293
ag611
ag480
ag487
ag904
ag68
ag488
ag903
ag92
ag123
ag816
ag527
asg71
I1000
sg72
Nsg73
(iread_data
Room
p1071
(dp1072
g71
g250
sg77
g251
sbsg79
g80
sg81
I0
sg77
g495
sba(ischedule
Activity
p1073
(dp1074
g8
(lp1075
g116
ag89
ag30
ag12
ag13
ag270
ag70
ag639
ag642
ag640
ag255
ag542
ag340
ag645
ag324
ag643
ag644
ag322
ag378
ag641
asg71
g166
sg72
(ischedule
Group
p1076
(dp1077
g8
g1075
sg77
S'Technology for games2'
p1078
sbsg73
(iread_data
Room
p1079
(dp1080
g71
g143
sg77
g144
sbsg79
g110
sg81
g111
sg77
g175
sba(ischedule
Activity
p1081
(dp1082
g8
g421
sg71
g102
sg72
g436
sg73
(iread_data
Room
p1083
(dp1084
g71
g209
sg77
g210
sbsg79
g110
sg81
g174
sg77
g112
sba(ischedule
Activity
p1085
(dp1086
g8
(lp1087
g304
ag69
ag766
ag261
aS'39429093'
p1088
asg71
g818
sg72
(ischedule
Group
p1089
(dp1090
g8
g1087
sg77
S'Advanced Heuristics2'
p1091
sbsg73
(iread_data
Room
p1092
(dp1093
g71
g172
sg77
g173
sbsg79
g373
sg81
g111
sg77
g824
sbaa(lp1094
(ischedule
Activity
p1095
(dp1096
g8
g686
sg71
S'20'
p1097
sg72
g697
sg73
(iread_data
Room
p1098
(dp1099
g71
g209
sg77
g210
sbsg79
g373
sg81
g174
sg77
g702
sba(ischedule
Activity
p1100
(dp1101
g8
(lp1102
g800
ag378
ag283
aS'25557516'
p1103
aS'62736669'
p1104
aS'53267490'
p1105
ag315
ag29
ag61
aS'56191333'
p1106
ag333
ag134
ag358
aS'82872148'
p1107
aS'535689'
p1108
ag133
ag67
aS'59887191'
p1109
ag507
aS'16912993'
p1110
ag128
ag832
asg71
S'20'
p1111
sg72
(ischedule
Group
p1112
(dp1113
g8
g1102
sg77
S'Netwerken en systeembeveiliging2'
p1114
sbsg73
(iread_data
Room
p1115
(dp1116
g71
g76
sg77
g78
sbsg79
g373
sg81
g111
sg77
S'Netwerken en systeembeveiliging'
p1117
sba(ischedule
Activity
p1118
(dp1119
g8
(lp1120
g883
ag153
ag724
ag483
ag335
ag339
ag790
ag269
aS'51673172'
p1121
aS'25994016'
p1122
ag997
aS'75680261'
p1123
ag334
ag446
asg71
S'15'
p1124
sg72
(ischedule
Group
p1125
(dp1126
g8
g1120
sg77
S'Project Genetic Algorithms3'
p1127
sbsg73
(iread_data
Room
p1128
(dp1129
g71
g275
sg77
g276
sbsg79
g373
sg81
g211
sg77
S'Project Genetic Algorithms'
p1130
sba(ischedule
Activity
p1131
(dp1132
g8
g1036
sg71
g650
sg72
g1037
sg73
(iread_data
Room
p1133
(dp1134
g71
g172
sg77
g173
sbsg79
g110
sg81
g111
sg77
g374
sba(ischedule
Activity
p1135
(dp1136
g8
g935
sg71
g603
sg72
g936
sg73
(iread_data
Room
p1137
(dp1138
g71
g108
sg77
g109
sbsg79
g110
sg81
g111
sg77
g388
sba(ischedule
Activity
p1139
(dp1140
g8
g536
sg71
S'15'
p1141
sg72
g545
sg73
(iread_data
Room
p1142
(dp1143
g71
g250
sg77
g251
sbsg79
g110
sg81
g174
sg77
g550
sba(ischedule
Activity
p1144
(dp1145
g8
(lp1146
g88
ag1021
ag45
ag101
ag525
ag26
ag484
ag450
aS'26207525'
p1147
ag816
aS'64246605'
p1148
ag161
ag751
ag851
ag799
ag363
ag998
aS'5590289'
p1149
ag406
ag97
ag197
aS'123355'
p1150
ag423
ag308
ag481
asg71
g1111
sg72
(ischedule
Group
p1151
(dp1152
g8
g1146
sg77
S'Netwerken en systeembeveiliging3'
p1153
sbsg73
(iread_data
Room
p1154
(dp1155
g71
g143
sg77
g144
sbsg79
g373
sg81
g211
sg77
g1117
sbaa(lp1156
(ischedule
Activity
p1157
(dp1158
g8
(lp1159
g1002
ag120
ag422
ag737
ag270
ag68
ag725
ag39
ag541
ag504
ag518
ag515
ag408
ag570
ag45
ag833
ag1003
ag317
ag1001
ag448
ag49
ag41
ag256
ag242
ag381
ag593
ag1000
ag1106
ag154
ag424
ag48
ag11
ag770
ag617
ag1004
ag996
ag312
ag30
ag1104
ag64
ag618
ag908
ag869
ag423
ag1147
ag430
ag998
ag59
ag999
ag484
ag362
ag327
ag360
ag525
ag91
ag90
ag28
ag850
ag718
ag415
ag61
ag232
ag201
ag331
ag446
ag997
ag194
ag181
aS'27123462'
p1160
ag237
ag708
ag233
asg71
I1000
sg72
Nsg73
(iread_data
Room
p1161
(dp1162
g71
g76
sg77
g78
sbsg79
g80
sg81
I0
sg77
g1011
sba(ischedule
Activity
p1163
(dp1164
g8
(lp1165
g134
ag359
ag737
ag380
ag433
ag334
ag513
ag738
ag46
ag409
ag445
aS'41153310'
p1166
ag664
ag300
ag243
ag284
ag905
ag734
ag87
ag219
ag526
ag640
ag487
ag15
ag265
ag336
aS'31103066'
p1167
ag411
ag101
aS'51593625'
p1168
ag268
aS'9287708'
p1169
ag530
ag404
ag92
ag45
ag364
ag306
ag52
ag47
ag21
ag883
aS'37830626'
p1170
ag180
aS'3727435'
p1171
ag1107
aS'44671041'
p1172
asg71
g755
sg72
(ischedule
Group
p1173
(dp1174
g8
g1165
sg77
S'Software engineering2'
p1175
sbsg73
(iread_data
Room
p1176
(dp1177
g71
g108
sg77
g109
sbsg79
g373
sg81
g111
sg77
g761
sba(ischedule
Activity
p1178
(dp1179
g8
g745
sg71
S'40'
p1180
sg72
g756
sg73
(iread_data
Room
p1181
(dp1182
g71
g209
sg77
g210
sbsg79
g110
sg81
g174
sg77
g761
sba(ischedule
Activity
p1183
(dp1184
g8
(lp1185
g135
ag131
ag272
ag918
ag220
ag444
ag282
ag339
ag240
ag23
ag528
aS'12170832'
p1186
ag717
ag20
aS'19058315'
p1187
asg71
g1111
sg72
(ischedule
Group
p1188
(dp1189
g8
g1185
sg77
S'Netwerken en systeembeveiliging1'
p1190
sbsg73
(iread_data
Room
p1191
(dp1192
g71
g250
sg77
g251
sbsg79
g373
sg81
g174
sg77
g1117
sba(ischedule
Activity
p1193
(dp1194
g8
(lp1195
g156
ag483
ag236
ag65
ag767
ag1065
ag589
ag192
asg71
g460
sg72
(ischedule
Group
p1196
(dp1197
g8
g1195
sg77
S'Moderne Databases2'
p1198
sbsg73
(iread_data
Room
p1199
(dp1200
g71
g143
sg77
g144
sbsg79
g373
sg81
g111
sg77
g466
sba(ischedule
Activity
p1201
(dp1202
g8
(lp1203
g323
ag560
asg71
g1111
sg72
(ischedule
Group
p1204
(dp1205
g8
g1203
sg77
S'Netwerken en systeembeveiliging4'
p1206
sbsg73
(iread_data
Room
p1207
(dp1208
g71
g172
sg77
g173
sbsg79
g373
sg81
g476
sg77
g1117
sba(ischedule
Activity
p1209
(dp1210
g8
(lp1211
g540
ag564
asg71
g919
sg72
(ischedule
Group
p1212
(dp1213
g8
g1211
sg77
S'Programmeren in Java 21'
p1214
sbsg73
(iread_data
Room
p1215
(dp1216
g71
g275
sg77
g276
sbsg79
g373
sg81
g174
sg77
g926
sbaa(lp1217
(ischedule
Activity
p1218
(dp1219
g8
(lp1220
g47
ag452
ag308
ag725
ag796
ag596
ag427
ag750
ag293
ag794
ag593
ag561
ag152
ag508
ag788
ag150
ag459
ag89
ag228
ag749
ag43
ag50
ag356
ag714
ag767
ag775
ag774
ag789
ag381
ag798
ag795
ag88
ag766
ag770
ag799
ag773
ag361
ag183
ag797
ag300
ag591
ag776
ag487
ag151
ag23
ag91
ag198
ag787
ag771
ag790
ag769
ag262
ag157
ag39
ag768
ag291
ag772
ag33
ag801
ag792
ag37
ag791
ag161
ag271
ag357
ag355
ag800
ag256
ag793
asg71
I1000
sg72
Nsg73
(iread_data
Room
p1221
(dp1222
g71
g76
sg77
g78
sbsg79
g80
sg81
I0
sg77
g783
sba(ischedule
Activity
p1223
(dp1224
g8
(lp1225
g687
ag127
ag199
ag328
ag344
ag315
ag333
ag317
ag258
ag360
ag1058
ag613
ag537
aS'53775014'
p1226
ag529
ag423
ag709
ag266
ag65
aS'45660925'
p1227
aS'20830477'
p1228
ag46
ag540
aS'79879876'
p1229
aS'14941752'
p1230
aS'87210640'
p1231
asg71
g1023
sg72
(ischedule
Group
p1232
(dp1233
g8
g1225
sg77
S'Heuristieken 11'
p1234
sbsg73
(iread_data
Room
p1235
(dp1236
g71
g250
sg77
g251
sbsg79
g110
sg81
g174
sg77
g1029
sba(ischedule
Activity
p1237
(dp1238
g8
(lp1239
g120
ag32
ag125
ag56
ag139
ag124
ag137
ag117
ag133
ag132
ag121
ag116
ag119
ag128
ag129
ag123
asg71
g978
sg72
(ischedule
Group
p1240
(dp1241
g8
g1239
sg77
S'Data Mining2'
p1242
sbsg73
(iread_data
Room
p1243
(dp1244
g71
g275
sg77
g276
sbsg79
g373
sg81
g111
sg77
g145
sba(ischedule
Activity
p1245
(dp1246
g8
(lp1247
g241
ag869
ag839
ag541
ag430
ag834
ag341
aS'90296821'
p1248
asg71
g919
sg72
(ischedule
Group
p1249
(dp1250
g8
g1247
sg77
S'Programmeren in Java 26'
p1251
sbsg73
(iread_data
Room
p1252
(dp1253
g71
g143
sg77
g144
sbsg79
g373
sg81
S'6'
p1254
sg77
g926
sba(ischedule
Activity
p1255
(dp1256
g8
(lp1257
g323
ag70
ag378
ag66
ag160
ag447
ag677
asg71
g544
sg72
(ischedule
Group
p1258
(dp1259
g8
g1257
sg77
S'Informatie- en organisatieontwerp2'
p1260
sbsg73
(iread_data
Room
p1261
(dp1262
g71
g108
sg77
g109
sbsg79
g373
sg81
g111
sg77
g550
sba(ischedule
Activity
p1263
(dp1264
g8
g391
sg71
g603
sg72
g394
sg73
(iread_data
Room
p1265
(dp1266
g71
g209
sg77
g210
sbsg79
g110
sg81
g174
sg77
g388
sba(ischedule
Activity
p1267
(dp1268
g8
(lp1269
g30
aS'44151631'
p1270
ag184
ag22
aS'82066165'
p1271
ag364
ag282
ag639
aS'55103073'
p1272
aS'42297781'
p1273
ag410
ag1108
ag562
asg71
g946
sg72
(ischedule
Group
p1274
(dp1275
g8
g1269
sg77
S'Compilerbouw practicum1'
p1276
sbsg73
(iread_data
Room
p1277
(dp1278
g71
g172
sg77
g173
sbsg79
g373
sg81
g174
sg77
g952
sbaa(lp1279
(ischedule
Activity
p1280
(dp1281
g8
g9
sg71
I1000
sg72
Nsg73
(iread_data
Room
p1282
(dp1283
g71
g76
sg77
g78
sbsg79
g80
sg81
I0
sg77
g82
sba(ischedule
Activity
p1284
(dp1285
g8
g1070
sg71
I1000
sg72
Nsg73
(iread_data
Room
p1286
(dp1287
g71
g108
sg77
g109
sbsg79
g80
sg81
I0
sg77
g495
sba(ischedule
Activity
p1288
(dp1289
g8
g879
sg71
g633
sg72
g887
sg73
(iread_data
Room
p1290
(dp1291
g71
g209
sg77
g210
sbsg79
g110
sg81
g174
sg77
g466
sba(ischedule
Activity
p1292
(dp1293
g8
(lp1294
g411
ag220
ag266
ag188
aS'5892092'
p1295
ag1058
aS'74361881'
p1296
ag1122
aS'23215240'
p1297
ag223
ag797
aS'41644639'
p1298
ag434
ag341
ag452
aS'64418623'
p1299
aS'1695839'
p1300
ag1121
aS'91250534'
p1301
ag538
asg71
g946
sg72
(ischedule
Group
p1302
(dp1303
g8
g1294
sg77
S'Compilerbouw practicum3'
p1304
sbsg73
(iread_data
Room
p1305
(dp1306
g71
g275
sg77
g276
sbsg79
g373
sg81
g211
sg77
g952
sba(ischedule
Activity
p1307
(dp1308
g8
(lp1309
g433
ag99
ag164
aS'5739011'
p1310
aS'82968410'
p1311
ag1022
ag815
asg71
g619
sg72
(ischedule
Group
p1312
(dp1313
g8
g1309
sg77
S'Heuristieken 22'
p1314
sbsg73
(iread_data
Room
p1315
(dp1316
g71
g172
sg77
g173
sbsg79
g110
sg81
g111
sg77
g625
sba(ischedule
Activity
p1317
(dp1318
g8
g733
sg71
I1000
sg72
Nsg73
(iread_data
Room
p1319
(dp1320
g71
g143
sg77
g144
sbsg79
g80
sg81
I0
sg77
g388
sba(ischedule
Activity
p1321
(dp1322
g8
g977
sg71
g956
sg72
g979
sg73
(iread_data
Room
p1323
(dp1324
g71
g250
sg77
g251
sbsg79
g110
sg81
g174
sg77
g145
sbaaa(lp1325
(lp1326
(ischedule
Activity
p1327
(dp1328
g8
g1220
sg71
I1000
sg72
Nsg73
(iread_data
Room
p1329
(dp1330
g71
g76
sg77
g78
sbsg79
g80
sg81
I0
sg77
g783
sba(ischedule
Activity
p1331
(dp1332
g8
g402
sg71
I1000
sg72
Nsg73
(iread_data
Room
p1333
(dp1334
g71
g108
sg77
g109
sbsg79
g80
sg81
I0
sg77
g374
sba(ischedule
Activity
p1335
(dp1336
g8
g558
sg71
I1000
sg72
Nsg73
(iread_data
Room
p1337
(dp1338
g71
g209
sg77
g210
sbsg79
g80
sg81
I0
sg77
g577
sba(ischedule
Activity
p1339
(dp1340
g8
(lp1341
g315
ag360
ag787
ag1231
ag1229
ag709
ag1058
ag266
ag1226
ag116
ag1227
ag1228
ag1021
ag530
ag317
ag258
ag537
ag199
ag687
ag748
ag154
ag1019
ag344
ag513
ag46
ag1230
ag333
ag129
ag31
ag65
ag529
ag740
ag1022
ag540
ag423
ag70
ag410
ag328
ag613
ag458
ag378
ag26
ag127
ag1020
asg71
I1000
sg72
Nsg73
(iread_data
Room
p1342
(dp1343
g71
g143
sg77
g144
sbsg79
g80
sg81
I0
sg77
g1029
sba(ischedule
Activity
p1344
(dp1345
g8
g831
sg71
g1097
sg72
g841
sg73
(iread_data
Room
p1346
(dp1347
g71
g250
sg77
g251
sbsg79
g373
sg81
g111
sg77
g702
sbaa(lp1348
(ischedule
Activity
p1349
(dp1350
g8
(lp1351
g334
ag734
ag749
ag752
ag364
ag1170
ag883
ag754
ag746
ag356
ag219
ag284
ag409
ag1167
ag180
ag905
ag151
ag134
ag336
ag265
ag303
ag283
ag98
ag92
ag122
ag751
ag526
ag1107
ag15
ag300
ag268
ag359
ag32
ag737
ag610
ag267
ag410
ag517
ag285
ag380
ag747
ag1168
ag738
ag750
ag411
ag322
ag52
ag433
ag1171
ag243
ag748
ag185
ag101
ag404
ag87
ag530
ag45
ag640
ag513
ag47
ag1172
ag54
ag46
ag306
ag319
ag425
ag664
ag487
ag1169
ag227
ag116
ag753
ag21
ag1166
ag445
asg71
I1000
sg72
Nsg73
(iread_data
Room
p1352
(dp1353
g71
g76
sg77
g78
sbsg79
g80
sg81
I0
sg77
g761
sba(ischedule
Activity
p1354
(dp1355
g8
(lp1356
g12
ag355
ag357
ag407
ag768
ag712
ag403
ag100
ag1109
ag337
ag711
ag563
ag405
ag150
ag537
ag296
ag190
ag996
ag906
ag140
aS'24167153'
p1357
ag1298
aS'88597745'
p1358
aS'57419039'
p1359
aS'13210212'
p1360
ag29
ag118
aS'57701414'
p1361
ag10
ag484
aS'82233873'
p1362
aS'37804282'
p1363
ag776
ag65
ag512
asg71
g665
sg72
(ischedule
Group
p1364
(dp1365
g8
g1356
sg77
S'Zoeken sturen en bewegen2'
p1366
sbsg73
(iread_data
Room
p1367
(dp1368
g71
g250
sg77
g251
sbsg79
g373
sg81
g111
sg77
g671
sba(ischedule
Activity
p1369
(dp1370
g8
g1257
sg71
g1141
sg72
g1258
sg73
(iread_data
Room
p1371
(dp1372
g71
g172
sg77
g173
sbsg79
g110
sg81
g111
sg77
g550
sba(ischedule
Activity
p1373
(dp1374
g8
(lp1375
g270
ag833
ag39
ag317
ag424
ag327
ag312
ag232
ag49
ag41
ag331
ag423
ag48
ag725
ag408
ag64
ag708
ag362
ag1160
ag770
ag446
ag201
ag570
ag504
ag91
ag61
ag515
ag1106
ag422
ag59
ag256
ag1104
ag850
ag525
ag1147
ag154
ag541
asg71
g1005
sg72
(ischedule
Group
p1376
(dp1377
g8
g1375
sg77
S'Databases 21'
p1378
sbsg73
(iread_data
Room
p1379
(dp1380
g71
g143
sg77
g144
sbsg79
g110
sg81
g174
sg77
g1011
sba(ischedule
Activity
p1381
(dp1382
g8
(lp1383
g617
ag614
ag293
ag1311
ag269
ag528
ag616
ag28
ag179
ag433
ag514
ag610
ag218
ag611
ag133
ag1310
ag25
ag618
ag815
ag612
ag1022
ag120
ag597
ag318
ag164
ag223
ag60
ag99
ag135
ag613
ag189
ag615
asg71
I1000
sg72
Nsg73
(iread_data
Room
p1384
(dp1385
g71
g209
sg77
g210
sbsg79
g80
sg81
I0
sg77
g625
sba(ischedule
Activity
p1386
(dp1387
g8
(lp1388
g202
ag572
aS'90103047'
p1389
ag272
ag412
ag162
ag567
ag242
aS'19662602'
p1390
aS'32183908'
p1391
ag773
asg71
g854
sg72
(ischedule
Group
p1392
(dp1393
g8
g1388
sg77
S'Project Numerical Recipes1'
p1394
sbsg73
(iread_data
Room
p1395
(dp1396
g71
g275
sg77
g276
sbsg79
g373
sg81
g174
sg77
g860
sba(ischedule
Activity
p1397
(dp1398
g8
(lp1399
g908
aS'33946407'
p1400
ag449
ag416
asg71
g665
sg72
(ischedule
Group
p1401
(dp1402
g8
g1399
sg77
S'Zoeken sturen en bewegen3'
p1403
sbsg73
(iread_data
Room
p1404
(dp1405
g71
g108
sg77
g109
sbsg79
g373
sg81
g211
sg77
g671
sbaa(lp1406
(ischedule
Activity
p1407
(dp1408
g8
(lp1409
g20
ag47
ag64
ag907
ag725
ag356
ag800
ag722
ag1230
ag286
aS'81116418'
p1410
ag137
ag793
aS'34691309'
p1411
ag37
aS'40911986'
p1412
ag427
aS'63939720'
p1413
asg71
g854
sg72
(ischedule
Group
p1414
(dp1415
g8
g1409
sg77
S'Project Numerical Recipes2'
p1416
sbsg73
(iread_data
Room
p1417
(dp1418
g71
g275
sg77
g276
sbsg79
g373
sg81
g111
sg77
g860
sba(ischedule
Activity
p1419
(dp1420
g8
g638
sg71
I1000
sg72
Nsg73
(iread_data
Room
p1421
(dp1422
g71
g143
sg77
g144
sbsg79
g80
sg81
I0
sg77
g175
sba(ischedule
Activity
p1423
(dp1424
g8
(lp1425
g597
ag56
ag357
ag232
aS'73893840'
p1426
ag117
ag45
ag40
ag236
ag906
ag795
ag1297
ag706
ag179
ag317
ag136
ag365
ag25
ag329
ag840
aS'7386961'
p1427
ag35
ag334
ag197
ag14
ag23
ag227
ag709
aS'88263855'
p1428
aS'73196865'
p1429
ag95
aS'63096281'
p1430
ag344
aS'51791169'
p1431
ag751
ag42
ag1229
aS'28943658'
p1432
ag589
ag393
ag563
asg71
g919
sg72
(ischedule
Group
p1433
(dp1434
g8
g1425
sg77
S'Programmeren in Java 24'
p1435
sbsg73
(iread_data
Room
p1436
(dp1437
g71
g108
sg77
g109
sbsg79
g373
sg81
g476
sg77
g926
sba(ischedule
Activity
p1438
(dp1439
g8
(lp1440
g97
ag54
ag561
ag17
ag1271
ag50
aS'55480737'
p1441
ag711
ag1298
ag528
ag694
ag510
ag189
ag195
ag361
ag1002
ag1296
ag487
asg71
g1124
sg72
(ischedule
Group
p1442
(dp1443
g8
g1440
sg77
S'Project Genetic Algorithms1'
p1444
sbsg73
(iread_data
Room
p1445
(dp1446
g71
g209
sg77
g210
sbsg79
g373
sg81
g174
sg77
g1130
sba(ischedule
Activity
p1447
(dp1448
g8
g969
sg71
g553
sg72
g970
sg73
(iread_data
Room
p1449
(dp1450
g71
g250
sg77
g251
sbsg79
g110
sg81
g111
sg77
g82
sbaa(lp1451
(ischedule
Activity
p1452
(dp1453
g8
(lp1454
g297
ag714
ag191
aS'10702778'
p1455
ag91
ag331
ag444
ag1166
ag1358
ag305
ag796
ag486
asg71
g919
sg72
(ischedule
Group
p1456
(dp1457
g8
g1454
sg77
S'Programmeren in Java 23'
p1458
sbsg73
(iread_data
Room
p1459
(dp1460
g71
g172
sg77
g173
sbsg79
g373
sg81
g211
sg77
g926
sba(ischedule
Activity
p1461
(dp1462
g8
(lp1463
g799
ag835
ag195
ag137
ag282
ag188
ag448
ag776
ag1228
ag773
ag201
aS'12782624'
p1464
ag231
ag198
ag451
ag62
ag134
ag794
ag223
ag592
ag294
ag716
aS'54395877'
p1465
ag572
ag521
ag13
ag518
ag39
ag515
ag771
ag1168
ag617
aS'88519892'
p1466
aS'39905995'
p1467
ag593
ag431
ag644
aS'64053722'
p1468
ag333
ag615
ag342
ag1172
ag66
ag121
asg71
g919
sg72
(ischedule
Group
p1469
(dp1470
g8
g1463
sg77
S'Programmeren in Java 22'
p1471
sbsg73
(iread_data
Room
p1472
(dp1473
g71
g143
sg77
g144
sbsg79
g373
sg81
g111
sg77
g926
sba(ischedule
Activity
p1474
(dp1475
g8
(lp1476
g181
ag734
ag481
ag817
asg71
g1124
sg72
(ischedule
Group
p1477
(dp1478
g8
g1476
sg77
S'Project Genetic Algorithms2'
p1479
sbsg73
(iread_data
Room
p1480
(dp1481
g71
g209
sg77
g210
sbsg79
g373
sg81
g111
sg77
g1130
sba(ischedule
Activity
p1482
(dp1483
g8
g402
sg71
I1000
sg72
Nsg73
(iread_data
Room
p1484
(dp1485
g71
g250
sg77
g251
sbsg79
g80
sg81
I0
sg77
g374
sba(ischedule
Activity
p1486
(dp1487
g8
g894
sg71
g470
sg72
g895
sg73
(iread_data
Room
p1488
(dp1489
g71
g108
sg77
g109
sbsg79
g373
sg81
g174
sg77
g82
sba(ischedule
Activity
p1490
(dp1491
g8
g254
sg71
I1000
sg72
Nsg73
(iread_data
Room
p1492
(dp1493
g71
g76
sg77
g78
sbsg79
g80
sg81
I0
sg77
g277
sbaa(lp1494
(ischedule
Activity
p1495
(dp1496
g8
g1239
sg71
g956
sg72
g1240
sg73
(iread_data
Room
p1497
(dp1498
g71
g108
sg77
g109
sbsg79
g110
sg81
g111
sg77
g145
sba(ischedule
Activity
p1499
(dp1500
g8
g1165
sg71
g1180
sg72
g1173
sg73
(iread_data
Room
p1501
(dp1502
g71
g143
sg77
g144
sbsg79
g110
sg81
g111
sg77
g761
sba(ischedule
Activity
p1503
(dp1504
g8
g1046
sg71
I1000
sg72
Nsg73
(iread_data
Room
p1505
(dp1506
g71
g76
sg77
g78
sbsg79
g80
sg81
I0
sg77
g1061
sba(ischedule
Activity
p1507
(dp1508
g8
g786
sg71
g777
sg72
g803
sg73
(iread_data
Room
p1509
(dp1510
g71
g209
sg77
g210
sbsg79
g110
sg81
g174
sg77
g783
sba(ischedule
Activity
p1511
(dp1512
g8
g1195
sg71
g633
sg72
g1196
sg73
(iread_data
Room
p1513
(dp1514
g71
g275
sg77
g276
sbsg79
g110
sg81
g111
sg77
g466
sba(ischedule
Activity
p1515
(dp1516
g8
g676
sg71
I1000
sg72
Nsg73
(iread_data
Room
p1517
(dp1518
g71
g250
sg77
g251
sbsg79
g80
sg81
I0
sg77
g550
sba(ischedule
Activity
p1519
(dp1520
g8
(lp1521
g12
ag523
ag766
ag304
ag220
ag815
ag458
ag817
ag69
ag1088
ag559
ag93
ag261
ag408
ag816
ag201
ag196
ag484
ag272
ag709
asg71
I1000
sg72
Nsg73
(iread_data
Room
p1522
(dp1523
g71
g172
sg77
g173
sbsg79
g80
sg81
I0
sg77
g824
sbaaa(lp1524
(lp1525
a(lp1526
a(lp1527
a(lp1528
a(lp1529
aasS'timeslot_dict'
p1530
(dp1531
I0
S'9:00-11:00'
p1532
sI1
S'11:00-13:00'
p1533
sI2
S'13:00-15:00'
p1534
sI3
S'15:00-17:00'
p1535
sI4
S'17:00-19:00'
p1536
ssS'day_dict'
p1537
(dp1538
I0
S'Monday'
p1539
sI1
S'Tuesday'
p1540
sI2
S'Wednesday'
p1541
sI3
S'Thursday'
p1542
sI4
S'Friday'
p1543
ssb.