(ischedule
Schedule
p0
(dp1
S'timetable'
p2
(lp3
(lp4
(lp5
(ischedule
Activity
p6
(dp7
S'participants'
p8
(lp9
S'37701751'
p10
aS'88752563'
p11
aS'670011'
p12
aS'94686490'
p13
aS'15187217'
p14
aS'57467488'
p15
aS'51566595'
p16
aS'13092455'
p17
aS'56191333'
p18
aS'25077484'
p19
aS'27123462'
p20
aS'56749879'
p21
aS'17092717'
p22
aS'12091019'
p23
aS'3168419'
p24
aS'43902015'
p25
aS'72456780'
p26
aS'5526560'
p27
aS'47932106'
p28
aS'96054456'
p29
aS'56121590'
p30
aS'64947290'
p31
aS'76123484'
p32
aS'58592894'
p33
aS'58332004'
p34
aS'4529208'
p35
aS'51542218'
p36
aS'17222374'
p37
aS'90474003'
p38
aS'77960666'
p39
aS'78821918'
p40
aS'40434933'
p41
aS'29526540'
p42
aS'4921119'
p43
asS'capacity'
p44
S'40'
p45
sS'group'
p46
(ischedule
Group
p47
(dp48
g8
g9
sS'name'
p49
S'Databases 21'
p50
sbsS'room'
p51
(iread_data
Room
p52
(dp53
g44
S'20'
p54
sg49
S'A1.08'
p55
sbsS'ttype'
p56
S'tutorials'
p57
sS'group_id'
p58
S'1'
p59
sg49
S'Databases 2'
p60
sba(ischedule
Activity
p61
(dp62
g8
(lp63
S'34691309'
p64
aS'7308727'
p65
aS'86807027'
p66
aS'13996448'
p67
aS'42778953'
p68
aS'13284244'
p69
aS'81022997'
p70
aS'22731474'
p71
aS'2550487'
p72
aS'11068043'
p73
aS'48503689'
p74
aS'86291592'
p75
aS'32183908'
p76
ag17
aS'37419523'
p77
aS'60312776'
p78
asg44
S'15'
p79
sg46
(ischedule
Group
p80
(dp81
g8
g63
sg49
S'Project Numerical Recipes1'
p82
sbsg51
(iread_data
Room
p83
(dp84
g44
S'56'
p85
sg49
S'A1.10'
p86
sbsg56
S'labs'
p87
sg58
g59
sg49
S'Project Numerical Recipes'
p88
sba(ischedule
Activity
p89
(dp90
g8
(lp91
S'93566383'
p92
aS'37399898'
p93
aS'21677389'
p94
aS'64768422'
p95
aS'44828429'
p96
aS'23547619'
p97
ag10
aS'66034145'
p98
aS'81385263'
p99
aS'34765676'
p100
ag72
aS'81155296'
p101
aS'65675896'
p102
aS'38179241'
p103
aS'4546613'
p104
aS'5368702'
p105
aS'3707829'
p106
aS'76661016'
p107
aS'19214659'
p108
aS'28055464'
p109
aS'76924297'
p110
aS'14847953'
p111
aS'69634191'
p112
aS'81200278'
p113
aS'20374340'
p114
asg44
I1000
sg46
Nsg51
(iread_data
Room
p115
(dp116
g44
S'117'
p117
sg49
S'C0.110'
p118
sbsg56
S'lectures'
p119
sg58
I0
sg49
S'Interactie-ontwerp'
p120
sba(ischedule
Activity
p121
(dp122
g8
(lp123
S'33946407'
p124
aS'42171678'
p125
aS'13210212'
p126
aS'15051051'
p127
aS'59753700'
p128
ag38
aS'82233873'
p129
ag35
aS'59887191'
p130
aS'92778619'
p131
aS'13116738'
p132
aS'57701414'
p133
aS'24167153'
p134
aS'36527838'
p135
asg44
S'15'
p136
sg46
(ischedule
Group
p137
(dp138
g8
g123
sg49
S'Zoeken sturen en bewegen3'
p139
sbsg51
(iread_data
Room
p140
(dp141
g44
S'41'
p142
sg49
S'A1.04'
p143
sbsg56
g87
sg58
S'3'
p144
sg49
S'Zoeken sturen en bewegen'
p145
sba(ischedule
Activity
p146
(dp147
g8
(lp148
S'43460038'
p149
aS'14671406'
p150
aS'41153310'
p151
aS'58074656'
p152
aS'27950803'
p153
ag73
aS'48601268'
p154
aS'14072826'
p155
aS'11915563'
p156
aS'58565406'
p157
aS'26260141'
p158
aS'83210352'
p159
aS'48357272'
p160
aS'88176729'
p161
aS'3727435'
p162
aS'25106480'
p163
aS'14309255'
p164
aS'52715680'
p165
aS'4783858'
p166
aS'3233378'
p167
aS'96554914'
p168
aS'95631564'
p169
aS'94467156'
p170
ag104
aS'41527759'
p171
aS'21095566'
p172
aS'73302736'
p173
aS'78243495'
p174
aS'82872148'
p175
aS'4568018'
p176
aS'61060652'
p177
aS'37744525'
p178
aS'5976174'
p179
aS'80709893'
p180
aS'70015932'
p181
aS'89338938'
p182
asg44
S'40'
p183
sg46
(ischedule
Group
p184
(dp185
g8
g148
sg49
S'Software engineering2'
p186
sbsg51
(iread_data
Room
p187
(dp188
g44
S'22'
p189
sg49
S'A1.06'
p190
sbsg56
g57
sg58
S'2'
p191
sg49
S'Software engineering'
p192
sba(ischedule
Activity
p193
(dp194
g8
(lp195
S'68360259'
p196
ag132
ag70
aS'19337738'
p197
aS'99453514'
p198
ag113
ag128
asg44
S'10'
p199
sg46
(ischedule
Group
p200
(dp201
g8
g195
sg49
S'Data Mining2'
p202
sbsg51
(iread_data
Room
p203
(dp204
g44
S'60'
p205
sg49
S'C1.112'
p206
sbsg56
g57
sg58
g191
sg49
S'Data Mining'
p207
sba(ischedule
Activity
p208
(dp209
g8
(lp210
S'49908313'
p211
aS'53512831'
p212
aS'76648468'
p213
aS'57086672'
p214
ag111
aS'5615125'
p215
ag32
aS'61443567'
p216
aS'2416751'
p217
aS'20618153'
p218
aS'16333449'
p219
ag98
aS'22288615'
p220
aS'77392404'
p221
aS'6249823'
p222
aS'76903244'
p223
aS'33877725'
p224
ag22
aS'89180944'
p225
aS'28358060'
p226
aS'72577292'
p227
aS'3474870'
p228
asg44
S'20'
p229
sg46
(ischedule
Group
p230
(dp231
g8
g210
sg49
S'Webprogrammeren en databases2'
p232
sbsg51
(iread_data
Room
p233
(dp234
g44
S'48'
p235
sg49
S'B0.201'
p236
sbsg56
g87
sg58
g191
sg49
S'Webprogrammeren en databases'
p237
sbaa(lp238
(ischedule
Activity
p239
(dp240
g8
(lp241
g17
ag78
ag167
aS'64393888'
p242
aS'21964491'
p243
aS'51741554'
p244
aS'33760909'
p245
ag216
aS'5517869'
p246
aS'64228258'
p247
aS'29640619'
p248
aS'46052388'
p249
ag163
aS'1075391'
p250
aS'1665980'
p251
asg44
S'20'
p252
sg46
(ischedule
Group
p253
(dp254
g8
g241
sg49
S'Collectieve Intelligentie2'
p255
sbsg51
g187
sg56
g57
sg58
g191
sg49
S'Collectieve Intelligentie'
p256
sba(ischedule
Activity
p257
(dp258
g8
(lp259
g216
aS'84524083'
p260
aS'85236626'
p261
ag100
ag70
aS'16097870'
p262
aS'15249775'
p263
aS'87602030'
p264
aS'72652638'
p265
aS'58736785'
p266
aS'7106649'
p267
aS'52304977'
p268
ag245
aS'82968410'
p269
ag174
aS'43027916'
p270
asg44
S'20'
p271
sg46
(ischedule
Group
p272
(dp273
g8
g259
sg49
S'Heuristieken 22'
p274
sbsg51
g203
sg56
g57
sg58
g191
sg49
S'Heuristieken 2'
p275
sba(ischedule
Activity
p276
(dp277
g8
(lp278
g160
aS'97417002'
p279
aS'37110913'
p280
ag176
aS'71839156'
p281
aS'98105190'
p282
ag21
aS'53107172'
p283
aS'20331158'
p284
aS'4353500'
p285
aS'14138904'
p286
aS'36903574'
p287
aS'97019450'
p288
aS'45660925'
p289
aS'20830477'
p290
aS'81218347'
p291
aS'87210640'
p292
aS'59075181'
p293
aS'22323043'
p294
aS'14941752'
p295
ag125
aS'79879876'
p296
asg44
S'25'
p297
sg46
(ischedule
Group
p298
(dp299
g8
g278
sg49
S'Heuristieken 12'
p300
sbsg51
g233
sg56
g57
sg58
g191
sg49
S'Heuristieken 1'
p301
sba(ischedule
Activity
p302
(dp303
g8
(lp304
S'34110913'
p305
aS'75759231'
p306
aS'10792879'
p307
ag11
aS'37770881'
p308
aS'3407554'
p309
aS'2079771'
p310
aS'43689934'
p311
aS'88855695'
p312
ag260
aS'75664412'
p313
aS'44391517'
p314
aS'12077419'
p315
aS'1766560'
p316
aS'8464817'
p317
aS'46989508'
p318
ag68
aS'39459642'
p319
aS'65960683'
p320
aS'73236988'
p321
aS'86988337'
p322
aS'9067939'
p323
aS'53202517'
p324
aS'80135353'
p325
aS'6723948'
p326
aS'27187154'
p327
aS'66701209'
p328
ag78
aS'92665222'
p329
ag164
aS'13911001'
p330
aS'34872117'
p331
ag282
aS'76802764'
p332
aS'79033175'
p333
ag69
aS'72895450'
p334
ag169
aS'15911353'
p335
aS'95007221'
p336
aS'77896638'
p337
ag99
aS'11741347'
p338
aS'68315599'
p339
aS'72796858'
p340
aS'40791377'
p341
aS'34243356'
p342
ag107
aS'65852230'
p343
ag75
aS'79167252'
p344
aS'88636924'
p345
aS'5595824'
p346
ag156
aS'83266686'
p347
aS'24613625'
p348
aS'75599734'
p349
ag74
aS'31194811'
p350
ag105
aS'48308205'
p351
ag153
aS'49683101'
p352
aS'58522654'
p353
aS'2317551'
p354
aS'7957843'
p355
aS'30658799'
p356
aS'94687383'
p357
aS'54772132'
p358
asg44
I1000
sg46
Nsg51
g83
sg56
g119
sg58
I0
sg49
S'Compilerbouw'
p359
sba(ischedule
Activity
p360
(dp361
g8
(lp362
S'3685034'
p363
aS'40911986'
p364
ag334
aS'90103047'
p365
ag351
ag108
ag11
aS'77831658'
p366
aS'6939933'
p367
aS'42406214'
p368
aS'81116418'
p369
ag355
ag295
ag321
aS'75005528'
p370
aS'12430748'
p371
aS'74182182'
p372
asg44
g79
sg46
(ischedule
Group
p373
(dp374
g8
g362
sg49
S'Project Numerical Recipes2'
p375
sbsg51
g140
sg56
g87
sg58
g191
sg49
g88
sba(ischedule
Activity
p376
(dp377
g8
(lp378
S'70113753'
p379
aS'90296821'
p380
aS'85284256'
p381
ag354
aS'55474917'
p382
aS'53585410'
p383
aS'94955328'
p384
aS'58040377'
p385
ag326
ag337
ag72
ag178
aS'88597745'
p386
aS'28943658'
p387
ag242
ag290
ag31
ag21
ag34
asg44
S'20'
p388
sg46
(ischedule
Group
p389
(dp390
g8
g378
sg49
S'Programmeren in Java 21'
p391
sbsg51
g52
sg56
g87
sg58
g59
sg49
S'Programmeren in Java 2'
p392
sba(ischedule
Activity
p393
(dp394
g8
(lp395
g221
ag39
ag17
ag260
aS'32044893'
p396
aS'51052738'
p397
ag368
aS'27370083'
p398
aS'82390428'
p399
aS'4709948'
p400
aS'78136904'
p401
ag93
ag198
aS'70844780'
p402
aS'13658563'
p403
ag322
aS'84449005'
p404
aS'20239127'
p405
ag131
aS'22826928'
p406
aS'68286356'
p407
aS'36213792'
p408
aS'36785409'
p409
aS'13718298'
p410
aS'24277163'
p411
aS'99975346'
p412
aS'5298748'
p413
ag280
ag165
aS'33776961'
p414
aS'27805666'
p415
aS'60661905'
p416
ag38
aS'51415617'
p417
aS'87830198'
p418
aS'61518436'
p419
aS'20095994'
p420
aS'43680781'
p421
aS'49922855'
p422
ag168
aS'54569540'
p423
ag214
aS'70193386'
p424
aS'6913074'
p425
ag153
aS'60352393'
p426
ag128
aS'38296757'
p427
aS'22871048'
p428
aS'41578612'
p429
ag363
asg44
I1000
sg46
Nsg51
g115
sg56
g119
sg58
I0
sg49
S'Reflectie op de digitale cultuur'
p430
sbaa(lp431
(ischedule
Activity
p432
(dp433
g8
(lp434
S'29718115'
p435
aS'23257088'
p436
ag34
ag403
aS'44901052'
p437
aS'77636749'
p438
aS'62701040'
p439
aS'17496687'
p440
aS'18266644'
p441
aS'11459236'
p442
asg44
S'15'
p443
sg46
(ischedule
Group
p444
(dp445
g8
g434
sg49
S'Informatie- en organisatieontwerp2'
p446
sbsg51
g140
sg56
g87
sg58
g191
sg49
S'Informatie- en organisatieontwerp'
p447
sba(ischedule
Activity
p448
(dp449
g8
(lp450
S'69086548'
p451
aS'77264363'
p452
ag280
ag157
ag267
ag371
aS'70336464'
p453
ag182
ag294
aS'14383795'
p454
aS'47982619'
p455
aS'75521763'
p456
aS'26406342'
p457
ag421
aS'4697362'
p458
aS'93041523'
p459
ag313
aS'76487754'
p460
ag351
aS'11996292'
p461
aS'21192048'
p462
aS'9332762'
p463
aS'32204977'
p464
ag97
aS'10149535'
p465
ag409
ag429
ag41
ag437
ag350
aS'85335143'
p466
aS'92496780'
p467
ag222
ag164
ag339
aS'97371272'
p468
ag315
ag438
asg44
I1000
sg46
Nsg51
g187
sg56
g119
sg58
I0
sg49
S'Technology for games'
p469
sba(ischedule
Activity
p470
(dp471
g8
(lp472
g305
ag307
ag308
ag310
ag312
ag313
ag315
ag317
ag68
ag320
ag322
ag324
ag326
ag328
ag329
ag330
ag282
ag333
ag334
ag335
ag337
ag338
ag342
ag343
ag346
ag347
ag349
ag351
ag352
ag354
ag356
ag358
ag156
ag325
asg44
S'40'
p473
sg46
(ischedule
Group
p474
(dp475
g8
g472
sg49
S'Compilerbouw1'
p476
sbsg51
g52
sg56
g57
sg58
g59
sg49
g359
sba(ischedule
Activity
p477
(dp478
g8
g472
sg44
S'40'
p479
sg46
g474
sg51
g115
sg56
g87
sg58
g59
sg49
g359
sba(ischedule
Activity
p480
(dp481
g8
(lp482
g104
aS'58253841'
p483
aS'70939718'
p484
aS'23628642'
p485
aS'22168693'
p486
aS'75585647'
p487
aS'75623387'
p488
aS'28957789'
p489
aS'86180471'
p490
aS'82412626'
p491
ag347
aS'56872729'
p492
aS'75997788'
p493
aS'23565001'
p494
ag166
aS'19717077'
p495
aS'62363761'
p496
aS'86000192'
p497
aS'64600457'
p498
ag107
ag173
aS'55412918'
p499
ag327
ag29
aS'62105897'
p500
aS'58699305'
p501
ag465
ag66
aS'80188025'
p502
ag247
aS'9731271'
p503
aS'65408517'
p504
aS'58469172'
p505
ag367
aS'34173695'
p506
asg44
S'40'
p507
sg46
(ischedule
Group
p508
(dp509
g8
g482
sg49
S'Calculus 23'
p510
sbsg51
g203
sg56
g57
sg58
g144
sg49
S'Calculus 2'
p511
sba(ischedule
Activity
p512
(dp513
g8
(lp514
S'27241113'
p515
aS'48198668'
p516
aS'96082155'
p517
ag456
aS'49631542'
p518
ag461
ag501
ag330
ag164
aS'83415514'
p519
aS'78443067'
p520
aS'77376714'
p521
ag339
ag400
aS'3883025'
p522
aS'50184318'
p523
ag42
aS'51650744'
p524
asg44
S'20'
p525
sg46
(ischedule
Group
p526
(dp527
g8
g514
sg49
S'Moderne Databases1'
p528
sbsg51
(iread_data
Room
p529
(dp530
g44
g235
sg49
g236
sbsg56
g57
sg58
g59
sg49
S'Moderne Databases'
p531
sba(ischedule
Activity
p532
(dp533
g8
(lp534
S'59544049'
p535
ag149
aS'51593625'
p536
ag150
aS'52552718'
p537
ag151
ag520
aS'44671041'
p538
aS'28357474'
p539
ag152
aS'31633723'
p540
ag153
aS'31247305'
p541
ag73
aS'99283252'
p542
ag154
ag428
ag155
aS'37830626'
p543
ag156
ag349
ag157
aS'31103066'
p544
ag158
ag382
ag159
ag410
ag160
aS'84110134'
p545
ag161
ag521
ag162
ag224
ag163
aS'50143947'
p546
ag164
aS'54026378'
p547
ag165
aS'65318664'
p548
ag166
ag321
ag167
aS'44868097'
p549
ag168
ag294
ag169
aS'9287708'
p550
ag170
ag182
ag104
aS'62356458'
p551
ag171
aS'40343779'
p552
ag172
aS'1048485'
p553
ag173
aS'42115591'
p554
ag174
aS'52311353'
p555
ag175
aS'27582862'
p556
ag176
ag78
ag177
ag225
ag178
ag248
ag179
aS'68409833'
p557
ag504
ag500
ag180
aS'89985072'
p558
ag181
aS'45915482'
p559
asg44
I1000
sg46
Nsg51
(iread_data
Room
p560
(dp561
g44
g85
sg49
g86
sbsg56
g119
sg58
I0
sg49
g192
sbaa(lp562
(ischedule
Activity
p563
(dp564
g8
(lp565
S'1696500'
p566
ag17
ag463
aS'42196732'
p567
ag283
ag78
ag457
ag37
aS'13534377'
p568
ag167
aS'31416266'
p569
aS'96104167'
p570
ag166
ag242
ag65
ag270
ag353
ag243
aS'29474737'
p571
aS'34773179'
p572
ag125
ag244
ag154
aS'64296965'
p573
ag337
ag245
ag439
aS'17575088'
p574
aS'45556081'
p575
ag216
aS'22699561'
p576
ag227
aS'54310617'
p577
aS'87758823'
p578
ag68
ag75
ag251
ag246
ag308
ag497
aS'73980360'
p579
ag247
aS'82689818'
p580
ag546
aS'68601184'
p581
ag248
ag97
aS'57595888'
p582
aS'77240949'
p583
ag249
aS'97135019'
p584
ag411
aS'15902055'
p585
ag163
ag523
ag539
ag320
ag250
ag32
ag456
aS'35330349'
p586
asg44
I1000
sg46
Nsg51
g187
sg56
g119
sg58
I0
sg49
g256
sba(ischedule
Activity
p587
(dp588
g8
(lp589
g16
ag262
ag437
aS'27298319'
p590
ag319
ag340
ag379
ag547
aS'19858730'
p591
ag428
aS'88627897'
p592
ag537
asg44
S'10'
p593
sg46
(ischedule
Group
p594
(dp595
g8
g589
sg49
S'Autonomous Agents 22'
p596
sbsg51
g83
sg56
g57
sg58
g191
sg49
S'Autonomous Agents 2'
p597
sba(ischedule
Activity
p598
(dp599
g8
(lp600
g306
ag11
ag309
ag311
ag260
ag314
ag316
ag318
ag319
ag321
ag323
ag327
ag78
ag164
ag331
ag332
ag69
ag169
ag336
ag99
ag339
ag341
ag107
ag75
ag345
ag348
ag74
ag105
ag153
ag353
ag355
ag357
ag344
ag350
ag340
asg44
g473
sg46
(ischedule
Group
p601
(dp602
g8
g600
sg49
S'Compilerbouw2'
p603
sbsg51
g140
sg56
g57
sg58
g191
sg49
g359
sba(ischedule
Activity
p604
(dp605
g8
(lp606
g421
aS'1181560'
p607
ag347
ag411
ag542
aS'27916487'
p608
ag174
aS'78544592'
p609
aS'70072978'
p610
ag356
ag246
aS'41489515'
p611
ag225
ag40
aS'36748818'
p612
ag34
asg44
S'20'
p613
sg46
(ischedule
Group
p614
(dp615
g8
g606
sg49
S'Moderne Databases2'
p616
sbsg51
g233
sg56
g87
sg58
g191
sg49
g531
sba(ischedule
Activity
p617
(dp618
g8
(lp619
g100
aS'64554442'
p620
ag33
ag99
ag322
ag552
ag106
ag172
ag383
ag580
ag31
ag287
ag150
ag334
aS'23983476'
p621
ag315
aS'19540225'
p622
ag25
ag251
aS'88596522'
p623
asg44
S'25'
p624
sg46
(ischedule
Group
p625
(dp626
g8
g619
sg49
S'Algoritmen en complexiteit2'
p627
sbsg51
g52
sg56
g57
sg58
g191
sg49
S'Algoritmen en complexiteit'
p628
sbaa(lp629
(ischedule
Activity
p630
(dp631
g8
(lp632
g463
ag457
ag569
ag65
ag571
ag154
ag439
ag576
ag68
ag308
ag580
ag97
ag584
ag523
ag32
ag320
asg44
g252
sg46
(ischedule
Group
p633
(dp634
g8
g632
sg49
S'Collectieve Intelligentie3'
p635
sbsg51
g203
sg56
g57
sg58
g144
sg49
g256
sba(ischedule
Activity
p636
(dp637
g8
(lp638
g567
ag37
ag570
ag270
ag572
ag573
ag574
ag227
ag75
ag497
ag546
ag582
ag411
ag539
ag456
asg44
g252
sg46
(ischedule
Group
p639
(dp640
g8
g638
sg49
S'Collectieve Intelligentie4'
p641
sbsg51
g140
sg56
g57
sg58
S'4'
p642
sg49
g256
sba(ischedule
Activity
p643
(dp644
g8
g304
sg44
I1000
sg46
Nsg51
g233
sg56
g119
sg58
I0
sg49
g359
sba(ischedule
Activity
p645
(dp646
g8
(lp647
g24
aS'72665524'
p648
ag402
aS'27064249'
p649
ag493
aS'39429093'
p650
ag329
aS'47477884'
p651
ag97
aS'20883994'
p652
asg44
S'10'
p653
sg46
(ischedule
Group
p654
(dp655
g8
g647
sg49
S'Advanced Heuristics1'
p656
sbsg51
g187
sg56
g87
sg58
g59
sg49
S'Advanced Heuristics'
p657
sba(ischedule
Activity
p658
(dp659
g8
(lp660
S'69459473'
p661
ag174
aS'39230359'
p662
ag324
aS'1137946'
p663
ag149
aS'94930277'
p664
ag25
ag334
aS'10698627'
p665
aS'67073567'
p666
ag41
aS'41790793'
p667
ag649
aS'24891081'
p668
ag247
aS'14303208'
p669
asg44
S'20'
p670
sg46
(ischedule
Group
p671
(dp672
g8
g660
sg49
S'Webprogrammeren en databases1'
p673
sbsg51
g52
sg56
g57
sg58
g59
sg49
g237
sba(ischedule
Activity
p674
(dp675
g8
(lp676
g161
ag535
ag498
ag71
ag348
ag321
ag366
ag425
ag353
aS'14591033'
p677
aS'66120270'
p678
aS'247918'
p679
ag29
aS'14816774'
p680
aS'74131924'
p681
ag466
ag224
aS'21029457'
p682
aS'30195935'
p683
ag324
ag21
ag558
ag652
ag127
ag176
ag413
aS'28359697'
p684
ag421
aS'30050930'
p685
ag65
aS'96453361'
p686
ag243
ag326
aS'56815156'
p687
ag73
aS'70878567'
p688
ag547
ag549
ag113
ag42
aS'33930505'
p689
ag24
ag406
ag567
aS'79617364'
p690
asg44
I1000
sg46
Nsg51
(iread_data
Room
p691
(dp692
g44
g117
sg49
g118
sbsg56
g119
sg58
I0
sg49
S'Bioinformatica'
p693
sba(ischedule
Activity
p694
(dp695
g8
(lp696
g584
aS'123355'
p697
aS'97136582'
p698
ag484
ag381
ag130
ag541
ag678
ag244
aS'53267490'
p699
aS'28618400'
p700
ag683
ag313
ag285
ag75
aS'25330192'
p701
asg44
S'20'
p702
sg46
(ischedule
Group
p703
(dp704
g8
g696
sg49
S'Netwerken en systeembeveiliging2'
p705
sbsg51
(iread_data
Room
p706
(dp707
g44
g85
sg49
g86
sbsg56
g87
sg58
g191
sg49
S'Netwerken en systeembeveiliging'
p708
sbaaa(lp709
(lp710
(ischedule
Activity
p711
(dp712
g8
(lp713
S'34806836'
p714
ag16
ag591
aS'36508571'
p715
ag262
ag246
ag537
ag437
ag547
ag428
ag590
ag681
ag551
ag319
aS'62872965'
p716
ag592
ag340
ag280
ag557
ag379
aS'61611295'
p717
ag156
asg44
I1000
sg46
Nsg51
g233
sg56
g119
sg58
I0
sg49
g597
sba(ischedule
Activity
p718
(dp719
g8
(lp720
g535
ag348
ag425
ag680
ag224
ag324
ag652
ag413
ag685
ag243
ag73
ag549
ag689
ag176
ag127
ag547
ag677
asg44
S'20'
p721
sg46
(ischedule
Group
p722
(dp723
g8
g720
sg49
S'Bioinformatica2'
p724
sbsg51
g203
sg56
g57
sg58
g191
sg49
g693
sba(ischedule
Activity
p725
(dp726
g8
g600
sg44
g479
sg46
g601
sg51
g140
sg56
g87
sg58
g191
sg49
g359
sba(ischedule
Activity
p727
(dp728
g8
g514
sg44
g613
sg46
g526
sg51
g187
sg56
g87
sg58
g59
sg49
g531
sba(ischedule
Activity
p729
(dp730
g8
(lp731
S'46701583'
p732
ag100
aS'41585485'
p733
ag620
aS'67817269'
p734
ag33
ag96
ag99
aS'91527663'
p735
ag322
ag686
ag552
aS'66433883'
p736
ag106
ag179
ag172
aS'23652927'
p737
ag383
aS'51509565'
p738
ag580
aS'8522855'
p739
ag31
ag590
ag287
ag171
ag16
ag585
ag150
ag546
ag334
ag165
ag621
ag401
ag315
ag623
ag622
ag243
ag25
ag158
ag15
ag521
ag251
ag228
asg44
I1000
sg46
Nsg51
(iread_data
Room
p740
(dp741
g44
g54
sg49
g55
sbsg56
g119
sg58
I0
sg49
g628
sba(ischedule
Activity
p742
(dp743
g8
(lp744
g288
ag220
ag621
ag75
ag436
aS'10702778'
p745
aS'17823206'
p746
ag217
ag216
ag503
ag151
ag581
ag505
ag463
ag287
ag665
aS'73196865'
p747
ag585
aS'23658570'
p748
aS'92977271'
p749
asg44
g388
sg46
(ischedule
Group
p750
(dp751
g8
g744
sg49
S'Programmeren in Java 22'
p752
sbsg51
(iread_data
Room
p753
(dp754
g44
g117
sg49
g118
sbsg56
g87
sg58
g191
sg49
g392
sbaa(lp755
(ischedule
Activity
p756
(dp757
g8
(lp758
g132
ag621
aS'19958553'
p759
ag487
ag688
ag749
ag339
ag612
aS'8557857'
p760
ag464
ag456
asg44
g443
sg46
(ischedule
Group
p761
(dp762
g8
g758
sg49
S'Informatie- en organisatieontwerp1'
p763
sbsg51
g115
sg56
g87
sg58
g59
sg49
g447
sba(ischedule
Activity
p764
(dp765
g8
g91
sg44
I1000
sg46
Nsg51
g83
sg56
g119
sg58
I0
sg49
g120
sba(ischedule
Activity
p766
(dp767
g8
(lp768
S'41644639'
p769
ag93
aS'97838175'
p770
ag559
ag386
ag403
ag686
ag326
aS'59220392'
p771
aS'57419039'
p772
ag584
ag106
aS'63955238'
p773
ag590
asg44
g136
sg46
(ischedule
Group
p774
(dp775
g8
g768
sg49
S'Zoeken sturen en bewegen1'
p776
sbsg51
g140
sg56
g87
sg58
g59
sg49
g145
sba(ischedule
Activity
p777
(dp778
g8
(lp779
g535
ag536
ag537
ag520
ag539
ag540
ag541
ag542
ag428
ag543
ag349
ag544
ag382
ag410
ag545
ag521
ag224
ag546
ag547
ag548
ag321
ag549
ag294
ag550
ag551
ag552
ag553
ag554
ag555
ag556
ag78
ag225
ag248
ag557
ag500
ag558
ag559
ag538
ag504
asg44
g183
sg46
(ischedule
Group
p780
(dp781
g8
g779
sg49
S'Software engineering1'
p782
sbsg51
g203
sg56
g57
sg58
g59
sg49
g192
sba(ischedule
Activity
p783
(dp784
g8
(lp785
g383
aS'38499176'
p786
ag669
aS'51472074'
p787
aS'44151631'
p788
ag73
ag623
aS'74361881'
p789
aS'42297781'
p790
ag582
ag442
aS'63634350'
p791
ag454
aS'82066165'
p792
aS'99272880'
p793
asg44
S'15'
p794
sg46
(ischedule
Group
p795
(dp796
g8
g785
sg49
S'Compilerbouw practicum1'
p797
sbsg51
g187
sg56
g87
sg58
g59
sg49
S'Compilerbouw practicum'
p798
sba(ischedule
Activity
p799
(dp800
g8
(lp801
g161
ag71
ag366
ag29
ag466
ag683
ag558
ag421
ag686
ag687
ag42
ag406
ag678
ag682
asg44
S'20'
p802
sg46
(ischedule
Group
p803
(dp804
g8
g801
sg49
S'Bioinformatica1'
p805
sbsg51
(iread_data
Room
p806
(dp807
g44
g235
sg49
g236
sbsg56
g87
sg58
g59
sg49
g693
sbaa(lp808
(ischedule
Activity
p809
(dp810
g8
g565
sg44
I1000
sg46
Nsg51
g203
sg56
g119
sg58
I0
sg49
g256
sba(ischedule
Activity
p811
(dp812
g8
(lp813
g225
ag347
ag435
aS'59289233'
p814
ag575
aS'27925117'
p815
ag465
ag41
aS'23798155'
p816
ag181
ag700
aS'58866007'
p817
ag352
ag227
aS'72683344'
p818
ag580
ag331
aS'13798030'
p819
ag284
ag286
ag149
asg44
I1000
sg46
Nsg51
g52
sg56
g119
sg58
I0
sg49
S'Architectuur en computerorganisatie'
p820
sba(ischedule
Activity
p821
(dp822
g8
g450
sg44
I1000
sg46
Nsg51
g233
sg56
g119
sg58
I0
sg49
g469
sba(ischedule
Activity
p823
(dp824
g8
g395
sg44
I1000
sg46
Nsg51
g83
sg56
g119
sg58
I0
sg49
g430
sba(ischedule
Activity
p825
(dp826
g8
(lp827
g348
ag815
ag19
aS'40633534'
p828
ag661
ag732
ag328
ag163
aS'75680261'
p829
ag769
ag170
ag490
asg44
S'15'
p830
sg46
(ischedule
Group
p831
(dp832
g8
g827
sg49
S'Project Genetic Algorithms2'
p833
sbsg51
g187
sg56
g87
sg58
g191
sg49
S'Project Genetic Algorithms'
p834
sba(ischedule
Activity
p835
(dp836
g8
g779
sg44
S'40'
p837
sg46
g780
sg51
(iread_data
Room
p838
(dp839
g44
g117
sg49
g118
sbsg56
g87
sg58
g59
sg49
g192
sba(ischedule
Activity
p840
(dp841
g8
(lp842
g310
ag427
aS'90067329'
p843
aS'33252501'
p844
ag341
ag363
aS'26857113'
p845
ag352
ag816
ag179
ag327
ag319
ag178
ag261
aS'56988998'
p846
ag583
ag732
ag170
ag419
aS'63111000'
p847
aS'67625383'
p848
ag127
asg44
I1000
sg46
Nsg51
(iread_data
Room
p849
(dp850
g44
g142
sg49
g143
sbsg56
g119
sg58
I0
sg49
S'Machine Learning'
p851
sbaa(lp852
(ischedule
Activity
p853
(dp854
g8
(lp855
g610
ag651
ag340
ag461
ag580
aS'73823548'
p856
ag735
ag270
ag331
ag573
ag322
ag490
ag248
ag567
aS'59397895'
p857
aS'58083680'
p858
ag457
aS'54540997'
p859
aS'62736669'
p860
aS'5085194'
p861
ag492
ag748
ag319
aS'13132925'
p862
ag537
aS'26207525'
p863
ag680
ag246
ag337
ag436
ag411
aS'83869542'
p864
ag518
ag370
aS'40141996'
p865
ag679
ag318
ag426
asg44
g45
sg46
(ischedule
Group
p866
(dp867
g8
g855
sg49
S'Databases 22'
p868
sbsg51
g52
sg56
g57
sg58
g191
sg49
g60
sba(ischedule
Activity
p869
(dp870
g8
(lp871
g132
ag435
ag621
ag436
ag759
ag34
ag487
ag403
ag688
ag437
ag442
ag438
ag749
ag456
ag339
ag439
ag612
ag440
ag760
ag441
ag464
asg44
I1000
sg46
Nsg51
g187
sg56
g119
sg58
I0
sg49
g447
sba(ischedule
Activity
p872
(dp873
g8
g801
sg44
g721
sg46
g803
sg51
g83
sg56
g57
sg58
g59
sg49
g693
sba(ischedule
Activity
p874
(dp875
g8
(lp876
g590
aS'65978354'
p877
ag104
aS'14179347'
p878
ag103
ag483
aS'46570285'
p879
ag520
ag484
aS'93361408'
p880
ag158
ag485
ag682
ag791
ag486
aS'6709529'
p881
ag11
ag487
aS'56544130'
p882
ag307
ag488
aS'61520025'
p883
aS'11593163'
p884
ag489
aS'31306819'
p885
ag244
ag490
ag245
ag33
ag491
aS'77306636'
p886
aS'3678531'
p887
ag347
ag584
ag312
ag492
ag427
aS'10609762'
p888
ag493
ag748
ag519
ag494
ag585
ag559
ag166
aS'32705005'
p889
ag690
ag495
ag385
ag262
ag496
ag856
ag677
ag497
aS'33672995'
p890
ag264
ag498
aS'72526473'
p891
ag771
ag107
aS'79888156'
p892
ag609
ag173
ag651
ag865
ag499
ag466
ag680
ag327
ag815
aS'75446434'
p893
ag29
ag344
aS'87900893'
p894
ag500
ag326
ag669
ag501
aS'24875739'
p895
aS'56348773'
p896
ag465
ag649
aS'78735049'
p897
ag66
ag383
ag160
ag502
ag372
ag13
ag247
ag648
ag549
ag503
ag215
ag101
ag504
ag23
aS'37279234'
p898
ag505
ag732
aS'53139134'
p899
ag367
ag425
ag28
ag506
aS'55530367'
p900
asg44
I1000
sg46
Nsg51
g233
sg56
g119
sg58
I0
sg49
g511
sba(ischedule
Activity
p901
(dp902
g8
(lp903
g243
ag16
aS'45414528'
p904
ag546
aS'93023961'
p905
aS'87314964'
p906
aS'98780382'
p907
ag555
ag67
ag698
ag894
asg44
S'10'
p908
sg46
(ischedule
Group
p909
(dp910
g8
g903
sg49
S'Data Mining1'
p911
sbsg51
g203
sg56
g87
sg58
g59
sg49
g207
sba(ischedule
Activity
p912
(dp913
g8
(lp914
g419
ag545
aS'38329455'
p915
ag71
ag150
ag284
aS'34262212'
p916
ag384
ag353
ag733
ag382
ag327
ag554
ag791
ag441
ag451
aS'10872825'
p917
aS'79366078'
p918
ag363
ag288
ag171
ag897
ag34
aS'37498675'
p919
ag110
aS'23391676'
p920
aS'47605891'
p921
ag535
ag468
ag489
aS'39659121'
p922
ag405
ag215
aS'51186803'
p923
aS'7492204'
p924
ag846
ag786
ag652
ag573
ag307
ag342
ag541
ag293
ag879
aS'91139627'
p925
ag105
ag503
ag577
aS'44940353'
p926
ag170
aS'14398123'
p927
ag423
ag677
ag773
ag291
aS'82688900'
p928
ag156
ag182
ag505
ag287
aS'39919665'
p929
ag438
ag793
ag36
ag895
ag29
ag816
ag739
ag540
aS'72547110'
p930
aS'47462856'
p931
ag583
aS'65003379'
p932
aS'63408522'
p933
ag372
ag401
ag662
aS'91196968'
p934
ag260
ag21
ag746
ag889
aS'79858178'
p935
ag518
asg44
I1000
sg46
Nsg51
g140
sg56
g119
sg58
I0
sg49
S'Kansrekenen 2'
p936
sbaa(lp937
(ischedule
Activity
p938
(dp939
g8
(lp940
S'96118484'
p941
ag93
ag337
ag342
aS'26172512'
p942
ag13
ag555
ag715
ag92
ag494
ag281
ag12
ag246
ag716
ag554
ag351
ag384
ag372
ag499
ag492
ag68
aS'21311067'
p943
ag586
ag578
ag569
aS'16011419'
p944
ag690
aS'54074680'
p945
ag557
ag382
ag429
aS'90743504'
p946
ag934
ag228
ag677
ag180
ag177
ag99
aS'80998260'
p947
ag159
ag370
ag786
ag817
ag465
ag262
aS'34588570'
p948
ag567
aS'66570705'
p949
ag291
ag219
aS'32595335'
p950
ag135
ag43
aS'79937969'
p951
asg44
I1000
sg46
Nsg51
g83
sg56
g119
sg58
I0
sg49
S'Lineaire Algebra'
p952
sba(ischedule
Activity
p953
(dp954
g8
g813
sg44
I1000
sg46
Nsg51
g140
sg56
g119
sg58
I0
sg49
g820
sba(ischedule
Activity
p955
(dp956
g8
(lp957
g15
aS'12170832'
p958
ag437
ag26
ag863
aS'19058315'
p959
ag496
ag221
ag113
ag175
ag860
ag739
ag94
aS'72586808'
p960
ag648
asg44
g702
sg46
(ischedule
Group
p961
(dp962
g8
g957
sg49
S'Netwerken en systeembeveiliging3'
p963
sbsg51
g52
sg56
g87
sg58
g144
sg49
g708
sba(ischedule
Activity
p964
(dp965
g8
(lp966
S'1886996'
p967
ag426
aS'62613937'
p968
ag828
ag111
ag818
ag401
ag227
ag66
ag700
asg44
g653
sg46
(ischedule
Group
p969
(dp970
g8
g966
sg49
S'Advanced Heuristics2'
p971
sbsg51
g187
sg56
g87
sg58
g191
sg49
g657
sba(ischedule
Activity
p972
(dp973
g8
(lp974
g243
ag196
ag280
ag16
ag132
ag688
ag904
ag698
aS'66122625'
p975
ag546
ag70
ag681
ag905
ag197
ag934
ag906
ag198
ag178
ag128
ag67
ag294
ag907
ag894
ag746
ag555
ag113
ag701
asg44
I1000
sg46
Nsg51
g115
sg56
g119
sg58
I0
sg49
g207
sba(ischedule
Activity
p976
(dp977
g8
(lp978
g227
ag211
ag661
ag212
ag174
ag213
ag226
ag214
ag662
ag111
ag324
ag215
ag663
ag32
ag149
ag216
ag664
ag217
ag228
ag218
ag25
ag219
ag334
ag98
ag665
ag220
ag666
ag221
ag41
ag222
ag667
ag223
ag649
ag224
ag668
ag22
ag247
ag225
ag669
asg44
I1000
sg46
Nsg51
g233
sg56
g119
sg58
I0
sg49
g237
sba(ischedule
Activity
p979
(dp980
g8
(lp981
g110
ag40
ag264
aS'51673172'
p982
ag572
ag792
ag542
ag404
ag308
ag27
ag789
ag557
ag107
asg44
g830
sg46
(ischedule
Group
p983
(dp984
g8
g981
sg49
S'Project Genetic Algorithms1'
p985
sbsg51
g203
sg56
g87
sg58
g59
sg49
g834
sbaaa(lp986
(lp987
(ischedule
Activity
p988
(dp989
g8
g940
sg44
I1000
sg46
Nsg51
g83
sg56
g119
sg58
I0
sg49
g952
sba(ischedule
Activity
p990
(dp991
g8
g434
sg44
S'15'
p992
sg46
g444
sg51
g140
sg56
g57
sg58
g191
sg49
g447
sba(ischedule
Activity
p993
(dp994
g8
(lp995
g99
ag65
aS'25557516'
p996
ag402
ag689
aS'5590289'
p997
ag426
ag70
ag18
ag358
ag522
ag566
aS'48678993'
p998
ag441
ag248
ag552
asg44
g702
sg46
(ischedule
Group
p999
(dp1000
g8
g995
sg49
S'Netwerken en systeembeveiliging4'
p1001
sbsg51
g115
sg56
g87
sg58
g642
sg49
g708
sba(ischedule
Activity
p1002
(dp1003
g8
(lp1004
S'73893840'
p1005
ag39
aS'88519892'
p1006
ag732
aS'23215240'
p1007
ag500
ag439
ag74
ag406
ag538
ag314
aS'51791169'
p1008
ag319
ag131
ag556
aS'88263855'
p1009
ag66
ag327
asg44
g388
sg46
(ischedule
Group
p1010
(dp1011
g8
g1004
sg49
S'Programmeren in Java 24'
p1012
sbsg51
g52
sg56
g87
sg58
g642
sg49
g392
sba(ischedule
Activity
p1013
(dp1014
g8
g903
sg44
g199
sg46
g909
sg51
g203
sg56
g57
sg58
g59
sg49
g207
sba(ischedule
Activity
p1015
(dp1016
g8
(lp1017
g714
ag715
ag551
ag557
ag156
asg44
g593
sg46
(ischedule
Group
p1018
(dp1019
g8
g1017
sg49
S'Autonomous Agents 21'
p1020
sbsg51
(iread_data
Room
p1021
(dp1022
g44
g235
sg49
g236
sbsg56
g57
sg58
g59
sg49
g597
sbaa(lp1023
(ischedule
Activity
p1024
(dp1025
g8
(lp1026
g975
ag160
aS'53775014'
p1027
ag279
ag437
ag280
ag166
ag176
ag680
ag281
ag461
ag282
ag591
ag21
aS'31897288'
p1028
ag283
ag15
ag284
ag66
ag285
aS'83443653'
p1029
ag286
ag403
ag287
ag456
ag288
ag493
ag289
ag266
ag290
ag749
ag291
ag428
ag292
ag664
ag293
ag677
ag294
ag566
ag295
ag177
ag125
aS'76393508'
p1030
ag296
asg44
I1000
sg46
Nsg51
g52
sg56
g119
sg58
I0
sg49
g301
sba(ischedule
Activity
p1031
(dp1032
g8
(lp1033
g916
aS'54395877'
p1034
ag425
aS'34900967'
p1035
ag170
ag358
ag920
ag793
ag12
ag904
ag322
ag414
ag261
ag248
ag92
ag357
ag924
ag847
asg44
g388
sg46
(ischedule
Group
p1036
(dp1037
g8
g1033
sg49
S'Programmeren in Java 25'
p1038
sbsg51
g115
sg56
g87
sg58
S'5'
p1039
sg49
g392
sba(ischedule
Activity
p1040
(dp1041
g8
g914
sg44
I1000
sg46
Nsg51
g203
sg56
g119
sg58
I0
sg49
g936
sba(ischedule
Activity
p1042
(dp1043
g8
(lp1044
g515
ag421
ag33
ag516
ag607
aS'18144425'
p1045
ag517
ag347
ag125
ag456
ag411
ag338
ag518
ag542
ag931
ag461
ag135
ag493
ag501
ag608
aS'13218321'
p1046
ag330
ag174
ag127
ag164
ag609
aS'59111489'
p1047
ag519
ag610
ag498
ag520
ag356
ag847
ag521
ag246
ag37
ag339
ag611
ag316
ag400
ag225
ag879
ag522
ag40
ag466
ag523
ag404
ag414
ag42
ag612
aS'66621166'
p1048
ag524
ag34
aS'49219163'
p1049
asg44
I1000
sg46
Nsg51
g83
sg56
g119
sg58
I0
sg49
g531
sba(ischedule
Activity
p1050
(dp1051
g8
g978
sg44
I1000
sg46
Nsg51
g187
sg56
g119
sg58
I0
sg49
g237
sba(ischedule
Activity
p1052
(dp1053
g8
(lp1054
g590
ag878
ag879
ag880
ag682
ag881
ag882
ag883
ag885
ag245
ag886
ag584
ag427
ag748
ag585
ag889
ag385
ag856
ag890
ag891
ag892
ag651
ag466
ag815
ag344
ag326
ag895
ag649
ag383
ag372
ag648
ag215
ag23
ag732
ag425
ag900
ag669
asg44
g507
sg46
(ischedule
Group
p1055
(dp1056
g8
g1054
sg49
S'Calculus 21'
p1057
sbsg51
(iread_data
Room
p1058
(dp1059
g44
g142
sg49
g143
sbsg56
g57
sg58
g59
sg49
g511
sba(ischedule
Activity
p1060
(dp1061
g8
(lp1062
g498
ag321
ag353
ag679
ag681
ag21
ag684
ag65
ag326
ag688
ag113
ag24
ag690
ag567
asg44
g802
sg46
(ischedule
Group
p1063
(dp1064
g8
g1062
sg49
S'Bioinformatica3'
p1065
sbsg51
(iread_data
Room
p1066
(dp1067
g44
g235
sg49
g236
sbsg56
g87
sg58
g144
sg49
g693
sbaa(lp1068
(ischedule
Activity
p1069
(dp1070
g8
g676
sg44
I1000
sg46
Nsg51
g187
sg56
g119
sg58
I0
sg49
g693
sba(ischedule
Activity
p1071
(dp1072
g8
(lp1073
g877
ag103
ag520
ag158
ag791
ag11
ag307
ag884
ag244
ag33
ag887
ag312
ag888
ag519
ag559
ag690
ag262
ag677
ag264
ag771
ag609
ag865
ag680
ag893
ag894
ag896
ag897
ag160
ag13
ag549
ag101
ag898
ag899
ag28
asg44
g507
sg46
(ischedule
Group
p1074
(dp1075
g8
g1073
sg49
S'Calculus 22'
p1076
sbsg51
g115
sg56
g57
sg58
g191
sg49
g511
sba(ischedule
Activity
p1077
(dp1078
g8
(lp1079
g592
ag684
ag426
ag483
ag578
aS'37804282'
p1080
ag339
ag97
ag323
ag324
ag32
ag489
ag687
ag314
asg44
g136
sg46
(ischedule
Group
p1081
(dp1082
g8
g1079
sg49
S'Zoeken sturen en bewegen2'
p1083
sbsg51
g52
sg56
g87
sg58
g191
sg49
g145
sba(ischedule
Activity
p1084
(dp1085
g8
(lp1086
g325
ag67
aS'63096281'
p1087
ag263
ag733
ag845
ag416
ag569
aS'39905995'
p1088
ag536
ag243
ag218
ag43
ag455
ag400
ag553
ag29
asg44
g388
sg46
(ischedule
Group
p1089
(dp1090
g8
g1086
sg49
S'Programmeren in Java 23'
p1091
sbsg51
g83
sg56
g87
sg58
g144
sg49
g392
sba(ischedule
Activity
p1092
(dp1093
g8
(lp1094
g280
ag688
ag975
ag681
ag934
ag178
ag294
ag746
ag701
asg44
g199
sg46
(ischedule
Group
p1095
(dp1096
g8
g1094
sg49
S'Data Mining3'
p1097
sbsg51
g140
sg56
g57
sg58
g144
sg49
g207
sba(ischedule
Activity
p1098
(dp1099
g8
(lp1100
g861
ag769
ag251
ag457
ag330
aS'535689'
p1101
aS'64418623'
p1102
ag286
ag176
ag558
aS'47260040'
p1103
ag648
aS'55103073'
p1104
asg44
g794
sg46
(ischedule
Group
p1105
(dp1106
g8
g1100
sg49
S'Compilerbouw practicum3'
p1107
sbsg51
g233
sg56
g87
sg58
g144
sg49
g798
sbaa(lp1108
(ischedule
Activity
p1109
(dp1110
g8
(lp1111
g246
ag681
ag716
ag280
ag717
asg44
S'10'
p1112
sg46
(ischedule
Group
p1113
(dp1114
g8
g1111
sg49
S'Autonomous Agents 23'
p1115
sbsg51
g115
sg56
g87
sg58
g144
sg49
g597
sba(ischedule
Activity
p1116
(dp1117
g8
(lp1118
g1007
ag102
aS'91250534'
p1119
ag982
ag165
aS'1695839'
p1120
ag464
aS'5892092'
p1121
aS'25994016'
p1122
ag546
ag309
ag281
asg44
g794
sg46
(ischedule
Group
p1123
(dp1124
g8
g1118
sg49
S'Compilerbouw practicum2'
p1125
sbsg51
g140
sg56
g87
sg58
g191
sg49
g798
sba(ischedule
Activity
p1126
(dp1127
g8
(lp1128
g33
ag1045
ag125
ag338
ag931
ag493
ag1046
ag127
ag1047
ag498
ag847
ag37
ag316
ag879
ag466
ag414
ag1048
ag1049
ag135
ag404
asg44
g525
sg46
(ischedule
Group
p1129
(dp1130
g8
g1128
sg49
S'Moderne Databases3'
p1131
sbsg51
g233
sg56
g57
sg58
g144
sg49
g531
sba(ischedule
Activity
p1132
(dp1133
g8
g638
sg44
S'20'
p1134
sg46
g639
sg51
(iread_data
Room
p1135
(dp1136
g44
g54
sg49
g55
sbsg56
g87
sg58
g642
sg49
g256
sba(ischedule
Activity
p1137
(dp1138
g8
g632
sg44
g1134
sg46
g633
sg51
(iread_data
Room
p1139
(dp1140
g44
g189
sg49
g190
sbsg56
g87
sg58
g144
sg49
g256
sba(ischedule
Activity
p1141
(dp1142
g8
(lp1143
g732
ag733
ag734
ag96
ag735
ag686
ag736
ag179
ag737
ag738
ag739
ag590
ag171
ag585
ag546
ag165
ag401
ag243
ag158
ag521
ag228
ag16
ag15
asg44
g624
sg46
(ischedule
Group
p1144
(dp1145
g8
g1143
sg49
S'Algoritmen en complexiteit1'
p1146
sbsg51
(iread_data
Room
p1147
(dp1148
g44
g205
sg49
g206
sbsg56
g57
sg58
g59
sg49
g628
sbaa(lp1149
(ischedule
Activity
p1150
(dp1151
g8
(lp1152
g566
ag283
ag568
ag166
ag353
ag125
ag337
ag575
ag577
ag579
ag581
ag583
ag585
ag586
ag578
asg44
g1134
sg46
(ischedule
Group
p1153
(dp1154
g8
g1152
sg49
S'Collectieve Intelligentie1'
p1155
sbsg51
g203
sg56
g87
sg58
g59
sg49
g256
sba(ischedule
Activity
p1156
(dp1157
g8
g1111
sg44
g593
sg46
g1113
sg51
g83
sg56
g57
sg58
g144
sg49
g597
sba(ischedule
Activity
p1158
(dp1159
g8
g713
sg44
I1000
sg46
Nsg51
g187
sg56
g119
sg58
I0
sg49
g597
sba(ischedule
Activity
p1160
(dp1161
g8
g758
sg44
g992
sg46
g761
sg51
g233
sg56
g57
sg58
g59
sg49
g447
sba(ischedule
Activity
p1162
(dp1163
g8
(lp1164
g791
ag216
ag16
ag260
aS'35315956'
p1165
ag261
ag71
ag100
ag385
ag70
ag412
ag262
ag214
ag263
ag270
ag264
ag967
ag265
ag179
ag266
ag998
ag267
ag864
ag268
ag113
ag815
ag12
ag245
aS'5739011'
p1166
ag269
ag1028
ag174
asg44
I1000
sg46
Nsg51
g140
sg56
g119
sg58
I0
sg49
g275
sba(ischedule
Activity
p1167
(dp1168
g8
(lp1169
g580
ag293
ag342
ag400
ag1101
ag503
aS'64246605'
p1170
ag786
aS'63573738'
p1171
ag178
ag287
aS'16912993'
p1172
ag927
ag355
ag418
ag30
ag553
asg44
g702
sg46
(ischedule
Group
p1173
(dp1174
g8
g1169
sg49
S'Netwerken en systeembeveiliging1'
p1175
sbsg51
g115
sg56
g87
sg58
g59
sg49
g708
sba(ischedule
Activity
p1176
(dp1177
g8
(lp1178
g975
ag1027
ag437
ag166
ag680
ag461
ag591
ag1028
ag15
ag66
ag1029
ag403
ag456
ag493
ag266
ag749
ag428
ag664
ag677
ag566
ag177
ag1030
asg44
g297
sg46
(ischedule
Group
p1179
(dp1180
g8
g1178
sg49
S'Heuristieken 11'
p1181
sbsg51
(iread_data
Room
p1182
(dp1183
g44
g54
sg49
g55
sbsg56
g57
sg58
g59
sg49
g301
sbaaa(lp1184
(lp1185
(ischedule
Activity
p1186
(dp1187
g8
g676
sg44
I1000
sg46
Nsg51
g203
sg56
g119
sg58
I0
sg49
g693
sba(ischedule
Activity
p1188
(dp1189
g8
(lp1190
g1171
ag316
aS'21070547'
p1191
ag700
ag551
ag856
ag396
aS'19662602'
p1192
aS'63939720'
p1193
ag182
ag545
asg44
g79
sg46
(ischedule
Group
p1194
(dp1195
g8
g1190
sg49
S'Project Numerical Recipes3'
p1196
sbsg51
g140
sg56
g87
sg58
g144
sg49
g88
sba(ischedule
Activity
p1197
(dp1198
g8
(lp1199
S'64053722'
p1200
ag934
ag519
ag93
ag791
ag296
ag786
aS'12782624'
p1201
ag344
ag317
aS'7386961'
p1202
ag651
ag610
ag498
ag887
ag898
ag736
ag497
asg44
g388
sg46
(ischedule
Group
p1203
(dp1204
g8
g1199
sg49
S'Programmeren in Java 26'
p1205
sbsg51
g83
sg56
g87
sg58
S'6'
p1206
sg49
g392
sba(ischedule
Activity
p1207
(dp1208
g8
g606
sg44
g525
sg46
g614
sg51
g233
sg56
g57
sg58
g191
sg49
g531
sba(ischedule
Activity
p1209
(dp1210
g8
g1128
sg44
g613
sg46
g1129
sg51
g187
sg56
g87
sg58
g144
sg49
g531
sba(ischedule
Activity
p1211
(dp1212
g8
(lp1213
g17
ag397
ag399
ag93
ag403
ag405
ag407
ag410
ag413
ag414
ag38
ag419
ag422
ag214
ag153
ag427
ag363
asg44
S'20'
p1214
sg46
(ischedule
Group
p1215
(dp1216
g8
g1213
sg49
S'Reflectie op de digitale cultuur3'
p1217
sbsg51
(iread_data
Room
p1218
(dp1219
g44
g54
sg49
g55
sbsg56
g57
sg58
g144
sg49
g430
sba(ischedule
Activity
p1220
(dp1221
g8
(lp1222
g418
ag153
ag998
aS'55480737'
p1223
aS'88737765'
p1224
ag927
ag483
ag739
ag1122
ag878
ag429
asg44
g830
sg46
(ischedule
Group
p1225
(dp1226
g8
g1222
sg49
S'Project Genetic Algorithms3'
p1227
sbsg51
(iread_data
Room
p1228
(dp1229
g44
g117
sg49
g118
sbsg56
g87
sg58
g144
sg49
g834
sbaa(lp1230
(ischedule
Activity
p1231
(dp1232
g8
(lp1233
g791
ag16
ag1165
ag71
ag385
ag412
ag214
ag967
ag179
ag998
ag864
ag113
ag12
ag1166
ag1028
ag815
asg44
g271
sg46
(ischedule
Group
p1234
(dp1235
g8
g1233
sg49
S'Heuristieken 21'
p1236
sbsg51
g187
sg56
g57
sg58
g59
sg49
g275
sba(ischedule
Activity
p1237
(dp1238
g8
g148
sg44
g837
sg46
g184
sg51
g140
sg56
g87
sg58
g191
sg49
g192
sba(ischedule
Activity
p1239
(dp1240
g8
g974
sg44
I1000
sg46
Nsg51
g115
sg56
g119
sg58
I0
sg49
g207
sba(ischedule
Activity
p1241
(dp1242
g8
g195
sg44
g908
sg46
g200
sg51
g52
sg56
g87
sg58
g191
sg49
g207
sba(ischedule
Activity
p1243
(dp1244
g8
g1094
sg44
g908
sg46
g1095
sg51
g233
sg56
g87
sg58
g144
sg49
g207
sba(ischedule
Activity
p1245
(dp1246
g8
g619
sg44
S'25'
p1247
sg46
g625
sg51
g83
sg56
g87
sg58
g191
sg49
g628
sba(ischedule
Activity
p1248
(dp1249
g8
(lp1250
g424
ag428
ag441
ag968
ag410
ag409
ag687
ag770
ag960
ag160
ag882
ag346
ag555
ag548
ag554
ag502
ag270
ag288
aS'73350019'
p1251
aS'82854435'
p1252
ag40
aS'14637758'
p1253
aS'58480929'
p1254
ag214
ag43
ag36
ag493
ag1029
ag466
ag416
ag262
ag384
ag342
ag494
ag429
aS'78822885'
p1255
ag748
ag890
ag1224
ag366
ag1035
ag998
ag418
ag173
ag26
ag861
aS'18477924'
p1256
ag816
ag573
asg44
I1000
sg46
Nsg51
(iread_data
Room
p1257
(dp1258
g44
g205
sg49
g206
sbsg56
g119
sg58
I0
sg49
S'Analysemethoden en -technieken'
p1259
sbaa(lp1260
(ischedule
Activity
p1261
(dp1262
g8
g565
sg44
I1000
sg46
Nsg51
g203
sg56
g119
sg58
I0
sg49
g256
sba(ischedule
Activity
p1263
(dp1264
g8
g589
sg44
g1112
sg46
g594
sg51
g83
sg56
g87
sg58
g191
sg49
g597
sba(ischedule
Activity
p1265
(dp1266
g8
(lp1267
g452
ag157
ag182
ag454
ag456
ag421
ag459
ag460
ag461
ag463
ag97
ag409
ag41
ag350
ag467
ag164
ag468
ag438
ag466
ag455
asg44
S'20'
p1268
sg46
(ischedule
Group
p1269
(dp1270
g8
g1267
sg49
S'Technology for games2'
p1271
sbsg51
g233
sg56
g57
sg58
g191
sg49
g469
sba(ischedule
Activity
p1272
(dp1273
g8
(lp1274
g221
ag260
ag368
ag400
ag198
ag322
ag408
ag411
ag280
ag415
ag417
ag420
ag168
ag424
ag426
ag428
ag131
ag418
asg44
g1214
sg46
(ischedule
Group
p1275
(dp1276
g8
g1274
sg49
S'Reflectie op de digitale cultuur1'
p1277
sbsg51
g187
sg56
g57
sg58
g59
sg49
g430
sba(ischedule
Activity
p1278
(dp1279
g8
g1143
sg44
g1247
sg46
g1144
sg51
(iread_data
Room
p1280
(dp1281
g44
g117
sg49
g118
sbsg56
g87
sg58
g59
sg49
g628
sba(ischedule
Activity
p1282
(dp1283
g8
g1152
sg44
g252
sg46
g1153
sg51
(iread_data
Room
p1284
(dp1285
g44
g142
sg49
g143
sbsg56
g57
sg58
g59
sg49
g256
sbaa(lp1286
(ischedule
Activity
p1287
(dp1288
g8
g1017
sg44
g1112
sg46
g1018
sg51
g187
sg56
g87
sg58
g59
sg49
g597
sba(ischedule
Activity
p1289
(dp1290
g8
(lp1291
g451
ag280
ag267
ag453
ag294
ag457
ag458
ag313
ag351
ag462
ag464
ag465
ag429
ag437
ag222
ag339
ag315
ag371
asg44
g1268
sg46
(ischedule
Group
p1292
(dp1293
g8
g1291
sg49
S'Technology for games1'
p1294
sbsg51
g115
sg56
g57
sg58
g59
sg49
g469
sba(ischedule
Activity
p1295
(dp1296
g8
(lp1297
g39
ag396
ag398
ag401
ag402
ag404
ag406
ag409
ag412
ag165
ag416
ag421
ag423
ag425
ag128
ag429
asg44
g1214
sg46
(ischedule
Group
p1298
(dp1299
g8
g1297
sg49
S'Reflectie op de digitale cultuur2'
p1300
sbsg51
g140
sg56
g57
sg58
g191
sg49
g430
sba(ischedule
Activity
p1301
(dp1302
g8
g210
sg44
g670
sg46
g230
sg51
g83
sg56
g57
sg58
g191
sg49
g237
sba(ischedule
Activity
p1303
(dp1304
g8
g842
sg44
I1000
sg46
Nsg51
g203
sg56
g119
sg58
I0
sg49
g851
sba(ischedule
Activity
p1305
(dp1306
g8
g660
sg44
g229
sg46
g671
sg51
(iread_data
Room
p1307
(dp1308
g44
g235
sg49
g236
sbsg56
g87
sg58
g59
sg49
g237
sba(ischedule
Activity
p1309
(dp1310
g8
g1062
sg44
g721
sg46
g1063
sg51
(iread_data
Room
p1311
(dp1312
g44
g54
sg49
g55
sbsg56
g57
sg58
g144
sg49
g693
sbaa(lp1313
(ischedule
Activity
p1314
(dp1315
g8
(lp1316
g24
ag967
ag648
ag426
ag402
ag968
ag649
ag828
ag493
ag111
ag650
ag818
ag329
ag401
ag651
ag227
ag97
ag66
ag652
ag700
asg44
I1000
sg46
Nsg51
g187
sg56
g119
sg58
I0
sg49
g657
sba(ischedule
Activity
p1317
(dp1318
g8
g241
sg44
g1134
sg46
g253
sg51
(iread_data
Room
p1319
(dp1320
g44
g235
sg49
g236
sbsg56
g87
sg58
g191
sg49
g256
sba(ischedule
Activity
p1321
(dp1322
g8
g871
sg44
I1000
sg46
Nsg51
(iread_data
Room
p1323
(dp1324
g44
g54
sg49
g55
sbsg56
g119
sg58
I0
sg49
g447
sba(ischedule
Activity
p1325
(dp1326
g8
g720
sg44
g802
sg46
g722
sg51
(iread_data
Room
p1327
(dp1328
g44
g142
sg49
g143
sbsg56
g87
sg58
g191
sg49
g693
sbaaa(lp1329
(lp1330
a(lp1331
a(lp1332
a(lp1333
a(lp1334
(ischedule
Activity
p1335
(dp1336
g8
(lp1337
g10
ag610
ag11
ag651
ag12
ag340
ag13
ag461
ag14
ag580
ag318
ag856
ag15
ag735
ag16
ag270
ag17
ag331
ag18
ag573
ag426
ag322
ag19
ag490
ag20
ag248
ag21
ag567
ag22
ag857
ag23
ag858
ag24
ag457
ag25
ag859
ag26
ag860
ag27
ag861
ag28
ag492
ag29
ag748
ag30
ag319
ag31
ag862
ag32
ag537
ag33
ag863
ag34
ag680
ag35
ag246
ag36
ag337
ag37
ag436
ag38
ag411
ag39
ag864
ag40
ag518
ag41
ag370
ag42
ag865
ag43
ag679
asg44
I1000
sg46
Nsg51
g115
sg56
g119
sg58
I0
sg49
g60
sbaaasS'timeslot_dict'
p1338
(dp1339
I0
S'9:00-11:00'
p1340
sI1
S'11:00-13:00'
p1341
sI2
S'13:00-15:00'
p1342
sI3
S'15:00-17:00'
p1343
sI4
S'17:00-19:00'
p1344
ssS'day_dict'
p1345
(dp1346
I0
S'Monday'
p1347
sI1
S'Tuesday'
p1348
sI2
S'Wednesday'
p1349
sI3
S'Thursday'
p1350
sI4
S'Friday'
p1351
ssb.