(ischedule
Schedule
p0
(dp1
S'timetable'
p2
(lp3
(lp4
(lp5
(ischedule
Activity
p6
(dp7
S'participants'
p8
(lp9
S'20883994'
p10
aS'51542218'
p11
aS'5368702'
p12
aS'79858178'
p13
aS'77240949'
p14
aS'14398123'
p15
aS'58332004'
p16
aS'39919665'
p17
aS'7492204'
p18
aS'47462856'
p19
aS'20331158'
p20
aS'14671406'
p21
aS'41585485'
p22
aS'84524083'
p23
aS'17823206'
p24
aS'55474917'
p25
aS'38329455'
p26
aS'46570285'
p27
aS'23798155'
p28
aS'58522654'
p29
aS'77636749'
p30
aS'39230359'
p31
aS'97371272'
p32
aS'89338938'
p33
aS'94955328'
p34
aS'64296965'
p35
aS'47605891'
p36
aS'31633723'
p37
aS'91196968'
p38
aS'94467156'
p39
aS'23391676'
p40
aS'34243356'
p41
aS'59075181'
p42
aS'49631542'
p43
aS'20239127'
p44
aS'69086548'
p45
aS'65003379'
p46
aS'63408522'
p47
aS'72547110'
p48
aS'63634350'
p49
aS'44940353'
p50
aS'58469172'
p51
aS'14591033'
p52
aS'28957789'
p53
aS'54569540'
p54
aS'38499176'
p55
aS'79366078'
p56
aS'24875739'
p57
aS'97019450'
p58
aS'9731271'
p59
aS'96054456'
p60
aS'18266644'
p61
aS'41527759'
p62
aS'36903574'
p63
aS'32705005'
p64
aS'82688900'
p65
aS'61518436'
p66
aS'99272880'
p67
aS'5615125'
p68
aS'31247305'
p69
aS'76924297'
p70
aS'56988998'
p71
aS'81218347'
p72
aS'78136904'
p73
aS'91139627'
p74
aS'59544049'
p75
aS'8522855'
p76
aS'51186803'
p77
aS'54310617'
p78
aS'34262212'
p79
aS'63955238'
p80
aS'27187154'
p81
aS'39659121'
p82
aS'10792879'
p83
aS'10872825'
p84
aS'56749879'
p85
aS'42115591'
p86
aS'74182182'
p87
aS'84110134'
p88
aS'11915563'
p89
aS'37498675'
p90
aS'78735049'
p91
aS'3685034'
p92
aS'22731474'
p93
asS'capacity'
p94
I1000
sS'group'
p95
NsS'room'
p96
(iread_data
Room
p97
(dp98
g94
S'117'
p99
sS'name'
p100
S'C0.110'
p101
sbsS'ttype'
p102
S'lectures'
p103
sS'group_id'
p104
I0
sg100
S'Kansrekenen 2'
p105
sba(ischedule
Activity
p106
(dp107
g8
(lp108
S'24277163'
p109
aS'27916487'
p110
ag19
aS'78821918'
p111
ag16
aS'99283252'
p112
aS'59111489'
p113
aS'83266686'
p114
aS'77376714'
p115
aS'4709948'
p116
aS'50184318'
p117
aS'58592894'
p118
ag43
aS'66621166'
p119
aS'85335143'
p120
aS'1181560'
p121
aS'84449005'
p122
aS'30658799'
p123
aS'13218321'
p124
aS'14309255'
p125
aS'51650744'
p126
aS'64600457'
p127
ag27
aS'15051051'
p128
aS'33776961'
p129
aS'75521763'
p130
aS'68315599'
p131
aS'18144425'
p132
aS'1766560'
p133
aS'43680781'
p134
aS'36748818'
p135
aS'70072978'
p136
aS'78443067'
p137
aS'11741347'
p138
aS'78243495'
p139
aS'89180944'
p140
aS'63111000'
p141
aS'48198668'
p142
aS'27241113'
p143
aS'42171678'
p144
aS'3883025'
p145
aS'29526540'
p146
aS'78544592'
p147
aS'36527838'
p148
aS'58699305'
p149
aS'41489515'
p150
aS'75997788'
p151
aS'83415514'
p152
aS'5517869'
p153
aS'11996292'
p154
aS'96082155'
p155
aS'49219163'
p156
aS'13911001'
p157
aS'17222374'
p158
asg94
I1000
sg95
Nsg96
(iread_data
Room
p159
(dp160
g94
S'56'
p161
sg100
S'A1.10'
p162
sbsg102
g103
sg104
I0
sg100
S'Moderne Databases'
p163
sba(ischedule
Activity
p164
(dp165
g8
(lp166
S'40434933'
p167
aS'76123484'
p168
aS'33877725'
p169
aS'77392404'
p170
aS'43460038'
p171
aS'72577292'
p172
aS'61443567'
p173
aS'69459473'
p174
aS'3474870'
p175
aS'67073567'
p176
aS'1137946'
p177
ag139
aS'17092717'
p178
aS'27064249'
p179
aS'72895450'
p180
ag68
aS'14303208'
p181
aS'43902015'
p182
aS'20618153'
p183
aS'66034145'
p184
aS'76648468'
p185
ag140
aS'14847953'
p186
aS'2416751'
p187
aS'24891081'
p188
aS'22288615'
p189
aS'6249823'
p190
aS'28358060'
p191
asg94
S'20'
p192
sg95
(ischedule
Group
p193
(dp194
g8
g166
sg100
S'Webprogrammeren en databases2'
p195
sbsg96
(iread_data
Room
p196
(dp197
g94
S'48'
p198
sg100
S'B0.201'
p199
sbsg102
S'tutorials'
p200
sg104
S'2'
p201
sg100
S'Webprogrammeren en databases'
p202
sba(ischedule
Activity
p203
(dp204
g8
(lp205
S'70878567'
p206
aS'68360259'
p207
aS'52311353'
p208
aS'22323043'
p209
aS'13996448'
p210
aS'97136582'
p211
aS'51566595'
p212
ag38
aS'37744525'
p213
aS'25330192'
p214
aS'99453514'
p215
aS'21964491'
p216
aS'81200278'
p217
aS'81022997'
p218
aS'50143947'
p219
aS'98780382'
p220
aS'87900893'
p221
aS'59753700'
p222
ag24
aS'87314964'
p223
aS'37110913'
p224
aS'74131924'
p225
aS'13116738'
p226
aS'66122625'
p227
aS'93023961'
p228
aS'45414528'
p229
aS'19337738'
p230
asg94
I1000
sg95
Nsg96
(iread_data
Room
p231
(dp232
g94
S'60'
p233
sg100
S'C1.112'
p234
sbsg102
g103
sg104
I0
sg100
S'Data Mining'
p235
sba(ischedule
Activity
p236
(dp237
g8
(lp238
S'53202517'
p239
aS'49908313'
p240
aS'53512831'
p241
aS'57086672'
p242
aS'64228258'
p243
ag31
aS'16333449'
p244
aS'41790793'
p245
aS'94930277'
p246
aS'10698627'
p247
aS'76903244'
p248
asg94
S'20'
p249
sg95
(ischedule
Group
p250
(dp251
g8
g238
sg100
S'Webprogrammeren en databases1'
p252
sbsg96
(iread_data
Room
p253
(dp254
g94
S'22'
p255
sg100
S'A1.06'
p256
sbsg102
S'labs'
p257
sg104
S'1'
p258
sg100
g202
sba(ischedule
Activity
p259
(dp260
g8
(lp261
S'23257088'
p262
aS'32204977'
p263
aS'19958553'
p264
aS'11459236'
p265
asg94
S'15'
p266
sg95
(ischedule
Group
p267
(dp268
g8
g261
sg100
S'Informatie- en organsatieontwerp1'
p269
sbsg96
(iread_data
Room
p270
(dp271
g94
S'20'
p272
sg100
S'A1.08'
p273
sbsg102
g257
sg104
g258
sg100
S'Informatie- en organsatieontwerp'
p274
sba(ischedule
Activity
p275
(dp276
g8
(lp277
S'33760909'
p278
aS'56872729'
p279
aS'58040377'
p280
aS'53585410'
p281
aS'12091019'
p282
asg94
S'40'
p283
sg95
(ischedule
Group
p284
(dp285
g8
g277
sg100
S'Calculus 23'
p286
sbsg96
(iread_data
Room
p287
(dp288
g94
S'41'
p289
sg100
S'A1.04'
p290
sbsg102
g200
sg104
S'3'
p291
sg100
S'Calculus 2'
p292
sbaa(lp293
(ischedule
Activity
p294
(dp295
g8
(lp296
S'4783858'
p297
aS'86000192'
p298
aS'37770881'
p299
aS'13534377'
p300
aS'7308727'
p301
aS'97135019'
p302
ag14
aS'29474737'
p303
aS'3233378'
p304
aS'1665980'
p305
aS'1696500'
p306
aS'77896638'
p307
aS'17575088'
p308
ag243
aS'82689818'
p309
asg94
S'20'
p310
sg95
(ischedule
Group
p311
(dp312
g8
g296
sg100
S'Collectieve Intelligentie1'
p313
sbsg96
(iread_data
Room
p314
(dp315
g94
g255
sg100
g256
sbsg102
g200
sg104
g258
sg100
S'Collectieve Intelligentie'
p316
sba(ischedule
Activity
p317
(dp318
g8
(lp319
g169
ag225
ag29
aS'24613625'
p320
ag217
ag128
ag206
ag120
aS'33930505'
p321
ag127
aS'89985072'
p322
ag60
aS'6723948'
p323
ag75
aS'79617364'
p324
aS'5298748'
p325
ag134
ag93
aS'14816774'
p326
asg94
S'20'
p327
sg95
(ischedule
Group
p328
(dp329
g8
g319
sg100
S'Bioinformatica1'
p330
sbsg96
(iread_data
Room
p331
(dp332
g94
g233
sg100
g234
sbsg102
g200
sg104
g258
sg100
S'Bioinformatica'
p333
sba(ischedule
Activity
p334
(dp335
g8
(lp336
g213
aS'29640619'
p337
aS'86807027'
p338
aS'88519892'
p339
aS'39905995'
p340
aS'44671041'
p341
aS'64947290'
p342
ag281
ag34
aS'77960666'
p343
aS'15249775'
p344
ag38
aS'2317551'
p345
aS'34900967'
p346
aS'47477884'
p347
aS'85236626'
p348
aS'41153310'
p349
aS'39459642'
p350
aS'46701583'
p351
ag136
ag55
ag183
aS'12782624'
p352
aS'94687383'
p353
ag262
aS'7386961'
p354
aS'92977271'
p355
aS'79879876'
p356
aS'64053722'
p357
aS'670011'
p358
aS'86988337'
p359
ag141
ag189
aS'47982619'
p360
ag63
ag67
ag25
aS'79167252'
p361
aS'2550487'
p362
aS'28943658'
p363
aS'6913074'
p364
aS'4921119'
p365
ag85
ag280
aS'15902055'
p366
aS'23983476'
p367
aS'62701040'
p368
aS'9332762'
p369
ag247
ag229
ag323
ag24
aS'1048485'
p370
ag129
aS'27582862'
p371
aS'62105897'
p372
aS'31416266'
p373
aS'44391517'
p374
asg94
S'20'
p375
sg95
(ischedule
Group
p376
(dp377
g8
g336
sg100
S'Programmeren in Java 22'
p378
sbsg96
(iread_data
Room
p379
(dp380
g94
S'117'
p381
sg100
S'C0.110'
p382
sbsg102
g257
sg104
g201
sg100
S'Programmeren in Java 2'
p383
sba(ischedule
Activity
p384
(dp385
g8
(lp386
S'72683344'
p387
aS'59289233'
p388
ag114
ag171
ag20
ag28
aS'34872117'
p389
aS'49683101'
p390
aS'14138904'
p391
aS'29718115'
p392
aS'28618400'
p393
aS'10149535'
p394
aS'13798030'
p395
ag309
aS'27925117'
p396
ag167
ag172
ag140
aS'70015932'
p397
aS'45556081'
p398
aS'58866007'
p399
asg94
I1000
sg95
Nsg96
(iread_data
Room
p400
(dp401
g94
g289
sg100
g290
sbsg102
g103
sg104
I0
sg100
S'Architectuur en computerorganisatie'
p402
sba(ischedule
Activity
p403
(dp404
g8
(lp405
g216
ag208
ag221
ag230
ag215
ag223
ag222
asg94
S'10'
p406
sg95
(ischedule
Group
p407
(dp408
g8
g405
sg100
S'Data Mining3'
p409
sbsg96
(iread_data
Room
p410
(dp411
g94
g272
sg100
g273
sbsg102
g257
sg104
g291
sg100
g235
sba(ischedule
Activity
p412
(dp413
g8
(lp414
S'16097870'
p415
ag89
aS'22871048'
p416
aS'44901052'
p417
aS'62356458'
p418
aS'27298319'
p419
ag224
aS'36508571'
p420
aS'68409833'
p421
aS'34806836'
p422
aS'70113753'
p423
aS'72796858'
p424
aS'88627897'
p425
asg94
S'10'
p426
sg95
(ischedule
Group
p427
(dp428
g8
g414
sg100
S'Autonomous Agents 21'
p429
sbsg96
(iread_data
Room
p430
(dp431
g94
g198
sg100
g199
sbsg102
g200
sg104
g258
sg100
S'Autonomous Agents 2'
p432
sba(ischedule
Activity
p433
(dp434
g8
(lp435
S'52552718'
p436
asg94
g426
sg95
(ischedule
Group
p437
(dp438
g8
g435
sg100
S'Autonomous Agents 23'
p439
sbsg96
(iread_data
Room
p440
(dp441
g94
g161
sg100
g162
sbsg102
g200
sg104
g291
sg100
g432
sbaa(lp442
(ischedule
Activity
p443
(dp444
g8
(lp445
g372
ag147
ag364
aS'10609762'
p446
aS'31306819'
p447
ag118
ag279
ag324
ag351
ag60
aS'34173695'
p448
aS'37279234'
p449
aS'65978354'
p450
aS'40141996'
p451
aS'61520025'
p452
ag221
aS'38296757'
p453
ag27
ag302
ag394
aS'79888156'
p454
aS'86180471'
p455
ag282
ag127
ag181
ag297
aS'76661016'
p456
aS'38179241'
p457
aS'88855695'
p458
ag83
aS'53139134'
p459
aS'11593163'
p460
ag338
aS'81155296'
p461
ag91
ag347
aS'33672995'
p462
ag243
aS'73302736'
p463
aS'45915482'
p464
ag64
aS'75623387'
p465
aS'14179347'
p466
ag361
ag137
aS'80188025'
p467
aS'6939933'
p468
ag415
aS'19717077'
p469
ag278
aS'23565001'
p470
ag57
aS'72526473'
p471
ag281
ag152
aS'94686490'
p472
aS'56544130'
p473
ag87
aS'48357272'
p474
aS'65408517'
p475
ag149
aS'77306636'
p476
aS'23658570'
p477
ag280
ag49
ag120
aS'22168693'
p478
aS'88752563'
p479
ag59
ag326
aS'70939718'
p480
aS'75446434'
p481
aS'55412918'
p482
aS'44868097'
p483
ag52
ag68
ag179
ag53
aS'93361408'
p484
aS'87602030'
p485
aS'55530367'
p486
aS'56348773'
p487
aS'59220392'
p488
ag323
ag151
ag298
ag366
aS'6709529'
p489
aS'26260141'
p490
ag419
aS'72665524'
p491
aS'51741554'
p492
ag81
ag396
aS'21029457'
p493
aS'23628642'
p494
ag114
aS'73823548'
p495
aS'47932106'
p496
aS'75585647'
p497
ag51
aS'4546613'
p498
aS'3678531'
p499
aS'62363761'
p500
aS'82412626'
p501
aS'58253841'
p502
asg94
I1000
sg95
Nsg96
(iread_data
Room
p503
(dp504
g94
g99
sg100
g101
sbsg102
g103
sg104
I0
sg100
g292
sba(ischedule
Activity
p505
(dp506
g8
(lp507
S'31194811'
p508
ag134
aS'36785409'
p509
aS'58565406'
p510
aS'48308205'
p511
ag360
ag125
aS'75664412'
p512
ag190
ag417
aS'12077419'
p513
aS'77264363'
p514
ag224
ag209
aS'12430748'
p515
ag130
aS'93041523'
p516
aS'14383795'
p517
ag369
ag45
ag33
aS'92496780'
p518
ag394
aS'26406342'
p519
aS'76487754'
p520
aS'41578612'
p521
ag263
ag154
ag32
ag30
aS'4697362'
p522
aS'70336464'
p523
aS'7106649'
p524
ag120
aS'23547619'
p525
ag167
ag131
aS'21192048'
p526
asg94
I1000
sg95
Nsg96
(iread_data
Room
p527
(dp528
g94
g233
sg100
g234
sbsg102
g103
sg104
I0
sg100
S'Technology for games'
p529
sba(ischedule
Activity
p530
(dp531
g8
(lp532
S'70193386'
p533
aS'70844780'
p534
ag129
aS'92778619'
p535
ag359
aS'13718298'
p536
ag242
aS'52715680'
p537
ag416
ag116
aS'20095994'
p538
ag44
aS'49922855'
p539
aS'27805666'
p540
aS'60661905'
p541
aS'27370083'
p542
ag92
aS'60352393'
p543
aS'42406214'
p544
aS'87830198'
p545
ag122
aS'51052738'
p546
aS'96554914'
p547
ag23
ag54
ag325
ag109
aS'90474003'
p548
ag343
aS'37399898'
p549
aS'99975346'
p550
ag222
aS'13092455'
p551
aS'22826928'
p552
ag215
asg94
S'20'
p553
sg95
(ischedule
Group
p554
(dp555
g8
g532
sg100
S'Reflectie op de digitale cultuur2'
p556
sbsg96
(iread_data
Room
p557
(dp558
g94
g198
sg100
g199
sbsg102
g200
sg104
g201
sg100
S'Reflectie op de digitale cultuur'
p559
sba(ischedule
Activity
p560
(dp561
g8
(lp562
g16
asg94
g375
sg95
(ischedule
Group
p563
(dp564
g8
g562
sg100
S'Programmeren in Java 24'
p565
sbsg96
(iread_data
Room
p566
(dp567
g94
g289
sg100
g290
sbsg102
g257
sg104
S'4'
p568
sg100
g383
sbaa(lp569
(ischedule
Activity
p570
(dp571
g8
(lp572
g208
ag25
ag547
ag372
aS'5976174'
p573
ag39
aS'27950803'
p574
ag416
ag213
ag115
aS'83210352'
p575
aS'3727435'
p576
ag304
ag209
ag397
aS'37830626'
p577
ag33
aS'61060652'
p578
ag140
aS'28357474'
p579
ag112
aS'58074656'
p580
aS'88176729'
p581
ag86
aS'80709893'
p582
aS'75599734'
p583
aS'48601268'
p584
ag21
ag75
ag219
ag169
ag62
aS'21095566'
p585
ag536
ag537
ag463
aS'65318664'
p586
aS'11068043'
p587
ag483
ag510
ag370
ag171
ag436
ag490
aS'73236988'
p588
ag349
ag464
aS'82872148'
p589
aS'40343779'
p590
aS'51593625'
p591
aS'54026378'
p592
ag371
aS'31103066'
p593
aS'4568018'
p594
aS'14072826'
p595
asg94
S'40'
p596
sg95
(ischedule
Group
p597
(dp598
g8
g572
sg100
S'Software engineering1'
p599
sbsg96
(iread_data
Room
p600
(dp601
g94
g161
sg100
g162
sbsg102
g257
sg104
g258
sg100
S'Software engineering'
p602
sba(ischedule
Activity
p603
(dp604
g8
(lp605
S'82066165'
p606
ag122
ag320
ag521
ag466
ag545
aS'66701209'
p607
aS'88737765'
p608
aS'74361881'
p609
ag174
ag111
aS'25106480'
p610
aS'75680261'
p611
ag396
aS'51673172'
p612
aS'55480737'
p613
ag112
ag299
ag76
aS'34773179'
p614
asg94
S'15'
p615
sg95
(ischedule
Group
p616
(dp617
g8
g605
sg100
S'Project Genetic Algorithms2'
p618
sbsg96
(iread_data
Room
p619
(dp620
g94
g272
sg100
g273
sbsg102
g257
sg104
g201
sg100
S'Project Genetic Algorithms'
p621
sba(ischedule
Activity
p622
(dp623
g8
(lp624
S'40633534'
p625
ag10
ag172
ag393
ag543
ag387
aS'92665222'
p626
aS'62613937'
p627
ag347
ag151
aS'1886996'
p628
asg94
S'10'
p629
sg95
(ischedule
Group
p630
(dp631
g8
g624
sg100
S'Advanced Heuristics2'
p632
sbsg96
(iread_data
Room
p633
(dp634
g94
g198
sg100
g199
sbsg102
g257
sg104
g201
sg100
S'Advanced Heuristics'
p635
sba(ischedule
Activity
p636
(dp637
g8
(lp638
S'39429093'
p639
ag338
ag186
aS'3168419'
p640
ag534
ag73
ag491
ag525
ag179
asg94
g629
sg95
(ischedule
Group
p641
(dp642
g8
g638
sg100
S'Advanced Heuristics1'
p643
sbsg96
(iread_data
Room
p644
(dp645
g94
g381
sg100
g382
sbsg102
g257
sg104
g258
sg100
g635
sba(ischedule
Activity
p646
(dp647
g8
(lp648
S'21677389'
p649
aS'37701751'
p650
ag184
ag186
aS'34765676'
p651
ag70
ag362
aS'65675896'
p652
aS'93566383'
p653
aS'81385263'
p654
ag461
ag217
ag457
aS'3707829'
p655
aS'64768422'
p656
ag498
aS'69634191'
p657
aS'19214659'
p658
ag12
ag549
ag525
aS'28055464'
p659
aS'20374340'
p660
ag456
aS'44828429'
p661
asg94
I1000
sg95
Nsg96
(iread_data
Room
p662
(dp663
g94
g289
sg100
g290
sbsg102
g103
sg104
I0
sg100
S'Interactie-ontwerp'
p664
sba(ischedule
Activity
p665
(dp666
g8
(lp667
g369
ag216
ag153
ag398
ag492
aS'46052388'
p668
aS'96104167'
p669
aS'53107172'
p670
ag278
aS'68601184'
p671
aS'60312776'
p672
ag366
aS'57595888'
p673
aS'65960683'
p674
aS'87758823'
p675
ag29
asg94
g310
sg95
(ischedule
Group
p676
(dp677
g8
g667
sg100
S'Collectieve Intelligentie2'
p678
sbsg96
(iread_data
Room
p679
(dp680
g94
g233
sg100
g234
sbsg102
g200
sg104
g201
sg100
g316
sba(ischedule
Activity
p681
(dp682
g8
g238
sg94
g192
sg95
g250
sg96
(iread_data
Room
p683
(dp684
g94
g255
sg100
g256
sbsg102
g200
sg104
g258
sg100
g202
sbaa(lp685
(ischedule
Activity
p686
(dp687
g8
(lp688
g76
ag590
ag21
ag309
ag182
ag305
aS'57467488'
p689
ag118
aS'96453361'
p690
ag573
aS'64554442'
p691
aS'19540225'
p692
ag661
ag342
ag351
aS'66433883'
p693
ag359
ag537
ag655
aS'51509565'
p694
ag219
ag585
ag115
ag180
aS'23652927'
p695
ag175
ag367
ag62
ag22
ag490
aS'67817269'
p696
ag366
ag654
ag419
ag73
aS'88596522'
p697
ag281
ag513
ag216
ag212
ag63
ag651
aS'91527663'
p698
asg94
I1000
sg95
Nsg96
(iread_data
Room
p699
(dp700
g94
S'60'
p701
sg100
S'C1.112'
p702
sbsg102
g103
sg104
I0
sg100
S'Algoritmen en complexiteit'
p703
sba(ischedule
Activity
p704
(dp705
g8
(lp706
g224
aS'98105190'
p707
ag474
ag356
ag209
aS'83443653'
p708
ag670
ag306
ag130
ag246
ag58
aS'20830477'
p709
aS'13658563'
p710
aS'19858730'
p711
ag417
ag416
ag20
aS'14941752'
p712
aS'71839156'
p713
ag391
ag63
ag355
ag144
ag227
aS'45660925'
p714
aS'97417002'
p715
aS'31897288'
p716
ag578
aS'87210640'
p717
ag85
aS'58736785'
p718
ag689
ag151
ag154
ag326
ag297
ag42
ag338
aS'76393508'
p719
ag52
ag594
ag72
aS'53775014'
p720
aS'4353500'
p721
asg94
I1000
sg95
Nsg96
(iread_data
Room
p722
(dp723
g94
g161
sg100
g162
sbsg102
g103
sg104
I0
sg100
S'Heuristieken 1'
p724
sba(ischedule
Activity
p725
(dp726
g8
g507
sg94
I1000
sg95
Nsg96
(iread_data
Room
p727
(dp728
g94
g381
sg100
g382
sbsg102
g103
sg104
I0
sg100
g529
sba(ischedule
Activity
p729
(dp730
g8
(lp731
g38
ag229
ag226
ag213
asg94
g406
sg95
(ischedule
Group
p732
(dp733
g8
g731
sg100
S'Data Mining2'
p734
sbsg96
(iread_data
Room
p735
(dp736
g94
g255
sg100
g256
sbsg102
g257
sg104
g201
sg100
g235
sba(ischedule
Activity
p737
(dp738
g8
(lp739
g153
ag134
ag109
ag146
ag117
ag149
ag140
ag152
ag132
ag110
ag43
ag135
ag27
ag120
ag119
ag114
ag121
ag158
ag150
asg94
S'20'
p740
sg95
(ischedule
Group
p741
(dp742
g8
g739
sg100
S'Moderne Databases2'
p743
sbsg96
(iread_data
Room
p744
(dp745
g94
g289
sg100
g290
sbsg102
g257
sg104
g201
sg100
g163
sba(ischedule
Activity
p746
(dp747
g8
(lp748
g364
ag52
ag592
aS'42196732'
p749
ag552
ag483
aS'28359697'
p750
ag239
asg94
g327
sg95
(ischedule
Group
p751
(dp752
g8
g748
sg100
S'Bioinformatica3'
p753
sbsg96
(iread_data
Room
p754
(dp755
g94
g272
sg100
g273
sbsg102
g200
sg104
g291
sg100
g333
sba(ischedule
Activity
p756
(dp757
g8
g319
sg94
S'20'
p758
sg95
g328
sg96
(iread_data
Room
p759
(dp760
g94
g198
sg100
g199
sbsg102
g257
sg104
g258
sg100
g333
sbaaa(lp761
(lp762
(ischedule
Activity
p763
(dp764
g8
(lp765
S'51415617'
p766
ag116
ag550
ag540
ag549
ag546
ag551
ag122
ag533
ag539
ag537
ag710
ag359
ag542
aS'36213792'
p767
ag109
ag548
ag54
ag44
ag543
ag535
ag343
ag521
ag544
ag73
ag574
ag453
ag215
ag170
aS'32044893'
p768
ag547
aS'82390428'
p769
ag224
ag92
ag325
ag364
ag222
ag66
ag545
ag541
ag134
ag416
ag552
ag509
ag538
aS'68286356'
p770
ag534
ag129
ag23
ag536
ag242
asg94
I1000
sg95
Nsg96
(iread_data
Room
p771
(dp772
g94
S'56'
p773
sg100
S'A1.10'
p774
sbsg102
g103
sg104
I0
sg100
g559
sba(ischedule
Activity
p775
(dp776
g8
(lp777
g511
ag415
aS'42778953'
p778
aS'21311067'
p779
ag472
ag244
ag521
aS'62872965'
p780
ag373
ag38
aS'66570705'
p781
ag307
ag87
ag208
ag279
ag549
aS'54074680'
p782
ag582
aS'32595335'
p783
ag25
ag482
ag420
aS'34588570'
p784
aS'26172512'
p785
ag675
ag654
ag421
ag749
aS'96118484'
p786
ag52
ag575
aS'80998260'
p787
ag72
ag470
ag394
ag34
ag399
ag324
ag41
aS'79937969'
p788
aS'35330349'
p789
ag578
ag175
aS'75005528'
p790
ag713
ag55
ag365
aS'90743504'
p791
ag86
aS'16011419'
p792
ag653
ag153
ag358
ag148
asg94
I1000
sg95
Nsg96
(iread_data
Room
p793
(dp794
g94
g233
sg100
g234
sbsg102
g103
sg104
I0
sg100
S'Lineaire Algebra'
p795
sba(ischedule
Activity
p796
(dp797
g8
(lp798
g418
ag498
ag125
ag475
ag322
ag88
aS'95631564'
p799
ag672
ag297
ag610
ag337
ag69
ag139
ag341
ag37
ag474
ag421
aS'9287708'
p800
ag137
ag89
asg94
g596
sg95
(ischedule
Group
p801
(dp802
g8
g798
sg100
S'Software engineering2'
p803
sbsg96
(iread_data
Room
p804
(dp805
g94
g198
sg100
g199
sbsg102
g257
sg104
g201
sg100
g602
sba(ischedule
Activity
p806
(dp807
g8
(lp808
g367
ag573
ag180
ag22
ag219
ag21
ag697
ag182
ag419
ag305
ag63
ag661
ag651
ag693
ag690
ag490
ag585
ag342
ag696
ag212
ag216
ag513
ag281
ag351
ag695
ag655
ag309
ag694
ag691
asg94
S'25'
p809
sg95
(ischedule
Group
p810
(dp811
g8
g808
sg100
S'Algoritmen en complexiteit1'
p812
sbsg96
(iread_data
Room
p813
(dp814
g94
g381
sg100
g382
sbsg102
g200
sg104
g258
sg100
g703
sba(ischedule
Activity
p815
(dp816
g8
(lp817
g627
ag73
ag626
ag338
ag347
ag186
ag534
ag151
ag625
ag393
ag172
ag639
ag491
ag10
ag628
ag387
ag640
ag543
ag525
ag179
asg94
I1000
sg95
Nsg96
(iread_data
Room
p818
(dp819
g94
g255
sg100
g256
sbsg102
g103
sg104
I0
sg100
g635
sba(ischedule
Activity
p820
(dp821
g8
(lp822
g190
ag125
ag510
ag167
ag30
ag263
ag511
ag519
ag524
ag516
ag130
ag520
ag32
ag394
ag131
ag134
ag515
ag369
ag154
ag508
asg94
S'20'
p823
sg95
(ischedule
Group
p824
(dp825
g8
g822
sg100
S'Technology for games2'
p826
sbsg96
(iread_data
Room
p827
(dp828
g94
g289
sg100
g290
sbsg102
g200
sg104
g201
sg100
g529
sbaa(lp829
(ischedule
Activity
p830
(dp831
g8
(lp832
g131
ag672
ag424
ag350
ag389
ag353
ag390
ag345
aS'86291592'
p833
aS'80135353'
p834
aS'46989508'
p835
ag479
ag799
ag512
aS'88636924'
p836
aS'3407554'
p837
aS'40791377'
p838
ag674
aS'79033175'
p839
ag359
ag23
ag12
aS'34110913'
p840
ag138
ag123
ag458
aS'15911353'
p841
ag81
ag89
aS'9067939'
p842
ag29
ag513
ag607
ag508
ag307
ag626
ag157
aS'75759231'
p843
ag361
ag41
ag125
ag374
ag456
aS'2079771'
p844
aS'5595824'
p845
ag114
aS'54772132'
p846
aS'65852230'
p847
aS'76802764'
p848
asg94
S'40'
p849
sg95
(ischedule
Group
p850
(dp851
g8
g832
sg100
S'Compilerbouw1'
p852
sbsg96
(iread_data
Room
p853
(dp854
g94
g99
sg100
g101
sbsg102
g200
sg104
g258
sg100
S'Compilerbouw'
p855
sba(ischedule
Activity
p856
(dp857
g8
(lp858
g710
ag326
ag154
ag417
ag714
ag416
ag85
ag20
ag578
ag209
ag297
ag707
ag355
ag715
ag719
ag711
ag130
ag58
ag474
ag594
ag717
ag306
ag144
ag338
ag709
ag670
ag72
ag356
ag151
ag689
ag391
ag246
ag713
asg94
S'25'
p859
sg95
(ischedule
Group
p860
(dp861
g8
g858
sg100
S'Heuristieken 11'
p862
sbsg96
(iread_data
Room
p863
(dp864
g94
g198
sg100
g199
sbsg102
g200
sg104
g258
sg100
g724
sba(ischedule
Activity
p865
(dp866
g8
(lp867
g212
ag227
ag206
ag217
ag219
ag225
ag218
ag210
ag224
ag207
ag214
ag220
ag228
ag24
ag209
ag211
asg94
S'10'
p868
sg95
(ischedule
Group
p869
(dp870
g8
g867
sg100
S'Data Mining1'
p871
sbsg96
(iread_data
Room
p872
(dp873
g94
g272
sg100
g273
sbsg102
g200
sg104
g258
sg100
g235
sba(ischedule
Activity
p874
(dp875
g8
g748
sg94
g758
sg95
g751
sg96
(iread_data
Room
p876
(dp877
g94
g289
sg100
g290
sbsg102
g257
sg104
g291
sg100
g333
sba(ischedule
Activity
p878
(dp879
g8
(lp880
g242
ag172
ag244
ag247
ag186
ag139
ag182
ag168
ag174
ag245
ag187
ag167
ag178
ag191
ag68
ag184
ag176
ag180
ag241
ag246
ag190
ag248
ag239
ag181
ag170
ag243
ag173
ag171
ag169
ag177
ag140
ag185
ag183
ag189
ag188
ag175
ag179
ag31
ag240
asg94
I1000
sg95
Nsg96
(iread_data
Room
p881
(dp882
g94
g161
sg100
g162
sbsg102
g103
sg104
I0
sg100
g202
sba(ischedule
Activity
p883
(dp884
g8
g731
sg94
g868
sg95
g732
sg96
(iread_data
Room
p885
(dp886
g94
g255
sg100
g256
sbsg102
g200
sg104
g201
sg100
g235
sba(ischedule
Activity
p887
(dp888
g8
g261
sg94
S'15'
p889
sg95
g267
sg96
(iread_data
Room
p890
(dp891
g94
g233
sg100
g234
sbsg102
g200
sg104
g258
sg100
g274
sbaa(lp892
(ischedule
Activity
p893
(dp894
g8
(lp895
g28
ag586
ag34
aS'97838175'
p896
aS'18477924'
p897
aS'56815156'
p898
ag462
ag533
ag208
ag536
ag477
ag474
ag111
ag242
ag86
ag467
ag416
ag473
ag365
ag541
aS'72456780'
p899
ag521
ag346
ag58
ag11
ag470
aS'72586808'
p900
ag509
ag708
aS'48678993'
p901
aS'77831658'
p902
ag35
ag415
aS'58480929'
p903
aS'43027916'
p904
ag463
ag545
ag608
aS'73350019'
p905
ag41
ag120
ag627
ag61
aS'78822885'
p906
aS'82854435'
p907
ag845
aS'14637758'
p908
ag151
aS'5085194'
p909
asg94
I1000
sg95
Nsg96
(iread_data
Room
p910
(dp911
g94
g233
sg100
g234
sbsg102
g103
sg104
I0
sg100
S'Analysemethoden en -technieken'
p912
sba(ischedule
Activity
p913
(dp914
g8
g808
sg94
S'25'
p915
sg95
g810
sg96
(iread_data
Room
p916
(dp917
g94
g381
sg100
g382
sbsg102
g257
sg104
g258
sg100
g703
sba(ischedule
Activity
p918
(dp919
g8
(lp920
g768
ag574
ag134
ag364
ag224
ag767
ag521
asg94
g553
sg95
(ischedule
Group
p921
(dp922
g8
g920
sg100
S'Reflectie op de digitale cultuur1'
p923
sbsg96
(iread_data
Room
p924
(dp925
g94
g161
sg100
g162
sbsg102
g200
sg104
g258
sg100
g559
sba(ischedule
Activity
p926
(dp927
g8
(lp928
g698
ag654
ag175
ag76
ag692
ag118
ag115
ag537
ag359
ag689
ag62
ag73
ag590
ag366
asg94
g915
sg95
(ischedule
Group
p929
(dp930
g8
g928
sg100
S'Algoritmen en complexiteit2'
p931
sbsg96
(iread_data
Room
p932
(dp933
g94
g255
sg100
g256
sbsg102
g257
sg104
g201
sg100
g703
sba(ischedule
Activity
p934
(dp935
g8
(lp936
g587
ag93
aS'40911986'
p937
ag495
ag778
ag301
ag672
ag833
aS'34691309'
p938
aS'81116418'
p939
ag418
aS'37419523'
p940
ag33
ag515
asg94
S'15'
p941
sg95
(ischedule
Group
p942
(dp943
g8
g936
sg100
S'Project Numerical Recipes3'
p944
sbsg96
(iread_data
Room
p945
(dp946
g94
g198
sg100
g199
sbsg102
g257
sg104
g291
sg100
S'Project Numerical Recipes'
p947
sbaa(lp948
(ischedule
Activity
p949
(dp950
g8
(lp951
g511
ag778
aS'7957843'
p952
ag323
ag707
ag838
ag672
ag508
ag846
ag837
ag842
ag29
ag157
ag836
ag845
aS'13284244'
p953
ag841
ag512
ag131
ag479
ag844
ag626
ag345
aS'95007221'
p954
ag607
ag847
ag114
ag299
ag239
ag654
ag353
ag834
ag138
ag41
ag359
ag513
ag81
ag424
ag848
ag374
ag320
ag89
aS'8464817'
p955
ag839
ag674
ag123
ag456
ag307
ag843
ag390
ag23
ag833
ag583
aS'43689934'
p956
ag840
ag458
ag588
ag180
ag389
aS'48503689'
p957
ag83
ag125
ag835
ag133
ag350
ag361
ag799
ag12
ag574
asg94
I1000
sg95
Nsg96
(iread_data
Room
p958
(dp959
g94
g99
sg100
g101
sbsg102
g103
sg104
I0
sg100
g855
sba(ischedule
Activity
p960
(dp961
g8
g205
sg94
I1000
sg95
Nsg96
(iread_data
Room
p962
(dp963
g94
g198
sg100
g199
sbsg102
g103
sg104
I0
sg100
g235
sba(ischedule
Activity
p964
(dp965
g8
(lp966
g749
ag78
ag614
ag833
ag789
ag172
ag173
ag584
ag35
ag337
ag525
ag373
ag130
ag519
aS'73980360'
p967
asg94
S'20'
p968
sg95
(ischedule
Group
p969
(dp970
g8
g966
sg100
S'Collectieve Intelligentie4'
p971
sbsg96
(iread_data
Room
p972
(dp973
g94
g233
sg100
g234
sbsg102
g257
sg104
g568
sg100
g316
sba(ischedule
Activity
p974
(dp975
g8
(lp976
g301
aS'19058315'
p977
ag61
aS'53267490'
p978
aS'63573738'
p979
asg94
S'20'
p980
sg95
(ischedule
Group
p981
(dp982
g8
g976
sg100
S'Netwerken en systeembeveiliging4'
p983
sbsg96
(iread_data
Room
p984
(dp985
g94
g272
sg100
g273
sbsg102
g257
sg104
g568
sg100
S'Netwerken en systeembeveiliging'
p986
sba(ischedule
Activity
p987
(dp988
g8
(lp989
g485
aS'41644639'
p990
ag70
aS'5526560'
p991
asg94
g615
sg95
(ischedule
Group
p992
(dp993
g8
g989
sg100
S'Project Genetic Algorithms3'
p994
sbsg96
(iread_data
Room
p995
(dp996
g94
g289
sg100
g290
sbsg102
g257
sg104
g291
sg100
g621
sbaa(lp997
(ischedule
Activity
p998
(dp999
g8
(lp1000
g424
ag904
ag35
aS'83869542'
p1001
ag337
ag551
ag43
ag60
ag519
ag282
ag158
ag436
ag154
ag350
ag749
ag347
ag85
ag343
ag109
aS'62736669'
p1002
ag451
ag326
ag136
ag279
ag307
ag16
ag153
ag111
aS'59397895'
p1003
aS'58083680'
p1004
aS'54540997'
p1005
ag790
ag167
aS'26207525'
p1006
ag309
ag11
ag168
ag182
ag548
aS'27123462'
p1007
aS'247918'
p1008
ag899
aS'56121590'
p1009
ag477
ag118
ag472
ag991
ag689
ag495
ag178
aS'4529208'
p1010
ag455
ag640
aS'25077484'
p1011
ag479
ag342
ag496
aS'56191333'
p1012
ag650
ag212
ag835
aS'15187217'
p1013
ag389
ag365
ag146
aS'13132925'
p1014
ag909
ag359
ag543
ag698
asg94
S'40'
p1015
sg95
(ischedule
Group
p1016
(dp1017
g8
g1000
sg100
S'Databases 22'
p1018
sbsg96
(iread_data
Room
p1019
(dp1020
g94
g99
sg100
g101
sbsg102
g200
sg104
g201
sg100
S'Databases 2'
p1021
sba(ischedule
Activity
p1022
(dp1023
g8
g798
sg94
S'40'
p1024
sg95
g801
sg96
(iread_data
Room
p1025
(dp1026
g94
g233
sg100
g234
sbsg102
g200
sg104
g201
sg100
g602
sba(ischedule
Activity
p1027
(dp1028
g8
g405
sg94
g868
sg95
g407
sg96
(iread_data
Room
p1029
(dp1030
g94
g289
sg100
g290
sbsg102
g200
sg104
g291
sg100
g235
sba(ischedule
Activity
p1031
(dp1032
g8
(lp1033
g355
ag206
ag135
ag131
ag392
aS'8557857'
p1034
ag417
ag262
ag265
ag263
ag61
ag368
ag30
ag130
ag226
aS'17496687'
p1035
ag710
ag264
ag16
ag497
ag367
asg94
I1000
sg95
Nsg96
(iread_data
Room
p1036
(dp1037
g94
g255
sg100
g256
sbsg102
g103
sg104
I0
sg100
g274
sba(ischedule
Activity
p1038
(dp1039
g8
(lp1040
g180
ag707
ag778
ag654
ag511
ag953
ag955
ag583
ag574
ag133
ag588
ag957
ag83
ag323
ag320
ag956
ag299
ag954
ag952
ag239
asg94
g849
sg95
(ischedule
Group
p1041
(dp1042
g8
g1040
sg100
S'Compilerbouw2'
p1043
sbsg96
(iread_data
Room
p1044
(dp1045
g94
g198
sg100
g199
sbsg102
g200
sg104
g201
sg100
g855
sba(ischedule
Activity
p1046
(dp1047
g8
g386
sg94
I1000
sg95
Nsg96
(iread_data
Room
p1048
(dp1049
g94
g272
sg100
g273
sbsg102
g103
sg104
I0
sg100
g402
sba(ischedule
Activity
p1050
(dp1051
g8
(lp1052
g693
aS'63096281'
p1053
ag499
ag298
ag957
ag152
ag833
ag834
ag423
aS'10702778'
p1054
ag173
ag535
ag210
aS'73893840'
p1055
ag40
ag59
ag116
ag549
ag127
ag51
aS'73196865'
p1056
aS'88263855'
p1057
ag79
ag22
ag39
aS'64393888'
p1058
ag58
ag18
aS'23215240'
p1059
aS'90296821'
p1060
asg94
g375
sg95
(ischedule
Group
p1061
(dp1062
g8
g1052
sg100
S'Programmeren in Java 23'
p1063
sbsg96
(iread_data
Room
p1064
(dp1065
g94
g161
sg100
g162
sbsg102
g257
sg104
g291
sg100
g383
sbaaa(lp1066
(lp1067
(ischedule
Activity
p1068
(dp1069
g8
(lp1070
g552
ag1008
ag52
ag325
ag640
ag60
ag10
ag146
ag128
ag134
ag217
ag320
ag29
ag216
ag225
ag690
ag902
ag206
ag364
ag483
ag493
ag239
ag581
ag127
ag120
ag588
ag749
ag750
ag85
ag75
ag324
ag322
aS'66120270'
p1071
ag592
ag321
ag594
ag326
ag323
ag587
ag898
aS'30050930'
p1072
ag93
ag301
aS'30195935'
p1073
ag169
asg94
I1000
sg95
Nsg96
(iread_data
Room
p1074
(dp1075
g94
g381
sg100
g382
sbsg102
g103
sg104
I0
sg100
g333
sba(ischedule
Activity
p1076
(dp1077
g8
(lp1078
g302
ag158
ag299
ag373
ag298
ag308
ag144
ag673
ag243
aS'1075391'
p1079
ag551
ag216
ag117
ag172
ag130
ag173
ag614
ag1058
ag671
ag525
ag789
ag610
ag669
ag967
ag674
ag368
ag519
ag14
ag278
ag78
ag303
ag579
ag29
ag670
ag369
ag35
ag168
ag778
ag307
ag306
ag672
ag304
ag300
ag109
ag904
ag749
ag833
aS'22699561'
p1080
ag153
ag309
ag305
ag219
ag668
ag398
ag584
ag297
ag337
ag675
ag366
ag301
ag492
asg94
I1000
sg95
Nsg96
(iread_data
Room
p1081
(dp1082
g94
g233
sg100
g234
sbsg102
g103
sg104
I0
sg100
g316
sba(ischedule
Activity
p1083
(dp1084
g8
g414
sg94
S'10'
p1085
sg95
g427
sg96
(iread_data
Room
p1086
(dp1087
g94
g255
sg100
g256
sbsg102
g257
sg104
g258
sg100
g432
sba(ischedule
Activity
p1088
(dp1089
g8
(lp1090
g14
ag66
ag838
ag351
ag348
ag81
ag350
ag128
aS'90067329'
p1091
ag390
ag71
ag28
ag573
ag844
ag213
ag453
ag141
aS'33252501'
p1092
ag39
aS'26857113'
p1093
aS'67625383'
p1094
ag92
asg94
I1000
sg95
Nsg96
(iread_data
Room
p1095
(dp1096
g94
g289
sg100
g290
sbsg102
g103
sg104
I0
sg100
S'Machine Learning'
p1097
sba(ischedule
Activity
p1098
(dp1099
g8
g648
sg94
I1000
sg95
Nsg96
(iread_data
Room
p1100
(dp1101
g94
g161
sg100
g162
sbsg102
g103
sg104
I0
sg100
g664
sba(ischedule
Activity
p1102
(dp1103
g8
(lp1104
g523
ag517
ag417
ag120
ag509
ag45
ag526
ag512
ag33
ag224
ag521
ag360
ag522
ag513
ag514
ag209
ag525
ag518
asg94
g823
sg95
(ischedule
Group
p1105
(dp1106
g8
g1104
sg100
S'Technology for games1'
p1107
sbsg96
(iread_data
Room
p1108
(dp1109
g94
g198
sg100
g199
sbsg102
g200
sg104
g258
sg100
g529
sbaa(lp1110
(ischedule
Activity
p1111
(dp1112
g8
(lp1113
g551
ag307
ag178
ag182
ag35
ag136
ag326
ag11
ag436
ag1009
ag1004
ag1008
ag1003
ag43
ag455
ag424
ag1005
ag749
ag212
ag350
ag359
ag16
ag1012
ag85
ag146
ag698
ag472
ag790
ag262
ag153
ag167
ag909
ag548
ag451
ag1010
ag650
ag337
ag1014
ag496
ag111
ag60
ag1006
ag1007
ag365
ag519
ag389
ag282
ag309
ag899
ag543
ag904
ag477
ag479
ag154
ag342
ag1013
ag158
ag168
ag118
ag358
ag1011
ag279
ag991
ag347
ag495
ag1001
ag689
ag109
ag343
ag835
ag1002
ag640
asg94
I1000
sg95
Nsg96
(iread_data
Room
p1114
(dp1115
g94
g99
sg100
g101
sbsg102
g103
sg104
I0
sg100
g1021
sba(ischedule
Activity
p1116
(dp1117
g8
g572
sg94
g1024
sg95
g597
sg96
(iread_data
Room
p1118
(dp1119
g94
g701
sg100
g702
sbsg102
g200
sg104
g258
sg100
g602
sba(ischedule
Activity
p1120
(dp1121
g8
(lp1122
g227
ag224
ag721
ag52
ag720
ag712
ag718
ag716
ag42
ag708
ag63
asg94
g859
sg95
(ischedule
Group
p1123
(dp1124
g8
g1122
sg100
S'Heuristieken 12'
p1125
sbsg96
(iread_data
Room
p1126
(dp1127
g94
g161
sg100
g162
sbsg102
g200
sg104
g201
sg100
g724
sba(ischedule
Activity
p1128
(dp1129
g8
(lp1130
g497
ag135
ag130
ag30
ag368
ag206
ag710
ag226
ag131
ag61
ag1035
ag367
ag16
ag1034
ag392
ag417
ag355
asg94
g889
sg95
(ischedule
Group
p1131
(dp1132
g8
g1130
sg100
S'Informatie- en organsatieontwerp2'
p1133
sbsg96
(iread_data
Room
p1134
(dp1135
g94
g255
sg100
g256
sbsg102
g200
sg104
g201
sg100
g274
sba(ischedule
Activity
p1136
(dp1137
g8
g667
sg94
g968
sg95
g676
sg96
(iread_data
Room
p1138
(dp1139
g94
g289
sg100
g290
sbsg102
g257
sg104
g201
sg100
g316
sba(ischedule
Activity
p1140
(dp1141
g8
g1040
sg94
S'40'
p1142
sg95
g1041
sg96
(iread_data
Room
p1143
(dp1144
g94
g198
sg100
g199
sbsg102
g257
sg104
g201
sg100
g855
sba(ischedule
Activity
p1145
(dp1146
g8
(lp1147
g81
asg94
g375
sg95
(ischedule
Group
p1148
(dp1149
g8
g1147
sg100
S'Programmeren in Java 26'
p1150
sbsg96
(iread_data
Room
p1151
(dp1152
g94
g272
sg100
g273
sbsg102
g257
sg104
S'6'
p1153
sg100
g383
sbaa(lp1154
(ischedule
Activity
p1155
(dp1156
g8
(lp1157
g349
ag578
ag112
ag579
ag537
ag581
ag397
ag140
ag213
ag490
ag322
ag62
ag33
ag475
ag115
ag421
ag37
ag171
ag588
ag25
ag304
ag86
ag169
ag583
ag498
ag595
ag589
ag137
ag593
ag88
ag587
ag594
ag586
ag297
ag800
ag69
ag610
ag590
ag125
ag370
ag463
ag672
ag436
ag464
ag536
ag341
ag483
ag574
ag371
ag418
ag576
ag580
ag208
ag219
ag372
ag89
ag573
ag575
ag799
ag139
ag21
ag585
ag510
ag75
ag592
ag416
ag591
ag582
ag547
ag337
ag474
ag209
ag584
ag577
ag39
asg94
I1000
sg95
Nsg96
(iread_data
Room
p1158
(dp1159
g94
g99
sg100
g101
sbsg102
g103
sg104
I0
sg100
g602
sba(ischedule
Activity
p1160
(dp1161
g8
(lp1162
g673
aS'1695839'
p1163
aS'535689'
p1164
aS'64418623'
p1165
ag491
ag157
ag181
ag652
ag55
ag517
ag1059
ag606
aS'42297781'
p1166
ag990
ag519
ag49
ag67
ag612
ag391
aS'91250534'
p1167
ag265
ag281
aS'44151631'
p1168
ag837
ag697
aS'47260040'
p1169
ag263
aS'25994016'
p1170
asg94
S'15'
p1171
sg95
(ischedule
Group
p1172
(dp1173
g8
g1162
sg100
S'Compilerbouw practicum1'
p1174
sbsg96
(iread_data
Room
p1175
(dp1176
g94
g233
sg100
g234
sbsg102
g257
sg104
g258
sg100
S'Compilerbouw practicum'
p1177
sba(ischedule
Activity
p1178
(dp1179
g8
(lp1180
g551
ag133
ag953
ag544
ag218
ag902
ag588
ag790
ag952
ag658
aS'32183908'
p1181
ag979
ag393
ag87
ag468
ag768
aS'19662602'
p1182
ag511
ag210
aS'90103047'
p1183
ag957
ag88
ag712
ag479
ag362
ag338
ag92
aS'63939720'
p1184
asg94
g941
sg95
(ischedule
Group
p1185
(dp1186
g8
g1180
sg100
S'Project Numerical Recipes1'
p1187
sbsg96
(iread_data
Room
p1188
(dp1189
g94
g161
sg100
g162
sbsg102
g257
sg104
g258
sg100
g947
sba(ischedule
Activity
p1190
(dp1191
g8
(lp1192
g130
ag128
ag144
ag19
ag156
asg94
g740
sg95
(ischedule
Group
p1193
(dp1194
g8
g1192
sg100
S'Moderne Databases1'
p1195
sbsg96
(iread_data
Room
p1196
(dp1197
g94
g289
sg100
g290
sbsg102
g257
sg104
g258
sg100
g163
sba(ischedule
Activity
p1198
(dp1199
g8
(lp1200
g216
ag60
ag552
ag671
aS'54395877'
p1201
ag477
aS'85284256'
p1202
ag846
asg94
g375
sg95
(ischedule
Group
p1203
(dp1204
g8
g1200
sg100
S'Programmeren in Java 25'
p1205
sbsg96
(iread_data
Room
p1206
(dp1207
g94
g198
sg100
g199
sbsg102
g257
sg104
S'5'
p1208
sg100
g383
sba(ischedule
Activity
p1209
(dp1210
g8
g739
sg94
S'20'
p1211
sg95
g741
sg96
(iread_data
Room
p1212
(dp1213
g94
g255
sg100
g256
sbsg102
g200
sg104
g201
sg100
g163
sbaa(lp1214
(ischedule
Activity
p1215
(dp1216
g8
(lp1217
g904
ag778
ag610
ag109
ag219
ag117
ag144
ag579
ag368
ag168
ag1080
ag158
ag1058
ag1079
ag551
asg94
g968
sg95
(ischedule
Group
p1218
(dp1219
g8
g1217
sg100
S'Collectieve Intelligentie3'
p1220
sbsg96
(iread_data
Room
p1221
(dp1222
g94
g198
sg100
g199
sbsg102
g257
sg104
g291
sg100
g316
sba(ischedule
Activity
p1223
(dp1224
g8
(lp1225
g500
ag69
ag589
ag15
ag846
ag337
ag952
ag545
ag900
ag59
ag63
ag899
aS'12170832'
p1226
ag321
aS'16912993'
p1227
ag480
ag393
ag302
ag491
ag42
ag1071
ag170
ag1202
ag492
ag211
ag512
aS'5590289'
p1228
ag1164
ag590
ag1073
ag145
ag534
aS'59887191'
p1229
ag1002
asg94
g980
sg95
(ischedule
Group
p1230
(dp1231
g8
g1225
sg100
S'Netwerken en systeembeveiliging3'
p1232
sbsg96
(iread_data
Room
p1233
(dp1234
g94
g233
sg100
g234
sbsg102
g257
sg104
g291
sg100
g986
sba(ischedule
Activity
p1235
(dp1236
g8
(lp1237
g1009
ag41
ag833
ag543
ag370
ag116
ag55
ag306
ag649
ag309
ag654
aS'25557516'
p1238
aS'64246605'
p1239
asg94
g980
sg95
(ischedule
Group
p1240
(dp1241
g8
g1237
sg100
S'Netwerken en systeembeveiliging1'
p1242
sbsg96
(iread_data
Room
p1243
(dp1244
g94
g272
sg100
g273
sbsg102
g257
sg104
g258
sg100
g986
sba(ischedule
Activity
p1245
(dp1246
g8
g1090
sg94
I1000
sg95
Nsg96
(iread_data
Room
p1247
(dp1248
g94
g161
sg100
g162
sbsg102
g103
sg104
I0
sg100
g1097
sba(ischedule
Activity
p1249
(dp1250
g8
(lp1251
g225
ag224
ag153
ag422
ag423
ag418
ag421
ag425
ag780
ag420
ag419
ag417
ag424
ag350
ag592
ag711
ag415
ag416
ag89
ag212
aS'61611295'
p1252
ag436
asg94
I1000
sg95
Nsg96
(iread_data
Room
p1253
(dp1254
g94
g289
sg100
g290
sbsg102
g103
sg104
I0
sg100
g432
sba(ischedule
Activity
p1255
(dp1256
g8
(lp1257
g49
ag524
ag628
aS'35315956'
p1258
ag718
aS'52304977'
p1259
ag93
ag485
ag651
aS'5739011'
p1260
ag173
ag396
ag242
ag23
ag278
ag901
asg94
S'20'
p1261
sg95
(ischedule
Group
p1262
(dp1263
g8
g1257
sg100
S'Heuristieken 21'
p1264
sbsg96
(iread_data
Room
p1265
(dp1266
g94
g255
sg100
g256
sbsg102
g200
sg104
g258
sg100
S'Heuristieken 2'
p1267
sba(ischedule
Activity
p1268
(dp1269
g8
(lp1270
g537
ag322
ag909
ag594
ag609
aS'5892092'
p1271
aS'51472074'
p1272
ag713
aS'55103073'
p1273
asg94
g1171
sg95
(ischedule
Group
p1274
(dp1275
g8
g1270
sg100
S'Compilerbouw practicum3'
p1276
sbsg96
(iread_data
Room
p1277
(dp1278
g94
g381
sg100
g382
sbsg102
g257
sg104
g291
sg100
g1177
sbaa(lp1279
(ischedule
Activity
p1280
(dp1281
g8
g9
sg94
I1000
sg95
Nsg96
(iread_data
Room
p1282
(dp1283
g94
g99
sg100
g101
sbsg102
g103
sg104
I0
sg100
g105
sba(ischedule
Activity
p1284
(dp1285
g8
g1078
sg94
I1000
sg95
Nsg96
(iread_data
Room
p1286
(dp1287
g94
g701
sg100
g702
sbsg102
g103
sg104
I0
sg100
g316
sba(ischedule
Activity
p1288
(dp1289
g8
(lp1290
g115
ag125
ag131
ag137
ag151
ag112
ag148
ag139
ag116
ag145
ag157
ag113
ag133
ag154
ag142
ag136
ag127
ag123
ag141
ag118
ag124
ag138
ag126
ag147
ag122
ag155
ag143
ag129
ag16
ag111
asg94
g740
sg95
(ischedule
Group
p1291
(dp1292
g8
g1290
sg100
S'Moderne Databases3'
p1293
sbsg96
(iread_data
Room
p1294
(dp1295
g94
g198
sg100
g199
sbsg102
g257
sg104
g291
sg100
g163
sba(ischedule
Activity
p1296
(dp1297
g8
g1251
sg94
I1000
sg95
Nsg96
(iread_data
Room
p1298
(dp1299
g94
g255
sg100
g256
sbsg102
g103
sg104
I0
sg100
g432
sba(ischedule
Activity
p1300
(dp1301
g8
(lp1302
g262
ag358
asg94
g1015
sg95
(ischedule
Group
p1303
(dp1304
g8
g1302
sg100
S'Databases 21'
p1305
sbsg96
(iread_data
Room
p1306
(dp1307
g94
g272
sg100
g273
sbsg102
g200
sg104
g258
sg100
g1021
sba(ischedule
Activity
p1308
(dp1309
g8
(lp1310
g180
aS'21070547'
p1311
asg94
g941
sg95
(ischedule
Group
p1312
(dp1313
g8
g1310
sg100
S'Project Numerical Recipes2'
p1314
sbsg96
(iread_data
Room
p1315
(dp1316
g94
g289
sg100
g290
sbsg102
g257
sg104
g201
sg100
g947
sbaaa(lp1317
(lp1318
(ischedule
Activity
p1319
(dp1320
g8
g951
sg94
I1000
sg95
Nsg96
(iread_data
Room
p1321
(dp1322
g94
g99
sg100
g101
sbsg102
g103
sg104
I0
sg100
g855
sba(ischedule
Activity
p1323
(dp1324
g8
g435
sg94
g1085
sg95
g437
sg96
(iread_data
Room
p1325
(dp1326
g94
g289
sg100
g290
sbsg102
g257
sg104
g291
sg100
g432
sba(ischedule
Activity
p1327
(dp1328
g8
g1130
sg94
g266
sg95
g1131
sg96
(iread_data
Room
p1329
(dp1330
g94
g255
sg100
g256
sbsg102
g257
sg104
g201
sg100
g274
sba(ischedule
Activity
p1331
(dp1332
g8
g928
sg94
g809
sg95
g929
sg96
(iread_data
Room
p1333
(dp1334
g94
g233
sg100
g234
sbsg102
g200
sg104
g201
sg100
g703
sba(ischedule
Activity
p1335
(dp1336
g8
(lp1337
g592
ag225
ag1252
ag350
ag711
ag153
ag212
ag780
asg94
g426
sg95
(ischedule
Group
p1338
(dp1339
g8
g1337
sg100
S'Autonomous Agents 22'
p1340
sbsg96
(iread_data
Room
p1341
(dp1342
g94
g272
sg100
g273
sbsg102
g200
sg104
g201
sg100
g432
sba(ischedule
Activity
p1343
(dp1344
g8
(lp1345
g212
ag718
ag716
ag1259
ag396
ag904
ag651
ag218
ag280
ag23
aS'82968410'
p1346
ag278
ag93
ag242
ag415
ag628
ag550
ag485
ag573
ag139
ag217
ag1001
ag1260
ag348
ag344
ag173
aS'72652638'
p1347
ag524
ag49
ag1258
ag358
ag901
asg94
I1000
sg95
Nsg96
(iread_data
Room
p1348
(dp1349
g94
g198
sg100
g199
sbsg102
g103
sg104
I0
sg100
g1267
sba(ischedule
Activity
p1350
(dp1351
g8
(lp1352
g219
ag305
ag587
asg94
g1171
sg95
(ischedule
Group
p1353
(dp1354
g8
g1352
sg100
S'Compilerbouw practicum2'
p1355
sbsg96
(iread_data
Room
p1356
(dp1357
g94
g161
sg100
g162
sbsg102
g257
sg104
g201
sg100
g1177
sbaa(lp1358
(ischedule
Activity
p1359
(dp1360
g8
(lp1361
g497
ag364
ag347
ag181
ag482
ag243
ag486
ag127
ag27
ag500
ag151
ag453
ag479
ag152
ag120
ag64
ag460
ag452
ag446
ag447
ag502
ag396
ag326
ag456
ag114
ag372
ag68
ag464
ag394
ag492
ag494
ag487
ag338
ag484
ag483
ag361
ag465
ag60
ag137
ag458
ag454
ag466
ag52
ag501
ag221
ag459
ag470
ag449
ag83
ag468
ag498
ag457
ag59
ag147
ag81
ag53
ag489
ag323
ag366
ag462
ag448
ag324
ag471
ag149
ag415
ag481
ag476
ag488
ag480
ag491
ag57
ag474
ag467
ag493
ag298
ag451
ag179
ag499
ag302
ag490
ag91
ag485
ag419
ag495
ag455
ag472
ag469
ag461
ag496
ag297
ag473
ag51
ag118
ag477
ag463
ag478
asg94
g283
sg95
(ischedule
Group
p1362
(dp1363
g8
g1361
sg100
S'Calculus 21'
p1364
sbsg96
(iread_data
Room
p1365
(dp1366
g94
g99
sg100
g101
sbsg102
g200
sg104
g258
sg100
g292
sba(ischedule
Activity
p1367
(dp1368
g8
g1217
sg94
g310
sg95
g1218
sg96
(iread_data
Room
p1369
(dp1370
g94
g233
sg100
g234
sbsg102
g200
sg104
g291
sg100
g316
sba(ischedule
Activity
p1371
(dp1372
g8
(lp1373
g594
ag85
ag690
ag146
ag493
ag301
ag581
ag898
ag1073
ag640
ag902
ag216
ag1008
ag1072
ag1071
ag10
ag587
ag588
asg94
g758
sg95
(ischedule
Group
p1374
(dp1375
g8
g1373
sg100
S'Bioinformatica2'
p1376
sbsg96
(iread_data
Room
p1377
(dp1378
g94
g289
sg100
g290
sbsg102
g257
sg104
g201
sg100
g333
sba(ischedule
Activity
p1379
(dp1380
g8
g966
sg94
g310
sg95
g969
sg96
(iread_data
Room
p1381
(dp1382
g94
g272
sg100
g273
sbsg102
g200
sg104
g568
sg100
g316
sba(ischedule
Activity
p1383
(dp1384
g8
(lp1385
g450
ag87
ag475
ag49
ag351
asg94
g283
sg95
(ischedule
Group
p1386
(dp1387
g8
g1385
sg100
S'Calculus 22'
p1388
sbsg96
(iread_data
Room
p1389
(dp1390
g94
g198
sg100
g199
sbsg102
g200
sg104
g201
sg100
g292
sba(ischedule
Activity
p1391
(dp1392
g8
g1337
sg94
g1085
sg95
g1338
sg96
(iread_data
Room
p1393
(dp1394
g94
g255
sg100
g256
sbsg102
g257
sg104
g201
sg100
g432
sba(ischedule
Activity
p1395
(dp1396
g8
(lp1397
g213
ag721
ag417
ag217
ag214
aS'123355'
p1398
ag218
ag901
ag689
ag1012
ag76
ag1006
asg94
g980
sg95
(ischedule
Group
p1399
(dp1400
g8
g1397
sg100
S'Netwerken en systeembeveiliging2'
p1401
sbsg96
(iread_data
Room
p1402
(dp1403
g94
g161
sg100
g162
sbsg102
g257
sg104
g201
sg100
g986
sbaa(lp1404
(ischedule
Activity
p1405
(dp1406
g8
g1078
sg94
I1000
sg95
Nsg96
(iread_data
Room
p1407
(dp1408
g94
g99
sg100
g101
sbsg102
g103
sg104
I0
sg100
g316
sba(ischedule
Activity
p1409
(dp1410
g8
g1070
sg94
I1000
sg95
Nsg96
(iread_data
Room
p1411
(dp1412
g94
g161
sg100
g162
sbsg102
g103
sg104
I0
sg100
g333
sba(ischedule
Activity
p1413
(dp1414
g8
g1290
sg94
g1211
sg95
g1291
sg96
(iread_data
Room
p1415
(dp1416
g94
g289
sg100
g290
sbsg102
g200
sg104
g291
sg100
g163
sba(ischedule
Activity
p1417
(dp1418
g8
(lp1419
g73
ag766
ag509
ag770
ag769
ag170
ag710
ag66
ag453
asg94
g553
sg95
(ischedule
Group
p1420
(dp1421
g8
g1419
sg100
S'Reflectie op de digitale cultuur3'
p1422
sbsg96
(iread_data
Room
p1423
(dp1424
g94
g233
sg100
g234
sbsg102
g200
sg104
g291
sg100
g559
sbaa(lp1425
(ischedule
Activity
p1426
(dp1427
g8
g1070
sg94
I1000
sg95
Nsg96
(iread_data
Room
p1428
(dp1429
g94
g198
sg100
g199
sbsg102
g103
sg104
I0
sg100
g333
sba(ischedule
Activity
p1430
(dp1431
g8
(lp1432
g415
ag1347
ag1001
ag139
ag217
ag1346
ag573
ag212
ag550
ag344
ag280
ag218
ag904
ag358
ag716
ag348
asg94
g1261
sg95
(ischedule
Group
p1433
(dp1434
g8
g1432
sg100
S'Heuristieken 22'
p1435
sbsg96
(iread_data
Room
p1436
(dp1437
g94
g272
sg100
g273
sbsg102
g200
sg104
g201
sg100
g1267
sba(ischedule
Activity
p1438
(dp1439
g8
(lp1440
g1011
ag456
ag15
ag901
ag502
ag625
ag1170
ag421
ag351
ag39
ag574
ag455
asg94
g615
sg95
(ischedule
Group
p1441
(dp1442
g8
g1440
sg100
S'Project Genetic Algorithms1'
p1443
sbsg96
(iread_data
Room
p1444
(dp1445
g94
g381
sg100
g382
sbsg102
g257
sg104
g258
sg100
g621
sba(ischedule
Activity
p1446
(dp1447
g8
g296
sg94
g968
sg95
g311
sg96
(iread_data
Room
p1448
(dp1449
g94
g255
sg100
g256
sbsg102
g257
sg104
g258
sg100
g316
sba(ischedule
Activity
p1450
(dp1451
g8
g166
sg94
g249
sg95
g193
sg96
(iread_data
Room
p1452
(dp1453
g94
g289
sg100
g290
sbsg102
g257
sg104
g201
sg100
g202
sba(ischedule
Activity
p1454
(dp1455
g8
g1033
sg94
I1000
sg95
Nsg96
(iread_data
Room
p1456
(dp1457
g94
g161
sg100
g162
sbsg102
g103
sg104
I0
sg100
g274
sba(ischedule
Activity
p1458
(dp1459
g8
(lp1460
g307
aS'88597745'
p1461
ag955
ag541
ag187
aS'51791169'
p1462
ag49
ag709
ag653
ag449
ag591
ag1093
asg94
g375
sg95
(ischedule
Group
p1463
(dp1464
g8
g1460
sg100
S'Programmeren in Java 21'
p1465
sbsg96
(iread_data
Room
p1466
(dp1467
g94
g233
sg100
g234
sbsg102
g257
sg104
g258
sg100
g383
sbaa(lp1468
(ischedule
Activity
p1469
(dp1470
g8
g765
sg94
I1000
sg95
Nsg96
(iread_data
Room
p1471
(dp1472
g94
g773
sg100
g774
sbsg102
g103
sg104
I0
sg100
g559
sba(ischedule
Activity
p1473
(dp1474
g8
g777
sg94
I1000
sg95
Nsg96
(iread_data
Room
p1475
(dp1476
g94
g233
sg100
g234
sbsg102
g103
sg104
I0
sg100
g795
sba(ischedule
Activity
p1477
(dp1478
g8
g880
sg94
I1000
sg95
Nsg96
(iread_data
Room
p1479
(dp1480
g94
g198
sg100
g199
sbsg102
g103
sg104
I0
sg100
g202
sba(ischedule
Activity
p1481
(dp1482
g8
g1373
sg94
g327
sg95
g1374
sg96
(iread_data
Room
p1483
(dp1484
g94
g289
sg100
g290
sbsg102
g200
sg104
g201
sg100
g333
sba(ischedule
Activity
p1485
(dp1486
g8
g867
sg94
g406
sg95
g869
sg96
(iread_data
Room
p1487
(dp1488
g94
g255
sg100
g256
sbsg102
g257
sg104
g258
sg100
g235
sba(ischedule
Activity
p1489
(dp1490
g8
g1192
sg94
g1211
sg95
g1193
sg96
(iread_data
Room
p1491
(dp1492
g94
g272
sg100
g273
sbsg102
g200
sg104
g258
sg100
g163
sba(ischedule
Activity
p1493
(dp1494
g8
g832
sg94
g1142
sg95
g850
sg96
(iread_data
Room
p1495
(dp1496
g94
g381
sg100
g382
sbsg102
g257
sg104
g258
sg100
g855
sbaaa(lp1497
(lp1498
a(lp1499
a(lp1500
a(lp1501
a(lp1502
aasS'timeslot_dict'
p1503
(dp1504
I0
S'9:00-11:00'
p1505
sI1
S'11:00-13:00'
p1506
sI2
S'13:00-15:00'
p1507
sI3
S'15:00-17:00'
p1508
sI4
S'17:00-19:00'
p1509
ssS'day_dict'
p1510
(dp1511
I0
S'Monday'
p1512
sI1
S'Tuesday'
p1513
sI2
S'Wednesday'
p1514
sI3
S'Thursday'
p1515
sI4
S'Friday'
p1516
ssb.