(ischedule
Schedule
p0
(dp1
S'timetable'
p2
(lp3
(lp4
(lp5
(ischedule
Activity
p6
(dp7
S'participants'
p8
(lp9
S'13218321'
p10
aS'75521763'
p11
aS'27241113'
p12
aS'11996292'
p13
aS'89180944'
p14
aS'14309255'
p15
aS'30658799'
p16
aS'43680781'
p17
aS'78243495'
p18
aS'4709948'
p19
aS'70072978'
p20
aS'99283252'
p21
aS'58332004'
p22
aS'49631542'
p23
aS'78544592'
p24
aS'50184318'
p25
aS'1766560'
p26
aS'78821918'
p27
aS'18144425'
p28
aS'84449005'
p29
aS'58592894'
p30
aS'36748818'
p31
aS'75997788'
p32
aS'64600457'
p33
aS'49219163'
p34
aS'78443067'
p35
aS'83266686'
p36
aS'77376714'
p37
aS'17222374'
p38
aS'1181560'
p39
aS'41489515'
p40
aS'48198668'
p41
aS'29526540'
p42
aS'33776961'
p43
aS'58699305'
p44
aS'36527838'
p45
aS'66621166'
p46
aS'15051051'
p47
aS'68315599'
p48
aS'96082155'
p49
aS'3883025'
p50
aS'47462856'
p51
aS'46570285'
p52
aS'27916487'
p53
aS'59111489'
p54
aS'5517869'
p55
aS'63111000'
p56
aS'85335143'
p57
aS'13911001'
p58
aS'83415514'
p59
aS'42171678'
p60
aS'11741347'
p61
aS'51650744'
p62
aS'24277163'
p63
asS'capacity'
p64
I1000
sS'group'
p65
NsS'room'
p66
(iread_data
Room
p67
(dp68
g64
S'48'
p69
sS'name'
p70
S'B0.201'
p71
sbsS'ttype'
p72
S'lectures'
p73
sS'group_id'
p74
I0
sg70
S'Moderne Databases'
p75
sba(ischedule
Activity
p76
(dp77
g8
(lp78
S'14138904'
p79
aS'13658563'
p80
aS'94930277'
p81
aS'87210640'
p82
aS'36903574'
p83
aS'97417002'
p84
aS'53107172'
p85
aS'66122625'
p86
aS'19858730'
p87
ag11
aS'45660925'
p88
aS'98105190'
p89
aS'86807027'
p90
ag60
ag13
aS'61060652'
p91
aS'4783858'
p92
aS'58736785'
p93
aS'14816774'
p94
aS'20830477'
p95
aS'37110913'
p96
aS'14941752'
p97
aS'4568018'
p98
aS'1696500'
p99
aS'14591033'
p100
aS'59075181'
p101
aS'48357272'
p102
aS'83443653'
p103
aS'81218347'
p104
aS'57467488'
p105
aS'53775014'
p106
aS'31897288'
p107
aS'92977271'
p108
aS'4353500'
p109
aS'56749879'
p110
aS'97019450'
p111
aS'22871048'
p112
aS'71839156'
p113
ag32
aS'22323043'
p114
aS'20331158'
p115
aS'79879876'
p116
aS'76393508'
p117
aS'44901052'
p118
asg64
I1000
sg65
Nsg66
(iread_data
Room
p119
(dp120
g64
S'117'
p121
sg70
S'C0.110'
p122
sbsg72
g73
sg74
I0
sg70
S'Heuristieken 1'
p123
sba(ischedule
Activity
p124
(dp125
g8
(lp126
S'81022997'
p127
aS'27925117'
p128
aS'34765676'
p129
aS'61443567'
p130
aS'72652638'
p131
aS'81200278'
p132
aS'48678993'
p133
ag93
aS'43027916'
p134
aS'85236626'
p135
aS'52304977'
p136
aS'5739011'
p137
aS'63634350'
p138
aS'1886996'
p139
aS'83869542'
p140
aS'22731474'
p141
aS'16097870'
p142
aS'670011'
p143
aS'99975346'
p144
aS'51566595'
p145
aS'57086672'
p146
aS'5976174'
p147
aS'7106649'
p148
aS'87602030'
p149
ag18
ag107
aS'15249775'
p150
aS'58040377'
p151
aS'35315956'
p152
aS'33760909'
p153
aS'84524083'
p154
aS'82968410'
p155
asg64
I1000
sg65
Nsg66
(iread_data
Room
p156
(dp157
g64
S'41'
p158
sg70
S'A1.04'
p159
sbsg72
g73
sg74
I0
sg70
S'Heuristieken 2'
p160
sba(ischedule
Activity
p161
(dp162
g8
(lp163
S'19540225'
p164
aS'96453361'
p165
aS'21964491'
p166
aS'86988337'
p167
aS'72895450'
p168
aS'78136904'
p169
aS'3707829'
p170
aS'40343779'
p171
aS'64554442'
p172
aS'12077419'
p173
aS'66433883'
p174
aS'27298319'
p175
aS'50143947'
p176
aS'15902055'
p177
aS'26260141'
p178
aS'8522855'
p179
aS'64947290'
p180
aS'91527663'
p181
aS'23983476'
p182
aS'46701583'
p183
aS'41527759'
p184
asg64
S'25'
p185
sg65
(ischedule
Group
p186
(dp187
g8
g163
sg70
S'Algoritmen en complexiteit1'
p188
sbsg66
(iread_data
Room
p189
(dp190
g64
S'22'
p191
sg70
S'A1.06'
p192
sbsg72
S'labs'
p193
sg74
S'1'
p194
sg70
S'Algoritmen en complexiteit'
p195
sba(ischedule
Activity
p196
(dp197
g8
(lp198
S'39459642'
p199
asg64
S'10'
p200
sg65
(ischedule
Group
p201
(dp202
g8
g198
sg70
S'Autonomous Agents 22'
p203
sbsg66
(iread_data
Room
p204
(dp205
g64
S'56'
p206
sg70
S'A1.10'
p207
sbsg72
g193
sg74
S'2'
p208
sg70
S'Autonomous Agents 2'
p209
sba(ischedule
Activity
p210
(dp211
g8
(lp212
S'60312776'
p213
aS'13092455'
p214
aS'9332762'
p215
aS'86291592'
p216
aS'82689818'
p217
aS'72577292'
p218
aS'26406342'
p219
aS'68601184'
p220
aS'1075391'
p221
aS'28357474'
p222
aS'96104167'
p223
aS'73980360'
p224
aS'34773179'
p225
aS'76123484'
p226
aS'57595888'
p227
aS'22699561'
p228
aS'51741554'
p229
aS'37770881'
p230
aS'48601268'
p231
asg64
S'20'
p232
sg65
(ischedule
Group
p233
(dp234
g8
g212
sg70
S'Collectieve Intelligentie1'
p235
sbsg66
(iread_data
Room
p236
(dp237
g64
S'20'
p238
sg70
S'A1.08'
p239
sbsg72
g193
sg74
g194
sg70
S'Collectieve Intelligentie'
p240
sbaa(lp241
(ischedule
Activity
p242
(dp243
g8
(lp244
S'73236988'
p245
aS'66120270'
p246
ag141
aS'44868097'
p247
aS'53202517'
p248
ag110
aS'74131924'
p249
ag57
aS'89985072'
p250
aS'20883994'
p251
aS'33930505'
p252
aS'6723948'
p253
aS'24613625'
p254
ag98
aS'70878567'
p255
aS'30195935'
p256
aS'56815156'
p257
ag165
aS'28359697'
p258
aS'88176729'
p259
ag132
ag166
aS'79617364'
p260
ag100
aS'5298748'
p261
aS'96054456'
p262
aS'33877725'
p263
ag17
aS'58522654'
p264
ag33
aS'42196732'
p265
aS'21029457'
p266
aS'7308727'
p267
aS'6913074'
p268
aS'54026378'
p269
aS'11068043'
p270
aS'22826928'
p271
aS'59544049'
p272
aS'3168419'
p273
ag42
ag94
aS'247918'
p274
ag47
aS'30050930'
p275
aS'77831658'
p276
asg64
I1000
sg65
Nsg66
(iread_data
Room
p277
(dp278
g64
g206
sg70
g207
sbsg72
g73
sg74
I0
sg70
S'Bioinformatica'
p279
sba(ischedule
Activity
p280
(dp281
g8
(lp282
g213
ag55
aS'64228258'
p283
ag176
ag214
ag231
ag219
aS'97135019'
p284
aS'86000192'
p285
aS'35330349'
p286
aS'3233378'
p287
ag25
ag265
aS'54310617'
p288
ag217
aS'62701040'
p289
aS'42778953'
p290
aS'25106480'
p291
aS'17575088'
p292
ag230
ag215
ag264
aS'13534377'
p293
ag177
aS'64296965'
p294
ag85
aS'77240949'
p295
aS'31416266'
p296
ag153
ag11
ag63
ag226
ag38
ag221
aS'77896638'
p297
aS'29640619'
p298
ag218
ag166
aS'29474737'
p299
ag99
ag225
ag92
ag229
aS'23547619'
p300
ag220
ag228
aS'65960683'
p301
aS'64393888'
p302
ag224
aS'45556081'
p303
aS'87758823'
p304
ag222
ag60
ag216
ag267
ag134
ag223
ag130
aS'46052388'
p305
ag227
aS'1665980'
p306
asg64
I1000
sg65
Nsg66
(iread_data
Room
p307
(dp308
g64
S'60'
p309
sg70
S'C1.112'
p310
sbsg72
g73
sg74
I0
sg70
g240
sba(ischedule
Activity
p311
(dp312
g8
(lp313
S'32204977'
p314
aS'88596522'
p315
asg64
S'15'
p316
sg65
(ischedule
Group
p317
(dp318
g8
g313
sg70
S'Compilerbouw practicum2'
p319
sbsg66
(iread_data
Room
p320
(dp321
g64
g191
sg70
g192
sbsg72
g193
sg74
g208
sg70
S'Compilerbouw practicum'
p322
sba(ischedule
Activity
p323
(dp324
g8
(lp325
S'62356458'
p326
aS'34806836'
p327
ag96
ag145
aS'68409833'
p328
ag142
ag175
ag112
aS'52552718'
p329
aS'70113753'
p330
aS'88627897'
p331
ag87
ag118
ag269
aS'61611295'
p332
ag199
aS'72796858'
p333
aS'36508571'
p334
aS'11915563'
p335
aS'62872965'
p336
ag55
ag249
asg64
I1000
sg65
Nsg66
(iread_data
Room
p337
(dp338
g64
g158
sg70
g159
sbsg72
g73
sg74
I0
sg70
g209
sba(ischedule
Activity
p339
(dp340
g8
(lp341
S'23798155'
p342
aS'49683101'
p343
ag218
ag36
aS'40434933'
p344
ag115
aS'43460038'
p345
ag14
ag217
aS'70015932'
p346
aS'29718115'
p347
ag303
aS'72683344'
p348
aS'59289233'
p349
aS'58866007'
p350
aS'28618400'
p351
aS'10149535'
p352
ag128
ag79
aS'13798030'
p353
aS'34872117'
p354
asg64
I1000
sg65
Nsg66
(iread_data
Room
p355
(dp356
g64
g69
sg70
g71
sbsg72
g73
sg74
I0
sg70
S'Architectuur en computerorganisatie'
p357
sbaa(lp358
(ischedule
Activity
p359
(dp360
g8
(lp361
g52
ag55
ag23
ag62
ag14
ag51
ag56
ag19
ag59
ag44
ag43
ag12
ag30
ag42
ag47
ag16
ag37
ag13
ag39
asg64
S'20'
p362
sg65
(ischedule
Group
p363
(dp364
g8
g361
sg70
S'Moderne Databases1'
p365
sbsg66
(iread_data
Room
p366
(dp367
g64
g238
sg70
g239
sbsg72
S'tutorials'
p368
sg74
g194
sg70
g75
sba(ischedule
Activity
p369
(dp370
g8
(lp371
g100
ag110
ag263
ag262
ag267
ag256
ag247
ag275
ag246
ag258
ag252
asg64
S'20'
p372
sg65
(ischedule
Group
p373
(dp374
g8
g371
sg70
S'Bioinformatica2'
p375
sbsg66
(iread_data
Room
p376
(dp377
g64
g121
sg70
g122
sbsg72
g368
sg74
g208
sg70
g279
sba(ischedule
Activity
p378
(dp379
g8
(lp380
g63
ag303
ag286
ag299
ag265
ag306
ag177
ag264
asg64
g232
sg65
(ischedule
Group
p381
(dp382
g8
g380
sg70
S'Collectieve Intelligentie3'
p383
sbsg66
(iread_data
Room
p384
(dp385
g64
g309
sg70
g310
sbsg72
g193
sg74
S'3'
p386
sg70
g240
sba(ischedule
Activity
p387
(dp388
g8
(lp389
g166
ag17
ag268
ag253
ag270
ag98
ag245
ag57
ag259
ag271
ag276
ag33
ag248
ag250
ag273
ag274
ag165
ag269
ag257
ag94
ag272
asg64
g372
sg65
(ischedule
Group
p390
(dp391
g8
g389
sg70
S'Bioinformatica1'
p392
sbsg66
(iread_data
Room
p393
(dp394
g64
g158
sg70
g159
sbsg72
g368
sg74
g194
sg70
g279
sba(ischedule
Activity
p395
(dp396
g8
(lp397
S'48503689'
p398
aS'88752563'
p399
aS'75005528'
p400
ag290
aS'37419523'
p401
ag168
aS'74182182'
p402
aS'19662602'
p403
ag26
aS'19214659'
p404
aS'84110134'
p405
aS'32044893'
p406
aS'6939933'
p407
aS'21070547'
p408
aS'13284244'
p409
aS'12430748'
p410
asg64
S'15'
p411
sg65
(ischedule
Group
p412
(dp413
g8
g397
sg70
S'Project Numerical Recipes1'
p414
sbsg66
(iread_data
Room
p415
(dp416
g64
g191
sg70
g192
sbsg72
g193
sg74
g194
sg70
S'Project Numerical Recipes'
p417
sba(ischedule
Activity
p418
(dp419
g8
(lp420
S'45414528'
p421
aS'13116738'
p422
ag255
aS'13996448'
p423
aS'87314964'
p424
aS'68360259'
p425
aS'98780382'
p426
aS'97136582'
p427
ag114
ag166
ag127
aS'59753700'
p428
ag249
ag145
aS'19337738'
p429
aS'17823206'
p430
aS'93023961'
p431
ag86
aS'25330192'
p432
ag176
aS'91196968'
p433
aS'52311353'
p434
aS'87900893'
p435
ag96
aS'37744525'
p436
aS'99453514'
p437
ag132
asg64
I1000
sg65
Nsg66
(iread_data
Room
p438
(dp439
g64
g206
sg70
g207
sbsg72
g73
sg74
I0
sg70
S'Data Mining'
p440
sba(ischedule
Activity
p441
(dp442
g8
(lp443
g330
ag95
aS'47477884'
p444
ag302
aS'47982619'
p445
aS'23391676'
p446
aS'60661905'
p447
aS'27582862'
p448
aS'44671041'
p449
aS'79167252'
p450
aS'12782624'
p451
aS'73196865'
p452
ag182
aS'41585485'
p453
ag220
aS'34262212'
p454
aS'8464817'
p455
ag90
aS'80135353'
p456
aS'44391517'
p457
asg64
S'20'
p458
sg65
(ischedule
Group
p459
(dp460
g8
g443
sg70
S'Programmeren in Java 26'
p461
sbsg66
(iread_data
Room
p462
(dp463
g64
g69
sg70
g71
sbsg72
g193
sg74
S'6'
p464
sg70
S'Programmeren in Java 2'
p465
sbaa(lp466
(ischedule
Activity
p467
(dp468
g8
(lp469
g178
aS'14671406'
p470
ag102
ag291
ag18
ag98
ag114
aS'52715680'
p471
aS'21095566'
p472
ag171
ag91
ag184
ag35
ag247
ag112
ag405
ag37
ag176
aS'75599734'
p473
ag245
aS'14072826'
p474
aS'73302736'
p475
ag92
aS'42115591'
p476
aS'27950803'
p477
ag298
aS'62105897'
p478
aS'4546613'
p479
ag213
aS'37830626'
p480
aS'51593625'
p481
aS'65408517'
p482
ag147
ag222
ag449
ag346
ag270
aS'95631564'
p483
ag436
aS'82872148'
p484
aS'31247305'
p485
aS'9287708'
p486
aS'45915482'
p487
asg64
S'40'
p488
sg65
(ischedule
Group
p489
(dp490
g8
g469
sg70
S'Software engineering2'
p491
sbsg66
(iread_data
Room
p492
(dp493
g64
g206
sg70
g207
sbsg72
g368
sg74
g208
sg70
S'Software engineering'
p494
sba(ischedule
Activity
p495
(dp496
g8
(lp497
g351
aS'26207525'
p498
aS'53267490'
p499
aS'56191333'
p500
aS'85284256'
p501
aS'75664412'
p502
aS'12170832'
p503
aS'56121590'
p504
aS'87830198'
p505
ag99
ag229
ag50
ag217
ag109
aS'535689'
p506
aS'34243356'
p507
asg64
S'20'
p508
sg65
(ischedule
Group
p509
(dp510
g8
g497
sg70
S'Netwerken en systeembeveiliging1'
p511
sbsg66
(iread_data
Room
p512
(dp513
g64
g158
sg70
g159
sbsg72
g193
sg74
g194
sg70
S'Netwerken en systeembeveiliging'
p514
sba(ischedule
Activity
p515
(dp516
g8
(lp517
S'11459236'
p518
ag108
ag22
ag11
aS'75585647'
p519
asg64
S'15'
p520
sg65
(ischedule
Group
p521
(dp522
g8
g517
sg70
S'Informatie- en organsatieontwerp2'
p523
sbsg66
(iread_data
Room
p524
(dp525
g64
g121
sg70
g122
sbsg72
g193
sg74
g208
sg70
S'Informatie- en organsatieontwerp'
p526
sba(ischedule
Activity
p527
(dp528
g8
(lp529
g479
aS'76924297'
p530
aS'28055464'
p531
aS'66034145'
p532
aS'20374340'
p533
aS'64768422'
p534
aS'65675896'
p535
aS'2550487'
p536
ag300
aS'37399898'
p537
aS'81155296'
p538
aS'14847953'
p539
aS'69634191'
p540
ag132
ag170
aS'21677389'
p541
aS'81385263'
p542
ag129
aS'38179241'
p543
aS'93566383'
p544
aS'5368702'
p545
ag404
aS'76661016'
p546
aS'44828429'
p547
aS'37701751'
p548
asg64
I1000
sg65
Nsg66
(iread_data
Room
p549
(dp550
g64
g69
sg70
g71
sbsg72
g73
sg74
I0
sg70
S'Interactie-ontwerp'
p551
sba(ischedule
Activity
p552
(dp553
g8
(lp554
g269
ag329
aS'89338938'
p555
ag434
aS'80709893'
p556
ag259
ag335
ag287
aS'31103066'
p557
ag328
ag448
ag263
ag326
ag231
aS'55474917'
p558
aS'58074656'
p559
ag14
aS'58565406'
p560
ag21
aS'83210352'
p561
ag250
ag345
aS'3727435'
p562
aS'1048485'
p563
aS'41153310'
p564
aS'94467156'
p565
aS'31633723'
p566
ag15
aS'13718298'
p567
aS'65318664'
p568
aS'96554914'
p569
ag272
asg64
g488
sg65
(ischedule
Group
p570
(dp571
g8
g554
sg70
S'Software engineering1'
p572
sbsg66
(iread_data
Room
p573
(dp574
g64
g309
sg70
g310
sbsg72
g368
sg74
g194
sg70
g494
sba(ischedule
Activity
p575
(dp576
g8
(lp577
g130
aS'24891081'
p578
ag226
ag283
ag146
aS'17092717'
p579
ag218
aS'5615125'
p580
ag344
aS'41790793'
p581
aS'28358060'
p582
aS'22288615'
p583
aS'10698627'
p584
aS'14303208'
p585
aS'1137946'
p586
aS'76648468'
p587
aS'6249823'
p588
aS'67073567'
p589
aS'53512831'
p590
asg64
S'20'
p591
sg65
(ischedule
Group
p592
(dp593
g8
g577
sg70
S'Webprogrammeren en databases2'
p594
sbsg66
(iread_data
Room
p595
(dp596
g64
g238
sg70
g239
sbsg72
g193
sg74
g208
sg70
S'Webprogrammeren en databases'
p597
sba(ischedule
Activity
p598
(dp599
g8
(lp600
g118
aS'18266644'
p601
ag48
aS'17496687'
p602
ag422
ag347
aS'77636749'
p603
aS'19958553'
p604
ag182
aS'23257088'
p605
ag80
ag314
ag31
aS'8557857'
p606
ag255
ag289
asg64
S'15'
p607
sg65
(ischedule
Group
p608
(dp609
g8
g600
sg70
S'Informatie- en organsatieontwerp1'
p610
sbsg66
(iread_data
Room
p611
(dp612
g64
g191
sg70
g192
sbsg72
g368
sg74
g194
sg70
g526
sbaa(lp613
(ischedule
Activity
p614
(dp615
g8
(lp616
g131
ag134
ag138
ag140
ag148
ag154
ag145
ag141
ag144
ag132
ag135
ag133
ag155
ag149
ag127
ag147
ag143
ag152
ag150
ag129
ag137
ag151
ag153
ag18
ag130
asg64
S'20'
p617
sg65
(ischedule
Group
p618
(dp619
g8
g616
sg70
S'Heuristieken 21'
p620
sbsg66
g67
sg72
g368
sg74
g194
sg70
g160
sba(ischedule
Activity
p621
(dp622
g8
g389
sg64
S'20'
p623
sg65
g390
sg66
(iread_data
Room
p624
(dp625
g64
g191
sg70
g192
sbsg72
g193
sg74
g194
sg70
g279
sba(ischedule
Activity
p626
(dp627
g8
(lp628
g108
ag255
ag48
ag11
ag118
ag80
ag602
ag347
ag518
ag22
ag604
ag422
ag603
ag605
ag606
ag31
ag601
ag314
ag182
ag289
ag519
asg64
I1000
sg65
Nsg66
(iread_data
Room
p629
(dp630
g64
g206
sg70
g207
sbsg72
g73
sg74
I0
sg70
g526
sba(ischedule
Activity
p631
(dp632
g8
g361
sg64
S'20'
p633
sg65
g363
sg66
(iread_data
Room
p634
(dp635
g64
g238
sg70
g239
sbsg72
g193
sg74
g194
sg70
g75
sba(ischedule
Activity
p636
(dp637
g8
(lp638
g350
aS'90743504'
p639
aS'16011419'
p640
aS'79937969'
p641
ag336
aS'26172512'
p642
ag55
ag290
ag334
ag433
ag143
aS'66570705'
p643
ag91
ag434
ag304
aS'94686490'
p644
aS'41578612'
p645
ag286
aS'23565001'
p646
ag507
ag260
aS'3474870'
p647
ag328
ag104
aS'80998260'
p648
ag45
ag556
ag297
aS'94955328'
p649
ag561
aS'32595335'
p650
ag265
ag113
ag100
aS'4921119'
p651
aS'54074680'
p652
ag402
ag352
aS'38499176'
p653
ag142
aS'55412918'
p654
ag296
ag558
aS'48308205'
p655
ag400
aS'16333449'
p656
ag544
aS'34588570'
p657
ag542
aS'21311067'
p658
ag476
ag537
aS'56872729'
p659
aS'96118484'
p660
asg64
I1000
sg65
Nsg66
(iread_data
Room
p661
(dp662
g64
g121
sg70
g122
sbsg72
g73
sg74
I0
sg70
S'Lineaire Algebra'
p663
sba(ischedule
Activity
p664
(dp665
g8
g198
sg64
S'10'
p666
sg65
g201
sg66
(iread_data
Room
p667
(dp668
g64
g309
sg70
g310
sbsg72
g368
sg74
g208
sg70
g209
sba(ischedule
Activity
p669
(dp670
g8
g212
sg64
S'20'
p671
sg65
g233
sg66
(iread_data
Room
p672
(dp673
g64
g158
sg70
g159
sbsg72
g368
sg74
g194
sg70
g240
sbaaa(lp674
(lp675
(ischedule
Activity
p676
(dp677
g8
g628
sg64
I1000
sg65
Nsg66
(iread_data
Room
p678
(dp679
g64
g158
sg70
g159
sbsg72
g73
sg74
I0
sg70
g526
sba(ischedule
Activity
p680
(dp681
g8
(lp682
g436
asg64
S'10'
p683
sg65
(ischedule
Group
p684
(dp685
g8
g682
sg70
S'Data Mining1'
p686
sbsg66
(iread_data
Room
p687
(dp688
g64
g309
sg70
g310
sbsg72
g368
sg74
g194
sg70
g440
sba(ischedule
Activity
p689
(dp690
g8
(lp691
S'27064249'
p692
ag14
aS'77392404'
p693
ag656
ag248
ag263
ag345
ag532
ag18
aS'43902015'
p694
ag539
aS'69459473'
p695
ag81
aS'2416751'
p696
aS'39230359'
p697
aS'76903244'
p698
ag647
ag168
aS'20618153'
p699
aS'49908313'
p700
asg64
S'20'
p701
sg65
(ischedule
Group
p702
(dp703
g8
g691
sg70
S'Webprogrammeren en databases1'
p704
sbsg66
(iread_data
Room
p705
(dp706
g64
g238
sg70
g239
sbsg72
g368
sg74
g194
sg70
g597
sba(ischedule
Activity
p707
(dp708
g8
(lp709
g505
ag19
ag17
aS'77960666'
p710
ag268
ag80
ag471
ag169
aS'20239127'
p711
ag144
aS'36785409'
p712
ag154
aS'27805666'
p713
aS'51415617'
p714
aS'20095994'
p715
ag406
ag569
ag261
ag567
asg64
S'20'
p716
sg65
(ischedule
Group
p717
(dp718
g8
g709
sg70
S'Reflectie op de digitale cultuur1'
p719
sbsg66
(iread_data
Room
p720
(dp721
g64
g191
sg70
g192
sbsg72
g368
sg74
g194
sg70
S'Reflectie op de digitale cultuur'
p722
sba(ischedule
Activity
p723
(dp724
g8
(lp725
S'4529208'
p726
ag273
ag13
ag20
aS'51542218'
p727
ag659
ag644
ag134
ag329
ag105
ag354
ag219
ag274
ag262
ag344
ag167
aS'27123462'
p728
aS'46989508'
p729
ag55
ag217
aS'15187217'
p730
ag199
ag504
aS'54540997'
p731
ag548
ag110
aS'59397895'
p732
ag333
ag694
ag22
aS'5526560'
p733
ag298
ag94
ag63
aS'73823548'
p734
ag710
ag498
ag400
ag38
aS'58083680'
p735
aS'72456780'
p736
aS'13132925'
p737
ag180
aS'25077484'
p738
ag500
aS'47932106'
p739
ag214
aS'90474003'
p740
aS'86180471'
p741
ag42
ag605
ag27
ag294
ag23
ag145
ag444
ag140
aS'60352393'
p742
aS'12091019'
p743
aS'23658570'
p744
ag579
ag181
ag399
ag226
ag651
ag297
ag265
aS'5085194'
p745
ag143
aS'40141996'
p746
ag30
aS'62736669'
p747
asg64
I1000
sg65
Nsg66
(iread_data
Room
p748
(dp749
g64
g206
sg70
g207
sbsg72
g73
sg74
I0
sg70
S'Databases 2'
p750
sba(ischedule
Activity
p751
(dp752
g8
(lp753
g218
aS'92665222'
p754
aS'70844780'
p755
ag251
aS'62613937'
p756
ag273
ag351
ag90
asg64
S'10'
p757
sg65
(ischedule
Group
p758
(dp759
g8
g753
sg70
S'Advanced Heuristics2'
p760
sbsg66
(iread_data
Room
p761
(dp762
g64
g69
sg70
g71
sbsg72
g193
sg74
g208
sg70
S'Advanced Heuristics'
p763
sba(ischedule
Activity
p764
(dp765
g8
(lp766
g645
ag271
aS'42406214'
p767
ag146
ag477
ag112
ag740
ag447
aS'27370083'
p768
ag96
aS'92778619'
p769
aS'49922855'
p770
aS'38296757'
p771
asg64
g716
sg65
(ischedule
Group
p772
(dp773
g8
g766
sg70
S'Reflectie op de digitale cultuur2'
p774
sbsg66
(iread_data
Room
p775
(dp776
g64
g121
sg70
g122
sbsg72
g368
sg74
g208
sg70
g722
sbaa(lp777
(ischedule
Activity
p778
(dp779
g8
(lp780
g147
ag568
ag405
ag14
ag92
ag178
ag475
ag213
ag176
ag287
ag270
ag470
ag448
ag477
ag436
ag476
ag21
ag102
ag484
ag291
ag557
ag259
ag483
ag18
ag482
ag328
ag222
ag566
ag269
ag250
ag558
ag98
ag479
ag114
ag564
ag559
ag487
ag480
ag478
ag471
ag485
ag474
ag335
ag346
ag37
ag434
ag565
ag560
ag481
ag231
ag449
ag569
ag561
ag563
ag329
ag15
ag486
ag472
ag555
ag171
ag263
ag556
ag245
ag91
ag473
ag184
ag562
ag345
ag567
ag35
ag326
ag247
ag298
ag112
ag272
asg64
I1000
sg65
Nsg66
(iread_data
Room
p781
(dp782
g64
g121
sg70
g122
sbsg72
g73
sg74
I0
sg70
g494
sba(ischedule
Activity
p783
(dp784
g8
(lp785
g264
ag253
ag248
ag254
ag542
ag168
ag333
ag36
aS'9067939'
p786
aS'95007221'
p787
aS'65852230'
p788
ag546
aS'40791377'
p789
aS'31194811'
p790
ag173
ag290
ag456
ag450
ag301
aS'3407554'
p791
aS'27187154'
p792
aS'76802764'
p793
aS'2317551'
p794
aS'79033175'
p795
aS'43689934'
p796
aS'10792879'
p797
ag245
aS'66701209'
p798
aS'5595824'
p799
ag399
aS'54772132'
p800
aS'88855695'
p801
ag457
asg64
S'40'
p802
sg65
(ischedule
Group
p803
(dp804
g8
g785
sg70
S'Compilerbouw1'
p805
sbsg66
(iread_data
Room
p806
(dp807
g64
g69
sg70
g71
sbsg72
g368
sg74
g194
sg70
S'Compilerbouw'
p808
sba(ischedule
Activity
p809
(dp810
g8
(lp811
g118
ag693
ag127
aS'72665524'
p812
aS'64246605'
p813
ag298
ag755
ag83
ag601
ag19
ag742
aS'62363761'
p814
ag246
aS'59887191'
p815
ag541
asg64
g508
sg65
(ischedule
Group
p816
(dp817
g8
g811
sg70
S'Netwerken en systeembeveiliging4'
p818
sbsg66
(iread_data
Room
p819
(dp820
g64
g309
sg70
g310
sbsg72
g193
sg74
S'4'
p821
sg70
g514
sba(ischedule
Activity
p822
(dp823
g8
g517
sg64
g607
sg65
g521
sg66
(iread_data
Room
p824
(dp825
g64
g238
sg70
g239
sbsg72
g368
sg74
g208
sg70
g526
sbaa(lp826
(ischedule
Activity
p827
(dp828
g8
(lp829
S'68286356'
p830
ag645
aS'36213792'
p831
ag154
aS'3685034'
p832
ag755
ag96
ag271
ag29
ag768
ag740
ag447
ag505
ag261
aS'61518436'
p833
ag43
ag471
ag537
ag19
ag112
aS'54569540'
p834
ag711
ag767
ag63
ag144
ag742
ag569
ag17
ag146
ag437
ag710
ag428
ag715
ag477
ag214
ag712
ag167
ag769
ag714
aS'82390428'
p835
aS'51052738'
p836
ag693
ag268
ag80
ag406
ag770
ag169
ag567
ag771
ag713
aS'70193386'
p837
asg64
I1000
sg65
Nsg66
(iread_data
Room
p838
(dp839
g64
g121
sg70
g122
sbsg72
g73
sg74
I0
sg70
g722
sba(ischedule
Activity
p840
(dp841
g8
(lp842
S'34110913'
p843
ag792
ag798
ag213
aS'88636924'
p844
ag502
ag795
ag343
ag790
ag26
ag89
ag290
ag793
ag409
ag800
ag398
ag796
ag168
ag788
ag36
aS'15911353'
p845
aS'7957843'
p846
ag199
ag15
ag230
ag546
ag264
ag786
ag545
ag297
ag16
ag399
ag789
aS'75759231'
p847
aS'2079771'
p848
ag167
ag542
ag154
ag253
ag473
ag301
aS'94687383'
p849
ag483
ag507
ag797
ag335
ag216
ag794
ag48
ag455
ag248
ag333
ag254
ag173
ag791
ag754
ag61
ag450
ag58
ag245
ag787
ag477
ag456
ag729
ag799
ag801
ag655
ag354
ag457
asg64
I1000
sg65
Nsg66
(iread_data
Room
p850
(dp851
g64
g206
sg70
g207
sbsg72
g73
sg74
I0
sg70
g808
sba(ischedule
Activity
p852
(dp853
g8
(lp854
g164
ag181
ag174
ag647
ag83
ag180
ag165
ag173
ag166
aS'67817269'
p855
ag167
ag471
ag182
ag105
ag37
ag694
ag129
ag547
ag184
aS'23652927'
p856
ag177
ag453
ag168
ag315
ag169
ag178
ag170
ag175
ag179
ag306
ag542
ag145
ag470
aS'53585410'
p857
ag147
ag183
ag176
ag472
ag217
ag172
ag171
ag30
aS'51509565'
p858
asg64
I1000
sg65
Nsg66
(iread_data
Room
p859
(dp860
g64
g69
sg70
g71
sbsg72
g73
sg74
I0
sg70
g195
sba(ischedule
Activity
p861
(dp862
g8
(lp863
g55
ag11
ag166
ag130
ag289
ag296
ag300
ag25
ag85
ag153
ag92
ag302
ag304
ag38
ag291
ag293
ag288
ag60
ag295
ag294
ag305
asg64
g232
sg65
(ischedule
Group
p864
(dp865
g8
g863
sg70
S'Collectieve Intelligentie2'
p866
sbsg66
(iread_data
Room
p867
(dp868
g64
g158
sg70
g159
sbsg72
g193
sg74
g208
sg70
g240
sba(ischedule
Activity
p869
(dp870
g8
g371
sg64
g623
sg65
g373
sg66
(iread_data
Room
p871
(dp872
g64
g191
sg70
g192
sbsg72
g193
sg74
g208
sg70
g279
sbaa(lp873
(ischedule
Activity
p874
(dp875
g8
g282
sg64
I1000
sg65
Nsg66
g781
sg72
g73
sg74
I0
sg70
g240
sba(ischedule
Activity
p876
(dp877
g8
g682
sg64
S'10'
p878
sg65
g684
sg66
(iread_data
Room
p879
(dp880
g64
g206
sg70
g207
sbsg72
g193
sg74
g194
sg70
g440
sba(ischedule
Activity
p881
(dp882
g8
(lp883
S'77306636'
p884
ag746
ag33
ag59
ag262
aS'61520025'
p885
ag797
ag253
aS'70939718'
p886
ag90
ag266
aS'11593163'
p887
ag100
aS'53139134'
p888
ag475
ag352
ag744
aS'19717077'
p889
ag654
aS'10609762'
p890
ag538
aS'79888156'
p891
ag247
aS'75623387'
p892
ag260
ag102
aS'75446434'
p893
ag142
ag646
ag478
ag128
ag52
ag585
ag792
aS'58253841'
p894
aS'78735049'
p895
asg64
S'40'
p896
sg65
(ischedule
Group
p897
(dp898
g8
g883
sg70
S'Calculus 23'
p899
sbsg66
(iread_data
Room
p900
(dp901
g64
g69
sg70
g71
sbsg72
g368
sg74
g386
sg70
S'Calculus 2'
p902
sba(ischedule
Activity
p903
(dp904
g8
g691
sg64
g591
sg65
g702
sg66
(iread_data
Room
p905
(dp906
g64
g309
sg70
g310
sbsg72
g193
sg74
g194
sg70
g597
sba(ischedule
Activity
p907
(dp908
g8
(lp909
g505
aS'25994016'
p910
ag328
ag29
ag565
aS'75680261'
p911
ag254
ag21
aS'14398123'
p912
aS'41644639'
p913
asg64
S'15'
p914
sg65
(ischedule
Group
p915
(dp916
g8
g909
sg70
S'Project Genetic Algorithms3'
p917
sbsg66
(iread_data
Room
p918
(dp919
g64
g158
sg70
g159
sbsg72
g193
sg74
g386
sg70
S'Project Genetic Algorithms'
p920
sba(ischedule
Activity
p921
(dp922
g8
(lp923
g145
ag176
ag433
ag249
ag114
ag424
ag431
ag86
asg64
g878
sg65
(ischedule
Group
p924
(dp925
g8
g923
sg70
S'Data Mining3'
p926
sbsg66
(iread_data
Room
p927
(dp928
g64
g238
sg70
g239
sbsg72
g193
sg74
g386
sg70
g440
sbaa(lp929
(ischedule
Activity
p930
(dp931
g8
(lp932
g519
ag183
ag268
ag487
aS'31306819'
p933
ag284
ag151
aS'55530367'
p934
ag482
aS'56544130'
p935
ag692
aS'72526473'
p936
ag739
ag44
ag94
ag444
ag771
aS'32705005'
p937
aS'22168693'
p938
ag857
ag285
aS'28957789'
p939
ag407
ag580
aS'80188025'
p940
aS'82412626'
p941
ag175
ag283
ag399
ag435
ag149
ag546
ag743
ag177
aS'65978354'
p942
ag741
ag92
aS'93361408'
p943
ag402
aS'14179347'
p944
ag812
ag178
aS'59220392'
p945
ag479
ag32
ag30
asg64
g896
sg65
(ischedule
Group
p946
(dp947
g8
g932
sg70
S'Calculus 21'
p948
sbsg66
g687
sg72
g368
sg74
g194
sg70
g902
sba(ischedule
Activity
p949
(dp950
g8
(lp951
g18
ag27
ag33
ag48
ag60
ag50
ag21
ag20
ag35
ag53
ag10
ag45
ag41
ag40
asg64
g362
sg65
(ischedule
Group
p952
(dp953
g8
g951
sg70
S'Moderne Databases3'
p954
sbsg66
g678
sg72
g368
sg74
g386
sg70
g75
sba(ischedule
Activity
p955
(dp956
g8
g923
sg64
g683
sg65
g924
sg66
(iread_data
Room
p957
(dp958
g64
g191
sg70
g192
sbsg72
g368
sg74
g386
sg70
g440
sba(ischedule
Activity
p959
(dp960
g8
g863
sg64
g671
sg65
g864
sg66
(iread_data
Room
p961
(dp962
g64
g121
sg70
g122
sbsg72
g368
sg74
g208
sg70
g240
sba(ischedule
Activity
p963
(dp964
g8
g829
sg64
I1000
sg65
Nsg66
(iread_data
Room
p965
(dp966
g64
g206
sg70
g207
sbsg72
g73
sg74
I0
sg70
g722
sba(ischedule
Activity
p967
(dp968
g8
(lp969
g297
ag436
ag108
aS'9731271'
p970
aS'10702778'
p971
ag110
ag215
ag59
ag430
ag111
aS'73893840'
p972
ag649
ag216
ag563
aS'23215240'
p973
ag558
ag583
asg64
g458
sg65
(ischedule
Group
p974
(dp975
g8
g969
sg70
S'Programmeren in Java 22'
p976
sbsg66
(iread_data
Room
p977
(dp978
g64
g69
sg70
g71
sbsg72
g193
sg74
g208
sg70
g465
sba(ischedule
Activity
p979
(dp980
g8
g341
sg64
I1000
sg65
Nsg66
(iread_data
Room
p981
(dp982
g64
g238
sg70
g239
sbsg72
g73
sg74
I0
sg70
g357
sbaaa(lp983
(lp984
(ischedule
Activity
p985
(dp986
g8
(lp987
g135
ag116
ag651
aS'58469172'
p988
aS'34900967'
p989
ag83
ag653
ag130
ag289
ag849
ag151
ag253
aS'28943658'
p990
ag166
aS'37279234'
p991
ag857
aS'88519892'
p992
ag710
ag33
aS'64053722'
p993
aS'54395877'
p994
ag794
asg64
g458
sg65
(ischedule
Group
p995
(dp996
g8
g987
sg70
S'Programmeren in Java 24'
p997
sbsg66
(iread_data
Room
p998
(dp999
g64
g191
sg70
g192
sbsg72
g193
sg74
g821
sg70
g465
sba(ischedule
Activity
p1000
(dp1001
g8
g529
sg64
I1000
sg65
Nsg66
(iread_data
Room
p1002
(dp1003
g64
g206
sg70
g207
sbsg72
g73
sg74
I0
sg70
g551
sba(ischedule
Activity
p1004
(dp1005
g8
(lp1006
g792
ag436
ag832
ag833
aS'67625383'
p1007
aS'56988998'
p1008
ag47
ag135
ag565
ag183
ag295
ag343
ag771
ag147
aS'26857113'
p1009
ag789
aS'33252501'
p1010
ag342
ag56
aS'90067329'
p1011
ag848
ag199
asg64
I1000
sg65
Nsg66
(iread_data
Room
p1012
(dp1013
g64
g238
sg70
g239
sbsg72
g73
sg74
I0
sg70
S'Machine Learning'
p1014
sba(ischedule
Activity
p1015
(dp1016
g8
(lp1017
g176
ag284
ag99
ag290
ag283
ag301
ag285
ag297
ag298
ag287
ag134
ag292
ag267
asg64
g232
sg65
(ischedule
Group
p1018
(dp1019
g8
g1017
sg70
S'Collectieve Intelligentie4'
p1020
sbsg66
(iread_data
Room
p1021
(dp1022
g64
g121
sg70
g122
sbsg72
g193
sg74
g821
sg70
g240
sba(ischedule
Activity
p1023
(dp1024
g8
(lp1025
g215
aS'4697362'
p1026
ag344
ag219
ag300
ag17
ag603
aS'14383795'
p1027
ag555
ag118
ag13
aS'92496780'
p1028
ag96
ag645
ag502
aS'21192048'
p1029
aS'69086548'
p1030
ag148
ag655
ag11
ag445
ag410
aS'70336464'
p1031
ag712
ag588
ag173
ag57
aS'93041523'
p1032
ag790
ag314
ag48
ag114
aS'76487754'
p1033
ag15
aS'97371272'
p1034
ag560
ag352
aS'77264363'
p1035
asg64
I1000
sg65
Nsg66
(iread_data
Room
p1036
(dp1037
g64
g158
sg70
g159
sbsg72
g73
sg74
I0
sg70
S'Technology for games'
p1038
sba(ischedule
Activity
p1039
(dp1040
g8
g380
sg64
g671
sg65
g381
sg66
(iread_data
Room
p1041
(dp1042
g64
g309
sg70
g310
sbsg72
g368
sg74
g386
sg70
g240
sba(ischedule
Activity
p1043
(dp1044
g8
(lp1045
g145
ag328
ag327
ag269
ag331
ag335
ag249
asg64
g666
sg65
(ischedule
Group
p1046
(dp1047
g8
g1045
sg70
S'Autonomous Agents 21'
p1048
sbsg66
(iread_data
Room
p1049
(dp1050
g64
g69
sg70
g71
sbsg72
g368
sg74
g194
sg70
g209
sbaa(lp1051
(ischedule
Activity
p1052
(dp1053
g8
(lp1054
g519
ag585
ag884
ag889
ag175
ag746
ag183
ag991
ag33
ag944
ag128
ag435
ag268
ag247
ag812
ag487
ag102
ag59
ag933
ag741
ag262
ag801
ag52
ag885
ag284
ag941
ag797
ag890
ag943
ag352
ag151
ag894
ag92
ag934
ag478
ag659
ag482
ag970
ag253
ag935
ag35
ag895
ag692
ag32
ag36
ag57
ag153
ag546
ag936
ag942
ag886
ag739
ag229
ag138
ag44
aS'33672995'
p1055
ag988
ag792
ag940
ag177
ag94
ag814
ag734
ag892
ag260
ag90
ag444
ag283
aS'3678531'
p1056
ag771
aS'6709529'
p1057
ag149
ag937
aS'24875739'
p1058
ag178
aS'23628642'
p1059
ag644
ag266
ag938
ag142
ag887
ag857
ag654
ag30
ag285
ag479
aS'34173695'
p1060
aS'56348773'
p1061
ag538
ag646
ag744
ag24
ag450
ag893
ag891
ag100
ag939
ag399
ag888
ag407
ag945
ag475
ag543
ag402
ag743
ag580
asg64
I1000
sg65
Nsg66
(iread_data
Room
p1062
(dp1063
g64
g121
sg70
g122
sbsg72
g73
sg74
I0
sg70
g902
sba(ischedule
Activity
p1064
(dp1065
g8
g420
sg64
I1000
sg65
Nsg66
(iread_data
Room
p1066
(dp1067
g64
g309
sg70
g310
sbsg72
g73
sg74
I0
sg70
g440
sba(ischedule
Activity
p1068
(dp1069
g8
(lp1070
g213
ag398
ag15
ag167
ag473
ag507
ag335
ag477
ag483
ag729
ag58
ag230
ag847
ag545
ag26
ag844
ag199
ag655
ag89
ag354
ag455
ag216
ag409
ag343
ag846
ag48
ag16
ag848
ag754
ag843
ag61
ag154
ag502
ag845
ag849
ag297
asg64
S'40'
p1071
sg65
(ischedule
Group
p1072
(dp1073
g8
g1070
sg70
S'Compilerbouw2'
p1074
sbsg66
(iread_data
Room
p1075
(dp1076
g64
g69
sg70
g71
sbsg72
g193
sg74
g208
sg70
g808
sba(ischedule
Activity
p1077
(dp1078
g8
g785
sg64
g1071
sg65
g803
sg66
(iread_data
Room
p1079
(dp1080
g64
g158
sg70
g159
sbsg72
g193
sg74
g194
sg70
g808
sbaa(lp1081
(ischedule
Activity
p1082
(dp1083
g8
g282
sg64
I1000
sg65
Nsg66
(iread_data
Room
p1084
(dp1085
g64
g309
sg70
g310
sbsg72
g73
sg74
I0
sg70
g240
sba(ischedule
Activity
p1086
(dp1087
g8
(lp1088
g112
ag146
aS'73350019'
p1089
ag935
ag32
ag651
ag727
aS'72586808'
p1090
ag989
ag447
ag103
aS'78822885'
p1091
ag744
aS'18477924'
p1092
ag27
ag142
ag507
aS'14637758'
p1093
ag649
ag57
ag1055
ag134
ag476
ag736
ag294
ag568
ag712
ag434
ag745
ag133
ag940
ag646
ag756
aS'97838175'
p1094
ag111
ag799
ag645
ag505
aS'88737765'
p1095
ag257
aS'58480929'
p1096
aS'82854435'
p1097
ag601
ag276
ag837
ag102
ag342
ag567
ag475
asg64
I1000
sg65
Nsg66
(iread_data
Room
p1098
(dp1099
g64
g121
sg70
g122
sbsg72
g73
sg74
I0
sg70
S'Analysemethoden en -technieken'
p1100
sba(ischedule
Activity
p1101
(dp1102
g8
g1025
sg64
I1000
sg65
Nsg66
(iread_data
Room
p1103
(dp1104
g64
g69
sg70
g71
sbsg72
g73
sg74
I0
sg70
g1038
sba(ischedule
Activity
p1105
(dp1106
g8
(lp1107
g695
ag530
ag944
aS'82066165'
p1108
ag733
aS'51673172'
p1109
aS'40633534'
p1110
ag149
asg64
g914
sg65
(ischedule
Group
p1111
(dp1112
g8
g1107
sg70
S'Project Genetic Algorithms2'
p1113
sbsg66
(iread_data
Room
p1114
(dp1115
g64
g238
sg70
g239
sbsg72
g193
sg74
g208
sg70
g920
sba(ischedule
Activity
p1116
(dp1117
g8
(lp1118
g536
ag605
ag138
ag1009
ag174
ag537
ag183
ag421
ag769
ag544
ag584
ag180
ag19
ag43
aS'39905995'
p1119
aS'63096281'
p1120
ag143
ag22
ag199
ag268
ag478
aS'90296821'
p1121
asg64
g458
sg65
(ischedule
Group
p1122
(dp1123
g8
g1118
sg70
S'Programmeren in Java 21'
p1124
sbsg66
(iread_data
Room
p1125
(dp1126
g64
g206
sg70
g207
sbsg72
g193
sg74
g194
sg70
g465
sba(ischedule
Activity
p1127
(dp1128
g8
(lp1129
g141
ag255
ag132
ag254
ag264
ag261
ag249
ag42
ag47
ag265
ag260
ag266
ag251
asg64
g623
sg65
(ischedule
Group
p1130
(dp1131
g8
g1129
sg70
S'Bioinformatica3'
p1132
sbsg66
(iread_data
Room
p1133
(dp1134
g64
g191
sg70
g192
sbsg72
g193
sg74
g386
sg70
g279
sba(ischedule
Activity
p1135
(dp1136
g8
(lp1137
g177
ag792
ag565
ag56
aS'99272880'
p1138
ag262
ag501
ag167
ag398
ag150
ag423
ag271
ag699
asg64
g458
sg65
(ischedule
Group
p1139
(dp1140
g8
g1137
sg70
S'Programmeren in Java 23'
p1141
sbsg66
(iread_data
Room
p1142
(dp1143
g64
g158
sg70
g159
sbsg72
g193
sg74
g386
sg70
g465
sbaa(lp1144
(ischedule
Activity
p1145
(dp1146
g8
g842
sg64
I1000
sg65
Nsg66
(iread_data
Room
p1147
(dp1148
g64
g121
sg70
g122
sbsg72
g73
sg74
I0
sg70
g808
sba(ischedule
Activity
p1149
(dp1150
g8
g1006
sg64
I1000
sg65
Nsg66
(iread_data
Room
p1151
(dp1152
g64
g191
sg70
g192
sbsg72
g73
sg74
I0
sg70
g1014
sba(ischedule
Activity
p1153
(dp1154
g8
(lp1155
g348
ag273
ag812
ag539
ag169
ag756
ag444
ag218
ag251
ag754
ag32
ag1110
ag300
ag90
ag692
ag755
ag351
ag139
ag742
aS'39429093'
p1156
asg64
I1000
sg65
Nsg66
(iread_data
Room
p1157
(dp1158
g64
g309
sg70
g310
sbsg72
g73
sg74
I0
sg70
g763
sba(ischedule
Activity
p1159
(dp1160
g8
g325
sg64
I1000
sg65
Nsg66
(iread_data
Room
p1161
(dp1162
g64
g206
sg70
g207
sbsg72
g73
sg74
I0
sg70
g209
sba(ischedule
Activity
p1163
(dp1164
g8
(lp1165
g138
ag1138
ag306
ag219
ag585
aS'1695839'
p1166
ag176
aS'42297781'
p1167
ag113
ag79
aS'5892092'
p1168
ag653
ag910
aS'64418623'
p1169
ag270
aS'47260040'
p1170
aS'55103073'
p1171
ag535
ag1109
ag1027
ag745
aS'74361881'
p1172
aS'91250534'
p1173
ag518
ag506
ag250
asg64
g316
sg65
(ischedule
Group
p1174
(dp1175
g8
g1165
sg70
S'Compilerbouw practicum1'
p1176
sbsg66
(iread_data
Room
p1177
(dp1178
g64
g158
sg70
g159
sbsg72
g193
sg74
g194
sg70
g322
sba(ischedule
Activity
p1179
(dp1180
g8
(lp1181
S'7492204'
p1182
ag296
aS'88263855'
p1183
ag285
ag744
aS'88597745'
p1184
ag800
aS'51791169'
p1185
ag1056
ag20
ag433
ag298
aS'7386961'
p1186
ag564
ag481
ag696
asg64
g458
sg65
(ischedule
Group
p1187
(dp1188
g8
g1181
sg70
S'Programmeren in Java 25'
p1189
sbsg66
(iread_data
Room
p1190
(dp1191
g64
g238
sg70
g239
sbsg72
g193
sg74
S'5'
p1192
sg70
g465
sba(ischedule
Activity
p1193
(dp1194
g8
(lp1195
g427
ag255
ag428
ag430
ag423
ag166
ag132
ag435
ag127
ag422
ag426
ag434
ag425
ag437
ag421
ag96
ag429
ag432
asg64
g878
sg65
(ischedule
Group
p1196
(dp1197
g8
g1195
sg70
S'Data Mining2'
p1198
sbsg66
(iread_data
Room
p1199
(dp1200
g64
g69
sg70
g71
sbsg72
g193
sg74
g208
sg70
g440
sbaa(lp1201
(ischedule
Activity
p1202
(dp1203
g8
(lp1204
g970
ag35
ag153
ag229
ag1057
ag24
ag801
ag57
ag1056
ag988
ag1059
ag450
ag734
ag36
ag1060
ag543
ag659
ag644
ag1061
ag138
ag1055
ag1058
ag814
ag991
asg64
g896
sg65
(ischedule
Group
p1205
(dp1206
g8
g1204
sg70
S'Calculus 22'
p1207
sbsg66
g687
sg72
g368
sg74
g208
sg70
g902
sba(ischedule
Activity
p1208
(dp1209
g8
g163
sg64
S'25'
p1210
sg65
g186
sg66
g624
sg72
g368
sg74
g194
sg70
g195
sba(ischedule
Activity
p1211
(dp1212
g8
(lp1213
g105
ag306
ag30
ag217
ag37
ag147
ag83
ag129
ag542
ag858
ag453
ag471
ag857
ag472
ag855
ag145
ag694
ag470
ag547
ag315
ag647
ag856
asg64
g185
sg65
(ischedule
Group
p1214
(dp1215
g8
g1213
sg70
S'Algoritmen en complexiteit2'
p1216
sbsg66
(iread_data
Room
p1217
(dp1218
g64
g121
sg70
g122
sbsg72
g193
sg74
g208
sg70
g195
sba(ischedule
Activity
p1219
(dp1220
g8
g554
sg64
S'40'
p1221
sg65
g570
sg66
(iread_data
Room
p1222
(dp1223
g64
g69
sg70
g71
sbsg72
g193
sg74
g194
sg70
g494
sba(ischedule
Activity
p1224
(dp1225
g8
(lp1226
g96
ag104
ag92
ag93
ag101
ag88
ag81
ag111
asg64
S'25'
p1227
sg65
(ischedule
Group
p1228
(dp1229
g8
g1226
sg70
S'Heuristieken 12'
p1230
sbsg66
(iread_data
Room
p1231
(dp1232
g64
g238
sg70
g239
sbsg72
g368
sg74
g208
sg70
g123
sba(ischedule
Activity
p1233
(dp1234
g8
(lp1235
g79
ag83
ag94
ag106
ag110
ag117
ag109
ag80
ag105
ag103
ag99
ag112
ag102
ag85
ag90
ag116
ag97
ag32
ag13
ag82
ag113
ag91
ag118
ag100
ag107
ag115
ag89
ag11
ag86
ag114
ag87
ag60
ag95
ag98
ag108
ag84
asg64
g1227
sg65
(ischedule
Group
p1236
(dp1237
g8
g1235
sg70
S'Heuristieken 11'
p1238
sbsg66
(iread_data
Room
p1239
(dp1240
g64
g158
sg70
g159
sbsg72
g368
sg74
g194
sg70
g123
sba(ischedule
Activity
p1241
(dp1242
g8
g1129
sg64
g372
sg65
g1130
sg66
(iread_data
Room
p1243
(dp1244
g64
g206
sg70
g207
sbsg72
g368
sg74
g386
sg70
g279
sbaaa(lp1245
(lp1246
(ischedule
Activity
p1247
(dp1248
g8
g244
sg64
I1000
sg65
Nsg66
(iread_data
Room
p1249
(dp1250
g64
g121
sg70
g122
sbsg72
g73
sg74
I0
sg70
g279
sba(ischedule
Activity
p1251
(dp1252
g8
g1070
sg64
g802
sg65
g1072
sg66
(iread_data
Room
p1253
(dp1254
g64
g206
sg70
g207
sbsg72
g368
sg74
g208
sg70
g808
sba(ischedule
Activity
p1255
(dp1256
g8
g577
sg64
g701
sg65
g592
sg66
(iread_data
Room
p1257
(dp1258
g64
g69
sg70
g71
sbsg72
g368
sg74
g208
sg70
g597
sba(ischedule
Activity
p1259
(dp1260
g8
(lp1261
g169
ag444
ag692
ag539
ag32
ag348
ag1156
ag139
ag300
ag742
ag812
ag1110
asg64
g757
sg65
(ischedule
Group
p1262
(dp1263
g8
g1261
sg70
S'Advanced Heuristics1'
p1264
sbsg66
(iread_data
Room
p1265
(dp1266
g64
g238
sg70
g239
sbsg72
g193
sg74
g194
sg70
g763
sba(ischedule
Activity
p1267
(dp1268
g8
(lp1269
g755
ag833
ag63
ag693
ag437
ag43
ag428
ag742
ag835
ag167
ag834
ag831
ag214
ag836
ag29
ag837
ag832
ag537
ag830
asg64
g716
sg65
(ischedule
Group
p1270
(dp1271
g8
g1269
sg70
S'Reflectie op de digitale cultuur3'
p1272
sbsg66
(iread_data
Room
p1273
(dp1274
g64
g158
sg70
g159
sbsg72
g368
sg74
g386
sg70
g722
sba(ischedule
Activity
p1275
(dp1276
g8
g1213
sg64
g1210
sg65
g1214
sg66
(iread_data
Room
p1277
(dp1278
g64
g191
sg70
g192
sbsg72
g368
sg74
g208
sg70
g195
sba(ischedule
Activity
p1279
(dp1280
g8
(lp1281
g96
ag118
ag112
ag142
ag326
ag336
ag330
ag175
ag334
ag55
ag333
ag87
ag332
ag329
asg64
g666
sg65
(ischedule
Group
p1282
(dp1283
g8
g1281
sg70
S'Autonomous Agents 23'
p1284
sbsg66
(iread_data
Room
p1285
(dp1286
g64
g309
sg70
g310
sbsg72
g368
sg74
g386
sg70
g209
sbaa(lp1287
(ischedule
Activity
p1288
(dp1289
g8
g638
sg64
I1000
sg65
Nsg66
(iread_data
Room
p1290
(dp1291
g64
g206
sg70
g207
sbsg72
g73
sg74
I0
sg70
g663
sba(ischedule
Activity
p1292
(dp1293
g8
g600
sg64
g520
sg65
g608
sg66
(iread_data
Room
p1294
(dp1295
g64
g121
sg70
g122
sbsg72
g193
sg74
g194
sg70
g526
sba(ischedule
Activity
p1296
(dp1297
g8
(lp1298
g218
ag582
ag580
ag647
ag692
ag532
ag584
ag81
ag14
ag539
ag693
ag18
ag344
ag168
ag656
ag697
ag695
ag130
ag700
ag578
ag248
ag226
ag696
ag283
ag699
ag586
ag587
ag146
ag698
ag583
ag581
ag694
ag590
ag588
ag263
ag579
ag345
ag589
ag585
asg64
I1000
sg65
Nsg66
(iread_data
Room
p1299
(dp1300
g64
g309
sg70
g310
sbsg72
g73
sg74
I0
sg70
g597
sba(ischedule
Activity
p1301
(dp1302
g8
(lp1303
g267
ag127
ag351
ag846
ag832
ag213
ag326
aS'63573738'
p1304
ag214
ag141
aS'63939720'
p1305
ag555
aS'40911986'
p1306
asg64
g411
sg65
(ischedule
Group
p1307
(dp1308
g8
g1303
sg70
S'Project Numerical Recipes3'
p1309
sbsg66
(iread_data
Room
p1310
(dp1311
g64
g158
sg70
g159
sbsg72
g193
sg74
g386
sg70
g417
sba(ischedule
Activity
p1312
(dp1313
g8
(lp1314
g98
ag913
ag973
ag857
ag812
ag791
ag227
ag58
aS'44151631'
p1315
ag1108
aS'51472074'
p1316
ag471
asg64
g316
sg65
(ischedule
Group
p1317
(dp1318
g8
g1314
sg70
S'Compilerbouw practicum3'
p1319
sbsg66
(iread_data
Room
p1320
(dp1321
g64
g69
sg70
g71
sbsg72
g193
sg74
g386
sg70
g322
sba(ischedule
Activity
p1322
(dp1323
g8
(lp1324
g225
ag230
ag291
ag645
ag128
ag1095
ag183
ag179
aS'55480737'
p1325
ag741
ag1172
ag133
ag738
ag477
ag27
ag546
ag894
ag798
asg64
g914
sg65
(ischedule
Group
p1326
(dp1327
g8
g1324
sg70
S'Project Genetic Algorithms1'
p1328
sbsg66
(iread_data
Room
p1329
(dp1330
g64
g191
sg70
g192
sbsg72
g193
sg74
g194
sg70
g920
sba(ischedule
Activity
p1331
(dp1332
g8
(lp1333
g132
ag432
aS'19058315'
p1334
ag736
ag436
ag216
ag485
ag171
ag256
ag484
ag1090
ag427
asg64
g508
sg65
(ischedule
Group
p1335
(dp1336
g8
g1333
sg70
S'Netwerken en systeembeveiliging2'
p1337
sbsg66
(iread_data
Room
p1338
(dp1339
g64
g238
sg70
g239
sbsg72
g193
sg74
g208
sg70
g514
sbaa(lp1340
(ischedule
Activity
p1341
(dp1342
g8
(lp1343
g1182
ag288
ag530
ag430
ag446
aS'91139627'
p1344
ag52
ag601
ag294
aS'47605891'
p1345
ag453
ag1008
ag454
ag565
ag295
ag272
aS'63408522'
p1346
ag264
ag797
aS'72547110'
p1347
ag833
ag476
ag895
ag23
ag1030
ag566
ag141
aS'51186803'
p1348
ag115
ag100
ag405
aS'63955238'
p1349
ag832
ag603
aS'37498675'
p1350
ag402
ag179
aS'79366078'
p1351
aS'39659121'
p1352
aS'39919665'
p1353
ag169
ag111
ag727
ag485
ag51
ag545
ag1058
aS'38329455'
p1354
ag83
ag184
ag697
ag470
ag251
ag988
ag342
ag555
ag507
ag792
aS'10872825'
p1355
ag138
ag110
ag101
ag937
ag433
ag558
ag262
ag335
aS'44940353'
p1356
ag912
ag1034
ag970
ag834
ag653
ag104
ag1138
ag580
ag939
aS'79858178'
p1357
aS'65003379'
p1358
ag711
aS'82688900'
p1359
ag154
ag649
ag22
asg64
I1000
sg65
Nsg66
(iread_data
Room
p1360
(dp1361
g64
g121
sg70
g122
sbsg72
g73
sg74
I0
sg70
S'Kansrekenen 2'
p1362
sba(ischedule
Activity
p1363
(dp1364
g8
g1017
sg64
g671
sg65
g1018
sg66
(iread_data
Room
p1365
(dp1366
g64
g158
sg70
g159
sbsg72
g368
sg74
g821
sg70
g240
sba(ischedule
Activity
p1367
(dp1368
g8
g951
sg64
g633
sg65
g952
sg66
(iread_data
Room
p1369
(dp1370
g64
g238
sg70
g239
sbsg72
g193
sg74
g386
sg70
g75
sba(ischedule
Activity
p1371
(dp1372
g8
g1281
sg64
g200
sg65
g1282
sg66
(iread_data
Room
p1373
(dp1374
g64
g309
sg70
g310
sbsg72
g193
sg74
g386
sg70
g209
sba(ischedule
Activity
p1375
(dp1376
g8
(lp1377
g216
ag423
ag734
ag245
ag655
ag97
aS'81116418'
p1378
ag90
ag270
ag276
ag536
aS'34691309'
p1379
aS'90103047'
p1380
ag767
aS'32183908'
p1381
asg64
g411
sg65
(ischedule
Group
p1382
(dp1383
g8
g1377
sg70
S'Project Numerical Recipes2'
p1384
sbsg66
(iread_data
Room
p1385
(dp1386
g64
g69
sg70
g71
sbsg72
g193
sg74
g208
sg70
g417
sba(ischedule
Activity
p1387
(dp1388
g8
(lp1389
g11
ag17
ag57
ag63
ag31
ag26
ag22
ag29
ag38
ag24
ag25
ag36
ag46
ag34
ag61
ag58
ag32
ag15
ag54
ag49
ag28
asg64
g362
sg65
(ischedule
Group
p1390
(dp1391
g8
g1389
sg70
S'Moderne Databases2'
p1392
sbsg66
(iread_data
Room
p1393
(dp1394
g64
g206
sg70
g207
sbsg72
g368
sg74
g208
sg70
g75
sbaa(lp1395
(ischedule
Activity
p1396
(dp1397
g8
g1343
sg64
I1000
sg65
Nsg66
g781
sg72
g73
sg74
I0
sg70
g1362
sba(ischedule
Activity
p1398
(dp1399
g8
(lp1400
g333
ag298
ag63
ag735
ag42
ag23
ag744
ag746
ag734
ag400
ag265
ag651
ag644
ag140
ag399
ag27
ag745
ag273
ag354
ag743
ag199
ag742
ag729
ag737
ag344
ag740
ag694
ag22
ag504
ag736
ag181
ag659
ag731
asg64
S'40'
p1401
sg65
(ischedule
Group
p1402
(dp1403
g8
g1400
sg70
S'Databases 22'
p1404
sbsg66
(iread_data
Room
p1405
(dp1406
g64
g309
sg70
g310
sbsg72
g368
sg74
g208
sg70
g750
sba(ischedule
Activity
p1407
(dp1408
g8
(lp1409
g726
ag329
ag728
ag548
ag94
ag498
ag180
ag500
ag214
ag741
ag143
ag30
ag297
ag262
ag134
ag710
ag217
ag605
ag733
ag579
ag167
ag105
ag747
ag739
ag110
ag732
ag55
ag294
ag444
ag20
ag730
ag738
ag219
ag226
ag727
ag38
ag274
ag13
ag145
asg64
g1401
sg65
(ischedule
Group
p1410
(dp1411
g8
g1409
sg70
S'Databases 21'
p1412
sbsg66
(iread_data
Room
p1413
(dp1414
g64
g158
sg70
g159
sbsg72
g368
sg74
g194
sg70
g750
sba(ischedule
Activity
p1415
(dp1416
g8
(lp1417
g142
ag136
ag128
ag146
ag93
ag107
ag139
asg64
g617
sg65
(ischedule
Group
p1418
(dp1419
g8
g1417
sg70
S'Heuristieken 22'
p1420
sbsg66
(iread_data
Room
p1421
(dp1422
g64
g238
sg70
g239
sbsg72
g368
sg74
g208
sg70
g160
sba(ischedule
Activity
p1423
(dp1424
g8
g244
sg64
I1000
sg65
Nsg66
(iread_data
Room
p1425
(dp1426
g64
g69
sg70
g71
sbsg72
g73
sg74
I0
sg70
g279
sba(ischedule
Activity
p1427
(dp1428
g8
(lp1429
g11
ag1032
ag114
ag15
ag57
ag96
ag1026
ag645
ag173
ag588
ag560
ag300
ag118
ag1035
ag344
ag1033
ag352
ag1027
ag215
ag48
ag712
ag314
ag1031
ag410
ag148
asg64
S'20'
p1430
sg65
(ischedule
Group
p1431
(dp1432
g8
g1429
sg70
S'Technology for games2'
p1433
sbsg66
(iread_data
Room
p1434
(dp1435
g64
g206
sg70
g207
sbsg72
g368
sg74
g208
sg70
g1038
sbaa(lp1436
(ischedule
Activity
p1437
(dp1438
g8
g1389
sg64
g633
sg65
g1390
sg66
g687
sg72
g193
sg74
g208
sg70
g75
sba(ischedule
Activity
p1439
(dp1440
g8
g1298
sg64
I1000
sg65
Nsg66
g781
sg72
g73
sg74
I0
sg70
g597
sba(ischedule
Activity
p1441
(dp1442
g8
g1195
sg64
g683
sg65
g1196
sg66
(iread_data
Room
p1443
(dp1444
g64
g206
sg70
g207
sbsg72
g368
sg74
g208
sg70
g440
sba(ischedule
Activity
p1445
(dp1446
g8
(lp1447
g603
ag555
ag13
ag1030
ag1034
ag1028
ag219
ag790
ag17
ag655
ag502
ag1029
ag445
asg64
g1430
sg65
(ischedule
Group
p1448
(dp1449
g8
g1447
sg70
S'Technology for games1'
p1450
sbsg66
(iread_data
Room
p1451
(dp1452
g64
g158
sg70
g159
sbsg72
g368
sg74
g194
sg70
g1038
sba(ischedule
Activity
p1453
(dp1454
g8
g469
sg64
g1221
sg65
g489
sg66
(iread_data
Room
p1455
(dp1456
g64
g69
sg70
g71
sbsg72
g193
sg74
g208
sg70
g494
sba(ischedule
Activity
p1457
(dp1458
g8
g1045
sg64
g200
sg65
g1046
sg66
(iread_data
Room
p1459
(dp1460
g64
g238
sg70
g239
sbsg72
g193
sg74
g194
sg70
g209
sba(ischedule
Activity
p1461
(dp1462
g8
(lp1463
g542
ag179
ag105
ag1304
ag267
ag970
ag846
ag886
ag101
ag747
aS'25557516'
p1464
ag133
ag284
ag800
aS'5590289'
p1465
ag252
aS'123355'
p1466
ag653
ag912
ag563
aS'16912993'
p1467
asg64
g508
sg65
(ischedule
Group
p1468
(dp1469
g8
g1463
sg70
S'Netwerken en systeembeveiliging3'
p1470
sbsg66
(iread_data
Room
p1471
(dp1472
g64
g191
sg70
g192
sbsg72
g193
sg74
g386
sg70
g514
sbaaa(lp1473
(lp1474
a(lp1475
a(lp1476
a(lp1477
a(lp1478
aasS'timeslot_dict'
p1479
(dp1480
I0
S'9:00-11:00'
p1481
sI1
S'11:00-13:00'
p1482
sI2
S'13:00-15:00'
p1483
sI3
S'15:00-17:00'
p1484
sI4
S'17:00-19:00'
p1485
ssS'day_dict'
p1486
(dp1487
I0
S'Monday'
p1488
sI1
S'Tuesday'
p1489
sI2
S'Wednesday'
p1490
sI3
S'Thursday'
p1491
sI4
S'Friday'
p1492
ssb.