(ischedule
Schedule
p0
(dp1
S'timetable'
p2
(lp3
(lp4
(lp5
(ischedule
Activity
p6
(dp7
S'participants'
p8
(lp9
S'34110913'
p10
aS'27187154'
p11
aS'66701209'
p12
aS'60312776'
p13
aS'88636924'
p14
aS'75664412'
p15
aS'79033175'
p16
aS'49683101'
p17
aS'31194811'
p18
aS'1766560'
p19
aS'98105190'
p20
aS'42778953'
p21
aS'76802764'
p22
aS'13284244'
p23
aS'54772132'
p24
aS'48503689'
p25
aS'43689934'
p26
aS'72895450'
p27
aS'65852230'
p28
aS'83266686'
p29
aS'15911353'
p30
aS'7957843'
p31
aS'39459642'
p32
aS'14309255'
p33
aS'37770881'
p34
aS'76661016'
p35
aS'58522654'
p36
aS'9067939'
p37
aS'5368702'
p38
aS'77896638'
p39
aS'30658799'
p40
aS'88752563'
p41
aS'40791377'
p42
aS'75759231'
p43
aS'2079771'
p44
aS'86988337'
p45
aS'81385263'
p46
aS'84524083'
p47
aS'6723948'
p48
aS'75599734'
p49
aS'65960683'
p50
aS'94687383'
p51
aS'95631564'
p52
aS'34243356'
p53
aS'10792879'
p54
aS'11915563'
p55
aS'86291592'
p56
aS'2317551'
p57
aS'68315599'
p58
aS'8464817'
p59
aS'53202517'
p60
aS'72796858'
p61
aS'24613625'
p62
aS'12077419'
p63
aS'3407554'
p64
aS'92665222'
p65
aS'11741347'
p66
aS'79167252'
p67
aS'13911001'
p68
aS'73236988'
p69
aS'95007221'
p70
aS'27950803'
p71
aS'80135353'
p72
aS'46989508'
p73
aS'5595824'
p74
aS'88855695'
p75
aS'48308205'
p76
aS'34872117'
p77
aS'44391517'
p78
asS'capacity'
p79
I1000
sS'group'
p80
NsS'room'
p81
(iread_data
Room
p82
(dp83
g79
S'117'
p84
sS'name'
p85
S'C0.110'
p86
sbsS'ttype'
p87
S'lectures'
p88
sS'group_id'
p89
I0
sg85
S'Compilerbouw'
p90
sba(ischedule
Activity
p91
(dp92
g8
(lp93
S'43680781'
p94
aS'27916487'
p95
aS'29526540'
p96
aS'89180944'
p97
aS'78821918'
p98
aS'66621166'
p99
aS'11996292'
p100
aS'85335143'
p101
aS'18144425'
p102
aS'36527838'
p103
ag33
aS'49219163'
p104
aS'78443067'
p105
aS'1181560'
p106
aS'78544592'
p107
aS'63111000'
p108
aS'24277163'
p109
ag29
aS'33776961'
p110
aS'59111489'
p111
aS'4709948'
p112
aS'83415514'
p113
ag66
aS'36748818'
p114
aS'77376714'
p115
aS'46570285'
p116
aS'41489515'
p117
aS'58332004'
p118
aS'48198668'
p119
aS'96082155'
p120
asg79
S'20'
p121
sg80
(ischedule
Group
p122
(dp123
g8
g93
sg85
S'Moderne Databases2'
p124
sbsg81
(iread_data
Room
p125
(dp126
g79
S'48'
p127
sg85
S'B0.201'
p128
sbsg87
S'labs'
p129
sg89
S'2'
p130
sg85
S'Moderne Databases'
p131
sba(ischedule
Activity
p132
(dp133
g8
(lp134
S'45414528'
p135
aS'13116738'
p136
aS'70878567'
p137
aS'13996448'
p138
aS'87314964'
p139
aS'68360259'
p140
aS'98780382'
p141
aS'97136582'
p142
aS'22323043'
p143
aS'21964491'
p144
aS'81022997'
p145
aS'59753700'
p146
aS'74131924'
p147
aS'51566595'
p148
aS'19337738'
p149
aS'17823206'
p150
aS'93023961'
p151
aS'66122625'
p152
aS'25330192'
p153
aS'50143947'
p154
aS'91196968'
p155
aS'52311353'
p156
aS'87900893'
p157
aS'37110913'
p158
aS'37744525'
p159
aS'99453514'
p160
aS'81200278'
p161
asg79
I1000
sg80
Nsg81
(iread_data
Room
p162
(dp163
g79
S'60'
p164
sg85
S'C1.112'
p165
sbsg87
g88
sg89
I0
sg85
S'Data Mining'
p166
sba(ischedule
Activity
p167
(dp168
g8
(lp169
S'4546613'
p170
aS'76924297'
p171
aS'28055464'
p172
aS'66034145'
p173
aS'20374340'
p174
aS'64768422'
p175
aS'65675896'
p176
aS'2550487'
p177
aS'23547619'
p178
aS'37399898'
p179
aS'81155296'
p180
aS'14847953'
p181
aS'69634191'
p182
ag161
aS'3707829'
p183
aS'21677389'
p184
ag46
aS'34765676'
p185
aS'38179241'
p186
aS'93566383'
p187
ag38
aS'19214659'
p188
ag35
aS'44828429'
p189
aS'37701751'
p190
asg79
I1000
sg80
Nsg81
(iread_data
Room
p191
(dp192
g79
S'56'
p193
sg85
S'A1.10'
p194
sbsg87
g88
sg89
I0
sg85
S'Interactie-ontwerp'
p195
sba(ischedule
Activity
p196
(dp197
g8
(lp198
S'58699305'
p199
aS'32705005'
p200
aS'6939933'
p201
aS'10609762'
p202
ag105
ag54
aS'14591033'
p203
aS'44868097'
p204
aS'21029457'
p205
aS'58469172'
p206
ag41
aS'26260141'
p207
aS'72665524'
p208
aS'73823548'
p209
ag180
ag67
ag101
aS'63634350'
p210
aS'51741554'
p211
aS'75585647'
p212
aS'11593163'
p213
aS'6913074'
p214
aS'79888156'
p215
asg79
S'40'
p216
sg80
(ischedule
Group
p217
(dp218
g8
g198
sg85
S'Calculus 21'
p219
sbsg81
(iread_data
Room
p220
(dp221
g79
S'41'
p222
sg85
S'A1.04'
p223
sbsg87
S'tutorials'
p224
sg89
S'1'
p225
sg85
S'Calculus 2'
p226
sba(ischedule
Activity
p227
(dp228
g8
(lp229
S'7492204'
p230
aS'1048485'
p231
aS'56749879'
p232
aS'20830477'
p233
aS'86807027'
p234
aS'10702778'
p235
asg79
S'20'
p236
sg80
(ischedule
Group
p237
(dp238
g8
g229
sg85
S'Programmeren in Java 23'
p239
sbsg81
(iread_data
Room
p240
(dp241
g79
S'22'
p242
sg85
S'A1.06'
p243
sbsg87
g129
sg89
S'3'
p244
sg85
S'Programmeren in Java 2'
p245
sbaa(lp246
(ischedule
Activity
p247
(dp248
g8
(lp249
S'19540225'
p250
aS'91527663'
p251
aS'66433883'
p252
aS'3474870'
p253
aS'36903574'
p254
aS'64947290'
p255
aS'96453361'
p256
ag63
ag144
aS'67817269'
p257
ag45
aS'52715680'
p258
aS'23983476'
p259
aS'57467488'
p260
ag115
aS'43902015'
p261
ag185
ag189
aS'41527759'
p262
aS'23652927'
p263
aS'15902055'
p264
aS'41585485'
p265
ag27
aS'88596522'
p266
aS'78136904'
p267
ag207
ag183
aS'27298319'
p268
aS'8522855'
p269
aS'1665980'
p270
ag46
ag148
aS'14671406'
p271
aS'53585410'
p272
aS'5976174'
p273
aS'46701583'
p274
ag154
aS'21095566'
p275
aS'82689818'
p276
aS'64554442'
p277
aS'40343779'
p278
aS'58592894'
p279
aS'51509565'
p280
asg79
I1000
sg80
Nsg81
(iread_data
Room
p281
(dp282
g79
g164
sg85
g165
sbsg87
g88
sg89
I0
sg85
S'Algoritmen en complexiteit'
p283
sba(ischedule
Activity
p284
(dp285
g8
(lp286
S'7308727'
p287
aS'89338938'
p288
ag69
aS'75005528'
p289
aS'63573738'
p290
aS'13092455'
p291
ag234
aS'90103047'
p292
aS'63939720'
p293
ag19
ag13
ag56
aS'11068043'
p294
aS'81116418'
p295
ag188
ag138
ag27
aS'37419523'
p296
ag21
aS'74182182'
p297
aS'12430748'
p298
aS'3685034'
p299
ag25
aS'21070547'
p300
aS'32044893'
p301
ag23
ag209
aS'22731474'
p302
aS'42406214'
p303
asg79
S'15'
p304
sg80
(ischedule
Group
p305
(dp306
g8
g286
sg85
S'Project Numerical Recipes3'
p307
sbsg81
(iread_data
Room
p308
(dp309
g79
g193
sg85
g194
sbsg87
g129
sg89
g244
sg85
S'Project Numerical Recipes'
p310
sba(ischedule
Activity
p311
(dp312
g8
(lp313
S'92496780'
p314
aS'47982619'
p315
aS'32204977'
p316
aS'10149535'
p317
ag18
aS'44901052'
p318
ag94
ag63
aS'77264363'
p319
aS'97371272'
p320
ag76
aS'40434933'
p321
ag15
ag298
aS'36785409'
p322
aS'76487754'
p323
aS'9332762'
p324
ag58
ag288
ag100
aS'6249823'
p325
aS'58565406'
p326
aS'75521763'
p327
aS'41578612'
p328
aS'7106649'
p329
ag178
aS'4697362'
p330
aS'70336464'
p331
ag101
aS'14383795'
p332
ag143
asg79
S'20'
p333
sg80
(ischedule
Group
p334
(dp335
g8
g313
sg85
S'Technology for games1'
p336
sbsg81
(iread_data
Room
p337
(dp338
g79
g127
sg85
g128
sbsg87
g224
sg89
g225
sg85
S'Technology for games'
p339
sba(ischedule
Activity
p340
(dp341
g8
(lp342
g136
ag159
ag145
ag140
asg79
S'10'
p343
sg80
(ischedule
Group
p344
(dp345
g8
g342
sg85
S'Data Mining1'
p346
sbsg81
(iread_data
Room
p347
(dp348
g79
S'20'
p349
sg85
S'A1.08'
p350
sbsg87
g129
sg89
g225
sg85
g166
sba(ischedule
Activity
p351
(dp352
g8
(lp353
S'69459473'
p354
aS'10698627'
p355
ag173
aS'78243495'
p356
aS'61443567'
p357
aS'27064249'
p358
aS'43460038'
p359
aS'33877725'
p360
aS'20618153'
p361
aS'67073567'
p362
aS'76123484'
p363
aS'24891081'
p364
aS'53512831'
p365
ag27
aS'41790793'
p366
aS'64228258'
p367
ag253
aS'1137946'
p368
ag60
asg79
S'20'
p369
sg80
(ischedule
Group
p370
(dp371
g8
g353
sg85
S'Webprogrammeren en databases1'
p372
sbsg81
(iread_data
Room
p373
(dp374
g79
g222
sg85
g223
sbsg87
g224
sg89
g225
sg85
S'Webprogrammeren en databases'
p375
sba(ischedule
Activity
p376
(dp377
g8
(lp378
S'54569540'
p379
aS'60352393'
p380
aS'51415617'
p381
aS'68286356'
p382
aS'13658563'
p383
aS'36213792'
p384
aS'38296757'
p385
ag214
aS'20239127'
p386
aS'27805666'
p387
aS'22871048'
p388
aS'61518436'
p389
ag179
ag301
ag110
ag258
ag109
aS'92778619'
p390
aS'57086672'
p391
aS'84449005'
p392
asg79
S'20'
p393
sg80
(ischedule
Group
p394
(dp395
g8
g378
sg85
S'Reflectie op de digitale cultuur3'
p396
sbsg81
(iread_data
Room
p397
(dp398
g79
g242
sg85
g243
sbsg87
g224
sg89
g244
sg85
S'Reflectie op de digitale cultuur'
p399
sba(ischedule
Activity
p400
(dp401
g8
(lp402
S'17222374'
p403
aS'47462856'
p404
ag199
ag392
aS'51650744'
p405
asg79
g121
sg80
(ischedule
Group
p406
(dp407
g8
g402
sg85
S'Moderne Databases3'
p408
sbsg81
(iread_data
Room
p409
(dp410
g79
g84
sg85
g86
sbsg87
g129
sg89
g244
sg85
g131
sbaa(lp411
(ischedule
Activity
p412
(dp413
g8
g93
sg79
S'20'
p414
sg80
g122
sg81
(iread_data
Room
p415
(dp416
g79
g164
sg85
g165
sbsg87
g224
sg89
g130
sg85
g131
sba(ischedule
Activity
p417
(dp418
g8
(lp419
S'39230359'
p420
aS'77392404'
p421
aS'76903244'
p422
aS'49908313'
p423
ag261
aS'22288615'
p424
ag97
aS'14303208'
p425
aS'28358060'
p426
aS'94930277'
p427
ag325
aS'17092717'
p428
ag321
ag181
aS'2416751'
p429
aS'5615125'
p430
aS'16333449'
p431
ag391
aS'76648468'
p432
aS'72577292'
p433
asg79
S'20'
p434
sg80
(ischedule
Group
p435
(dp436
g8
g419
sg85
S'Webprogrammeren en databases2'
p437
sbsg81
(iread_data
Room
p438
(dp439
g79
g349
sg85
g350
sbsg87
g129
sg89
g130
sg85
g375
sba(ischedule
Activity
p440
(dp441
g8
(lp442
g177
aS'26857113'
p443
ag179
ag112
aS'63096281'
p444
ag118
ag32
ag56
aS'94955328'
p445
ag135
aS'73893840'
p446
ag214
ag11
aS'28943658'
p447
ag315
aS'85284256'
p448
aS'62701040'
p449
aS'79879876'
p450
aS'23391676'
p451
ag113
aS'7386961'
p452
aS'86000192'
p453
asg79
g236
sg80
(ischedule
Group
p454
(dp455
g8
g442
sg85
S'Programmeren in Java 21'
p456
sbsg81
(iread_data
Room
p457
(dp458
g79
g84
sg85
g86
sbsg87
g129
sg89
g225
sg85
g245
sba(ischedule
Activity
p459
(dp460
g8
(lp461
S'44151631'
p462
ag266
ag68
ag210
aS'99272880'
p463
ag316
aS'5892092'
p464
ag176
ag270
aS'82066165'
p465
ag154
aS'1695839'
p466
aS'5085194'
p467
ag272
asg79
S'15'
p468
sg80
(ischedule
Group
p469
(dp470
g8
g461
sg85
S'Compilerbouw practicum2'
p471
sbsg81
(iread_data
Room
p472
(dp473
g79
g242
sg85
g243
sbsg87
g129
sg89
g130
sg85
S'Compilerbouw practicum'
p474
sba(ischedule
Activity
p475
(dp476
g8
(lp477
g326
ag356
aS'3233378'
p478
aS'82872148'
p479
aS'88176729'
p480
ag52
ag143
ag159
aS'37830626'
p481
ag273
ag262
aS'45915482'
p482
ag359
aS'70015932'
p483
aS'89985072'
p484
aS'4783858'
p485
aS'29640619'
p486
aS'62356458'
p487
aS'58074656'
p488
aS'65318664'
p489
ag231
ag156
ag49
ag278
ag170
aS'28357474'
p490
aS'13718298'
p491
ag388
ag33
aS'96554914'
p492
aS'51593625'
p493
ag204
aS'52552718'
p494
aS'42115591'
p495
aS'73302736'
p496
ag55
aS'3727435'
p497
aS'44671041'
p498
asg79
S'40'
p499
sg80
(ischedule
Group
p500
(dp501
g8
g477
sg85
S'Software engineering1'
p502
sbsg81
(iread_data
Room
p503
(dp504
g79
g193
sg85
g194
sbsg87
g129
sg89
g225
sg85
S'Software engineering'
p505
sba(ischedule
Activity
p506
(dp507
g8
(lp508
g39
ag159
ag324
ag264
aS'41153310'
p509
aS'12782624'
p510
ag255
aS'22826928'
p511
ag498
aS'64600457'
p512
aS'23257088'
p513
aS'670011'
p514
ag274
aS'34900967'
p515
aS'55474917'
p516
ag155
aS'62105897'
p517
ag150
aS'23658570'
p518
ag110
asg79
g236
sg80
(ischedule
Group
p519
(dp520
g8
g508
sg85
S'Programmeren in Java 22'
p521
sbsg81
(iread_data
Room
p522
(dp523
g79
g222
sg85
g223
sbsg87
g129
sg89
g130
sg85
g245
sbaa(lp524
(ischedule
Activity
p525
(dp526
g8
(lp527
g433
ag426
ag430
ag253
ag358
ag173
ag355
ag427
ag97
ag181
ag421
ag356
ag321
ag27
ag431
ag420
ag354
ag357
ag423
ag364
ag60
ag363
ag429
ag367
ag361
ag368
ag432
ag391
ag422
ag424
ag366
ag261
ag365
ag325
ag360
ag428
ag359
ag362
ag425
asg79
I1000
sg80
Nsg81
(iread_data
Room
p528
(dp529
g79
g164
sg85
g165
sbsg87
g88
sg89
I0
sg85
g375
sba(ischedule
Activity
p530
(dp531
g8
g134
sg79
I1000
sg80
Nsg81
(iread_data
Room
p532
(dp533
g79
g193
sg85
g194
sbsg87
g88
sg89
I0
sg85
g166
sba(ischedule
Activity
p534
(dp535
g8
(lp536
g388
ag391
aS'73350019'
p537
aS'56544130'
p538
aS'75997788'
p539
aS'4921119'
p540
aS'51542218'
p541
aS'72586808'
p542
ag515
aS'60661905'
p543
aS'83443653'
p544
aS'78822885'
p545
ag518
aS'18477924'
p546
ag98
aS'16097870'
p547
ag53
aS'14637758'
p548
ag445
ag101
aS'33672995'
p549
aS'43027916'
p550
ag495
aS'72456780'
p551
aS'64296965'
p552
ag489
ag322
ag156
ag467
aS'48678993'
p553
aS'80188025'
p554
aS'23565001'
p555
aS'62613937'
p556
aS'97838175'
p557
aS'97019450'
p558
ag74
ag328
aS'87830198'
p559
aS'88737765'
p560
aS'56815156'
p561
aS'58480929'
p562
aS'82854435'
p563
aS'18266644'
p564
aS'77831658'
p565
aS'70193386'
p566
aS'48357272'
p567
aS'23798155'
p568
ag491
ag496
asg79
I1000
sg80
Nsg81
(iread_data
Room
p569
(dp570
g79
g84
sg85
g86
sbsg87
g88
sg89
I0
sg85
S'Analysemethoden en -technieken'
p571
sba(ischedule
Activity
p572
(dp573
g8
(lp574
S'47477884'
p575
ag259
ag59
ag355
aS'15249775'
p576
aS'94467156'
p577
aS'96054456'
p578
ag463
aS'23215240'
p579
ag78
aS'85236626'
p580
aS'34262212'
p581
ag67
aS'39905995'
p582
aS'77960666'
p583
aS'38499176'
p584
ag45
aS'70113753'
p585
ag558
aS'70072978'
p586
ag25
asg79
g236
sg80
(ischedule
Group
p587
(dp588
g8
g574
sg85
S'Programmeren in Java 26'
p589
sbsg81
(iread_data
Room
p590
(dp591
g79
g127
sg85
g128
sbsg87
g129
sg89
S'6'
p592
sg85
g245
sba(ischedule
Activity
p593
(dp594
g8
(lp595
g12
aS'87602030'
p596
aS'25077484'
p597
ag34
aS'51673172'
p598
aS'99283252'
p599
ag71
ag328
ag392
aS'27925117'
p600
aS'5526560'
p601
aS'58253841'
p602
asg79
S'15'
p603
sg80
(ischedule
Group
p604
(dp605
g8
g595
sg85
S'Project Genetic Algorithms2'
p606
sbsg81
(iread_data
Room
p607
(dp608
g79
g349
sg85
g350
sbsg87
g129
sg89
g130
sg85
S'Project Genetic Algorithms'
p609
sba(ischedule
Activity
p610
(dp611
g8
g169
sg79
I1000
sg80
Nsg81
(iread_data
Room
p612
(dp613
g79
g242
sg85
g243
sbsg87
g88
sg89
I0
sg85
g195
sba(ischedule
Activity
p614
(dp615
g8
(lp616
g287
aS'14816774'
p617
ag62
aS'30050930'
p618
ag205
ag578
ag256
asg79
S'20'
p619
sg80
(ischedule
Group
p620
(dp621
g8
g616
sg85
S'Bioinformatica1'
p622
sbsg81
(iread_data
Room
p623
(dp624
g79
g222
sg85
g223
sbsg87
g129
sg89
g225
sg85
S'Bioinformatica'
p625
sbaa(lp626
(ischedule
Activity
p627
(dp628
g8
(lp629
g382
ag328
ag384
ag47
ag299
aS'70844780'
p630
ag158
ag511
ag392
aS'27370083'
p631
aS'90474003'
p632
ag543
ag559
aS'5298748'
p633
ag389
ag110
ag258
ag179
ag112
ag388
ag379
ag386
ag303
ag109
aS'99975346'
p634
ag380
ag492
ag94
ag391
ag160
ag583
ag146
aS'20095994'
p635
ag71
ag291
ag322
ag45
ag390
ag381
aS'82390428'
p636
aS'51052738'
p637
ag421
ag214
ag383
ag301
aS'49922855'
p638
ag267
ag491
ag385
ag387
ag566
asg79
I1000
sg80
Nsg81
(iread_data
Room
p639
(dp640
g79
g84
sg85
g86
sbsg87
g88
sg89
I0
sg85
g399
sba(ischedule
Activity
p641
(dp642
g8
(lp643
g206
ag254
ag357
ag48
ag144
aS'37279234'
p644
aS'54395877'
p645
aS'92977271'
p646
ag72
ag108
aS'9731271'
p647
ag272
ag493
ag57
aS'88597745'
p648
ag361
ag424
aS'58040377'
p649
ag390
ag187
ag429
asg79
g236
sg80
(ischedule
Group
p650
(dp651
g8
g643
sg85
S'Programmeren in Java 24'
p652
sbsg81
(iread_data
Room
p653
(dp654
g79
g193
sg85
g194
sbsg87
g129
sg89
S'4'
p655
sg85
g245
sba(ischedule
Activity
p656
(dp657
g8
(lp658
g39
aS'47932106'
p659
ag552
ag98
ag32
ag467
ag578
ag100
aS'13132925'
p660
aS'27123462'
p661
ag289
ag321
ag279
ag261
ag513
aS'49631542'
p662
ag540
ag190
ag617
ag550
ag551
aS'5517869'
p663
ag209
aS'94686490'
p664
aS'12091019'
p665
ag494
ag575
ag41
aS'26406342'
p666
ag260
aS'59397895'
p667
aS'56191333'
p668
ag73
ag363
aS'26207525'
p669
ag291
asg79
S'40'
p670
sg80
(ischedule
Group
p671
(dp672
g8
g658
sg85
S'Databases 21'
p673
sbsg81
(iread_data
Room
p674
(dp675
g79
g164
sg85
g165
sbsg87
g224
sg89
g225
sg85
S'Databases 2'
p676
sba(ischedule
Activity
p677
(dp678
g8
(lp679
g33
aS'93041523'
p680
ag666
aS'69086548'
p681
ag158
aS'21192048'
p682
aS'77636749'
p683
asg79
g333
sg80
(ischedule
Group
p684
(dp685
g8
g679
sg85
S'Technology for games2'
p686
sbsg81
(iread_data
Room
p687
(dp688
g79
g349
sg85
g350
sbsg87
g224
sg89
g130
sg85
g339
sba(ischedule
Activity
p689
(dp690
g8
g342
sg79
S'10'
p691
sg80
g344
sg81
(iread_data
Room
p692
(dp693
g79
g127
sg85
g128
sbsg87
g224
sg89
g225
sg85
g166
sba(ischedule
Activity
p694
(dp695
g8
(lp696
g565
aS'19662602'
p697
ag487
ag145
aS'40911986'
p698
aS'34691309'
p699
aS'84110134'
p700
ag201
ag31
aS'28618400'
p701
aS'32183908'
p702
aS'14941752'
p703
asg79
g304
sg80
(ischedule
Group
p704
(dp705
g8
g696
sg85
S'Project Numerical Recipes2'
p706
sbsg81
(iread_data
Room
p707
(dp708
g79
g222
sg85
g223
sbsg87
g129
sg89
g130
sg85
g310
sba(ischedule
Activity
p709
(dp710
g8
(lp711
g178
ag630
aS'3168419'
p712
ag433
ag65
aS'72683344'
p713
aS'40633534'
p714
ag556
aS'1886996'
p715
ag181
ag208
asg79
S'10'
p716
sg80
(ischedule
Group
p717
(dp718
g8
g711
sg85
S'Advanced Heuristics1'
p719
sbsg81
(iread_data
Room
p720
(dp721
g79
g242
sg85
g243
sbsg87
g129
sg89
g225
sg85
S'Advanced Heuristics'
p722
sbaaa(lp723
(lp724
(ischedule
Activity
p725
(dp726
g8
g527
sg79
I1000
sg80
Nsg81
(iread_data
Room
p727
(dp728
g79
g193
sg85
g194
sbsg87
g88
sg89
I0
sg85
g375
sba(ischedule
Activity
p729
(dp730
g8
(lp731
g646
ag137
ag58
ag327
ag318
ag383
aS'17496687'
p732
aS'29718115'
p733
aS'11459236'
p734
ag118
aS'19958553'
p735
ag136
ag683
ag513
aS'8557857'
p736
ag114
ag564
ag316
ag259
ag449
ag212
asg79
I1000
sg80
Nsg81
(iread_data
Room
p737
(dp738
g79
g242
sg85
g243
sbsg87
g88
sg89
I0
sg85
S'Informatie- en organsatieontwerp'
p739
sba(ischedule
Activity
p740
(dp741
g8
(lp742
S'31103066'
p743
ag13
aS'25106480'
p744
ag271
aS'9287708'
p745
aS'31633723'
p746
ag599
ag577
aS'80709893'
p747
ag154
ag105
ag258
ag71
ag700
ag360
ag207
aS'48601268'
p748
ag275
ag567
aS'31247305'
p749
ag516
aS'4568018'
p750
aS'61060652'
p751
aS'83210352'
p752
aS'59544049'
p753
aS'65408517'
p754
ag69
ag509
aS'54026378'
p755
ag517
ag294
ag115
aS'14072826'
p756
ag97
aS'68409833'
p757
aS'27582862'
p758
ag288
asg79
S'40'
p759
sg80
(ischedule
Group
p760
(dp761
g8
g742
sg85
S'Software engineering2'
p762
sbsg81
(iread_data
Room
p763
(dp764
g79
g84
sg85
g86
sbsg87
g224
sg89
g130
sg85
g505
sba(ischedule
Activity
p765
(dp766
g8
(lp767
g11
ag159
ag299
ag389
aS'67625383'
p768
aS'56988998'
p769
aS'15051051'
p770
ag580
ag577
ag274
aS'77240949'
p771
ag17
ag385
ag273
ag443
ag42
aS'33252501'
p772
ag568
ag108
aS'90067329'
p773
ag44
ag32
asg79
I1000
sg80
Nsg81
(iread_data
Room
p774
(dp775
g79
g164
sg85
g165
sbsg87
g88
sg89
I0
sg85
S'Machine Learning'
p776
sba(ischedule
Activity
p777
(dp778
g8
(lp779
g15
aS'30195935'
p780
ag161
aS'62363761'
p781
ag31
ag479
ag24
aS'33930505'
p782
ag254
ag542
ag56
aS'56121590'
p783
aS'1696500'
p784
aS'25557516'
p785
aS'5590289'
p786
ag701
ag46
asg79
S'20'
p787
sg80
(ischedule
Group
p788
(dp789
g8
g779
sg85
S'Netwerken en systeembeveiliging1'
p790
sbsg81
(iread_data
Room
p791
(dp792
g79
g222
sg85
g223
sbsg87
g129
sg89
g225
sg85
S'Netwerken en systeembeveiliging'
p793
sba(ischedule
Activity
p794
(dp795
g8
(lp796
g148
aS'19858730'
p797
ag55
ag147
ag547
ag61
ag268
ag757
aS'62872965'
p798
aS'34806836'
p799
asg79
S'10'
p800
sg80
(ischedule
Group
p801
(dp802
g8
g796
sg85
S'Autonomous Agents 23'
p803
sbsg81
(iread_data
Room
p804
(dp805
g79
g127
sg85
g128
sbsg87
g129
sg89
g244
sg85
S'Autonomous Agents 2'
p806
sbaa(lp807
(ischedule
Activity
p808
(dp809
g8
(lp810
S'14138904'
p811
ag383
ag427
aS'87210640'
p812
ag254
aS'97417002'
p813
aS'53107172'
p814
ag152
ag797
ag327
aS'45660925'
p815
ag20
ag234
aS'42171678'
p816
ag100
ag751
ag485
aS'58736785'
p817
ag617
ag233
ag158
ag703
ag750
ag784
ag203
aS'59075181'
p818
ag567
ag544
aS'81218347'
p819
ag260
aS'53775014'
p820
aS'31897288'
p821
ag646
aS'4353500'
p822
ag232
ag558
ag388
aS'71839156'
p823
ag539
ag143
aS'20331158'
p824
ag450
aS'76393508'
p825
ag318
asg79
I1000
sg80
Nsg81
(iread_data
Room
p826
(dp827
g79
g193
sg85
g194
sbsg87
g88
sg89
I0
sg85
S'Heuristieken 1'
p828
sba(ischedule
Activity
p829
(dp830
g8
(lp831
g553
ag153
asg79
g787
sg80
(ischedule
Group
p832
(dp833
g8
g831
sg85
S'Netwerken en systeembeveiliging2'
p834
sbsg81
(iread_data
Room
p835
(dp836
g79
g349
sg85
g350
sbsg87
g129
sg89
g130
sg85
g793
sba(ischedule
Activity
p837
(dp838
g8
(lp839
g683
ag316
ag646
ag734
asg79
S'15'
p840
sg80
(ischedule
Group
p841
(dp842
g8
g839
sg85
S'Informatie- en organsatieontwerp1'
p843
sbsg81
(iread_data
Room
p844
(dp845
g79
g84
sg85
g86
sbsg87
g224
sg89
g225
sg85
g739
sba(ischedule
Activity
p846
(dp847
g8
(lp848
g748
aS'64393888'
p849
aS'57595888'
p850
ag287
ag403
ag13
ag264
aS'50184318'
p851
aS'13534377'
p852
ag36
ag550
aS'33760909'
p853
ag478
aS'45556081'
p854
asg79
S'20'
p855
sg80
(ischedule
Group
p856
(dp857
g8
g848
sg85
S'Collectieve Intelligentie2'
p858
sbsg81
(iread_data
Room
p859
(dp860
g79
g222
sg85
g223
sbsg87
g129
sg89
g130
sg85
S'Collectieve Intelligentie'
p861
sba(ischedule
Activity
p862
(dp863
g8
(lp864
g561
aS'247918'
p865
ag360
ag565
ag69
ag144
ag60
ag101
aS'42196732'
p866
ag782
ag94
ag214
ag480
aS'66120270'
p867
ag512
aS'28359697'
p868
ag204
ag294
ag232
ag753
aS'20883994'
p869
asg79
S'20'
p870
sg80
(ischedule
Group
p871
(dp872
g8
g864
sg85
S'Bioinformatica2'
p873
sbsg81
(iread_data
Room
p874
(dp875
g79
g242
sg85
g243
sbsg87
g224
sg89
g130
sg85
g625
sba(ischedule
Activity
p876
(dp877
g8
g419
sg79
g369
sg80
g435
sg81
(iread_data
Room
p878
(dp879
g79
g127
sg85
g128
sbsg87
g224
sg89
g130
sg85
g375
sba(ischedule
Activity
p880
(dp881
g8
(lp882
g137
ag203
ag48
ag780
ag302
aS'79617364'
p883
ag161
ag770
ag36
ag484
ag712
ag633
ag147
ag755
ag750
ag511
ag96
asg79
g870
sg80
(ischedule
Group
p884
(dp885
g8
g882
sg85
S'Bioinformatica3'
p886
sbsg81
(iread_data
Room
p887
(dp888
g79
g164
sg85
g165
sbsg87
g224
sg89
g244
sg85
g625
sbaa(lp889
(ischedule
Activity
p890
(dp891
g8
(lp892
g814
ag453
aS'17575088'
p893
ag270
aS'31416266'
p894
ag327
aS'68601184'
p895
ag433
ag784
aS'1075391'
p896
aS'29474737'
p897
aS'97135019'
p898
ag324
aS'34773179'
p899
ag211
ag363
aS'96104167'
p900
ag357
aS'22699561'
p901
ag771
ag744
asg79
g855
sg80
(ischedule
Group
p902
(dp903
g8
g892
sg85
S'Collectieve Intelligentie3'
p904
sbsg81
(iread_data
Room
p905
(dp906
g79
g242
sg85
g243
sbsg87
g129
sg89
g244
sg85
g861
sba(ischedule
Activity
p907
(dp908
g8
g629
sg79
I1000
sg80
Nsg81
(iread_data
Room
p909
(dp910
g79
g193
sg85
g194
sbsg87
g88
sg89
I0
sg85
g399
sba(ischedule
Activity
p911
(dp912
g8
(lp913
g273
ag261
ag144
ag271
ag272
ag252
ag277
ag154
ag258
ag267
ag46
ag279
ag45
ag63
ag255
ag189
asg79
S'25'
p914
sg80
(ischedule
Group
p915
(dp916
g8
g913
sg85
S'Algoritmen en complexiteit2'
p917
sbsg81
(iread_data
Room
p918
(dp919
g79
g127
sg85
g128
sbsg87
g129
sg89
g130
sg85
g283
sba(ischedule
Activity
p920
(dp921
g8
(lp922
g318
ag203
ag821
ag797
ag816
ag820
ag544
ag20
ag383
ag822
ag811
ag784
ag567
ag817
ag823
ag232
ag233
ag260
ag485
ag703
ag143
ag327
ag158
ag812
ag558
ag813
ag100
ag751
ag750
ag234
ag254
ag152
asg79
S'25'
p923
sg80
(ischedule
Group
p924
(dp925
g8
g922
sg85
S'Heuristieken 11'
p926
sbsg81
(iread_data
Room
p927
(dp928
g79
g84
sg85
g86
sbsg87
g224
sg89
g225
sg85
g828
sba(ischedule
Activity
p929
(dp930
g8
g402
sg79
g414
sg80
g406
sg81
(iread_data
Room
p931
(dp932
g79
g349
sg85
g350
sbsg87
g224
sg89
g244
sg85
g131
sba(ischedule
Activity
p933
(dp934
g8
(lp935
g568
ag17
ag433
ag29
ag321
ag824
ag359
ag97
ag276
ag483
ag733
ag854
ag713
aS'59289233'
p936
aS'58866007'
p937
ag701
ag317
ag600
ag811
aS'13798030'
p938
ag77
asg79
I1000
sg80
Nsg81
(iread_data
Room
p939
(dp940
g79
g222
sg85
g223
sbsg87
g88
sg89
I0
sg85
S'Architectuur en computerorganisatie'
p941
sba(ischedule
Activity
p942
(dp943
g8
(lp944
g564
ag259
ag318
ag449
ag212
ag736
ag733
ag114
ag513
ag137
ag58
ag383
ag118
ag735
ag136
ag327
ag732
asg79
g840
sg80
(ischedule
Group
p945
(dp946
g8
g944
sg85
S'Informatie- en organsatieontwerp2'
p947
sbsg81
(iread_data
Room
p948
(dp949
g79
g164
sg85
g165
sbsg87
g224
sg89
g130
sg85
g739
sbaa(lp950
(ischedule
Activity
p951
(dp952
g8
(lp953
g273
ag489
ag700
ag97
ag485
ag207
ag496
ag13
ag154
ag478
ag294
ag271
ag758
ag71
ag159
ag495
ag599
ag567
ag479
ag744
ag743
ag480
ag52
ag356
ag754
ag757
ag490
ag746
ag755
ag484
ag516
ag750
ag170
ag143
ag509
ag488
ag482
ag481
ag517
ag258
ag749
ag756
ag55
ag483
ag115
ag156
ag577
ag326
ag493
ag748
ag498
ag492
ag752
ag231
ag494
ag33
ag745
ag275
ag288
ag278
ag360
ag747
ag69
ag751
ag49
ag262
ag497
ag359
ag491
ag105
ag487
ag204
ag486
ag388
ag753
asg79
I1000
sg80
Nsg81
(iread_data
Room
p954
(dp955
g79
g84
sg85
g86
sbsg87
g88
sg89
I0
sg85
g505
sba(ischedule
Activity
p956
(dp957
g8
(lp958
g894
aS'88263855'
p959
aS'51791169'
p960
aS'3678531'
p961
ag265
ag540
ag543
ag758
aS'64053722'
p962
ag895
aS'88519892'
p963
ag138
ag849
ag51
ag24
ag486
aS'90296821'
p964
ag210
aS'73196865'
p965
ag252
asg79
g236
sg80
(ischedule
Group
p966
(dp967
g8
g958
sg85
S'Programmeren in Java 25'
p968
sbsg81
(iread_data
Room
p969
(dp970
g79
g242
sg85
g243
sbsg87
g129
sg89
S'5'
p971
sg85
g245
sba(ischedule
Activity
p972
(dp973
g8
(lp974
g56
ag74
ag33
ag58
ag32
ag15
ag72
ag43
ag45
ag77
ag67
ag13
ag61
ag20
ag41
ag49
ag70
ag55
ag26
ag10
ag23
ag71
ag76
ag46
ag16
ag21
ag19
ag48
ag35
ag39
ag47
ag24
ag69
ag59
ag75
ag65
ag68
ag78
ag42
ag28
ag34
ag64
ag50
ag63
ag73
ag11
ag14
asg79
S'40'
p975
sg80
(ischedule
Group
p976
(dp977
g8
g974
sg85
S'Compilerbouw2'
p978
sbsg81
(iread_data
Room
p979
(dp980
g79
g127
sg85
g128
sbsg87
g129
sg89
g130
sg85
g90
sba(ischedule
Activity
p981
(dp982
g8
(lp983
g12
ag53
ag31
ag30
ag44
ag37
ag38
ag29
ag27
ag52
ag62
ag25
ag51
ag60
ag40
ag22
ag36
ag18
ag66
ag17
ag57
ag54
asg79
g975
sg80
(ischedule
Group
p984
(dp985
g8
g983
sg85
S'Compilerbouw1'
p986
sbsg81
(iread_data
Room
p987
(dp988
g79
g193
sg85
g194
sbsg87
g129
sg89
g225
sg85
g90
sbaa(lp989
(ischedule
Activity
p990
(dp991
g8
g864
sg79
g619
sg80
g871
sg81
(iread_data
Room
p992
(dp993
g79
g127
sg85
g128
sbsg87
g129
sg89
g130
sg85
g625
sba(ischedule
Activity
p994
(dp995
g8
(lp996
g487
ag799
ag158
ag148
ag757
ag547
ag268
ag388
ag494
ag585
aS'88627897'
p997
ag797
ag318
ag755
aS'61611295'
p998
ag32
ag61
aS'36508571'
p999
ag55
ag798
ag663
ag147
asg79
I1000
sg80
Nsg81
(iread_data
Room
p1000
(dp1001
g79
g222
sg85
g223
sbsg87
g88
sg89
I0
sg85
g806
sba(ischedule
Activity
p1002
(dp1003
g8
(lp1004
g39
ag21
ag485
ag449
ag109
aS'35330349'
p1005
ag663
ag56
ag50
ag866
ag666
ag178
ag291
aS'73980360'
p1006
aS'54310617'
p1007
ag367
ag144
ag34
ag816
ag486
ag552
aS'46052388'
p1008
asg79
g855
sg80
(ischedule
Group
p1009
(dp1010
g8
g1004
sg85
S'Collectieve Intelligentie1'
p1011
sbsg81
(iread_data
Room
p1012
(dp1013
g79
g84
sg85
g86
sbsg87
g129
sg89
g225
sg85
g861
sba(ischedule
Activity
p1014
(dp1015
g8
g616
sg79
g870
sg80
g620
sg81
(iread_data
Room
p1016
(dp1017
g79
g242
sg85
g243
sbsg87
g224
sg89
g225
sg85
g625
sba(ischedule
Activity
p1018
(dp1019
g8
(lp1020
g145
ag600
ag185
ag357
aS'72652638'
p1021
ag161
ag553
ag817
ag550
ag580
aS'52304977'
p1022
aS'5739011'
p1023
ag210
ag715
aS'83869542'
p1024
ag302
ag547
ag514
ag634
ag148
ag391
ag273
ag329
ag596
ag356
ag821
ag576
ag649
aS'35315956'
p1025
ag853
ag47
aS'82968410'
p1026
asg79
I1000
sg80
Nsg81
(iread_data
Room
p1027
(dp1028
g79
g193
sg85
g194
sbsg87
g88
sg89
I0
sg85
S'Heuristieken 2'
p1029
sba(ischedule
Activity
p1030
(dp1031
g8
g882
sg79
g619
sg80
g884
sg81
(iread_data
Room
p1032
(dp1033
g79
g349
sg85
g350
sbsg87
g129
sg89
g244
sg85
g625
sba(ischedule
Activity
p1034
(dp1035
g8
(lp1036
g146
ag142
ag149
ag156
ag143
ag155
ag153
ag161
ag144
ag160
ag139
ag141
ag154
ag148
ag157
ag147
ag158
asg79
g691
sg80
(ischedule
Group
p1037
(dp1038
g8
g1036
sg85
S'Data Mining3'
p1039
sbsg81
(iread_data
Room
p1040
(dp1041
g79
g164
sg85
g165
sbsg87
g224
sg89
g244
sg85
g166
sbaaa(lp1042
(lp1043
(ischedule
Activity
p1044
(dp1045
g8
(lp1046
g276
ag183
ag254
ag253
ag251
ag185
ag264
ag278
ag259
ag207
ag257
ag269
ag260
ag256
ag115
ag275
ag268
ag262
ag274
ag280
ag250
ag148
ag27
ag263
ag265
ag266
ag270
asg79
g914
sg80
(ischedule
Group
p1047
(dp1048
g8
g1046
sg85
S'Algoritmen en complexiteit1'
p1049
sbsg81
(iread_data
Room
p1050
(dp1051
g79
g164
sg85
g165
sbsg87
g129
sg89
g225
sg85
g283
sba(ischedule
Activity
p1052
(dp1053
g8
(lp1054
S'4529208'
p1055
ag712
ag100
ag586
ag541
aS'56872729'
p1056
ag664
ag550
ag494
ag260
ag77
ag666
ag865
ag578
ag321
ag45
ag661
ag73
ag663
ag276
aS'15187217'
p1057
ag32
ag783
aS'54540997'
p1058
ag190
ag232
ag667
ag61
ag261
ag118
ag601
ag486
ag617
ag109
ag209
ag583
ag669
ag289
ag403
aS'58083680'
p1059
ag551
ag660
ag255
ag597
ag668
ag659
ag291
ag632
aS'86180471'
p1060
ag96
ag513
ag98
ag552
ag662
ag148
ag575
ag1024
ag380
ag665
ag518
ag428
ag251
ag41
ag363
ag540
ag39
ag866
ag467
ag514
aS'40141996'
p1061
ag279
aS'62736669'
p1062
asg79
I1000
sg80
Nsg81
(iread_data
Room
p1063
(dp1064
g79
g84
sg85
g86
sbsg87
g88
sg89
I0
sg85
g676
sba(ischedule
Activity
p1065
(dp1066
g8
g983
sg79
S'40'
p1067
sg80
g984
sg81
(iread_data
Room
p1068
(dp1069
g79
g242
sg85
g243
sbsg87
g224
sg89
g225
sg85
g90
sba(ischedule
Activity
p1070
(dp1071
g8
(lp1072
S'6709529'
p1073
ag107
ag961
aS'34173695'
p1074
ag35
aS'75623387'
p1075
ag549
ag781
aS'65978354'
p1076
ag170
ag555
ag665
ag385
ag425
ag268
aS'55530367'
p1077
ag575
aS'78735049'
p1078
ag853
ag1056
aS'19717077'
p1079
aS'14179347'
p1080
ag754
ag453
ag538
ag482
aS'59220392'
p1081
ag430
aS'72526473'
p1082
ag596
aS'70939718'
p1083
ag898
ag617
ag664
aS'75446434'
p1084
aS'28957789'
p1085
ag547
aS'56348773'
p1086
asg79
g216
sg80
(ischedule
Group
p1087
(dp1088
g8
g1072
sg85
S'Calculus 22'
p1089
sbsg81
(iread_data
Room
p1090
(dp1091
g79
g193
sg85
g194
sbsg87
g224
sg89
g130
sg85
g226
sbaa(lp1092
(ischedule
Activity
p1093
(dp1094
g8
(lp1095
g69
ag867
ag302
ag204
ag60
ag232
ag147
ag101
ag484
ag869
ag782
ag48
ag62
ag750
ag137
ag780
ag561
ag256
ag868
ag480
ag161
ag144
ag883
ag203
ag633
ag578
ag360
ag94
ag36
ag512
ag866
ag205
ag287
ag214
ag755
ag294
ag511
ag753
ag712
ag96
ag617
ag865
ag770
ag618
ag565
asg79
I1000
sg80
Nsg81
(iread_data
Room
p1096
(dp1097
g79
g84
sg85
g86
sbsg87
g88
sg89
I0
sg85
g625
sba(ischedule
Activity
p1098
(dp1099
g8
(lp1100
g47
ag1025
ag356
ag210
ag821
ag553
ag817
ag1026
ag580
ag576
ag302
ag148
ag596
ag273
ag600
ag1024
ag1023
ag547
ag391
ag649
ag715
ag329
ag1022
ag357
ag1021
asg79
S'20'
p1101
sg80
(ischedule
Group
p1102
(dp1103
g8
g1100
sg85
S'Heuristieken 22'
p1104
sbsg81
(iread_data
Room
p1105
(dp1106
g79
g164
sg85
g165
sbsg87
g224
sg89
g130
sg85
g1029
sba(ischedule
Activity
p1107
(dp1108
g8
(lp1109
S'27241113'
p1110
ag327
aS'13218321'
p1111
ag68
ag662
ag770
ag816
ag851
ag663
ag586
ag539
ag19
ag356
ag512
aS'3883025'
p1112
ag58
ag40
ag279
ag599
asg79
g121
sg80
(ischedule
Group
p1113
(dp1114
g8
g1109
sg85
S'Moderne Databases1'
p1115
sbsg81
(iread_data
Room
p1116
(dp1117
g79
g127
sg85
g128
sbsg87
g129
sg89
g225
sg85
g131
sba(ischedule
Activity
p1118
(dp1119
g8
g796
sg79
S'10'
p1120
sg80
g801
sg81
(iread_data
Room
p1121
(dp1122
g79
g349
sg85
g350
sbsg87
g224
sg89
g244
sg85
g806
sba(ischedule
Activity
p1123
(dp1124
g8
g944
sg79
S'15'
p1125
sg80
g945
sg81
(iread_data
Room
p1126
(dp1127
g79
g193
sg85
g194
sbsg87
g129
sg89
g130
sg85
g739
sba(ischedule
Activity
p1128
(dp1129
g8
(lp1130
g269
ag287
ag818
ag1062
aS'16912993'
p1131
ag159
ag630
ag276
aS'53267490'
p1132
aS'12170832'
p1133
ag822
ag53
aS'535689'
p1134
aS'64246605'
p1135
ag448
ag290
ag380
ag669
ag421
ag211
ag668
ag551
ag486
ag898
aS'59887191'
p1136
ag278
ag749
ag260
ag647
aS'19058315'
p1137
ag564
ag184
ag112
ag867
ag1083
ag208
aS'14398123'
p1138
ag231
ag584
ag145
ag318
asg79
g787
sg80
(ischedule
Group
p1139
(dp1140
g8
g1130
sg85
S'Netwerken en systeembeveiliging3'
p1141
sbsg81
(iread_data
Room
p1142
(dp1143
g79
g222
sg85
g223
sbsg87
g129
sg89
g244
sg85
g793
sba(ischedule
Activity
p1144
(dp1145
g8
(lp1146
g276
aS'87758823'
p1147
ag154
ag490
asg79
g855
sg80
(ischedule
Group
p1148
(dp1149
g8
g1146
sg85
S'Collectieve Intelligentie4'
p1150
sbsg81
(iread_data
Room
p1151
(dp1152
g79
g242
sg85
g243
sbsg87
g129
sg89
g655
sg85
g861
sbaa(lp1153
(ischedule
Activity
p1154
(dp1155
g8
(lp1156
g230
ag1007
ag171
ag150
ag451
aS'91139627'
p1157
ag116
ag564
ag552
aS'47605891'
p1158
ag265
ag769
ag581
ag577
ag771
ag753
aS'63408522'
p1159
ag36
ag54
aS'72547110'
p1160
ag389
ag495
ag1078
ag662
ag681
ag746
ag302
aS'51186803'
p1161
ag824
ag203
ag700
aS'63955238'
p1162
ag299
ag683
aS'37498675'
p1163
ag297
ag269
aS'79366078'
p1164
aS'39659121'
p1165
aS'39919665'
p1166
ag267
ag558
ag541
ag749
ag404
ag38
aS'24875739'
p1167
aS'38329455'
p1168
ag254
ag262
ag420
ag271
ag869
ag206
ag568
ag288
ag53
ag11
aS'10872825'
p1169
ag210
ag232
ag818
ag200
ag155
ag516
ag578
ag55
aS'44940353'
p1170
ag1138
ag320
ag647
ag379
ag584
ag819
ag463
ag430
ag1085
aS'79858178'
p1171
aS'65003379'
p1172
ag386
aS'82688900'
p1173
ag47
ag445
ag118
asg79
I1000
sg80
Nsg81
(iread_data
Room
p1174
(dp1175
g79
g84
sg85
g86
sbsg87
g88
sg89
I0
sg85
S'Kansrekenen 2'
p1176
sba(ischedule
Activity
p1177
(dp1178
g8
g1036
sg79
g343
sg80
g1037
sg81
(iread_data
Room
p1179
(dp1180
g79
g242
sg85
g243
sbsg87
g129
sg89
g244
sg85
g166
sba(ischedule
Activity
p1181
(dp1182
g8
g1095
sg79
I1000
sg80
Nsg81
(iread_data
Room
p1183
(dp1184
g79
g127
sg85
g128
sbsg87
g88
sg89
I0
sg85
g625
sba(ischedule
Activity
p1185
(dp1186
g8
(lp1187
g744
aS'25994016'
p1188
ag757
ag269
ag559
ag899
ag714
ag1060
ag553
ag560
ag1080
asg79
g603
sg80
(ischedule
Group
p1189
(dp1190
g8
g1187
sg85
S'Project Genetic Algorithms1'
p1191
sbsg81
(iread_data
Room
p1192
(dp1193
g79
g164
sg85
g165
sbsg87
g129
sg89
g225
sg85
g609
sba(ischedule
Activity
p1194
(dp1195
g8
g1109
sg79
g414
sg80
g1113
sg81
(iread_data
Room
p1196
(dp1197
g79
g222
sg85
g223
sbsg87
g224
sg89
g225
sg85
g131
sbaa(lp1198
(ischedule
Activity
p1199
(dp1200
g8
g974
sg79
g1067
sg80
g976
sg81
(iread_data
Room
p1201
(dp1202
g79
g164
sg85
g165
sbsg87
g224
sg89
g130
sg85
g90
sba(ischedule
Activity
p1203
(dp1204
g8
(lp1205
g212
ag425
aS'77306636'
p1206
ag1079
ag268
ag1061
ag274
ag644
ag512
ag1080
ag600
ag157
ag214
ag204
ag208
ag482
ag567
ag113
aS'31306819'
p1207
ag1060
ag578
ag75
ag116
aS'61520025'
p1208
ag898
aS'82412626'
p1209
ag54
ag202
aS'93361408'
p1210
ag317
ag649
ag602
ag485
ag1077
ag517
ag1056
ag754
ag647
ag48
ag538
ag105
ag1078
ag358
ag539
ag29
ag101
ag853
ag35
ag1082
ag1076
ag1083
ag659
ag211
ag210
ag199
ag549
ag206
ag11
ag554
ag264
ag617
ag781
ag209
ag1075
ag883
ag234
ag575
ag367
ag961
ag385
ag1073
ag596
ag200
ag1167
ag207
aS'23628642'
p1211
ag664
ag205
aS'22168693'
p1212
ag547
ag213
ag272
aS'55412918'
p1213
ag279
ag453
ag170
ag1074
ag1086
ag180
ag555
ag518
ag107
ag67
ag1084
ag215
ag203
ag1085
ag41
aS'53139134'
p1214
ag201
ag1081
ag496
ag186
ag297
ag665
ag430
asg79
I1000
sg80
Nsg81
(iread_data
Room
p1215
(dp1216
g79
g84
sg85
g86
sbsg87
g88
sg89
I0
sg85
g226
sba(ischedule
Activity
p1217
(dp1218
g8
g892
sg79
S'20'
p1219
sg80
g902
sg81
(iread_data
Room
p1220
(dp1221
g79
g349
sg85
g350
sbsg87
g224
sg89
g244
sg85
g861
sba(ischedule
Activity
p1222
(dp1223
g8
(lp1224
g998
ag32
ag158
ag487
ag997
ag494
ag318
ag663
ag755
ag585
asg79
g800
sg80
(ischedule
Group
p1225
(dp1226
g8
g1224
sg85
S'Autonomous Agents 22'
p1227
sbsg81
(iread_data
Room
p1228
(dp1229
g79
g127
sg85
g128
sbsg87
g129
sg89
g130
sg85
g806
sba(ischedule
Activity
p1230
(dp1231
g8
(lp1232
g666
ag332
aS'91250534'
p1233
aS'47260040'
p1234
ag484
aS'41644639'
p1235
ag734
ag850
ag258
ag584
ag294
ag579
aS'55103073'
p1236
ag1134
aS'42297781'
p1237
ag811
aS'74361881'
p1238
ag750
ag208
asg79
g468
sg80
(ischedule
Group
p1239
(dp1240
g8
g1232
sg85
S'Compilerbouw practicum1'
p1241
sbsg81
(iread_data
Room
p1242
(dp1243
g79
g222
sg85
g223
sbsg87
g129
sg89
g225
sg85
g474
sba(ischedule
Activity
p1244
(dp1245
g8
(lp1246
g999
ag388
asg79
g1120
sg80
(ischedule
Group
p1247
(dp1248
g8
g1246
sg85
S'Autonomous Agents 21'
p1249
sbsg81
(iread_data
Room
p1250
(dp1251
g79
g242
sg85
g243
sbsg87
g224
sg89
g225
sg85
g806
sbaa(lp1252
(ischedule
Activity
p1253
(dp1254
g8
g9
sg79
I1000
sg80
Nsg81
(iread_data
Room
p1255
(dp1256
g79
g84
sg85
g86
sbsg87
g88
sg89
I0
sg85
g90
sba(ischedule
Activity
p1257
(dp1258
g8
g1046
sg79
S'25'
p1259
sg80
g1047
sg81
(iread_data
Room
p1260
(dp1261
g79
g222
sg85
g223
sbsg87
g224
sg89
g225
sg85
g283
sba(ischedule
Activity
p1262
(dp1263
g8
(lp1264
g137
ag152
ag135
ag150
ag138
ag151
asg79
g343
sg80
(ischedule
Group
p1265
(dp1266
g8
g1264
sg85
S'Data Mining2'
p1267
sbsg81
(iread_data
Room
p1268
(dp1269
g79
g242
sg85
g243
sbsg87
g129
sg89
g130
sg85
g166
sba(ischedule
Activity
p1270
(dp1271
g8
g1156
sg79
I1000
sg80
Nsg81
(iread_data
Room
p1272
(dp1273
g79
g193
sg85
g194
sbsg87
g88
sg89
I0
sg85
g1176
sba(ischedule
Activity
p1274
(dp1275
g8
g353
sg79
g434
sg80
g370
sg81
(iread_data
Room
p1276
(dp1277
g79
g349
sg85
g350
sbsg87
g129
sg89
g225
sg85
g375
sba(ischedule
Activity
p1278
(dp1279
g8
(lp1280
g427
ag814
ag388
ag617
ag825
ag539
ag818
ag815
ag819
ag824
ag450
ag646
asg79
g923
sg80
(ischedule
Group
p1281
(dp1282
g8
g1280
sg85
S'Heuristieken 12'
p1283
sbsg81
(iread_data
Room
p1284
(dp1285
g79
g164
sg85
g165
sbsg87
g224
sg89
g130
sg85
g828
sba(ischedule
Activity
p1286
(dp1287
g8
(lp1288
g96
ag518
ag1024
ag783
ag1055
ag541
ag109
ag1057
ag1058
ag866
ag403
ag1061
ag77
ag712
ag486
ag597
ag45
ag514
ag255
ag276
ag1059
ag1062
ag583
ag380
ag865
ag1056
ag1060
ag232
ag601
ag428
ag118
ag251
ag148
ag61
ag586
ag632
asg79
g670
sg80
(ischedule
Group
p1289
(dp1290
g8
g1288
sg85
S'Databases 22'
p1291
sbsg81
(iread_data
Room
p1292
(dp1293
g79
g127
sg85
g128
sbsg87
g224
sg89
g130
sg85
g676
sbaaa(lp1294
(lp1295
(ischedule
Activity
p1296
(dp1297
g8
(lp1298
g937
aS'90743504'
p1299
aS'16011419'
p1300
aS'79937969'
p1301
ag798
aS'26172512'
p1302
ag663
ag21
ag999
ag155
ag514
aS'66570705'
p1303
ag751
ag156
ag1147
ag664
ag328
ag1005
ag555
ag53
ag883
ag253
ag757
ag819
aS'80998260'
p1304
ag103
ag747
ag39
ag445
ag752
aS'32595335'
p1305
ag866
ag823
ag203
ag540
aS'54074680'
p1306
ag297
ag317
ag584
ag547
ag1213
ag894
ag516
ag76
ag289
ag431
ag187
aS'34588570'
p1307
ag46
aS'21311067'
p1308
ag495
ag179
ag1056
aS'96118484'
p1309
asg79
I1000
sg80
Nsg81
(iread_data
Room
p1310
(dp1311
g79
g164
sg85
g165
sbsg87
g88
sg89
I0
sg85
S'Lineaire Algebra'
p1312
sba(ischedule
Activity
p1313
(dp1314
g8
(lp1315
g1238
ag35
ag98
aS'55480737'
p1316
ag62
ag577
aS'75680261'
p1317
ag1138
ag465
ag354
ag1235
ag171
ag274
asg79
g603
sg80
(ischedule
Group
p1318
(dp1319
g8
g1315
sg85
S'Project Genetic Algorithms3'
p1320
sbsg81
(iread_data
Room
p1321
(dp1322
g79
g222
sg85
g223
sbsg87
g129
sg89
g244
sg85
g609
sba(ischedule
Activity
p1323
(dp1324
g8
(lp1325
g324
ag330
ag321
ag666
ag178
ag94
ag683
ag332
ag288
ag318
ag100
ag314
ag158
ag328
ag15
ag682
ag681
ag329
ag76
ag327
ag315
ag298
ag331
ag322
ag325
ag63
ag101
ag680
ag18
ag316
ag58
ag143
ag323
ag33
ag320
ag326
ag317
ag319
asg79
I1000
sg80
Nsg81
(iread_data
Room
p1326
(dp1327
g79
g127
sg85
g128
sbsg87
g88
sg89
I0
sg85
g339
sba(ischedule
Activity
p1328
(dp1329
g8
(lp1330
g94
ag322
ag631
ag71
ag328
ag160
ag112
ag267
ag543
asg79
g393
sg80
(ischedule
Group
p1331
(dp1332
g8
g1330
sg85
S'Reflectie op de digitale cultuur1'
p1333
sbsg81
(iread_data
Room
p1334
(dp1335
g79
g242
sg85
g243
sbsg87
g224
sg89
g225
sg85
g399
sba(ischedule
Activity
p1336
(dp1337
g8
(lp1338
g637
ag291
ag583
ag559
ag633
ag146
ag45
ag491
ag511
ag299
ag566
ag636
ag421
ag638
ag632
ag47
ag158
ag630
ag634
ag492
ag303
ag635
asg79
g393
sg80
(ischedule
Group
p1339
(dp1340
g8
g1338
sg85
S'Reflectie op de digitale cultuur2'
p1341
sbsg81
(iread_data
Room
p1342
(dp1343
g79
g193
sg85
g194
sbsg87
g224
sg89
g130
sg85
g399
sba(ischedule
Activity
p1344
(dp1345
g8
(lp1346
g13
ag663
ag367
ag154
ag291
ag748
ag666
ag898
ag453
ag1005
ag478
ag851
ag866
ag1007
ag276
ag449
ag21
ag744
ag893
ag34
ag324
ag36
ag852
ag264
ag552
ag814
ag771
ag894
ag853
ag327
ag109
ag363
ag403
ag896
ag39
ag486
ag433
ag144
ag897
ag784
ag899
ag485
ag211
ag178
ag895
ag901
ag50
ag849
ag1006
ag854
ag1147
ag490
ag816
ag56
ag287
ag550
ag900
ag357
ag1008
ag850
ag270
asg79
I1000
sg80
Nsg81
(iread_data
Room
p1347
(dp1348
g79
g84
sg85
g86
sbsg87
g88
sg89
I0
sg85
g861
sba(ischedule
Activity
p1349
(dp1350
g8
g1224
sg79
g1120
sg80
g1225
sg81
(iread_data
Room
p1351
(dp1352
g79
g349
sg85
g350
sbsg87
g224
sg89
g130
sg85
g806
sbaa(lp1353
(ischedule
Activity
p1354
(dp1355
g8
(lp1356
g634
ag145
ag550
ag853
ag161
ag514
ag185
asg79
g1101
sg80
(ischedule
Group
p1357
(dp1358
g8
g1356
sg85
S'Heuristieken 21'
p1359
sbsg81
(iread_data
Room
p1360
(dp1361
g79
g222
sg85
g223
sbsg87
g224
sg89
g225
sg85
g1029
sba(ischedule
Activity
p1362
(dp1363
g8
g1246
sg79
g800
sg80
g1247
sg81
(iread_data
Room
p1364
(dp1365
g79
g84
sg85
g86
sbsg87
g129
sg89
g225
sg85
g806
sba(ischedule
Activity
p1366
(dp1367
g8
(lp1368
g713
ag712
ag208
ag181
ag267
ag556
ag575
ag433
ag869
ag65
ag539
ag714
ag178
ag234
ag358
ag630
ag701
ag715
ag380
aS'39429093'
p1369
asg79
I1000
sg80
Nsg81
(iread_data
Room
p1370
(dp1371
g79
g127
sg85
g128
sbsg87
g88
sg89
I0
sg85
g722
sba(ischedule
Activity
p1372
(dp1373
g8
g935
sg79
I1000
sg80
Nsg81
(iread_data
Room
p1374
(dp1375
g79
g164
sg85
g165
sbsg87
g88
sg89
I0
sg85
g941
sba(ischedule
Activity
p1376
(dp1377
g8
g1264
sg79
g691
sg80
g1265
sg81
(iread_data
Room
p1378
(dp1379
g79
g349
sg85
g350
sbsg87
g224
sg89
g130
sg85
g166
sba(ischedule
Activity
p1380
(dp1381
g8
g1004
sg79
g1219
sg80
g1009
sg81
(iread_data
Room
p1382
(dp1383
g79
g242
sg85
g243
sbsg87
g224
sg89
g225
sg85
g861
sba(ischedule
Activity
p1384
(dp1385
g8
g477
sg79
g759
sg80
g500
sg81
(iread_data
Room
p1386
(dp1387
g79
g193
sg85
g194
sbsg87
g224
sg89
g225
sg85
g505
sbaa(lp1388
(ischedule
Activity
p1389
(dp1390
g8
g1346
sg79
I1000
sg80
Nsg81
(iread_data
Room
p1391
(dp1392
g79
g164
sg85
g165
sbsg87
g88
sg89
I0
sg85
g861
sba(ischedule
Activity
p1393
(dp1394
g8
g742
sg79
g499
sg80
g760
sg81
(iread_data
Room
p1395
(dp1396
g79
g84
sg85
g86
sbsg87
g129
sg89
g130
sg85
g505
sba(ischedule
Activity
p1397
(dp1398
g8
g1325
sg79
I1000
sg80
Nsg81
(iread_data
Room
p1399
(dp1400
g79
g193
sg85
g194
sbsg87
g88
sg89
I0
sg85
g339
sba(ischedule
Activity
p1401
(dp1402
g8
(lp1403
g1112
ag559
aS'123355'
p1404
ag142
asg79
g787
sg80
(ischedule
Group
p1405
(dp1406
g8
g1403
sg85
S'Netwerken en systeembeveiliging4'
p1407
sbsg81
(iread_data
Room
p1408
(dp1409
g79
g222
sg85
g223
sbsg87
g129
sg89
g655
sg85
g793
sba(ischedule
Activity
p1410
(dp1411
g8
(lp1412
g1206
ag1061
ag578
ag1208
ag48
ag1214
ag317
ag883
ag600
ag116
ag602
ag649
ag367
ag647
ag1209
ag1167
ag186
ag485
ag75
ag274
ag1213
ag1060
ag264
ag358
ag644
ag1207
ag157
ag512
ag567
ag554
ag272
ag517
ag113
ag1211
ag11
ag539
ag659
ag518
ag1212
ag234
ag496
ag279
ag29
ag297
ag1210
asg79
g216
sg80
(ischedule
Group
p1413
(dp1414
g8
g1412
sg85
S'Calculus 23'
p1415
sbsg81
(iread_data
Room
p1416
(dp1417
g79
g127
sg85
g128
sbsg87
g224
sg89
g244
sg85
g226
sba(ischedule
Activity
p1418
(dp1419
g8
g996
sg79
I1000
sg80
Nsg81
(iread_data
Room
p1420
(dp1421
g79
g242
sg85
g243
sbsg87
g88
sg89
I0
sg85
g806
sbaa(lp1422
(ischedule
Activity
p1423
(dp1424
g8
g1095
sg79
I1000
sg80
Nsg81
(iread_data
Room
p1425
(dp1426
g79
g127
sg85
g128
sbsg87
g88
sg89
I0
sg85
g625
sba(ischedule
Activity
p1427
(dp1428
g8
g731
sg79
I1000
sg80
Nsg81
(iread_data
Room
p1429
(dp1430
g79
g84
sg85
g86
sbsg87
g88
sg89
I0
sg85
g739
sba(ischedule
Activity
p1431
(dp1432
g8
g913
sg79
g1259
sg80
g915
sg81
(iread_data
Room
p1433
(dp1434
g79
g193
sg85
g194
sbsg87
g224
sg89
g130
sg85
g283
sba(ischedule
Activity
p1435
(dp1436
g8
(lp1437
g823
ag64
ag1188
ag425
aS'51472074'
p1438
ag598
aS'64418623'
p1439
asg79
g468
sg80
(ischedule
Group
p1440
(dp1441
g8
g1437
sg85
S'Compilerbouw practicum3'
p1442
sbsg81
(iread_data
Room
p1443
(dp1444
g79
g349
sg85
g350
sbsg87
g129
sg89
g244
sg85
g474
sba(ischedule
Activity
p1445
(dp1446
g8
g1346
sg79
I1000
sg80
Nsg81
(iread_data
Room
p1447
(dp1448
g79
g164
sg85
g165
sbsg87
g88
sg89
I0
sg85
g861
sba(ischedule
Activity
p1449
(dp1450
g8
(lp1451
g177
ag76
ag41
asg79
g304
sg80
(ischedule
Group
p1452
(dp1453
g8
g1451
sg85
S'Project Numerical Recipes1'
p1454
sbsg81
(iread_data
Room
p1455
(dp1456
g79
g222
sg85
g223
sbsg87
g129
sg89
g225
sg85
g310
sbaa(lp1457
(ischedule
Activity
p1458
(dp1459
g8
g1298
sg79
I1000
sg80
Nsg81
(iread_data
Room
p1460
(dp1461
g79
g193
sg85
g194
sbsg87
g88
sg89
I0
sg85
g1312
sba(ischedule
Activity
p1462
(dp1463
g8
(lp1464
g1111
ag327
ag1110
ag100
ag97
ag33
ag40
ag94
ag356
ag112
ag586
ag599
ag118
ag662
ag107
ag851
ag19
ag98
ag102
ag392
ag279
ag114
ag539
ag512
ag104
ag105
ag29
ag115
ag403
ag106
ag117
ag119
ag96
ag110
ag199
ag103
ag99
ag770
ag58
ag120
ag1112
ag404
ag116
ag95
ag111
ag663
ag108
ag101
ag68
ag113
ag816
ag66
ag405
ag109
asg79
I1000
sg80
Nsg81
(iread_data
Room
p1465
(dp1466
g79
g222
sg85
g223
sbsg87
g88
sg89
I0
sg85
g131
sba(ischedule
Activity
p1467
(dp1468
g8
g839
sg79
g1125
sg80
g841
sg81
(iread_data
Room
p1469
(dp1470
g79
g349
sg85
g350
sbsg87
g129
sg89
g225
sg85
g739
sba(ischedule
Activity
p1471
(dp1472
g8
g1146
sg79
g1219
sg80
g1148
sg81
(iread_data
Room
p1473
(dp1474
g79
g84
sg85
g86
sbsg87
g224
sg89
g655
sg85
g861
sba(ischedule
Activity
p1475
(dp1476
g8
(lp1477
g234
ag539
ag701
ag869
ag575
ag358
ag1369
ag380
ag267
asg79
g716
sg80
(ischedule
Group
p1478
(dp1479
g8
g1477
sg85
S'Advanced Heuristics2'
p1480
sbsg81
(iread_data
Room
p1481
(dp1482
g79
g164
sg85
g165
sbsg87
g129
sg89
g130
sg85
g722
sba(ischedule
Activity
p1483
(dp1484
g8
g767
sg79
I1000
sg80
Nsg81
(iread_data
Room
p1485
(dp1486
g79
g127
sg85
g128
sbsg87
g88
sg89
I0
sg85
g776
sba(ischedule
Activity
p1487
(dp1488
g8
g848
sg79
g1219
sg80
g856
sg81
(iread_data
Room
p1489
(dp1490
g79
g242
sg85
g243
sbsg87
g224
sg89
g130
sg85
g861
sbaaa(lp1491
(lp1492
a(lp1493
a(lp1494
a(lp1495
a(lp1496
aasS'timeslot_dict'
p1497
(dp1498
I0
S'9:00-11:00'
p1499
sI1
S'11:00-13:00'
p1500
sI2
S'13:00-15:00'
p1501
sI3
S'15:00-17:00'
p1502
sI4
S'17:00-19:00'
p1503
ssS'day_dict'
p1504
(dp1505
I0
S'Monday'
p1506
sI1
S'Tuesday'
p1507
sI2
S'Wednesday'
p1508
sI3
S'Thursday'
p1509
sI4
S'Friday'
p1510
ssb.