(ischedule
Schedule
p0
(dp1
S'timetable'
p2
(lp3
(lp4
(lp5
(ischedule
Activity
p6
(dp7
S'participants'
p8
(lp9
S'27298319'
p10
aS'61611295'
p11
aS'34806836'
p12
aS'22871048'
p13
aS'16097870'
p14
aS'70113753'
p15
aS'62872965'
p16
aS'19858730'
p17
asS'capacity'
p18
S'10'
p19
sS'name'
p20
S'Autonomous Agents 2'
p21
sS'ttype'
p22
S'tutorials'
p23
sS'group_id'
p24
S'1'
p25
sS'room'
p26
(iread_data
Room
p27
(dp28
g18
S'60'
p29
sg20
S'C1.112'
p30
sbsba(ischedule
Activity
p31
(dp32
g8
(lp33
S'49631542'
p34
aS'76123484'
p35
aS'64296965'
p36
aS'17092717'
p37
aS'96054456'
p38
aS'51566595'
p39
aS'52552718'
p40
aS'56749879'
p41
aS'5517869'
p42
aS'51542218'
p43
aS'58332004'
p44
aS'43902015'
p45
aS'42196732'
p46
aS'75005528'
p47
aS'12091019'
p48
aS'24277163'
p49
aS'13132925'
p50
aS'26207525'
p51
aS'83869542'
p52
aS'13092455'
p53
aS'82689818'
p54
aS'27123462'
p55
aS'40434933'
p56
aS'58083680'
p57
aS'72796858'
p58
aS'23257088'
p59
aS'78821918'
p60
aS'40141996'
p61
aS'90474003'
p62
aS'73823548'
p63
aS'29640619'
p64
aS'39459642'
p65
aS'54540997'
p66
aS'70072978'
p67
aS'17222374'
p68
aS'5085194'
p69
aS'72456780'
p70
aS'25077484'
p71
aS'5526560'
p72
aS'91527663'
p73
aS'56872729'
p74
aS'57467488'
p75
aS'62736669'
p76
aS'58592894'
p77
aS'56191333'
p78
aS'29526540'
p79
asg18
S'40'
p80
sg20
S'Databases 2'
p81
sg22
g23
sg24
g25
sg26
(iread_data
Room
p82
(dp83
g18
S'48'
p84
sg20
S'B0.201'
p85
sbsba(ischedule
Activity
p86
(dp87
g8
(lp88
S'11915563'
p89
aS'83266686'
p90
aS'2079771'
p91
ag58
aS'94687383'
p92
aS'9067939'
p93
aS'46989508'
p94
aS'34872117'
p95
aS'27950803'
p96
aS'5368702'
p97
aS'81385263'
p98
aS'79033175'
p99
aS'75759231'
p100
aS'80135353'
p101
aS'65852230'
p102
aS'48308205'
p103
aS'44391517'
p104
aS'54772132'
p105
aS'86291592'
p106
aS'43689934'
p107
aS'14309255'
p108
aS'13911001'
p109
aS'66701209'
p110
aS'75599734'
p111
aS'34110913'
p112
aS'60312776'
p113
aS'7957843'
p114
aS'76802764'
p115
aS'42778953'
p116
aS'76661016'
p117
aS'75664412'
p118
aS'30658799'
p119
aS'84524083'
p120
aS'1766560'
p121
aS'98105190'
p122
aS'15911353'
p123
aS'37770881'
p124
aS'2317551'
p125
aS'68315599'
p126
aS'95007221'
p127
aS'73236988'
p128
aS'49683101'
p129
aS'27187154'
p130
ag65
aS'72895450'
p131
aS'77896638'
p132
aS'53202517'
p133
aS'3407554'
p134
aS'11741347'
p135
aS'10792879'
p136
aS'40791377'
p137
aS'6723948'
p138
aS'13284244'
p139
aS'5595824'
p140
aS'8464817'
p141
aS'12077419'
p142
aS'79167252'
p143
aS'34243356'
p144
aS'92665222'
p145
aS'88752563'
p146
aS'65960683'
p147
aS'24613625'
p148
aS'58522654'
p149
aS'86988337'
p150
aS'48503689'
p151
aS'31194811'
p152
aS'95631564'
p153
aS'88636924'
p154
aS'88855695'
p155
asg18
I1000
sg20
S'Compilerbouw'
p156
sg22
S'lectures'
p157
sg24
I0
sg26
(iread_data
Room
p158
(dp159
g18
S'117'
p160
sg20
S'C0.110'
p161
sbsba(ischedule
Activity
p162
(dp163
g8
(lp164
S'78136904'
p165
aS'47477884'
p166
aS'39429093'
p167
aS'3168419'
p168
aS'72683344'
p169
aS'28618400'
p170
aS'20883994'
p171
aS'75997788'
p172
aS'1886996'
p173
aS'72665524'
p174
aS'86807027'
p175
aS'62613937'
p176
asg18
S'10'
p177
sg20
S'Advanced Heuristics'
p178
sg22
S'labs'
p179
sg24
g25
sg26
(iread_data
Room
p180
(dp181
g18
S'20'
p182
sg20
S'A1.08'
p183
sbsba(ischedule
Activity
p184
(dp185
g8
(lp186
S'89338938'
p187
ag152
aS'12430748'
p188
aS'47982619'
p189
aS'70336464'
p190
aS'6249823'
p191
ag126
aS'14383795'
p192
aS'77636749'
p193
ag142
aS'93041523'
p194
aS'7106649'
p195
aS'23547619'
p196
ag56
aS'41578612'
p197
ag118
aS'75521763'
p198
aS'85335143'
p199
aS'10149535'
p200
aS'97371272'
p201
aS'77264363'
p202
aS'43680781'
p203
ag108
aS'58565406'
p204
ag103
aS'76487754'
p205
aS'22323043'
p206
aS'92496780'
p207
aS'37110913'
p208
aS'44901052'
p209
aS'11996292'
p210
aS'32204977'
p211
aS'4697362'
p212
aS'36785409'
p213
aS'26406342'
p214
aS'9332762'
p215
aS'69086548'
p216
aS'21192048'
p217
asg18
I1000
sg20
S'Technology for games'
p218
sg22
g157
sg24
I0
sg26
(iread_data
Room
p219
(dp220
g18
S'41'
p221
sg20
S'A1.04'
p222
sbsba(ischedule
Activity
p223
(dp224
g8
(lp225
S'64600457'
p226
aS'21029457'
p227
aS'6913074'
p228
aS'11068043'
p229
aS'77831658'
p230
aS'54026378'
p231
aS'89985072'
p232
aS'44868097'
p233
aS'5298748'
p234
asg18
S'20'
p235
sg20
S'Bioinformatica'
p236
sg22
g179
sg24
S'2'
p237
sg26
(iread_data
Room
p238
(dp239
g18
S'22'
p240
sg20
S'A1.06'
p241
sbsba(ischedule
Activity
p242
(dp243
g8
(lp244
S'50184318'
p245
aS'78243495'
p246
aS'59111489'
p247
aS'83415514'
p248
aS'41489515'
p249
aS'99283252'
p250
asg18
S'20'
p251
sg20
S'Moderne Databases'
p252
sg22
g23
sg24
g237
sg26
(iread_data
Room
p253
(dp254
g18
S'56'
p255
sg20
S'A1.10'
p256
sbsbaa(lp257
(ischedule
Activity
p258
(dp259
g8
(lp260
S'79366078'
p261
aS'54310617'
p262
ag97
aS'24875739'
p263
aS'61518436'
p264
aS'31247305'
p265
ag187
aS'77240949'
p266
ag44
aS'99272880'
p267
aS'38329455'
p268
aS'41527759'
p269
aS'59075181'
p270
aS'18266644'
p271
aS'10872825'
p272
ag171
aS'72547110'
p273
ag144
aS'65003379'
p274
aS'76924297'
p275
ag165
ag38
aS'20239127'
p276
aS'63955238'
p277
aS'74182182'
p278
aS'41585485'
p279
aS'58469172'
p280
ag89
ag34
aS'81218347'
p281
aS'42115591'
p282
aS'3685034'
p283
aS'79858178'
p284
aS'78735049'
p285
ag201
aS'31633723'
p286
ag41
aS'55474917'
p287
aS'63634350'
p288
aS'39230359'
p289
aS'82688900'
p290
ag193
aS'38499176'
p291
aS'17823206'
p292
aS'14591033'
p293
aS'84110134'
p294
aS'39919665'
p295
aS'94467156'
p296
aS'9731271'
p297
aS'44940353'
p298
aS'36903574'
p299
aS'14671406'
p300
ag149
aS'46570285'
p301
aS'32705005'
p302
aS'23391676'
p303
aS'56988998'
p304
ag120
ag130
aS'14398123'
p305
aS'54569540'
p306
aS'47605891'
p307
ag136
aS'34262212'
p308
aS'51186803'
p309
aS'59544049'
p310
aS'8522855'
p311
aS'91196968'
p312
ag43
aS'94955328'
p313
ag36
aS'22731474'
p314
aS'5615125'
p315
aS'20331158'
p316
aS'28957789'
p317
ag216
aS'23798155'
p318
aS'97019450'
p319
aS'37498675'
p320
aS'91139627'
p321
aS'63408522'
p322
aS'39659121'
p323
aS'47462856'
p324
aS'7492204'
p325
asg18
I1000
sg20
S'Kansrekenen 2'
p326
sg22
g157
sg24
I0
sg26
(iread_data
Room
p327
(dp328
g18
g160
sg20
g161
sbsba(ischedule
Activity
p329
(dp330
g8
(lp331
g289
aS'77392404'
p332
aS'69459473'
p333
aS'89180944'
p334
aS'41790793'
p335
aS'2416751'
p336
ag131
aS'43460038'
p337
aS'20618153'
p338
ag191
ag315
aS'76648468'
p339
aS'3474870'
p340
aS'94930277'
p341
aS'53512831'
p342
aS'24891081'
p343
aS'67073567'
p344
ag246
aS'28358060'
p345
ag45
aS'14303208'
p346
ag35
aS'61443567'
p347
aS'57086672'
p348
aS'66034145'
p349
aS'1137946'
p350
aS'76903244'
p351
aS'33877725'
p352
aS'27064249'
p353
aS'16333449'
p354
aS'14847953'
p355
aS'64228258'
p356
ag37
aS'10698627'
p357
ag133
ag56
aS'72577292'
p358
aS'49908313'
p359
aS'22288615'
p360
asg18
I1000
sg20
S'Webprogrammeren en databases'
p361
sg22
g157
sg24
I0
sg26
(iread_data
Room
p362
(dp363
g18
g29
sg20
g30
sbsba(ischedule
Activity
p364
(dp365
g8
(lp366
g214
ag150
ag210
aS'14816774'
p367
ag132
ag94
ag95
ag146
aS'47932106'
p368
ag168
aS'77960666'
p369
aS'670011'
p370
aS'60352393'
p371
aS'64947290'
p372
ag166
aS'23658570'
p373
aS'59397895'
p374
aS'43027916'
p375
aS'4529208'
p376
aS'56121590'
p377
aS'247918'
p378
aS'15187217'
p379
aS'37701751'
p380
aS'4921119'
p381
aS'94686490'
p382
aS'86180471'
p383
asg18
g80
sg20
g81
sg22
g23
sg24
g237
sg26
(iread_data
Room
p384
(dp385
g18
g221
sg20
g222
sbsba(ischedule
Activity
p386
(dp387
g8
(lp388
g11
ag58
ag208
ag14
ag39
ag40
aS'62356458'
p389
ag209
ag65
ag89
ag15
ag231
aS'88627897'
p390
aS'36508571'
p391
aS'74131924'
p392
ag10
ag42
ag17
ag12
ag13
aS'68409833'
p393
ag16
asg18
I1000
sg20
g21
sg22
g157
sg24
I0
sg26
(iread_data
Room
p394
(dp395
g18
g240
sg20
g241
sbsba(ischedule
Activity
p396
(dp397
g8
(lp398
S'81200278'
p399
aS'59753700'
p400
aS'70878567'
p401
aS'21964491'
p402
aS'13116738'
p403
aS'99453514'
p404
aS'87314964'
p405
aS'98780382'
p406
ag206
aS'45414528'
p407
aS'97136582'
p408
aS'50143947'
p409
aS'52311353'
p410
aS'19337738'
p411
asg18
S'10'
p412
sg20
S'Data Mining'
p413
sg22
g23
sg24
g237
sg26
(iread_data
Room
p414
(dp415
g18
g84
sg20
g85
sbsbaa(lp416
(ischedule
Activity
p417
(dp418
g8
(lp419
g36
ag69
ag381
ag282
aS'48678993'
p420
aS'14637758'
p421
aS'34900967'
p422
aS'87830198'
p423
ag199
aS'48357272'
p424
aS'73350019'
p425
aS'56544130'
p426
aS'58480929'
p427
ag176
aS'23565001'
p428
aS'80188025'
p429
ag375
aS'78822885'
p430
aS'72586808'
p431
ag140
ag373
aS'56815156'
p432
ag70
ag144
aS'88737765'
p433
ag230
ag319
ag348
aS'70193386'
p434
aS'33672995'
p435
ag43
aS'97838175'
p436
ag13
aS'18477924'
p437
aS'83443653'
p438
ag197
ag172
aS'82854435'
p439
ag313
aS'73302736'
p440
aS'60661905'
p441
ag213
ag60
aS'65318664'
p442
ag410
ag318
ag271
aS'13718298'
p443
ag14
asg18
I1000
sg20
S'Analysemethoden en -technieken'
p444
sg22
g157
sg24
I0
sg26
(iread_data
Room
p445
(dp446
g18
g160
sg20
g161
sbsba(ischedule
Activity
p447
(dp448
g8
(lp449
g63
ag146
aS'21070547'
p450
aS'2550487'
p451
aS'81022997'
p452
ag170
aS'6939933'
p453
ag188
aS'63939720'
p454
ag229
aS'90103047'
p455
aS'13996448'
p456
aS'32044893'
p457
ag47
aS'42406214'
p458
asg18
S'15'
p459
sg20
S'Project Numerical Recipes'
p460
sg22
g179
sg24
S'3'
p461
sg26
(iread_data
Room
p462
(dp463
g18
g182
sg20
g183
sbsba(ischedule
Activity
p464
(dp465
g8
(lp466
S'21095566'
p467
aS'88596522'
p468
ag402
ag409
ag299
ag75
aS'15902055'
p469
aS'19540225'
p470
ag77
ag131
ag279
aS'23652927'
p471
ag165
ag142
aS'23983476'
p472
ag372
aS'67817269'
p473
aS'53585410'
p474
aS'96453361'
p475
ag45
ag39
aS'77376714'
p476
aS'3707829'
p477
aS'44828429'
p478
aS'1665980'
p479
aS'64554442'
p480
aS'66433883'
p481
ag150
ag300
ag340
aS'52715680'
p482
aS'51509565'
p483
asg18
S'25'
p484
sg20
S'Algoritmen en complexiteit'
p485
sg22
g23
sg24
g25
sg26
(iread_data
Room
p486
(dp487
g18
g221
sg20
g222
sbsba(ischedule
Activity
p488
(dp489
g8
(lp490
S'63111000'
p491
ag90
ag247
ag248
aS'36748818'
p492
ag108
ag135
aS'48198668'
p493
aS'27241113'
p494
ag109
ag245
aS'3883025'
p495
ag249
aS'49219163'
p496
aS'36527838'
p497
aS'15051051'
p498
aS'78544592'
p499
aS'51650744'
p500
aS'96082155'
p501
ag119
ag79
ag250
aS'27916487'
p502
aS'33776961'
p503
ag203
aS'18144425'
p504
ag34
ag126
aS'4709948'
p505
aS'13218321'
p506
asg18
S'20'
p507
sg20
g252
sg22
g179
sg24
g461
sg26
(iread_data
Room
p508
(dp509
g18
g29
sg20
g30
sbsba(ischedule
Activity
p510
(dp511
g8
(lp512
g269
aS'26260141'
p513
aS'5976174'
p514
ag311
ag54
ag73
aS'34765676'
p515
aS'46701583'
p516
ag10
ag98
aS'40343779'
p517
asg18
g484
sg20
g485
sg22
g23
sg24
g237
sg26
(iread_data
Room
p518
(dp519
g18
g84
sg20
g85
sbsbaa(lp520
(ischedule
Activity
p521
(dp522
g8
(lp523
g267
ag505
ag297
aS'88519892'
p524
ag372
ag141
aS'73893840'
p525
ag319
ag381
aS'37279234'
p526
aS'3678531'
p527
aS'62105897'
p528
aS'44671041'
p529
aS'64053722'
p530
aS'51791169'
p531
ag503
ag312
ag44
aS'88597745'
p532
aS'92778619'
p533
ag287
ag360
aS'92977271'
p534
ag491
ag303
ag215
aS'85236626'
p535
ag472
ag288
asg18
S'20'
p536
sg20
S'Programmeren in Java 2'
p537
sg22
g179
sg24
S'6'
p538
sg26
(iread_data
Room
p539
(dp540
g18
g221
sg20
g222
sbsba(ischedule
Activity
p541
(dp542
g8
(lp543
g175
ag169
ag170
ag196
ag165
ag173
ag353
ag166
ag176
ag371
ag172
ag355
aS'70844780'
p544
ag167
ag168
ag358
ag171
ag174
aS'40633534'
p545
ag145
asg18
I1000
sg20
g178
sg22
g157
sg24
I0
sg26
(iread_data
Room
p546
(dp547
g18
g182
sg20
g183
sbsba(ischedule
Activity
p548
(dp549
g8
(lp550
S'42171678'
p551
ag347
ag375
aS'46052388'
p552
ag198
ag409
aS'4783858'
p553
ag49
ag402
aS'51741554'
p554
ag262
aS'62701040'
p555
ag245
aS'97135019'
p556
ag469
ag266
ag42
ag132
aS'73980360'
p557
ag124
ag479
aS'25106480'
p558
ag64
aS'33760909'
p559
ag68
aS'53107172'
p560
ag35
aS'48601268'
p561
asg18
S'20'
p562
sg20
S'Collectieve Intelligentie'
p563
sg22
g23
sg24
g25
sg26
(iread_data
Room
p564
(dp565
g18
g255
sg20
g256
sbsba(ischedule
Activity
p566
(dp567
g8
(lp568
g149
ag133
ag148
aS'4568018'
p569
ag432
aS'30050930'
p570
ag352
ag401
ag203
ag138
aS'7308727'
p571
aS'30195935'
p572
ag46
ag498
ag314
ag79
ag128
ag232
aS'88176729'
p573
aS'79617364'
p574
ag230
ag233
ag229
ag41
ag399
aS'66120270'
p575
asg18
S'20'
p576
sg20
g236
sg22
g23
sg24
g461
sg26
(iread_data
Room
p577
(dp578
g18
g84
sg20
g85
sbsba(ischedule
Activity
p579
(dp580
g8
(lp581
g92
ag101
ag248
ag226
aS'15249775'
p582
ag407
ag313
ag292
aS'79879876'
p583
ag296
aS'64393888'
p584
ag65
ag130
aS'22826928'
p585
ag67
ag291
ag150
aS'20830477'
p586
aS'12782624'
p587
aS'28943658'
p588
aS'85284256'
p589
aS'41153310'
p590
ag481
ag357
ag369
ag143
aS'10702778'
p591
ag104
ag370
aS'1048485'
p592
aS'7386961'
p593
aS'37399898'
p594
aS'93566383'
p595
ag516
ag299
aS'27582862'
p596
asg18
g536
sg20
g537
sg22
g179
sg24
g25
sg26
(iread_data
Room
p597
(dp598
g18
g29
sg20
g30
sbsba(ischedule
Activity
p599
(dp600
g8
(lp601
g14
ag231
ag389
ag17
ag13
ag208
ag40
ag391
ag16
ag89
ag392
ag12
ag58
ag209
ag15
asg18
S'10'
p602
sg20
g21
sg22
g179
sg24
g237
sg26
(iread_data
Room
p603
(dp604
g18
g240
sg20
g241
sbsba(ischedule
Activity
p605
(dp606
g8
(lp607
g170
aS'29718115'
p608
ag169
aS'58866007'
p609
ag337
ag54
aS'70015932'
p610
aS'14138904'
p611
aS'13798030'
p612
ag56
ag334
ag316
aS'27925117'
p613
ag358
aS'45556081'
p614
aS'59289233'
p615
ag318
ag90
ag200
ag129
ag95
asg18
I1000
sg20
S'Architectuur en computerorganisatie'
p616
sg22
g157
sg24
I0
sg26
(iread_data
Room
p617
(dp618
g18
g160
sg20
g161
sbsbaa(lp619
(ischedule
Activity
p620
(dp621
g8
(lp622
g49
ag503
ag498
ag249
ag496
ag135
ag476
ag79
ag247
ag248
ag198
ag497
ag67
ag324
ag203
ag245
ag172
ag90
ag494
ag210
ag491
ag501
ag495
aS'66621166'
p623
ag492
ag68
ag60
ag506
aS'78443067'
p624
ag199
ag121
ag504
ag246
ag500
ag493
ag505
ag301
aS'84449005'
p625
ag551
ag126
aS'1181560'
p626
ag44
ag119
ag109
ag108
ag77
ag499
ag226
ag250
ag502
ag34
aS'58699305'
p627
ag334
ag42
asg18
I1000
sg20
g252
sg22
g157
sg24
I0
sg26
(iread_data
Room
p628
(dp629
g18
g29
sg20
g30
sbsba(ischedule
Activity
p630
(dp631
g8
g260
sg18
I1000
sg20
g326
sg22
g157
sg24
I0
sg26
(iread_data
Room
p632
(dp633
g18
g160
sg20
g161
sbsba(ischedule
Activity
p634
(dp635
g8
g388
sg18
I1000
sg20
g21
sg22
g157
sg24
I0
sg26
(iread_data
Room
p636
(dp637
g18
g221
sg20
g222
sbsba(ischedule
Activity
p638
(dp639
g8
(lp640
g481
ag513
ag165
ag77
ag300
ag54
ag98
ag73
ag279
ag471
ag478
ag468
ag409
ag477
ag470
ag340
ag142
ag480
ag482
ag150
ag10
ag269
ag469
ag473
ag131
ag514
ag467
ag372
ag479
ag483
ag39
ag515
ag474
ag311
ag45
ag476
ag516
ag75
ag402
ag472
ag475
ag299
ag517
asg18
I1000
sg20
g485
sg22
g157
sg24
I0
sg26
(iread_data
Room
p641
(dp642
g18
g84
sg20
g85
sbsba(ischedule
Activity
p643
(dp644
g8
(lp645
g138
ag228
ag175
ag151
ag132
ag555
aS'37744525'
p646
aS'54395877'
p647
aS'63096281'
p648
ag64
ag189
ag105
aS'73196865'
p649
ag106
asg18
g536
sg20
g537
sg22
g179
sg24
S'4'
p650
sg26
(iread_data
Room
p651
(dp652
g18
g240
sg20
g241
sbsbaaa(lp653
(lp654
(ischedule
Activity
p655
(dp656
g8
(lp657
g608
ag126
ag472
aS'11459236'
p658
ag59
ag193
ag401
ag211
ag555
aS'8557857'
p659
ag271
aS'75585647'
p660
ag534
aS'17496687'
p661
aS'19958553'
p662
ag492
ag209
ag403
ag198
aS'13658563'
p663
ag44
asg18
I1000
sg20
S'Informatie- en organsatieontwerp'
p664
sg22
g157
sg24
I0
sg26
(iread_data
Room
p665
(dp666
g18
g84
sg20
g85
sbsba(ischedule
Activity
p667
(dp668
g8
(lp669
g97
aS'38179241'
p670
ag349
ag399
aS'64768422'
p671
ag380
aS'19214659'
p672
ag478
ag355
aS'21677389'
p673
ag117
ag477
ag275
ag595
aS'20374340'
p674
aS'69634191'
p675
ag515
aS'81155296'
p676
ag451
ag196
aS'4546613'
p677
ag594
ag98
aS'65675896'
p678
aS'28055464'
p679
asg18
I1000
sg20
S'Interactie-ontwerp'
p680
sg22
g157
sg24
I0
sg26
(iread_data
Room
p681
(dp682
g18
g255
sg20
g256
sbsba(ischedule
Activity
p683
(dp684
g8
(lp685
g269
ag40
ag13
ag482
ag393
ag442
ag287
ag64
ag231
ag300
aS'51593625'
p686
ag528
aS'83210352'
p687
ag265
ag517
ag187
ag610
ag232
ag513
ag529
aS'80709893'
p688
aS'45915482'
p689
ag553
ag96
ag204
ag282
ag410
aS'28357474'
p690
ag476
ag233
ag590
aS'37830626'
p691
ag286
ag89
ag250
ag352
ag246
ag409
aS'31103066'
p692
ag206
aS'82872148'
p693
ag229
ag310
ag596
ag514
ag624
ag646
ag440
ag153
ag337
ag389
aS'96554914'
p694
ag443
ag424
ag113
aS'3727435'
p695
aS'9287708'
p696
ag111
aS'14072826'
p697
ag294
ag128
ag334
ag677
aS'3233378'
p698
ag573
ag592
ag467
ag561
ag108
ag569
ag296
aS'65408517'
p699
ag558
aS'61060652'
p700
aS'58074656'
p701
asg18
I1000
sg20
S'Software engineering'
p702
sg22
g157
sg24
I0
sg26
(iread_data
Room
p703
(dp704
g18
g160
sg20
g161
sbsba(ischedule
Activity
p705
(dp706
g8
(lp707
g208
ag39
ag392
ag452
asg18
g412
sg20
g413
sg22
g23
sg24
g25
sg26
(iread_data
Room
p708
(dp709
g18
g240
sg20
g241
sbsba(ischedule
Activity
p710
(dp711
g8
g607
sg18
I1000
sg20
g616
sg22
g157
sg24
I0
sg26
(iread_data
Room
p712
(dp713
g18
g221
sg20
g222
sbsba(ischedule
Activity
p714
(dp715
g8
(lp716
g408
ag292
ag400
aS'93023961'
p717
ag456
aS'25330192'
p718
asg18
S'10'
p719
sg20
g413
sg22
g179
sg24
g237
sg26
(iread_data
Room
p720
(dp721
g18
g29
sg20
g30
sbsba(ischedule
Activity
p722
(dp723
g8
(lp724
g228
ag120
ag585
aS'51415617'
p725
ag234
ag457
ag434
aS'49922855'
p726
ag62
aS'38296757'
p727
ag369
ag505
ag404
ag306
ag625
asg18
S'20'
p728
sg20
S'Reflectie op de digitale cultuur'
p729
sg22
g23
sg24
g25
sg26
(iread_data
Room
p730
(dp731
g18
g182
sg20
g183
sbsbaa(lp732
(ischedule
Activity
p733
(dp734
g8
(lp735
g583
aS'87210640'
p736
asg18
S'25'
p737
sg20
S'Heuristieken 1'
p738
sg22
g23
sg24
g237
sg26
(iread_data
Room
p739
(dp740
g18
g182
sg20
g183
sbsba(ischedule
Activity
p741
(dp742
g8
(lp743
S'16912993'
p744
ag291
ag305
ag571
ag144
ag399
ag544
aS'535689'
p745
ag105
ag377
ag114
ag517
ag495
ag98
ag718
ag420
ag592
aS'25557516'
p746
asg18
S'20'
p747
sg20
S'Netwerken en systeembeveiliging'
p748
sg22
g179
sg24
g237
sg26
(iread_data
Room
p749
(dp750
g18
g84
sg20
g85
sbsba(ischedule
Activity
p751
(dp752
g8
(lp753
g46
ag698
ag402
ag35
aS'87758823'
p754
ag106
ag555
ag347
ag469
ag42
aS'57595888'
p755
aS'34773179'
p756
asg18
S'20'
p757
sg20
g563
sg22
g179
sg24
g461
sg26
(iread_data
Room
p758
(dp759
g18
g160
sg20
g161
sbsba(ischedule
Activity
p760
(dp761
g8
(lp762
S'33252501'
p763
ag727
ag535
ag283
ag264
ag130
ag129
ag304
ag91
ag498
ag516
ag318
ag296
aS'90067329'
p764
ag491
aS'26857113'
p765
aS'67625383'
p766
ag266
ag514
ag65
ag646
ag137
asg18
I1000
sg20
S'Machine Learning'
p767
sg22
g157
sg24
I0
sg26
(iread_data
Room
p768
(dp769
g18
g221
sg20
g222
sbsba(ischedule
Activity
p770
(dp771
g8
(lp772
g271
ag658
ag492
asg18
S'15'
p773
sg20
g664
sg22
g179
sg24
g237
sg26
(iread_data
Room
p774
(dp775
g18
g29
sg20
g30
sbsba(ischedule
Activity
p776
(dp777
g8
(lp778
S'31416266'
p779
ag64
ag124
ag149
ag49
aS'35330349'
p780
ag147
ag409
ag214
aS'96104167'
p781
ag54
ag358
ag262
aS'29474737'
p782
ag356
ag36
aS'86000192'
p783
aS'22699561'
p784
ag113
ag116
ag215
asg18
g757
sg20
g563
sg22
g179
sg24
g650
sg26
(iread_data
Room
p785
(dp786
g18
g240
sg20
g241
sbsba(ischedule
Activity
p787
(dp788
g8
(lp789
S'31897288'
p790
aS'4353500'
p791
aS'53775014'
p792
aS'14941752'
p793
ag75
aS'66122625'
p794
aS'1696500'
p795
ag198
aS'76393508'
p796
aS'58736785'
p797
ag17
ag299
ag13
ag41
ag611
aS'97417002'
p798
ag663
ag534
ag122
ag175
ag172
ag551
ag270
aS'45660925'
p799
aS'71839156'
p800
ag560
ag319
ag424
ag316
ag586
ag438
ag553
ag569
ag367
ag208
ag281
ag209
ag210
ag700
ag206
ag341
ag293
asg18
g737
sg20
g738
sg22
g23
sg24
g25
sg26
(iread_data
Room
p801
(dp802
g18
g255
sg20
g256
sbsbaa(lp803
(ischedule
Activity
p804
(dp805
g8
g186
sg18
I1000
sg20
g218
sg22
g157
sg24
I0
sg26
(iread_data
Room
p806
(dp807
g18
g29
sg20
g30
sbsba(ischedule
Activity
p808
(dp809
g8
(lp810
g79
aS'33930505'
p811
ag401
ag570
ag38
ag402
ag41
ag46
ag128
ag138
ag234
ag378
ag392
ag133
ag573
ag585
ag571
ag231
ag199
ag228
ag498
ag226
ag399
ag232
ag171
ag310
ag230
ag168
ag233
ag575
ag367
aS'28359697'
p812
ag149
ag352
ag572
ag227
ag574
ag229
ag314
ag203
ag148
ag432
ag569
ag293
ag475
asg18
I1000
sg20
g236
sg22
g157
sg24
I0
sg26
(iread_data
Room
p813
(dp814
g18
g84
sg20
g85
sbsba(ischedule
Activity
p815
(dp816
g8
(lp817
g553
ag558
ag561
ag698
ag409
ag690
ag296
ag113
ag476
ag687
ag443
ag529
ag64
ag250
ag590
ag699
ag286
ag440
ag517
ag300
ag393
ag269
ag592
ag287
ag700
ag624
ag692
ag246
ag695
ag513
ag265
asg18
S'40'
p818
sg20
g702
sg22
g179
sg24
g25
sg26
(iread_data
Room
p819
(dp820
g18
g221
sg20
g222
sbsba(ischedule
Activity
p821
(dp822
g8
(lp823
g96
ag276
ag49
ag594
ag13
ag53
ag371
aS'27805666'
p824
aS'36213792'
p825
ag503
ag441
ag544
ag533
aS'51052738'
p826
ag165
ag423
ag332
ag458
ag150
aS'20095994'
p827
ag348
asg18
g728
sg20
g729
sg22
g23
sg24
g237
sg26
(iread_data
Room
p828
(dp829
g18
g240
sg20
g241
sbsba(ischedule
Activity
p830
(dp831
g8
(lp832
g347
ag336
ag15
aS'23215240'
p833
aS'68601184'
p834
ag779
ag166
ag338
ag308
aS'58040377'
p835
ag125
ag474
asg18
g536
sg20
g537
sg22
g179
sg24
S'5'
p836
sg26
(iread_data
Room
p837
(dp838
g18
g255
sg20
g256
sbsbaa(lp839
(ischedule
Activity
p840
(dp841
g8
(lp842
g61
ag68
ag34
ag48
ag67
ag372
ag132
ag62
ag35
ag73
ag378
ag214
ag373
ag374
ag36
ag50
ag55
ag150
ag59
ag70
ag367
ag74
ag78
ag375
ag369
ag168
ag368
ag370
ag65
ag381
ag56
ag76
ag63
ag71
ag95
ag380
ag376
ag64
ag53
ag382
ag37
ag166
ag69
ag46
ag371
ag72
ag146
ag210
ag38
ag49
ag94
ag57
ag52
ag45
ag39
ag66
ag77
ag79
ag40
ag44
ag75
ag47
ag58
ag51
ag383
ag60
ag379
ag54
ag377
ag43
ag41
ag42
asg18
I1000
sg20
g81
sg22
g157
sg24
I0
sg26
(iread_data
Room
p843
(dp844
g18
g160
sg20
g161
sbsba(ischedule
Activity
p845
(dp846
g8
(lp847
g356
ag469
ag424
aS'93361408'
p848
ag440
ag553
ag426
ag699
aS'62363761'
p849
ag199
ag516
ag248
aS'22168693'
p850
aS'70939718'
p851
ag353
ag315
ag835
ag301
ag527
ag574
aS'53139134'
p852
ag429
aS'79888156'
p853
ag302
ag624
aS'23628642'
p854
asg18
S'40'
p855
sg20
S'Calculus 2'
p856
sg22
g23
sg24
g25
sg26
(iread_data
Room
p857
(dp858
g18
g221
sg20
g222
sbsba(ischedule
Activity
p859
(dp860
g8
g669
sg18
I1000
sg20
g680
sg22
g157
sg24
I0
sg26
(iread_data
Room
p861
(dp862
g18
g84
sg20
g85
sbsba(ischedule
Activity
p863
(dp864
g8
(lp865
g658
ag474
aS'74361881'
p866
ag211
ag346
ag745
ag479
aS'51472074'
p867
aS'64418623'
p868
ag569
ag267
ag468
ag232
aS'47260040'
p869
aS'42297781'
p870
ag134
ag288
aS'55103073'
p871
ag291
aS'1695839'
p872
ag174
aS'25994016'
p873
aS'44151631'
p874
asg18
S'15'
p875
sg20
S'Compilerbouw practicum'
p876
sg22
g179
sg24
g237
sg26
(iread_data
Room
p877
(dp878
g18
g255
sg20
g256
sbsba(ischedule
Activity
p879
(dp880
g8
(lp881
g403
ag406
ag404
ag402
ag399
ag392
ag208
aS'68360259'
p882
ag794
ag292
ag206
ag312
ag717
ag456
ag646
ag407
ag410
ag400
ag411
ag409
aS'87900893'
p883
ag39
ag452
ag401
ag408
ag405
ag718
asg18
I1000
sg20
g413
sg22
g157
sg24
I0
sg26
(iread_data
Room
p884
(dp885
g18
g29
sg20
g30
sbsba(ischedule
Activity
p886
(dp887
g8
(lp888
g230
ag116
ag175
ag571
ag139
ag294
ag128
aS'63573738'
p889
ag283
aS'81116418'
p890
aS'37419523'
p891
ag151
ag314
asg18
g459
sg20
g460
sg22
g179
sg24
g237
sg26
(iread_data
Room
p892
(dp893
g18
g240
sg20
g241
sbsba(ischedule
Activity
p894
(dp895
g8
(lp896
g103
ag144
ag120
ag127
ag137
ag119
ag147
ag140
ag118
ag104
ag141
asg18
S'40'
p897
sg20
g156
sg22
g179
sg24
g237
sg26
(iread_data
Room
p898
(dp899
g18
g182
sg20
g183
sbsbaa(lp900
(ischedule
Activity
p901
(dp902
g8
g762
sg18
I1000
sg20
g767
sg22
g157
sg24
I0
sg26
(iread_data
Room
p903
(dp904
g18
g29
sg20
g30
sbsba(ischedule
Activity
p905
(dp906
g8
(lp907
g195
ag204
ag215
ag196
ag214
ag203
ag199
ag200
ag205
ag193
ag187
ag108
ag126
ag103
ag216
ag192
ag142
asg18
S'20'
p908
sg20
g218
sg22
g23
sg24
g237
sg26
(iread_data
Room
p909
(dp910
g18
g255
sg20
g256
sbsba(ischedule
Activity
p911
(dp912
g8
(lp913
g358
ag780
aS'17575088'
p914
ag149
ag53
ag779
ag698
ag113
ag782
ag754
ag46
ag106
ag781
ag116
ag784
ag690
asg18
g562
sg20
g563
sg22
g23
sg24
g650
sg26
(iread_data
Room
p915
(dp916
g18
g182
sg20
g183
sbsba(ischedule
Activity
p917
(dp918
g8
(lp919
g625
ag124
ag756
ag96
ag250
ag558
ag311
ag72
aS'58253841'
p920
aS'55480737'
p921
ag873
ag420
ag545
ag71
aS'51673172'
p922
ag197
aS'41644639'
p923
ag305
ag110
aS'87602030'
p924
ag117
ag148
ag60
ag423
aS'14179347'
p925
ag275
asg18
S'15'
p926
sg20
S'Project Genetic Algorithms'
p927
sg22
g179
sg24
g237
sg26
(iread_data
Room
p928
(dp929
g18
g221
sg20
g222
sbsba(ischedule
Activity
p930
(dp931
g8
(lp932
g340
ag246
ag354
ag352
ag56
ag45
ag347
ag289
ag360
ag133
ag355
ag348
ag344
asg18
S'20'
p933
sg20
g361
sg22
g23
sg24
g25
sg26
(iread_data
Room
p934
(dp935
g18
g240
sg20
g241
sbsba(ischedule
Activity
p936
(dp937
g8
(lp938
g534
ag553
ag172
ag299
ag341
ag798
ag316
ag209
ag208
ag206
ag796
ag791
ag663
ag438
ag792
ag793
ag17
ag790
ag551
ag319
ag560
ag583
ag281
ag797
ag569
ag611
ag293
ag122
ag367
ag736
ag13
ag424
ag799
ag700
ag210
ag794
ag795
ag175
ag800
ag41
ag586
ag270
ag75
ag198
asg18
I1000
sg20
g738
sg22
g157
sg24
I0
sg26
(iread_data
Room
p939
(dp940
g18
g160
sg20
g161
sbsba(ischedule
Activity
p941
(dp942
g8
g881
sg18
I1000
sg20
g413
sg22
g157
sg24
I0
sg26
(iread_data
Room
p943
(dp944
g18
g84
sg20
g85
sbsbaaa(lp945
(lp946
(ischedule
Activity
p947
(dp948
g8
(lp949
g280
ag63
ag924
aS'10609762'
p950
aS'72526473'
p951
ag526
ag848
ag288
ag499
ag574
ag527
ag233
ag849
ag676
aS'31306819'
p952
ag166
ag174
ag285
ag356
aS'56348773'
p953
ag783
ag74
ag556
ag317
aS'61520025'
p954
ag315
aS'77306636'
p955
ag853
ag368
ag528
ag660
ag14
aS'11593163'
p956
ag172
ag699
ag138
ag428
aS'65978354'
p957
ag469
ag689
aS'55412918'
p958
ag627
aS'82412626'
p959
ag426
ag278
ag146
ag10
ag440
ag130
ag373
ag227
ag90
ag38
ag850
ag263
ag228
ag851
ag302
aS'55530367'
p960
ag346
ag513
ag429
ag474
ag883
ag293
ag435
ag353
ag624
ag453
ag136
ag297
ag424
ag553
ag77
ag61
aS'75623387'
p961
ag835
ag199
aS'6709529'
p962
ag248
aS'34173695'
p963
ag559
ag367
ag143
ag925
aS'59220392'
p964
ag854
ag670
ag382
ag613
ag155
ag200
ag48
ag516
ag727
ag852
ag117
ag383
aS'19717077'
p965
ag677
ag226
ag301
ag920
ag554
aS'75446434'
p966
ag175
asg18
I1000
sg20
g856
sg22
g157
sg24
I0
sg26
(iread_data
Room
p967
(dp968
g18
g160
sg20
g161
sbsba(ischedule
Activity
p969
(dp970
g8
g331
sg18
I1000
sg20
g361
sg22
g157
sg24
I0
sg26
(iread_data
Room
p971
(dp972
g18
g221
sg20
g222
sbsba(ischedule
Activity
p973
(dp974
g8
(lp975
g128
ag203
ag79
ag41
ag401
ag812
ag811
asg18
g235
sg20
g236
sg22
g179
sg24
g461
sg26
(iread_data
Room
p976
(dp977
g18
g255
sg20
g256
sbsba(ischedule
Activity
p978
(dp979
g8
(lp980
g42
ag208
ag40
ag231
ag39
ag89
ag58
ag393
ag391
ag389
ag390
ag392
ag65
asg18
g19
sg20
g21
sg22
g23
sg24
g237
sg26
(iread_data
Room
p981
(dp982
g18
g84
sg20
g85
sbsba(ischedule
Activity
p983
(dp984
g8
(lp985
g11
asg18
g602
sg20
g21
sg22
g179
sg24
g461
sg26
(iread_data
Room
p986
(dp987
g18
g182
sg20
g183
sbsba(ischedule
Activity
p988
(dp989
g8
(lp990
g196
ag214
ag54
ag795
aS'1075391'
p991
ag36
ag584
ag834
aS'13534377'
p992
ag147
asg18
g562
sg20
g563
sg22
g23
sg24
g461
sg26
(iread_data
Room
p993
(dp994
g18
g240
sg20
g241
sbsba(ischedule
Activity
p995
(dp996
g8
(lp997
g60
ag626
ag44
ag623
ag121
asg18
g507
sg20
g252
sg22
g179
sg24
g25
sg26
(iread_data
Room
p998
(dp999
g18
g29
sg20
g30
sbsbaa(lp1000
(ischedule
Activity
p1001
(dp1002
g8
(lp1003
g354
aS'16011419'
p1004
ag74
ag688
ag47
ag287
aS'79937969'
p1005
ag391
ag958
ag609
ag574
ag700
ag428
ag282
ag14
ag42
ag16
aS'90743504'
p1006
ag800
ag132
aS'96118484'
p1007
ag595
ag116
aS'54074680'
p1008
aS'21311067'
p1009
ag779
ag370
ag46
aS'26172512'
p1010
aS'80998260'
p1011
ag278
ag687
ag200
ag103
ag381
ag291
ag313
ag144
ag594
ag497
ag312
ag281
ag410
ag393
ag293
ag754
ag780
ag382
aS'34588570'
p1012
ag98
ag197
aS'32595335'
p1013
aS'66570705'
p1014
ag340
asg18
I1000
sg20
S'Lineaire Algebra'
p1015
sg22
g157
sg24
I0
sg26
(iread_data
Room
p1016
(dp1017
g18
g255
sg20
g256
sbsba(ischedule
Activity
p1018
(dp1019
g8
(lp1020
g96
ag128
ag150
ag102
ag94
ag136
ag116
ag65
ag124
ag153
ag115
ag95
ag97
ag58
ag145
ag146
ag139
ag143
ag107
ag108
ag117
ag134
ag109
ag151
ag110
ag114
ag111
ag130
ag101
ag105
ag123
ag113
ag126
ag98
ag100
ag138
ag135
ag149
ag131
ag129
ag148
ag89
ag92
ag154
ag106
ag133
ag152
ag125
ag90
ag142
ag93
ag99
ag121
ag112
ag155
ag122
ag91
ag132
asg18
g897
sg20
g156
sg22
g179
sg24
g25
sg26
(iread_data
Room
p1021
(dp1022
g18
g160
sg20
g161
sbsba(ischedule
Activity
p1023
(dp1024
g8
(lp1025
g348
ag314
aS'99975346'
p1026
ag399
ag120
ag559
ag535
ag790
ag515
ag195
ag924
aS'52304977'
p1027
ag582
ag173
ag288
aS'5739011'
p1028
aS'72652638'
p1029
asg18
S'20'
p1030
sg20
S'Heuristieken 2'
p1031
sg22
g23
sg24
g25
sg26
(iread_data
Room
p1032
(dp1033
g18
g29
sg20
g30
sbsba(ischedule
Activity
p1034
(dp1035
g8
(lp1036
g39
ag404
ag409
ag646
ag882
ag392
ag402
ag407
ag403
ag452
ag883
ag208
asg18
g719
sg20
g413
sg22
g179
sg24
g25
sg26
(iread_data
Room
p1037
(dp1038
g18
g240
sg20
g241
sbsba(ischedule
Activity
p1039
(dp1040
g8
(lp1041
g795
ag560
ag553
ag551
ag554
ag571
ag198
ag690
ag557
ag266
ag68
ag53
ag375
ag991
ag556
ag614
ag914
ag992
ag584
ag558
ag479
ag245
asg18
g757
sg20
g563
sg22
g179
sg24
g25
sg26
(iread_data
Room
p1042
(dp1043
g18
g221
sg20
g222
sbsbaa(lp1044
(ischedule
Activity
p1045
(dp1046
g8
(lp1047
g209
ag265
ag64
ag646
ag811
ag78
ag795
ag452
ag270
aS'64246605'
p1048
ag75
ag673
aS'5590289'
p1049
ag554
ag297
ag51
ag572
ag299
ag889
aS'59887191'
p1050
asg18
g747
sg20
g748
sg22
g179
sg24
g25
sg26
(iread_data
Room
p1051
(dp1052
g18
g221
sg20
g222
sbsba(ischedule
Activity
p1053
(dp1054
g8
(lp1055
g208
aS'82390428'
p1056
ag443
ag203
ag264
ag694
ag213
ag663
ag1026
ag283
ag482
ag400
aS'27370083'
p1057
ag197
aS'68286356'
p1058
asg18
g728
sg20
g729
sg22
g23
sg24
g461
sg26
(iread_data
Room
p1059
(dp1060
g18
g255
sg20
g256
sbsba(ischedule
Activity
p1061
(dp1062
g8
(lp1063
g138
ag112
ag132
ag153
ag145
ag95
ag149
ag113
ag142
ag104
ag90
ag89
ag155
ag118
ag139
ag128
ag140
ag117
ag119
ag129
ag110
ag103
ag105
ag101
ag130
ag124
ag137
ag107
ag136
ag148
ag97
ag150
ag147
ag134
ag109
ag92
ag127
ag141
ag133
ag114
ag131
ag99
ag151
ag108
ag116
ag152
ag125
ag120
ag91
ag111
ag143
ag122
ag65
ag123
ag93
ag58
ag102
ag96
ag100
asg18
S'40'
p1064
sg20
g156
sg22
g23
sg24
g237
sg26
(iread_data
Room
p1065
(dp1066
g18
g29
sg20
g30
sbsba(ischedule
Activity
p1067
(dp1068
g8
(lp1069
g154
ag106
ag144
ag135
ag146
ag98
ag121
ag126
ag94
ag115
asg18
g1064
sg20
g156
sg22
g23
sg24
g25
sg26
(iread_data
Room
p1070
(dp1071
g18
g160
sg20
g161
sbsba(ischedule
Activity
p1072
(dp1073
g8
(lp1074
g41
ag402
ag456
aS'88263855'
p1075
aS'39905995'
p1076
ag279
ag783
ag469
ag765
aS'90296821'
p1077
ag686
ag38
ag59
ag373
ag441
asg18
g536
sg20
g537
sg22
g179
sg24
g461
sg26
(iread_data
Room
p1078
(dp1079
g18
g240
sg20
g241
sbsba(ischedule
Activity
p1080
(dp1081
g8
(lp1082
g77
ag172
ag199
ag246
ag226
ag625
ag551
ag210
ag301
ag627
ag68
ag198
ag334
ag67
ag42
ag624
ag49
ag476
ag324
asg18
g507
sg20
g252
sg22
g179
sg24
g237
sg26
(iread_data
Room
p1083
(dp1084
g18
g182
sg20
g183
sbsba(ischedule
Activity
p1085
(dp1086
g8
(lp1087
g311
aS'12170832'
p1088
aS'53267490'
p1089
ag271
ag371
ag693
ag170
ag423
ag408
ag54
ag332
asg18
g747
sg20
g748
sg22
g179
sg24
g461
sg26
(iread_data
Room
p1090
(dp1091
g18
g84
sg20
g85
sbsbaa(lp1092
(ischedule
Activity
p1093
(dp1094
g8
(lp1095
g544
ag503
ag332
ag505
ag434
ag694
ag62
ag400
ag264
ag213
ag120
ag625
ag594
ag825
ag443
ag13
ag727
ag826
ag663
ag533
ag228
ag165
ag208
ag726
ag306
ag49
ag423
ag1056
ag1058
ag96
ag458
ag441
ag371
ag203
ag53
ag234
ag404
ag1057
ag457
ag283
ag824
ag725
ag348
ag150
ag1026
ag197
ag827
ag369
ag276
ag585
ag482
asg18
I1000
sg20
g729
sg22
g157
sg24
I0
sg26
(iread_data
Room
p1096
(dp1097
g18
g29
sg20
g30
sbsba(ischedule
Activity
p1098
(dp1099
g8
(lp1100
g755
ag560
ag614
ag53
ag42
ag553
ag571
ag35
ag358
ag556
ag914
ag781
ag266
ag551
ag214
ag68
ag375
ag198
ag783
ag196
ag690
ag756
ag552
ag46
ag409
ag991
ag215
ag754
ag356
ag782
ag116
ag558
ag780
ag779
ag584
ag347
ag262
ag469
ag54
ag834
ag49
ag795
ag113
ag555
ag559
ag132
ag402
ag554
ag36
ag106
ag784
ag557
ag561
ag245
ag479
ag64
ag124
ag698
ag149
ag147
ag992
asg18
I1000
sg20
g563
sg22
g157
sg24
I0
sg26
g703
sba(ischedule
Activity
p1101
(dp1102
g8
(lp1103
g953
ag368
ag77
ag38
ag293
ag613
ag10
ag660
ag627
ag146
ag956
ag954
ag689
ag288
ag962
ag278
ag677
ag951
ag136
ag965
ag883
ag367
ag117
ag924
ag960
ag138
ag428
ag90
ag959
ag285
ag297
ag263
ag233
ag61
ag961
ag435
ag676
asg18
g855
sg20
g856
sg22
g23
sg24
g237
sg26
(iread_data
Room
p1104
(dp1105
g18
g255
sg20
g256
sbsba(ischedule
Activity
p1106
(dp1107
g8
(lp1108
g401
ag211
ag44
asg18
S'15'
p1109
sg20
g664
sg22
g23
sg24
g237
sg26
(iread_data
Room
p1110
(dp1111
g18
g240
sg20
g241
sbsba(ischedule
Activity
p1112
(dp1113
g8
(lp1114
g226
ag475
ag811
asg18
g576
sg20
g236
sg22
g23
sg24
g237
sg26
(iread_data
Room
p1115
(dp1116
g18
g182
sg20
g183
sbsba(ischedule
Activity
p1117
(dp1118
g8
(lp1119
g133
ag352
ag346
ag131
ag343
ag351
ag341
ag335
ag342
ag289
ag37
ag336
ag315
ag360
ag355
ag45
ag354
ag349
asg18
S'20'
p1120
sg20
g361
sg22
g179
sg24
g237
sg26
(iread_data
Room
p1121
(dp1122
g18
g221
sg20
g222
sbsba(ischedule
Activity
p1123
(dp1124
g8
(lp1125
g209
asg18
g19
sg20
g21
sg22
g23
sg24
g461
sg26
(iread_data
Room
p1126
(dp1127
g18
g84
sg20
g85
sbsbaa(lp1128
(ischedule
Activity
p1129
(dp1130
g8
g1003
sg18
I1000
sg20
g1015
sg22
g157
sg24
I0
sg26
(iread_data
Room
p1131
(dp1132
g18
g255
sg20
g256
sbsba(ischedule
Activity
p1133
(dp1134
g8
g657
sg18
I1000
sg20
g664
sg22
g157
sg24
I0
sg26
(iread_data
Room
p1135
(dp1136
g18
g240
sg20
g241
sbsba(ischedule
Activity
p1137
(dp1138
g8
(lp1139
g106
ag431
ag851
aS'19058315'
p1140
ag174
ag556
ag575
ag589
ag791
ag505
ag849
aS'123355'
p1141
ag118
ag70
ag76
asg18
g747
sg20
g748
sg22
g179
sg24
g650
sg26
(iread_data
Room
p1142
(dp1143
g18
g84
sg20
g85
sbsba(ischedule
Activity
p1144
(dp1145
g8
(lp1146
g173
ag452
ag582
ag514
ag348
ag535
aS'35315956'
p1147
ag52
ag797
ag288
ag399
ag246
ag1028
ag613
ag790
ag14
ag420
ag1026
ag120
ag39
aS'82968410'
p1148
ag515
ag1029
ag347
ag370
ag1027
ag314
ag835
ag195
ag924
ag375
ag559
asg18
I1000
sg20
g1031
sg22
g157
sg24
I0
sg26
(iread_data
Room
p1149
(dp1150
g18
g221
sg20
g222
sbsba(ischedule
Activity
p1151
(dp1152
g8
(lp1153
g64
ag690
ag233
ag229
ag698
ag561
ag113
ag514
ag246
ag128
ag558
ag13
ag352
ag553
ag569
ag624
ag573
ag269
ag232
ag592
ag231
ag40
ag409
ag695
ag529
ag310
ag111
ag389
ag701
ag699
ag296
ag691
ag467
ag596
ag677
ag693
ag442
ag89
ag206
ag696
ag286
ag96
ag265
ag610
ag294
ag697
ag646
ag686
ag108
ag153
ag692
asg18
S'40'
p1154
sg20
g702
sg22
g23
sg24
g237
sg26
(iread_data
Room
p1155
(dp1156
g18
g29
sg20
g30
sbsba(ischedule
Activity
p1157
(dp1158
g8
(lp1159
g341
ag358
ag131
ag336
ag333
ag35
ag334
ag350
ag342
ag339
ag357
ag349
ag37
ag335
ag338
ag351
ag359
ag343
ag337
ag356
ag315
ag332
ag353
ag345
ag191
ag346
asg18
g933
sg20
g361
sg22
g23
sg24
g237
sg26
(iread_data
Room
p1160
(dp1161
g18
g160
sg20
g161
sbsbaaa(lp1162
(lp1163
(ischedule
Activity
p1164
(dp1165
g8
(lp1166
g38
ag585
ag234
ag367
ag199
ag293
ag227
ag402
ag228
ag812
ag392
ag310
ag231
ag168
ag171
ag378
asg18
g576
sg20
g236
sg22
g23
sg24
g25
sg26
(iread_data
Room
p1167
(dp1168
g18
g182
sg20
g183
sbsba(ischedule
Activity
p1169
(dp1170
g8
g88
sg18
I1000
sg20
g156
sg22
g157
sg24
I0
sg26
g703
sba(ischedule
Activity
p1171
(dp1172
g8
(lp1173
g756
ag215
ag571
ag783
ag356
ag755
ag614
asg18
g562
sg20
g563
sg22
g23
sg24
g237
sg26
(iread_data
Room
p1174
(dp1175
g18
g255
sg20
g256
sbsba(ischedule
Activity
p1176
(dp1177
g8
(lp1178
g399
ag410
ag312
ag794
ag206
ag401
ag405
ag411
ag406
asg18
g719
sg20
g413
sg22
g179
sg24
g461
sg26
(iread_data
Room
p1179
(dp1180
g18
g240
sg20
g241
sbsba(ischedule
Activity
p1181
(dp1182
g8
(lp1183
g165
ag409
ag482
ag39
ag475
ag472
ag514
ag467
ag479
ag515
ag10
ag476
ag75
ag470
ag469
ag300
ag372
ag517
ag73
ag483
ag54
ag513
ag473
ag468
ag481
ag480
ag516
ag477
ag269
ag311
ag279
ag471
asg18
S'25'
p1184
sg20
g485
sg22
g179
sg24
g25
sg26
(iread_data
Room
p1185
(dp1186
g18
g84
sg20
g85
sbsba(ischedule
Activity
p1187
(dp1188
g8
(lp1189
g42
ag198
ag49
ag497
ag498
ag502
ag60
ag493
ag505
ag68
ag625
ag627
ag203
ag506
ag226
ag624
ag324
ag623
ag500
ag334
ag495
ag499
ag67
ag494
ag501
ag496
ag34
ag44
ag301
ag551
asg18
g251
sg20
g252
sg22
g23
sg24
g461
sg26
(iread_data
Room
p1190
(dp1191
g18
g221
sg20
g222
sbsba(ischedule
Activity
p1192
(dp1193
g8
(lp1194
g196
ag545
ag145
ag371
ag353
ag544
ag355
ag358
asg18
g177
sg20
g178
sg22
g179
sg24
g237
sg26
(iread_data
Room
p1195
(dp1196
g18
g29
sg20
g30
sbsbaa(lp1197
(ischedule
Activity
p1198
(dp1199
g8
g810
sg18
I1000
sg20
g236
sg22
g157
sg24
I0
sg26
(iread_data
Room
p1200
(dp1201
g18
g84
sg20
g85
sbsba(ischedule
Activity
p1202
(dp1203
g8
g1095
sg18
I1000
sg20
g729
sg22
g157
sg24
I0
sg26
g703
sba(ischedule
Activity
p1204
(dp1205
g8
(lp1206
g39
ag14
ag370
ag375
ag452
ag835
ag347
ag52
ag420
ag797
ag514
ag1148
ag246
ag1147
ag613
asg18
g1030
sg20
g1031
sg22
g23
sg24
g237
sg26
(iread_data
Room
p1207
(dp1208
g18
g255
sg20
g256
sbsba(ischedule
Activity
p1209
(dp1210
g8
(lp1211
g555
ag198
ag660
ag126
ag193
ag663
ag209
ag403
ag472
ag271
ag662
ag658
ag608
ag661
ag534
ag659
ag492
ag59
asg18
g1109
sg20
g664
sg22
g23
sg24
g25
sg26
(iread_data
Room
p1212
(dp1213
g18
g240
sg20
g241
sbsba(ischedule
Activity
p1214
(dp1215
g8
(lp1216
g559
ag552
ag561
ag834
ag132
ag196
asg18
g757
sg20
g563
sg22
g179
sg24
g237
sg26
(iread_data
Room
p1217
(dp1218
g18
g182
sg20
g183
sbsba(ischedule
Activity
p1219
(dp1220
g8
(lp1221
g292
ag646
ag794
ag312
ag883
ag882
ag718
ag717
ag456
asg18
g412
sg20
g413
sg22
g23
sg24
g461
sg26
(iread_data
Room
p1222
(dp1223
g18
g221
sg20
g222
sbsba(ischedule
Activity
p1224
(dp1225
g8
(lp1226
g98
ag142
ag131
ag299
ag478
ag402
ag150
ag340
ag474
ag45
ag77
asg18
g1184
sg20
g485
sg22
g179
sg24
g237
sg26
(iread_data
Room
p1227
(dp1228
g18
g29
sg20
g30
sbsbaa(lp1229
(ischedule
Activity
p1230
(dp1231
g8
g1100
sg18
I1000
sg20
g563
sg22
g157
sg24
I0
sg26
(iread_data
Room
p1232
(dp1233
g18
g160
sg20
g161
sbsba(ischedule
Activity
p1234
(dp1235
g8
(lp1236
g232
ag96
ag206
ag229
ag128
ag352
ag569
ag573
ag187
ag310
ag40
ag204
ag233
ag482
ag111
ag13
ag410
ag231
ag153
ag677
ag334
ag467
ag610
ag528
ag89
ag694
ag689
ag596
ag701
ag424
ag696
ag442
ag686
ag282
ag294
ag691
ag514
ag108
ag693
ag337
ag688
ag646
ag389
ag697
asg18
g818
sg20
g702
sg22
g179
sg24
g237
sg26
(iread_data
Room
p1237
(dp1238
g18
g255
sg20
g256
sbsba(ischedule
Activity
p1239
(dp1240
g8
(lp1241
g121
ag126
ag119
ag90
ag109
ag199
ag135
ag108
ag210
ag476
ag77
ag503
ag172
ag492
ag504
ag626
ag491
ag79
asg18
g251
sg20
g252
sg22
g23
sg24
g25
sg26
(iread_data
Room
p1242
(dp1243
g18
g84
sg20
g85
sbsba(ischedule
Activity
p1244
(dp1245
g8
(lp1246
g922
asg18
g875
sg20
g876
sg22
g179
sg24
g25
sg26
(iread_data
Room
p1247
(dp1248
g18
g182
sg20
g183
sbsba(ischedule
Activity
p1249
(dp1250
g8
(lp1251
g333
ag613
aS'82066165'
p1252
ag433
ag383
ag393
ag866
aS'75680261'
p1253
asg18
g926
sg20
g927
sg22
g179
sg24
g25
sg26
(iread_data
Room
p1254
(dp1255
g18
g240
sg20
g241
sbsba(ischedule
Activity
p1256
(dp1257
g8
(lp1258
g516
ag296
asg18
g926
sg20
g927
sg22
g179
sg24
g461
sg26
(iread_data
Room
p1259
(dp1260
g18
g221
sg20
g222
sbsbaa(lp1261
(ischedule
Activity
p1262
(dp1263
g8
(lp1264
g42
ag393
ag39
ag390
ag65
ag10
asg18
g602
sg20
g21
sg22
g179
sg24
g25
sg26
(iread_data
Room
p1265
(dp1266
g18
g29
sg20
g30
sbsba(ischedule
Activity
p1267
(dp1268
g8
(lp1269
g138
ag199
ag38
ag133
ag392
ag46
ag432
ag571
ag572
ag573
ag498
ag314
ag399
ag367
ag168
ag171
ag402
ag310
ag378
ag585
ag475
ag149
ag352
ag570
ag569
ag574
ag575
ag148
ag293
asg18
g235
sg20
g236
sg22
g179
sg24
g25
sg26
(iread_data
Room
p1270
(dp1271
g18
g255
sg20
g256
sbsba(ischedule
Activity
p1272
(dp1273
g8
(lp1274
g356
ag35
ag332
ag358
ag348
ag347
ag333
ag338
ag334
ag191
ag357
ag345
ag350
ag340
ag353
ag337
ag359
ag246
ag56
ag339
ag344
asg18
g1120
sg20
g361
sg22
g179
sg24
g25
sg26
(iread_data
Room
p1275
(dp1276
g18
g221
sg20
g222
sbsba(ischedule
Activity
p1277
(dp1278
g8
(lp1279
g346
ag63
ag783
ag14
ag952
ag166
ag382
ag958
ag317
ag174
ag383
ag925
ag556
ag670
ag280
ag228
ag373
ag74
ag227
ag955
ag200
ag226
ag559
ag528
ag130
ag963
ag554
ag499
ag175
ag48
ag155
ag950
ag453
ag966
ag513
ag727
ag172
ag957
ag920
ag143
ag474
ag964
ag526
asg18
g855
sg20
g856
sg22
g23
sg24
g461
sg26
(iread_data
Room
p1280
(dp1281
g18
g84
sg20
g85
sbsba(ischedule
Activity
p1282
(dp1283
g8
(lp1284
g278
ag672
ag131
ag53
ag103
ag389
aS'32183908'
p1285
ag106
aS'19662602'
p1286
aS'40911986'
p1287
ag121
ag113
ag187
ag793
ag114
aS'34691309'
p1288
asg18
g459
sg20
g460
sg22
g179
sg24
g25
sg26
(iread_data
Room
p1289
(dp1290
g18
g240
sg20
g241
sbsba(ischedule
Activity
p1291
(dp1292
g8
(lp1293
g198
ag534
ag663
ag209
ag661
ag660
ag472
ag403
ag555
ag608
ag126
ag44
ag662
ag211
ag401
ag59
ag659
ag193
asg18
g773
sg20
g664
sg22
g179
sg24
g25
sg26
(iread_data
Room
p1294
(dp1295
g18
g160
sg20
g161
sbsba(ischedule
Activity
p1296
(dp1297
g8
(lp1298
g409
ag214
ag923
ag229
ag1252
ag755
ag611
ag192
ag678
ag482
ag69
aS'91250534'
p1299
aS'5892092'
p1300
ag833
ag800
ag109
asg18
g875
sg20
g876
sg22
g179
sg24
g461
sg26
(iread_data
Room
p1301
(dp1302
g18
g182
sg20
g183
sbsbaa(lp1303
(ischedule
Activity
p1304
(dp1305
g8
g1100
sg18
I1000
sg20
g563
sg22
g157
sg24
I0
sg26
g703
sba(ischedule
Activity
p1306
(dp1307
g8
g810
sg18
I1000
sg20
g236
sg22
g157
sg24
I0
sg26
(iread_data
Room
p1308
(dp1309
g18
g29
sg20
g30
sbsba(ischedule
Activity
p1310
(dp1311
g8
(lp1312
g393
ag287
ag687
ag688
ag282
ag410
ag700
ag334
ag204
ag250
ag590
ag187
ag482
ag337
ag443
ag476
ag528
ag517
ag694
ag513
ag689
ag300
ag440
ag424
asg18
g1154
sg20
g702
sg22
g23
sg24
g25
sg26
(iread_data
Room
p1313
(dp1314
g18
g84
sg20
g85
sbsba(ischedule
Activity
p1315
(dp1316
g8
(lp1317
g280
ag422
ag451
ag325
asg18
g536
sg20
g537
sg22
g179
sg24
g237
sg26
(iread_data
Room
p1318
(dp1319
g18
g240
sg20
g241
sbsba(ischedule
Activity
p1320
(dp1321
g8
(lp1322
g210
ag209
ag208
ag56
ag207
ag188
ag197
ag213
ag206
ag190
ag118
ag212
ag211
ag217
ag191
ag194
ag201
ag202
ag198
ag189
ag152
asg18
g908
sg20
g218
sg22
g23
sg24
g25
sg26
(iread_data
Room
p1323
(dp1324
g18
g255
sg20
g256
sbsbaaa(lp1325
(lp1326
a(lp1327
a(lp1328
a(lp1329
a(lp1330
aasS'timeslot_dict'
p1331
(dp1332
I0
S'9:00-11:00'
p1333
sI1
S'11:00-13:00'
p1334
sI2
S'13:00-15:00'
p1335
sI3
S'15:00-17:00'
p1336
sI4
S'17:00-19:00'
p1337
ssS'day_dict'
p1338
(dp1339
I0
S'Monday'
p1340
sI1
S'Tuesday'
p1341
sI2
S'Wednesday'
p1342
sI3
S'Thursday'
p1343
sI4
S'Friday'
p1344
ssb.