(ischedule
Schedule
p0
(dp1
S'timetable'
p2
(lp3
(lp4
(lp5
(ischedule
Activity
p6
(dp7
S'participants'
p8
(lp9
S'16912993'
p10
aS'86291592'
p11
aS'36903574'
p12
aS'97135019'
p13
aS'25557516'
p14
aS'70939718'
p15
aS'53267490'
p16
aS'19058315'
p17
aS'72586808'
p18
aS'7957843'
p19
aS'82689818'
p20
aS'48678993'
p21
aS'81022997'
p22
aS'81385263'
p23
aS'4353500'
p24
aS'25330192'
p25
asS'capacity'
p26
S'20'
p27
sS'group'
p28
(ischedule
Group
p29
(dp30
g8
g9
sS'name'
p31
S'Netwerken en systeembeveiliging3'
p32
sbsS'room'
p33
(iread_data
Room
p34
(dp35
g26
S'41'
p36
sg31
S'A1.04'
p37
sbsS'ttype'
p38
S'labs'
p39
sS'group_id'
p40
S'3'
p41
sg31
S'Netwerken en systeembeveiliging'
p42
sba(ischedule
Activity
p43
(dp44
g8
(lp45
S'94955328'
p46
aS'22731474'
p47
aS'56988998'
p48
aS'18266644'
p49
aS'91139627'
p50
aS'49631542'
p51
aS'38329455'
p52
aS'47605891'
p53
aS'84110134'
p54
aS'41585485'
p55
aS'38499176'
p56
aS'14671406'
p57
aS'89338938'
p58
aS'77240949'
p59
aS'10872825'
p60
aS'37498675'
p61
aS'59544049'
p62
aS'76924297'
p63
aS'34243356'
p64
aS'32705005'
p65
aS'39230359'
p66
aS'5368702'
p67
aS'64296965'
p68
aS'47462856'
p69
aS'99272880'
p70
aS'65003379'
p71
aS'14398123'
p72
aS'97019450'
p73
ag12
aS'39659121'
p74
aS'39919665'
p75
aS'28957789'
p76
aS'82688900'
p77
aS'58332004'
p78
aS'58522654'
p79
aS'17823206'
p80
aS'78136904'
p81
aS'34262212'
p82
aS'23391676'
p83
aS'46570285'
p84
aS'79858178'
p85
aS'54569540'
p86
aS'20239127'
p87
aS'42115591'
p88
aS'10792879'
p89
aS'23798155'
p90
aS'63634350'
p91
aS'94467156'
p92
aS'78735049'
p93
aS'55474917'
p94
aS'31247305'
p95
aS'97371272'
p96
aS'8522855'
p97
aS'11915563'
p98
aS'72547110'
p99
aS'74182182'
p100
aS'63955238'
p101
aS'9731271'
p102
aS'96054456'
p103
aS'20331158'
p104
aS'41527759'
p105
aS'81218347'
p106
aS'14591033'
p107
aS'61518436'
p108
aS'77636749'
p109
aS'3685034'
p110
aS'31633723'
p111
aS'5615125'
p112
aS'51186803'
p113
aS'54310617'
p114
aS'69086548'
p115
aS'24875739'
p116
aS'27187154'
p117
aS'91196968'
p118
aS'58469172'
p119
aS'7492204'
p120
aS'56749879'
p121
aS'51542218'
p122
aS'63408522'
p123
aS'59075181'
p124
aS'84524083'
p125
aS'44940353'
p126
aS'79366078'
p127
aS'20883994'
p128
asg26
I1000
sg28
Nsg33
(iread_data
Room
p129
(dp130
g26
S'22'
p131
sg31
S'A1.06'
p132
sbsg38
S'lectures'
p133
sg40
S'2'
p134
sg31
S'Kansrekenen 2'
p135
sba(ischedule
Activity
p136
(dp137
g8
(lp138
S'89180944'
p139
aS'27064249'
p140
aS'76648468'
p141
aS'72895450'
p142
aS'61443567'
p143
aS'76123484'
p144
aS'14303208'
p145
aS'77392404'
p146
aS'41790793'
p147
aS'1137946'
p148
aS'53512831'
p149
ag66
aS'40434933'
p150
aS'24891081'
p151
aS'6249823'
p152
aS'20618153'
p153
aS'78243495'
p154
ag112
aS'2416751'
p155
aS'76903244'
p156
asg26
S'20'
p157
sg28
(ischedule
Group
p158
(dp159
g8
g138
sg31
S'Webprogrammeren en databases1'
p160
sbsg33
(iread_data
Room
p161
(dp162
g26
S'117'
p163
sg31
S'C0.110'
p164
sbsg38
S'tutorials'
p165
sg40
S'1'
p166
sg31
S'Webprogrammeren en databases'
p167
sba(ischedule
Activity
p168
(dp169
g8
(lp170
S'22288615'
p171
aS'43460038'
p172
aS'14847953'
p173
aS'17092717'
p174
aS'10698627'
p175
aS'28358060'
p176
aS'69459473'
p177
aS'72577292'
p178
aS'43902015'
p179
aS'66034145'
p180
aS'33877725'
p181
aS'57086672'
p182
aS'3474870'
p183
aS'64228258'
p184
aS'53202517'
p185
aS'67073567'
p186
aS'94930277'
p187
aS'49908313'
p188
aS'16333449'
p189
asg26
g157
sg28
(ischedule
Group
p190
(dp191
g8
g170
sg31
S'Webprogrammeren en databases2'
p192
sbsg33
(iread_data
Room
p193
(dp194
g26
S'48'
p195
sg31
S'B0.201'
p196
sbsg38
g165
sg40
g134
sg31
g167
sba(ischedule
Activity
p197
(dp198
g8
(lp199
S'89985072'
p200
ag57
aS'4568018'
p201
aS'62105897'
p202
aS'28357474'
p203
aS'40343779'
p204
aS'82872148'
p205
ag54
aS'25106480'
p206
aS'27950803'
p207
ag111
aS'83210352'
p208
aS'88176729'
p209
aS'9287708'
p210
ag139
ag154
aS'77376714'
p211
aS'44868097'
p212
aS'45915482'
p213
aS'22323043'
p214
aS'48357272'
p215
aS'29640619'
p216
aS'37830626'
p217
ag94
ag58
aS'52552718'
p218
aS'31103066'
p219
aS'62356458'
p220
aS'58074656'
p221
aS'70015932'
p222
aS'3233378'
p223
aS'3727435'
p224
aS'13718298'
p225
aS'4783858'
p226
aS'14072826'
p227
aS'21095566'
p228
aS'95631564'
p229
aS'22871048'
p230
ag92
ag95
aS'48601268'
p231
ag88
aS'65408517'
p232
ag172
aS'73236988'
p233
aS'11068043'
p234
aS'96554914'
p235
aS'14309255'
p236
aS'65318664'
p237
aS'27582862'
p238
ag62
aS'1048485'
p239
aS'75599734'
p240
aS'4546613'
p241
aS'51593625'
p242
aS'61060652'
p243
aS'60312776'
p244
aS'73302736'
p245
aS'5976174'
p246
aS'80709893'
p247
ag181
aS'78443067'
p248
aS'44671041'
p249
aS'26260141'
p250
aS'37744525'
p251
ag98
aS'52311353'
p252
aS'99283252'
p253
aS'50143947'
p254
aS'58565406'
p255
aS'54026378'
p256
ag105
aS'68409833'
p257
aS'52715680'
p258
aS'41153310'
p259
asg26
I1000
sg28
Nsg33
(iread_data3
Room
p260
(dp261
g26
S'56'
p262
sg31
S'A1.10'
p263
sbsg38
g133
sg40
g166
sg31
S'Software engineering'
p264
sba(ischedule
Activity
p265
(dp266
g8
(lp267
g78
aS'64600457'
p268
aS'27916487'
p269
aS'41489515'
p270
aS'83266686'
p271
aS'48198668'
p272
aS'5517869'
p273
aS'51650744'
p274
aS'11741347'
p275
aS'24277163'
p276
aS'13218321'
p277
aS'59111489'
p278
aS'68315599'
p279
aS'85335143'
p280
aS'58699305'
p281
aS'84449005'
p282
ag69
aS'36527838'
p283
asg26
S'20'
p284
sg28
(ischedule
Group
p285
(dp286
g8
g267
sg31
S'Moderne Databases1'
p287
sbsg33
(iread_data3
Room
p288
(dp289
g26
S'20'
p290
sg31
S'A1.08'
p291
sbsg38
g165
sg40
g166
sg31
S'Moderne Databases'
p292
sbaa(lp293
(ischedule
Activity
p294
(dp295
g8
(lp296
S'3168419'
p297
aS'43027916'
p298
aS'5526560'
p299
aS'26207525'
p300
aS'34872117'
p301
aS'56872729'
p302
ag179
aS'11996292'
p303
ag122
aS'39459642'
p304
ag78
aS'64947290'
p305
ag273
aS'46989508'
p306
aS'26406342'
p307
ag276
aS'88752563'
p308
aS'4921119'
p309
aS'58592894'
p310
aS'62736669'
p311
aS'90474003'
p312
aS'59397895'
p313
ag121
aS'47932106'
p314
aS'72796858'
p315
aS'91527663'
p316
aS'42196732'
p317
aS'25077484'
p318
aS'70072978'
p319
aS'23257088'
p320
aS'73823548'
p321
aS'13092455'
p322
aS'47477884'
p323
aS'40141996'
p324
aS'56191333'
p325
aS'75005528'
p326
aS'14816774'
p327
aS'4529208'
p328
ag20
aS'29526540'
p329
aS'27123462'
p330
aS'94686490'
p331
aS'12091019'
p332
ag216
aS'86988337'
p333
aS'17222374'
p334
aS'23658570'
p335
aS'77960666'
p336
ag218
ag103
aS'56121590'
p337
aS'37701751'
p338
ag51
aS'86180471'
p339
aS'51566595'
p340
aS'72456780'
p341
ag150
aS'57467488'
p342
aS'58083680'
p343
aS'5085194'
p344
ag144
aS'77896638'
p345
ag68
aS'83869542'
p346
aS'78821918'
p347
aS'670011'
p348
aS'247918'
p349
aS'60352393'
p350
aS'13132925'
p351
ag174
aS'15187217'
p352
aS'54540997'
p353
asg26
I1000
sg28
Nsg33
(iread_data
Room
p354
(dp355
g26
S'56'
p356
sg31
S'A1.10'
p357
sbsg38
g133
sg40
g166
sg31
S'Databases 2'
p358
sba(ischedule
Activity
p359
(dp360
g8
(lp361
g255
aS'37110913'
p362
aS'92496780'
p363
aS'31194811'
p364
ag109
aS'21192048'
p365
aS'47982619'
p366
aS'12430748'
p367
ag214
aS'7106649'
p368
aS'77264363'
p369
aS'32204977'
p370
ag152
aS'9332762'
p371
aS'23547619'
p372
aS'48308205'
p373
ag236
aS'12077419'
p374
aS'44901052'
p375
ag58
aS'41578612'
p376
aS'10149535'
p377
aS'70336464'
p378
aS'75664412'
p379
ag150
aS'75521763'
p380
ag303
aS'36785409'
p381
ag115
ag280
aS'4697362'
p382
aS'43680781'
p383
ag307
ag279
aS'76487754'
p384
aS'14383795'
p385
aS'93041523'
p386
ag96
asg26
I1000
sg28
Nsg33
g34
sg38
g133
sg40
g134
sg31
S'Technology for games'
p387
sba(ischedule
Activity
p388
(dp389
g8
(lp390
g143
aS'58040377'
p391
ag348
aS'27925117'
p392
aS'58736785'
p393
aS'16097870'
p394
aS'31897288'
p395
ag47
ag91
ag22
aS'81200278'
p396
aS'34765676'
p397
aS'33760909'
p398
aS'72652638'
p399
ag368
ag125
asg26
S'20'
p400
sg28
(ischedule
Group
p401
(dp402
g8
g390
sg31
S'Heuristieken 21'
p403
sbsg33
g161
sg38
g165
sg40
g166
sg31
S'Heuristieken 2'
p404
sba(ischedule
Activity
p405
(dp406
g8
(lp407
g254
ag251
ag25
aS'74131924'
p408
aS'45414528'
p409
aS'93023961'
p410
aS'59753700'
p411
aS'98780382'
p412
aS'66122625'
p413
asg26
S'10'
p414
sg28
(ischedule
Group
p415
(dp416
g8
g407
sg31
S'Data Mining2'
p417
sbsg33
(iread_data3
Room
p418
(dp419
g26
S'48'
p420
sg31
S'B0.201'
p421
sbsg38
g165
sg40
g134
sg31
S'Data Mining'
p422
sba(ischedule
Activity
p423
(dp424
g8
(lp425
g391
aS'28943658'
p426
aS'70113753'
p427
ag92
aS'54772132'
p428
ag73
ag242
ag83
ag305
aS'85236626'
p429
aS'79879876'
p430
aS'60661905'
p431
ag102
aS'2550487'
p432
aS'68601184'
p433
ag320
aS'73893840'
p434
ag56
ag117
asg26
S'20'
p435
sg28
(ischedule
Group
p436
(dp437
g8
g425
sg31
S'Programmeren in Java 21'
p438
sbsg33
(iread_data3
Room
p439
(dp440
g26
g290
sg31
g291
sbsg38
g39
sg40
g166
sg31
S'Programmeren in Java 2'
p441
sbaa(lp442
(ischedule
Activity
p443
(dp444
g8
(lp445
S'34806836'
p446
aS'27298319'
p447
aS'62872965'
p448
ag257
ag98
ag273
ag340
asg26
S'10'
p449
sg28
(ischedule
Group
p450
(dp451
g8
g445
sg31
S'Autonomous Agents 23'
p452
sbsg33
g193
sg38
g39
sg40
g41
sg31
S'Autonomous Agents 2'
p453
sba(ischedule
Activity
p454
(dp455
g8
(lp456
g315
aS'6723948'
p457
aS'2079771'
p458
ag373
ag67
ag374
ag125
ag207
aS'13284244'
p459
aS'15911353'
p460
aS'48503689'
p461
ag142
ag306
ag89
aS'8464817'
p462
ag379
ag428
aS'65852230'
p463
aS'98105190'
p464
aS'44391517'
p465
ag233
aS'79167252'
p466
aS'49683101'
p467
aS'80135353'
p468
ag185
aS'30658799'
p469
aS'76661016'
p470
aS'94687383'
p471
ag64
aS'95007221'
p472
ag301
ag364
aS'37770881'
p473
aS'66701209'
p474
ag333
asg26
S'40'
p475
sg28
(ischedule
Group
p476
(dp477
g8
g456
sg31
S'Compilerbouw1'
p478
sbsg33
(iread_data
Room
p479
(dp480
g26
S'20'
p481
sg31
S'A1.08'
p482
sbsg38
g165
sg40
g166
sg31
S'Compilerbouw'
p483
sba(ischedule
Activity
p484
(dp485
g8
(lp486
S'13658563'
p487
ag376
ag312
aS'33776961'
p488
ag81
ag322
aS'4709948'
p489
ag110
aS'37399898'
p490
ag235
ag381
aS'42406214'
p491
aS'87830198'
p492
ag182
ag87
ag362
ag431
asg26
S'20'
p493
sg28
(ischedule
Group
p494
(dp495
g8
g486
sg31
S'Reflectie op de digitale cultuur3'
p496
sbsg33
g161
sg38
g165
sg40
g41
sg31
S'Reflectie op de digitale cultuur'
p497
sba(ischedule
Activity
p498
(dp499
g8
(lp500
S'96082155'
p501
aS'36748818'
p502
ag319
ag51
ag329
aS'49219163'
p503
aS'63111000'
p504
aS'50184318'
p505
ag310
ag380
ag211
aS'83415514'
p506
ag139
ag253
aS'42171678'
p507
aS'27241113'
p508
ag334
ag303
asg26
S'20'
p509
sg28
(ischedule
Group
p510
(dp511
g8
g500
sg31
S'Moderne Databases3'
p512
sbsg33
g34
sg38
g39
sg40
g41
sg31
g292
sba(ischedule
Activity
p513
(dp514
g8
(lp515
S'15902055'
p516
ag12
ag55
ag246
aS'44828429'
p517
ag179
aS'88596522'
p518
ag20
ag105
ag142
ag254
ag211
ag342
aS'23983476'
p519
aS'67817269'
p520
aS'46701583'
p521
ag340
ag447
aS'53585410'
p522
ag374
aS'51509565'
p523
asg26
S'25'
p524
sg28
(ischedule
Group
p525
(dp526
g8
g515
sg31
S'Algoritmen en complexiteit2'
p527
sbsg33
(iread_data
Room
p528
(dp529
g26
S'60'
p530
sg31
S'C1.112'
p531
sbsg38
g39
sg40
g134
sg31
S'Algoritmen en complexiteit'
p532
sba(ischedule
Activity
p533
(dp534
g8
(lp535
S'75680261'
p536
aS'14179347'
p537
ag470
ag92
aS'34773179'
p538
aS'82066165'
p539
ag97
aS'58253841'
p540
ag257
ag207
ag339
ag299
asg26
S'15'
p541
sg28
(ischedule
Group
p542
(dp543
g8
g535
sg31
S'Project Genetic Algorithms2'
p544
sbsg33
g129
sg38
g39
sg40
g134
sg31
S'Project Genetic Algorithms'
p545
sba(ischedule
Activity
p546
(dp547
g8
(lp548
S'15051051'
p549
aS'13911001'
p550
ag488
ag347
ag248
ag236
ag489
ag383
aS'3883025'
p551
aS'1766560'
p552
aS'1181560'
p553
ag154
aS'75997788'
p554
aS'78544592'
p555
aS'18144425'
p556
ag84
ag469
aS'66621166'
p557
asg26
g509
sg28
(ischedule
Group
p558
(dp559
g8
g548
sg31
S'Moderne Databases2'
p560
sbsg33
(iread_data3
Room
p561
(dp562
g26
g262
sg31
g263
sbsg38
g39
sg40
g134
sg31
g292
sbaa(lp563
(ischedule
Activity
p564
(dp565
g8
(lp566
g143
aS'1886996'
p567
ag391
ag298
ag348
aS'99975346'
p568
ag392
ag346
ag393
ag182
ag394
ag21
ag395
aS'35315956'
p569
ag47
ag246
ag91
aS'87602030'
p570
ag22
ag340
ag396
aS'52304977'
p571
ag397
ag429
ag398
aS'82968410'
p572
ag399
aS'15249775'
p573
ag368
ag154
ag125
aS'5739011'
p574
asg26
I1000
sg28
Nsg33
g193
sg38
g133
sg40
g166
sg31
g404
sba(ischedule
Activity
p575
(dp576
g8
(lp577
g121
ag212
ag200
ag268
aS'21029457'
p578
aS'30050930'
p579
aS'7308727'
p580
ag329
ag233
aS'56815156'
p581
ag103
aS'5298748'
p582
aS'30195935'
p583
ag317
ag234
aS'21964491'
p584
ag280
ag408
aS'33930505'
p585
aS'77831658'
p586
ag297
aS'28359697'
p587
aS'96453361'
p588
ag396
ag185
ag128
aS'70878567'
p589
ag256
ag62
ag457
aS'24613625'
p590
aS'66120270'
p591
ag47
aS'22826928'
p592
ag383
ag327
aS'6913074'
p593
ag549
ag201
ag181
ag107
ag349
aS'79617364'
p594
ag209
ag79
asg26
I1000
sg28
Nsg33
g34
sg38
g133
sg40
g41
sg31
S'Bioinformatica'
p595
sba(ischedule
Activity
p596
(dp597
g8
(lp598
S'93566383'
p599
ag103
aS'10702778'
p600
ag238
ag249
aS'39905995'
p601
aS'37279234'
p602
aS'13996448'
p603
ag516
aS'92778619'
p604
ag366
aS'26857113'
p605
aS'51791169'
p606
aS'86000192'
p607
ag488
ag471
aS'85284256'
p608
ag46
asg26
g435
sg28
(ischedule
Group
p609
(dp610
g8
g598
sg31
S'Programmeren in Java 26'
p611
sbsg33
g161
sg38
g39
sg40
S'6'
p612
sg31
g441
sba(ischedule
Activity
p613
(dp614
g8
(lp615
g57
ag202
ag204
ag54
ag207
ag208
ag210
ag154
ag212
ag214
ag216
ag94
ag218
ag220
ag222
ag224
ag226
ag228
ag230
ag95
ag88
ag172
ag234
ag236
ag238
ag239
ag241
ag243
ag245
ag247
ag248
ag250
ag98
ag253
ag255
ag105
ag258
asg26
S'40'
p616
sg28
(ischedule
Group
p617
(dp618
g8
g615
sg31
S'Software engineering2'
p619
sbsg33
g354
sg38
g165
sg40
g134
sg31
g264
sba(ischedule
Activity
p620
(dp621
g8
(lp622
g109
aS'17496687'
p623
aS'75585647'
p624
ag320
aS'11459236'
p625
aS'92977271'
p626
aS'13116738'
p627
ag375
ag49
ag487
aS'19958553'
p628
ag519
aS'62701040'
p629
ag279
ag589
ag502
aS'29718115'
p630
ag370
ag78
aS'8557857'
p631
ag380
asg26
I1000
sg28
Nsg33
g129
sg38
g133
sg40
g166
sg31
S'Informatie- en organsatieontwerp'
p632
sba(ischedule
Activity
p633
(dp634
g8
(lp635
S'87314964'
p636
aS'68360259'
p637
ag252
ag627
ag214
ag362
ag80
aS'87900893'
p638
ag340
asg26
S'10'
p639
sg28
(ischedule
Group
p640
(dp641
g8
g635
sg31
S'Data Mining1'
p642
sbsg33
(iread_data3
Room
p643
(dp644
g26
g290
sg31
g291
sbsg38
g39
sg40
g166
sg31
g422
sba(ischedule
Activity
p645
(dp646
g8
(lp647
g173
aS'62613937'
p648
aS'39429093'
p649
ag554
aS'40633534'
p650
ag567
aS'72683344'
p651
ag178
ag372
ag350
asg26
S'10'
p652
sg28
(ischedule
Group
p653
(dp654
g8
g647
sg31
S'Advanced Heuristics1'
p655
sbsg33
(iread_data3
Room
p656
(dp657
g26
S'60'
p658
sg31
S'C1.112'
p659
sbsg38
g39
sg40
g166
sg31
S'Advanced Heuristics'
p660
sbaa(lp661
(ischedule
Activity
p662
(dp663
g8
(lp664
S'96104167'
p665
ag507
ag178
ag276
aS'1075391'
p666
aS'73980360'
p667
ag273
ag244
ag629
ag505
ag144
ag20
aS'13534377'
p668
ag216
ag143
ag13
asg26
S'20'
p669
sg28
(ischedule
Group
p670
(dp671
g8
g664
sg31
S'Collectieve Intelligentie1'
p672
sbsg33
g528
sg38
g165
sg40
g166
sg31
S'Collectieve Intelligentie'
p673
sba(ischedule
Activity
p674
(dp675
g8
(lp676
S'19337738'
p677
ag118
ag396
ag22
aS'99453514'
p678
aS'97136582'
p679
ag589
ag584
ag603
asg26
g639
sg28
(ischedule
Group
p680
(dp681
g8
g676
sg31
S'Data Mining3'
p682
sbsg33
g34
sg38
g39
sg40
g41
sg31
g422
sba(ischedule
Activity
p683
(dp684
g8
(lp685
g309
ag586
ag73
aS'34900967'
p686
aS'18477924'
p687
aS'80188025'
p688
ag252
aS'33672995'
p689
aS'73350019'
p690
ag18
ag237
ag280
aS'58480929'
p691
ag347
aS'97838175'
p692
ag225
ag64
ag215
aS'70193386'
p693
ag376
ag648
ag122
ag492
ag46
ag298
aS'82854435'
p694
aS'78822885'
p695
ag381
ag554
ag431
ag341
aS'14637758'
p696
ag344
ag245
ag335
ag68
aS'88737765'
p697
aS'23565001'
p698
ag182
ag49
ag394
ag88
aS'56544130'
p699
aS'5595824'
p700
aS'83443653'
p701
ag21
ag230
ag581
ag90
asg26
I1000
sg28
Nsg33
g193
sg38
g133
sg40
g166
sg31
S'Analysemethoden en -technieken'
p702
sba(ischedule
Activity
p703
(dp704
g8
(lp705
g377
ag394
ag448
ag594
aS'55412918'
p706
ag326
aS'42778953'
p707
ag118
aS'90743504'
p708
ag309
aS'36508571'
p709
ag698
aS'16011419'
p710
ag283
ag599
aS'21311067'
p711
aS'26172512'
p712
ag46
aS'32595335'
p713
ag302
ag107
ag373
aS'79937969'
p714
aS'87758823'
p715
ag106
aS'96118484'
p716
ag490
ag273
aS'35330349'
p717
aS'31416266'
p718
ag345
ag257
ag331
ag183
ag208
ag88
ag243
aS'66570705'
p719
ag94
ag23
ag189
ag376
ag247
aS'54074680'
p720
ag56
aS'80998260'
p721
ag348
aS'71839156'
p722
ag64
aS'58866007'
p723
ag317
aS'34588570'
p724
ag252
ag100
asg26
I1000
sg28
Nsg33
(iread_data3
Room
p725
(dp726
g26
S'117'
p727
sg31
S'C0.110'
p728
sbsg38
g133
sg40
g166
sg31
S'Lineaire Algebra'
p729
sbaaa(lp730
(lp731
(ischedule
Activity
p732
(dp733
g8
(lp734
S'59289233'
p735
ag104
ag630
aS'14138904'
p736
ag90
ag651
ag301
ag172
ag150
ag723
ag392
ag377
ag139
ag467
ag20
aS'28618400'
p737
ag222
ag271
aS'45556081'
p738
ag178
aS'13798030'
p739
asg26
I1000
sg28
Nsg33
g354
sg38
g133
sg40
g166
sg31
S'Architectuur en computerorganisatie'
p740
sba(ischedule
Activity
p741
(dp742
g8
(lp743
g145
ag391
ag102
ag314
ag245
aS'56348773'
p744
ag103
aS'59220392'
p745
ag521
ag321
aS'75446434'
p746
ag84
ag119
aS'61520025'
p747
ag689
ag89
aS'65978354'
p748
ag470
ag332
aS'62363761'
p749
aS'86807027'
p750
ag377
aS'72665524'
p751
aS'81155296'
p752
ag91
ag394
ag506
ag241
ag516
aS'72526473'
p753
aS'6939933'
p754
ag624
ag537
ag213
ag570
asg26
S'40'
p755
sg28
(ischedule
Group
p756
(dp757
g8
g743
sg31
S'Calculus 22'
p758
sbsg33
g161
sg38
g165
sg40
g134
sg31
S'Calculus 2'
p759
sba(ischedule
Activity
p760
(dp761
g8
g615
sg26
S'40'
p762
sg28
g617
sg33
g528
sg38
g39
sg40
g134
sg31
g264
sba(ischedule
Activity
p763
(dp764
g8
(lp765
g315
ag590
ag457
aS'88636924'
p766
ag458
ag275
ag373
ag304
ag67
ag345
ag374
aS'76802764'
p767
ag125
ag279
ag207
aS'65960683'
p768
ag459
ag700
ag460
aS'2317551'
p769
ag461
ag23
ag142
ag98
ag306
ag236
ag89
ag552
ag462
ag707
ag379
ag308
ag428
aS'3407554'
p770
ag463
ag550
ag464
ag240
ag465
ag11
ag233
ag79
ag466
aS'43689934'
p771
ag467
ag271
ag468
aS'40791377'
p772
ag185
ag117
ag469
aS'34110913'
p773
ag470
aS'9067939'
p774
ag471
ag244
ag64
aS'92665222'
p775
ag472
ag229
ag301
aS'75759231'
p776
ag364
ag19
ag473
aS'79033175'
p777
ag474
aS'88855695'
p778
ag333
asg26
I1000
sg28
Nsg33
(iread_data3
Room
p779
(dp780
g26
S'22'
p781
sg31
S'A1.06'
p782
sbsg38
g133
sg40
g134
sg31
g483
sba(ischedule
Activity
p783
(dp784
g8
(lp785
g139
ag171
ag140
ag172
ag141
ag173
ag142
ag174
ag143
ag175
ag144
ag176
ag145
ag177
ag146
ag178
ag147
ag179
ag148
ag180
ag149
ag181
ag66
ag182
ag150
ag183
ag151
ag184
ag152
ag185
ag153
ag186
ag154
ag187
ag112
ag188
ag155
ag189
ag156
asg26
I1000
sg28
Nsg33
(iread_data3
Room
p786
(dp787
g26
S'41'
p788
sg31
S'A1.04'
p789
sbsg38
g133
sg40
g134
sg31
g167
sba(ischedule
Activity
p790
(dp791
g8
(lp792
g623
ag320
ag626
ag375
ag487
ag519
ag279
ag502
ag370
ag631
asg26
S'15'
p793
sg28
(ischedule
Group
p794
(dp795
g8
g792
sg31
S'Informatie- en organsatieontwerp2'
p796
sbsg33
(iread_data3
Room
p797
(dp798
g26
g290
sg31
g291
sbsg38
g39
sg40
g134
sg31
g632
sba(ischedule
Activity
p799
(dp800
g8
g577
sg26
I1000
sg28
Nsg33
(iread_data3
Room
p801
(dp802
g26
g420
sg31
g421
sbsg38
g133
sg40
g134
sg31
g595
sbaa(lp803
(ischedule
Activity
p804
(dp805
g8
g664
sg26
S'20'
p806
sg28
g670
sg33
g129
sg38
g39
sg40
g166
sg31
g673
sba(ischedule
Activity
p807
(dp808
g8
(lp809
g230
ag218
ag315
ag362
aS'19858730'
p810
ag375
ag408
asg26
S'10'
p811
sg28
(ischedule
Group
p812
(dp813
g8
g809
sg31
S'Autonomous Agents 22'
p814
sbsg33
g528
sg38
g165
sg40
g134
sg31
g453
sba(ischedule
Activity
p815
(dp816
g8
g361
sg26
I1000
sg28
Nsg33
g479
sg38
g133
sg40
g166
sg31
g387
sba(ischedule
Activity
p817
(dp818
g8
(lp819
g212
ag578
ag329
ag103
ag317
ag280
ag586
ag588
ag128
ag62
ag591
ag383
ag549
ag107
ag209
asg26
S'20'
p820
sg28
(ischedule
Group
p821
(dp822
g8
g819
sg31
S'Bioinformatica2'
p823
sbsg33
g161
sg38
g165
sg40
g134
sg31
g595
sba(ischedule
Activity
p824
(dp825
g8
(lp826
g22
ag750
ag461
aS'81116418'
p827
aS'14941752'
p828
ag459
ag19
ag244
ag234
aS'19214659'
p829
aS'90103047'
p830
ag707
ag220
ag47
asg26
S'15'
p831
sg28
(ischedule
Group
p832
(dp833
g8
g826
sg31
S'Project Numerical Recipes3'
p834
sbsg33
g193
sg38
g39
sg40
g41
sg31
S'Project Numerical Recipes'
p835
sba(ischedule
Activity
p836
(dp837
g8
(lp838
g200
ag201
ag203
ag205
ag206
ag111
ag209
ag139
ag211
ag213
ag215
ag217
ag58
ag219
ag221
ag223
ag225
ag227
ag229
ag92
ag231
ag232
ag233
ag235
ag237
ag62
ag240
ag242
ag244
ag246
ag181
ag249
ag251
ag252
ag254
ag256
ag257
ag259
asg26
g762
sg28
(ischedule
Group
p839
(dp840
g8
g838
sg31
S'Software engineering1'
p841
sbsg33
g34
sg38
g39
sg40
g166
sg31
g264
sba(ischedule
Activity
p842
(dp843
g8
g622
sg26
I1000
sg28
Nsg33
g354
sg38
g133
sg40
g134
sg31
g632
sbaa(lp844
(ischedule
Activity
p845
(dp846
g8
(lp847
g239
ag583
ag95
aS'51741554'
p848
ag375
ag124
ag396
ag737
ag97
aS'12170832'
p849
ag679
aS'64246605'
p850
aS'59887191'
p851
ag342
ag341
ag337
asg26
g27
sg28
(ischedule
Group
p852
(dp853
g8
g847
sg31
S'Netwerken en systeembeveiliging4'
p854
sbsg33
g129
sg38
g39
sg40
S'4'
p855
sg31
g42
sba(ischedule
Activity
p856
(dp857
g8
g548
sg26
g284
sg28
g558
sg33
g354
sg38
g165
sg40
g134
sg31
g292
sba(ischedule
Activity
p858
(dp859
g8
g819
sg26
S'20'
p860
sg28
g821
sg33
(iread_data3
Room
p861
(dp862
g26
g420
sg31
g421
sbsg38
g39
sg40
g134
sg31
g595
sba(ischedule
Activity
p863
(dp864
g8
(lp865
g665
ag717
ag538
ag607
ag507
ag398
ag79
ag322
ag178
ag584
aS'22699561'
p866
ag334
ag276
ag372
ag223
ag473
ag666
aS'57595888'
p867
ag768
ag114
ag667
ag317
ag254
ag580
ag273
ag11
ag371
ag184
ag244
ag848
ag203
ag59
ag629
ag516
ag433
aS'29474737'
p868
ag505
ag715
aS'17575088'
p869
ag718
ag144
ag206
aS'53107172'
p870
ag380
ag20
aS'46052388'
p871
ag707
aS'64393888'
p872
ag668
ag231
ag345
ag298
ag216
ag307
aS'1665980'
p873
ag226
ag143
ag738
aS'1696500'
p874
ag68
ag13
asg26
I1000
sg28
Nsg33
(iread_data3
Room
p875
(dp876
g26
g290
sg31
g291
sbsg38
g133
sg40
g134
sg31
g673
sba(ischedule
Activity
p877
(dp878
g8
(lp879
g522
aS'23215240'
p880
ag91
aS'5892092'
p881
aS'51472074'
p882
ag385
ag770
aS'25994016'
p883
ag307
aS'65675896'
p884
ag539
ag200
ag550
ag344
asg26
S'15'
p885
sg28
(ischedule
Group
p886
(dp887
g8
g879
sg31
S'Compilerbouw practicum1'
p888
sbsg33
(iread_data3
Room
p889
(dp890
g26
g658
sg31
g659
sbsg38
g39
sg40
g166
sg31
S'Compilerbouw practicum'
p891
sba(ischedule
Activity
p892
(dp893
g8
(lp894
S'70844780'
p895
ag81
ag323
ag737
ag751
ag297
ag128
ag140
ag750
ag775
asg26
g652
sg28
(ischedule
Group
p896
(dp897
g8
g894
sg31
S'Advanced Heuristics2'
p898
sbsg33
(iread_data3
Room
p899
(dp900
g26
g727
sg31
g728
sbsg38
g39
sg40
g134
sg31
g660
sbaa(lp901
(ischedule
Activity
p902
(dp903
g8
(lp904
S'20830477'
p905
ag718
ag91
ag259
ag216
aS'88519892'
p906
ag504
ag268
ag573
ag202
ag119
aS'12782624'
p907
ag70
aS'7386961'
p908
ag462
ag466
ag11
aS'63096281'
p909
asg26
g435
sg28
(ischedule
Group
p910
(dp911
g8
g904
sg31
S'Programmeren in Java 23'
p912
sbsg33
g129
sg38
g39
sg40
g41
sg31
g441
sba(ischedule
Activity
p913
(dp914
g8
g838
sg26
g616
sg28
g839
sg33
g354
sg38
g165
sg40
g166
sg31
g264
sba(ischedule
Activity
p915
(dp916
g8
(lp917
g636
ag254
ag677
ag637
ag251
ag118
ag252
ag25
ag396
ag627
ag408
ag22
ag214
ag409
ag678
ag362
ag410
ag679
ag80
ag411
ag589
ag638
ag412
ag584
ag340
ag413
ag603
asg26
I1000
sg28
Nsg33
g193
sg38
g133
sg40
g134
sg31
g422
sba(ischedule
Activity
p918
(dp919
g8
g785
sg26
I1000
sg28
Nsg33
g34
sg38
g133
sg40
g166
sg31
g167
sba(ischedule
Activity
p920
(dp921
g8
(lp922
g24
ag12
aS'87210640'
p923
ag722
ag828
aS'97417002'
p924
ag73
ag626
ag215
ag487
ag375
ag464
ag395
ag430
ag201
ag107
ag362
ag214
ag393
ag701
ag736
ag124
asg26
S'25'
p925
sg28
(ischedule
Group
p926
(dp927
g8
g922
sg31
S'Heuristieken 11'
p928
sbsg33
(iread_data3
Room
p929
(dp930
g26
g290
sg31
g291
sbsg38
g165
sg40
g166
sg31
S'Heuristieken 1'
p931
sba(ischedule
Activity
p932
(dp933
g8
g865
sg26
I1000
sg28
Nsg33
(iread_data3
Room
p934
(dp935
g26
g727
sg31
g728
sbsg38
g133
sg40
g41
sg31
g673
sba(ischedule
Activity
p936
(dp937
g8
g809
sg26
g449
sg28
g812
sg33
(iread_data3
Room
p938
(dp939
g26
g658
sg31
g659
sbsg38
g39
sg40
g134
sg31
g453
sbaa(lp940
(ischedule
Activity
p941
(dp942
g8
(lp943
g153
ag12
aS'66433883'
p944
ag304
ag593
ag686
ag522
ag251
ag409
ag333
ag80
ag348
ag629
ag592
ag371
aS'88263855'
p945
ag121
ag155
asg26
g435
sg28
(ischedule
Group
p946
(dp947
g8
g943
sg31
S'Programmeren in Java 24'
p948
sbsg33
(iread_data3
Room
p949
(dp950
g26
g290
sg31
g291
sbsg38
g39
sg40
g855
sg31
g441
sba(ischedule
Activity
p951
(dp952
g8
(lp953
S'90296821'
p954
ag468
aS'64053722'
p955
ag584
ag82
ag750
ag519
ag94
ag336
ag506
ag175
ag239
ag323
ag319
ag465
ag521
aS'3678531'
p956
ag55
ag345
asg26
g435
sg28
(ischedule
Group
p957
(dp958
g8
g953
sg31
S'Programmeren in Java 22'
p959
sbsg33
(iread_data3
Room
p960
(dp961
g26
g788
sg31
g789
sbsg38
g39
sg40
g134
sg31
g441
sba(ischedule
Activity
p962
(dp963
g8
(lp964
g200
ag579
ag233
ag582
ag234
ag408
ag297
ag396
ag589
ag457
ag47
ag327
ag201
ag349
ag79
asg26
g820
sg28
(ischedule
Group
p965
(dp966
g8
g964
sg31
S'Bioinformatica3'
p967
sbsg33
(iread_data3
Room
p968
(dp969
g26
g781
sg31
g782
sbsg38
g165
sg40
g41
sg31
g595
sba(ischedule
Activity
p970
(dp971
g8
(lp972
g297
ag299
ag301
ag179
ag122
ag78
ag273
ag307
ag308
ag310
ag312
ag121
ag315
ag317
ag319
ag321
ag323
ag325
ag327
ag20
ag330
ag332
ag333
ag335
ag218
ag337
ag51
ag340
ag150
ag343
ag144
ag68
ag347
ag349
ag351
ag352
asg26
S'40'
p973
sg28
(ischedule
Group
p974
(dp975
g8
g972
sg31
S'Databases 21'
p976
sbsg33
(iread_data3
Room
p977
(dp978
g26
g658
sg31
g659
sbsg38
g165
sg40
g166
sg31
g358
sba(ischedule
Activity
p979
(dp980
g8
(lp981
S'88627897'
p982
ag394
ag256
ag220
aS'61611295'
p983
ag304
ag427
ag709
asg26
g811
sg28
(ischedule
Group
p984
(dp985
g8
g981
sg31
S'Autonomous Agents 21'
p986
sbsg33
(iread_data3
Room
p987
(dp988
g26
g420
sg31
g421
sbsg38
g165
sg40
g166
sg31
g453
sba(ischedule
Activity
p989
(dp990
g8
g445
sg26
g811
sg28
g450
sg33
(iread_data3
Room
p991
(dp992
g26
g727
sg31
g728
sbsg38
g165
sg40
g41
sg31
g453
sbaaa(lp993
(lp994
(ischedule
Activity
p995
(dp996
g8
g865
sg26
I1000
sg28
Nsg33
g193
sg38
g133
sg40
g166
sg31
g673
sba(ischedule
Activity
p997
(dp998
g8
(lp999
g362
ag364
ag365
ag367
ag368
ag370
ag371
ag373
ag374
ag58
ag377
ag379
ag380
ag381
ag280
ag383
ag279
ag385
ag96
asg26
S'20'
p1000
sg28
(ischedule
Group
p1001
(dp1002
g8
g999
sg31
S'Technology for games2'
p1003
sbsg33
g129
sg38
g165
sg40
g134
sg31
g387
sba(ischedule
Activity
p1004
(dp1005
g8
(lp1006
g590
ag766
ag275
ag304
ag345
ag767
ag279
ag768
ag700
ag769
ag23
ag98
ag236
ag552
ag707
ag308
ag770
ag550
ag240
ag11
ag79
ag771
ag271
ag772
ag117
ag773
ag774
ag244
ag775
ag229
ag776
ag19
ag777
ag778
asg26
g475
sg28
(ischedule
Group
p1007
(dp1008
g8
g1006
sg31
S'Compilerbouw2'
p1009
sbsg33
g161
sg38
g165
sg40
g134
sg31
g483
sba(ischedule
Activity
p1010
(dp1011
g8
(lp1012
g367
ag321
ag432
ag58
aS'40911986'
p1013
aS'63939720'
p1014
aS'21070547'
p1015
ag142
aS'32183908'
p1016
aS'37419523'
p1017
aS'34691309'
p1018
ag100
ag491
ag373
aS'63573738'
p1019
asg26
g831
sg28
(ischedule
Group
p1020
(dp1021
g8
g1012
sg31
S'Project Numerical Recipes1'
p1022
sbsg33
g34
sg38
g39
sg40
g166
sg31
g835
sba(ischedule
Activity
p1023
(dp1024
g8
(lp1025
g699
ag540
ag392
ag212
aS'34173695'
p1026
ag778
ag215
ag447
ag555
ag226
aS'10609762'
p1027
ag331
ag117
aS'23628642'
p1028
ag250
ag335
ag308
ag593
ag324
ag65
ag15
ag638
ag280
ag271
aS'22168693'
p1029
ag93
ag116
ag466
aS'11593163'
p1030
ag268
aS'38296757'
p1031
ag302
aS'19717077'
p1032
aS'53139134'
p1033
ag522
aS'82412626'
p1034
asg26
g755
sg28
(ischedule
Group
p1035
(dp1036
g8
g1025
sg31
S'Calculus 21'
p1037
sbsg33
g528
sg38
g165
sg40
g166
sg31
g759
sba(ischedule
Activity
p1038
(dp1039
g8
(lp1040
g880
ag626
ag489
aS'54395877'
p1041
ag309
ag143
ag490
ag769
ag171
ag78
ag461
aS'73196865'
p1042
ag457
ag120
ag872
aS'88597745'
p1043
ag118
ag335
asg26
g435
sg28
(ischedule
Group
p1044
(dp1045
g8
g1040
sg31
S'Programmeren in Java 25'
p1046
sbsg33
(iread_data3
Room
p1047
(dp1048
g26
g290
sg31
g291
sbsg38
g39
sg40
S'5'
p1049
sg31
g441
sbaa(lp1050
(ischedule
Activity
p1051
(dp1052
g8
(lp1053
g538
ag79
ag866
ag223
ag768
ag254
ag371
ag203
ag433
ag869
ag870
ag707
ag345
ag873
ag874
asg26
g669
sg28
(ischedule
Group
p1054
(dp1055
g8
g1053
sg31
S'Collectieve Intelligentie3'
p1056
sbsg33
g354
sg38
g165
sg40
g41
sg31
g673
sba(ischedule
Activity
p1057
(dp1058
g8
(lp1059
g554
ag706
ag339
aS'77306636'
p1060
ag184
ag76
ag956
ag688
ag100
ag112
ag310
aS'93361408'
p1061
ag248
aS'55530367'
p1062
aS'79888156'
p1063
ag232
ag578
ag848
ag594
ag281
aS'38179241'
p1064
ag107
ag607
aS'6709529'
p1065
ag13
ag602
ag327
ag457
ag698
ag202
ag140
ag398
ag323
aS'31306819'
p1066
aS'75623387'
p1067
asg26
g755
sg28
(ischedule
Group
p1068
(dp1069
g8
g1059
sg31
S'Calculus 23'
p1070
sbsg33
g528
sg38
g165
sg40
g41
sg31
g759
sba(ischedule
Activity
p1071
(dp1072
g8
(lp1073
g109
ag624
ag625
ag627
ag49
ag628
ag629
ag589
ag630
ag78
ag380
asg26
g793
sg28
(ischedule
Group
p1074
(dp1075
g8
g1073
sg31
S'Informatie- en organsatieontwerp1'
p1076
sbsg33
g161
sg38
g39
sg40
g166
sg31
g632
sba(ischedule
Activity
p1077
(dp1078
g8
(lp1079
g173
ag895
ag648
ag81
ag649
ag323
ag554
ag737
ag650
ag751
ag567
ag297
ag651
ag128
ag178
ag140
ag372
ag750
ag350
ag775
asg26
I1000
sg28
Nsg33
g193
sg38
g133
sg40
g166
sg31
g660
sba(ischedule
Activity
p1080
(dp1081
g8
g917
sg26
I1000
sg28
Nsg33
g34
sg38
g133
sg40
g166
sg31
g422
sba(ischedule
Activity
p1082
(dp1083
g8
g138
sg26
S'20'
p1084
sg28
g158
sg33
(iread_data3
Room
p1085
(dp1086
g26
g290
sg31
g291
sbsg38
g39
sg40
g166
sg31
g167
sba(ischedule
Activity
p1087
(dp1088
g8
g267
sg26
g509
sg28
g285
sg33
(iread_data3
Room
p1089
(dp1090
g26
g781
sg31
g782
sbsg38
g39
sg40
g166
sg31
g292
sbaa(lp1091
(ischedule
Activity
p1092
(dp1093
g8
g981
sg26
g449
sg28
g984
sg33
g354
sg38
g39
sg40
g166
sg31
g453
sba(ischedule
Activity
p1094
(dp1095
g8
(lp1096
g298
ag300
ag302
ag303
ag304
ag305
ag306
ag276
ag309
ag311
ag313
ag314
ag316
ag318
ag320
ag322
ag324
ag326
ag328
ag329
ag331
ag216
ag334
ag336
ag103
ag338
ag339
ag341
ag342
ag344
ag345
ag346
ag348
ag350
ag174
ag353
asg26
g973
sg28
(ischedule
Group
p1097
(dp1098
g8
g1096
sg31
S'Databases 22'
p1099
sbsg33
g193
sg38
g165
sg40
g134
sg31
g358
sba(ischedule
Activity
p1100
(dp1101
g8
g964
sg26
g860
sg28
g965
sg33
g34
sg38
g39
sg40
g41
sg31
g595
sba(ischedule
Activity
p1102
(dp1103
g8
g1006
sg26
S'40'
p1104
sg28
g1007
sg33
g161
sg38
g39
sg40
g134
sg31
g483
sba(ischedule
Activity
p1105
(dp1106
g8
g407
sg26
g639
sg28
g415
sg33
g479
sg38
g39
sg40
g134
sg31
g422
sba(ischedule
Activity
p1107
(dp1108
g8
(lp1109
g305
ag516
ag944
ag12
aS'23652927'
p1110
ag55
ag183
ag246
ag258
ag517
ag310
ag179
ag97
ag518
ag57
ag20
ag584
ag105
ag873
ag142
ag588
ag254
aS'3707829'
p1111
ag211
aS'64554442'
p1112
ag342
ag204
ag519
ag23
ag520
ag81
ag521
ag333
ag340
ag316
ag447
aS'19540225'
p1113
ag522
ag397
ag374
ag228
ag523
ag250
asg26
I1000
sg28
Nsg33
g528
sg38
g133
sg40
g166
sg31
g532
sba(ischedule
Activity
p1114
(dp1115
g8
g1073
sg26
S'15'
p1116
sg28
g1074
sg33
(iread_data3
Room
p1117
(dp1118
g26
g781
sg31
g782
sbsg38
g165
sg40
g166
sg31
g632
sbaa(lp1119
(ischedule
Activity
p1120
(dp1121
g8
(lp1122
g717
ag398
ag584
ag372
ag867
ag317
ag11
ag848
ag516
ag715
ag206
ag871
ag231
ag307
ag738
asg26
g669
sg28
(ischedule
Group
p1123
(dp1124
g8
g1122
sg31
S'Collectieve Intelligentie2'
p1125
sbsg33
g34
sg38
g165
sg40
g134
sg31
g673
sba(ischedule
Activity
p1126
(dp1127
g8
(lp1128
g24
ag230
ag12
ag187
ag923
aS'76393508'
p1129
ag722
aS'45660925'
p1130
ag828
ag380
ag924
ag554
ag73
ag243
ag626
aS'53775014'
p1131
ag215
ag507
ag487
ag327
ag375
ag810
ag464
ag413
ag395
ag303
ag430
ag121
ag201
ag104
ag107
ag106
ag362
ag342
ag214
ag750
ag393
ag874
ag701
ag870
ag736
ag226
ag124
ag905
asg26
I1000
sg28
Nsg33
g129
sg38
g133
sg40
g166
sg31
g931
sba(ischedule
Activity
p1132
(dp1133
g8
(lp1134
g121
ag268
ag580
ag581
ag583
ag584
ag585
ag587
ag185
ag256
ag590
ag592
ag593
ag181
ag594
asg26
g820
sg28
(ischedule
Group
p1135
(dp1136
g8
g1134
sg31
S'Bioinformatica1'
p1137
sbsg33
g354
sg38
g165
sg40
g166
sg31
g595
sba(ischedule
Activity
p1138
(dp1139
g8
g577
sg26
I1000
sg28
Nsg33
g528
sg38
g133
sg40
g166
sg31
g595
sba(ischedule
Activity
p1140
(dp1141
g8
(lp1142
g322
aS'19662602'
p1143
ag326
ag308
ag110
ag54
ag11
ag233
ag603
ag580
ag586
ag754
ag552
aS'32044893'
p1144
ag737
asg26
g831
sg28
(ischedule
Group
p1145
(dp1146
g8
g1142
sg31
S'Project Numerical Recipes2'
p1147
sbsg33
g193
sg38
g39
sg40
g134
sg31
g835
sba(ischedule
Activity
p1148
(dp1149
g8
g792
sg26
g1116
sg28
g794
sg33
g161
sg38
g165
sg40
g134
sg31
g632
sba(ischedule
Activity
p1150
(dp1151
g8
(lp1152
g146
aS'27805666'
p1153
ag487
ag593
ag230
ag376
ag333
ag108
ag312
ag125
ag225
ag488
ag411
ag383
ag81
ag592
ag1144
ag322
ag258
aS'20095994'
p1154
ag489
ag604
ag568
ag110
ag582
ag678
ag490
ag1031
aS'51415617'
p1155
ag235
ag282
aS'68286356'
p1156
ag381
ag207
ag350
ag491
aS'27370083'
p1157
ag86
ag492
aS'49922855'
p1158
ag336
ag182
aS'82390428'
p1159
aS'51052738'
p1160
ag87
ag693
aS'36213792'
p1161
ag362
ag276
ag895
ag431
asg26
I1000
sg28
Nsg33
g479
sg38
g133
sg40
g134
sg31
g497
sbaa(lp1162
(ischedule
Activity
p1163
(dp1164
g8
(lp1165
g607
ag322
ag334
ag473
ag114
ag580
ag184
ag59
ag868
ag718
ag380
ag872
ag298
ag226
ag68
asg26
g669
sg28
(ischedule
Group
p1166
(dp1167
g8
g1165
sg31
S'Collectieve Intelligentie4'
p1168
sbsg33
g354
sg38
g165
sg40
g855
sg31
g673
sba(ischedule
Activity
p1169
(dp1170
g8
g1134
sg26
g860
sg28
g1135
sg33
g129
sg38
g39
sg40
g166
sg31
g595
sba(ischedule
Activity
p1171
(dp1172
g8
g765
sg26
I1000
sg28
Nsg33
g479
sg38
g133
sg40
g166
sg31
g483
sba(ischedule
Activity
p1173
(dp1174
g8
(lp1175
g23
ag490
aS'20374340'
p1176
aS'64768422'
p1177
ag241
ag63
ag396
ag829
ag338
ag180
ag599
ag470
ag67
ag1064
aS'21677389'
p1178
ag397
ag517
ag752
ag884
ag432
ag372
ag1111
aS'28055464'
p1179
ag173
aS'69634191'
p1180
asg26
I1000
sg28
Nsg33
g34
sg38
g133
sg40
g134
sg31
S'Interactie-ontwerp'
p1181
sba(ischedule
Activity
p1182
(dp1183
g8
(lp1184
g1153
ag230
ag108
ag225
ag383
ag1144
ag1154
ag568
ag678
ag1155
ag1156
ag350
ag86
ag336
ag1160
ag1161
ag895
asg26
g493
sg28
(ischedule
Group
p1185
(dp1186
g8
g1184
sg31
S'Reflectie op de digitale cultuur2'
p1187
sbsg33
g161
sg38
g165
sg40
g134
sg31
g497
sba(ischedule
Activity
p1188
(dp1189
g8
(lp1190
S'64418623'
p1191
ag867
ag258
ag234
ag370
aS'42297781'
p1192
ag722
ag145
ag625
aS'51673172'
p1193
aS'47260040'
p1194
aS'74361881'
p1195
aS'91250534'
p1196
asg26
g885
sg28
(ischedule
Group
p1197
(dp1198
g8
g1190
sg31
S'Compilerbouw practicum2'
p1199
sbsg33
g193
sg38
g39
sg40
g134
sg31
g891
sba(ischedule
Activity
p1200
(dp1201
g8
(lp1202
g736
aS'44151631'
p1203
ag873
aS'55103073'
p1204
ag254
aS'1695839'
p1205
ag70
aS'535689'
p1206
ag201
ag56
ag518
aS'41644639'
p1207
ag751
asg26
g885
sg28
(ischedule
Group
p1208
(dp1209
g8
g1202
sg31
S'Compilerbouw practicum3'
p1210
sbsg33
g528
sg38
g39
sg40
g41
sg31
g891
sbaaa(lp1211
(lp1212
(ischedule
Activity
p1213
(dp1214
g8
g1053
sg26
g806
sg28
g1054
sg33
g528
sg38
g39
sg40
g41
sg31
g673
sba(ischedule
Activity
p1215
(dp1216
g8
(lp1217
g982
ag230
ag446
ag394
ag218
ag447
ag256
ag315
ag448
ag220
ag362
ag257
ag983
ag810
ag98
ag304
ag375
ag273
ag427
ag408
ag340
ag709
asg26
I1000
sg28
Nsg33
g34
sg38
g133
sg40
g166
sg31
g453
sba(ischedule
Activity
p1218
(dp1219
g8
(lp1220
g305
ag944
ag1110
ag183
ag258
ag310
ag97
ag57
ag584
ag873
ag588
ag1111
ag1112
ag204
ag23
ag81
ag333
ag316
ag1113
ag397
ag228
ag250
asg26
S'25'
p1221
sg28
(ischedule
Group
p1222
(dp1223
g8
g1220
sg31
S'Algoritmen en complexiteit1'
p1224
sbsg33
g129
sg38
g165
sg40
g166
sg31
g532
sba(ischedule
Activity
p1225
(dp1226
g8
g515
sg26
g1221
sg28
g525
sg33
g479
sg38
g165
sg40
g134
sg31
g532
sba(ischedule
Activity
p1227
(dp1228
g8
g1220
sg26
g524
sg28
g1222
sg33
g193
sg38
g39
sg40
g166
sg31
g532
sba(ischedule
Activity
p1229
(dp1230
g8
(lp1231
g1178
ag1019
ag895
ag580
ag311
ag591
ag489
ag64
ag146
ag874
ag251
ag749
aS'123355'
p1232
aS'5590289'
p1233
ag1206
ag216
asg26
g27
sg28
(ischedule
Group
p1234
(dp1235
g8
g1231
sg31
S'Netwerken en systeembeveiliging2'
p1236
sbsg33
(iread_data3
Room
p1237
(dp1238
g26
g727
sg31
g728
sbsg38
g39
sg40
g134
sg31
g42
sbaa(lp1239
(ischedule
Activity
p1240
(dp1241
g8
(lp1242
g255
ag363
ag109
ag366
ag214
ag369
ag152
ag372
ag236
ag375
ag376
ag378
ag150
ag303
ag115
ag382
ag307
ag384
ag386
asg26
g1000
sg28
(ischedule
Group
p1243
(dp1244
g8
g1242
sg31
S'Technology for games1'
p1245
sbsg33
g129
sg38
g165
sg40
g166
sg31
g387
sba(ischedule
Activity
p1246
(dp1247
g8
(lp1248
g146
ag593
ag333
ag125
ag411
ag592
ag258
ag604
ag582
ag1031
ag282
ag207
ag1157
ag1158
ag1159
ag693
ag276
asg26
g493
sg28
(ischedule
Group
p1249
(dp1250
g8
g1248
sg31
S'Reflectie op de digitale cultuur1'
p1251
sbsg33
g528
sg38
g165
sg40
g166
sg31
g497
sba(ischedule
Activity
p1252
(dp1253
g8
g500
sg26
g284
sg28
g510
sg33
g193
sg38
g165
sg40
g41
sg31
g292
sba(ischedule
Activity
p1254
(dp1255
g8
g1165
sg26
g806
sg28
g1166
sg33
(iread_data3
Room
p1256
(dp1257
g26
g727
sg31
g728
sbsg38
g39
sg40
g855
sg31
g673
sba(ischedule
Activity
p1258
(dp1259
g8
g676
sg26
g414
sg28
g680
sg33
(iread_data3
Room
p1260
(dp1261
g26
g290
sg31
g291
sbsg38
g165
sg40
g41
sg31
g422
sba(ischedule
Activity
p1262
(dp1263
g8
(lp1264
g697
ag1207
ag347
ag650
ag492
ag392
ag1195
ag474
ag473
ag521
ag72
ag282
asg26
g541
sg28
(ischedule
Group
p1265
(dp1266
g8
g1264
sg31
S'Project Genetic Algorithms1'
p1267
sbsg33
(iread_data3
Room
p1268
(dp1269
g26
g262
sg31
g263
sbsg38
g39
sg40
g166
sg31
g545
sba(ischedule
Activity
p1270
(dp1271
g8
g1122
sg26
g806
sg28
g1123
sg33
(iread_data3
Room
p1272
(dp1273
g26
g788
sg31
g789
sbsg38
g39
sg40
g134
sg31
g673
sbaa(lp1274
(ischedule
Activity
p1275
(dp1276
g8
g705
sg26
I1000
sg28
Nsg33
g528
sg38
g133
sg40
g134
sg31
g729
sba(ischedule
Activity
p1277
(dp1278
g8
g456
sg26
g1104
sg28
g476
sg33
g161
sg38
g39
sg40
g166
sg31
g483
sba(ischedule
Activity
p1279
(dp1280
g8
(lp1281
g699
ag145
ag554
ag540
ag391
ag706
ag392
ag102
ag339
ag212
ag314
ag1060
ag1026
ag245
ag184
ag778
ag744
ag76
ag215
ag103
ag956
ag447
ag745
ag688
ag555
ag521
ag100
ag226
ag321
ag112
ag1027
ag746
ag310
ag331
ag84
ag1061
ag117
ag119
ag248
ag1028
ag747
ag1062
ag250
ag689
ag1063
ag335
ag89
ag232
ag308
ag748
ag578
ag593
ag470
ag848
ag324
ag332
ag594
ag65
ag749
ag281
ag15
ag750
ag1064
ag638
ag377
ag107
ag280
ag751
ag607
ag271
ag752
ag1065
ag1029
ag91
ag13
ag93
ag394
ag602
ag116
ag506
ag327
ag466
ag241
ag457
ag1030
ag516
ag698
ag268
ag753
ag202
ag1031
ag754
ag140
ag302
ag624
ag398
ag1032
ag537
ag323
ag1033
ag213
ag1066
ag522
ag570
ag1067
ag1034
asg26
I1000
sg28
Nsg33
g34
sg38
g133
sg40
g166
sg31
g759
sba(ischedule
Activity
p1282
(dp1283
g8
g1152
sg26
I1000
sg28
Nsg33
g354
sg38
g133
sg40
g166
sg31
g497
sba(ischedule
Activity
p1284
(dp1285
g8
g45
sg26
I1000
sg28
Nsg33
g193
sg38
g133
sg40
g166
sg31
g135
sbaa(lp1286
(ischedule
Activity
p1287
(dp1288
g8
g170
sg26
g1084
sg28
g190
sg33
g161
sg38
g39
sg40
g134
sg31
g167
sba(ischedule
Activity
p1289
(dp1290
g8
(lp1291
g21
aS'55480737'
p1292
ag883
ag253
ag590
ag177
ag63
ag206
ag1193
ag570
ag318
ag376
asg26
g541
sg28
(ischedule
Group
p1293
(dp1294
g8
g1291
sg31
S'Project Genetic Algorithms3'
p1295
sbsg33
g528
sg38
g39
sg40
g41
sg31
g545
sba(ischedule
Activity
p1296
(dp1297
g8
(lp1298
g78
ag549
ag501
ag268
ag550
ag502
ag269
ag488
ag319
ag270
ag347
ag51
ag271
ag248
ag329
ag272
ag236
ag503
ag273
ag489
ag504
ag274
ag383
ag505
ag275
ag551
ag310
ag276
ag552
ag380
ag277
ag553
ag211
ag278
ag154
ag506
ag279
ag554
ag139
ag280
ag555
ag253
ag281
ag556
ag507
ag282
ag84
ag508
ag69
ag469
ag334
ag283
ag557
ag303
asg26
I1000
sg28
Nsg33
(iread_data3
Room
p1299
(dp1300
g26
g420
sg31
g421
sbsg38
g133
sg40
g166
sg31
g292
sba(ischedule
Activity
p1301
(dp1302
g8
(lp1303
g325
ag56
ag428
ag205
ag204
ag350
ag492
ag72
ag379
ag608
ag49
ag300
ag102
ag585
ag551
ag751
asg26
g27
sg28
(ischedule
Group
p1304
(dp1305
g8
g1303
sg31
S'Netwerken en systeembeveiliging1'
p1306
sbsg33
(iread_data3
Room
p1307
(dp1308
g26
g290
sg31
g291
sbsg38
g39
sg40
g166
sg31
g42
sba(ischedule
Activity
p1309
(dp1310
g8
(lp1311
g429
ag1031
ag90
ag117
ag246
ag458
ag504
ag605
aS'90067329'
p1312
ag467
aS'33252501'
p1313
ag304
ag108
ag251
ag92
ag110
ag521
ag549
ag59
aS'67625383'
p1314
ag48
ag772
asg26
I1000
sg28
Nsg33
(iread_data3
Room
p1315
(dp1316
g26
g781
sg31
g782
sbsg38
g133
sg40
g166
sg31
S'Machine Learning'
p1317
sbaa(lp1318
(ischedule
Activity
p1319
(dp1320
g8
g1217
sg26
I1000
sg28
Nsg33
g528
sg38
g133
sg40
g134
sg31
g453
sba(ischedule
Activity
p1321
(dp1322
g8
g734
sg26
I1000
sg28
Nsg33
g129
sg38
g133
sg40
g134
sg31
g740
sba(ischedule
Activity
p1323
(dp1324
g8
(lp1325
g567
ag298
ag568
ag346
ag182
ag21
ag569
ag246
ag570
ag340
ag571
ag429
ag572
ag573
ag154
ag574
asg26
g400
sg28
(ischedule
Group
p1326
(dp1327
g8
g1325
sg31
S'Heuristieken 22'
p1328
sbsg33
g479
sg38
g165
sg40
g134
sg31
g404
sba(ischedule
Activity
p1329
(dp1330
g8
(lp1331
g230
ag187
ag1129
ag1130
ag380
ag554
ag243
ag1131
ag507
ag327
ag810
ag413
ag303
ag121
ag104
ag106
ag342
ag750
ag874
ag870
ag226
ag905
asg26
g925
sg28
(ischedule
Group
p1332
(dp1333
g8
g1331
sg31
S'Heuristieken 12'
p1334
sbsg33
g161
sg38
g165
sg40
g134
sg31
g931
sba(ischedule
Activity
p1335
(dp1336
g8
g635
sg26
g414
sg28
g640
sg33
g34
sg38
g165
sg40
g166
sg31
g422
sba(ischedule
Activity
p1337
(dp1338
g8
g1311
sg26
I1000
sg28
Nsg33
g354
sg38
g133
sg40
g134
sg31
g1317
sba(ischedule
Activity
p1339
(dp1340
g8
g1175
sg26
I1000
sg28
Nsg33
(iread_data3
Room
p1341
(dp1342
g26
g420
sg31
g421
sbsg38
g133
sg40
g166
sg31
g1181
sbaaa(lp1343
(lp1344
a(lp1345
a(lp1346
a(lp1347
a(lp1348
aasS'timeslot_dict'
p1349
(dp1350
I0
S'9:00-11:00'
p1351
sI1
S'11:00-13:00'
p1352
sI2
S'13:00-15:00'
p1353
sI3
S'15:00-17:00'
p1354
sI4
S'17:00-19:00'
p1355
ssS'day_dict'
p1356
(dp1357
I0
S'Monday'
p1358
sI1
S'Tuesday'
p1359
sI2
S'Wednesday'
p1360
sI3
S'Thursday'
p1361
sI4
S'Friday'
p1362
ssb.