(ischedule
Schedule
p0
(dp1
S'timetable'
p2
(lp3
(lp4
(lp5
(ischedule
Activity
p6
(dp7
S'participants'
p8
(lp9
S'42171678'
p10
aS'77896638'
p11
aS'65960683'
p12
aS'33760909'
p13
aS'76123484'
p14
aS'5517869'
p15
aS'97135019'
p16
aS'58522654'
p17
aS'61443567'
p18
aS'35330349'
p19
aS'64228258'
p20
aS'64296965'
p21
aS'13092455'
p22
aS'7308727'
p23
aS'62701040'
p24
asS'capacity'
p25
S'20'
p26
sS'group'
p27
(ischedule
Group
p28
(dp29
g8
g9
sS'name'
p30
S'Collectieve Intelligentie2'
p31
sbsS'room'
p32
(iread_data
Room
p33
(dp34
g25
S'22'
p35
sg30
S'A1.06'
p36
sbsS'ttype'
p37
S'tutorials'
p38
sS'group_id'
p39
S'2'
p40
sg30
S'Collectieve Intelligentie'
p41
sba(ischedule
Activity
p42
(dp43
g8
(lp44
S'77240949'
p45
aS'68601184'
p46
aS'75521763'
p47
aS'60312776'
p48
aS'28357474'
p49
aS'23547619'
p50
aS'96104167'
p51
aS'57595888'
p52
aS'50184318'
p53
aS'73980360'
p54
aS'31416266'
p55
aS'46052388'
p56
aS'50143947'
p57
aS'1075391'
p58
aS'34773179'
p59
asg25
g26
sg27
(ischedule
Group
p60
(dp61
g8
g44
sg30
S'Collectieve Intelligentie4'
p62
sbsg32
(iread_data
Room
p63
(dp64
g25
S'56'
p65
sg30
S'A1.10'
p66
sbsg37
g38
sg39
S'4'
p67
sg30
g41
sba(ischedule
Activity
p68
(dp69
g8
(lp70
S'24277163'
p71
aS'37770881'
p72
aS'21964491'
p73
aS'53107172'
p74
aS'9332762'
p75
aS'51741554'
p76
aS'54310617'
p77
aS'1696500'
p78
aS'4783858'
p79
aS'48601268'
p80
aS'43027916'
p81
aS'86291592'
p82
aS'29474737'
p83
aS'29640619'
p84
aS'17222374'
p85
asg25
S'20'
p86
sg27
(ischedule
Group
p87
(dp88
g8
g70
sg30
S'Collectieve Intelligentie3'
p89
sbsg32
(iread_data
Room
p90
(dp91
g25
S'20'
p92
sg30
S'A1.08'
p93
sbsg37
S'labs'
p94
sg39
S'3'
p95
sg30
g41
sba(ischedule
Activity
p96
(dp97
g8
(lp98
S'68409833'
p99
aS'72796858'
p100
aS'51566595'
p101
aS'39459642'
p102
aS'19858730'
p103
aS'22871048'
p104
aS'62356458'
p105
ag15
aS'34806836'
p106
aS'16097870'
p107
aS'62872965'
p108
aS'54026378'
p109
aS'61611295'
p110
aS'27298319'
p111
aS'52552718'
p112
aS'11915563'
p113
aS'74131924'
p114
aS'36508571'
p115
aS'44901052'
p116
aS'37110913'
p117
aS'70113753'
p118
aS'88627897'
p119
asg25
I1000
sg27
Nsg32
(iread_data
Room
p120
(dp121
g25
S'48'
p122
sg30
S'B0.201'
p123
sbsg37
S'lectures'
p124
sg39
S'1'
p125
sg30
S'Autonomous Agents 2'
p126
sba(ischedule
Activity
p127
(dp128
g8
(lp129
S'2079771'
p130
aS'49683101'
p131
aS'13911001'
p132
ag102
aS'95007221'
p133
aS'72895450'
p134
aS'81385263'
p135
aS'12077419'
p136
aS'66701209'
p137
ag12
aS'6723948'
p138
aS'88636924'
p139
aS'76802764'
p140
aS'48308205'
p141
aS'48503689'
p142
aS'13284244'
p143
aS'80135353'
p144
ag100
aS'1766560'
p145
aS'88752563'
p146
aS'83266686'
p147
aS'27187154'
p148
aS'75599734'
p149
aS'15911353'
p150
aS'34872117'
p151
aS'5595824'
p152
aS'54772132'
p153
aS'34110913'
p154
aS'79033175'
p155
aS'75664412'
p156
aS'10792879'
p157
aS'2317551'
p158
aS'43689934'
p159
aS'73236988'
p160
aS'94687383'
p161
aS'11741347'
p162
aS'68315599'
p163
ag72
aS'42778953'
p164
aS'46989508'
p165
aS'76661016'
p166
aS'14309255'
p167
ag82
ag17
aS'84524083'
p168
aS'44391517'
p169
aS'95631564'
p170
aS'3407554'
p171
ag113
aS'98105190'
p172
aS'53202517'
p173
aS'24613625'
p174
aS'92665222'
p175
aS'5368702'
p176
aS'9067939'
p177
ag11
ag48
aS'8464817'
p178
aS'34243356'
p179
aS'30658799'
p180
aS'65852230'
p181
aS'40791377'
p182
aS'75759231'
p183
aS'27950803'
p184
aS'7957843'
p185
aS'79167252'
p186
aS'88855695'
p187
aS'31194811'
p188
aS'86988337'
p189
asg25
I1000
sg27
Nsg32
(iread_data
Room
p190
(dp191
g25
S'41'
p192
sg30
S'A1.04'
p193
sbsg37
g124
sg39
g125
sg30
S'Compilerbouw'
p194
sba(ischedule
Activity
p195
(dp196
g8
(lp197
S'37279234'
p198
aS'75623387'
p199
ag20
aS'27925117'
p200
aS'6709529'
p201
aS'33672995'
p202
ag107
aS'14816774'
p203
aS'6939933'
p204
aS'56348773'
p205
ag148
aS'47477884'
p206
aS'45915482'
p207
ag111
aS'14179347'
p208
aS'70939718'
p209
aS'38296757'
p210
aS'55412918'
p211
aS'34173695'
p212
aS'44868097'
p213
aS'9731271'
p214
aS'72526473'
p215
aS'12091019'
p216
aS'86000192'
p217
aS'19717077'
p218
aS'26260141'
p219
ag186
aS'47932106'
p220
aS'75446434'
p221
aS'23565001'
p222
aS'80188025'
p223
aS'63634350'
p224
aS'59220392'
p225
aS'32705005'
p226
aS'28957789'
p227
aS'48357272'
p228
ag166
aS'64600457'
p229
aS'40141996'
p230
aS'62105897'
p231
aS'5615125'
p232
aS'22168693'
p233
aS'78544592'
p234
aS'38179241'
p235
aS'77306636'
p236
aS'10609762'
p237
aS'10149535'
p238
aS'23628642'
p239
aS'73823548'
p240
aS'53139134'
p241
aS'93361408'
p242
aS'81155296'
p243
aS'14591033'
p244
aS'75585647'
p245
aS'65978354'
p246
aS'27064249'
p247
aS'79617364'
p248
aS'86807027'
p249
aS'58253841'
p250
aS'78443067'
p251
aS'75997788'
p252
aS'94686490'
p253
aS'53585410'
p254
aS'23658570'
p255
ag187
aS'86180471'
p256
aS'46570285'
p257
aS'61520025'
p258
aS'11593163'
p259
aS'6913074'
p260
aS'73302736'
p261
ag76
aS'58699305'
p262
ag16
aS'31306819'
p263
aS'74182182'
p264
aS'58469172'
p265
aS'79888156'
p266
aS'55530367'
p267
aS'58040377'
p268
aS'96054456'
p269
aS'15902055'
p270
aS'83415514'
p271
aS'87602030'
p272
ag79
aS'14303208'
p273
aS'65408517'
p274
aS'78735049'
p275
aS'4546613'
p276
ag13
aS'56544130'
p277
ag146
aS'82412626'
p278
aS'62363761'
p279
aS'46701583'
p280
aS'87900893'
p281
ag138
aS'85335143'
p282
aS'56872729'
p283
ag147
aS'58592894'
p284
aS'72665524'
p285
aS'21029457'
p286
aS'3678531'
p287
aS'24875739'
p288
ag157
asg25
I1000
sg27
Nsg32
(iread_data
Room
p289
(dp290
g25
S'117'
p291
sg30
S'C0.110'
p292
sbsg37
g124
sg39
g125
sg30
S'Calculus 2'
p293
sba(ischedule
Activity
p294
(dp295
g8
(lp296
S'29526540'
p297
ag248
aS'30050930'
p298
aS'11068043'
p299
aS'89985072'
p300
aS'88176729'
p301
aS'43680781'
p302
ag229
aS'22731474'
p303
aS'77831658'
p304
aS'56815156'
p305
ag114
aS'70878567'
p306
aS'20883994'
p307
aS'33930505'
p308
asg25
S'20'
p309
sg27
(ischedule
Group
p310
(dp311
g8
g296
sg30
S'Bioinformatica3'
p312
sbsg32
(iread_data3
Room
p313
(dp314
g25
S'60'
p315
sg30
S'C1.112'
p316
sbsg37
g94
sg39
g95
sg30
S'Bioinformatica'
p317
sbaa(lp318
(ischedule
Activity
p319
(dp320
g8
(lp321
S'3233378'
p322
ag217
aS'64393888'
p323
aS'17575088'
p324
aS'45556081'
p325
aS'87758823'
p326
aS'26406342'
p327
aS'13534377'
p328
aS'72577292'
p329
aS'22699561'
p330
aS'1665980'
p331
aS'82689818'
p332
aS'42196732'
p333
aS'25106480'
p334
ag164
ag270
asg25
g26
sg27
(ischedule
Group
p335
(dp336
g8
g321
sg30
S'Collectieve Intelligentie1'
p337
sbsg32
g33
sg37
g38
sg39
g125
sg30
g41
sba(ischedule
Activity
p338
(dp339
g8
(lp340
S'20331158'
p341
ag116
aS'97019450'
p342
aS'31897288'
p343
ag252
aS'59075181'
p344
ag79
ag103
aS'11996292'
p345
ag78
aS'22323043'
p346
aS'58736785'
p347
ag10
aS'87210640'
p348
aS'57467488'
p349
aS'61060652'
p350
ag228
aS'53775014'
p351
aS'66122625'
p352
aS'20830477'
p353
aS'14138904'
p354
ag203
asg25
S'25'
p355
sg27
(ischedule
Group
p356
(dp357
g8
g340
sg30
S'Heuristieken 11'
p358
sbsg32
(iread_data
Room
p359
(dp360
g25
S'60'
p361
sg30
S'C1.112'
p362
sbsg37
g38
sg39
g125
sg30
S'Heuristieken 1'
p363
sba(ischedule
Activity
p364
(dp365
g8
(lp366
S'15051051'
p367
aS'66120270'
p368
ag269
ag173
ag213
ag333
ag203
aS'59544049'
p369
aS'81200278'
p370
aS'5298748'
p371
ag109
aS'33877725'
p372
aS'4568018'
p373
ag73
ag138
asg25
S'20'
p374
sg27
(ischedule
Group
p375
(dp376
g8
g366
sg30
S'Bioinformatica1'
p377
sbsg32
g90
sg37
g38
sg39
g125
sg30
g317
sba(ischedule
Activity
p378
(dp379
g8
(lp380
S'3883025'
p381
aS'63111000'
p382
aS'89180944'
p383
ag252
ag145
ag302
aS'70072978'
p384
ag163
ag71
ag180
aS'99283252'
p385
aS'77376714'
p386
ag262
aS'36748818'
p387
aS'49219163'
p388
aS'1181560'
p389
ag147
ag367
asg25
S'20'
p390
sg27
(ischedule
Group
p391
(dp392
g8
g380
sg30
S'Moderne Databases2'
p393
sbsg32
g120
sg37
g94
sg39
g40
sg30
S'Moderne Databases'
p394
sba(ischedule
Activity
p395
(dp396
g8
g9
sg25
g86
sg27
g28
sg32
(iread_data3
Room
p397
(dp398
g25
S'117'
p399
sg30
S'C0.110'
p400
sbsg37
g94
sg39
g40
sg30
g41
sbaa(lp401
(ischedule
Activity
p402
(dp403
g8
(lp404
g322
ag10
ag71
ag45
ag217
ag11
ag72
ag46
ag323
ag12
ag73
ag47
ag324
ag13
ag74
ag48
ag325
ag14
ag75
ag49
ag326
ag15
ag76
ag50
ag327
ag16
ag77
ag51
ag328
ag17
ag78
ag52
ag329
ag18
ag79
ag53
ag330
ag19
ag80
ag54
ag331
ag20
ag81
ag55
ag332
ag21
ag82
ag56
ag333
ag22
ag83
ag57
ag334
ag23
ag84
ag58
ag164
ag24
ag85
ag59
ag270
asg25
I1000
sg27
Nsg32
g289
sg37
g124
sg39
g125
sg30
g41
sba(ischedule
Activity
p405
(dp406
g8
(lp407
S'7106649'
p408
aS'81022997'
p409
ag200
ag13
ag272
ag303
ag347
ag224
aS'5976174'
p410
aS'1886996'
p411
ag343
aS'82968410'
p412
aS'85236626'
p413
aS'34765676'
p414
ag268
aS'72652638'
p415
aS'52304977'
p416
aS'83869542'
p417
ag370
aS'15249775'
p418
ag168
ag107
aS'99975346'
p419
ag101
ag81
aS'78243495'
p420
aS'57086672'
p421
aS'35315956'
p422
aS'48678993'
p423
ag18
aS'670011'
p424
aS'5739011'
p425
asg25
I1000
sg27
Nsg32
g33
sg37
g124
sg39
g125
sg30
S'Heuristieken 2'
p426
sba(ischedule
Activity
p427
(dp428
g8
(lp429
g169
aS'27582862'
p430
ag424
ag138
ag24
ag84
ag353
aS'88519892'
p431
ag144
aS'55474917'
p432
ag161
ag254
aS'88263855'
p433
aS'88597745'
p434
ag249
aS'47982619'
p435
aS'23391676'
p436
ag270
asg25
S'20'
p437
sg27
(ischedule
Group
p438
(dp439
g8
g429
sg30
S'Programmeren in Java 24'
p440
sbsg32
g120
sg37
g94
sg39
g67
sg30
S'Programmeren in Java 2'
p441
sba(ischedule
Activity
p442
(dp443
g8
(lp444
S'25330192'
p445
aS'52311353'
p446
ag306
ag114
ag346
aS'99453514'
p447
aS'17823206'
p448
aS'68360259'
p449
ag352
asg25
S'10'
p450
sg27
(ischedule
Group
p451
(dp452
g8
g444
sg30
S'Data Mining2'
p453
sbsg32
g190
sg37
g38
sg39
g40
sg30
S'Data Mining'
p454
sba(ischedule
Activity
p455
(dp456
g8
(lp457
S'41790793'
p458
aS'43902015'
p459
aS'49908313'
p460
aS'94930277'
p461
aS'28358060'
p462
aS'3474870'
p463
aS'76903244'
p464
aS'69459473'
p465
aS'6249823'
p466
ag329
aS'77392404'
p467
ag420
ag421
aS'40434933'
p468
ag372
aS'76648468'
p469
ag232
aS'20618153'
p470
ag247
aS'39230359'
p471
asg25
S'20'
p472
sg27
(ischedule
Group
p473
(dp474
g8
g457
sg30
S'Webprogrammeren en databases1'
p475
sbsg32
g90
sg37
g38
sg39
g125
sg30
S'Webprogrammeren en databases'
p476
sba(ischedule
Activity
p477
(dp478
g8
(lp479
g131
aS'3685034'
p480
aS'67625383'
p481
ag45
aS'90067329'
p482
aS'94467156'
p483
aS'26857113'
p484
ag367
aS'37744525'
p485
aS'56988998'
p486
ag410
ag210
ag280
ag182
aS'23798155'
p487
ag413
ag382
aS'33252501'
p488
ag102
ag130
aS'61518436'
p489
ag148
asg25
I1000
sg27
Nsg32
g359
sg37
g124
sg39
g125
sg30
S'Machine Learning'
p490
sba(ischedule
Activity
p491
(dp492
g8
(lp493
S'78822885'
p494
ag277
ag104
aS'88737765'
p495
aS'72586808'
p496
aS'51542218'
p497
ag228
aS'13718298'
p498
ag81
ag304
aS'82854435'
p499
aS'78821918'
p500
ag446
aS'5085194'
p501
aS'83443653'
p502
aS'97838175'
p503
aS'73350019'
p504
ag202
aS'34900967'
p505
aS'18266644'
p506
ag421
aS'62613937'
p507
ag152
aS'65318664'
p508
ag222
aS'70193386'
p509
aS'36785409'
p510
aS'60661905'
p511
aS'14637758'
p512
ag21
ag261
ag423
aS'87830198'
p513
aS'42115591'
p514
ag179
ag255
aS'4921119'
p515
aS'41578612'
p516
aS'18477924'
p517
ag252
ag107
ag282
ag223
ag305
ag487
aS'94955328'
p518
aS'58480929'
p519
aS'72456780'
p520
ag342
asg25
I1000
sg27
Nsg32
g63
sg37
g124
sg39
g125
sg30
S'Analysemethoden en -technieken'
p521
sbaa(lp522
(ischedule
Activity
p523
(dp524
g8
(lp525
g99
ag102
ag105
ag107
ag110
ag113
ag116
ag119
asg25
S'10'
p526
sg27
(ischedule
Group
p527
(dp528
g8
g525
sg30
S'Autonomous Agents 21'
p529
sbsg32
g359
sg37
g38
sg39
g125
sg30
g126
sba(ischedule
Activity
p530
(dp531
g8
g296
sg25
g374
sg27
g310
sg32
g120
sg37
g38
sg39
g95
sg30
g317
sba(ischedule
Activity
p532
(dp533
g8
(lp534
S'37419523'
p535
aS'34691309'
p536
aS'90103047'
p537
ag23
ag160
aS'40911986'
p538
aS'81116418'
p539
aS'19662602'
p540
aS'12430748'
p541
ag82
ag164
aS'89338938'
p542
aS'2550487'
p543
aS'21070547'
p544
ag134
asg25
S'15'
p545
sg27
(ischedule
Group
p546
(dp547
g8
g534
sg30
S'Project Numerical Recipes2'
p548
sbsg32
g33
sg37
g94
sg39
g40
sg30
S'Project Numerical Recipes'
p549
sba(ischedule
Activity
p550
(dp551
g8
(lp552
g409
aS'97136582'
p553
ag57
aS'93023961'
p554
ag281
aS'87314964'
p555
aS'59753700'
p556
ag101
ag73
asg25
g450
sg27
(ischedule
Group
p557
(dp558
g8
g552
sg30
S'Data Mining1'
p559
sbsg32
g90
sg37
g38
sg39
g125
sg30
g454
sba(ischedule
Activity
p560
(dp561
g8
g552
sg25
S'10'
p562
sg27
g557
sg32
g63
sg37
g94
sg39
g125
sg30
g454
sba(ischedule
Activity
p563
(dp564
g8
(lp565
g458
aS'43460038'
p566
ag459
ag383
ag460
aS'14847953'
p567
ag461
ag20
ag462
aS'53512831'
p568
ag463
aS'24891081'
p569
ag464
ag134
ag465
aS'66034145'
p570
ag466
aS'16333449'
p571
ag329
ag173
ag467
ag14
ag420
aS'10698627'
p572
ag421
ag18
ag468
aS'2416751'
p573
ag372
aS'22288615'
p574
ag469
ag273
ag232
aS'17092717'
p575
ag470
aS'1137946'
p576
ag247
aS'67073567'
p577
ag471
asg25
I1000
sg27
Nsg32
g289
sg37
g124
sg39
g40
sg30
g476
sba(ischedule
Activity
p578
(dp579
g8
(lp580
g198
ag153
ag280
ag11
ag18
ag82
aS'36903574'
p581
aS'93566383'
p582
ag214
ag484
aS'37399898'
p583
aS'23257088'
p584
aS'99272880'
p585
ag55
aS'28943658'
p586
aS'41153310'
p587
ag413
aS'34262212'
p588
asg25
g437
sg27
(ischedule
Group
p589
(dp590
g8
g580
sg30
S'Programmeren in Java 23'
p591
sbsg32
(iread_data3
Room
p592
(dp593
g25
S'41'
p594
sg30
S'A1.04'
p595
sbsg37
g94
sg39
g95
sg30
g441
sbaa(lp596
(ischedule
Activity
p597
(dp598
g8
(lp599
S'76393508'
p600
ag172
aS'81218347'
p601
ag581
aS'71839156'
p602
aS'14941752'
p603
ag502
aS'79879876'
p604
ag74
ag47
ag104
aS'4353500'
p605
aS'92977271'
p606
aS'97417002'
p607
ag249
ag461
aS'56749879'
p608
aS'45660925'
p609
ag373
aS'13658563'
p610
ag244
ag117
asg25
g355
sg27
(ischedule
Group
p611
(dp612
g8
g599
sg30
S'Heuristieken 12'
p613
sbsg32
g190
sg37
g38
sg39
g40
sg30
g363
sba(ischedule
Activity
p614
(dp615
g8
g366
sg25
g309
sg27
g375
sg32
g359
sg37
g94
sg39
g125
sg30
g317
sba(ischedule
Activity
p616
(dp617
g8
(lp618
S'19540225'
p619
ag332
aS'52715680'
p620
ag410
aS'40343779'
p621
aS'23983476'
p622
aS'21095566'
p623
ag219
ag254
ag111
ag349
aS'67817269'
p624
ag57
ag280
aS'3707829'
p625
aS'64947290'
p626
ag135
ag414
aS'41527759'
p627
ag386
aS'8522855'
p628
aS'41585485'
p629
asg25
S'25'
p630
sg27
(ischedule
Group
p631
(dp632
g8
g618
sg30
S'Algoritmen en complexiteit1'
p633
sbsg32
g120
sg37
g94
sg39
g125
sg30
S'Algoritmen en complexiteit'
p634
sba(ischedule
Activity
p635
(dp636
g8
(lp637
g99
aS'40633534'
p638
ag174
ag628
aS'82066165'
p639
aS'5526560'
p640
ag272
ag513
ag500
ag137
aS'84449005'
p641
aS'55480737'
p642
asg25
S'15'
p643
sg27
(ischedule
Group
p644
(dp645
g8
g637
sg30
S'Project Genetic Algorithms2'
p646
sbsg32
g63
sg37
g94
sg39
g40
sg30
S'Project Genetic Algorithms'
p647
sba(ischedule
Activity
p648
(dp649
g8
(lp650
g465
ag423
ag208
ag72
aS'51673172'
p651
aS'14398123'
p652
ag200
ag516
ag184
ag256
ag250
aS'74361881'
p653
asg25
g643
sg27
(ischedule
Group
p654
(dp655
g8
g650
sg30
S'Project Genetic Algorithms3'
p656
sbsg32
g33
sg37
g94
sg39
g95
sg30
g647
sba(ischedule
Activity
p657
(dp658
g8
(lp659
g265
ag178
ag604
ag158
ag46
ag186
ag229
aS'66433883'
p660
aS'33776961'
p661
ag485
ag515
aS'92778619'
p662
ag231
ag75
ag206
ag73
ag629
aS'44671041'
p663
asg25
g437
sg27
(ischedule
Group
p664
(dp665
g8
g659
sg30
S'Programmeren in Java 26'
p666
sbsg32
(iread_data3
Room
p667
(dp668
g25
S'20'
p669
sg30
S'A1.08'
p670
sbsg37
g94
sg39
S'6'
p671
sg30
g441
sba(ischedule
Activity
p672
(dp673
g8
(lp674
g287
ag518
ag189
aS'38499176'
p675
ag224
ag573
ag470
ag323
aS'4709948'
p676
ag574
aS'23215240'
p677
ag448
ag382
ag269
aS'90296821'
p678
aS'85284256'
p679
aS'1048485'
p680
aS'51593625'
p681
ag418
asg25
g437
sg27
(ischedule
Group
p682
(dp683
g8
g674
sg30
S'Programmeren in Java 21'
p684
sbsg32
(iread_data3
Room
p685
(dp686
g25
g399
sg30
g400
sbsg37
g94
sg39
g125
sg30
g441
sbaaa(lp687
(lp688
(ischedule
Activity
p689
(dp690
g8
(lp691
g299
aS'32183908'
p692
ag204
aS'28618400'
p693
ag22
ag141
ag146
ag145
aS'75005528'
p694
ag185
aS'13996448'
p695
aS'42406214'
p696
ag105
ag143
ag240
asg25
g545
sg27
(ischedule
Group
p697
(dp698
g8
g691
sg30
S'Project Numerical Recipes1'
p699
sbsg32
g359
sg37
g94
sg39
g125
sg30
g549
sba(ischedule
Activity
p700
(dp701
g8
(lp702
g199
ag201
ag203
ag148
ag111
ag210
ag213
ag216
ag219
ag221
ag224
ag227
ag229
ag232
ag235
ag238
ag241
ag244
ag247
ag250
ag253
ag187
ag258
ag261
ag16
ag265
ag268
ag271
ag273
ag276
ag146
ag280
ag282
ag284
ag287
asg25
S'40'
p703
sg27
(ischedule
Group
p704
(dp705
g8
g702
sg30
S'Calculus 22'
p706
sbsg32
g289
sg37
g38
sg39
g40
sg30
g293
sba(ischedule
Activity
p707
(dp708
g8
(lp709
g116
ag622
ag306
ag610
aS'13116738'
p710
ag606
ag584
ag24
aS'17496687'
p711
aS'77636749'
p712
asg25
S'15'
p713
sg27
(ischedule
Group
p714
(dp715
g8
g709
sg30
S'Informatie- en organsatieontwerp2'
p716
sbsg32
g63
sg37
g38
sg39
g40
sg30
S'Informatie- en organsatieontwerp'
p717
sba(ischedule
Activity
p718
(dp719
g8
(lp720
g509
ag71
aS'70844780'
p721
ag302
ag498
ag662
ag513
aS'22826928'
p722
aS'78136904'
p723
aS'36213792'
p724
ag210
ag516
ag260
aS'51052738'
p725
aS'51415617'
p726
aS'27805666'
p727
ag421
asg25
S'20'
p728
sg27
(ischedule
Group
p729
(dp730
g8
g720
sg30
S'Reflectie op de digitale cultuur3'
p731
sbsg32
g120
sg37
g38
sg39
g95
sg30
S'Reflectie op de digitale cultuur'
p732
sba(ischedule
Activity
p733
(dp734
g8
(lp735
g85
ag132
aS'27241113'
p736
aS'18144425'
p737
ag641
aS'51650744'
p738
ag297
aS'48198668'
p739
ag676
aS'58332004'
p740
ag284
aS'41489515'
p741
ag345
ag15
aS'49631542'
p742
ag251
ag257
ag167
asg25
S'20'
p743
sg27
(ischedule
Group
p744
(dp745
g8
g735
sg30
S'Moderne Databases1'
p746
sbsg32
g190
sg37
g38
sg39
g125
sg30
g394
sba(ischedule
Activity
p747
(dp748
g8
(lp749
g325
ag383
ag238
ag329
aS'59289233'
p750
aS'72683344'
p751
aS'29718115'
p752
ag332
ag147
ag354
ag566
ag487
ag131
aS'13798030'
p753
ag468
aS'58866007'
p754
ag200
ag341
ag151
ag693
aS'70015932'
p755
asg25
I1000
sg27
Nsg32
(iread_data3
Room
p756
(dp757
g25
g669
sg30
g670
sbsg37
g124
sg39
g125
sg30
S'Architectuur en computerorganisatie'
p758
sba(ischedule
Activity
p759
(dp760
g8
(lp761
g20
ag202
ag204
ag206
ag208
ag211
ag214
ag217
ag186
ag222
ag225
ag228
ag230
ag233
ag236
ag239
ag242
ag245
ag248
ag251
ag254
ag256
ag259
ag76
ag263
ag266
ag269
ag272
ag274
ag13
ag278
ag281
ag283
ag285
ag288
asg25
g703
sg27
(ischedule
Group
p762
(dp763
g8
g761
sg30
S'Calculus 23'
p764
sbsg32
(iread_data3
Room
p765
(dp766
g25
S'22'
p767
sg30
S'A1.06'
p768
sbsg37
g38
sg39
g95
sg30
g293
sbaa(lp769
(ischedule
Activity
p770
(dp771
g8
(lp772
S'32204977'
p773
ag466
ag163
ag435
ag141
ag327
ag542
ag516
aS'92496780'
p774
ag156
ag47
ag50
ag75
aS'14383795'
p775
ag468
aS'70336464'
p776
ag302
ag712
aS'58565406'
p777
asg25
S'20'
p778
sg27
(ischedule
Group
p779
(dp780
g8
g772
sg30
S'Technology for games1'
p781
sbsg32
g120
sg37
g38
sg39
g125
sg30
S'Technology for games'
p782
sba(ischedule
Activity
p783
(dp784
g8
(lp785
g176
ag370
ag543
aS'76924297'
p786
ag583
ag166
aS'69634191'
p787
aS'37701751'
p788
ag243
ag414
ag50
aS'28055464'
p789
aS'21677389'
p790
ag625
ag235
ag570
aS'44828429'
p791
ag582
aS'19214659'
p792
aS'20374340'
p793
ag567
ag276
ag135
aS'64768422'
p794
aS'65675896'
p795
asg25
I1000
sg27
Nsg32
g289
sg37
g124
sg39
g125
sg30
S'Interactie-ontwerp'
p796
sba(ischedule
Activity
p797
(dp798
g8
(lp799
S'45414528'
p800
ag710
ag117
aS'98780382'
p801
aS'91196968'
p802
ag485
aS'19337738'
p803
ag695
ag370
asg25
g450
sg27
(ischedule
Group
p804
(dp805
g8
g799
sg30
S'Data Mining3'
p806
sbsg32
g359
sg37
g38
sg39
g95
sg30
g454
sba(ischedule
Activity
p807
(dp808
g8
(lp809
g162
ag53
aS'27916487'
p810
aS'47462856'
p811
aS'59111489'
p812
ag282
aS'36527838'
p813
ag234
ag10
aS'66621166'
p814
ag661
ag229
ag500
ag420
ag271
aS'13218321'
p815
ag47
aS'96082155'
p816
asg25
g743
sg27
(ischedule
Group
p817
(dp818
g8
g809
sg30
S'Moderne Databases3'
p819
sbsg32
g33
sg37
g38
sg39
g95
sg30
g394
sba(ischedule
Activity
p820
(dp821
g8
g809
sg25
g390
sg27
g817
sg32
g90
sg37
g94
sg39
g95
sg30
g394
sba(ischedule
Activity
p822
(dp823
g8
(lp824
g367
ag244
ag297
ag368
aS'96453361'
p825
ag248
ag269
ag17
ag298
ag173
ag282
ag299
ag213
ag286
ag300
ag333
aS'30195935'
p826
ag301
ag203
ag174
ag302
ag369
ag260
ag229
ag370
aS'247918'
p827
ag303
ag371
aS'3168419'
p828
ag304
ag109
ag23
ag305
ag372
ag722
ag114
ag373
aS'28359697'
p829
ag306
ag73
ag160
ag307
ag138
ag608
ag308
asg25
I1000
sg27
Nsg32
(iread_data3
Room
p830
(dp831
g25
g594
sg30
g595
sbsg37
g124
sg39
g95
sg30
g317
sbaa(lp832
(ischedule
Activity
p833
(dp834
g8
(lp835
g131
ag102
ag134
ag136
ag12
ag139
ag141
ag143
ag100
ag146
ag148
ag150
ag152
ag154
ag156
ag158
ag160
ag162
ag72
ag165
ag167
ag17
ag169
ag171
ag172
ag174
ag176
ag11
ag178
ag180
ag182
ag184
ag186
ag188
asg25
S'40'
p836
sg27
(ischedule
Group
p837
(dp838
g8
g835
sg30
S'Compilerbouw2'
p839
sbsg32
g63
sg37
g38
sg39
g40
sg30
g194
sba(ischedule
Activity
p840
(dp841
g8
(lp842
g264
ag603
ag303
aS'32044893'
p843
aS'84110134'
p844
ag480
ag304
ag48
aS'63939720'
p845
ag792
aS'63573738'
p846
ag409
ag142
ag249
asg25
g545
sg27
(ischedule
Group
p847
(dp848
g8
g842
sg30
S'Project Numerical Recipes3'
p849
sbsg32
g33
sg37
g94
sg39
g95
sg30
g549
sba(ischedule
Activity
p850
(dp851
g8
(lp852
g163
ag116
ag47
ag622
ag506
ag306
aS'11459236'
p853
ag610
ag752
ag710
ag387
ag606
aS'8557857'
p854
ag584
aS'19958553'
p855
ag24
ag740
ag711
ag245
ag712
ag773
asg25
I1000
sg27
Nsg32
g190
sg37
g124
sg39
g125
sg30
g717
sba(ischedule
Activity
p856
(dp857
g8
(lp858
g252
ag285
aS'39429093'
p859
ag329
aS'60352393'
p860
ag693
ag411
ag567
ag307
ag50
ag721
ag751
ag249
ag828
ag175
ag507
ag247
ag638
ag723
ag206
asg25
I1000
sg27
Nsg32
g90
sg37
g124
sg39
g125
sg30
S'Advanced Heuristics'
p861
sba(ischedule
Activity
p862
(dp863
g8
g565
sg25
I1000
sg27
Nsg32
g359
sg37
g124
sg39
g125
sg30
g476
sba(ischedule
Activity
p864
(dp865
g8
(lp866
g331
ag853
aS'64418623'
p867
aS'42297781'
p868
ag299
aS'41644639'
p869
ag224
aS'55103073'
p870
aS'25994016'
p871
ag602
ag585
aS'5892092'
p872
ag327
asg25
S'15'
p873
sg27
(ischedule
Group
p874
(dp875
g8
g866
sg30
S'Compilerbouw practicum2'
p876
sbsg32
(iread_data3
Room
p877
(dp878
g25
S'48'
p879
sg30
S'B0.201'
p880
sbsg37
g94
sg39
g40
sg30
S'Compilerbouw practicum'
p881
sba(ischedule
Activity
p882
(dp883
g8
(lp884
g432
ag99
ag283
ag248
ag802
ag115
ag108
ag350
ag19
ag164
aS'80998260'
p885
aS'83210352'
p886
aS'54074680'
p887
aS'21311067'
p888
ag571
ag582
ag813
aS'96118484'
p889
ag15
ag55
ag253
aS'90743504'
p890
ag264
aS'16011419'
p891
ag222
aS'80709893'
p892
ag179
ag602
ag675
ag463
ag514
aS'66570705'
p893
ag515
ag754
ag211
aS'79937969'
p894
ag107
ag446
ag141
ag326
ag135
ag518
ag333
ag244
ag583
ag694
ag11
ag516
ag601
aS'34588570'
p895
aS'26172512'
p896
aS'32595335'
p897
ag424
ag238
asg25
I1000
sg27
Nsg32
(iread_data3
Room
p898
(dp899
g25
g399
sg30
g400
sbsg37
g124
sg39
g40
sg30
S'Lineaire Algebra'
p900
sbaa(lp901
(ischedule
Activity
p902
(dp903
g8
(lp904
g584
ag101
aS'77960666'
p905
ag151
aS'54540997'
p906
aS'26207525'
p907
aS'25077484'
p908
ag345
ag253
aS'91527663'
p909
aS'13132925'
p910
ag626
ag21
aS'15187217'
p911
aS'27123462'
p912
ag424
ag14
ag189
ag269
ag332
ag297
ag860
ag500
aS'56121590'
p913
aS'59397895'
p914
ag501
ag575
ag694
ag15
ag85
ag84
ag742
ag146
ag327
ag608
aS'90474003'
p915
asg25
S'40'
p916
sg27
(ischedule
Group
p917
(dp918
g8
g904
sg30
S'Databases 22'
p919
sbsg32
g289
sg37
g38
sg39
g40
sg30
S'Databases 2'
p920
sba(ischedule
Activity
p921
(dp922
g8
g824
sg25
I1000
sg27
Nsg32
g63
sg37
g124
sg39
g125
sg30
g317
sba(ischedule
Activity
p923
(dp924
g8
(lp925
g409
ag445
ag800
ag553
ag446
ag710
ag57
ag306
ag117
ag554
ag114
ag801
ag281
ag346
ag802
ag555
ag447
ag485
ag556
ag448
ag803
ag101
ag449
ag695
ag73
ag352
ag370
asg25
I1000
sg27
Nsg32
g90
sg37
g124
sg39
g40
sg30
g454
sba(ischedule
Activity
p926
(dp927
g8
g457
sg25
S'20'
p928
sg27
g473
sg32
g190
sg37
g94
sg39
g125
sg30
g476
sba(ischedule
Activity
p929
(dp930
g8
(lp931
g130
ag132
ag133
ag135
ag137
ag138
ag140
ag142
ag144
ag145
ag147
ag149
ag151
ag153
ag155
ag157
ag159
ag161
ag163
ag164
ag166
ag82
ag168
ag170
ag113
ag173
ag175
ag177
ag48
ag179
ag181
ag183
ag185
ag187
ag189
asg25
S'40'
p932
sg27
(ischedule
Group
p933
(dp934
g8
g931
sg30
S'Compilerbouw1'
p935
sbsg32
(iread_data3
Room
p936
(dp937
g25
g879
sg30
g880
sbsg37
g94
sg39
g125
sg30
g194
sba(ischedule
Activity
p938
(dp939
g8
(lp940
g101
ag104
ag106
ag109
ag112
ag115
ag118
asg25
S'10'
p941
sg27
(ischedule
Group
p942
(dp943
g8
g940
sg30
S'Autonomous Agents 23'
p944
sbsg32
(iread_data3
Room
p945
(dp946
g25
g767
sg30
g768
sbsg37
g94
sg39
g95
sg30
g126
sbaa(lp947
(ischedule
Activity
p948
(dp949
g8
g404
sg25
I1000
sg27
Nsg32
g33
sg37
g124
sg39
g95
sg30
g41
sba(ischedule
Activity
p950
(dp951
g8
(lp952
g913
ag467
ag279
ag156
ag344
ag78
aS'535689'
p953
ag679
aS'53267490'
p954
ag368
aS'123355'
p955
ag485
ag506
ag179
ag381
ag135
asg25
S'20'
p956
sg27
(ischedule
Group
p957
(dp958
g8
g952
sg30
S'Netwerken en systeembeveiliging1'
p959
sbsg32
g359
sg37
g94
sg39
g125
sg30
S'Netwerken en systeembeveiliging'
p960
sba(ischedule
Activity
p961
(dp962
g8
g931
sg25
g836
sg27
g933
sg32
g90
sg37
g38
sg39
g125
sg30
g194
sba(ischedule
Activity
p963
(dp964
g8
(lp965
g844
ag777
aS'14072826'
p966
ag886
ag274
ag57
ag446
ag261
ag170
aS'14671406'
p967
ag79
ag430
aS'96554914'
p968
ag508
ag623
ag373
ag112
ag219
ag207
ag167
ag386
ag383
ag542
aS'58074656'
p969
ag113
ag149
ag420
ag498
ag514
ag621
ag251
ag322
aS'37830626'
p970
ag483
aS'82872148'
p971
ag346
ag892
ag410
asg25
S'40'
p972
sg27
(ischedule
Group
p973
(dp974
g8
g965
sg30
S'Software engineering1'
p975
sbsg32
g190
sg37
g38
sg39
g125
sg30
S'Software engineering'
p976
sba(ischedule
Activity
p977
(dp978
g8
(lp979
g231
ag755
ag680
ag350
ag627
aS'9287708'
p980
ag99
ag276
ag663
ag299
ag49
ag372
aS'31103066'
p981
ag48
ag105
ag566
ag104
ag300
ag213
aS'31247305'
p982
ag620
ag80
ag84
ag184
ag385
ag160
ag432
ag681
ag228
aS'3727435'
p983
aS'31633723'
p984
ag109
ag369
ag587
ag334
ag301
ag485
asg25
g972
sg27
(ischedule
Group
p985
(dp986
g8
g979
sg30
S'Software engineering2'
p987
sbsg32
g120
sg37
g38
sg39
g40
sg30
g976
sba(ischedule
Activity
p988
(dp989
g8
(lp990
g480
ag117
ag509
ag620
ag915
ag71
ag905
aS'82390428'
p991
ag721
aS'27370083'
p992
ag661
ag302
ag843
ag641
ag498
ag610
ag860
ag662
ag447
ag676
ag513
ag184
ag371
ag722
ag467
ag104
ag723
aS'49922855'
p993
ag511
ag724
aS'20095994'
p994
ag510
ag210
ag419
ag968
ag516
aS'68286356'
p995
ag489
ag260
ag696
ag22
ag725
ag556
aS'20239127'
p996
ag726
aS'54569540'
p997
ag189
ag727
ag583
ag168
ag421
asg25
I1000
sg27
Nsg32
g289
sg37
g124
sg39
g40
sg30
g732
sba(ischedule
Activity
p998
(dp999
g8
g444
sg25
g562
sg27
g451
sg32
g63
sg37
g94
sg39
g40
sg30
g454
sbaaa(lp1000
(lp1001
(ischedule
Activity
p1002
(dp1003
g8
g70
sg25
g26
sg27
g87
sg32
g190
sg37
g38
sg39
g95
sg30
g41
sba(ischedule
Activity
p1004
(dp1005
g8
(lp1006
g100
ag103
ag15
ag108
ag111
ag114
ag117
asg25
g526
sg27
(ischedule
Group
p1007
(dp1008
g8
g1006
sg30
S'Autonomous Agents 22'
p1009
sbsg32
g33
sg37
g38
sg39
g40
sg30
g126
sba(ischedule
Activity
p1010
(dp1011
g8
g525
sg25
g941
sg27
g527
sg32
g90
sg37
g94
sg39
g125
sg30
g126
sba(ischedule
Activity
p1012
(dp1013
g8
(lp1014
g118
ag271
ag102
aS'39905995'
p1015
aS'10702778'
p1016
aS'7386961'
p1017
ag572
ag622
ag148
aS'64053722'
p1018
ag608
ag722
aS'73893840'
p1019
ag800
ag142
ag740
ag511
aS'73196865'
p1020
ag606
asg25
g437
sg27
(ischedule
Group
p1021
(dp1022
g8
g1014
sg30
S'Programmeren in Java 22'
p1023
sbsg32
g63
sg37
g94
sg39
g40
sg30
g441
sba(ischedule
Activity
p1024
(dp1025
g8
(lp1026
g619
ag136
ag332
ag134
ag620
ag967
ag410
aS'88596522'
p1027
ag621
aS'51509565'
p1028
ag622
ag284
ag623
ag73
ag219
ag331
ag254
aS'23652927'
p1029
ag111
ag270
ag349
ag463
ag624
ag723
ag57
ag825
ag280
ag101
ag625
ag189
ag626
ag791
ag135
ag660
ag414
ag581
ag627
ag909
ag386
aS'64554442'
p1030
ag628
ag459
ag629
asg25
I1000
sg27
Nsg32
g289
sg37
g124
sg39
g125
sg30
g634
sba(ischedule
Activity
p1031
(dp1032
g8
(lp1033
g214
ag483
ag982
ag269
ag148
ag288
ag487
ag608
ag342
aS'82688900'
p1034
ag113
ag506
ag17
aS'38329455'
p1035
ag585
ag480
ag369
aS'10872825'
p1036
aS'51186803'
p1037
ag984
aS'79858178'
p1038
aS'37498675'
p1039
ag264
ag627
ag629
aS'91139627'
p1040
ag157
ag588
ag226
ag307
ag997
ag45
ag227
ag224
ag514
aS'97371272'
p1041
ag232
aS'47605891'
p1042
aS'39919665'
p1043
aS'69086548'
p1044
ag486
aS'63408522'
p1045
ag471
ag740
ag244
aS'39659121'
p1046
ag967
ag723
ag786
ag652
ag844
ag275
aS'44940353'
p1047
ag802
ag712
ag489
aS'79366078'
p1048
ag303
ag265
aS'72547110'
p1049
ag675
ag77
ag179
ag601
ag581
aS'63955238'
p1050
ag432
ag21
ag497
ag518
ag344
ag742
aS'7492204'
p1051
ag628
ag257
ag996
ag542
aS'65003379'
p1052
ag168
ag436
ag341
ag176
ag811
ag448
asg25
I1000
sg27
Nsg32
(iread_data3
Room
p1053
(dp1054
g25
g879
sg30
g880
sbsg37
g124
sg39
g40
sg30
S'Kansrekenen 2'
p1055
sba(ischedule
Activity
p1056
(dp1057
g8
(lp1058
g459
ag584
ag11
ag101
aS'58083680'
p1059
ag905
ag203
ag151
ag230
ag906
ag497
ag907
ag71
ag908
ag165
ag345
ag788
ag253
ag81
ag909
ag333
ag910
ag740
ag626
ag112
ag21
ag515
ag911
ag417
ag912
ag240
ag424
ag206
ag14
ag255
ag189
ag349
ag269
aS'56191333'
p1060
ag332
ag283
ag297
ag520
ag860
ag100
ag500
ag102
ag913
aS'62736669'
p1061
ag914
ag216
ag501
ag22
ag575
ag828
ag694
ag827
ag15
ag220
ag85
aS'4529208'
p1062
ag84
ag640
ag742
ag256
ag146
ag384
ag327
ag284
ag608
ag468
ag915
asg25
I1000
sg27
Nsg32
(iread_data3
Room
p1063
(dp1064
g25
g315
sg30
g316
sbsg37
g124
sg39
g125
sg30
g920
sbaa(lp1065
(ischedule
Activity
p1066
(dp1067
g8
g824
sg25
I1000
sg27
Nsg32
g90
sg37
g124
sg39
g40
sg30
g317
sba(ischedule
Activity
p1068
(dp1069
g8
(lp1070
g198
ag200
ag107
ag205
ag207
ag209
ag212
ag215
ag218
ag220
ag223
ag226
ag166
ag231
ag234
ag237
ag240
ag243
ag246
ag249
ag252
ag255
ag257
ag260
ag262
ag264
ag267
ag270
ag79
ag275
ag277
ag279
ag138
ag147
ag286
ag157
asg25
g703
sg27
(ischedule
Group
p1071
(dp1072
g8
g1070
sg30
S'Calculus 21'
p1073
sbsg32
g289
sg37
g38
sg39
g125
sg30
g293
sba(ischedule
Activity
p1074
(dp1075
g8
(lp1076
g117
ag915
ag991
ag661
ag641
ag860
ag676
ag371
ag104
ag511
ag510
ag968
ag489
ag22
ag996
ag189
ag168
asg25
g728
sg27
(ischedule
Group
p1077
(dp1078
g8
g1076
sg30
S'Reflectie op de digitale cultuur2'
p1079
sbsg32
g359
sg37
g38
sg39
g40
sg30
g732
sbaa(lp1080
(ischedule
Activity
p1081
(dp1082
g8
g884
sg25
I1000
sg27
Nsg32
g90
sg37
g124
sg39
g125
sg30
g900
sba(ischedule
Activity
p1083
(dp1084
g8
g940
sg25
g526
sg27
g942
sg32
g359
sg37
g38
sg39
g95
sg30
g126
sba(ischedule
Activity
p1085
(dp1086
g8
(lp1087
g341
ag600
ag116
ag172
ag342
ag601
ag343
ag581
ag252
ag602
ag344
ag603
ag79
ag502
ag103
ag604
ag345
ag74
ag78
ag47
ag346
ag104
ag347
ag605
ag10
ag606
ag348
ag607
ag349
ag249
ag350
ag461
ag228
ag608
ag351
ag609
ag352
ag373
ag353
ag610
ag354
ag244
ag203
ag117
asg25
I1000
sg27
Nsg32
g63
sg37
g124
sg39
g125
sg30
g363
sba(ischedule
Activity
p1088
(dp1089
g8
(lp1090
g244
ag825
ag17
ag282
ag286
ag826
ag174
ag260
ag827
ag828
ag23
ag722
ag829
ag160
ag608
asg25
g374
sg27
(ischedule
Group
p1091
(dp1092
g8
g1090
sg30
S'Bioinformatica2'
p1093
sbsg32
g120
sg37
g38
sg39
g40
sg30
g317
sba(ischedule
Activity
p1094
(dp1095
g8
g479
sg25
I1000
sg27
Nsg32
(iread_data3
Room
p1096
(dp1097
g25
g594
sg30
g595
sbsg37
g124
sg39
g40
sg30
g490
sba(ischedule
Activity
p1098
(dp1099
g8
g785
sg25
I1000
sg27
Nsg32
(iread_data3
Room
p1100
(dp1101
g25
g399
sg30
g400
sbsg37
g124
sg39
g40
sg30
g796
sbaa(lp1102
(ischedule
Activity
p1103
(dp1104
g8
(lp1105
g773
aS'4697362'
p1106
ag466
aS'93041523'
p1107
ag163
ag408
ag435
aS'21192048'
p1108
ag141
ag238
ag327
ag346
ag542
ag1041
ag516
aS'77264363'
p1109
ag774
ag1044
ag156
ag188
ag47
ag282
ag50
ag510
ag75
ag116
ag775
ag136
ag468
ag117
ag776
ag541
ag302
ag167
ag712
ag345
ag777
aS'76487754'
p1110
asg25
I1000
sg27
Nsg32
g120
sg37
g124
sg39
g40
sg30
g782
sba(ischedule
Activity
p1111
(dp1112
g8
(lp1113
g384
ag802
ag1051
ag505
ag905
aS'12782624'
p1114
aS'54395877'
p1115
ag543
aS'51791169'
p1116
ag695
ag626
ag483
ag217
ag255
ag342
ag260
ag268
aS'63096281'
p1117
asg25
g437
sg27
(ischedule
Group
p1118
(dp1119
g8
g1113
sg30
S'Programmeren in Java 25'
p1120
sbsg32
g289
sg37
g94
sg39
S'5'
p1121
sg30
g441
sba(ischedule
Activity
p1122
(dp1123
g8
(lp1124
g163
ag47
ag506
ag853
ag752
ag387
ag854
ag855
ag740
ag245
ag773
asg25
S'15'
p1125
sg27
(ischedule
Group
p1126
(dp1127
g8
g1124
sg30
S'Informatie- en organsatieontwerp1'
p1128
sbsg32
g33
sg37
g94
sg39
g125
sg30
g717
sba(ischedule
Activity
p1129
(dp1130
g8
g380
sg25
g743
sg27
g391
sg32
g359
sg37
g38
sg39
g40
sg30
g394
sba(ischedule
Activity
p1131
(dp1132
g8
(lp1133
g566
ag383
ag567
ag20
ag568
ag569
ag134
ag570
ag571
ag173
ag14
ag572
ag18
ag573
ag574
ag273
ag575
ag576
ag577
asg25
g472
sg27
(ischedule
Group
p1134
(dp1135
g8
g1133
sg30
S'Webprogrammeren en databases2'
p1136
sbsg32
g90
sg37
g38
sg39
g40
sg30
g476
sbaa(lp1137
(ischedule
Activity
p1138
(dp1139
g8
g852
sg25
I1000
sg27
Nsg32
g63
sg37
g124
sg39
g40
sg30
g717
sba(ischedule
Activity
p1140
(dp1141
g8
g709
sg25
g1125
sg27
g714
sg32
g289
sg37
g94
sg39
g40
sg30
g717
sba(ischedule
Activity
p1142
(dp1143
g8
g990
sg25
I1000
sg27
Nsg32
g359
sg37
g124
sg39
g125
sg30
g732
sba(ischedule
Activity
p1144
(dp1145
g8
(lp1146
g982
ag907
aS'16912993'
p1147
aS'5590289'
p1148
aS'12170832'
p1149
aS'64246605'
p1150
ag370
ag308
ag153
ag82
ag846
ag84
ag553
ag520
ag693
ag445
asg25
g956
sg27
(ischedule
Group
p1151
(dp1152
g8
g1146
sg30
S'Netwerken en systeembeveiliging2'
p1153
sbsg32
(iread_data3
Room
p1154
(dp1155
g25
g879
sg30
g880
sbsg37
g94
sg39
g40
sg30
g960
sba(ischedule
Activity
p1156
(dp1157
g8
(lp1158
g252
ag859
ag860
ag411
ag307
ag721
ag249
ag175
ag247
ag723
asg25
S'10'
p1159
sg27
(ischedule
Group
p1160
(dp1161
g8
g1158
sg30
S'Advanced Heuristics1'
p1162
sbsg32
(iread_data3
Room
p1163
(dp1164
g25
g669
sg30
g670
sbsg37
g94
sg39
g125
sg30
g861
sba(ischedule
Activity
p1165
(dp1166
g8
(lp1167
g775
aS'1695839'
p1168
aS'51472074'
p1169
ag273
ag354
ag653
ag675
aS'47260040'
p1170
ag132
ag639
ag171
ag1027
ag285
ag300
asg25
g873
sg27
(ischedule
Group
p1171
(dp1172
g8
g1167
sg30
S'Compilerbouw practicum1'
p1173
sbsg32
(iread_data3
Room
p1174
(dp1175
g25
g594
sg30
g595
sbsg37
g94
sg39
g125
sg30
g881
sbaaa(lp1176
(lp1177
(ischedule
Activity
p1178
(dp1179
g8
(lp1180
g1106
ag1107
ag408
ag1108
ag238
ag346
ag1041
ag1109
ag1044
ag188
ag282
ag510
ag116
ag136
ag117
ag541
ag167
ag345
ag1110
asg25
g778
sg27
(ischedule
Group
p1181
(dp1182
g8
g1180
sg30
S'Technology for games2'
p1183
sbsg32
g289
sg37
g38
sg39
g40
sg30
g782
sba(ischedule
Activity
p1184
(dp1185
g8
g965
sg25
S'40'
p1186
sg27
g973
sg32
g63
sg37
g94
sg39
g125
sg30
g976
sba(ischedule
Activity
p1187
(dp1188
g8
(lp1189
g285
ag329
ag693
ag567
ag50
ag751
ag828
ag507
ag638
ag206
asg25
g1159
sg27
(ischedule
Group
p1190
(dp1191
g8
g1189
sg30
S'Advanced Heuristics2'
p1192
sbsg32
g120
sg37
g94
sg39
g40
sg30
g861
sba(ischedule
Activity
p1193
(dp1194
g8
g735
sg25
g390
sg27
g744
sg32
g359
sg37
g94
sg39
g125
sg30
g394
sba(ischedule
Activity
p1195
(dp1196
g8
(lp1197
g786
ag334
ag871
ag385
ag483
ag59
aS'75680261'
p1198
ag495
ag166
ag869
ag280
ag908
asg25
g643
sg27
(ischedule
Group
p1199
(dp1200
g8
g1197
sg30
S'Project Genetic Algorithms1'
p1201
sbsg32
g33
sg37
g94
sg39
g125
sg30
g647
sba(ischedule
Activity
p1202
(dp1203
g8
g1090
sg25
g309
sg27
g1091
sg32
(iread_data3
Room
p1204
(dp1205
g25
g669
sg30
g670
sbsg37
g94
sg39
g40
sg30
g317
sba(ischedule
Activity
p1206
(dp1207
g8
(lp1208
g581
ag214
ag116
ag23
aS'59887191'
p1209
ag790
ag513
ag605
ag675
ag721
ag332
ag680
aS'19058315'
p1210
ag409
ag628
ag209
asg25
g956
sg27
(ischedule
Group
p1211
(dp1212
g8
g1208
sg30
S'Netwerken en systeembeveiliging4'
p1213
sbsg32
(iread_data3
Room
p1214
(dp1215
g25
g594
sg30
g595
sbsg37
g94
sg39
g67
sg30
g960
sbaa(lp1216
(ischedule
Activity
p1217
(dp1218
g8
(lp1219
g408
ag200
ag272
ag347
ag410
ag343
ag413
ag268
ag416
ag370
ag168
ag419
ag81
ag421
ag423
ag424
asg25
S'20'
p1220
sg27
(ischedule
Group
p1221
(dp1222
g8
g1219
sg30
S'Heuristieken 21'
p1223
sbsg32
g190
sg37
g38
sg39
g125
sg30
g426
sba(ischedule
Activity
p1224
(dp1225
g8
g835
sg25
g932
sg27
g837
sg32
g359
sg37
g94
sg39
g40
sg30
g194
sba(ischedule
Activity
p1226
(dp1227
g8
g979
sg25
g1186
sg27
g985
sg32
g33
sg37
g94
sg39
g40
sg30
g976
sba(ischedule
Activity
p1228
(dp1229
g8
g1133
sg25
g928
sg27
g1134
sg32
g63
sg37
g94
sg39
g40
sg30
g476
sba(ischedule
Activity
p1230
(dp1231
g8
g618
sg25
S'25'
p1232
sg27
g631
sg32
g120
sg37
g38
sg39
g125
sg30
g634
sba(ischedule
Activity
p1233
(dp1234
g8
(lp1235
g136
ag134
ag967
ag1027
ag1028
ag284
ag73
ag331
ag1029
ag270
ag463
ag723
ag825
ag101
ag189
ag791
ag660
ag581
ag909
ag1030
ag459
asg25
g1232
sg27
(ischedule
Group
p1236
(dp1237
g8
g1235
sg30
S'Algoritmen en complexiteit2'
p1238
sbsg32
g289
sg37
g38
sg39
g40
sg30
g634
sba(ischedule
Activity
p1239
(dp1240
g8
g44
sg25
g86
sg27
g60
sg32
(iread_data3
Room
p1241
(dp1242
g25
g669
sg30
g670
sbsg37
g94
sg39
g67
sg30
g41
sbaa(lp1243
(ischedule
Activity
p1244
(dp1245
g8
g98
sg25
I1000
sg27
Nsg32
g190
sg37
g124
sg39
g40
sg30
g126
sba(ischedule
Activity
p1246
(dp1247
g8
(lp1248
g459
ag11
ag1059
ag203
ag230
ag497
ag71
ag165
ag788
ag81
ag333
ag740
ag112
ag515
ag417
ag240
ag206
ag255
ag349
ag1060
ag283
ag520
ag100
ag102
ag1061
ag216
ag22
ag828
ag827
ag220
ag1062
ag640
ag256
ag384
ag284
ag468
asg25
g916
sg27
(ischedule
Group
p1249
(dp1250
g8
g1248
sg30
S'Databases 21'
p1251
sbsg32
g90
sg37
g38
sg39
g125
sg30
g920
sba(ischedule
Activity
p1252
(dp1253
g8
g749
sg25
I1000
sg27
Nsg32
g33
sg37
g124
sg39
g40
sg30
g758
sba(ischedule
Activity
p1254
(dp1255
g8
g129
sg25
I1000
sg27
Nsg32
g289
sg37
g124
sg39
g40
sg30
g194
sba(ischedule
Activity
p1256
(dp1257
g8
(lp1258
g773
ag501
ag254
ag677
ag52
aS'44151631'
p1259
ag953
ag57
ag651
aS'91250534'
p1260
ag620
ag795
ag373
asg25
g873
sg27
(ischedule
Group
p1261
(dp1262
g8
g1258
sg30
S'Compilerbouw practicum3'
p1263
sbsg32
g359
sg37
g94
sg39
g95
sg30
g881
sba(ischedule
Activity
p1264
(dp1265
g8
g925
sg25
I1000
sg27
Nsg32
(iread_data3
Room
p1266
(dp1267
g25
g879
sg30
g880
sbsg37
g124
sg39
g125
sg30
g454
sba(ischedule
Activity
p1268
(dp1269
g8
(lp1270
g409
ag13
ag303
ag224
ag411
ag412
ag414
ag415
ag417
ag418
ag107
ag101
ag420
ag422
ag18
ag425
asg25
g1220
sg27
(ischedule
Group
p1271
(dp1272
g8
g1270
sg30
S'Heuristieken 22'
p1273
sbsg32
(iread_data3
Room
p1274
(dp1275
g25
S'56'
p1276
sg30
S'A1.10'
p1277
sbsg37
g38
sg39
g40
sg30
g426
sbaa(lp1278
(ischedule
Activity
p1279
(dp1280
g8
g404
sg25
I1000
sg27
Nsg32
g90
sg37
g124
sg39
g40
sg30
g41
sba(ischedule
Activity
p1281
(dp1282
g8
(lp1283
g85
ag381
ag162
ag132
ag382
ag53
ag736
ag383
ag810
ag737
ag252
ag811
ag641
ag145
ag812
ag738
ag302
ag282
ag297
ag384
ag813
ag739
ag163
ag234
ag676
ag71
ag10
ag740
ag180
ag814
ag284
ag385
ag661
ag741
ag386
ag229
ag345
ag262
ag500
ag15
ag387
ag420
ag742
ag388
ag271
ag251
ag389
ag815
ag257
ag147
ag47
ag167
ag367
ag816
asg25
I1000
sg27
Nsg32
g190
sg37
g124
sg39
g125
sg30
g394
sba(ischedule
Activity
p1284
(dp1285
g8
g799
sg25
g562
sg27
g804
sg32
(iread_data3
Room
p1286
(dp1287
g25
g879
sg30
g880
sbsg37
g94
sg39
g95
sg30
g454
sba(ischedule
Activity
p1288
(dp1289
g8
g321
sg25
g86
sg27
g335
sg32
(iread_data3
Room
p1290
(dp1291
g25
g399
sg30
g400
sbsg37
g94
sg39
g125
sg30
g41
sba(ischedule
Activity
p1292
(dp1293
g8
(lp1294
g480
ag620
ag905
ag992
ag843
ag610
ag447
ag184
ag467
ag993
ag994
ag419
ag995
ag696
ag556
ag997
ag583
asg25
g728
sg27
(ischedule
Group
p1295
(dp1296
g8
g1294
sg30
S'Reflectie op de digitale cultuur1'
p1297
sbsg32
(iread_data3
Room
p1298
(dp1299
g25
g1276
sg30
g1277
sbsg37
g38
sg39
g125
sg30
g732
sba(ischedule
Activity
p1300
(dp1301
g8
g1033
sg25
I1000
sg27
Nsg32
(iread_data3
Room
p1302
(dp1303
g25
g315
sg30
g316
sbsg37
g124
sg39
g125
sg30
g1055
sbaa(lp1304
(ischedule
Activity
p1305
(dp1306
g8
g1006
sg25
g941
sg27
g1007
sg32
g33
sg37
g94
sg39
g40
sg30
g126
sba(ischedule
Activity
p1307
(dp1308
g8
(lp1309
g971
ag496
ag826
ag16
ag423
ag349
ag652
ag76
ag621
ag676
ag285
ag860
ag185
aS'25557516'
p1310
ag1061
ag1060
asg25
g956
sg27
(ischedule
Group
p1311
(dp1312
g8
g1309
sg30
S'Netwerken en systeembeveiliging3'
p1313
sbsg32
g359
sg37
g94
sg39
g95
sg30
g960
sba(ischedule
Activity
p1314
(dp1315
g8
(lp1316
g844
ag231
ag777
ag755
ag966
ag680
ag886
ag350
ag274
ag627
ag57
ag980
ag446
ag99
ag261
ag276
ag170
ag663
ag967
ag299
ag79
ag49
ag430
ag372
ag968
ag981
ag508
ag48
ag623
ag105
ag373
ag566
ag112
ag104
ag219
ag300
ag207
ag213
ag167
ag982
ag386
ag620
ag383
ag80
ag542
ag84
ag969
ag184
ag113
ag385
ag149
ag160
ag420
ag432
ag498
ag681
ag514
ag228
ag621
ag983
ag251
ag984
ag322
ag109
ag970
ag369
ag483
ag587
ag971
ag334
ag346
ag301
ag892
ag485
ag410
asg25
I1000
sg27
Nsg32
g120
sg37
g124
sg39
g125
sg30
g976
sba(ischedule
Activity
p1317
(dp1318
g8
g1124
sg25
g713
sg27
g1126
sg32
g63
sg37
g38
sg39
g125
sg30
g717
sba(ischedule
Activity
p1319
(dp1320
g8
g1235
sg25
g630
sg27
g1236
sg32
(iread_data3
Room
p1321
(dp1322
g25
g399
sg30
g400
sbsg37
g94
sg39
g40
sg30
g634
sba(ischedule
Activity
p1323
(dp1324
g8
g1105
sg25
I1000
sg27
Nsg32
(iread_data3
Room
p1325
(dp1326
g25
g594
sg30
g595
sbsg37
g124
sg39
g125
sg30
g782
sbaaa(lp1327
(lp1328
a(lp1329
a(lp1330
a(lp1331
a(lp1332
aasS'timeslot_dict'
p1333
(dp1334
I0
S'9:00-11:00'
p1335
sI1
S'11:00-13:00'
p1336
sI2
S'13:00-15:00'
p1337
sI3
S'15:00-17:00'
p1338
sI4
S'17:00-19:00'
p1339
ssS'day_dict'
p1340
(dp1341
I0
S'Monday'
p1342
sI1
S'Tuesday'
p1343
sI2
S'Wednesday'
p1344
sI3
S'Thursday'
p1345
sI4
S'Friday'
p1346
ssb.