(ischedule
Schedule
p0
(dp1
S'timetable'
p2
(lp3
(lp4
(lp5
(ischedule
Activity
p6
(dp7
S'participants'
p8
(lp9
S'42297781'
p10
aS'26406342'
p11
aS'74361881'
p12
aS'88596522'
p13
aS'65675896'
p14
aS'41644639'
p15
aS'14383795'
p16
aS'89985072'
p17
aS'3407554'
p18
aS'535689'
p19
aS'55103073'
p20
aS'14138904'
p21
aS'38499176'
p22
aS'13911001'
p23
aS'72665524'
p24
aS'25994016'
p25
asS'capacity'
p26
S'15'
p27
sS'name'
p28
S'Compilerbouw practicum'
p29
sS'ttype'
p30
S'labs'
p31
sS'group_id'
p32
S'1'
p33
sS'room'
p34
(iread_data
Room
p35
(dp36
g26
S'20'
p37
sg28
S'A1.08'
p38
sbsba(ischedule
Activity
p39
(dp40
g8
(lp41
S'53512831'
p42
aS'24891081'
p43
aS'43902015'
p44
aS'10698627'
p45
aS'67073567'
p46
aS'43460038'
p47
aS'28358060'
p48
aS'27064249'
p49
aS'14303208'
p50
aS'5615125'
p51
aS'72895450'
p52
aS'69459473'
p53
aS'39230359'
p54
aS'94930277'
p55
aS'14847953'
p56
aS'17092717'
p57
aS'57086672'
p58
aS'1137946'
p59
aS'22288615'
p60
aS'76903244'
p61
aS'76123484'
p62
aS'40434933'
p63
aS'64228258'
p64
aS'53202517'
p65
aS'3474870'
p66
aS'89180944'
p67
aS'6249823'
p68
aS'20618153'
p69
aS'78243495'
p70
aS'33877725'
p71
aS'2416751'
p72
aS'72577292'
p73
aS'49908313'
p74
aS'76648468'
p75
aS'77392404'
p76
aS'16333449'
p77
aS'41790793'
p78
aS'61443567'
p79
aS'66034145'
p80
asg26
I1000
sg28
S'Webprogrammeren en databases'
p81
sg30
S'lectures'
p82
sg32
I0
sg34
(iread_data
Room
p83
(dp84
g26
S'48'
p85
sg28
S'B0.201'
p86
sbsba(ischedule
Activity
p87
(dp88
g8
(lp89
S'26172512'
p90
aS'4921119'
p91
aS'37399898'
p92
aS'91196968'
p93
aS'74182182'
p94
aS'62872965'
p95
aS'96118484'
p96
aS'58866007'
p97
aS'75005528'
p98
aS'34243356'
p99
aS'80709893'
p100
aS'21311067'
p101
aS'5517869'
p102
aS'23565001'
p103
aS'71839156'
p104
aS'36508571'
p105
aS'79617364'
p106
aS'10149535'
p107
aS'80998260'
p108
aS'54074680'
p109
aS'670011'
p110
aS'16011419'
p111
aS'94686490'
p112
aS'56872729'
p113
aS'90743504'
p114
aS'66570705'
p115
aS'34588570'
p116
aS'81385263'
p117
ag66
aS'55474917'
p118
aS'87758823'
p119
aS'83210352'
p120
aS'42115591'
p121
aS'61060652'
p122
aS'41578612'
p123
aS'93566383'
p124
aS'79937969'
p125
aS'94955328'
p126
ag22
aS'42196732'
p127
aS'35330349'
p128
aS'48308205'
p129
aS'52311353'
p130
aS'55412918'
p131
aS'36527838'
p132
aS'81218347'
p133
aS'68409833'
p134
aS'77896638'
p135
aS'42778953'
p136
ag77
aS'14591033'
p137
aS'16097870'
p138
aS'32595335'
p139
aS'31416266'
p140
asg26
I1000
sg28
S'Lineaire Algebra'
p141
sg30
g82
sg32
I0
sg34
(iread_data
Room
p142
(dp143
g26
S'117'
p144
sg28
S'C0.110'
p145
sbsba(ischedule
Activity
p146
(dp147
g8
(lp148
S'76924297'
p149
ag14
aS'34765676'
p150
ag56
aS'69634191'
p151
aS'81200278'
p152
aS'23547619'
p153
ag117
aS'3707829'
p154
aS'20374340'
p155
ag92
aS'76661016'
p156
aS'5368702'
p157
aS'21677389'
p158
aS'64768422'
p159
aS'2550487'
p160
aS'28055464'
p161
aS'38179241'
p162
aS'4546613'
p163
aS'44828429'
p164
ag124
aS'37701751'
p165
aS'19214659'
p166
aS'81155296'
p167
ag80
asg26
I1000
sg28
S'Interactie-ontwerp'
p168
sg30
g82
sg32
I0
sg34
(iread_data
Room
p169
(dp170
g26
S'56'
p171
sg28
S'A1.10'
p172
sbsba(ischedule
Activity
p173
(dp174
g8
(lp175
S'77831658'
p176
aS'66120270'
p177
aS'58522654'
p178
aS'6913074'
p179
aS'29526540'
p180
aS'30195935'
p181
aS'70878567'
p182
aS'43680781'
p183
aS'44868097'
p184
aS'6723948'
p185
aS'5298748'
p186
ag127
asg26
S'20'
p187
sg28
S'Bioinformatica'
p188
sg30
S'tutorials'
p189
sg32
g33
sg34
(iread_data
Room
p190
(dp191
g26
S'22'
p192
sg28
S'A1.06'
p193
sbsba(ischedule
Activity
p194
(dp195
g8
(lp196
S'23983476'
p197
aS'36748818'
p198
aS'75521763'
p199
aS'92977271'
p200
aS'68315599'
p201
aS'29718115'
p202
aS'13658563'
p203
aS'13116738'
p204
aS'75585647'
p205
aS'44901052'
p206
aS'18266644'
p207
aS'77636749'
p208
aS'62701040'
p209
aS'32204977'
p210
aS'11459236'
p211
ag182
aS'19958553'
p212
aS'8557857'
p213
asg26
S'15'
p214
sg28
S'Informatie- en organsatieontwerp'
p215
sg30
g31
sg32
S'2'
p216
sg34
(iread_data
Room
p217
(dp218
g26
S'41'
p219
sg28
S'A1.04'
p220
sbsba(ischedule
Activity
p221
(dp222
g8
(lp223
S'32044893'
p224
ag94
aS'22731474'
p225
ag52
ag166
aS'60312776'
p226
aS'13284244'
p227
aS'14941752'
p228
aS'21070547'
p229
aS'73236988'
p230
ag136
ag129
aS'62356458'
p231
aS'3685034'
p232
aS'37419523'
p233
asg26
S'15'
p234
sg28
S'Project Numerical Recipes'
p235
sg30
g31
sg32
S'3'
p236
sg34
(iread_data
Room
p237
(dp238
g26
S'60'
p239
sg28
S'C1.112'
p240
sbsbaa(lp241
(ischedule
Activity
p242
(dp243
g8
(lp244
S'9332762'
p245
aS'69086548'
p246
aS'11996292'
p247
aS'37110913'
p248
ag183
ag206
ag199
aS'31194811'
p249
aS'47982619'
p250
aS'7106649'
p251
aS'4697362'
p252
aS'12077419'
p253
aS'58565406'
p254
ag68
aS'75664412'
p255
ag201
aS'77264363'
p256
ag208
ag11
aS'93041523'
p257
aS'12430748'
p258
aS'36785409'
p259
aS'97371272'
p260
ag123
aS'85335143'
p261
aS'22323043'
p262
ag210
ag63
aS'92496780'
p263
aS'70336464'
p264
ag153
aS'89338938'
p265
aS'14309255'
p266
ag129
ag107
aS'76487754'
p267
aS'21192048'
p268
ag16
asg26
I1000
sg28
S'Technology for games'
p269
sg30
g82
sg32
I0
sg34
g217
sba(ischedule
Activity
p270
(dp271
g8
(lp272
S'56749879'
p273
aS'53775014'
p274
aS'79879876'
p275
aS'76393508'
p276
aS'19858730'
p277
aS'14816774'
p278
aS'31897288'
p279
ag262
aS'97417002'
p280
ag137
aS'66122625'
p281
ag199
aS'48357272'
p282
ag133
aS'42171678'
p283
aS'86807027'
p284
aS'83443653'
p285
aS'97019450'
p286
aS'4783858'
p287
aS'1696500'
p288
ag228
aS'57467488'
p289
aS'20331158'
p290
ag206
aS'98105190'
p291
aS'4568018'
p292
aS'59075181'
p293
aS'53107172'
p294
ag203
aS'4353500'
p295
ag21
aS'22871048'
p296
aS'20830477'
p297
aS'58736785'
p298
ag248
ag122
ag247
ag104
aS'75997788'
p299
ag200
ag55
aS'36903574'
p300
aS'87210640'
p301
aS'45660925'
p302
asg26
I1000
sg28
S'Heuristieken 1'
p303
sg30
g82
sg32
I0
sg34
(iread_data
Room
p304
(dp305
g26
g144
sg28
g145
sbsba(ischedule
Activity
p306
(dp307
g8
g41
sg26
I1000
sg28
g81
sg30
g82
sg32
I0
sg34
g83
sba(ischedule
Activity
p308
(dp309
g8
(lp310
S'92778619'
p311
aS'10702778'
p312
aS'39459642'
p313
aS'54395877'
p314
aS'15249775'
p315
aS'27582862'
p316
aS'79167252'
p317
aS'12782624'
p318
aS'58040377'
p319
aS'23257088'
p320
ag118
ag126
aS'70113753'
p321
aS'85284256'
p322
ag110
aS'39905995'
p323
aS'26857113'
p324
aS'41153310'
p325
asg26
S'20'
p326
sg28
S'Programmeren in Java 2'
p327
sg30
g31
sg32
S'6'
p328
sg34
(iread_data
Room
p329
(dp330
g26
g239
sg28
g240
sbsbaa(lp331
(ischedule
Activity
p332
(dp333
g8
(lp334
S'88597745'
p335
aS'3678531'
p336
aS'64600457'
p337
aS'68601184'
p338
aS'58332004'
p339
aS'46701583'
p340
aS'96054456'
p341
aS'28943658'
p342
aS'60661905'
p343
aS'34262212'
p344
aS'17823206'
p345
ag209
ag284
aS'54772132'
p346
ag297
aS'15902055'
p347
aS'66433883'
p348
ag124
ag300
ag91
aS'48503689'
p349
asg26
g326
sg28
g327
sg30
g31
sg32
g216
sg34
(iread_data
Room
p350
(dp351
g26
g239
sg28
g240
sbsba(ischedule
Activity
p352
(dp353
g8
(lp354
S'97135019'
p355
aS'28618400'
p356
ag19
aS'86291592'
p357
ag289
aS'12170832'
p358
aS'62736669'
p359
aS'3883025'
p360
aS'31247305'
p361
aS'59887191'
p362
ag152
aS'9731271'
p363
aS'51741554'
p364
aS'16912993'
p365
ag295
ag206
asg26
S'20'
p366
sg28
S'Netwerken en systeembeveiliging'
p367
sg30
g31
sg32
g236
sg34
(iread_data
Room
p368
(dp369
g26
g37
sg28
g38
sbsba(ischedule
Activity
p370
(dp371
g8
(lp372
g248
aS'77960666'
p373
aS'33776961'
p374
aS'87830198'
p375
aS'84524083'
p376
aS'27370083'
p377
aS'4709948'
p378
aS'99975346'
p379
aS'86988337'
p380
ag183
aS'49922855'
p381
ag224
aS'78136904'
p382
ag76
aS'52715680'
p383
aS'20095994'
p384
ag92
aS'70193386'
p385
ag311
asg26
S'20'
p386
sg28
S'Reflectie op de digitale cultuur'
p387
sg30
g189
sg32
g33
sg34
g83
sba(ischedule
Activity
p388
(dp389
g8
(lp390
g42
ag44
ag50
ag52
ag56
ag58
ag60
ag62
ag64
ag66
ag68
ag72
ag74
ag76
ag78
ag80
ag53
ag46
asg26
S'20'
p391
sg28
g81
sg30
g189
sg32
g33
sg34
(iread_data
Room
p392
(dp393
g26
g219
sg28
g220
sbsba(ischedule
Activity
p394
(dp395
g8
(lp396
g201
ag204
ag205
ag209
ag210
aS'17496687'
p397
asg26
S'15'
p398
sg28
g215
sg30
g189
sg32
g216
sg34
(iread_data
Room
p399
(dp400
g26
g192
sg28
g193
sbsba(ischedule
Activity
p401
(dp402
g8
(lp403
S'47605891'
p404
aS'59544049'
p405
aS'49631542'
p406
aS'58469172'
p407
ag341
ag94
ag157
aS'99272880'
p408
aS'63634350'
p409
aS'39919665'
p410
aS'54569540'
p411
ag126
aS'46570285'
p412
ag290
aS'20883994'
p413
aS'41585485'
p414
aS'14398123'
p415
aS'37498675'
p416
ag225
ag345
aS'24875739'
p417
aS'84110134'
p418
aS'56988998'
p419
ag376
ag339
ag382
ag246
ag260
aS'14671406'
p420
aS'91139627'
p421
aS'23391676'
p422
ag22
ag265
aS'61518436'
p423
ag99
ag133
aS'51186803'
p424
aS'54310617'
p425
ag232
ag121
aS'28957789'
p426
aS'72547110'
p427
aS'79366078'
p428
aS'20239127'
p429
ag54
ag363
ag207
ag273
ag149
aS'10872825'
p430
ag51
aS'64296965'
p431
aS'31633723'
p432
aS'78735049'
p433
ag361
aS'94467156'
p434
aS'82688900'
p435
ag178
ag208
ag300
aS'8522855'
p436
aS'63408522'
p437
aS'77240949'
p438
aS'7492204'
p439
aS'79858178'
p440
aS'41527759'
p441
aS'23798155'
p442
aS'11915563'
p443
ag118
ag93
ag286
aS'39659121'
p444
aS'65003379'
p445
ag137
aS'47462856'
p446
aS'51542218'
p447
aS'44940353'
p448
aS'27187154'
p449
ag293
aS'63955238'
p450
aS'32705005'
p451
aS'38329455'
p452
ag344
aS'10792879'
p453
asg26
I1000
sg28
S'Kansrekenen 2'
p454
sg30
g82
sg32
I0
sg34
(iread_data
Room
p455
(dp456
g26
g144
sg28
g145
sbsbaa(lp457
(ischedule
Activity
p458
(dp459
g8
(lp460
S'24613625'
p461
ag230
aS'88176729'
p462
ag261
aS'22826928'
p463
aS'7308727'
p464
aS'96453361'
p465
ag337
ag152
ag65
aS'247918'
p466
ag273
ag341
aS'30050930'
p467
aS'21029457'
p468
aS'56815156'
p469
ag127
ag17
ag71
ag137
asg26
S'20'
p470
sg28
g188
sg30
g31
sg32
g236
sg34
(iread_data
Room
p471
(dp472
g26
g37
sg28
g38
sbsba(ischedule
Activity
p473
(dp474
g8
(lp475
S'83415514'
p476
aS'51650744'
p477
ag201
aS'48198668'
p478
ag412
ag102
aS'58592894'
p479
ag183
aS'30658799'
p480
aS'78443067'
p481
ag360
aS'18144425'
p482
ag283
aS'15051051'
p483
aS'27916487'
p484
asg26
S'20'
p485
sg28
S'Moderne Databases'
p486
sg30
g189
sg32
g216
sg34
(iread_data
Room
p487
(dp488
g26
g219
sg28
g220
sbsba(ischedule
Activity
p489
(dp490
g8
(lp491
S'40791377'
p492
ag442
ag483
ag419
aS'85236626'
p493
aS'5976174'
p494
ag423
ag340
ag438
aS'63111000'
p495
ag232
ag449
aS'38296757'
p496
aS'37744525'
p497
aS'2079771'
p498
ag313
aS'33252501'
p499
aS'67625383'
p500
ag324
aS'90067329'
p501
ag434
aS'49683101'
p502
asg26
I1000
sg28
S'Machine Learning'
p503
sg30
g82
sg32
I0
sg34
(iread_data
Room
p504
(dp505
g26
g192
sg28
g193
sbsba(ischedule
Activity
p506
(dp507
g8
(lp508
g406
aS'70072978'
p509
ag247
aS'66621166'
p510
aS'24277163'
p511
aS'59111489'
p512
ag299
ag180
ag446
ag132
aS'58699305'
p513
ag199
ag339
aS'41489515'
p514
aS'1181560'
p515
aS'27241113'
p516
asg26
S'20'
p517
sg28
g486
sg30
g31
sg32
g33
sg34
g455
sba(ischedule
Activity
p518
(dp519
g8
(lp520
g322
aS'60352393'
p521
ag497
aS'33930505'
p522
aS'70939718'
p523
ag346
aS'40343779'
p524
aS'123355'
p525
aS'97136582'
p526
aS'56121590'
p527
aS'1048485'
p528
aS'82689818'
p529
aS'25557516'
p530
aS'7957843'
p531
ag22
ag293
aS'63573738'
p532
asg26
g366
sg28
g367
sg30
g31
sg32
g33
sg34
(iread_data
Room
p533
(dp534
g26
g239
sg28
g240
sbsba(ischedule
Activity
p535
(dp536
g8
(lp537
g289
aS'64947290'
p538
ag253
ag300
aS'26260141'
p539
ag529
ag150
ag154
ag383
ag347
aS'64554442'
p540
aS'23652927'
p541
ag164
ag382
ag414
aS'21964491'
p542
aS'51566595'
p543
ag494
aS'50143947'
p544
aS'67817269'
p545
asg26
S'25'
p546
sg28
S'Algoritmen en complexiteit'
p547
sg30
g189
sg32
g33
sg34
(iread_data
Room
p548
(dp549
g26
g171
sg28
g172
sbsba(ischedule
Activity
p550
(dp551
g8
(lp552
g42
ag44
ag48
ag50
ag52
ag54
ag56
ag58
ag62
ag64
ag66
ag68
ag70
ag72
ag74
ag78
ag80
ag43
ag65
asg26
S'20'
p553
sg28
g81
sg30
g31
sg32
g33
sg34
(iread_data
Room
p554
(dp555
g26
g85
sg28
g86
sbsbaa(lp556
(ischedule
Activity
p557
(dp558
g8
(lp559
g199
ag438
ag209
ag287
ag425
aS'33760909'
p560
aS'73980360'
p561
aS'1665980'
p562
aS'65960683'
p563
ag431
ag64
aS'37770881'
p564
ag140
aS'17575088'
p565
ag226
ag464
aS'50184318'
p566
asg26
S'20'
p567
sg28
S'Collectieve Intelligentie'
p568
sg30
g189
sg32
g33
sg34
(iread_data
Room
p569
(dp570
g26
g239
sg28
g240
sbsba(ischedule
Activity
p571
(dp572
g8
(lp573
g273
ag275
ag277
ag280
ag283
ag285
ag287
ag228
ag290
ag291
ag293
ag203
ag21
ag297
ag248
ag247
ag299
ag301
ag294
ag286
ag206
ag289
ag282
ag262
asg26
S'25'
p574
sg28
g303
sg30
g189
sg32
g33
sg34
(iread_data
Room
p575
(dp576
g26
g171
sg28
g172
sbsba(ischedule
Activity
p577
(dp578
g8
(lp579
S'34691309'
p580
ag531
aS'73823548'
p581
aS'63939720'
p582
aS'81022997'
p583
ag176
ag98
ag532
ag265
aS'1766560'
p584
ag357
aS'88752563'
p585
aS'42406214'
p586
aS'19662602'
p587
ag418
asg26
g234
sg28
g235
sg30
g31
sg32
g216
sg34
(iread_data
Room
p588
(dp589
g26
g192
sg28
g193
sbsba(ischedule
Activity
p590
(dp591
g8
(lp592
S'13218321'
p593
ag67
aS'83266686'
p594
ag495
ag374
aS'49219163'
p595
aS'77376714'
p596
ag266
ag23
aS'11741347'
p597
ag261
ag70
ag584
aS'78821918'
p598
aS'78544592'
p599
ag510
ag198
asg26
g485
sg28
g486
sg30
g189
sg32
g236
sg34
g471
sba(ischedule
Activity
p600
(dp601
g8
(lp602
g319
ag138
ag225
ag543
ag298
aS'35315956'
p603
aS'1886996'
p604
aS'52304977'
p605
ag560
aS'27925117'
p606
ag150
aS'87602030'
p607
asg26
S'20'
p608
sg28
S'Heuristieken 2'
p609
sg30
g189
sg32
g216
sg34
g455
sba(ischedule
Activity
p610
(dp611
g8
(lp612
g135
aS'29474737'
p613
ag62
aS'13092455'
p614
ag542
aS'57595888'
p615
ag127
ag128
ag357
ag245
aS'46052388'
p616
aS'29640619'
p617
ag73
aS'43027916'
p618
asg26
g567
sg28
g568
sg30
g189
sg32
g216
sg34
(iread_data
Room
p619
(dp620
g26
g85
sg28
g86
sbsba(ischedule
Activity
p621
(dp622
g8
(lp623
g197
aS'63096281'
p624
aS'86000192'
p625
ag72
ag357
ag286
ag509
ag528
ag476
aS'80135353'
p626
aS'88263855'
p627
aS'45414528'
p628
aS'44671041'
p629
aS'64053722'
p630
aS'90296821'
p631
aS'94687383'
p632
ag250
ag422
ag275
asg26
g326
sg28
g327
sg30
g31
sg32
S'5'
p633
sg34
g217
sbaaa(lp634
(lp635
(ischedule
Activity
p636
(dp637
g8
(lp638
g176
aS'3168419'
p639
ag461
ag71
ag225
ag230
ag177
ag469
ag462
ag542
aS'74131924'
p640
ag261
ag178
ag522
ag463
ag179
ag278
ag464
ag180
ag405
ag465
ag181
ag17
ag337
ag182
ag292
ag152
ag183
ag137
ag65
ag184
ag413
ag466
ag185
aS'54026378'
p641
ag273
ag483
ag106
ag341
ag186
aS'28359697'
p642
ag467
ag127
aS'11068043'
p643
ag468
asg26
I1000
sg28
g188
sg30
g82
sg32
I0
sg34
(iread_data
Room
p644
(dp645
g26
g85
sg28
g86
sbsba(ischedule
Activity
p646
(dp647
g8
(lp648
S'12091019'
p649
ag451
ag261
ag205
aS'58253841'
p650
aS'73302736'
p651
ag278
ag479
aS'27298319'
p652
aS'14179347'
p653
ag453
aS'33672995'
p654
ag51
ag49
aS'87900893'
p655
ag560
ag539
ag112
aS'23658570'
p656
ag433
ag417
aS'6709529'
p657
ag347
ag103
ag131
aS'11593163'
p658
ag317
aS'23628642'
p659
aS'19717077'
p660
aS'93361408'
p661
aS'80188025'
p662
ag162
aS'88855695'
p663
ag137
ag426
ag64
ag113
ag94
aS'62363761'
p664
aS'34173695'
p665
aS'53585410'
p666
ag513
ag625
ag407
ag496
ag355
ag282
ag606
ag341
ag167
ag409
ag163
aS'79888156'
p667
ag299
aS'40141996'
p668
ag184
ag468
ag138
ag319
aS'65978354'
p669
ag594
aS'62105897'
p670
aS'61520025'
p671
ag337
ag523
aS'82412626'
p672
ag284
aS'77306636'
p673
aS'53139134'
p674
ag156
aS'56544130'
p675
aS'75623387'
p676
ag585
ag449
aS'10609762'
p677
ag581
aS'72526473'
p678
aS'31306819'
p679
ag363
aS'22168693'
p680
aS'56348773'
p681
aS'47932106'
p682
ag607
ag481
ag24
aS'47477884'
p683
ag287
ag340
aS'65408517'
p684
aS'6939933'
p685
ag107
ag599
aS'75446434'
p686
ag336
aS'86180471'
p687
ag412
ag364
ag476
ag106
aS'45915482'
p688
aS'59220392'
p689
aS'55530367'
p690
ag50
ag179
ag185
aS'37279234'
p691
asg26
I1000
sg28
S'Calculus 2'
p692
sg30
g82
sg32
I0
sg34
g455
sba(ischedule
Activity
p693
(dp694
g8
(lp695
S'95631564'
p696
aS'70015932'
p697
aS'65318664'
p698
aS'96554914'
p699
ag643
ag100
ag282
ag262
ag462
ag120
aS'9287708'
p700
ag651
aS'48601268'
p701
ag296
ag361
ag118
aS'13718298'
p702
aS'99283252'
p703
ag497
ag122
ag441
ag226
aS'3727435'
p704
ag539
aS'14072826'
p705
ag443
ag230
aS'82872148'
p706
ag265
ag688
ag70
ag405
ag629
ag287
ag544
ag184
ag47
aS'51593625'
p707
ag528
ag434
asg26
S'40'
p708
sg28
S'Software engineering'
p709
sg30
g189
sg32
g33
sg34
(iread_data
Room
p710
(dp711
g26
g219
sg28
g220
sbsba(ischedule
Activity
p712
(dp713
g8
(lp714
g248
ag203
ag423
ag373
ag232
aS'90474003'
p715
ag374
ag343
ag92
ag375
ag521
aS'51052738'
p716
ag376
aS'70844780'
p717
ag58
ag377
ag699
ag463
ag378
ag259
aS'51415617'
p718
ag379
ag586
ag186
ag380
ag296
ag496
ag183
aS'36213792'
p719
aS'27950803'
p720
ag381
ag614
aS'82390428'
p721
ag224
ag511
aS'84449005'
p722
aS'27805666'
p723
ag411
aS'99453514'
p724
ag382
aS'68286356'
p725
ag311
ag76
ag429
ag702
ag383
ag123
ag385
ag384
ag179
aS'59753700'
p726
asg26
I1000
sg28
g387
sg30
g82
sg32
I0
sg34
(iread_data
Room
p727
(dp728
g26
g239
sg28
g240
sbsba(ischedule
Activity
p729
(dp730
g8
(lp731
g397
ag320
ag339
asg26
g214
sg28
g215
sg30
g31
sg32
g33
sg34
g588
sbaa(lp732
(ischedule
Activity
p733
(dp734
g8
(lp735
g696
ag697
ag643
ag100
ag282
ag262
ag462
ag120
ag700
ag651
ag701
ag296
ag361
ag118
ag702
ag703
ag497
ag122
ag441
ag226
ag539
ag705
ag443
ag230
ag706
ag265
ag688
ag70
ag405
ag17
ag629
ag287
ag544
ag184
ag47
ag670
ag231
ag418
asg26
S'40'
p736
sg28
g709
sg30
g31
sg32
g33
sg34
g548
sba(ischedule
Activity
p737
(dp738
g8
(lp739
S'62613937'
p740
ag56
aS'72683344'
p741
ag299
ag604
ag717
aS'40633534'
p742
ag382
ag639
ag49
ag521
ag153
ag356
ag73
aS'92665222'
p743
ag284
ag413
ag683
aS'39429093'
p744
ag24
asg26
I1000
sg28
S'Advanced Heuristics'
p745
sg30
g82
sg32
I0
sg34
g588
sba(ischedule
Activity
p746
(dp747
g8
(lp748
S'13996448'
p749
ag182
ag726
aS'87314964'
p750
aS'93023961'
p751
ag248
ag655
ag204
ag93
ag542
aS'19337738'
p752
ag152
ag345
asg26
S'10'
p753
sg28
S'Data Mining'
p754
sg30
g189
sg32
g236
sg34
g455
sba(ischedule
Activity
p755
(dp756
g8
(lp757
S'72796858'
p758
ag543
ag641
ag321
aS'61611295'
p759
ag248
ag640
asg26
S'10'
p760
sg28
S'Autonomous Agents 2'
p761
sg30
g189
sg32
g216
sg34
(iread_data
Room
p762
(dp763
g26
g37
sg28
g38
sbsba(ischedule
Activity
p764
(dp765
g8
(lp766
g52
ag117
aS'21095566'
p767
ag666
aS'51509565'
p768
ag524
ag465
ag340
ag44
aS'19540225'
p769
ag436
aS'91527663'
p770
ag596
ag441
ag562
ag479
ag197
ag380
ag348
ag66
ag13
ag420
ag652
asg26
g546
sg28
g547
sg30
g189
sg32
g216
sg34
(iread_data
Room
p771
(dp772
g26
g239
sg28
g240
sbsba(ischedule
Activity
p773
(dp774
g8
(lp775
g476
ag477
ag566
ag201
ag722
ag478
ag412
ag102
ag479
aS'96082155'
p776
ag183
ag480
ag481
ag482
ag283
ag198
ag483
ag374
ag598
asg26
g517
sg28
g486
sg30
g31
sg32
g216
sg34
(iread_data
Room
p777
(dp778
g26
g85
sg28
g86
sbsba(ischedule
Activity
p779
(dp780
g8
(lp781
g203
ag232
ag343
ag521
ag717
ag699
ag259
ag296
ag719
ag614
ag511
ag411
ag725
ag429
ag123
ag179
ag723
asg26
g386
sg28
g387
sg30
g189
sg32
g216
sg34
(iread_data
Room
p782
(dp783
g26
g219
sg28
g220
sbsbaa(lp784
(ischedule
Activity
p785
(dp786
g8
(lp787
g199
ag135
aS'1075391'
p788
ag102
ag438
ag566
aS'96104167'
p789
ag355
ag209
ag613
ag701
ag178
ag287
ag62
ag294
ag283
ag425
ag614
ag11
ag529
ag560
ag542
ag153
ag364
ag561
ag615
aS'13534377'
p790
aS'25106480'
p791
ag562
ag127
aS'34773179'
p792
aS'64393888'
p793
ag563
ag128
aS'28357474'
p794
ag338
ag618
ag464
ag347
ag73
ag431
ag357
aS'17222374'
p795
ag511
ag64
ag245
aS'22699561'
p796
aS'3233378'
p797
ag564
ag616
aS'45556081'
p798
ag79
ag140
ag617
ag288
ag119
ag565
ag625
ag136
ag544
ag226
asg26
I1000
sg28
g568
sg30
g82
sg32
I0
sg34
(iread_data
Room
p799
(dp800
g26
g239
sg28
g240
sbsba(ischedule
Activity
p801
(dp802
g8
(lp803
S'25330192'
p804
ag543
ag749
ag345
ag93
ag182
ag281
ag640
ag726
aS'98780382'
p805
aS'68360259'
p806
ag130
ag628
ag542
ag750
ag526
ag544
ag751
ag724
ag497
ag248
ag262
ag583
ag655
ag152
ag752
ag204
asg26
I1000
sg28
g754
sg30
g82
sg32
I0
sg34
g217
sba(ischedule
Activity
p807
(dp808
g8
g403
sg26
I1000
sg28
g454
sg30
g82
sg32
I0
sg34
(iread_data
Room
p809
(dp810
g26
g144
sg28
g145
sbsba(ischedule
Activity
p811
(dp812
g8
(lp813
g45
ag47
ag49
ag51
ag53
ag55
ag57
ag59
ag61
ag63
ag67
ag69
ag71
ag73
ag75
ag77
ag79
ag46
ag76
ag60
asg26
g553
sg28
g81
sg30
g31
sg32
g216
sg34
g588
sba(ischedule
Activity
p814
(dp815
g8
(lp816
g292
ag210
ag211
ag50
aS'82066165'
p817
ag409
aS'1695839'
p818
aS'64418623'
p819
ag615
aS'47260040'
p820
aS'91250534'
p821
aS'23215240'
p822
ag643
aS'51472074'
p823
asg26
g27
sg28
g29
sg30
g31
sg32
g216
sg34
(iread_data
Room
p824
(dp825
g26
g37
sg28
g38
sbsba(ischedule
Activity
p826
(dp827
g8
(lp828
g248
ag206
ag251
ag253
ag68
ag201
ag208
ag257
ag259
ag123
ag63
ag264
ag129
ag16
ag107
ag252
asg26
S'20'
p829
sg28
g269
sg30
g189
sg32
g216
sg34
g548
sba(ischedule
Activity
p830
(dp831
g8
(lp832
g206
ag102
ag313
ag134
ag231
ag138
asg26
g760
sg28
g761
sg30
g189
sg32
g236
sg34
g83
sbaa(lp833
(ischedule
Activity
p834
(dp835
g8
(lp836
g397
ag197
ag213
ag198
ag210
ag199
ag182
ag200
ag208
ag201
ag339
ag202
ag320
ag203
ag207
ag211
ag206
ag204
ag209
ag205
ag212
asg26
I1000
sg28
g215
sg30
g82
sg32
I0
sg34
g588
sba(ischedule
Activity
p837
(dp838
g8
(lp839
g182
ag726
ag751
ag655
ag204
ag542
ag345
ag805
asg26
S'10'
p840
sg28
g754
sg30
g31
sg32
g236
sg34
g83
sba(ischedule
Activity
p841
(dp842
g8
(lp843
g593
ag484
ag67
ag594
ag495
ag795
ag337
ag595
ag596
ag266
ag23
ag597
ag261
ag70
ag584
ag599
ag378
ag360
ag703
asg26
g517
sg28
g486
sg30
g31
sg32
g236
sg34
g471
sba(ischedule
Activity
p844
(dp845
g8
(lp846
g662
ag385
aS'34900967'
p847
aS'82854435'
p848
ag285
ag121
aS'58480929'
p849
aS'78822885'
p850
ag130
ag740
aS'72456780'
p851
ag654
ag282
ag286
ag598
ag675
ag259
aS'18477924'
p852
ag618
ag431
ag442
ag702
ag138
aS'97838175'
p853
ag99
ag91
ag375
ag698
aS'88737765'
p854
ag58
ag207
ag343
ag176
aS'5085194'
p855
ag299
ag656
ag103
ag126
aS'72586808'
p856
aS'48678993'
p857
ag651
ag447
ag261
aS'73350019'
p858
ag469
ag123
aS'14637758'
p859
aS'5595824'
p860
ag296
asg26
I1000
sg28
S'Analysemethoden en -technieken'
p861
sg30
g82
sg32
I0
sg34
(iread_data
Room
p862
(dp863
g26
g239
sg28
g240
sbsba(ischedule
Activity
p864
(dp865
g8
(lp866
S'2317551'
p867
aS'95007221'
p868
aS'76802764'
p869
ag663
ag632
ag226
ag255
ag860
aS'75759231'
p870
ag52
ag584
ag253
ag23
ag201
aS'8464817'
p871
ag743
aS'46989508'
p872
aS'9067939'
p873
aS'34110913'
p874
ag498
aS'43689934'
p875
ag531
ag443
ag157
ag313
ag357
ag249
aS'79033175'
p876
ag117
ag291
ag266
ag564
ag349
ag758
ag136
ag376
ag18
ag597
aS'88636924'
p877
ag461
ag129
ag720
ag492
ag317
ag563
ag453
aS'15911353'
p878
aS'34872117'
p879
ag178
ag227
ag230
ag480
aS'75599734'
p880
ag65
ag99
aS'66701209'
p881
aS'65852230'
p882
ag626
ag135
ag185
ag585
aS'44391517'
p883
ag696
ag380
ag502
ag594
ag449
ag156
ag346
asg26
I1000
sg28
S'Compilerbouw'
p884
sg30
g82
sg32
I0
sg34
(iread_data
Room
p885
(dp886
g26
g144
sg28
g145
sbsba(ischedule
Activity
p887
(dp888
g8
(lp889
g52
ag117
ag544
ag767
ag666
ag768
ag524
ag465
ag340
ag44
ag769
ag436
ag545
ag441
ag562
ag479
ag197
ag380
ag348
ag494
ag540
ag66
ag542
asg26
S'25'
p890
sg28
g547
sg30
g31
sg32
g216
sg34
(iread_data
Room
p891
(dp892
g26
g219
sg28
g220
sbsba(ischedule
Activity
p893
(dp894
g8
g714
sg26
I1000
sg28
g387
sg30
g82
sg32
I0
sg34
g548
sbaa(lp895
(ischedule
Activity
p896
(dp897
g8
(lp898
g461
ag230
ag462
ag261
ag463
ag464
ag465
ag337
ag152
ag65
ag466
ag273
ag467
ag542
ag71
ag413
ag278
ag483
ag106
ag341
asg26
g187
sg28
g188
sg30
g189
sg32
g236
sg34
(iread_data
Room
p899
(dp900
g26
g171
sg28
g172
sbsba(ischedule
Activity
p901
(dp902
g8
(lp903
g641
ag71
aS'52552718'
p904
ag292
ag880
ag130
ag596
ag528
ag434
ag432
ag617
ag791
ag481
ag134
ag420
ag524
ag325
ag266
ag494
aS'58074656'
p905
ag684
ag707
ag163
ag767
ag67
ag316
ag797
ag720
ag794
ag383
ag121
aS'37830626'
p906
aS'31103066'
p907
ag254
ag698
ag699
ag704
asg26
g736
sg28
g709
sg30
g31
sg32
g216
sg34
g83
sba(ischedule
Activity
p908
(dp909
g8
(lp910
g804
ag281
ag628
ag526
ag724
ag262
ag152
ag750
ag130
ag749
ag248
asg26
g840
sg28
g754
sg30
g31
sg32
g33
sg34
(iread_data
Room
p911
(dp912
g26
g37
sg28
g38
sbsba(ischedule
Activity
p913
(dp914
g8
(lp915
g299
ag382
ag49
ag73
ag284
ag24
ag740
ag356
ag521
ag742
asg26
S'10'
p916
sg28
g745
sg30
g31
sg32
g216
sg34
(iread_data
Room
p917
(dp918
g26
g144
sg28
g145
sbsba(ischedule
Activity
p919
(dp920
g8
(lp921
g104
ag562
ag544
ag383
aS'5892092'
p922
aS'44151631'
p923
ag408
aS'51673172'
p924
ag666
ag855
asg26
g27
sg28
g29
sg30
g31
sg32
g236
sg34
g727
sba(ischedule
Activity
p925
(dp926
g8
(lp927
S'5739011'
p928
aS'83869542'
p929
ag58
ag319
aS'82968410'
p930
ag376
aS'72652638'
p931
ag110
ag857
ag138
ag279
ag225
ag150
ag543
ag607
ag298
ag251
ag603
ag409
ag604
ag315
ag605
ag152
ag70
ag583
ag560
ag618
ag493
ag79
ag379
ag494
ag606
asg26
I1000
sg28
g609
sg30
g82
sg32
I0
sg34
g217
sba(ischedule
Activity
p932
(dp933
g8
(lp934
g43
ag45
ag47
ag49
ag51
ag55
ag57
ag59
ag61
ag63
ag65
ag67
ag69
ag71
ag73
ag75
ag77
ag79
ag70
ag54
ag48
asg26
g391
sg28
g81
sg30
g189
sg32
g216
sg34
(iread_data
Room
p935
(dp936
g26
g192
sg28
g193
sbsbaaa(lp937
(lp938
(ischedule
Activity
p939
(dp940
g8
(lp941
g274
ag276
ag278
ag137
ag199
ag133
ag284
ag288
ag292
ag295
ag296
ag298
ag122
ag104
ag200
ag300
ag302
ag55
ag279
ag281
asg26
g574
sg28
g303
sg30
g189
sg32
g216
sg34
(iread_data
Room
p942
(dp943
g26
g85
sg28
g86
sbsba(ischedule
Activity
p944
(dp945
g8
g866
sg26
I1000
sg28
g884
sg30
g82
sg32
I0
sg34
g455
sba(ischedule
Activity
p946
(dp947
g8
(lp948
g758
ag543
ag641
ag759
ag95
ag248
ag105
aS'88627897'
p949
ag640
asg26
S'10'
p950
sg28
g761
sg30
g31
sg32
g216
sg34
(iread_data
Room
p951
(dp952
g26
g239
sg28
g240
sbsba(ischedule
Activity
p953
(dp954
g8
(lp955
g47
ag529
ag290
ag798
ag594
ag879
ag63
ag697
ag21
ag202
ag356
aS'59289233'
p956
ag73
ag502
ag606
ag67
aS'13798030'
p957
ag97
ag107
ag442
ag741
asg26
I1000
sg28
S'Architectuur en computerorganisatie'
p958
sg30
g82
sg32
I0
sg34
g217
sba(ischedule
Activity
p959
(dp960
g8
(lp961
g406
ag509
ag247
ag378
ag511
ag512
ag299
ag180
ag446
ag132
ag513
ag199
ag339
ag514
ag515
ag516
ag703
ag722
ag795
ag337
ag776
ag566
asg26
g485
sg28
g486
sg30
g189
sg32
g33
sg34
g588
sba(ischedule
Activity
p962
(dp963
g8
g491
sg26
I1000
sg28
g503
sg30
g82
sg32
I0
sg34
(iread_data
Room
p964
(dp965
g26
g37
sg28
g38
sbsbaa(lp966
(ischedule
Activity
p967
(dp968
g8
g787
sg26
I1000
sg28
g568
sg30
g82
sg32
I0
sg34
g727
sba(ischedule
Activity
p969
(dp970
g8
(lp971
g928
ag58
ag930
ag931
ag857
ag279
ag251
ag409
ag315
ag152
ag583
ag618
ag79
ag494
ag110
ag376
ag929
ag70
ag493
ag379
asg26
g608
sg28
g609
sg30
g189
sg32
g33
sg34
g471
sba(ischedule
Activity
p972
(dp973
g8
(lp974
g255
ag177
aS'53267490'
p975
ag300
ag375
aS'64246605'
p976
ag378
aS'26207525'
p977
ag207
aS'19058315'
p978
ag856
ag99
ag158
ag117
ag436
ag706
ag804
ag664
asg26
g366
sg28
g367
sg30
g31
sg32
g216
sg34
(iread_data
Room
p979
(dp980
g26
g171
sg28
g172
sbsba(ischedule
Activity
p981
(dp982
g8
(lp983
g639
ag225
ag469
ag522
ag405
ag17
ag292
ag137
ag641
ag642
ag643
ag640
ag468
asg26
g187
sg28
g188
sg30
g189
sg32
g216
sg34
(iread_data
Room
p984
(dp985
g26
g219
sg28
g220
sbsba(ischedule
Activity
p986
(dp987
g8
(lp988
g415
ag617
ag583
ag24
ag717
ag76
ag181
ag851
ag464
aS'5590289'
p989
ag857
ag288
aS'56191333'
p990
asg26
g366
sg28
g367
sg30
g31
sg32
S'4'
p991
sg34
(iread_data
Room
p992
(dp993
g26
g144
sg28
g145
sbsba(ischedule
Activity
p994
(dp995
g8
(lp996
g213
ag182
ag208
ag339
ag320
ag207
ag206
ag212
ag203
ag197
ag200
ag198
ag211
ag199
ag202
asg26
g398
sg28
g215
sg30
g189
sg32
g33
sg34
g83
sba(ischedule
Activity
p997
(dp998
g8
(lp999
g138
aS'34806836'
p1000
ag231
ag277
ag296
ag904
ag102
ag321
ag652
ag134
asg26
g950
sg28
g761
sg30
g31
sg32
g33
sg34
g588
sbaa(lp1001
(ischedule
Activity
p1002
(dp1003
g8
g787
sg26
I1000
sg28
g568
sg30
g82
sg32
I0
sg34
g455
sba(ischedule
Activity
p1004
(dp1005
g8
(lp1006
g788
ag789
ag701
ag294
ag11
ag153
ag792
ag794
ag347
ag795
ag796
ag798
ag136
ag614
ag283
asg26
S'20'
p1007
sg28
g568
sg30
g31
sg32
g236
sg34
g471
sba(ischedule
Activity
p1008
(dp1009
g8
(lp1010
g641
ag71
ag904
ag231
ag292
ag880
ag130
ag596
ag432
ag617
ag791
ag418
ag481
ag134
ag420
ag524
ag325
ag266
ag494
ag905
ag684
ag670
ag163
ag767
ag67
ag316
ag797
ag720
ag794
ag383
ag121
ag906
ag907
ag254
ag17
asg26
g708
sg28
g709
sg30
g189
sg32
g216
sg34
g548
sba(ischedule
Activity
p1011
(dp1012
g8
(lp1013
g25
ag415
ag792
ag817
ag722
ag924
ag12
ag703
ag461
asg26
S'15'
p1014
sg28
S'Project Genetic Algorithms'
p1015
sg30
g31
sg32
g216
sg34
(iread_data
Room
p1016
(dp1017
g26
g219
sg28
g220
sbsba(ischedule
Activity
p1018
(dp1019
g8
(lp1020
g135
ag185
ag497
ag656
ag414
aS'7386961'
p1021
ag363
ag60
ag822
ag93
ag493
ag867
ag378
ag617
ag463
asg26
g326
sg28
g327
sg30
g31
sg32
g33
sg34
(iread_data
Room
p1022
(dp1023
g26
g239
sg28
g240
sbsba(ischedule
Activity
p1024
(dp1025
g8
g638
sg26
I1000
sg28
g188
sg30
g82
sg32
I0
sg34
(iread_data
Room
p1026
(dp1027
g26
g85
sg28
g86
sbsbaa(lp1028
(ischedule
Activity
p1029
(dp1030
g8
(lp1031
g135
ag566
ag613
ag62
ag542
ag615
ag128
ag464
ag357
ag245
ag616
ag617
ag625
ag288
asg26
g1007
sg28
g568
sg30
g31
sg32
g216
sg34
g217
sba(ischedule
Activity
p1032
(dp1033
g8
g89
sg26
I1000
sg28
g141
sg30
g82
sg32
I0
sg34
g455
sba(ischedule
Activity
p1034
(dp1035
g8
(lp1036
g206
ag313
ag443
asg26
g950
sg28
g761
sg30
g31
sg32
g236
sg34
g727
sba(ischedule
Activity
p1037
(dp1038
g8
(lp1039
g140
ag408
ag374
ag707
ag683
ag200
ag160
ag542
ag407
ag439
ag409
aS'73196865'
p1040
aS'88519892'
p1041
ag670
ag793
ag749
ag45
ag847
ag538
ag691
asg26
g326
sg28
g327
sg30
g31
sg32
g991
sg34
(iread_data
Room
p1042
(dp1043
g26
g85
sg28
g86
sbsba(ischedule
Activity
p1044
(dp1045
g8
(lp1046
g639
ag225
ag640
ag522
ag278
ag292
ag413
ag641
ag106
ag642
ag643
ag178
asg26
g470
sg28
g188
sg30
g31
sg32
g216
sg34
g471
sba(ischedule
Activity
p1047
(dp1048
g8
(lp1049
g649
ag205
ag278
ag653
ag560
ag656
ag657
ag131
ag659
ag662
ag137
ag113
ag665
ag625
ag355
ag341
ag163
ag668
ag138
ag337
ag284
ag156
ag585
ag581
ag363
ag682
ag24
ag340
ag107
ag336
ag364
ag688
ag50
ag691
ag660
asg26
S'40'
p1050
sg28
g692
sg30
g189
sg32
g33
sg34
g548
sbaa(lp1051
(ischedule
Activity
p1052
(dp1053
g8
(lp1054
g102
ag355
ag178
ag529
ag364
ag791
ag793
ag338
ag73
ag511
ag797
ag79
ag119
ag544
ag618
asg26
g1007
sg28
g568
sg30
g31
sg32
g991
sg34
g455
sba(ischedule
Activity
p1055
(dp1056
g8
g638
sg26
I1000
sg28
g188
sg30
g82
sg32
I0
sg34
g727
sba(ischedule
Activity
p1057
(dp1058
g8
(lp1059
g464
ag685
ag284
aS'32183908'
p1060
aS'40911986'
p1061
ag258
ag643
aS'81116418'
p1062
ag349
ag160
ag614
ag356
aS'90103047'
p1063
ag749
asg26
g234
sg28
g235
sg30
g31
sg32
g33
sg34
g217
sba(ischedule
Activity
p1064
(dp1065
g8
(lp1066
g741
ag604
ag639
ag743
ag413
ag744
ag717
ag683
ag56
ag153
asg26
g916
sg28
g745
sg30
g31
sg32
g33
sg34
g471
sba(ischedule
Activity
p1067
(dp1068
g8
(lp1069
g406
ag476
ag593
ag509
ag477
ag484
ag247
ag566
ag67
ag378
ag201
ag594
ag510
ag722
ag495
ag511
ag478
ag374
ag512
ag412
ag795
ag299
ag102
ag337
ag180
ag479
ag595
ag446
ag776
ag596
ag132
ag183
ag266
ag513
ag480
ag23
ag199
ag481
ag597
ag339
ag360
ag261
ag514
ag482
ag70
ag515
ag283
ag584
ag516
ag198
ag598
ag703
ag483
ag599
asg26
I1000
sg28
g486
sg30
g82
sg32
I0
sg34
(iread_data
Room
p1070
(dp1071
g26
g171
sg28
g172
sbsba(ischedule
Activity
p1072
(dp1073
g8
(lp1074
g720
ag791
ag134
ag650
ag156
ag123
ag607
aS'25077484'
p1075
ag881
ag436
ag15
aS'5526560'
p1076
ag606
asg26
g1014
sg28
g1015
sg30
g31
sg32
g33
sg34
(iread_data
Room
p1077
(dp1078
g26
g192
sg28
g193
sbsba(ischedule
Activity
p1079
(dp1080
g8
(lp1081
g380
aS'51791169'
p1082
ag373
ag179
ag79
ag273
ag449
aS'73893840'
p1083
ag434
ag245
ag883
ag92
ag22
ag871
ag69
ag495
ag666
asg26
g326
sg28
g327
sg30
g31
sg32
g236
sg34
(iread_data
Room
p1084
(dp1085
g26
g85
sg28
g86
sbsbaaa(lp1086
(lp1087
(ischedule
Activity
p1088
(dp1089
g8
(lp1090
g788
ag701
ag294
ag11
ag153
ag790
ag792
ag794
ag347
ag795
ag796
ag798
ag288
ag136
ag625
ag793
asg26
g567
sg28
g568
sg30
g189
sg32
g236
sg34
g548
sba(ischedule
Activity
p1091
(dp1092
g8
(lp1093
g138
ag758
ag206
ag443
ag543
ag640
ag105
ag641
ag102
ag1000
ag321
ag313
ag231
ag759
ag134
ag277
ag95
ag949
ag296
ag248
ag652
ag904
asg26
I1000
sg28
g761
sg30
g82
sg32
I0
sg34
g588
sba(ischedule
Activity
p1094
(dp1095
g8
(lp1096
g804
ag281
ag805
ag628
ag526
ag724
ag262
ag130
asg26
g753
sg28
g754
sg30
g189
sg32
g33
sg34
g217
sba(ischedule
Activity
p1097
(dp1098
g8
(lp1099
g289
ag52
ag538
ag117
ag253
ag544
ag300
ag767
ag539
ag666
ag529
ag768
ag652
ag524
ag150
ag465
ag154
ag340
ag383
ag44
ag66
ag769
ag347
ag436
ag540
ag545
ag541
ag770
ag164
ag596
ag382
ag441
ag414
ag562
ag13
ag479
ag542
ag197
ag543
ag380
ag420
ag348
ag494
asg26
I1000
sg28
g547
sg30
g82
sg32
I0
sg34
g727
sbaa(lp1100
(ischedule
Activity
p1101
(dp1102
g8
(lp1103
g868
ag663
ag226
ag860
ag52
ag253
ag201
ag743
ag873
ag498
ag531
ag157
ag357
ag291
ag564
ag758
ag376
ag597
ag461
ag720
ag317
ag453
ag879
ag227
ag480
ag65
ag881
ag185
ag883
ag380
ag594
ag156
ag875
ag255
asg26
S'40'
p1104
sg28
g884
sg30
g189
sg32
g216
sg34
g455
sba(ischedule
Activity
p1105
(dp1106
g8
(lp1107
g543
ag640
ag806
ag544
ag497
ag583
asg26
g753
sg28
g754
sg30
g189
sg32
g216
sg34
g471
sba(ischedule
Activity
p1108
(dp1109
g8
g803
sg26
I1000
sg28
g754
sg30
g82
sg32
I0
sg34
(iread_data
Room
p1110
(dp1111
g26
g85
sg28
g86
sbsba(ischedule
Activity
p1112
(dp1113
g8
(lp1114
g289
ag538
ag253
ag300
ag539
ag529
ag652
ag150
ag154
ag383
ag347
ag541
ag164
ag382
ag414
ag13
ag543
ag420
ag596
ag770
asg26
g890
sg28
g547
sg30
g31
sg32
g33
sg34
(iread_data
Room
p1115
(dp1116
g26
g192
sg28
g193
sbsba(ischedule
Activity
p1117
(dp1118
g8
(lp1119
g53
ag375
ag564
ag598
ag340
aS'55480737'
p1120
ag854
ag687
ag653
ag434
aS'75680261'
p1121
ag149
ag742
ag857
asg26
g1014
sg28
g1015
sg30
g31
sg32
g236
sg34
g217
sba(ischedule
Activity
p1122
(dp1123
g8
(lp1124
g102
ag355
ag178
ag283
ag529
ag364
ag791
ag338
ag511
ag797
ag79
ag119
ag544
ag789
asg26
g567
sg28
g568
sg30
g189
sg32
g991
sg34
(iread_data
Room
p1125
(dp1126
g26
g171
sg28
g172
sbsba(ischedule
Activity
p1127
(dp1128
g8
(lp1129
g867
ag869
ag632
ag255
ag870
ag584
ag23
ag871
ag872
ag874
ag875
ag443
ag313
ag249
ag117
ag266
ag349
ag136
ag18
ag877
ag129
ag492
ag563
ag878
ag178
ag230
ag880
ag99
ag882
ag135
ag585
ag696
ag502
ag449
ag346
ag201
ag564
ag883
ag253
ag876
ag227
asg26
S'40'
p1130
sg28
g884
sg30
g31
sg32
g33
sg34
g727
sbaa(lp1131
(ischedule
Activity
p1132
(dp1133
g8
(lp1134
g273
ag110
aS'54540997'
p1135
ag538
ag11
aS'4529208'
p1136
ag431
ag687
ag795
ag373
ag341
ag639
ag683
aS'15187217'
p1137
ag649
aS'13132925'
p1138
ag758
ag98
ag511
ag406
ag872
ag112
ag479
ag770
ag63
ag380
ag466
ag278
ag127
ag543
ag904
ag247
ag165
ag529
ag527
ag598
ag682
ag990
asg26
S'40'
p1139
sg28
S'Databases 2'
p1140
sg30
g189
sg32
g33
sg34
g548
sba(ischedule
Activity
p1141
(dp1142
g8
(lp1143
g57
ag977
ag581
ag668
aS'59397895'
p1144
ag320
ag521
ag313
aS'58083680'
p1145
ag879
ag180
ag585
ag656
ag1076
ag614
ag851
ag929
ag855
ag102
ag618
ag62
ag617
ag1075
ag44
ag359
ag91
ag715
ag135
ag289
ag339
ag509
ag113
aS'27123462'
p1146
ag447
asg26
g1139
sg28
g1140
sg30
g189
sg32
g216
sg34
(iread_data
Room
p1147
(dp1148
g26
g239
sg28
g240
sbsba(ischedule
Activity
p1149
(dp1150
g8
(lp1151
g451
ag650
ag479
ag453
ag49
ag539
ag433
ag347
ag658
ag162
ag426
ag94
ag666
ag407
ag282
ag167
ag667
ag319
ag670
ag523
ag673
ag675
ag449
ag678
ag680
ag607
ag683
ag599
ag687
ag476
ag689
ag179
ag594
ag51
asg26
g1050
sg28
g692
sg30
g189
sg32
g216
sg34
g217
sba(ischedule
Activity
p1152
(dp1153
g8
(lp1154
g443
ag105
ag1000
ag277
ag296
ag904
ag95
ag949
ag652
asg26
g760
sg28
g761
sg30
g189
sg32
g33
sg34
g588
sba(ischedule
Activity
p1155
(dp1156
g8
(lp1157
g696
ag641
ag697
ag71
ag698
ag904
ag699
ag231
ag643
ag292
ag100
ag880
ag282
ag130
ag262
ag596
ag462
ag528
ag120
ag434
ag700
ag432
ag651
ag617
ag701
ag791
ag296
ag418
ag361
ag481
ag118
ag134
ag702
ag420
ag703
ag524
ag497
ag325
ag122
ag266
ag441
ag494
ag226
ag905
ag704
ag684
ag539
ag707
ag705
ag670
ag443
ag163
ag230
ag767
ag706
ag67
ag265
ag316
ag688
ag797
ag70
ag720
ag405
ag794
ag17
ag383
ag629
ag121
ag287
ag906
ag544
ag907
ag184
ag254
ag47
asg26
I1000
sg28
g709
sg30
g82
sg32
I0
sg34
(iread_data
Room
p1158
(dp1159
g26
g144
sg28
g145
sbsbaa(lp1160
(ischedule
Activity
p1161
(dp1162
g8
g1093
sg26
I1000
sg28
g761
sg30
g82
sg32
I0
sg34
g588
sba(ischedule
Activity
p1163
(dp1164
g8
g955
sg26
I1000
sg28
g958
sg30
g82
sg32
I0
sg34
g455
sba(ischedule
Activity
p1165
(dp1166
g8
(lp1167
g245
ag247
ag183
ag199
ag250
ag254
ag255
ag256
ag11
ag258
ag260
ag261
ag210
ag263
ag153
ag266
ag268
ag267
ag265
ag249
ag246
ag262
asg26
g829
sg28
g269
sg30
g189
sg32
g33
sg34
(iread_data
Room
p1168
(dp1169
g26
g171
sg28
g172
sbsba(ischedule
Activity
p1170
(dp1171
g8
g148
sg26
I1000
sg28
g168
sg30
g82
sg32
I0
sg34
g217
sba(ischedule
Activity
p1172
(dp1173
g8
(lp1174
g199
ag438
ag209
ag287
ag425
ag560
ag561
ag562
ag563
ag431
ag64
ag564
ag140
ag565
ag226
ag790
ag127
asg26
g1007
sg28
g568
sg30
g31
sg32
g33
sg34
(iread_data
Room
p1175
(dp1176
g26
g85
sg28
g86
sbsba(ischedule
Activity
p1177
(dp1178
g8
(lp1179
g176
ag177
ag542
ag179
ag180
ag181
ag182
ag183
ag184
ag185
ag483
ag186
ag405
asg26
g470
sg28
g188
sg30
g31
sg32
g33
sg34
g727
sba(ischedule
Activity
p1180
(dp1181
g8
(lp1182
g423
ag715
ag716
ag58
ag463
ag718
ag186
ag496
ag720
ag721
ag722
ag724
ag702
ag726
ag586
asg26
g386
sg28
g387
sg30
g189
sg32
g236
sg34
(iread_data
Room
p1183
(dp1184
g26
g37
sg28
g38
sbsbaa(lp1185
(ischedule
Activity
p1186
(dp1187
g8
(lp1188
g273
ag57
ag447
ag977
ag110
ag581
ag1135
ag668
ag538
ag682
ag11
ag1144
ag1136
ag320
ag431
ag527
ag687
ag521
ag795
ag313
ag373
ag1145
ag341
ag879
ag639
ag180
ag683
ag1146
ag1137
ag585
ag649
ag656
ag1138
ag990
ag758
ag1076
ag509
ag614
ag98
ag851
ag511
ag929
ag406
ag855
ag872
ag102
ag113
ag618
ag112
ag62
ag479
ag617
ag770
ag1075
ag63
ag44
ag380
ag529
ag466
ag359
ag278
ag91
ag127
ag715
ag543
ag135
ag904
ag289
ag247
ag339
ag165
ag598
asg26
I1000
sg28
g1140
sg30
g82
sg32
I0
sg34
(iread_data
Room
p1189
(dp1190
g26
g239
sg28
g240
sbsba(ischedule
Activity
p1191
(dp1192
g8
(lp1193
g867
ag869
ag632
ag870
ag584
ag23
ag871
ag872
ag874
ag443
ag313
ag249
ag117
ag266
ag349
ag136
ag18
ag877
ag129
ag492
ag563
ag878
ag178
ag230
ag880
ag99
ag882
ag135
ag585
ag696
ag502
ag449
ag346
ag626
ag876
asg26
g1104
sg28
g884
sg30
g189
sg32
g33
sg34
g548
sba(ischedule
Activity
p1194
(dp1195
g8
(lp1196
g868
ag663
ag226
ag860
ag52
ag743
ag873
ag498
ag531
ag157
ag357
ag291
ag758
ag376
ag597
ag461
ag720
ag317
ag453
ag879
ag480
ag65
ag881
ag626
ag185
ag380
ag594
ag156
asg26
g1130
sg28
g884
sg30
g31
sg32
g216
sg34
g471
sba(ischedule
Activity
p1197
(dp1198
g8
g836
sg26
I1000
sg28
g215
sg30
g82
sg32
I0
sg34
g455
sba(ischedule
Activity
p1199
(dp1200
g8
g244
sg26
I1000
sg28
g269
sg30
g82
sg32
I0
sg34
g217
sba(ischedule
Activity
p1201
(dp1202
g8
(lp1203
g261
ag651
ag652
ag654
ag655
ag112
ag417
ag103
ag317
ag661
ag663
ag64
ag664
ag513
ag496
ag606
ag409
ag299
ag468
ag669
ag671
ag672
ag674
ag676
ag677
ag679
ag681
ag481
ag287
ag685
ag686
ag412
ag690
ag185
ag106
ag684
ag184
asg26
g1050
sg28
g692
sg30
g189
sg32
g236
sg34
(iread_data
Room
p1204
(dp1205
g26
g85
sg28
g86
sbsba(ischedule
Activity
p1206
(dp1207
g8
(lp1208
g543
ag93
ag640
ag806
ag544
ag497
ag583
ag752
asg26
g840
sg28
g754
sg30
g31
sg32
g216
sg34
(iread_data
Room
p1209
(dp1210
g26
g192
sg28
g193
sbsbaaa(lp1211
(lp1212
a(lp1213
a(lp1214
a(lp1215
a(lp1216
aasS'timeslot_dict'
p1217
(dp1218
I0
S'9:00-11:00'
p1219
sI1
S'11:00-13:00'
p1220
sI2
S'13:00-15:00'
p1221
sI3
S'15:00-17:00'
p1222
sI4
S'17:00-19:00'
p1223
ssS'day_dict'
p1224
(dp1225
I0
S'Monday'
p1226
sI1
S'Tuesday'
p1227
sI2
S'Wednesday'
p1228
sI3
S'Thursday'
p1229
sI4
S'Friday'
p1230
ssb.