(ischedule
Schedule
p0
(dp1
S'timetable'
p2
(lp3
(lp4
(lp5
(ischedule
Activity
p6
(dp7
S'participants'
p8
(lp9
S'34765676'
p10
aS'85236626'
p11
aS'43027916'
p12
aS'84524083'
p13
aS'99975346'
p14
aS'87602030'
p15
aS'81200278'
p16
aS'63634350'
p17
aS'7106649'
p18
aS'15249775'
p19
aS'31897288'
p20
aS'61443567'
p21
aS'83869542'
p22
aS'81022997'
p23
aS'58040377'
p24
aS'16097870'
p25
aS'35315956'
p26
aS'57086672'
p27
aS'51566595'
p28
aS'670011'
p29
aS'48678993'
p30
aS'33760909'
p31
aS'82968410'
p32
aS'1886996'
p33
aS'58736785'
p34
aS'5976174'
p35
aS'5739011'
p36
aS'72652638'
p37
aS'27925117'
p38
aS'52304977'
p39
aS'78243495'
p40
aS'22731474'
p41
asS'capacity'
p42
I1000
sS'name'
p43
S'Heuristieken 2'
p44
sS'ttype'
p45
S'lectures'
p46
sS'group_id'
p47
I0
sS'room'
p48
(iread_data
Room
p49
(dp50
g42
S'117'
p51
sg43
S'C0.110'
p52
sbsba(ischedule
Activity
p53
(dp54
g8
(lp55
S'70878567'
p56
aS'68315599'
p57
aS'8557857'
p58
aS'19958553'
p59
aS'75585647'
p60
aS'77636749'
p61
aS'23983476'
p62
aS'13658563'
p63
aS'17496687'
p64
aS'36748818'
p65
aS'44901052'
p66
aS'75521763'
p67
aS'32204977'
p68
aS'13116738'
p69
aS'58332004'
p70
aS'18266644'
p71
aS'29718115'
p72
aS'92977271'
p73
aS'23257088'
p74
aS'62701040'
p75
aS'11459236'
p76
asg42
I1000
sg43
S'Informatie- en organsatieontwerp'
p77
sg45
g46
sg47
I0
sg48
(iread_data
Room
p78
(dp79
g42
S'22'
p80
sg43
S'A1.06'
p81
sbsba(ischedule
Activity
p82
(dp83
g8
(lp84
g25
aS'75005528'
p85
aS'42196732'
p86
aS'68409833'
p87
aS'42778953'
p88
aS'79617364'
p89
aS'42115591'
p90
aS'52311353'
p91
aS'10149535'
p92
aS'54074680'
p93
aS'55474917'
p94
aS'38499176'
p95
aS'41578612'
p96
aS'77896638'
p97
aS'71839156'
p98
aS'36508571'
p99
aS'96118484'
p100
aS'91196968'
p101
aS'87758823'
p102
aS'81385263'
p103
aS'37399898'
p104
aS'34243356'
p105
aS'81218347'
p106
aS'94955328'
p107
aS'61060652'
p108
aS'32595335'
p109
aS'3474870'
p110
aS'79937969'
p111
aS'83210352'
p112
aS'26172512'
p113
aS'4921119'
p114
aS'74182182'
p115
aS'62872965'
p116
aS'36527838'
p117
aS'55412918'
p118
aS'23565001'
p119
aS'80998260'
p120
aS'56872729'
p121
aS'34588570'
p122
aS'5517869'
p123
aS'31416266'
p124
aS'90743504'
p125
aS'93566383'
p126
aS'66570705'
p127
aS'14591033'
p128
aS'21311067'
p129
aS'94686490'
p130
aS'80709893'
p131
aS'16333449'
p132
aS'35330349'
p133
aS'48308205'
p134
ag29
aS'16011419'
p135
aS'58866007'
p136
asg42
I1000
sg43
S'Lineaire Algebra'
p137
sg45
g46
sg47
I0
sg48
(iread_data
Room
p138
(dp139
g42
S'56'
p140
sg43
S'A1.10'
p141
sbsba(ischedule
Activity
p142
(dp143
g8
(lp144
S'33877725'
p145
aS'24891081'
p146
aS'89180944'
p147
aS'41790793'
p148
aS'17092717'
p149
aS'94930277'
p150
aS'53202517'
p151
aS'76123484'
p152
aS'67073567'
p153
aS'66034145'
p154
aS'39230359'
p155
aS'1137946'
p156
aS'77392404'
p157
aS'43460038'
p158
aS'14303208'
p159
aS'2416751'
p160
aS'49908313'
p161
aS'76903244'
p162
asg42
S'20'
p163
sg43
S'Webprogrammeren en databases'
p164
sg45
S'tutorials'
p165
sg47
S'1'
p166
sg48
(iread_data
Room
p167
(dp168
g42
S'48'
p169
sg43
S'B0.201'
p170
sbsba(ischedule
Activity
p171
(dp172
g8
(lp173
g57
aS'47982619'
p174
aS'76487754'
p175
aS'31194811'
p176
aS'85335143'
p177
ag67
ag96
aS'23547619'
p178
aS'36785409'
p179
aS'22323043'
p180
aS'93041523'
p181
aS'92496780'
p182
aS'21192048'
p183
aS'43680781'
p184
aS'58565406'
p185
aS'6249823'
p186
ag68
aS'14309255'
p187
asg42
S'20'
p188
sg43
S'Technology for games'
p189
sg45
g165
sg47
g166
sg48
(iread_data
Room
p190
(dp191
g42
S'20'
p192
sg43
S'A1.08'
p193
sbsba(ischedule
Activity
p194
(dp195
g8
(lp196
S'97371272'
p197
aS'75664412'
p198
ag92
aS'12430748'
p199
ag61
aS'14383795'
p200
aS'70336464'
p201
aS'11996292'
p202
ag66
aS'77264363'
p203
aS'37110913'
p204
aS'40434933'
p205
aS'12077419'
p206
aS'4697362'
p207
ag18
aS'9332762'
p208
aS'69086548'
p209
aS'89338938'
p210
aS'26406342'
p211
ag134
asg42
g188
sg43
g189
sg45
g165
sg47
S'2'
p212
sg48
(iread_data
Room
p213
(dp214
g42
S'60'
p215
sg43
S'C1.112'
p216
sbsba(ischedule
Activity
p217
(dp218
g8
(lp219
S'66433883'
p220
aS'64947290'
p221
aS'52715680'
p222
aS'72895450'
p223
aS'51509565'
p224
aS'77376714'
p225
aS'53585410'
p226
aS'86988337'
p227
aS'21964491'
p228
ag10
ag110
aS'88596522'
p229
aS'1665980'
p230
aS'46701583'
p231
ag62
aS'21095566'
p232
aS'50143947'
p233
aS'23652927'
p234
aS'41585485'
p235
aS'67817269'
p236
aS'27298319'
p237
asg42
S'25'
p238
sg43
S'Algoritmen en complexiteit'
p239
sg45
S'labs'
p240
sg47
g166
sg48
(iread_data
Room
p241
(dp242
g42
S'41'
p243
sg43
S'A1.04'
p244
sbsbaa(lp245
(ischedule
Activity
p246
(dp247
g8
(lp248
g178
ag102
aS'65960683'
p249
aS'15902055'
p250
aS'17222374'
p251
ag230
aS'77240949'
p252
aS'86000192'
p253
aS'48601268'
p254
aS'53107172'
p255
ag124
aS'4783858'
p256
ag123
ag97
aS'22699561'
p257
ag21
aS'1075391'
p258
ag88
aS'42171678'
p259
aS'60312776'
p260
asg42
S'20'
p261
sg43
S'Collectieve Intelligentie'
p262
sg45
g165
sg47
g212
sg48
g241
sba(ischedule
Activity
p263
(dp264
g8
(lp265
S'63573738'
p266
aS'19058315'
p267
aS'70844780'
p268
aS'1048485'
p269
aS'82689818'
p270
aS'97136582'
p271
aS'57467488'
p272
aS'51741554'
p273
aS'1696500'
p274
ag16
aS'36903574'
p275
aS'37744525'
p276
aS'16912993'
p277
aS'3883025'
p278
aS'72586808'
p279
asg42
S'20'
p280
sg43
S'Netwerken en systeembeveiliging'
p281
sg45
g240
sg47
S'4'
p282
sg48
(iread_data
Room
p283
(dp284
g42
g215
sg43
g216
sbsba(ischedule
Activity
p285
(dp286
g8
(lp287
S'25330192'
p288
aS'68360259'
p289
ag204
aS'13996448'
p290
aS'99453514'
p291
aS'66122625'
p292
aS'87900893'
p293
ag101
asg42
S'10'
p294
sg43
S'Data Mining'
p295
sg45
g240
sg47
S'3'
p296
sg48
(iread_data
Room
p297
(dp298
g42
g192
sg43
g193
sbsba(ischedule
Activity
p299
(dp300
g8
(lp301
S'4568018'
p302
aS'3168419'
p303
aS'56815156'
p304
aS'7308727'
p305
ag184
aS'33930505'
p306
aS'29526540'
p307
ag145
aS'14816774'
p308
aS'247918'
p309
ag86
ag228
aS'22826928'
p310
aS'15051051'
p311
ag56
asg42
S'20'
p312
sg43
S'Bioinformatica'
p313
sg45
g240
sg47
g212
sg48
(iread_data
Room
p314
(dp315
g42
g51
sg43
g52
sbsba(ischedule
Activity
p316
(dp317
g8
(lp318
S'24613625'
p319
ag87
aS'55480737'
p320
ag231
aS'76661016'
p321
ag30
aS'51673172'
p322
aS'27950803'
p323
aS'34773179'
p324
aS'37770881'
p325
ag38
aS'40633534'
p326
aS'25106480'
p327
asg42
S'15'
p328
sg43
S'Project Genetic Algorithms'
p329
sg45
g240
sg47
g296
sg48
(iread_data
Room
p330
(dp331
g42
g169
sg43
g170
sbsba(ischedule
Activity
p332
(dp333
g8
(lp334
S'75680261'
p335
aS'74361881'
p336
aS'76924297'
p337
aS'99283252'
p338
aS'41644639'
p339
asg42
g328
sg43
g329
sg45
g240
sg47
g212
sg48
g138
sba(ischedule
Activity
p340
(dp341
g8
(lp342
S'96104167'
p343
aS'58522654'
p344
aS'13534377'
p345
aS'68601184'
p346
aS'54310617'
p347
ag273
aS'50184318'
p348
aS'86291592'
p349
ag152
aS'13092455'
p350
ag12
aS'29640619'
p351
aS'57595888'
p352
ag67
ag233
aS'28357474'
p353
ag133
aS'3233378'
p354
aS'29474737'
p355
aS'17575088'
p356
asg42
g261
sg43
g262
sg45
g165
sg47
g166
sg48
(iread_data
Room
p357
(dp358
g42
g80
sg43
g81
sbsbaa(lp359
(ischedule
Activity
p360
(dp361
g8
(lp362
g270
aS'13798030'
p363
aS'59289233'
p364
ag205
ag136
ag147
aS'83266686'
p365
aS'34872117'
p366
ag92
ag38
aS'20331158'
p367
aS'14138904'
p368
ag158
aS'49683101'
p369
aS'70015932'
p370
aS'72577292'
p371
aS'28618400'
p372
aS'72683344'
p373
aS'45556081'
p374
ag72
aS'23798155'
p375
asg42
I1000
sg43
S'Architectuur en computerorganisatie'
p376
sg45
g46
sg47
I0
sg48
(iread_data
Room
p377
(dp378
g42
g80
sg43
g81
sbsba(ischedule
Activity
p379
(dp380
g8
(lp381
g185
ag178
ag205
ag197
ag183
ag184
ag57
ag198
ag174
ag92
ag175
ag179
ag211
ag199
ag209
ag61
ag180
ag187
ag182
ag186
ag176
ag200
ag206
ag68
ag210
ag208
ag134
ag201
ag177
ag202
ag207
ag66
ag67
ag181
ag18
ag203
ag96
ag204
asg42
I1000
sg43
g189
sg45
g46
sg47
I0
sg48
(iread_data
Room
p382
(dp383
g42
g169
sg43
g170
sbsba(ischedule
Activity
p384
(dp385
g8
(lp386
g220
aS'41527759'
p387
aS'14671406'
p388
ag221
ag222
ag223
aS'58592894'
p389
ag224
ag225
ag226
ag227
ag237
ag228
aS'8522855'
p390
ag110
ag62
ag250
ag235
aS'3707829'
p391
aS'40343779'
p392
ag232
ag230
ag229
asg42
S'25'
p393
sg43
g239
sg45
g165
sg47
g166
sg48
g138
sba(ischedule
Activity
p394
(dp395
g8
(lp396
S'51186803'
p397
aS'54569540'
p398
aS'5615125'
p399
aS'11915563'
p400
ag90
aS'64296965'
p401
ag388
ag95
ag252
aS'91139627'
p402
aS'84110134'
p403
aS'79366078'
p404
aS'49631542'
p405
ag115
aS'78735049'
p406
ag106
ag347
ag235
aS'27187154'
p407
aS'10792879'
p408
aS'38329455'
p409
aS'20239127'
p410
aS'96054456'
p411
ag70
aS'7492204'
p412
aS'5368702'
p413
ag155
aS'44940353'
p414
ag275
aS'39919665'
p415
aS'3685034'
p416
ag107
ag17
ag387
aS'94467156'
p417
ag94
ag337
aS'59544049'
p418
ag105
aS'39659121'
p419
aS'63408522'
p420
aS'99272880'
p421
aS'47462856'
p422
aS'79858178'
p423
ag367
ag61
ag375
aS'23391676'
p424
aS'97019450'
p425
aS'37498675'
p426
aS'56988998'
p427
aS'61518436'
p428
ag210
ag128
aS'72547110'
p429
aS'14398123'
p430
aS'65003379'
p431
ag41
aS'32705005'
p432
aS'56749879'
p433
aS'24875739'
p434
aS'59075181'
p435
aS'9731271'
p436
aS'58469172'
p437
ag197
aS'46570285'
p438
aS'20883994'
p439
aS'47605891'
p440
ag13
aS'78136904'
p441
aS'82688900'
p442
aS'31633723'
p443
aS'63955238'
p444
ag101
ag209
aS'34262212'
p445
aS'17823206'
p446
aS'28957789'
p447
aS'10872825'
p448
aS'31247305'
p449
ag390
aS'51542218'
p450
ag71
ag344
asg42
I1000
sg43
S'Kansrekenen 2'
p451
sg45
g46
sg47
I0
sg48
(iread_data
Room
p452
(dp453
g42
g51
sg43
g52
sbsba(ischedule
Activity
p454
(dp455
g8
(lp456
g28
aS'88627897'
p457
aS'54026378'
p458
aS'62356458'
p459
ag123
ag25
asg42
S'10'
p460
sg43
S'Autonomous Agents 2'
p461
sg45
g240
sg47
g296
sg48
g241
sba(ischedule
Activity
p462
(dp463
g8
(lp464
g302
ag303
aS'77831658'
p465
ag304
aS'64600457'
p466
aS'66120270'
p467
ag306
ag307
ag145
ag151
ag308
aS'30195935'
p468
ag305
aS'96453361'
p469
asg42
S'20'
p470
sg43
g313
sg45
g165
sg47
g212
sg48
(iread_data
Room
p471
(dp472
g42
g192
sg43
g193
sbsbaa(lp473
(ischedule
Activity
p474
(dp475
g8
(lp476
g86
ag22
ag389
ag350
ag303
ag411
aS'86180471'
p477
aS'5526560'
p478
aS'15187217'
p479
ag123
aS'47477884'
p480
aS'43902015'
p481
ag70
ag202
aS'70072978'
p482
ag152
ag401
ag450
aS'54540997'
p483
ag121
aS'27123462'
p484
aS'77960666'
p485
ag307
ag221
ag28
aS'13132925'
p486
aS'56121590'
p487
aS'24277163'
p488
aS'40141996'
p489
aS'78821918'
p490
aS'59397895'
p491
aS'26207525'
p492
ag309
asg42
S'40'
p493
sg43
S'Databases 2'
p494
sg45
g165
sg47
g212
sg48
(iread_data
Room
p495
(dp496
g42
g243
sg43
g244
sbsba(ischedule
Activity
p497
(dp498
g8
(lp499
S'39459642'
p500
ag275
aS'3678531'
p501
aS'80135353'
p502
aS'88519892'
p503
aS'88263855'
p504
ag437
ag351
aS'4709948'
p505
aS'20618153'
p506
ag231
ag17
ag73
ag11
aS'70113753'
p507
ag174
ag433
asg42
S'20'
p508
sg43
S'Programmeren in Java 2'
p509
sg45
g240
sg47
g296
sg48
(iread_data
Room
p510
(dp511
g42
g80
sg43
g81
sbsba(ischedule
Activity
p512
(dp513
g8
(lp514
g260
ag199
ag88
aS'19214659'
p515
aS'40911986'
p516
aS'48503689'
p517
aS'63939720'
p518
aS'2550487'
p519
asg42
S'15'
p520
sg43
S'Project Numerical Recipes'
p521
sg45
g240
sg47
g166
sg48
(iread_data
Room
p522
(dp523
g42
g51
sg43
g52
sbsba(ischedule
Activity
p524
(dp525
g8
(lp526
S'72665524'
p527
aS'62363761'
p528
ag467
aS'64246605'
p529
ag103
aS'85284256'
p530
aS'56191333'
p531
aS'7957843'
p532
aS'535689'
p533
ag435
ag349
aS'87830198'
p534
ag157
aS'82872148'
p535
ag305
aS'97135019'
p536
ag95
ag436
ag372
asg42
g280
sg43
g281
sg45
g240
sg47
g166
sg48
(iread_data
Room
p537
(dp538
g42
g192
sg43
g193
sbsba(ischedule
Activity
p539
(dp540
g8
(lp541
g161
aS'22288615'
p542
ag145
ag155
ag146
ag162
ag481
aS'14847953'
p543
ag506
ag153
ag147
ag110
ag157
ag223
aS'28358060'
p544
ag156
aS'10698627'
p545
aS'64228258'
p546
ag186
ag160
ag148
ag132
ag21
ag154
ag149
ag371
ag150
aS'53512831'
p547
aS'76648468'
p548
ag399
ag151
ag158
ag152
aS'69459473'
p549
ag205
ag27
ag40
ag159
aS'27064249'
p550
asg42
I1000
sg43
g164
sg45
g46
sg47
I0
sg48
(iread_data
Room
p551
(dp552
g42
g215
sg43
g216
sbsba(ischedule
Activity
p553
(dp554
g8
(lp555
g338
ag449
aS'9287708'
p556
aS'22871048'
p557
ag353
ag233
ag90
aS'58074656'
p558
aS'89985072'
p559
aS'41153310'
p560
aS'65318664'
p561
ag443
ag370
ag147
ag108
ag417
aS'96554914'
p562
aS'78443067'
p563
ag187
aS'27582862'
p564
aS'48357272'
p565
ag458
ag388
aS'73302736'
p566
ag222
ag302
ag354
ag131
ag256
ag225
ag180
ag327
aS'88176729'
p567
aS'26260141'
p568
aS'11068043'
p569
aS'3727435'
p570
aS'62105897'
p571
aS'65408517'
p572
ag260
aS'13718298'
p573
ag459
asg42
S'40'
p574
sg43
S'Software engineering'
p575
sg45
g165
sg47
g166
sg48
(iread_data
Room
p576
(dp577
g42
g140
sg43
g141
sbsba(ischedule
Activity
p578
(dp579
g8
(lp580
g12
ag14
ag16
ag20
ag24
ag28
ag32
ag34
ag36
ag11
ag35
ag41
ag39
asg42
S'20'
p581
sg43
g44
sg45
g165
sg47
g166
sg48
(iread_data
Room
p582
(dp583
g42
g169
sg43
g170
sbsbaa(lp584
(ischedule
Activity
p585
(dp586
g8
(lp587
S'30050930'
p588
ag302
ag458
ag56
ag303
ag569
ag469
ag465
ag344
ag319
ag304
aS'6913074'
p589
ag567
ag466
ag309
aS'21029457'
p590
aS'6723948'
p591
ag418
ag16
ag128
ag89
ag310
ag305
ag559
ag439
ag467
ag177
aS'44868097'
p592
ag184
ag411
ag311
ag306
aS'5298748'
p593
aS'74131924'
p594
ag307
aS'28359697'
p595
ag228
ag145
ag86
ag41
ag151
ag468
ag433
ag308
aS'73236988'
p596
asg42
I1000
sg43
g313
sg45
g46
sg47
I0
sg48
(iread_data
Room
p597
(dp598
g42
g169
sg43
g170
sbsba(ischedule
Activity
p599
(dp600
g8
(lp601
g293
ag276
ag288
ag101
ag69
ag289
ag91
ag180
ag204
ag28
aS'19337738'
p602
ag290
ag23
aS'87314964'
p603
ag291
aS'98780382'
p604
ag228
ag446
ag271
ag594
aS'45414528'
p605
ag56
ag233
ag292
aS'93023961'
p606
ag16
aS'59753700'
p607
asg42
I1000
sg43
g295
sg45
g46
sg47
I0
sg48
(iread_data
Room
p608
(dp609
g42
g215
sg43
g216
sbsba(ischedule
Activity
p610
(dp611
g8
(lp612
S'60352393'
p613
aS'25557516'
p614
aS'5590289'
p615
ag392
ag66
aS'54772132'
p616
aS'59887191'
p617
aS'4353500'
p618
ag23
ag487
ag198
ag449
asg42
g280
sg43
g281
sg45
g240
sg47
g212
sg48
g297
sba(ischedule
Activity
p619
(dp620
g8
(lp621
g272
ag292
ag367
ag368
ag275
ag274
ag150
ag67
aS'75997788'
p622
ag20
aS'79879876'
p623
aS'86807027'
p624
aS'20830477'
p625
ag204
ag66
aS'53775014'
p626
asg42
S'25'
p627
sg43
S'Heuristieken 1'
p628
sg45
g165
sg47
g212
sg48
g241
sba(ischedule
Activity
p629
(dp630
g8
(lp631
S'34806836'
p632
aS'52552718'
p633
ag400
ag123
ag557
aS'61611295'
p634
ag28
asg42
S'10'
p635
sg43
g461
sg45
g165
sg47
g212
sg48
(iread_data
Room
p636
(dp637
g42
g51
sg43
g52
sbsba(ischedule
Activity
p638
(dp639
g8
(lp640
S'25994016'
p641
aS'58253841'
p642
aS'14179347'
p643
aS'82066165'
p644
ag490
ag549
ag417
ag478
ag390
ag96
aS'88737765'
p645
ag430
aS'84449005'
p646
ag15
aS'25077484'
p647
ag477
ag534
aS'66701209'
p648
asg42
g328
sg43
g329
sg45
g240
sg47
g166
sg48
(iread_data
Room
p649
(dp650
g42
g140
sg43
g141
sbsba(ischedule
Activity
p651
(dp652
g8
(lp653
g507
ag457
asg42
g635
sg43
g461
sg45
g165
sg47
g296
sg48
(iread_data
Room
p654
(dp655
g42
g80
sg43
g81
sbsbaaa(lp656
(lp657
(ischedule
Activity
p658
(dp659
g8
(lp660
g500
aS'72796858'
p661
ag87
ag66
ag116
ag594
ag25
ag237
ag458
ag459
aS'19858730'
p662
ag204
ag99
asg42
g635
sg43
g461
sg45
g165
sg47
g166
sg48
g654
sba(ischedule
Activity
p663
(dp664
g8
(lp665
g661
ag86
ag149
ag22
aS'5085194'
p666
ag389
aS'4529208'
p667
ag350
ag351
ag303
aS'12091019'
p668
ag411
ag405
ag477
ag647
aS'73823548'
p669
ag633
ag478
aS'47932106'
p670
ag492
ag490
ag205
ag211
ag479
ag500
ag123
ag531
ag270
ag491
ag29
aS'23658570'
p671
ag480
aS'90474003'
p672
ag481
aS'37701751'
p673
ag70
ag74
ag202
ag272
ag482
ag433
ag152
ag130
ag401
aS'58083680'
p674
ag450
ag251
ag483
ag308
ag121
ag366
ag484
aS'88752563'
p675
ag485
aS'72456780'
p676
ag307
aS'91527663'
p677
ag221
ag227
ag28
aS'46989508'
p678
ag12
ag114
ag486
aS'62736669'
p679
ag85
ag97
ag487
ag309
ag488
ag613
ag489
asg42
I1000
sg43
g494
sg45
g46
sg47
I0
sg48
g49
sba(ischedule
Activity
p680
(dp681
g8
(lp682
g648
ag260
ag97
aS'2317551'
p683
aS'8464817'
p684
ag88
aS'43689934'
p685
ag596
aS'88636924'
p686
ag206
aS'94687383'
p687
ag323
ag105
ag223
ag344
ag675
aS'88855695'
p688
aS'3407554'
p689
aS'75599734'
p690
ag661
ag532
aS'76802764'
p691
ag400
ag198
aS'1766560'
p692
ag187
ag502
aS'15911353'
p693
aS'79033175'
p694
asg42
S'40'
p695
sg43
S'Compilerbouw'
p696
sg45
g165
sg47
g166
sg48
(iread_data
Room
p697
(dp698
g42
g140
sg43
g141
sbsba(ischedule
Activity
p699
(dp700
g8
(lp701
g293
aS'58699305'
p702
ag256
ag128
ag308
aS'22168693'
p703
ag159
ag572
ag642
ag407
ag501
ag231
ag253
ag92
aS'82412626'
p704
aS'55530367'
p705
ag31
ag565
ag568
ag321
aS'78544592'
p706
aS'79888156'
p707
aS'6939933'
p708
ag437
ag250
ag566
ag406
ag447
ag643
ag15
ag408
ag563
ag432
aS'93361408'
p709
aS'61520025'
p710
aS'37279234'
p711
aS'56544130'
p712
aS'10609762'
p713
asg42
S'40'
p714
sg43
S'Calculus 2'
p715
sg45
g165
sg47
g166
sg48
g582
sba(ischedule
Activity
p716
(dp717
g8
g362
sg42
I1000
sg43
g376
sg45
g46
sg47
I0
sg48
(iread_data
Room
p718
(dp719
g42
g215
sg43
g216
sbsba(ischedule
Activity
p720
(dp721
g8
g541
sg42
I1000
sg43
g164
sg45
g46
sg47
I0
sg48
(iread_data
Room
p722
(dp723
g42
g243
sg43
g244
sbsbaa(lp724
(ischedule
Activity
p725
(dp726
g8
(lp727
S'13284244'
p728
ag648
ag260
ag97
ag88
ag685
ag686
ag206
ag687
aS'2079771'
p729
ag323
ag319
ag223
ag344
ag675
aS'95631564'
p730
ag689
ag661
ag500
ag532
ag198
ag692
ag187
aS'95007221'
p731
ag176
aS'5595824'
p732
aS'92665222'
p733
ag596
ag690
ag683
aS'98105190'
p734
ag227
ag413
asg42
S'40'
p735
sg43
g696
sg45
g240
sg47
g166
sg48
g582
sba(ischedule
Activity
p736
(dp737
g8
(lp738
S'13911001'
p739
ag689
ag233
ag421
ag159
ag222
ag336
aS'51472074'
p740
ag98
ag230
ag302
aS'44151631'
p741
ag666
ag569
ag211
ag68
asg42
S'15'
p742
sg43
S'Compilerbouw practicum'
p743
sg45
g240
sg47
g166
sg48
(iread_data
Room
p744
(dp745
g42
g243
sg43
g244
sbsba(ischedule
Activity
p746
(dp747
g8
g55
sg42
I1000
sg43
g77
sg45
g46
sg47
I0
sg48
(iread_data
Room
p748
(dp749
g42
g215
sg43
g216
sbsba(ischedule
Activity
p750
(dp751
g8
(lp752
S'42297781'
p753
aS'23215240'
p754
ag641
ag17
ag322
aS'91250534'
p755
ag229
ag95
aS'5892092'
p756
asg42
g742
sg43
g743
sg45
g240
sg47
g296
sg48
(iread_data
Room
p757
(dp758
g42
g192
sg43
g193
sbsba(ischedule
Activity
p759
(dp760
g8
(lp761
g596
ag112
ag535
ag185
aS'4546613'
p762
ag210
ag40
ag323
ag158
aS'45915482'
p763
ag690
ag87
aS'37830626'
p764
ag351
aS'51593625'
p765
ag35
aS'31103066'
p766
ag392
ag633
ag730
ag91
ag254
aS'14072826'
p767
ag232
ag94
ag592
ag400
aS'44671041'
p768
ag403
ag145
ag276
ag269
ag418
ag387
asg42
g574
sg43
g575
sg45
g165
sg47
g212
sg48
(iread_data
Room
p769
(dp770
g42
g140
sg43
g141
sbsba(ischedule
Activity
p771
(dp772
g8
(lp773
g104
ag391
ag337
ag519
ag413
aS'65675896'
p774
ag321
ag103
aS'38179241'
p775
ag126
ag515
aS'64768422'
p776
aS'44828429'
p777
ag762
aS'69634191'
p778
aS'20374340'
p779
ag154
aS'81155296'
p780
ag178
aS'21677389'
p781
ag673
ag543
aS'28055464'
p782
ag10
ag16
asg42
I1000
sg43
S'Interactie-ontwerp'
p783
sg45
g46
sg47
I0
sg48
(iread_data
Room
p784
(dp785
g42
g51
sg43
g52
sbsba(ischedule
Activity
p786
(dp787
g8
(lp788
g291
ag323
ag179
aS'49922855'
p789
ag63
aS'68286356'
p790
aS'51052738'
p791
ag13
ag227
ag204
aS'42406214'
p792
ag646
ag607
ag268
aS'32044893'
p793
asg42
S'20'
p794
sg43
S'Reflectie op de digitale cultuur'
p795
sg45
g165
sg47
g296
sg48
g654
sbaa(lp796
(ischedule
Activity
p797
(dp798
g8
(lp799
g781
ag71
ag390
ag676
ag430
aS'53267490'
p800
ag468
ag306
ag492
ag30
ag288
ag351
ag679
aS'12170832'
p801
aS'123355'
p802
ag105
ag505
aS'70939718'
p803
asg42
g280
sg43
g281
sg45
g240
sg47
g296
sg48
g297
sba(ischedule
Activity
p804
(dp805
g8
(lp806
g91
ag28
ag23
ag56
ag606
ag603
ag446
ag607
ag605
asg42
g294
sg43
g295
sg45
g240
sg47
g166
sg48
(iread_data
Room
p807
(dp808
g42
g140
sg43
g141
sbsba(ischedule
Activity
p809
(dp810
g8
(lp811
g255
ag272
ag256
ag292
ag106
aS'83443653'
p812
ag662
ag367
ag66
ag433
aS'76393508'
p813
ag368
ag98
ag73
ag557
ag275
ag625
ag274
ag202
ag150
ag128
ag63
ag425
aS'97417002'
p814
ag302
ag67
ag435
aS'87210640'
p815
aS'14941752'
p816
ag34
ag734
ag180
ag624
ag622
ag308
ag618
ag108
ag626
ag204
ag20
ag259
ag565
aS'45660925'
p817
ag623
asg42
I1000
sg43
g628
sg45
g46
sg47
I0
sg48
g49
sba(ischedule
Activity
p818
(dp819
g8
(lp820
S'9067939'
p821
aS'40791377'
p822
ag369
ag13
ag732
aS'75759231'
p823
aS'79167252'
p824
ag591
ag57
ag227
ag176
ag321
ag408
ag734
ag678
ag325
ag249
aS'34110913'
p825
ag407
ag733
ag413
ag365
ag103
ag517
ag151
aS'30658799'
p826
ag739
ag349
ag366
aS'44391517'
p827
ag616
aS'65852230'
p828
aS'11741347'
p829
ag731
ag500
ag729
ag728
ag730
ag134
ag319
asg42
g695
sg43
g696
sg45
g165
sg47
g212
sg48
(iread_data
Room
p830
(dp831
g42
g169
sg43
g170
sbsba(ischedule
Activity
p832
(dp833
g8
(lp834
g251
ag702
ag307
ag348
aS'48198668'
p835
ag259
aS'18144425'
p836
aS'13218321'
p837
ag389
aS'83415514'
p838
ag826
ag829
ag40
ag311
ag338
ag67
ag646
ag177
asg42
S'20'
p839
sg43
S'Moderne Databases'
p840
sg45
g240
sg47
g212
sg48
(iread_data
Room
p841
(dp842
g42
g243
sg43
g244
sbsbaa(lp843
(ischedule
Activity
p844
(dp845
g8
(lp846
g728
ag821
ag648
ag822
ag260
ag369
ag97
ag13
ag683
ag732
ag684
ag823
ag88
ag693
ag685
ag824
ag596
ag591
ag686
ag694
ag206
ag57
ag687
ag227
ag729
ag176
ag323
ag321
ag319
ag408
ag105
ag734
ag223
ag678
ag344
ag325
ag675
ag249
ag828
ag825
ag688
ag407
ag730
ag733
ag689
ag413
ag690
ag365
ag661
ag103
ag500
ag502
ag134
ag517
ag532
ag151
ag691
ag826
ag400
ag739
ag198
ag349
ag829
ag366
ag692
ag827
ag187
ag616
ag731
asg42
I1000
sg43
g696
sg45
g46
sg47
I0
sg48
g582
sba(ischedule
Activity
p847
(dp848
g8
(lp849
g500
ag99
ag507
ag634
ag662
ag557
ag661
ag632
ag28
ag87
ag633
ag457
ag459
ag400
ag204
ag66
ag237
ag458
ag116
ag123
ag25
ag594
asg42
I1000
sg43
g461
sg45
g46
sg47
I0
sg48
(iread_data
Room
p850
(dp851
g42
g243
sg43
g244
sbsba(ischedule
Activity
p852
(dp853
g8
(lp854
g57
ag59
ag63
ag65
ag67
ag71
ag75
ag68
ag76
ag74
ag64
ag62
ag58
ag73
ag61
ag69
asg42
S'15'
p855
sg43
g77
sg45
g165
sg47
g212
sg48
(iread_data
Room
p856
(dp857
g42
g80
sg43
g81
sbsba(ischedule
Activity
p858
(dp859
g8
(lp860
g343
ag178
ag274
ag371
ag401
ag102
ag31
ag228
ag354
ag324
ag208
ag21
ag344
ag249
ag374
ag352
ag345
ag250
ag327
ag305
ag346
ag251
ag536
ag353
ag347
ag230
aS'64393888'
p861
ag133
ag273
ag252
ag123
ag355
ag348
ag86
ag88
ag356
ag349
ag253
ag211
ag97
ag260
ag254
ag67
ag258
ag152
ag233
ag270
ag257
ag350
ag255
ag546
ag488
ag12
ag124
ag75
ag325
ag351
ag256
aS'46052388'
p862
ag259
aS'73980360'
p863
asg42
I1000
sg43
g262
sg45
g46
sg47
I0
sg48
(iread_data
Room
p864
(dp865
g42
g51
sg43
g52
sbsba(ischedule
Activity
p866
(dp867
g8
(lp868
g543
ag373
ag371
ag178
ag326
ag33
ag550
ag439
ag622
ag372
ag268
ag613
aS'62613937'
p869
ag303
aS'39429093'
p870
ag480
ag624
ag733
ag527
ag441
asg42
I1000
sg43
S'Advanced Heuristics'
p871
sg45
g46
sg47
I0
sg48
(iread_data
Room
p872
(dp873
g42
g215
sg43
g216
sbsbaa(lp874
(ischedule
Activity
p875
(dp876
g8
(lp877
g371
ag352
ag305
ag353
ag133
ag355
ag356
ag97
ag258
ag488
ag325
ag324
asg42
S'20'
p878
sg43
g262
sg45
g240
sg47
g282
sg48
(iread_data
Room
p879
(dp880
g42
g192
sg43
g193
sbsba(ischedule
Activity
p881
(dp882
g8
(lp883
g500
ag634
ag661
ag594
ag632
ag557
ag87
asg42
g460
sg43
g461
sg45
g240
sg47
g166
sg48
(iread_data
Room
p884
(dp885
g42
g80
sg43
g81
sbsba(ischedule
Activity
p886
(dp887
g8
g381
sg42
I1000
sg43
g189
sg45
g46
sg47
I0
sg48
g241
sba(ischedule
Activity
p888
(dp889
g8
(lp890
g177
ag592
ag25
ag589
ag824
aS'34173695'
p891
ag527
ag550
ag89
ag130
ag226
aS'59220392'
p892
ag389
aS'75623387'
p893
ag591
ag38
aS'6709529'
p894
ag775
ag780
aS'19717077'
p895
ag668
ag590
ag675
ag669
ag273
ag528
ag60
ag803
ag622
ag436
aS'38296757'
p896
ag477
ag438
ag466
asg42
g714
sg43
g715
sg45
g165
sg47
g212
sg48
g49
sba(ischedule
Activity
p897
(dp898
g8
(lp899
g276
aS'73893840'
p900
ag228
ag114
ag485
ag754
aS'73196865'
p901
ag74
ag446
ag861
ag571
aS'39905995'
p902
ag671
ag466
ag269
ag226
ag124
ag623
ag29
ag411
asg42
g508
sg43
g509
sg45
g240
sg47
g212
sg48
(iread_data
Room
p903
(dp904
g42
g169
sg43
g170
sbsba(ischedule
Activity
p905
(dp906
g8
(lp907
g684
aS'26857113'
p908
aS'88597745'
p909
aS'63111000'
p910
ag605
ag19
ag616
ag95
aS'54395877'
p911
ag21
ag253
aS'51791169'
p912
ag768
ag24
ag310
aS'12782624'
p913
asg42
g508
sg43
g509
sg45
g240
sg47
g282
sg48
(iread_data
Room
p914
(dp915
g42
g215
sg43
g216
sbsbaaa(lp916
(lp917
(ischedule
Activity
p918
(dp919
g8
(lp920
g99
ag662
ag633
ag400
ag237
ag507
ag66
ag204
ag116
asg42
g460
sg43
g461
sg45
g240
sg47
g212
sg48
(iread_data
Room
p921
(dp922
g42
g80
sg43
g81
sbsba(ischedule
Activity
p923
(dp924
g8
g860
sg42
I1000
sg43
g262
sg45
g46
sg47
I0
sg48
(iread_data
Room
p925
(dp926
g42
g51
sg43
g52
sbsba(ischedule
Activity
p927
(dp928
g8
(lp929
g573
ag304
ag71
aS'78822885'
p930
ag622
ag30
ag450
ag279
ag534
aS'18477924'
p931
ag96
ag732
ag114
ag425
ag676
aS'97838175'
p932
aS'70193386'
p933
ag645
ag812
aS'80188025'
p934
aS'73350019'
p935
ag666
ag565
ag561
ag557
aS'14637758'
p936
ag179
ag12
aS'60661905'
p937
ag91
ag177
ag490
ag712
ag90
ag105
aS'34900967'
p938
ag25
ag869
ag107
aS'33672995'
p939
aS'58480929'
p940
ag401
ag375
ag671
ag566
ag119
aS'82854435'
p941
ag27
ag465
asg42
I1000
sg43
S'Analysemethoden en -technieken'
p942
sg45
g46
sg47
I0
sg48
(iread_data
Room
p943
(dp944
g42
g169
sg43
g170
sbsba(ischedule
Activity
p945
(dp946
g8
(lp947
g225
ag251
aS'27916487'
p948
ag482
ag702
ag177
ag692
ag307
ag184
ag405
ag348
ag278
ag490
ag835
ag910
aS'27241113'
p949
ag202
ag57
ag117
ag259
ag147
ag622
ag836
ag187
aS'33776961'
p950
ag837
ag739
aS'66621166'
p951
ag438
aS'59111489'
p952
ag563
ag389
ag70
ag505
ag838
aS'1181560'
p953
ag706
ag826
ag123
aS'96082155'
p954
ag829
ag646
ag466
ag40
ag488
aS'41489515'
p955
ag311
aS'49219163'
p956
ag365
ag338
ag422
ag65
ag67
aS'51650744'
p957
asg42
I1000
sg43
g840
sg45
g46
sg47
I0
sg48
(iread_data
Room
p958
(dp959
g42
g215
sg43
g216
sbsba(ischedule
Activity
p960
(dp961
g8
g587
sg42
I1000
sg43
g313
sg45
g46
sg47
I0
sg48
(iread_data
Room
p962
(dp963
g42
g140
sg43
g141
sbsba(ischedule
Activity
p964
(dp965
g8
(lp966
g178
ag624
ag373
asg42
S'10'
p967
sg43
g871
sg45
g240
sg47
g166
sg48
(iread_data
Room
p968
(dp969
g42
g192
sg43
g193
sbsba(ischedule
Activity
p970
(dp971
g8
g601
sg42
I1000
sg43
g295
sg45
g46
sg47
I0
sg48
(iread_data
Room
p972
(dp973
g42
g243
sg43
g244
sbsbaa(lp974
(ischedule
Activity
p975
(dp976
g8
(lp977
g661
ag149
ag666
ag667
ag351
ag668
ag405
ag647
ag633
ag670
ag211
ag500
ag531
ag671
ag672
ag74
ag272
ag433
ag130
ag674
ag251
ag308
ag366
ag675
ag676
ag677
ag227
ag678
ag114
ag679
ag97
ag613
ag669
ag29
ag270
ag205
ag12
ag85
ag673
asg42
g493
sg43
g494
sg45
g165
sg47
g166
sg48
(iread_data
Room
p978
(dp979
g42
g243
sg43
g244
sbsba(ischedule
Activity
p980
(dp981
g8
(lp982
g276
ag180
ag603
ag594
ag233
ag16
ag293
ag271
ag56
ag28
ag23
ag292
ag291
ag288
asg42
S'10'
p983
sg43
g295
sg45
g165
sg47
g212
sg48
(iread_data
Room
p984
(dp985
g42
g80
sg43
g81
sbsba(ischedule
Activity
p986
(dp987
g8
(lp988
g482
ag692
ag949
ag117
ag622
ag950
ag951
ag563
ag505
ag706
ag954
ag466
ag955
ag365
ag65
ag187
ag202
ag910
asg42
g839
sg43
g840
sg45
g240
sg47
g166
sg48
g582
sba(ischedule
Activity
p989
(dp990
g8
(lp991
g155
ag543
ag110
ag223
ag156
ag546
ag132
ag154
ag547
ag158
ag27
ag151
ag544
ag550
ag548
ag150
ag40
ag371
ag159
ag146
asg42
S'20'
p992
sg43
g164
sg45
g240
sg47
g212
sg48
g138
sba(ischedule
Activity
p993
(dp994
g8
(lp995
g777
ag275
ag35
ag469
ag233
ag272
ag677
ag28
ag441
ag206
ag234
ag481
aS'19540225'
p996
ag10
ag568
ag103
ag270
aS'64554442'
p997
ag236
ag231
asg42
g393
sg43
g239
sg45
g165
sg47
g212
sg48
g718
sba(ischedule
Activity
p998
(dp999
g8
(lp1000
g542
ag519
ag101
ag482
ag62
ag824
ag227
ag687
ag625
aS'28943658'
p1001
aS'64053722'
p1002
ag711
ag624
ag765
aS'7386961'
p1003
ag530
ag424
aS'92778619'
p1004
asg42
g508
sg43
g509
sg45
g240
sg47
S'5'
p1005
sg48
g49
sba(ischedule
Activity
p1006
(dp1007
g8
(lp1008
g305
ag488
ag325
asg42
g261
sg43
g262
sg45
g165
sg47
g282
sg48
g297
sbaa(lp1009
(ischedule
Activity
p1010
(dp1011
g8
g846
sg42
I1000
sg43
g696
sg45
g46
sg47
I0
sg48
(iread_data
Room
p1012
(dp1013
g42
g51
sg43
g52
sbsba(ischedule
Activity
p1014
(dp1015
g8
(lp1016
g556
ag353
ag387
ag233
ag90
ag558
ag559
ag560
ag561
ag443
ag370
ag570
ag573
ag276
ag145
ag108
ag417
ag563
ag187
ag564
ag458
ag388
ag566
ag222
ag302
ag131
ag256
ag403
ag225
ag418
ag91
ag338
ag180
ag765
ag232
ag567
ag94
ag572
asg42
S'40'
p1017
sg43
g575
sg45
g240
sg47
g166
sg48
(iread_data
Room
p1018
(dp1019
g42
g169
sg43
g170
sbsba(ischedule
Activity
p1020
(dp1021
g8
(lp1022
g692
ag405
ag490
ag949
ag622
ag950
ag563
ag505
ag706
ag954
ag466
ag955
ag65
ag202
ag67
ag838
ag57
asg42
S'20'
p1023
sg43
g840
sg45
g165
sg47
g166
sg48
g718
sbaa(lp1024
(ischedule
Activity
p1025
(dp1026
g8
(lp1027
S'27805666'
p1028
ag222
ag291
aS'36213792'
p1029
ag562
ag410
ag104
ag937
ag323
ag589
ag27
ag179
aS'27370083'
p1030
ag607
ag789
ag157
ag896
ag485
ag441
ag573
ag933
ag268
aS'82390428'
p1031
ag63
ag593
ag672
ag505
aS'51415617'
p1032
ag350
ag790
aS'20095994'
p1033
ag534
ag791
ag184
ag428
ag13
ag14
ag310
ag227
ag950
ag792
ag96
ag398
ag557
ag204
ag646
ag613
ag488
ag416
ag793
ag1004
asg42
I1000
sg43
g795
sg45
g46
sg47
I0
sg48
(iread_data
Room
p1034
(dp1035
g42
g51
sg43
g52
sbsba(ischedule
Activity
p1036
(dp1037
g8
(lp1038
g276
ag69
ag180
ag602
ag228
ag594
ag233
ag16
ag604
ag271
asg42
g294
sg43
g295
sg45
g240
sg47
g212
sg48
g718
sba(ischedule
Activity
p1039
(dp1040
g8
(lp1041
g13
ag15
ag17
ag19
ag21
ag23
ag25
ag27
ag29
ag31
ag37
ag33
ag40
ag10
ag30
ag38
ag18
ag26
ag22
asg42
g581
sg43
g44
sg45
g165
sg47
g212
sg48
g138
sba(ischedule
Activity
p1042
(dp1043
g8
(lp1044
g997
ag777
ag275
ag35
ag469
ag272
ag677
ag28
ag391
ag441
ag568
ag206
ag103
ag250
ag481
ag392
ag388
ag389
ag390
ag387
ag270
ag996
asg42
g238
sg43
g239
sg45
g240
sg47
g212
sg48
(iread_data
Room
p1045
(dp1046
g42
g80
sg43
g81
sbsba(ischedule
Activity
p1047
(dp1048
g8
(lp1049
g458
ag569
ag344
ag589
ag309
ag418
ag89
ag177
ag411
ag593
ag595
ag86
ag596
ag567
ag228
ag588
ag592
ag128
asg42
g470
sg43
g313
sg45
g165
sg47
g296
sg48
(iread_data
Room
p1050
(dp1051
g42
g192
sg43
g193
sbsba(ischedule
Activity
p1052
(dp1053
g8
(lp1054
g774
ag339
aS'55103073'
p1055
ag226
aS'1695839'
p1056
ag368
aS'64418623'
p1057
ag200
ag527
ag352
ag559
ag533
ag76
ag644
aS'47260040'
p1058
asg42
g742
sg43
g743
sg45
g240
sg47
g212
sg48
(iread_data
Room
p1059
(dp1060
g42
g169
sg43
g170
sbsba(ischedule
Activity
p1061
(dp1062
g8
(lp1063
g517
aS'63096281'
p1064
ag220
ag937
ag97
ag436
ag417
aS'10702778'
p1065
ag480
ag160
ag94
ag938
ag290
ag126
ag425
ag208
ag104
ag407
ag107
asg42
g508
sg43
g509
sg45
g240
sg47
S'6'
p1066
sg48
(iread_data
Room
p1067
(dp1068
g42
g243
sg43
g244
sbsbaa(lp1069
(ischedule
Activity
p1070
(dp1071
g8
(lp1072
g729
aS'90067329'
p1073
ag500
ag11
ag369
ag35
ag311
ag407
ag417
ag375
ag908
ag822
ag416
ag231
ag276
ag896
ag427
ag252
aS'33252501'
p1074
aS'67625383'
p1075
ag428
ag910
asg42
I1000
sg43
S'Machine Learning'
p1076
sg45
g46
sg47
I0
sg48
(iread_data
Room
p1077
(dp1078
g42
g243
sg43
g244
sbsba(ischedule
Activity
p1079
(dp1080
g8
(lp1081
g821
ag822
ag369
ag13
ag823
ag693
ag824
ag591
ag694
ag57
ag321
ag408
ag678
ag325
ag249
ag825
ag407
ag365
ag103
ag502
ag517
ag151
ag826
ag739
ag349
ag827
ag616
ag828
ag366
ag829
ag105
ag134
ag688
ag684
ag400
ag691
asg42
g735
sg43
g696
sg45
g240
sg47
g212
sg48
(iread_data
Room
p1082
(dp1083
g42
g51
sg43
g52
sbsba(ischedule
Activity
p1084
(dp1085
g8
(lp1086
g596
ag112
ag535
ag185
ag762
ag210
ag571
ag40
ag323
ag158
ag763
ag690
ag87
ag764
ag260
ag569
ag35
ag766
ag568
ag392
ag633
ag730
ag459
ag327
ag254
ag767
ag592
ag400
ag768
ag557
ag351
ag147
ag269
ag562
ag449
ag354
ag565
asg42
g1017
sg43
g575
sg45
g240
sg47
g212
sg48
(iread_data
Room
p1087
(dp1088
g42
g169
sg43
g170
sbsba(ischedule
Activity
p1089
(dp1090
g8
(lp1091
g220
ag235
ag387
ag997
ag388
ag777
ag221
ag275
ag222
ag35
ag223
ag469
ag389
ag236
ag224
ag233
ag996
ag272
ag225
ag677
ag226
ag28
ag227
ag391
ag237
ag441
ag228
ag568
ag390
ag206
ag10
ag103
ag270
ag234
ag110
ag250
ag229
ag481
ag230
ag232
ag231
ag392
ag62
asg42
I1000
sg43
g239
sg45
g46
sg47
I0
sg48
(iread_data
Room
p1092
(dp1093
g42
g140
sg43
g141
sbsba(ischedule
Activity
p1094
(dp1095
g8
(lp1096
g57
ag59
ag61
ag67
ag69
ag71
ag75
ag74
ag73
ag64
ag63
ag72
ag68
ag76
ag60
ag70
asg42
S'15'
p1097
sg43
g77
sg45
g240
sg47
g212
sg48
(iread_data
Room
p1098
(dp1099
g42
g80
sg43
g81
sbsba(ischedule
Activity
p1100
(dp1101
g8
g773
sg42
I1000
sg43
g783
sg45
g46
sg47
I0
sg48
(iread_data
Room
p1102
(dp1103
g42
g215
sg43
g216
sbsba(ischedule
Activity
p1104
(dp1105
g8
(lp1106
g702
ag307
ag348
ag259
ag836
ag438
ag389
ag826
ag829
ag40
ag311
ag482
ag225
ag837
ag251
ag123
ag117
asg42
g1023
sg43
g840
sg45
g165
sg47
g212
sg48
(iread_data
Room
p1107
(dp1108
g42
g192
sg43
g193
sbsbaaa(lp1109
(lp1110
(ischedule
Activity
p1111
(dp1112
g8
(lp1113
g343
ag401
ag354
ag344
ag346
ag347
ag273
ag348
ag349
ag260
ag152
ag350
ag12
ag351
ag863
ag257
ag274
ag228
ag249
asg42
g878
sg43
g262
sg45
g240
sg47
g166
sg48
g718
sba(ischedule
Activity
p1114
(dp1115
g8
(lp1116
g338
ag596
ag449
ag112
ag269
ag535
ag556
ag185
ag557
ag762
ag353
ag210
ag387
ag571
ag233
ag40
ag90
ag323
ag558
ag158
ag559
ag180
ag560
ag763
ag561
ag690
ag443
ag87
ag370
ag764
ag147
ag351
ag570
ag260
ag573
ag569
ag276
ag765
ag145
ag35
ag108
ag766
ag417
ag568
ag562
ag567
ag563
ag392
ag187
ag633
ag564
ag730
ag565
ag459
ag458
ag327
ag388
ag91
ag566
ag254
ag222
ag767
ag302
ag232
ag354
ag94
ag131
ag572
ag256
ag592
ag403
ag400
ag225
ag768
ag418
asg42
I1000
sg43
g575
sg45
g46
sg47
I0
sg48
(iread_data
Room
p1117
(dp1118
g42
g51
sg43
g52
sbsba(ischedule
Activity
p1119
(dp1120
g8
(lp1121
g222
ag562
ag937
ag896
ag573
ag1031
ag672
ag350
ag534
ag428
ag310
ag613
ag488
ag933
ag96
ag593
ag1033
asg42
g794
sg43
g795
sg45
g165
sg47
g212
sg48
(iread_data
Room
p1122
(dp1123
g42
g192
sg43
g193
sbsba(ischedule
Activity
p1124
(dp1125
g8
(lp1126
g1028
ag1029
ag104
ag589
ag1030
ag157
ag441
ag1032
ag184
ag14
ag950
ag398
ag416
ag557
ag27
ag505
ag1004
ag485
ag410
asg42
g794
sg43
g795
sg45
g165
sg47
g166
sg48
(iread_data
Room
p1127
(dp1128
g42
g80
sg43
g81
sbsba(ischedule
Activity
p1129
(dp1130
g8
(lp1131
g934
aS'11593163'
p1132
ag434
ag688
ag546
aS'31306819'
p1133
ag571
aS'23628642'
p1134
ag480
ag399
ag624
aS'75446434'
p1135
ag411
ag536
ag119
aS'53139134'
p1136
aS'56348773'
p1137
ag489
ag670
ag762
ag365
ag115
ag118
ag671
aS'72526473'
p1138
ag24
ag939
ag763
aS'77306636'
p1139
aS'65978354'
p1140
ag121
ag838
ag17
ag237
asg42
g714
sg43
g715
sg45
g165
sg47
g296
sg48
(iread_data
Room
p1141
(dp1142
g42
g169
sg43
g170
sbsba(ischedule
Activity
p1143
(dp1144
g8
(lp1145
g56
ag319
ag590
ag310
ag439
ag311
ag594
ag41
ag433
ag559
ag184
ag16
ag591
asg42
g470
sg43
g313
sg45
g165
sg47
g166
sg48
(iread_data
Room
p1146
(dp1147
g42
g243
sg43
g244
sbsbaa(lp1148
(ischedule
Activity
p1149
(dp1150
g8
g587
sg42
I1000
sg43
g313
sg45
g46
sg47
I0
sg48
(iread_data
Room
p1151
(dp1152
g42
g169
sg43
g170
sbsba(ischedule
Activity
p1153
(dp1154
g8
(lp1155
g439
ag372
ag303
ag480
ag733
ag441
ag622
ag527
ag371
ag268
ag870
ag326
ag33
ag869
ag550
ag543
ag613
asg42
g967
sg43
g871
sg45
g240
sg47
g212
sg48
(iread_data
Room
p1156
(dp1157
g42
g140
sg43
g141
sbsba(ischedule
Activity
p1158
(dp1159
g8
g1072
sg42
I1000
sg43
g1076
sg45
g46
sg47
I0
sg48
(iread_data
Room
p1160
(dp1161
g42
g51
sg43
g52
sbsba(ischedule
Activity
p1162
(dp1163
g8
(lp1164
g31
ag208
ag374
ag327
ag861
ag123
ag88
ag211
ag67
ag270
ag546
ag75
ag862
ag345
ag250
ag233
asg42
g878
sg43
g262
sg45
g240
sg47
g296
sg48
(iread_data
Room
p1165
(dp1166
g42
g192
sg43
g193
sbsba(ischedule
Activity
p1167
(dp1168
g8
(lp1169
g255
ag256
ag106
ag662
ag813
ag98
ag557
ag202
ag128
ag425
ag302
ag435
ag816
ag308
ag108
ag259
ag180
ag34
ag565
ag618
ag817
ag812
ag63
ag734
ag815
ag814
ag73
ag433
asg42
g627
sg43
g628
sg45
g165
sg47
g166
sg48
g241
sba(ischedule
Activity
p1170
(dp1171
g8
g849
sg42
I1000
sg43
g461
sg45
g46
sg47
I0
sg48
g654
sba(ischedule
Activity
p1172
(dp1173
g8
(lp1174
g101
ag91
ag606
ag602
ag69
ag228
asg42
g983
sg43
g295
sg45
g165
sg47
g166
sg48
(iread_data
Room
p1175
(dp1176
g42
g215
sg43
g216
sbsbaa(lp1177
(ischedule
Activity
p1178
(dp1179
g8
(lp1180
g948
ag184
ag278
ag57
ag147
ag739
ag952
ag70
ag953
ag123
ag488
ag956
ag422
ag957
ag438
ag490
ag225
ag405
asg42
g839
sg43
g840
sg45
g240
sg47
g296
sg48
(iread_data
Room
p1181
(dp1182
g42
g243
sg43
g244
sbsba(ischedule
Activity
p1183
(dp1184
g8
(lp1185
g274
ag31
ag208
ag374
ag327
ag536
ag861
ag211
ag270
ag546
ag75
ag862
ag371
ag86
ag324
ag228
ag401
ag863
asg42
g261
sg43
g262
sg45
g165
sg47
g296
sg48
(iread_data
Room
p1186
(dp1187
g42
g80
sg43
g81
sbsba(ischedule
Activity
p1188
(dp1189
g8
(lp1190
g293
ag177
ag934
ag702
ag237
ag1132
ag713
ag592
ag434
ag256
ag25
ag688
ag128
ag589
ag546
ag308
ag824
ag712
ag703
ag891
ag1133
ag159
ag527
ag571
ag466
ag550
ag1134
ag572
ag89
ag480
ag642
ag130
ag399
ag17
ag226
ag624
ag407
ag892
ag1135
ag501
ag389
ag411
ag231
ag893
ag536
ag253
ag591
ag119
ag92
ag38
ag1136
ag704
ag894
ag1137
ag705
ag775
ag489
ag31
ag780
ag670
ag565
ag895
ag762
ag568
ag668
ag365
ag321
ag590
ag115
ag706
ag675
ag118
ag707
ag669
ag671
ag708
ag273
ag711
ag437
ag709
ag1138
ag250
ag528
ag24
ag566
ag60
ag939
ag406
ag803
ag763
ag447
ag622
ag1139
ag643
ag436
ag710
ag15
ag896
ag1140
ag408
ag477
ag121
ag563
ag438
ag838
ag432
asg42
I1000
sg43
g715
sg45
g46
sg47
I0
sg48
(iread_data
Room
p1191
(dp1192
g42
g51
sg43
g52
sbsba(ischedule
Activity
p1193
(dp1194
g8
(lp1195
g178
ag102
ag251
ag230
ag252
ag86
ag253
ag254
ag124
ag256
ag536
ag21
ag255
ag259
asg42
g878
sg43
g262
sg45
g240
sg47
g212
sg48
(iread_data
Room
p1196
(dp1197
g42
g169
sg43
g170
sbsba(ischedule
Activity
p1198
(dp1199
g8
g1027
sg42
I1000
sg43
g795
sg45
g46
sg47
I0
sg48
(iread_data
Room
p1200
(dp1201
g42
g140
sg43
g141
sbsbaa(lp1202
(ischedule
Activity
p1203
(dp1204
g8
g84
sg42
I1000
sg43
g137
sg45
g46
sg47
I0
sg48
g138
sba(ischedule
Activity
p1205
(dp1206
g8
(lp1207
g266
aS'90103047'
p1208
aS'19662602'
p1209
ag416
ag728
ag223
ag305
ag669
aS'37419523'
p1210
aS'81116418'
p1211
ag210
ag350
ag403
aS'34691309'
p1212
ag675
ag596
aS'32183908'
p1213
ag23
asg42
g520
sg43
g521
sg45
g240
sg47
g296
sg48
(iread_data
Room
p1214
(dp1215
g42
g243
sg43
g244
sbsba(ischedule
Activity
p1216
(dp1217
g8
(lp1218
g56
ag60
ag66
ag70
ag72
asg42
g855
sg43
g77
sg45
g165
sg47
g166
sg48
(iread_data
Room
p1219
(dp1220
g42
g215
sg43
g216
sbsba(ischedule
Activity
p1221
(dp1222
g8
(lp1223
g290
ag446
ag605
ag607
ag204
ag604
ag289
asg42
g983
sg43
g295
sg45
g165
sg47
g296
sg48
g297
sba(ischedule
Activity
p1224
(dp1225
g8
(lp1226
g161
ag145
ag481
ag506
ag545
ag186
ag21
ag149
ag152
ag205
ag160
ag542
ag147
ag153
ag157
ag148
ag162
ag549
ag399
asg42
g992
sg43
g164
sg45
g240
sg47
g166
sg48
g582
sba(ischedule
Activity
p1227
(dp1228
g8
(lp1229
g469
ag567
ag590
ag16
ag592
ag594
ag41
ag433
ag569
ag559
ag411
ag468
ag465
ag467
asg42
g312
sg43
g313
sg45
g240
sg47
g166
sg48
g654
sba(ischedule
Activity
p1230
(dp1231
g8
(lp1232
g683
ag545
ag421
ag346
ag221
ag235
ag412
ag250
ag838
ag70
ag827
ag564
ag349
ag560
ag445
ag589
ag950
aS'90296821'
p1233
ag75
ag591
asg42
g508
sg43
g509
sg45
g240
sg47
g166
sg48
(iread_data
Room
p1234
(dp1235
g42
g51
sg43
g52
sbsbaa(lp1236
(ischedule
Activity
p1237
(dp1238
g8
g860
sg42
I1000
sg43
g262
sg45
g46
sg47
I0
sg48
(iread_data
Room
p1239
(dp1240
g42
g215
sg43
g216
sbsba(ischedule
Activity
p1241
(dp1242
g8
(lp1243
g58
ag62
ag66
ag56
ag65
asg42
g1097
sg43
g77
sg45
g240
sg47
g166
sg48
g138
sba(ischedule
Activity
p1244
(dp1245
g8
(lp1246
g542
ag110
ag223
ag546
ag132
ag371
ag547
ag399
ag27
ag481
ag544
ag21
ag545
ag205
ag548
ag40
ag543
ag186
ag549
ag506
ag550
asg42
g163
sg43
g164
sg45
g165
sg47
g212
sg48
g582
sba(ischedule
Activity
p1247
(dp1248
g8
(lp1249
g458
ag344
ag589
ag418
ag89
ag177
ag593
ag595
ag596
ag128
ag466
ag439
ag588
ag591
ag151
ag319
asg42
g312
sg43
g313
sg45
g240
sg47
g296
sg48
g654
sba(ischedule
Activity
p1250
(dp1251
g8
(lp1252
g816
ag569
ag792
ag624
ag459
ag793
ag349
ag532
ag372
ag692
ag41
ag115
ag290
aS'21070547'
p1253
ag85
ag134
ag465
ag708
asg42
g520
sg43
g521
sg45
g240
sg47
g212
sg48
(iread_data
Room
p1254
(dp1255
g42
g243
sg43
g244
sbsba(ischedule
Activity
p1256
(dp1257
g8
g396
sg42
I1000
sg43
g451
sg45
g46
sg47
I0
sg48
g49
sba(ischedule
Activity
p1258
(dp1259
g8
(lp1260
g948
ag177
ag184
ag278
ag910
ag147
ag187
ag739
ag952
ag70
ag953
ag646
ag488
ag956
ag422
ag957
ag338
ag365
ag951
ag835
asg42
g1023
sg43
g840
sg45
g165
sg47
g296
sg48
(iread_data
Room
p1261
(dp1262
g42
g192
sg43
g193
sbsbaaa(lp1263
(lp1264
a(lp1265
a(lp1266
a(lp1267
a(lp1268
aasS'timeslot_dict'
p1269
(dp1270
I0
S'9:00-11:00'
p1271
sI1
S'11:00-13:00'
p1272
sI2
S'13:00-15:00'
p1273
sI3
S'15:00-17:00'
p1274
sI4
S'17:00-19:00'
p1275
ssS'day_dict'
p1276
(dp1277
I0
S'Monday'
p1278
sI1
S'Tuesday'
p1279
sI2
S'Wednesday'
p1280
sI3
S'Thursday'
p1281
sI4
S'Friday'
p1282
ssb.