(ischedule
Schedule
p0
(dp1
S'timetable'
p2
(lp3
(lp4
(lp5
(ischedule
Activity
p6
(dp7
S'participants'
p8
(lp9
S'50143947'
p10
aS'68360259'
p11
aS'99453514'
p12
aS'59753700'
p13
aS'13996448'
p14
aS'87314964'
p15
asS'capacity'
p16
S'10'
p17
sS'group'
p18
(ischedule
Group
p19
(dp20
g8
g9
sS'name'
p21
S'Data Mining2'
p22
sbsS'room'
p23
(iread_data3
Room
p24
(dp25
g16
S'20'
p26
sg21
S'A1.08'
p27
sbsS'ttype'
p28
S'labs'
p29
sS'group_id'
p30
S'2'
p31
sg21
S'Data Mining'
p32
sba(ischedule
Activity
p33
(dp34
g8
(lp35
S'65960683'
p36
aS'27950803'
p37
aS'11915563'
p38
aS'68315599'
p39
aS'86291592'
p40
aS'60312776'
p41
aS'92665222'
p42
aS'98105190'
p43
aS'12077419'
p44
aS'42778953'
p45
aS'34243356'
p46
aS'84524083'
p47
aS'58522654'
p48
aS'13284244'
p49
aS'5368702'
p50
aS'49683101'
p51
aS'79167252'
p52
aS'37770881'
p53
aS'88855695'
p54
aS'7957843'
p55
aS'94687383'
p56
aS'2317551'
p57
aS'88636924'
p58
aS'54772132'
p59
aS'1766560'
p60
aS'48503689'
p61
aS'40791377'
p62
aS'75759231'
p63
aS'76661016'
p64
aS'65852230'
p65
asg16
S'40'
p66
sg18
(ischedule
Group
p67
(dp68
g8
g35
sg21
S'Compilerbouw1'
p69
sbsg23
(iread_data3
Room
p70
(dp71
g16
S'60'
p72
sg21
S'C1.112'
p73
sbsg28
S'tutorials'
p74
sg30
S'1'
p75
sg21
S'Compilerbouw'
p76
sba(ischedule
Activity
p77
(dp78
g8
(lp79
S'36785409'
p80
aS'85335143'
p81
aS'75521763'
p82
aS'37110913'
p83
aS'41578612'
p84
aS'97371272'
p85
aS'26406342'
p86
aS'21192048'
p87
aS'44901052'
p88
aS'10149535'
p89
aS'48308205'
p90
aS'75664412'
p91
aS'11996292'
p92
aS'14383795'
p93
aS'12430748'
p94
aS'77264363'
p95
aS'77636749'
p96
aS'93041523'
p97
aS'4697362'
p98
aS'89338938'
p99
aS'69086548'
p100
aS'9332762'
p101
aS'31194811'
p102
aS'40434933'
p103
aS'6249823'
p104
aS'76487754'
p105
aS'47982619'
p106
aS'32204977'
p107
asg16
S'20'
p108
sg18
(ischedule
Group
p109
(dp110
g8
g79
sg21
S'Technology for games1'
p111
sbsg23
(iread_data3
Room
p112
(dp113
g16
S'117'
p114
sg21
S'C0.110'
p115
sbsg28
g74
sg30
g75
sg21
S'Technology for games'
p116
sba(ischedule
Activity
p117
(dp118
g8
(lp119
S'72577292'
p120
aS'24277163'
p121
aS'33760909'
p122
aS'13092455'
p123
aS'54310617'
p124
aS'73980360'
p125
aS'61443567'
p126
aS'64393888'
p127
aS'68601184'
p128
aS'23547619'
p129
aS'64296965'
p130
aS'1696500'
p131
aS'64228258'
p132
aS'53107172'
p133
aS'34773179'
p134
aS'96104167'
p135
aS'76123484'
p136
aS'77240949'
p137
asg16
S'20'
p138
sg18
(ischedule
Group
p139
(dp140
g8
g119
sg21
S'Collectieve Intelligentie2'
p141
sbsg23
(iread_data3
Room
p142
(dp143
g16
S'41'
p144
sg21
S'A1.04'
p145
sbsg28
g74
sg30
g31
sg21
S'Collectieve Intelligentie'
p146
sba(ischedule
Activity
p147
(dp148
g8
(lp149
S'14591033'
p150
aS'89985072'
p151
aS'24613625'
p152
aS'3168419'
p153
aS'4568018'
p154
aS'29526540'
p155
aS'11068043'
p156
aS'73236988'
p157
aS'96054456'
p158
aS'28359697'
p159
aS'43680781'
p160
aS'64600457'
p161
aS'44868097'
p162
ag48
ag81
aS'20883994'
p163
aS'96453361'
p164
aS'33877725'
p165
aS'33930505'
p166
aS'21029457'
p167
aS'6913074'
p168
aS'56749879'
p169
aS'21964491'
p170
aS'79617364'
p171
aS'22731474'
p172
aS'30195935'
p173
aS'56815156'
p174
aS'66120270'
p175
aS'88176729'
p176
aS'15051051'
p177
aS'42196732'
p178
aS'30050930'
p179
aS'77831658'
p180
aS'5298748'
p181
aS'54026378'
p182
aS'53202517'
p183
aS'81200278'
p184
aS'6723948'
p185
aS'7308727'
p186
aS'22826928'
p187
aS'59544049'
p188
aS'14816774'
p189
aS'70878567'
p190
aS'74131924'
p191
aS'247918'
p192
asg16
I1000
sg18
Nsg23
(iread_data3
Room
p193
(dp194
g16
S'56'
p195
sg21
S'A1.10'
p196
sbsg28
S'lectures'
p197
sg30
g75
sg21
S'Bioinformatica'
p198
sba(ischedule
Activity
p199
(dp200
g8
(lp201
S'1665980'
p202
aS'72895450'
p203
aS'82689818'
p204
aS'78136904'
p205
aS'15902055'
p206
aS'86988337'
p207
aS'26260141'
p208
aS'81385263'
p209
aS'14671406'
p210
aS'34765676'
p211
aS'41527759'
p212
aS'58592894'
p213
aS'66433883'
p214
aS'27298319'
p215
aS'53585410'
p216
aS'23652927'
p217
aS'5976174'
p218
aS'8522855'
p219
aS'3474870'
p220
asg16
S'25'
p221
sg18
(ischedule
Group
p222
(dp223
g8
g201
sg21
S'Algoritmen en complexiteit2'
p224
sbsg23
(iread_data3
Room
p225
(dp226
g16
S'48'
p227
sg21
S'B0.201'
p228
sbsg28
g74
sg30
g31
sg21
S'Algoritmen en complexiteit'
p229
sba(ischedule
Activity
p230
(dp231
g8
(lp232
S'77376714'
p233
aS'11741347'
p234
aS'58332004'
p235
aS'36527838'
p236
aS'78443067'
p237
aS'14309255'
p238
aS'70072978'
p239
aS'78243495'
p240
aS'51650744'
p241
aS'36748818'
p242
aS'78544592'
p243
aS'99283252'
p244
aS'49219163'
p245
aS'27916487'
p246
aS'1181560'
p247
aS'30658799'
p248
aS'3883025'
p249
asg16
S'20'
p250
sg18
(ischedule
Group
p251
(dp252
g8
g232
sg21
S'Moderne Databases1'
p253
sbsg23
(iread_data3
Room
p254
(dp255
g16
S'22'
p256
sg21
S'A1.06'
p257
sbsg28
g74
sg30
g75
sg21
S'Moderne Databases'
p258
sbaa(lp259
(ischedule
Activity
p260
(dp261
g8
(lp262
S'87210640'
p263
aS'53775014'
p264
aS'97417002'
p265
aS'79879876'
p266
ag154
aS'58736785'
p267
ag150
aS'20830477'
p268
aS'97019450'
p269
aS'22323043'
p270
ag82
aS'45660925'
p271
aS'76393508'
p272
aS'83443653'
p273
aS'92977271'
p274
aS'81218347'
p275
aS'4353500'
p276
aS'20331158'
p277
aS'75997788'
p278
aS'61060652'
p279
aS'59075181'
p280
aS'71839156'
p281
aS'22871048'
p282
aS'48357272'
p283
aS'31897288'
p284
ag189
aS'94930277'
p285
ag133
aS'86807027'
p286
ag43
aS'13658563'
p287
aS'19858730'
p288
aS'4783858'
p289
aS'57467488'
p290
ag92
ag131
ag83
aS'36903574'
p291
aS'66122625'
p292
ag88
aS'42171678'
p293
ag169
aS'14138904'
p294
aS'14941752'
p295
asg16
I1000
sg18
Nsg23
(iread_data3
Room
p296
(dp297
g16
g195
sg21
g196
sbsg28
g197
sg30
g75
sg21
S'Heuristieken 1'
p298
sba(ischedule
Activity
p299
(dp300
g8
(lp301
g99
ag61
ag60
ag90
ag49
ag40
aS'32183908'
p302
aS'37419523'
p303
aS'75005528'
p304
aS'74182182'
p305
aS'63939720'
p306
ag45
aS'19662602'
p307
aS'88752563'
p308
ag156
aS'6939933'
p309
aS'42406214'
p310
ag94
ag172
asg16
S'15'
p311
sg18
(ischedule
Group
p312
(dp313
g8
g301
sg21
S'Project Numerical Recipes2'
p314
sbsg23
(iread_data3
Room
p315
(dp316
g16
g227
sg21
g228
sbsg28
g29
sg30
g31
sg21
S'Project Numerical Recipes'
p317
sba(ischedule
Activity
p318
(dp319
g8
(lp320
g104
aS'24891081'
p321
aS'20618153'
p322
aS'39230359'
p323
ag240
aS'69459473'
p324
aS'89180944'
p325
ag132
aS'27064249'
p326
aS'17092717'
p327
aS'67073567'
p328
aS'76903244'
p329
aS'43460038'
p330
aS'14303208'
p331
aS'10698627'
p332
aS'66034145'
p333
ag203
ag285
aS'49908313'
p334
aS'5615125'
p335
ag220
ag183
aS'53512831'
p336
ag126
aS'41790793'
p337
aS'43902015'
p338
aS'14847953'
p339
aS'28358060'
p340
aS'22288615'
p341
aS'2416751'
p342
aS'77392404'
p343
ag165
aS'16333449'
p344
ag120
ag136
aS'76648468'
p345
ag103
aS'57086672'
p346
aS'1137946'
p347
asg16
I1000
sg18
Nsg23
(iread_data3
Room
p348
(dp349
g16
g72
sg21
g73
sbsg28
g197
sg30
g75
sg21
S'Webprogrammeren en databases'
p350
sba(ischedule
Activity
p351
(dp352
g8
(lp353
g137
aS'37744525'
p354
aS'90067329'
p355
aS'27187154'
p356
aS'23798155'
p357
aS'39459642'
p358
ag51
aS'63111000'
p359
aS'56988998'
p360
aS'26857113'
p361
aS'3685034'
p362
ag218
aS'85236626'
p363
aS'46701583'
p364
aS'67625383'
p365
aS'61518436'
p366
ag62
aS'38296757'
p367
ag177
aS'94467156'
p368
aS'33252501'
p369
aS'2079771'
p370
asg16
I1000
sg18
Nsg23
(iread_data3
Room
p371
(dp372
g16
g256
sg21
g257
sbsg28
g197
sg30
g75
sg21
S'Machine Learning'
p373
sba(ischedule
Activity
p374
(dp375
g8
(lp376
g154
ag160
ag48
ag170
ag182
ag152
ag185
ag151
ag191
ag153
ag158
ag186
asg16
S'20'
p377
sg18
(ischedule
Group
p378
(dp379
g8
g376
sg21
S'Bioinformatica2'
p380
sbsg23
(iread_data3
Room
p381
(dp382
g16
g114
sg21
g115
sbsg28
g74
sg30
g31
sg21
g198
sba(ischedule
Activity
p383
(dp384
g8
(lp385
S'3707829'
p386
aS'2550487'
p387
aS'76924297'
p388
aS'37701751'
p389
aS'81155296'
p390
aS'21677389'
p391
aS'28055464'
p392
aS'69634191'
p393
aS'65675896'
p394
ag339
aS'37399898'
p395
ag209
aS'38179241'
p396
aS'93566383'
p397
ag184
aS'44828429'
p398
aS'64768422'
p399
ag333
ag50
ag129
aS'4546613'
p400
aS'20374340'
p401
ag64
aS'19214659'
p402
ag211
asg16
I1000
sg18
Nsg23
(iread_data3
Room
p403
(dp404
g16
g144
sg21
g145
sbsg28
g197
sg30
g31
sg21
S'Interactie-ontwerp'
p405
sba(ischedule
Activity
p406
(dp407
g8
(lp408
g190
aS'23257088'
p409
aS'18266644'
p410
ag235
ag39
aS'11459236'
p411
ag107
asg16
S'15'
p412
sg18
(ischedule
Group
p413
(dp414
g8
g408
sg21
S'Informatie- en organsatieontwerp1'
p415
sbsg23
(iread_data3
Room
p416
(dp417
g16
g26
sg21
g27
sbsg28
g74
sg30
g75
sg21
S'Informatie- en organsatieontwerp'
p418
sbaa(lp419
(ischedule
Activity
p420
(dp421
g8
(lp422
g233
ag155
ag249
aS'41489515'
p423
aS'49631542'
p424
ag239
ag244
aS'96082155'
p425
aS'84449005'
p426
aS'83266686'
p427
ag177
ag161
aS'59111489'
p428
ag246
ag60
ag160
aS'33776961'
p429
aS'5517869'
p430
ag121
aS'58699305'
p431
ag243
ag241
ag213
aS'4709948'
p432
ag240
ag325
ag236
aS'47462856'
p433
aS'17222374'
p434
aS'78821918'
p435
ag234
aS'48198668'
p436
aS'27241113'
p437
ag278
ag237
ag238
aS'13911001'
p438
aS'83415514'
p439
aS'18144425'
p440
aS'46570285'
p441
ag359
ag245
ag247
ag92
ag293
ag248
ag82
aS'13218321'
p442
ag81
ag39
aS'50184318'
p443
ag242
ag235
aS'66621166'
p444
asg16
I1000
sg18
Nsg23
(iread_data3
Room
p445
(dp446
g16
g227
sg21
g228
sbsg28
g197
sg30
g75
sg21
g258
sba(ischedule
Activity
p447
(dp448
g8
(lp449
S'83210352'
p450
ag150
aS'16011419'
p451
aS'31416266'
p452
aS'55474917'
p453
aS'87758823'
p454
aS'55412918'
p455
ag304
aS'91196968'
p456
aS'16097870'
p457
aS'62872965'
p458
ag84
aS'52311353'
p459
ag178
ag430
aS'77896638'
p460
aS'35330349'
p461
ag209
ag220
aS'94686490'
p462
ag305
aS'80998260'
p463
aS'94955328'
p464
ag279
ag281
aS'23565001'
p465
aS'80709893'
p466
aS'68409833'
p467
aS'36508571'
p468
ag395
ag344
ag236
aS'26172512'
p469
aS'21311067'
p470
aS'670011'
p471
ag397
ag275
aS'54074680'
p472
aS'4921119'
p473
aS'42115591'
p474
ag89
aS'32595335'
p475
ag171
aS'58866007'
p476
aS'66570705'
p477
aS'56872729'
p478
aS'34588570'
p479
ag90
aS'79937969'
p480
aS'38499176'
p481
ag46
ag45
aS'90743504'
p482
aS'96118484'
p483
asg16
I1000
sg18
Nsg23
(iread_data3
Room
p484
(dp485
g16
g114
sg21
g115
sbsg28
g197
sg30
g31
sg21
S'Lineaire Algebra'
p486
sba(ischedule
Activity
p487
(dp488
g8
(lp489
g186
ag387
ag14
ag295
aS'32044893'
p490
ag41
aS'21070547'
p491
ag55
aS'40911986'
p492
ag203
asg16
g311
sg18
(ischedule
Group
p493
(dp494
g8
g489
sg21
S'Project Numerical Recipes1'
p495
sbsg23
(iread_data3
Room
p496
(dp497
g16
g256
sg21
g257
sbsg28
g29
sg30
g75
sg21
g317
sba(ischedule
Activity
p498
(dp499
g8
(lp500
g233
ag170
ag10
ag44
aS'23983476'
p501
ag164
ag364
aS'40343779'
p502
aS'51566595'
p503
ag386
ag398
ag290
aS'64947290'
p504
ag338
ag291
aS'67817269'
p505
aS'51509565'
p506
aS'19540225'
p507
aS'41585485'
p508
aS'91527663'
p509
aS'52715680'
p510
aS'64554442'
p511
aS'88596522'
p512
aS'21095566'
p513
asg16
S'25'
p514
sg18
(ischedule
Group
p515
(dp516
g8
g500
sg21
S'Algoritmen en complexiteit1'
p517
sbsg23
(iread_data3
Room
p518
(dp519
g16
g72
sg21
g73
sbsg28
g29
sg30
g75
sg21
g229
sba(ischedule
Activity
p520
(dp521
g8
(lp522
g120
ag129
ag163
ag42
aS'1886996'
p523
ag286
ag326
ag205
aS'62613937'
p524
aS'28618400'
p525
asg16
S'10'
p526
sg18
(ischedule
Group
p527
(dp528
g8
g522
sg21
S'Advanced Heuristics2'
p529
sbsg23
(iread_data3
Room
p530
(dp531
g16
g26
sg21
g27
sbsg28
g29
sg30
g31
sg21
S'Advanced Heuristics'
p532
sbaa(lp533
(ischedule
Activity
p534
(dp535
g8
(lp536
S'73302736'
p537
aS'72586808'
p538
ag269
ag84
aS'5595824'
p539
aS'72456780'
p540
aS'5085194'
p541
aS'73350019'
p542
aS'80188025'
p543
aS'14637758'
p544
ag474
aS'33672995'
p545
aS'48678993'
p546
ag81
ag174
aS'65318664'
p547
ag130
ag80
aS'78822885'
p548
ag473
ag524
aS'56544130'
p549
aS'82854435'
p550
aS'13718298'
p551
ag180
aS'97838175'
p552
aS'18477924'
p553
ag357
aS'51542218'
p554
ag346
aS'58480929'
p555
ag457
aS'34900967'
p556
aS'60661905'
p557
aS'70193386'
p558
ag46
ag273
ag459
aS'43027916'
p559
aS'88737765'
p560
ag282
ag283
ag410
aS'87830198'
p561
ag465
aS'23658570'
p562
ag278
ag464
ag435
asg16
I1000
sg18
Nsg23
(iread_data
Room
p563
(dp564
g16
S'117'
p565
sg21
S'C0.110'
p566
sbsg28
g197
sg30
g75
sg21
S'Analysemethoden en -technieken'
p567
sba(ischedule
Activity
p568
(dp569
g8
(lp570
g60
ag65
ag36
ag64
ag52
ag91
aS'10792879'
p571
ag207
ag37
aS'95007221'
p572
ag38
ag102
ag51
aS'79033175'
p573
aS'66701209'
p574
ag157
ag183
ag427
ag39
ag62
ag248
ag234
aS'43689934'
p575
ag438
aS'80135353'
p576
ag49
aS'15911353'
p577
ag356
aS'72796858'
p578
ag54
ag370
ag53
aS'3407554'
p579
ag55
ag40
ag47
ag41
ag539
ag42
ag460
ag358
ag56
aS'34110913'
p580
aS'46989508'
p581
aS'44391517'
p582
ag209
ag63
ag61
ag152
ag90
ag57
ag50
ag43
ag203
aS'8464817'
p583
ag185
ag238
aS'95631564'
p584
ag308
ag59
ag44
aS'75599734'
p585
aS'34872117'
p586
ag58
ag45
ag46
aS'9067939'
p587
ag48
aS'76802764'
p588
asg16
I1000
sg18
Nsg23
(iread_data3
Room
p589
(dp590
g16
g72
sg21
g73
sbsg28
g197
sg30
g75
sg21
g76
sba(ischedule
Activity
p591
(dp592
g8
(lp593
g86
aS'535689'
p594
ag10
aS'72665524'
p595
ag510
aS'42297781'
p596
aS'64418623'
p597
ag294
ag331
ag93
aS'63634350'
p598
aS'47260040'
p599
aS'25994016'
p600
ag411
aS'5892092'
p601
ag281
ag216
ag481
asg16
S'15'
p602
sg18
(ischedule
Group
p603
(dp604
g8
g593
sg21
S'Compilerbouw practicum3'
p605
sbsg23
(iread_data3
Room
p606
(dp607
g16
g256
sg21
g257
sbsg28
g29
sg30
S'3'
p608
sg21
S'Compilerbouw practicum'
p609
sba(ischedule
Activity
p610
(dp611
g8
(lp612
g150
ag169
ag172
ag184
ag190
ag159
ag168
ag177
ag162
ag181
ag173
ag178
ag179
ag189
ag187
ag188
ag166
ag167
ag176
ag163
ag171
asg16
g377
sg18
(ischedule
Group
p613
(dp614
g8
g612
sg21
S'Bioinformatica1'
p615
sbsg23
(iread_data3
Room
p616
(dp617
g16
g227
sg21
g228
sbsg28
g74
sg30
g75
sg21
g198
sba(ischedule
Activity
p618
(dp619
g8
(lp620
g104
ag322
ag203
ag220
ag341
ag103
ag338
ag326
ag132
ag324
ag126
ag344
ag347
ag120
ag325
ag335
ag332
ag340
ag240
ag327
ag334
ag321
asg16
S'20'
p621
sg18
(ischedule
Group
p622
(dp623
g8
g620
sg21
S'Webprogrammeren en databases1'
p624
sbsg23
(iread_data3
Room
p625
(dp626
g16
g195
sg21
g196
sbsg28
g29
sg30
g75
sg21
g350
sba(ischedule
Activity
p627
(dp628
g8
(lp629
g82
ag274
ag287
ag501
aS'62701040'
p630
ag88
aS'13116738'
p631
ag96
ag242
aS'17496687'
p632
aS'19958553'
p633
aS'8557857'
p634
aS'29718115'
p635
aS'75585647'
p636
asg16
S'15'
p637
sg18
(ischedule
Group
p638
(dp639
g8
g629
sg21
S'Informatie- en organsatieontwerp2'
p640
sbsg23
(iread_data3
Room
p641
(dp642
g16
g26
sg21
g27
sbsg28
g29
sg30
g31
sg21
g418
sba(ischedule
Activity
p643
(dp644
g8
(lp645
g182
aS'62356458'
p646
ag83
ag467
ag430
ag191
aS'88627897'
p647
ag503
asg16
S'10'
p648
sg18
(ischedule
Group
p649
(dp650
g8
g645
sg21
S'Autonomous Agents 21'
p651
sbsg23
(iread_data3
Room
p652
(dp653
g16
g144
sg21
g145
sbsg28
g29
sg30
g75
sg21
S'Autonomous Agents 2'
p654
sbaa(lp655
(ischedule
Activity
p656
(dp657
g8
(lp658
g165
aS'45915482'
p659
aS'62105897'
p660
ag240
ag325
ag330
ag208
ag547
ag450
ag283
aS'82872148'
p661
aS'1048485'
p662
ag368
ag154
aS'41153310'
p663
ag38
ag210
ag551
ag182
ag279
aS'31103066'
p664
aS'29640619'
p665
ag162
ag212
aS'3727435'
p666
ag474
aS'96554914'
p667
aS'14072826'
p668
ag37
ag282
aS'65408517'
p669
aS'27582862'
p670
ag176
aS'9287708'
p671
ag237
asg16
S'40'
p672
sg18
(ischedule
Group
p673
(dp674
g8
g658
sg21
S'Software engineering1'
p675
sbsg23
(iread_data3
Room
p676
(dp677
g16
g227
sg21
g228
sbsg28
g29
sg30
g75
sg21
S'Software engineering'
p678
sba(ischedule
Activity
p679
(dp680
g8
(lp681
S'5526560'
p682
ag358
ag559
ag409
ag540
ag478
ag389
aS'27123462'
p683
ag158
aS'86180471'
p684
ag578
ag541
ag665
ag130
ag462
ag562
aS'58083680'
p685
aS'15187217'
p686
ag207
aS'60352393'
p687
aS'54540997'
p688
ag239
ag471
ag204
aS'62736669'
p689
ag155
aS'56191333'
p690
aS'40141996'
p691
aS'4529208'
p692
ag121
aS'56121590'
p693
ag103
ag178
ag586
ag503
aS'26207525'
p694
ag430
ag86
ag460
ag92
ag308
ag435
ag235
ag509
ag290
ag189
ag473
ag504
aS'59397895'
p695
aS'12091019'
p696
aS'13132925'
p697
aS'90474003'
p698
ag554
aS'25077484'
p699
ag192
aS'83869542'
p700
ag338
ag304
ag581
ag153
aS'47932106'
p701
ag424
ag136
aS'52552718'
p702
ag327
ag123
aS'47477884'
p703
aS'77960666'
p704
ag169
ag213
ag434
aS'73823548'
p705
asg16
I1000
sg18
Nsg23
(iread_data3
Room
p706
(dp707
g16
g72
sg21
g73
sbsg28
g197
sg30
g75
sg21
S'Databases 2'
p708
sba(ischedule
Activity
p709
(dp710
g8
(lp711
g354
ag10
ag510
ag453
ag233
aS'3233378'
p712
ag466
ag41
ag157
ag218
ag459
ag151
ag244
ag584
ag513
aS'31247305'
p713
aS'48601268'
p714
ag502
ag99
ag537
ag270
aS'44671041'
p715
ag238
ag585
aS'70015932'
p716
ag156
aS'25106480'
p717
ag467
aS'51593625'
p718
aS'28357474'
p719
ag289
aS'58074656'
p720
ag646
aS'31633723'
p721
ag400
aS'58565406'
p722
aS'84110134'
p723
ag702
ag188
aS'37830626'
p724
asg16
S'40'
p725
sg18
(ischedule
Group
p726
(dp727
g8
g711
sg21
S'Software engineering2'
p728
sbsg23
(iread_data3
Room
p729
(dp730
g16
g144
sg21
g145
sbsg28
g74
sg30
g31
sg21
g678
sba(ischedule
Activity
p731
(dp732
g8
g385
sg16
I1000
sg18
Nsg23
(iread_data3
Room
p733
(dp734
g16
g195
sg21
g196
sbsg28
g197
sg30
g75
sg21
g405
sba(ischedule
Activity
p735
(dp736
g8
g629
sg16
g412
sg18
g638
sg23
(iread_data3
Room
p737
(dp738
g16
g114
sg21
g115
sbsg28
g74
sg30
g31
sg21
g418
sbaaa(lp739
(lp740
(ischedule
Activity
p741
(dp742
g8
(lp743
g132
aS'61520025'
p744
aS'58040377'
p745
ag669
aS'22168693'
p746
ag439
ag455
ag390
ag283
aS'77306636'
p747
ag537
aS'75623387'
p748
ag660
ag335
ag213
ag167
ag89
ag543
ag427
ag150
aS'23628642'
p749
aS'10609762'
p750
aS'53139134'
p751
ag364
ag659
ag545
ag400
ag595
ag478
ag562
ag158
aS'65978354'
p752
aS'19717077'
p753
aS'87900893'
p754
ag457
ag598
ag171
aS'14179347'
p755
ag206
ag215
ag162
ag243
ag52
ag465
ag331
ag161
ag441
ag462
aS'86000192'
p756
ag367
ag208
ag189
aS'28957789'
p757
ag396
ag703
aS'34173695'
p758
aS'11593163'
p759
aS'93361408'
p760
aS'97135019'
p761
aS'59220392'
p762
ag81
ag705
aS'82412626'
p763
aS'37279234'
p764
aS'6709529'
p765
ag185
aS'24875739'
p766
ag684
ag636
ag356
aS'27925117'
p767
ag286
ag701
aS'78735049'
p768
aS'87602030'
p769
ag691
aS'62363761'
p770
ag305
aS'75446434'
p771
aS'58253841'
p772
ag54
aS'31306819'
p773
aS'72526473'
p774
aS'55530367'
p775
aS'56348773'
p776
aS'51741554'
p777
aS'79888156'
p778
ag696
aS'32705005'
p779
ag549
aS'3678531'
p780
ag308
ag326
ag64
ag309
aS'70939718'
p781
ag289
ag237
ag431
ag122
ag571
ag278
aS'58469172'
p782
ag168
aS'9731271'
p783
ag216
asg16
I1000
sg18
Nsg23
(iread_data3
Room
p784
(dp785
g16
g114
sg21
g115
sbsg28
g197
sg30
g75
sg21
S'Calculus 2'
p786
sba(ischedule
Activity
p787
(dp788
g8
(lp789
g722
ag238
ag160
ag44
ag39
aS'92496780'
p790
aS'70336464'
p791
ag129
aS'7106649'
p792
ag270
asg16
g108
sg18
(ischedule
Group
p793
(dp794
g8
g789
sg21
S'Technology for games2'
p795
sbsg23
(iread_data3
Room
p796
(dp797
g16
g227
sg21
g228
sbsg28
g74
sg30
g31
sg21
g116
sba(ischedule
Activity
p798
(dp799
g8
(lp800
g578
ag38
ag358
ag282
ag88
aS'61611295'
p801
ag288
ag702
ag458
aS'34806836'
p802
aS'70113753'
p803
asg16
S'10'
p804
sg18
(ischedule
Group
p805
(dp806
g8
g800
sg21
S'Autonomous Agents 22'
p807
sbsg23
(iread_data3
Room
p808
(dp809
g16
g26
sg21
g27
sbsg28
g74
sg30
g31
sg21
g654
sba(ischedule
Activity
p810
(dp811
g8
(lp812
g630
ag178
ag452
ag82
ag186
ag461
ag559
ag443
ag665
aS'17575088'
p813
aS'13534377'
p814
aS'45556081'
p815
ag86
asg16
S'20'
p816
sg18
(ischedule
Group
p817
(dp818
g8
g812
sg21
S'Collectieve Intelligentie3'
p819
sbsg23
(iread_data3
Room
p820
(dp821
g16
g195
sg21
g196
sbsg28
g29
sg30
g608
sg21
g146
sba(ischedule
Activity
p822
(dp823
g8
(lp824
g191
ag503
ag184
ag190
ag170
aS'45414528'
p825
ag456
ag83
aS'98780382'
p826
aS'81022997'
p827
aS'97136582'
p828
aS'93023961'
p829
aS'17823206'
p830
aS'25330192'
p831
ag292
asg16
g17
sg18
(ischedule
Group
p832
(dp833
g8
g824
sg21
S'Data Mining1'
p834
sbsg23
(iread_data3
Room
p835
(dp836
g16
g72
sg21
g73
sbsg28
g29
sg30
g75
sg21
g32
sba(ischedule
Activity
p837
(dp838
g8
(lp839
g432
ag667
ag687
ag37
ag205
ag429
aS'68286356'
p840
ag187
aS'20239127'
p841
ag362
ag168
ag287
aS'54569540'
p842
aS'92778619'
p843
ag510
ag551
asg16
S'20'
p844
sg18
(ischedule
Group
p845
(dp846
g8
g839
sg21
S'Reflectie op de digitale cultuur3'
p847
sbsg23
(iread_data3
Room
p848
(dp849
g16
g256
sg21
g257
sbsg28
g74
sg30
g608
sg21
S'Reflectie op de digitale cultuur'
p850
sba(ischedule
Activity
p851
(dp852
g8
(lp853
g80
ag366
ag13
ag84
ag557
ag47
aS'70844780'
p854
ag426
ag207
aS'27370083'
p855
ag310
ag561
ag558
ag121
aS'20095994'
p856
ag343
aS'51415617'
p857
ag181
ag12
ag346
asg16
g844
sg18
(ischedule
Group
p858
(dp859
g8
g853
sg21
S'Reflectie op de digitale cultuur1'
p860
sbsg23
(iread_data3
Room
p861
(dp862
g16
g144
sg21
g145
sbsg28
g74
sg30
g75
sg21
g850
sbaa(lp863
(ischedule
Activity
p864
(dp865
g8
(lp866
g683
ag684
ag541
ag130
ag687
ag691
ag86
ag435
ag696
ag700
ag702
ag424
ag665
ag682
ag692
ag509
ag695
ag358
ag690
ag703
ag686
ag389
ag207
ag462
ag290
ag689
ag478
ag239
ag693
ag503
ag189
ag704
ag504
ag235
ag409
ag123
ag473
ag460
ag471
ag308
ag169
ag121
ag158
ag155
ag586
ag136
ag685
ag103
ag92
ag192
ag559
ag705
ag338
asg16
S'40'
p867
sg18
(ischedule
Group
p868
(dp869
g8
g866
sg21
S'Databases 22'
p870
sbsg23
(iread_data3
Room
p871
(dp872
g16
g72
sg21
g73
sbsg28
g74
sg30
g31
sg21
g708
sba(ischedule
Activity
p873
(dp874
g8
(lp875
g191
ag83
ag828
aS'19337738'
p876
ag11
ag754
ag503
ag13
ag825
ag292
ag827
ag170
ag184
ag830
ag829
ag826
ag270
ag631
ag14
ag12
ag456
ag831
ag15
ag10
ag190
ag354
ag459
asg16
I1000
sg18
Nsg23
(iread_data3
Room
p877
(dp878
g16
g195
sg21
g196
sbsg28
g197
sg30
g31
sg21
g32
sba(ischedule
Activity
p879
(dp880
g8
(lp881
g578
ag581
ag698
ag304
ag699
ag688
ag178
ag540
ag153
ag554
ag701
ag213
ag430
ag327
ag204
ag434
ag562
ag697
ag694
asg16
g867
sg18
(ischedule
Group
p882
(dp883
g8
g881
sg21
S'Databases 21'
p884
sbsg23
(iread_data3
Room
p885
(dp886
g16
g227
sg21
g228
sbsg28
g74
sg30
g75
sg21
g708
sba(ischedule
Activity
p887
(dp888
g8
g35
sg16
S'40'
p889
sg18
g67
sg23
(iread_data3
Room
p890
(dp891
g16
g114
sg21
g115
sbsg28
g29
sg30
g75
sg21
g76
sba(ischedule
Activity
p892
(dp893
g8
(lp894
g439
ag660
aS'23215240'
p895
ag756
aS'64053722'
p896
ag101
ag291
aS'28943658'
p897
ag783
ag286
ag266
ag663
ag359
ag825
aS'39905995'
p898
ag364
ag214
ag508
ag342
ag387
ag843
ag168
ag576
ag630
ag780
ag158
ag764
asg16
S'20'
p899
sg18
(ischedule
Group
p900
(dp901
g8
g894
sg21
S'Programmeren in Java 21'
p902
sbsg23
(iread_data3
Room
p903
(dp904
g16
g144
sg21
g145
sbsg28
g29
sg30
g75
sg21
S'Programmeren in Java 2'
p905
sba(ischedule
Activity
p906
(dp907
g8
(lp908
g156
ag512
ag438
aS'41644639'
p909
ag151
aS'55103073'
p910
aS'1695839'
p911
ag579
ag154
aS'99272880'
p912
aS'51472074'
p913
ag107
ag202
aS'82066165'
p914
aS'44151631'
p915
aS'91250534'
p916
aS'51673172'
p917
aS'74361881'
p918
asg16
g602
sg18
(ischedule
Group
p919
(dp920
g8
g908
sg21
S'Compilerbouw practicum2'
p921
sbsg23
(iread_data3
Room
p922
(dp923
g16
g26
sg21
g27
sbsg28
g29
sg30
g31
sg21
g609
sbaa(lp924
(ischedule
Activity
p925
(dp926
g8
(lp927
g467
ag83
ag458
ag282
ag578
ag457
ag503
ag38
ag801
ag88
ag646
ag215
ag191
ag358
ag802
ag182
ag702
ag647
ag803
ag288
ag430
ag468
asg16
I1000
sg18
Nsg23
(iread_data3
Room
p928
(dp929
g16
g195
sg21
g196
sbsg28
g197
sg30
g75
sg21
g654
sba(ischedule
Activity
p930
(dp931
g8
(lp932
S'38329455'
p933
ag48
ag474
ag85
aS'39919665'
p934
ag841
ag163
ag721
aS'39659121'
p935
aS'82688900'
p936
ag723
ag169
ag356
ag323
ag275
aS'63408522'
p937
aS'47605891'
p938
ag205
ag100
ag137
ag188
ag433
ag410
ag291
ag830
ag235
ag47
ag212
ag424
ag130
ag783
aS'10872825'
p939
ag388
ag912
ag368
ag842
ag366
ag481
ag158
aS'65003379'
p940
ag508
aS'79366078'
p941
ag210
ag554
ag335
ag464
ag172
ag38
aS'34262212'
p942
ag713
ag598
aS'7492204'
p943
aS'37498675'
p944
ag277
ag46
ag219
ag150
ag779
ag280
ag766
ag768
ag782
ag441
ag571
ag96
ag99
aS'79858178'
p945
ag305
aS'23391676'
p946
aS'44940353'
p947
aS'51186803'
p948
aS'91139627'
p949
ag362
ag453
aS'14398123'
p950
ag357
aS'72547110'
p951
ag360
ag50
aS'63955238'
p952
ag757
ag456
ag124
ag269
asg16
I1000
sg18
Nsg23
(iread_data3
Room
p953
(dp954
g16
g114
sg21
g115
sbsg28
g197
sg30
g31
sg21
S'Kansrekenen 2'
p955
sba(ischedule
Activity
p956
(dp957
g8
(lp958
g161
ag165
ag183
ag157
ag192
ag81
ag155
ag174
ag180
ag175
ag164
ag156
asg16
S'20'
p959
sg18
(ischedule
Group
p960
(dp961
g8
g958
sg21
S'Bioinformatica3'
p962
sbsg23
(iread_data3
Room
p963
(dp964
g16
g26
sg21
g27
sbsg28
g29
sg30
g608
sg21
g198
sba(ischedule
Activity
p965
(dp966
g8
(lp967
g769
ag53
ag772
ag914
ag84
ag699
asg16
S'15'
p968
sg18
(ischedule
Group
p969
(dp970
g8
g967
sg21
S'Project Genetic Algorithms1'
p971
sbsg23
(iread_data3
Room
p972
(dp973
g16
g144
sg21
g145
sbsg28
g29
sg30
g75
sg21
S'Project Genetic Algorithms'
p974
sba(ischedule
Activity
p975
(dp976
g8
(lp977
g170
ag10
ag206
ag777
ag434
ag204
ag101
aS'29474737'
p978
ag289
ag756
asg16
g816
sg18
(ischedule
Group
p979
(dp980
g8
g977
sg21
S'Collectieve Intelligentie1'
p981
sbsg23
(iread_data3
Room
p982
(dp983
g16
g256
sg21
g257
sbsg28
g29
sg30
g75
sg21
g146
sba(ischedule
Activity
p984
(dp985
g8
g620
sg16
S'20'
p986
sg18
g622
sg23
(iread_data3
Room
p987
(dp988
g16
g227
sg21
g228
sbsg28
g74
sg30
g75
sg21
g350
sbaa(lp989
(ischedule
Activity
p990
(dp991
g8
(lp992
S'99975346'
p993
ag83
ag123
ag282
ag704
ag367
ag160
aS'36213792'
p994
ag490
ag395
aS'82390428'
p995
aS'27805666'
p996
ag698
aS'51052738'
p997
aS'49922855'
p998
asg16
g844
sg18
(ischedule
Group
p999
(dp1000
g8
g992
sg21
S'Reflectie op de digitale cultuur2'
p1001
sbsg23
(iread_data3
Room
p1002
(dp1003
g16
g72
sg21
g73
sbsg28
g74
sg30
g31
sg21
g850
sba(ischedule
Activity
p1004
(dp1005
g8
(lp1006
g207
ag157
ag234
ag438
ag581
ag209
ag90
ag203
ag185
ag579
ag582
ag586
ag580
ag183
ag238
ag576
ag308
ag578
ag587
ag91
ag102
ag584
ag152
ag358
ag539
ag370
ag575
ag585
ag583
ag573
ag356
ag248
ag588
ag571
ag577
ag572
ag574
ag427
ag460
asg16
g66
sg18
(ischedule
Group
p1007
(dp1008
g8
g1006
sg21
S'Compilerbouw2'
p1009
sbsg23
(iread_data3
Room
p1010
(dp1011
g16
g227
sg21
g228
sbsg28
g74
sg30
g31
sg21
g76
sba(ischedule
Activity
p1012
(dp1013
g8
(lp1014
g88
ag96
ag190
ag411
ag409
ag82
ag635
ag242
ag636
ag274
ag410
ag632
ag634
ag631
ag235
ag287
ag633
ag501
ag107
ag630
ag39
asg16
I1000
sg18
Nsg23
(iread_data3
Room
p1015
(dp1016
g16
g144
sg21
g145
sbsg28
g197
sg30
g75
sg21
g418
sba(ischedule
Activity
p1017
(dp1018
g8
g977
sg16
g138
sg18
g979
sg23
(iread_data3
Room
p1019
(dp1020
g16
g26
sg21
g27
sbsg28
g74
sg30
g75
sg21
g146
sba(ischedule
Activity
p1021
(dp1022
g8
(lp1023
g153
ag120
ag205
ag703
ag524
ag129
ag525
aS'39429093'
p1024
aS'72683344'
p1025
ag687
ag326
ag163
ag278
ag854
ag286
aS'40633534'
p1026
ag339
ag595
ag42
ag523
asg16
I1000
sg18
Nsg23
(iread_data3
Room
p1027
(dp1028
g16
g114
sg21
g115
sbsg28
g197
sg30
g75
sg21
g532
sba(ischedule
Activity
p1029
(dp1030
g8
(lp1031
g503
ag767
ag700
ag827
ag184
ag47
ag126
ag346
ag745
ag769
aS'72652638'
p1032
ag172
ag122
ag240
aS'35315956'
p1033
aS'82968410'
p1034
ag211
ag284
ag267
asg16
S'20'
p1035
sg18
(ischedule
Group
p1036
(dp1037
g8
g1031
sg21
S'Heuristieken 22'
p1038
sbsg23
(iread_data3
Room
p1039
(dp1040
g16
g256
sg21
g257
sbsg28
g74
sg30
g31
sg21
S'Heuristieken 2'
p1041
sbaa(lp1042
(ischedule
Activity
p1043
(dp1044
g8
(lp1045
g86
ag717
ag630
ag45
ag48
ag53
ag978
ag133
ag559
ag443
aS'46052388'
p1046
ag430
ag434
ag131
ag123
ag777
ag170
ag665
ag134
ag132
ag813
ag130
ag137
ag82
ag129
ag125
aS'22699561'
p1047
ag454
ag36
ag101
ag461
ag135
ag289
ag293
ag178
ag712
ag815
ag120
ag452
ag186
ag128
ag124
ag41
ag761
ag202
ag756
ag126
aS'1075391'
p1048
ag714
ag121
aS'57595888'
p1049
ag206
ag814
ag460
ag719
ag40
ag10
ag122
ag204
ag127
ag136
asg16
I1000
sg18
Nsg23
(iread_data3
Room
p1050
(dp1051
g16
g114
sg21
g115
sbsg28
g197
sg30
g31
sg21
g146
sba(ischedule
Activity
p1052
(dp1053
g8
(lp1054
g286
ag83
ag293
ag263
ag283
ag189
ag290
ag277
ag92
ag288
ag150
ag282
ag264
ag279
ag267
ag269
ag280
ag266
ag265
ag43
ag284
ag294
ag154
ag281
ag169
ag131
ag285
ag133
ag287
ag289
ag278
ag274
ag270
ag271
ag291
ag295
asg16
S'25'
p1055
sg18
(ischedule
Group
p1056
(dp1057
g8
g1054
sg21
S'Heuristieken 11'
p1058
sbsg23
(iread_data3
Room
p1059
(dp1060
g16
g72
sg21
g73
sbsg28
g74
sg30
g75
sg21
g298
sba(ischedule
Activity
p1061
(dp1062
g8
(lp1063
g432
ag745
ag471
ag409
ag161
ag562
ag715
ag830
ag52
asg16
g899
sg18
(ischedule
Group
p1064
(dp1065
g8
g1063
sg21
S'Programmeren in Java 26'
p1066
sbsg23
(iread_data3
Room
p1067
(dp1068
g16
g227
sg21
g228
sbsg28
g29
sg30
S'6'
p1069
sg21
g905
sba(ischedule
Activity
p1070
(dp1071
g8
g232
sg16
S'20'
p1072
sg18
g251
sg23
(iread_data3
Room
p1073
(dp1074
g16
g26
sg21
g27
sbsg28
g29
sg30
g75
sg21
g258
sba(ischedule
Activity
p1075
(dp1076
g8
(lp1077
g268
ag276
ag82
ag272
ag292
ag88
ag275
ag273
asg16
g1055
sg18
(ischedule
Group
p1078
(dp1079
g8
g1077
sg21
S'Heuristieken 12'
p1080
sbsg23
(iread_data3
Room
p1081
(dp1082
g16
g195
sg21
g196
sbsg28
g74
sg30
g31
sg21
g298
sba(ischedule
Activity
p1083
(dp1084
g8
g353
sg16
I1000
sg18
Nsg23
(iread_data3
Room
p1085
(dp1086
g16
g144
sg21
g145
sbsg28
g197
sg30
g31
sg21
g373
sbaaa(lp1087
(lp1088
(ischedule
Activity
p1089
(dp1090
g8
g1006
sg16
g889
sg18
g1007
sg23
(iread_data3
Room
p1091
(dp1092
g16
g227
sg21
g228
sbsg28
g29
sg30
g31
sg21
g76
sba(ischedule
Activity
p1093
(dp1094
g8
g500
sg16
g221
sg18
g515
sg23
(iread_data3
Room
p1095
(dp1096
g16
g144
sg21
g145
sbsg28
g74
sg30
g75
sg21
g229
sba(ischedule
Activity
p1097
(dp1098
g8
(lp1099
g278
ag1024
ag339
ag703
ag687
ag595
ag854
ag1026
ag153
ag1025
asg16
g526
sg18
(ischedule
Group
p1100
(dp1101
g8
g1099
sg21
S'Advanced Heuristics1'
p1102
sbsg23
(iread_data3
Room
p1103
(dp1104
g16
g256
sg21
g257
sbsg28
g29
sg30
g75
sg21
g532
sba(ischedule
Activity
p1105
(dp1106
g8
g1045
sg16
I1000
sg18
Nsg23
(iread_data3
Room
p1107
(dp1108
g16
g114
sg21
g115
sbsg28
g197
sg30
g75
sg21
g146
sba(ischedule
Activity
p1109
(dp1110
g8
(lp1111
g459
ag270
ag354
ag631
ag754
ag876
asg16
S'10'
p1112
sg18
(ischedule
Group
p1113
(dp1114
g8
g1111
sg21
S'Data Mining3'
p1115
sbsg23
(iread_data3
Room
p1116
(dp1117
g16
g26
sg21
g27
sbsg28
g74
sg30
g608
sg21
g32
sba(ischedule
Activity
p1118
(dp1119
g8
g408
sg16
g637
sg18
g413
sg23
(iread_data3
Room
p1120
(dp1121
g16
g72
sg21
g73
sbsg28
g29
sg30
g75
sg21
g418
sba(ischedule
Activity
p1122
(dp1123
g8
g658
sg16
g725
sg18
g673
sg23
(iread_data3
Room
p1124
(dp1125
g16
g195
sg21
g196
sbsg28
g74
sg30
g75
sg21
g678
sbaa(lp1126
(ischedule
Activity
p1127
(dp1128
g8
(lp1129
g523
ag363
ag559
ag598
ag471
aS'15249775'
p1130
ag993
aS'52304977'
p1131
ag218
ag792
ag546
aS'5739011'
p1132
ag457
asg16
g1035
sg18
(ischedule
Group
p1133
(dp1134
g8
g1129
sg21
S'Heuristieken 21'
p1135
sbsg23
(iread_data3
Room
p1136
(dp1137
g16
g144
sg21
g145
sbsg28
g74
sg30
g75
sg21
g1041
sba(ischedule
Activity
p1138
(dp1139
g8
g875
sg16
I1000
sg18
Nsg23
(iread_data3
Room
p1140
(dp1141
g16
g227
sg21
g228
sbsg28
g197
sg30
g75
sg21
g32
sba(ischedule
Activity
p1142
(dp1143
g8
(lp1144
g187
ag994
ag510
ag80
ag993
ag842
ag557
ag83
ag432
ag687
ag123
ag12
ag426
ag282
ag840
ag121
ag490
ag37
ag698
ag995
ag996
ag346
ag997
ag558
ag205
ag841
ag998
ag855
ag181
ag84
ag366
ag857
ag47
ag287
ag429
ag343
ag856
ag561
ag362
ag168
ag310
ag207
ag395
ag704
ag854
ag551
ag367
ag843
ag13
ag160
ag667
asg16
I1000
sg18
Nsg23
(iread_data3
Room
p1145
(dp1146
g16
g195
sg21
g196
sbsg28
g197
sg30
g31
sg21
g850
sba(ischedule
Activity
p1147
(dp1148
g8
(lp1149
g586
ag815
aS'13798030'
p1150
ag325
ag716
ag330
ag357
aS'59289233'
p1151
ag1025
ag525
ag103
ag89
ag204
ag277
ag294
ag427
ag51
ag767
ag476
ag120
ag635
asg16
I1000
sg18
Nsg23
(iread_data3
Room
p1152
(dp1153
g16
g72
sg21
g73
sbsg28
g197
sg30
g75
sg21
S'Architectuur en computerorganisatie'
p1154
sba(ischedule
Activity
p1155
(dp1156
g8
g958
sg16
g377
sg18
g960
sg23
(iread_data3
Room
p1157
(dp1158
g16
g114
sg21
g115
sbsg28
g74
sg30
g608
sg21
g198
sba(ischedule
Activity
p1159
(dp1160
g8
(lp1161
g430
ag712
ag40
ag717
ag41
ag1046
ag460
ag53
ag1049
ag202
ag1048
ag1047
ag719
ag48
ag714
ag761
ag45
ag454
ag293
ag36
asg16
g816
sg18
(ischedule
Group
p1162
(dp1163
g8
g1161
sg21
S'Collectieve Intelligentie4'
p1164
sbsg23
(iread_data3
Room
p1165
(dp1166
g16
g26
sg21
g27
sbsg28
g29
sg30
S'4'
p1167
sg21
g146
sba(ischedule
Activity
p1168
(dp1169
g8
(lp1170
S'90296821'
p1171
ag368
ag665
ag718
ag943
aS'88597745'
p1172
ag703
aS'73893840'
p1173
aS'88263855'
p1174
ag59
ag126
asg16
g899
sg18
(ischedule
Group
p1175
(dp1176
g8
g1170
sg21
S'Programmeren in Java 23'
p1177
sbsg23
(iread_data3
Room
p1178
(dp1179
g16
g256
sg21
g257
sbsg28
g29
sg30
g608
sg21
g905
sbaa(lp1180
(ischedule
Activity
p1181
(dp1182
g8
g149
sg16
I1000
sg18
Nsg23
(iread_data3
Room
p1183
(dp1184
g16
g114
sg21
g115
sbsg28
g197
sg30
g31
sg21
g198
sba(ischedule
Activity
p1185
(dp1186
g8
g449
sg16
I1000
sg18
Nsg23
(iread_data3
Room
p1187
(dp1188
g16
g72
sg21
g73
sbsg28
g197
sg30
g75
sg21
g486
sba(ischedule
Activity
p1189
(dp1190
g8
g201
sg16
g514
sg18
g222
sg23
(iread_data3
Room
p1191
(dp1192
g16
g227
sg21
g228
sbsg28
g29
sg30
g31
sg21
g229
sba(ischedule
Activity
p1193
(dp1194
g8
g9
sg16
g1112
sg18
g19
sg23
(iread_data3
Room
p1195
(dp1196
g16
g144
sg21
g145
sbsg28
g74
sg30
g31
sg21
g32
sba(ischedule
Activity
p1197
(dp1198
g8
g119
sg16
g816
sg18
g139
sg23
(iread_data3
Room
p1199
(dp1200
g16
g26
sg21
g27
sbsg28
g29
sg30
g31
sg21
g146
sba(ischedule
Activity
p1201
(dp1202
g8
(lp1203
g431
ag434
ag92
ag82
ag39
ag438
ag442
ag441
ag278
ag432
ag444
ag424
ag435
ag440
ag160
asg16
g1072
sg18
(ischedule
Group
p1204
(dp1205
g8
g1203
sg21
S'Moderne Databases2'
p1206
sbsg23
(iread_data3
Room
p1207
(dp1208
g16
g256
sg21
g257
sbsg28
g29
sg30
g31
sg21
g258
sba(ischedule
Activity
p1209
(dp1210
g8
(lp1211
g541
ag394
ag895
ag1049
asg16
g602
sg18
(ischedule
Group
p1212
(dp1213
g8
g1211
sg21
S'Compilerbouw practicum1'
p1214
sbsg23
(iread_data
Room
p1215
(dp1216
g16
S'56'
p1217
sg21
S'A1.10'
p1218
sbsg28
g29
sg30
g75
sg21
g609
sbaa(lp1219
(ischedule
Activity
p1220
(dp1221
g8
(lp1222
g237
ag354
ag665
ag10
ag289
ag721
ag714
ag162
ag661
ag154
ag165
ag547
ag666
ag510
ag467
ag450
ag722
ag668
ag238
ag279
ag659
ag667
ag551
ag702
ag537
ag453
ag663
ag368
ag660
ag669
ag156
ag585
ag717
ag513
ag240
ag502
ag270
ag233
ag723
ag718
ag664
ag188
ag212
ag176
ag671
ag712
ag210
ag646
ag325
ag466
ag400
ag41
ag719
ag157
ag716
ag218
ag720
ag459
ag584
ag282
ag474
ag283
ag38
ag151
ag713
ag662
ag724
ag99
ag330
ag715
ag208
ag37
ag182
ag670
ag244
asg16
I1000
sg18
Nsg23
(iread_data3
Room
p1223
(dp1224
g16
g114
sg21
g115
sbsg28
g197
sg30
g75
sg21
g678
sba(ischedule
Activity
p1225
(dp1226
g8
(lp1227
g803
ag942
ag358
ag187
ag14
ag460
ag429
ag56
ag57
ag501
ag269
aS'63096281'
p1228
ag61
ag356
ag395
aS'73196865'
p1229
ag704
ag268
ag332
ag206
ag170
ag456
ag504
asg16
g899
sg18
(ischedule
Group
p1230
(dp1231
g8
g1227
sg21
S'Programmeren in Java 25'
p1232
sbsg23
(iread_data3
Room
p1233
(dp1234
g16
g72
sg21
g73
sbsg28
g29
sg30
S'5'
p1235
sg21
g905
sba(ischedule
Activity
p1236
(dp1237
g8
(lp1238
g235
ag185
ag274
aS'88519892'
p1239
ag473
ag912
ag598
ag169
ag557
ag361
aS'10702778'
p1240
ag127
ag128
asg16
g899
sg18
(ischedule
Group
p1241
(dp1242
g8
g1238
sg21
S'Programmeren in Java 24'
p1243
sbsg23
(iread_data3
Room
p1244
(dp1245
g16
g26
sg21
g27
sbsg28
g29
sg30
g1167
sg21
g905
sba(ischedule
Activity
p1246
(dp1247
g8
(lp1248
g457
ag215
ag468
asg16
g648
sg18
(ischedule
Group
p1249
(dp1250
g8
g1248
sg21
S'Autonomous Agents 23'
p1251
sbsg23
(iread_data3
Room
p1252
(dp1253
g16
g256
sg21
g257
sbsg28
g29
sg30
g608
sg21
g654
sba(ischedule
Activity
p1254
(dp1255
g8
(lp1256
g80
ag722
ag95
ag105
ag107
ag238
ag100
ag92
ag102
ag270
ag103
ag89
ag91
ag160
ag81
ag99
ag90
ag792
ag82
ag86
ag98
ag101
ag106
ag104
ag129
ag791
ag88
ag44
ag97
ag93
ag94
ag96
ag83
ag85
ag790
ag39
ag84
ag87
asg16
I1000
sg18
Nsg23
(iread_data3
Room
p1257
(dp1258
g16
g227
sg21
g228
sbsg28
g197
sg30
g31
sg21
g116
sba(ischedule
Activity
p1259
(dp1260
g8
(lp1261
g291
ag689
ag595
ag690
aS'64246605'
p1262
ag46
aS'63573738'
p1263
ag828
ag481
aS'19058315'
p1264
ag694
ag280
ag209
aS'85284256'
p1265
ag827
aS'53267490'
p1266
ag204
ag777
ag276
asg16
S'20'
p1267
sg18
(ischedule
Group
p1268
(dp1269
g8
g1261
sg21
S'Netwerken en systeembeveiliging1'
p1270
sbsg23
(iread_data3
Room
p1271
(dp1272
g16
g144
sg21
g145
sbsg28
g29
sg30
g75
sg21
S'Netwerken en systeembeveiliging'
p1273
sbaa(lp1274
(ischedule
Activity
p1275
(dp1276
g8
(lp1277
g1032
ag546
ag1034
ag1131
ag523
ag122
ag457
ag993
ag47
ag503
ag211
ag126
ag363
ag767
ag769
ag745
ag346
ag267
ag1033
ag700
ag559
ag792
ag284
ag1130
ag218
ag240
ag598
ag172
ag471
ag827
ag1132
ag184
asg16
I1000
sg18
Nsg23
(iread_data3
Room
p1278
(dp1279
g16
g114
sg21
g115
sbsg28
g197
sg30
g75
sg21
g1041
sba(ischedule
Activity
p1280
(dp1281
g8
g149
sg16
I1000
sg18
Nsg23
(iread_data3
Room
p1282
(dp1283
g16
g195
sg21
g196
sbsg28
g197
sg30
g608
sg21
g198
sba(ischedule
Activity
p1284
(dp1285
g8
g1149
sg16
I1000
sg18
Nsg23
(iread_data3
Room
p1286
(dp1287
g16
g72
sg21
g73
sbsg28
g197
sg30
g31
sg21
g1154
sba(ischedule
Activity
p1288
(dp1289
g8
g1111
sg16
g17
sg18
g1113
sg23
(iread_data3
Room
p1290
(dp1291
g16
g26
sg21
g27
sbsg28
g29
sg30
g608
sg21
g32
sba(ischedule
Activity
p1292
(dp1293
g8
g800
sg16
g648
sg18
g805
sg23
(iread_data3
Room
p1294
(dp1295
g16
g256
sg21
g257
sbsg28
g29
sg30
g31
sg21
g654
sba(ischedule
Activity
p1296
(dp1297
g8
(lp1298
g767
ag368
ag219
ag426
ag918
ag388
ag682
ag560
ag950
ag37
ag435
ag244
ag917
ag364
ag1026
asg16
g968
sg18
(ischedule
Group
p1299
(dp1300
g8
g1298
sg21
S'Project Genetic Algorithms2'
p1301
sbsg23
(iread_data3
Room
p1302
(dp1303
g16
g227
sg21
g228
sbsg28
g29
sg30
g31
sg21
g974
sba(ischedule
Activity
p1304
(dp1305
g8
g1161
sg16
g138
sg18
g1162
sg23
(iread_data3
Room
p1306
(dp1307
g16
g144
sg21
g145
sbsg28
g74
sg30
g1167
sg21
g146
sbaaa(lp1308
(lp1309
(ischedule
Activity
p1310
(dp1311
g8
g376
sg16
g959
sg18
g378
sg23
(iread_data3
Room
p1312
(dp1313
g16
g26
sg21
g27
sbsg28
g29
sg30
g31
sg21
g198
sba(ischedule
Activity
p1314
(dp1315
g8
g1014
sg16
I1000
sg18
Nsg23
(iread_data3
Room
p1316
(dp1317
g16
g72
sg21
g73
sbsg28
g197
sg30
g31
sg21
g418
sba(ischedule
Activity
p1318
(dp1319
g8
(lp1320
g744
ag390
ag537
ag335
ag150
ag545
ag752
ag465
ag367
ag757
ag761
ag770
ag774
ag777
ag308
ag237
ag549
ag132
ag431
ag660
ag771
ag772
ag326
ag54
ag122
ag756
ag768
ag669
ag278
ag595
ag755
ag765
ag767
ag455
ag598
ag747
ag753
ag64
ag776
ag754
asg16
S'40'
p1321
sg18
(ischedule
Group
p1322
(dp1323
g8
g1320
sg21
S'Calculus 22'
p1324
sbsg23
(iread_data3
Room
p1325
(dp1326
g16
g227
sg21
g228
sbsg28
g74
sg30
g31
sg21
g786
sba(ischedule
Activity
p1327
(dp1328
g8
(lp1329
g161
ag60
ag430
ag293
ag439
ag427
ag121
ag428
ag436
ag359
ag437
ag155
ag426
ag425
ag81
ag213
ag177
ag433
ag443
ag325
ag429
ag423
asg16
g250
sg18
(ischedule
Group
p1330
(dp1331
g8
g1329
sg21
S'Moderne Databases3'
p1332
sbsg23
(iread_data3
Room
p1333
(dp1334
g16
g114
sg21
g115
sbsg28
g74
sg30
g608
sg21
g258
sba(ischedule
Activity
p1335
(dp1336
g8
(lp1337
S'7386961'
p1338
ag946
aS'54395877'
p1339
aS'12782624'
p1340
ag1265
ag452
ag239
ag481
ag453
ag583
ag106
ag782
ag322
ag40
ag354
ag556
ag397
ag207
ag341
aS'51791169'
p1341
ag582
ag464
ag1130
ag216
ag363
ag670
ag662
asg16
g899
sg18
(ischedule
Group
p1342
(dp1343
g8
g1337
sg21
S'Programmeren in Java 22'
p1344
sbsg23
(iread_data3
Room
p1345
(dp1346
g16
g195
sg21
g196
sbsg28
g29
sg30
g31
sg21
g905
sba(ischedule
Activity
p1347
(dp1348
g8
(lp1349
g362
ag723
ag402
ag286
ag157
aS'90103047'
p1350
ag123
ag705
aS'81116418'
p1351
aS'34691309'
p1352
ag1263
ag180
ag827
ag525
ag646
asg16
g311
sg18
(ischedule
Group
p1353
(dp1354
g8
g1349
sg21
S'Project Numerical Recipes3'
p1355
sbsg23
(iread_data3
Room
p1356
(dp1357
g16
g144
sg21
g145
sbsg28
g29
sg30
g608
sg21
g317
sba(ischedule
Activity
p1358
(dp1359
g8
(lp1360
g323
ag331
ag183
ag165
ag346
ag333
ag285
ag330
ag336
ag328
ag136
ag345
ag339
ag329
ag343
ag337
ag342
asg16
g621
sg18
(ischedule
Group
p1361
(dp1362
g8
g1360
sg21
S'Webprogrammeren en databases2'
p1363
sbsg23
(iread_data3
Room
p1364
(dp1365
g16
g256
sg21
g257
sbsg28
g29
sg30
g31
sg21
g350
sbaa(lp1366
(ischedule
Activity
p1367
(dp1368
g8
g570
sg16
I1000
sg18
Nsg23
g563
sg28
g197
sg30
g31
sg21
g76
sba(ischedule
Activity
p1369
(dp1370
g8
g812
sg16
g138
sg18
g817
sg23
(iread_data3
Room
p1371
(dp1372
g16
g26
sg21
g27
sbsg28
g74
sg30
g608
sg21
g146
sba(ischedule
Activity
p1373
(dp1374
g8
g1144
sg16
I1000
sg18
Nsg23
(iread_data3
Room
p1375
(dp1376
g16
g195
sg21
g196
sbsg28
g197
sg30
g75
sg21
g850
sba(ischedule
Activity
p1377
(dp1378
g8
g645
sg16
g804
sg18
g649
sg23
(iread_data3
Room
p1379
(dp1380
g16
g72
sg21
g73
sbsg28
g74
sg30
g75
sg21
g654
sba(ischedule
Activity
p1381
(dp1382
g8
(lp1383
g745
ag543
ag400
ag206
ag243
ag331
ag462
ag208
ag762
ag636
ag286
ag775
ag783
ag764
ag751
ag309
ag478
ag441
ag779
ag705
ag213
ag778
ag162
ag780
ag189
ag167
ag216
ag769
asg16
g1321
sg18
(ischedule
Group
p1384
(dp1385
g8
g1383
sg21
S'Calculus 23'
p1386
sbsg23
(iread_data3
Room
p1387
(dp1388
g16
g144
sg21
g145
sbsg28
g74
sg30
g608
sg21
g786
sba(ischedule
Activity
p1389
(dp1390
g8
g1248
sg16
g804
sg18
g1249
sg23
(iread_data3
Room
p1391
(dp1392
g16
g227
sg21
g228
sbsg28
g74
sg30
g608
sg21
g654
sba(ischedule
Activity
p1393
(dp1394
g8
(lp1395
g131
ag410
ag713
ag91
ag432
ag173
ag391
ag354
aS'123355'
p1396
ag249
ag290
ag88
ag525
ag661
ag761
ag594
ag166
asg16
g1267
sg18
(ischedule
Group
p1397
(dp1398
g8
g1395
sg21
S'Netwerken en systeembeveiliging4'
p1399
sbsg23
(iread_data3
Room
p1400
(dp1401
g16
g256
sg21
g257
sbsg28
g29
sg30
g1167
sg21
g1273
sbaa(lp1402
(ischedule
Activity
p1403
(dp1404
g8
g1045
sg16
I1000
sg18
Nsg23
(iread_data
Room
p1405
(dp1406
g16
S'60'
p1407
sg21
S'C1.112'
p1408
sbsg28
g197
sg30
g608
sg21
g146
sba(ischedule
Activity
p1409
(dp1410
g8
g932
sg16
I1000
sg18
Nsg23
(iread_data3
Room
p1411
(dp1412
g16
g114
sg21
g115
sbsg28
g197
sg30
g75
sg21
g955
sba(ischedule
Activity
p1413
(dp1414
g8
g927
sg16
I1000
sg18
Nsg23
(iread_data3
Room
p1415
(dp1416
g16
g227
sg21
g228
sbsg28
g197
sg30
g31
sg21
g654
sba(ischedule
Activity
p1417
(dp1418
g8
(lp1419
g561
aS'25557516'
p1420
ag546
aS'5590289'
p1421
ag59
ag854
ag781
ag55
ag538
ag502
aS'12170832'
p1422
ag687
ag770
aS'16912993'
p1423
ag184
ag831
ag343
ag693
asg16
g1267
sg18
(ischedule
Group
p1424
(dp1425
g8
g1419
sg21
S'Netwerken en systeembeveiliging2'
p1426
sbsg23
(iread_data3
Room
p1427
(dp1428
g16
g144
sg21
g145
sbsg28
g29
sg30
g31
sg21
g1273
sbaa(lp1429
(ischedule
Activity
p1430
(dp1431
g8
g320
sg16
I1000
sg18
Nsg23
(iread_data3
Room
p1432
(dp1433
g16
g114
sg21
g115
sbsg28
g197
sg30
g31
sg21
g350
sba(ischedule
Activity
p1434
(dp1435
g8
g711
sg16
g672
sg18
g726
sg23
(iread_data3
Room
p1436
(dp1437
g16
g72
sg21
g73
sbsg28
g29
sg30
g31
sg21
g678
sba(ischedule
Activity
p1438
(dp1439
g8
g1203
sg16
g250
sg18
g1204
sg23
(iread_data3
Room
p1440
(dp1441
g16
g256
sg21
g257
sbsg28
g74
sg30
g31
sg21
g258
sba(ischedule
Activity
p1442
(dp1443
g8
(lp1444
g750
ag659
ag158
ag171
ag215
ag52
ag161
ag703
ag760
ag81
ag766
ag356
ag701
ag691
ag773
ag289
ag782
ag427
ag684
ag758
ag396
ag759
ag749
ag763
ag283
ag305
ag781
ag457
ag89
ag696
ag571
ag439
ag185
ag168
ag562
ag748
ag746
ag364
asg16
g1321
sg18
(ischedule
Group
p1445
(dp1446
g8
g1444
sg21
S'Calculus 21'
p1447
sbsg23
(iread_data3
Room
p1448
(dp1449
g16
g195
sg21
g196
sbsg28
g74
sg30
g75
sg21
g786
sba(ischedule
Activity
p1450
(dp1451
g8
g824
sg16
g1112
sg18
g832
sg23
(iread_data3
Room
p1452
(dp1453
g16
g227
sg21
g228
sbsg28
g74
sg30
g75
sg21
g32
sba(ischedule
Activity
p1454
(dp1455
g8
(lp1456
g40
ag950
ag665
ag175
ag219
ag662
ag783
ag186
aS'59887191'
p1457
ag540
asg16
g1267
sg18
(ischedule
Group
p1458
(dp1459
g8
g1456
sg21
S'Netwerken en systeembeveiliging3'
p1460
sbsg23
(iread_data3
Room
p1461
(dp1462
g16
g26
sg21
g27
sbsg28
g29
sg30
g608
sg21
g1273
sbaa(lp1463
(ischedule
Activity
p1464
(dp1465
g8
(lp1466
g233
ag291
ag507
ag506
ag218
ag504
ag398
ag219
ag512
ag202
ag211
ag215
ag217
ag510
ag170
ag203
ag208
ag386
ag210
ag338
ag502
ag501
ag10
ag503
ag44
ag164
ag513
ag511
ag216
ag204
ag508
ag205
ag213
ag206
ag212
ag364
ag509
ag207
ag209
ag505
ag214
ag220
ag290
asg16
I1000
sg18
Nsg23
(iread_data3
Room
p1467
(dp1468
g16
g72
sg21
g73
sbsg28
g197
sg30
g75
sg21
g229
sba(ischedule
Activity
p1469
(dp1470
g8
g612
sg16
g959
sg18
g613
sg23
(iread_data3
Room
p1471
(dp1472
g16
g227
sg21
g228
sbsg28
g29
sg30
g75
sg21
g198
sba(ischedule
Activity
p1473
(dp1474
g8
g1256
sg16
I1000
sg18
Nsg23
(iread_data3
Room
p1475
(dp1476
g16
g144
sg21
g145
sbsg28
g197
sg30
g75
sg21
g116
sba(ischedule
Activity
p1477
(dp1478
g8
g1329
sg16
g1072
sg18
g1330
sg23
(iread_data3
Room
p1479
(dp1480
g16
g256
sg21
g257
sbsg28
g29
sg30
g608
sg21
g258
sba(ischedule
Activity
p1481
(dp1482
g8
(lp1483
g546
ag909
ag755
ag324
ag134
ag717
ag467
ag600
ag574
aS'75680261'
p1484
ag152
ag561
aS'55480737'
p1485
ag64
ag684
asg16
g968
sg18
(ischedule
Group
p1486
(dp1487
g8
g1483
sg21
S'Project Genetic Algorithms3'
p1488
sbsg23
(iread_data3
Room
p1489
(dp1490
g16
g195
sg21
g196
sbsg28
g29
sg30
g608
sg21
g974
sba(ischedule
Activity
p1491
(dp1492
g8
g1360
sg16
g986
sg18
g1361
sg23
(iread_data3
Room
p1493
(dp1494
g16
g114
sg21
g115
sbsg28
g74
sg30
g31
sg21
g350
sbaaa(lp1495
(lp1496
a(lp1497
a(lp1498
a(lp1499
a(lp1500
aasS'timeslot_dict'
p1501
(dp1502
I0
S'9:00-11:00'
p1503
sI1
S'11:00-13:00'
p1504
sI2
S'13:00-15:00'
p1505
sI3
S'15:00-17:00'
p1506
sI4
S'17:00-19:00'
p1507
ssS'day_dict'
p1508
(dp1509
I0
S'Monday'
p1510
sI1
S'Tuesday'
p1511
sI2
S'Wednesday'
p1512
sI3
S'Thursday'
p1513
sI4
S'Friday'
p1514
ssb.