(ischedule
Schedule
p0
(dp1
S'timetable'
p2
(lp3
(lp4
(lp5
(ischedule
Activity
p6
(dp7
S'participants'
p8
(lp9
S'21964491'
p10
aS'33877725'
p11
aS'79617364'
p12
aS'14591033'
p13
aS'4568018'
p14
aS'74131924'
p15
aS'33930505'
p16
aS'30050930'
p17
aS'28359697'
p18
aS'11068043'
p19
aS'73236988'
p20
aS'58522654'
p21
aS'15051051'
p22
aS'247918'
p23
aS'59544049'
p24
aS'3168419'
p25
aS'20883994'
p26
aS'77831658'
p27
aS'22731474'
p28
aS'30195935'
p29
aS'89985072'
p30
aS'22826928'
p31
aS'6913074'
p32
aS'6723948'
p33
aS'42196732'
p34
aS'96453361'
p35
aS'24613625'
p36
aS'44868097'
p37
aS'21029457'
p38
aS'14816774'
p39
aS'70878567'
p40
aS'53202517'
p41
aS'54026378'
p42
aS'56749879'
p43
aS'29526540'
p44
aS'88176729'
p45
aS'56815156'
p46
aS'66120270'
p47
aS'43680781'
p48
aS'64600457'
p49
aS'5298748'
p50
aS'96054456'
p51
aS'81200278'
p52
aS'85335143'
p53
aS'7308727'
p54
asS'capacity'
p55
I1000
sS'name'
p56
S'Bioinformatica'
p57
sS'ttype'
p58
S'lectures'
p59
sS'group_id'
p60
I0
sS'room'
p61
(iread_data
Room
p62
(dp63
g55
S'56'
p64
sg56
S'A1.10'
p65
sbsba(ischedule
Activity
p66
(dp67
g8
(lp68
S'75521763'
p69
aS'64393888'
p70
aS'86000192'
p71
aS'77240949'
p72
aS'1075391'
p73
aS'34773179'
p74
aS'4783858'
p75
ag21
aS'51741554'
p76
aS'22699561'
p77
aS'42171678'
p78
aS'96104167'
p79
aS'15902055'
p80
aS'50184318'
p81
aS'35330349'
p82
aS'23547619'
p83
ag10
aS'13534377'
p84
ag34
aS'17222374'
p85
aS'50143947'
p86
aS'9332762'
p87
aS'61443567'
p88
aS'48601268'
p89
aS'62701040'
p90
aS'72577292'
p91
aS'87758823'
p92
aS'42778953'
p93
aS'28357474'
p94
aS'37770881'
p95
aS'68601184'
p96
aS'57595888'
p97
aS'53107172'
p98
aS'97135019'
p99
aS'3233378'
p100
aS'65960683'
p101
aS'86291592'
p102
aS'17575088'
p103
aS'5517869'
p104
aS'73980360'
p105
aS'24277163'
p106
aS'31416266'
p107
aS'1696500'
p108
aS'64228258'
p109
ag54
aS'60312776'
p110
aS'43027916'
p111
aS'76123484'
p112
aS'46052388'
p113
aS'33760909'
p114
aS'82689818'
p115
aS'45556081'
p116
aS'77896638'
p117
aS'25106480'
p118
aS'26406342'
p119
aS'29474737'
p120
aS'54310617'
p121
aS'29640619'
p122
aS'13092455'
p123
aS'1665980'
p124
aS'64296965'
p125
asg55
I1000
sg56
S'Collectieve Intelligentie'
p126
sg58
g59
sg60
I0
sg61
(iread_data
Room
p127
(dp128
g55
S'117'
p129
sg56
S'C0.110'
p130
sbsba(ischedule
Activity
p131
(dp132
g8
(lp133
S'89180944'
p134
aS'13911001'
p135
aS'30658799'
p136
aS'70072978'
p137
aS'27241113'
p138
aS'49631542'
p139
aS'1766560'
p140
aS'58332004'
p141
aS'46570285'
p142
aS'36748818'
p143
aS'27916487'
p144
ag48
aS'66621166'
p145
asg55
S'20'
p146
sg56
S'Moderne Databases'
p147
sg58
S'labs'
p148
sg60
S'2'
p149
sg61
(iread_data
Room
p150
(dp151
g55
S'20'
p152
sg56
S'A1.08'
p153
sbsba(ischedule
Activity
p154
(dp155
g8
(lp156
S'42115591'
p157
aS'80998260'
p158
aS'55474917'
p159
aS'34588570'
p160
aS'58866007'
p161
aS'68409833'
p162
aS'16011419'
p163
ag107
aS'81218347'
p164
aS'61060652'
p165
ag93
aS'93566383'
p166
aS'71839156'
p167
aS'79937969'
p168
ag92
aS'23565001'
p169
ag13
aS'16333449'
p170
ag117
aS'37399898'
p171
aS'56872729'
p172
aS'670011'
p173
aS'52311353'
p174
aS'32595335'
p175
aS'81385263'
p176
aS'80709893'
p177
ag12
ag34
aS'34243356'
p178
aS'62872965'
p179
aS'96118484'
p180
aS'75005528'
p181
aS'21311067'
p182
aS'74182182'
p183
aS'41578612'
p184
aS'3474870'
p185
aS'16097870'
p186
ag82
aS'66570705'
p187
aS'55412918'
p188
aS'10149535'
p189
aS'38499176'
p190
ag104
aS'83210352'
p191
aS'94955328'
p192
aS'26172512'
p193
aS'4921119'
p194
aS'94686490'
p195
aS'90743504'
p196
aS'36527838'
p197
aS'91196968'
p198
aS'54074680'
p199
aS'48308205'
p200
aS'36508571'
p201
asg55
I1000
sg56
S'Lineaire Algebra'
p202
sg58
g59
sg60
I0
sg61
(iread_data
Room
p203
(dp204
g55
S'60'
p205
sg56
S'C1.112'
p206
sbsba(ischedule
Activity
p207
(dp208
g8
(lp209
S'78136904'
p210
aS'60352393'
p211
aS'51052738'
p212
aS'38296757'
p213
aS'87830198'
p214
aS'20095994'
p215
aS'22871048'
p216
aS'84449005'
p217
aS'84524083'
p218
aS'99453514'
p219
aS'27950803'
p220
aS'52715680'
p221
aS'86988337'
p222
aS'13658563'
p223
aS'77392404'
p224
aS'13718298'
p225
aS'59753700'
p226
aS'37110913'
p227
aS'36213792'
p228
aS'70844780'
p229
aS'82390428'
p230
aS'36785409'
p231
asg55
S'20'
p232
sg56
S'Reflectie op de digitale cultuur'
p233
sg58
S'tutorials'
p234
sg60
S'3'
p235
sg61
(iread_data
Room
p236
(dp237
g55
S'22'
p238
sg56
S'A1.06'
p239
sbsba(ischedule
Activity
p240
(dp241
g8
(lp242
S'33252501'
p243
ag22
ag72
aS'2079771'
p244
aS'49683101'
p245
aS'90067329'
p246
aS'61518436'
p247
aS'85236626'
p248
aS'3685034'
p249
aS'37744525'
p250
aS'40791377'
p251
aS'67625383'
p252
aS'23798155'
p253
aS'39459642'
p254
aS'56988998'
p255
aS'5976174'
p256
aS'26857113'
p257
aS'27187154'
p258
aS'46701583'
p259
aS'94467156'
p260
aS'63111000'
p261
ag213
asg55
I1000
sg56
S'Machine Learning'
p262
sg58
g59
sg60
I0
sg61
(iread_data
Room
p263
(dp264
g55
S'41'
p265
sg56
S'A1.04'
p266
sbsbaa(lp267
(ischedule
Activity
p268
(dp269
g8
(lp270
g227
aS'44901052'
p271
ag104
aS'61611295'
p272
ag179
ag186
ag15
ag216
aS'19858730'
p273
aS'70113753'
p274
ag254
ag42
ag201
ag162
aS'62356458'
p275
aS'52552718'
p276
asg55
S'10'
p277
sg56
S'Autonomous Agents 2'
p278
sg58
g148
sg60
g235
sg61
(iread_data
Room
p279
(dp280
g55
g152
sg56
g153
sbsba(ischedule
Activity
p281
(dp282
g8
(lp283
g24
asg55
S'20'
p284
sg56
g57
sg58
g148
sg60
S'1'
p285
sg61
(iread_data
Room
p286
(dp287
g55
S'48'
p288
sg56
S'B0.201'
p289
sbsba(ischedule
Activity
p290
(dp291
g8
(lp292
S'83266686'
p293
ag91
aS'13798030'
p294
aS'34872117'
p295
aS'59289233'
p296
aS'20331158'
p297
aS'28618400'
p298
ag116
ag161
aS'43460038'
p299
aS'70015932'
p300
aS'40434933'
p301
ag253
aS'29718115'
p302
ag189
ag245
aS'14138904'
p303
ag134
aS'27925117'
p304
aS'72683344'
p305
ag115
asg55
I1000
sg56
S'Architectuur en computerorganisatie'
p306
sg58
g59
sg60
I0
sg61
(iread_data
Room
p307
(dp308
g55
g129
sg56
g130
sbsba(ischedule
Activity
p309
(dp310
g8
(lp311
S'45414528'
p312
aS'83415514'
p313
ag190
aS'27582862'
p314
ag261
ag107
aS'28943658'
p315
aS'41585485'
p316
aS'85284256'
p317
aS'80135353'
p318
asg55
S'20'
p319
sg56
S'Programmeren in Java 2'
p320
sg58
g148
sg60
g235
sg61
(iread_data
Room
p321
(dp322
g55
g64
sg56
g65
sbsba(ischedule
Activity
p323
(dp324
g8
(lp325
g141
aS'23257088'
p326
aS'68315599'
p327
ag40
aS'13116738'
p328
aS'17496687'
p329
aS'18266644'
p330
aS'19958553'
p331
ag143
aS'77636749'
p332
aS'11459236'
p333
aS'23983476'
p334
ag90
asg55
S'15'
p335
sg56
S'Informatie- en organsatieontwerp'
p336
sg58
g234
sg60
g285
sg61
(iread_data
Room
p337
(dp338
g55
g238
sg56
g239
sbsba(ischedule
Activity
p339
(dp340
g8
(lp341
g21
ag48
ag54
ag41
ag35
ag22
ag23
ag52
ag49
ag12
ag34
ag31
ag33
ag20
ag32
ag25
ag28
ag26
ag38
ag39
ag47
ag45
ag14
ag36
asg55
S'20'
p342
sg56
g57
sg58
g234
sg60
g235
sg61
(iread_data
Room
p343
(dp344
g55
g205
sg56
g206
sbsbaa(lp345
(ischedule
Activity
p346
(dp347
g8
(lp348
g144
aS'18144425'
p349
aS'96082155'
p350
aS'78821918'
p351
ag85
ag261
aS'58699305'
p352
ag143
aS'49219163'
p353
ag53
aS'33776961'
p354
ag313
aS'11996292'
p355
aS'3883025'
p356
aS'51650744'
p357
aS'75997788'
p358
aS'78544592'
p359
ag293
aS'59111489'
p360
aS'99283252'
p361
ag44
ag139
ag48
ag22
ag106
ag217
aS'14309255'
p362
ag136
ag134
aS'48198668'
p363
aS'1181560'
p364
aS'4709948'
p365
ag104
ag49
aS'47462856'
p366
ag135
ag142
ag138
ag141
aS'78443067'
p367
ag69
ag140
ag327
aS'11741347'
p368
ag197
ag78
aS'78243495'
p369
aS'77376714'
p370
aS'58592894'
p371
ag137
aS'13218321'
p372
ag81
ag145
aS'41489515'
p373
asg55
I1000
sg56
g147
sg58
g59
sg60
I0
sg61
(iread_data
Room
p374
(dp375
g55
g64
sg56
g65
sbsba(ischedule
Activity
p376
(dp377
g8
g9
sg55
I1000
sg56
g57
sg58
g59
sg60
I0
sg61
(iread_data
Room
p378
(dp379
g55
g129
sg56
g130
sbsba(ischedule
Activity
p380
(dp381
g8
(lp382
S'64947290'
p383
aS'2550487'
p384
aS'2317551'
p385
aS'73893840'
p386
aS'36903574'
p387
aS'9731271'
p388
aS'60661905'
p389
ag166
aS'73196865'
p390
ag248
ag260
aS'88597745'
p391
aS'23215240'
p392
aS'44671041'
p393
ag326
aS'37279234'
p394
aS'34262212'
p395
aS'10702778'
p396
aS'54395877'
p397
asg55
g319
sg56
g320
sg58
g148
sg60
g149
sg61
(iread_data
Room
p398
(dp399
g55
g152
sg56
g153
sbsba(ischedule
Activity
p400
(dp401
g8
(lp402
g106
ag76
ag86
ag84
ag125
ag93
ag107
asg55
S'20'
p403
sg56
g126
sg58
g148
sg60
g285
sg61
(iread_data
Room
p404
(dp405
g55
g288
sg56
g289
sbsba(ischedule
Activity
p406
(dp407
g8
(lp408
g89
ag97
ag101
ag124
ag80
ag99
ag115
ag91
ag90
ag79
ag72
ag112
ag117
ag111
ag96
ag70
ag10
ag123
ag119
asg55
g403
sg56
g126
sg58
g148
sg60
S'4'
p409
sg61
(iread_data
Room
p410
(dp411
g55
g238
sg56
g239
sbsba(ischedule
Activity
p412
(dp413
g8
(lp414
g231
aS'89338938'
p415
aS'7106649'
p416
ag184
ag227
aS'58565406'
p417
aS'93041523'
p418
ag301
aS'22323043'
p419
aS'12430748'
p420
ag362
ag332
aS'47982619'
p421
aS'97371272'
p422
aS'6249823'
p423
aS'4697362'
p424
ag48
aS'77264363'
p425
aS'12077419'
p426
aS'92496780'
p427
asg55
S'20'
p428
sg56
S'Technology for games'
p429
sg58
g234
sg60
g149
sg61
(iread_data
Room
p430
(dp431
g55
g205
sg56
g206
sbsbaa(lp432
(ischedule
Activity
p433
(dp434
g8
(lp435
S'73823548'
p436
aS'86180471'
p437
ag169
aS'6709529'
p438
aS'88752563'
p439
aS'14179347'
p440
aS'78735049'
p441
ag51
aS'80188025'
p442
aS'87900893'
p443
aS'38179241'
p444
ag32
aS'31306819'
p445
aS'59220392'
p446
aS'62105897'
p447
ag352
aS'47477884'
p448
aS'87602030'
p449
ag213
aS'86807027'
p450
ag189
aS'48357272'
p451
aS'65978354'
p452
ag142
ag33
ag49
ag172
aS'79167252'
p453
ag71
aS'58253841'
p454
ag258
aS'26260141'
p455
ag367
aS'82412626'
p456
aS'40141996'
p457
ag53
aS'79888156'
p458
aS'77306636'
p459
aS'3678531'
p460
aS'27064249'
p461
aS'34173695'
p462
aS'58469172'
p463
ag38
aS'58040377'
p464
ag358
aS'47932106'
p465
aS'72526473'
p466
aS'19717077'
p467
ag13
aS'22168693'
p468
aS'63634350'
p469
aS'23628642'
p470
aS'27298319'
p471
aS'56348773'
p472
ag109
aS'32705005'
p473
aS'73302736'
p474
ag76
aS'55530367'
p475
ag195
ag186
aS'93361408'
p476
ag359
aS'28957789'
p477
aS'14303208'
p478
aS'75623387'
p479
aS'4546613'
p480
aS'45915482'
p481
aS'12091019'
p482
aS'53139134'
p483
aS'70939718'
p484
aS'10792879'
p485
aS'72665524'
p486
aS'81155296'
p487
aS'23658570'
p488
ag188
aS'10609762'
p489
ag75
aS'62363761'
p490
aS'11593163'
p491
ag313
aS'5615125'
p492
ag394
ag259
ag39
aS'6939933'
p493
ag114
ag388
ag304
ag371
ag80
ag293
aS'24875739'
p494
aS'61520025'
p495
ag37
aS'33672995'
p496
aS'75446434'
p497
ag12
aS'56544130'
p498
aS'88855695'
p499
ag183
ag99
aS'76661016'
p500
aS'75585647'
p501
aS'65408517'
p502
aS'53585410'
p503
asg55
I1000
sg56
S'Calculus 2'
p504
sg58
g59
sg60
I0
sg61
(iread_data
Room
p505
(dp506
g55
g129
sg56
g130
sbsba(ischedule
Activity
p507
(dp508
g8
(lp509
g11
aS'94930277'
p510
ag41
aS'28358060'
p511
ag224
aS'69459473'
p512
aS'41790793'
p513
aS'76903244'
p514
aS'76648468'
p515
aS'53512831'
p516
ag423
ag91
aS'10698627'
p517
aS'67073567'
p518
asg55
S'20'
p519
sg56
S'Webprogrammeren en databases'
p520
sg58
g148
sg60
g285
sg61
(iread_data
Room
p521
(dp522
g55
g152
sg56
g153
sbsba(ischedule
Activity
p523
(dp524
g8
(lp525
S'34806836'
p526
asg55
g277
sg56
g278
sg58
g148
sg60
g149
sg61
(iread_data
Room
p527
(dp528
g55
g265
sg56
g266
sbsba(ischedule
Activity
p529
(dp530
g8
(lp531
S'51566595'
p532
ag227
ag272
ag271
ag273
ag104
ag162
ag274
ag15
asg55
S'10'
p533
sg56
g278
sg58
g234
sg60
g285
sg61
(iread_data
Room
p534
(dp535
g55
g288
sg56
g289
sbsba(ischedule
Activity
p536
(dp537
g8
(lp538
g122
ag102
aS'56121590'
p539
aS'25330192'
p540
aS'63573738'
p541
aS'64246605'
p542
aS'19058315'
p543
aS'75664412'
p544
asg55
S'20'
p545
sg56
S'Netwerken en systeembeveiliging'
p546
sg58
g148
sg60
g285
sg61
(iread_data
Room
p547
(dp548
g55
g238
sg56
g239
sbsba(ischedule
Activity
p549
(dp550
g8
(lp551
g333
aS'44151631'
p552
aS'535689'
p553
aS'99272880'
p554
aS'5892092'
p555
ag124
ag392
ag221
asg55
S'15'
p556
sg56
S'Compilerbouw practicum'
p557
sg58
g148
sg60
g235
sg61
(iread_data
Room
p558
(dp559
g55
g64
sg56
g65
sbsba(ischedule
Activity
p560
(dp561
g8
(lp562
g119
ag135
aS'25994016'
p563
ag86
aS'64418623'
p564
ag19
aS'91250534'
p565
aS'41644639'
p566
ag303
aS'32204977'
p567
ag190
aS'3407554'
p568
ag167
aS'51673172'
p569
aS'5085194'
p570
asg55
g556
sg56
g557
sg58
g148
sg60
g285
sg61
(iread_data
Room
p571
(dp572
g55
g205
sg56
g206
sbsbaa(lp573
(ischedule
Activity
p574
(dp575
g8
(lp576
g426
aS'79033175'
p577
ag102
aS'5595824'
p578
aS'72895450'
p579
ag110
ag178
ag222
aS'48503689'
p580
ag95
aS'5368702'
p581
ag21
ag244
aS'9067939'
p582
aS'98105190'
p583
ag176
ag385
aS'8464817'
p584
ag220
aS'75759231'
p585
aS'7957843'
p586
ag362
ag499
aS'66701209'
p587
ag251
ag568
ag439
aS'54772132'
p588
ag93
aS'94687383'
p589
aS'44391517'
p590
asg55
S'40'
p591
sg56
S'Compilerbouw'
p592
sg58
g148
sg60
g149
sg61
(iread_data
Room
p593
(dp594
g55
g64
sg56
g65
sbsba(ischedule
Activity
p595
(dp596
g8
(lp597
S'51542218'
p598
ag139
aS'13132925'
p599
ag43
ag51
ag276
ag123
ag44
ag141
ag488
aS'57467488'
p600
aS'59397895'
p601
ag125
aS'90474003'
p602
ag34
ag119
aS'4529208'
p603
ag172
ag137
aS'5526560'
p604
ag112
ag115
ag104
aS'17092717'
p605
ag371
ag457
aS'46989508'
p606
ag85
aS'15187217'
p607
ag326
ag122
ag465
ag295
aS'26207525'
p608
ag195
ag23
asg55
S'40'
p609
sg56
S'Databases 2'
p610
sg58
g234
sg60
g285
sg61
(iread_data
Room
p611
(dp612
g55
g288
sg56
g289
sbsba(ischedule
Activity
p613
(dp614
g8
(lp615
g305
aS'92665222'
p616
ag448
ag229
aS'39429093'
p617
aS'40633534'
p618
ag450
ag461
ag210
ag91
ag83
ag486
aS'62613937'
p619
ag211
ag25
ag358
aS'1886996'
p620
ag26
ag298
aS'14847953'
p621
asg55
I1000
sg56
S'Advanced Heuristics'
p622
sg58
g59
sg60
I0
sg61
(iread_data
Room
p623
(dp624
g55
g205
sg56
g206
sbsba(ischedule
Activity
p625
(dp626
g8
(lp627
S'82968410'
p628
aS'15249775'
p629
ag114
aS'81022997'
p630
ag532
aS'57086672'
p631
ag186
aS'99975346'
p632
aS'58736785'
p633
ag464
aS'5739011'
p634
aS'52304977'
p635
ag449
ag218
ag173
aS'35315956'
p636
ag111
ag256
aS'48678993'
p637
ag369
aS'72652638'
p638
ag469
aS'31897288'
p639
ag88
ag52
ag248
ag416
ag304
ag28
ag620
aS'83869542'
p640
aS'34765676'
p641
asg55
I1000
sg56
S'Heuristieken 2'
p642
sg58
g59
sg60
I0
sg61
(iread_data
Room
p643
(dp644
g55
g265
sg56
g266
sbsba(ischedule
Activity
p645
(dp646
g8
(lp647
g143
ag354
ag361
ag48
ag134
ag69
ag364
ag365
ag78
ag327
ag350
ag313
ag145
ag355
ag140
ag359
asg55
S'20'
p648
sg56
g147
sg58
g234
sg60
g149
sg61
(iread_data
Room
p649
(dp650
g55
g152
sg56
g153
sbsba(ischedule
Activity
p651
(dp652
g8
(lp653
g11
ag17
ag20
ag35
ag38
ag41
ag53
ag13
ag39
ag27
ag22
ag49
ag30
ag18
ag47
ag10
ag16
asg55
g284
sg56
g57
sg58
g148
sg60
g149
sg61
(iread_data
Room
p654
(dp655
g55
g129
sg56
g130
sbsba(ischedule
Activity
p656
(dp657
g8
(lp658
g254
ag274
ag471
ag532
ag271
ag162
ag526
aS'11915563'
p659
ag216
ag42
ag276
ag179
ag227
ag104
aS'88627897'
p660
ag201
ag15
ag273
ag275
aS'72796858'
p661
ag272
ag186
asg55
I1000
sg56
g278
sg58
g59
sg60
I0
sg61
(iread_data
Room
p662
(dp663
g55
g238
sg56
g239
sbsbaaa(lp664
(lp665
(ischedule
Activity
p666
(dp667
g8
(lp668
S'88636924'
p669
aS'75599734'
p670
ag587
ag200
ag585
ag426
ag368
ag577
ag584
ag293
ag20
ag102
ag581
ag589
ag362
aS'31194811'
p671
ag36
ag590
ag244
ag485
ag544
ag101
ag616
ag453
ag258
ag295
ag220
ag578
ag606
ag579
ag41
ag251
ag136
ag385
ag439
ag110
ag33
ag178
aS'15911353'
p672
aS'13284244'
p673
aS'43689934'
p674
aS'95007221'
p675
ag586
ag318
ag254
ag222
ag659
ag582
ag588
aS'34110913'
p676
ag21
ag140
ag95
ag499
ag500
ag135
aS'76802764'
p677
aS'65852230'
p678
ag176
ag661
ag117
aS'95631564'
p679
ag568
ag580
ag218
ag327
ag583
ag245
ag93
asg55
I1000
sg56
g592
sg58
g59
sg60
I0
sg61
(iread_data
Room
p680
(dp681
g55
g129
sg56
g130
sbsba(ischedule
Activity
p682
(dp683
g8
(lp684
g490
aS'14398123'
p685
aS'1048485'
p686
aS'53267490'
p687
aS'12170832'
p688
ag298
ag250
ag54
ag29
ag365
ag317
aS'62736669'
p689
ag637
ag52
ag211
ag224
ag356
asg55
g545
sg56
g546
sg58
g148
sg60
g149
sg61
(iread_data
Room
p690
(dp691
g55
g152
sg56
g153
sbsba(ischedule
Activity
p692
(dp693
g8
(lp694
S'91527663'
p695
ag222
ag259
aS'23652927'
p696
ag35
aS'40343779'
p697
ag185
ag387
ag124
ag532
aS'88596522'
p698
aS'41527759'
p699
ag316
ag579
aS'44828429'
p700
aS'21095566'
p701
aS'64554442'
p702
aS'67817269'
p703
aS'19540225'
p704
ag426
ag176
ag503
ag371
ag10
ag455
ag115
ag221
ag210
ag80
ag370
ag641
aS'8522855'
p705
aS'14671406'
p706
aS'66433883'
p707
aS'51509565'
p708
ag383
ag86
ag334
ag256
aS'3707829'
p709
ag600
aS'43902015'
p710
ag471
asg55
I1000
sg56
S'Algoritmen en complexiteit'
p711
sg58
g59
sg60
I0
sg61
(iread_data
Room
p712
(dp713
g55
g64
sg56
g65
sbsba(ischedule
Activity
p714
(dp715
g8
(lp716
g444
ag448
ag450
ag452
ag49
ag473
ag487
ag491
ag37
ag183
ag472
ag482
ag474
ag480
ag479
ag464
ag169
ag493
ag466
ag195
ag500
ag76
ag172
ag443
ag446
ag467
ag498
ag502
ag12
ag489
asg55
S'40'
p717
sg56
g504
sg58
g234
sg60
g149
sg61
(iread_data
Room
p718
(dp719
g55
g205
sg56
g206
sbsba(ischedule
Activity
p720
(dp721
g8
(lp722
g355
aS'45660925'
p723
ag43
ag223
ag583
aS'76393508'
p724
ag303
ag98
aS'4353500'
p725
ag639
aS'97019450'
p726
ag69
ag273
aS'83443653'
p727
aS'97417002'
p728
aS'79879876'
p729
asg55
S'25'
p730
sg56
S'Heuristieken 1'
p731
sg58
g234
sg60
g149
sg61
(iread_data
Room
p732
(dp733
g55
g288
sg56
g289
sbsba(ischedule
Activity
p734
(dp735
g8
(lp736
g419
ag13
aS'59075181'
p737
ag297
ag39
ag108
ag165
ag510
aS'14941752'
p738
ag164
ag387
ag167
aS'87210640'
p739
ag78
aS'20830477'
p740
ag450
ag227
aS'66122625'
p741
ag358
ag14
ag600
aS'53775014'
p742
aS'92977271'
p743
ag75
ag633
ag271
ag451
ag216
asg55
g730
sg56
g731
sg58
g234
sg60
g285
sg61
(iread_data
Room
p744
(dp745
g55
g265
sg56
g266
sbsbaa(lp746
(ischedule
Activity
p747
(dp748
g8
(lp749
g72
ag89
ag97
ag109
ag112
ag73
ag75
ag10
ag34
ag54
ag92
ag85
ag93
ag100
ag116
ag125
asg55
S'20'
p750
sg56
g126
sg58
g234
sg60
g409
sg61
(iread_data
Room
p751
(dp752
g55
g238
sg56
g239
sbsba(ischedule
Activity
p753
(dp754
g8
(lp755
g259
ag257
ag33
ag258
ag334
ag469
ag453
ag554
ag80
ag250
aS'51593625'
p756
ag460
ag117
ag584
ag729
ag137
aS'51791169'
p757
ag743
ag588
ag90
ag590
ag49
aS'12782624'
p758
ag70
aS'88263855'
p759
asg55
g319
sg56
g320
sg58
g148
sg60
S'5'
p760
sg61
(iread_data
Room
p761
(dp762
g55
g288
sg56
g289
sbsba(ischedule
Activity
p763
(dp764
g8
(lp765
g42
ag179
asg55
g533
sg56
g278
sg58
g234
sg60
g149
sg61
g643
sba(ischedule
Activity
p766
(dp767
g8
(lp768
g471
ag532
ag661
ag659
ag660
asg55
g277
sg56
g278
sg58
g148
sg60
g285
sg61
(iread_data
Room
p769
(dp770
g55
g64
sg56
g65
sbsba(ischedule
Activity
p771
(dp772
g8
(lp773
g620
ag621
ag83
ag229
ag617
ag298
ag305
ag25
ag358
ag448
ag211
ag450
ag91
ag616
ag461
ag26
ag619
asg55
S'10'
p774
sg56
g622
sg58
g148
sg60
g285
sg61
(iread_data
Room
p775
(dp776
g55
g205
sg56
g206
sbsba(ischedule
Activity
p777
(dp778
g8
(lp779
g425
ag426
ag423
ag83
ag327
ag231
aS'14383795'
p780
ag415
ag420
ag332
ag419
ag87
ag227
ag271
ag119
ag416
ag671
aS'21192048'
p781
ag418
ag424
ag427
ag421
aS'69086548'
p782
ag544
ag53
ag189
ag69
ag422
ag417
ag200
ag355
ag184
ag567
ag48
aS'76487754'
p783
ag362
ag301
aS'70336464'
p784
asg55
I1000
sg56
g429
sg58
g59
sg60
I0
sg61
g307
sba(ischedule
Activity
p785
(dp786
g8
(lp787
g486
ag618
ag210
asg55
g774
sg56
g622
sg58
g148
sg60
g149
sg61
(iread_data
Room
p788
(dp789
g55
g152
sg56
g153
sbsbaa(lp790
(ischedule
Activity
p791
(dp792
g8
(lp793
g216
aS'49922855'
p794
aS'42406214'
p795
ag230
ag221
aS'54569540'
p796
ag123
aS'27805666'
p797
ag223
ag354
ag227
ag389
ag32
ag219
ag210
aS'32044893'
p798
ag220
ag218
ag602
ag225
aS'20239127'
p799
ag48
ag228
aS'68286356'
p800
aS'92778619'
p801
ag631
ag211
ag231
ag365
ag217
ag184
ag229
ag226
aS'70193386'
p802
ag171
aS'77960666'
p803
aS'96554914'
p804
ag50
ag212
aS'27370083'
p805
ag249
ag213
ag247
ag106
ag214
aS'51415617'
p806
ag224
ag215
ag31
ag222
ag632
asg55
I1000
sg56
g233
sg58
g59
sg60
I0
sg61
(iread_data
Room
p807
(dp808
g55
g205
sg56
g206
sbsba(ischedule
Activity
p809
(dp810
g8
(lp811
g679
ag299
ag417
ag165
aS'65318664'
p812
ag37
ag221
ag191
ag110
ag300
ag75
ag415
ag474
aS'3727435'
p813
ag256
ag756
ag157
ag361
ag659
ag362
ag699
ag447
ag14
aS'31633723'
p814
ag159
aS'14072826'
p815
aS'58074656'
p816
aS'84110134'
p817
ag369
aS'41153310'
p818
ag177
ag686
ag250
aS'31247305'
p819
ag419
ag367
ag86
ag24
ag275
ag370
ag276
ag100
ag670
ag480
ag45
ag260
ag122
ag697
ag19
ag220
ag20
ag118
ag225
ag174
ag134
aS'82872148'
p820
ag11
ag30
ag94
ag451
ag314
ag42
ag481
ag162
ag502
ag216
ag393
ag455
ag89
aS'31103066'
p821
ag701
ag706
aS'9287708'
p822
aS'37830626'
p823
ag804
asg55
I1000
sg56
S'Software engineering'
p824
sg58
g59
sg60
I0
sg61
(iread_data
Room
p825
(dp826
g55
g129
sg56
g130
sbsba(ischedule
Activity
p827
(dp828
g8
(lp829
g327
ag782
ag53
ag355
ag119
ag69
ag200
ag544
ag784
ag671
ag87
ag83
ag189
ag783
ag567
ag780
ag781
ag271
asg55
g428
sg56
g429
sg58
g234
sg60
g285
sg61
(iread_data
Room
p830
(dp831
g55
g238
sg56
g239
sbsbaa(lp832
(ischedule
Activity
p833
(dp834
g8
(lp835
g471
ag186
ag660
ag216
ag254
ag201
ag275
ag526
ag276
ag659
ag661
asg55
g533
sg56
g278
sg58
g234
sg60
g235
sg61
(iread_data
Room
p836
(dp837
g55
g205
sg56
g206
sbsba(ischedule
Activity
p838
(dp839
g8
g779
sg55
I1000
sg56
g429
sg58
g59
sg60
I0
sg61
(iread_data
Room
p840
(dp841
g55
g288
sg56
g289
sbsba(ischedule
Activity
p842
(dp843
g8
(lp844
S'69634191'
p845
ag384
ag480
ag487
ag176
aS'21677389'
p846
aS'65675896'
p847
ag444
ag166
ag641
ag83
ag700
aS'37701751'
p848
ag709
aS'64768422'
p849
aS'20374340'
p850
aS'28055464'
p851
ag52
ag581
aS'19214659'
p852
aS'66034145'
p853
ag171
ag500
aS'76924297'
p854
ag621
asg55
I1000
sg56
S'Interactie-ontwerp'
p855
sg58
g59
sg60
I0
sg61
(iread_data
Room
p856
(dp857
g55
g64
sg56
g65
sbsba(ischedule
Activity
p858
(dp859
g8
(lp860
g198
aS'13996448'
p861
ag328
ag250
aS'93023961'
p862
aS'97136582'
p863
ag741
ag40
asg55
S'10'
p864
sg56
S'Data Mining'
p865
sg58
g148
sg60
g149
sg61
(iread_data
Room
p866
(dp867
g55
g238
sg56
g239
sbsba(ischedule
Activity
p868
(dp869
g8
(lp870
g259
ag685
ag705
aS'88737765'
p871
ag512
aS'82066165'
p872
aS'74361881'
p873
ag563
ag214
ag454
ag361
asg55
S'15'
p874
sg56
S'Project Genetic Algorithms'
p875
sg58
g148
sg60
g285
sg61
(iread_data
Room
p876
(dp877
g55
g265
sg56
g266
sbsba(ischedule
Activity
p878
(dp879
g8
g68
sg55
I1000
sg56
g126
sg58
g59
sg60
I0
sg61
(iread_data
Room
p880
(dp881
g55
g129
sg56
g130
sbsba(ischedule
Activity
p882
(dp883
g8
(lp884
g50
ag24
ag37
ag46
ag43
ag10
ag19
ag15
ag17
ag30
ag42
ag13
ag18
ag44
ag27
ag11
ag29
asg55
g342
sg56
g57
sg58
g234
sg60
g149
sg61
(iread_data
Room
p885
(dp886
g55
g152
sg56
g153
sbsbaa(lp887
(ischedule
Activity
p888
(dp889
g8
(lp890
g259
ag698
ag80
ag256
ag696
ag701
ag709
ag579
ag703
ag176
ag210
ag387
ag426
ag334
ag371
ag185
ag471
ag699
ag383
ag641
ag86
ag10
ag455
ag221
ag124
ag706
ag695
ag222
ag707
ag702
ag697
ag600
asg55
S'25'
p891
sg56
g711
sg58
g148
sg60
g285
sg61
(iread_data
Room
p892
(dp893
g55
g129
sg56
g130
sbsba(ischedule
Activity
p894
(dp895
g8
(lp896
g91
ag41
ag512
ag185
ag170
ag621
aS'49908313'
p897
ag301
ag579
ag461
ag513
aS'22288615'
p898
aS'1137946'
p899
ag478
ag605
ag112
ag88
ag299
aS'24891081'
p900
ag492
ag11
ag515
aS'20618153'
p901
ag710
ag518
ag134
ag631
ag109
ag423
aS'2416751'
p902
ag517
ag516
ag369
ag224
aS'39230359'
p903
ag511
ag510
ag514
ag853
asg55
I1000
sg56
g520
sg58
g59
sg60
I0
sg61
(iread_data
Room
p904
(dp905
g55
g205
sg56
g206
sbsba(ischedule
Activity
p906
(dp907
g8
(lp908
g69
ag90
ag223
ag302
ag501
ag141
aS'8557857'
p909
ag40
ag567
ag330
ag331
ag333
ag329
ag326
ag332
asg55
S'15'
p910
sg56
g336
sg58
g148
sg60
g149
sg61
(iread_data
Room
p911
(dp912
g55
g152
sg56
g153
sbsba(ischedule
Activity
p913
(dp914
g8
(lp915
g355
ag364
ag49
ag367
ag327
ag261
ag360
ag351
ag371
ag366
ag373
ag352
ag372
ag53
ag217
ag350
ag356
ag365
ag349
ag368
ag357
ag106
ag359
ag358
asg55
g146
sg56
g147
sg58
g148
sg60
g285
sg61
(iread_data
Room
p916
(dp917
g55
g265
sg56
g266
sbsba(ischedule
Activity
p918
(dp919
g8
(lp920
g12
ag15
ag21
ag36
ag42
ag45
ag48
ag54
ag28
ag31
ag46
ag50
ag29
ag25
ag52
ag43
ag26
ag23
ag19
ag33
ag34
ag44
ag37
ag32
ag14
ag40
ag51
asg55
g284
sg56
g57
sg58
g148
sg60
g235
sg61
(iread_data
Room
p921
(dp922
g55
g288
sg56
g289
sbsba(ischedule
Activity
p923
(dp924
g8
(lp925
g532
ag708
ag115
ag503
ag35
ag704
ag370
ag705
ag316
ag710
ag700
asg55
g891
sg56
g711
sg58
g148
sg60
g149
sg61
(iread_data
Room
p926
(dp927
g55
g64
sg56
g65
sbsbaaa(lp928
(lp929
(ischedule
Activity
p930
(dp931
g8
(lp932
g743
ag271
ag501
ag69
ag332
ag328
ag334
ag330
ag567
ag333
ag302
ag331
ag40
ag326
ag143
ag90
ag909
ag327
ag329
ag223
ag141
asg55
I1000
sg56
g336
sg58
g59
sg60
I0
sg61
g866
sba(ischedule
Activity
p933
(dp934
g8
(lp935
g15
ag630
ag862
ag250
ag198
ag52
aS'98780382'
p936
ag863
ag10
ag741
ag226
ag419
ag174
aS'68360259'
p937
ag443
ag540
aS'19337738'
p938
ag861
ag219
ag40
ag86
ag227
ag532
aS'87314964'
p939
ag328
aS'17823206'
p940
ag312
asg55
I1000
sg56
g865
sg58
g59
sg60
I0
sg61
(iread_data
Room
p941
(dp942
g55
g64
sg56
g65
sbsba(ischedule
Activity
p943
(dp944
g8
(lp945
g221
ag110
ag75
ag14
ag816
ag250
ag122
ag19
ag20
ag225
ag94
ag314
ag393
ag89
ag804
ag220
ag300
ag118
ag100
ag24
ag815
ag697
ag819
ag699
ag42
ag299
ag451
ag814
ag822
ag817
ag823
ag679
ag706
ag481
ag275
ag447
ag474
ag361
ag756
asg55
S'40'
p946
sg56
g824
sg58
g148
sg60
g285
sg61
(iread_data
Room
p947
(dp948
g55
g265
sg56
g266
sbsba(ischedule
Activity
p949
(dp950
g8
(lp951
g358
ag371
ag356
ag373
ag369
asg55
g648
sg56
g147
sg58
g234
sg60
g285
sg61
(iread_data
Room
p952
(dp953
g55
g205
sg56
g206
sbsba(ischedule
Activity
p954
(dp955
g8
(lp956
g22
ag362
ag104
ag135
ag372
ag136
ag144
ag142
ag352
ag360
ag106
ag53
ag367
ag139
ag217
ag261
ag137
ag44
ag85
ag49
ag81
ag366
ag368
ag357
ag349
ag351
ag141
ag370
ag363
ag293
ag197
ag138
ag353
asg55
g648
sg56
g147
sg58
g234
sg60
g235
sg61
(iread_data
Room
p957
(dp958
g55
g288
sg56
g289
sbsba(ischedule
Activity
p959
(dp960
g8
g896
sg55
I1000
sg56
g520
sg58
g59
sg60
I0
sg61
g307
sba(ischedule
Activity
p961
(dp962
g8
(lp963
g123
ag32
ag602
ag48
ag800
ag50
ag171
ag796
ag365
ag799
ag389
ag249
ag632
ag803
asg55
g232
sg56
g233
sg58
g234
sg60
g285
sg61
(iread_data
Room
p964
(dp965
g55
g152
sg56
g153
sbsbaa(lp966
(ischedule
Activity
p967
(dp968
g8
(lp969
g301
ag181
ag607
ag112
ag570
aS'25077484'
p970
ag598
aS'72456780'
p971
ag604
ag436
ag34
ag125
ag803
ag601
ag139
ag122
ag599
ag640
ag137
ag355
ag710
ag23
ag43
ag351
ag51
ag848
ag254
ag211
ag606
ag437
ag276
ag448
ag602
ag119
ag383
ag222
aS'54540997'
p972
ag695
ag25
ag465
ag603
ag539
aS'27123462'
p973
ag173
ag123
ag111
ag117
ag371
ag39
ag104
ag457
ag295
ag106
ag195
ag194
ag689
ag326
ag661
ag44
ag605
ag141
ag85
ag439
ag600
ag488
aS'58083680'
p974
ag608
ag482
aS'56191333'
p975
ag532
ag172
ag115
asg55
I1000
sg56
g610
sg58
g59
sg60
I0
sg61
(iread_data
Room
p976
(dp977
g55
g129
sg56
g130
sbsba(ischedule
Activity
p978
(dp979
g8
(lp980
g670
ag293
ag102
ag589
ag485
ag101
ag453
ag251
ag110
ag673
ag675
ag140
ag499
ag678
ag327
ag245
ag586
ag368
ag176
ag581
ag568
ag588
ag616
ag385
ag95
ag220
ag669
ag222
ag583
ag659
ag500
ag178
ag584
ag362
ag93
ag21
ag36
ag580
ag679
ag244
ag582
ag426
ag677
ag676
ag577
ag136
ag258
ag590
ag295
ag578
ag117
ag579
asg55
S'40'
p981
sg56
g592
sg58
g234
sg60
g149
sg61
(iread_data
Room
p982
(dp983
g55
g205
sg56
g206
sbsba(ischedule
Activity
p984
(dp985
g8
(lp986
g302
ag271
ag743
ag69
ag223
ag567
ag909
ag501
asg55
g335
sg56
g336
sg58
g234
sg60
g149
sg61
(iread_data
Room
p987
(dp988
g55
g288
sg56
g289
sbsba(ischedule
Activity
p989
(dp990
g8
(lp991
g41
ag898
ag492
ag134
ag91
ag517
ag621
ag897
ag514
ag903
ag88
ag515
ag511
ag901
ag109
ag11
ag461
ag224
ag423
ag899
asg55
S'20'
p992
sg56
g520
sg58
g234
sg60
g149
sg61
g643
sba(ischedule
Activity
p993
(dp994
g8
(lp995
g631
ag464
ag369
ag469
ag114
ag52
ag28
ag636
ag620
ag186
ag635
ag641
ag218
ag628
ag639
ag111
ag633
ag248
asg55
S'20'
p996
sg56
g642
sg58
g234
sg60
g149
sg61
g374
sba(ischedule
Activity
p997
(dp998
g8
(lp999
g174
ag540
ag219
ag10
ag40
ag86
ag250
ag863
ag15
ag312
ag532
ag937
asg55
S'10'
p1000
sg56
g865
sg58
g234
sg60
g285
sg61
(iread_data
Room
p1001
(dp1002
g55
g152
sg56
g153
sbsba(ischedule
Activity
p1003
(dp1004
g8
(lp1005
g940
ag939
ag936
ag443
ag328
ag198
ag419
ag938
ag630
ag861
ag862
ag226
asg55
g1000
sg56
g865
sg58
g234
sg60
g149
sg61
(iread_data
Room
p1006
(dp1007
g55
g238
sg56
g239
sbsbaa(lp1008
(ischedule
Activity
p1009
(dp1010
g8
(lp1011
g221
ag256
ag370
ag710
ag503
ag35
ag10
ag383
ag695
ag708
ag185
ag115
ag222
ag707
ag426
ag579
ag334
ag371
ag259
ag176
ag696
ag455
ag701
asg55
S'25'
p1012
sg56
g711
sg58
g234
sg60
g285
sg61
(iread_data
Room
p1013
(dp1014
g55
g205
sg56
g206
sbsba(ischedule
Activity
p1015
(dp1016
g8
(lp1017
g706
ag697
ag80
ag704
ag703
ag709
ag316
ag641
ag387
ag471
ag705
ag699
ag698
ag86
ag210
ag532
ag702
ag600
ag700
ag124
asg55
g1012
sg56
g711
sg58
g234
sg60
g149
sg61
(iread_data
Room
p1018
(dp1019
g55
g64
sg56
g65
sbsba(ischedule
Activity
p1020
(dp1021
g8
(lp1022
g216
ag46
aS'97838175'
p1023
aS'72586808'
p1024
ag802
ag253
ag631
ag178
ag231
ag330
ag27
ag637
ag726
ag451
ag111
aS'18477924'
p1025
aS'78822885'
p1026
aS'82854435'
p1027
ag871
ag442
ag727
ag125
ag351
ag570
ag194
ag488
aS'58480929'
p1028
ag358
ag184
ag225
aS'34900967'
p1029
ag186
ag578
ag174
ag498
ag389
ag598
ag619
ag812
ag214
ag474
ag971
ag53
ag157
ag169
ag496
aS'14637758'
p1030
ag192
aS'73350019'
p1031
asg55
I1000
sg56
S'Analysemethoden en -technieken'
p1032
sg58
g59
sg60
I0
sg61
(iread_data
Room
p1033
(dp1034
g55
g129
sg56
g130
sbsba(ischedule
Activity
p1035
(dp1036
g8
(lp1037
g669
ag368
ag20
ag544
ag616
ag258
ag41
ag33
ag672
ag254
ag659
ag500
ag117
ag218
ag135
ag327
ag661
ag295
ag678
ag677
ag245
ag453
ag101
ag36
ag673
ag140
ag200
ag674
ag675
ag293
ag671
ag606
ag318
ag676
ag485
ag670
ag136
ag679
asg55
g591
sg56
g592
sg58
g148
sg60
g285
sg61
(iread_data
Room
p1038
(dp1039
g55
g265
sg56
g266
sbsba(ischedule
Activity
p1040
(dp1041
g8
(lp1042
g87
ag118
ag77
ag114
ag120
ag34
ag102
ag69
ag94
ag100
ag113
ag121
ag88
ag75
asg55
g403
sg56
g126
sg58
g148
sg60
g149
sg61
(iread_data
Room
p1043
(dp1044
g55
g288
sg56
g289
sbsba(ischedule
Activity
p1045
(dp1046
g8
(lp1047
g71
ag78
ag82
ag104
ag103
ag122
ag116
ag92
ag83
ag74
ag105
ag85
ag110
ag21
ag54
ag109
ag73
ag95
ag81
ag98
ag108
asg55
g403
sg56
g126
sg58
g148
sg60
g235
sg61
(iread_data
Room
p1048
(dp1049
g55
g238
sg56
g239
sbsbaa(lp1050
(ischedule
Activity
p1051
(dp1052
g8
g668
sg55
I1000
sg56
g592
sg58
g59
sg60
I0
sg61
(iread_data
Room
p1053
(dp1054
g55
g129
sg56
g130
sbsba(ischedule
Activity
p1055
(dp1056
g8
g156
sg55
I1000
sg56
g202
sg58
g59
sg60
I0
sg61
(iread_data
Room
p1057
(dp1058
g55
g64
sg56
g65
sbsba(ischedule
Activity
p1059
(dp1060
g8
(lp1061
g532
ag219
ag86
ag937
ag938
ag443
ag940
ag540
ag10
ag939
ag630
asg55
g864
sg56
g865
sg58
g148
sg60
g285
sg61
(iread_data
Room
p1062
(dp1063
g55
g205
sg56
g206
sbsba(ischedule
Activity
p1064
(dp1065
g8
g932
sg55
I1000
sg56
g336
sg58
g59
sg60
I0
sg61
(iread_data
Room
p1066
(dp1067
g55
g238
sg56
g239
sbsba(ischedule
Activity
p1068
(dp1069
g8
(lp1070
g486
ag503
ag478
aS'47260040'
p1071
ag469
aS'1695839'
p1072
aS'51472074'
p1073
ag873
ag872
ag97
aS'42297781'
p1074
aS'55103073'
p1075
ag14
ag30
ag698
ag847
ag780
asg55
g556
sg56
g557
sg58
g148
sg60
g149
sg61
(iread_data
Room
p1076
(dp1077
g55
g265
sg56
g266
sbsba(ischedule
Activity
p1078
(dp1079
g8
(lp1080
g52
ag741
ag227
asg55
g1000
sg56
g865
sg58
g234
sg60
g235
sg61
(iread_data
Room
p1081
(dp1082
g55
g152
sg56
g153
sbsbaa(lp1083
(ischedule
Activity
p1084
(dp1085
g8
g935
sg55
I1000
sg56
g865
sg58
g59
sg60
I0
sg61
(iread_data
Room
p1086
(dp1087
g55
g265
sg56
g266
sbsba(ischedule
Activity
p1088
(dp1089
g8
(lp1090
g258
ag581
ag218
ag21
ag139
aS'65003379'
p1091
aS'44940353'
p1092
ag494
aS'82688900'
p1093
ag685
aS'7492204'
p1094
ag332
ag817
ag706
ag51
ag26
ag441
ag125
ag297
aS'91139627'
p1095
ag854
ag819
ag142
ag492
aS'47605891'
p1096
ag121
ag253
ag247
ag210
ag659
aS'63955238'
p1097
ag469
ag699
ag940
ag159
ag796
ag192
ag903
aS'51186803'
p1098
ag473
ag198
ag24
aS'10872825'
p1099
aS'79858178'
p1100
aS'72547110'
p1101
ag72
ag554
ag485
ag178
ag463
ag13
ag43
ag190
ag814
ag388
aS'37498675'
p1102
ag164
ag705
ag183
ag255
ag415
ag141
aS'39659121'
p1103
ag799
ag366
ag395
ag249
ag477
ag28
ag260
ag316
ag330
aS'39919665'
p1104
aS'63408522'
p1105
ag422
aS'38329455'
p1106
ag782
ag726
aS'79366078'
p1107
aS'23391676'
p1108
ag157
ag387
ag737
ag598
asg55
I1000
sg56
S'Kansrekenen 2'
p1109
sg58
g59
sg60
I0
sg61
(iread_data
Room
p1110
(dp1111
g55
g129
sg56
g130
sbsba(ischedule
Activity
p1112
(dp1113
g8
(lp1114
g640
ag355
ag848
ag211
ag437
ag448
ag222
ag695
ag173
ag111
ag661
ag482
ag532
ag975
ag973
ag351
ag383
ag25
ag39
ag570
ag971
ag439
ag254
ag301
ag710
ag436
ag194
ag972
ag803
ag689
ag539
ag970
ag106
ag117
ag974
ag181
asg55
g609
sg56
g610
sg58
g234
sg60
g149
sg61
(iread_data
Room
p1115
(dp1116
g55
g288
sg56
g289
sbsba(ischedule
Activity
p1117
(dp1118
g8
(lp1119
g313
ag44
ag22
ag104
ag197
ag78
ag69
ag293
ag363
ag354
ag369
ag370
ag362
ag85
ag353
ag81
ag361
asg55
g146
sg56
g147
sg58
g148
sg60
g235
sg61
(iread_data
Room
p1120
(dp1121
g55
g205
sg56
g206
sbsba(ischedule
Activity
p1122
(dp1123
g8
(lp1124
g75
ag159
ag275
ag276
ag225
ag502
ag804
ag367
ag191
ag216
ag447
ag670
ag451
ag110
ag37
ag30
ag474
ag20
ag11
ag100
ag481
ag19
ag118
ag300
ag94
ag42
asg55
S'40'
p1125
sg56
g824
sg58
g234
sg60
g285
sg61
(iread_data
Room
p1126
(dp1127
g55
g64
sg56
g65
sbsbaaa(lp1128
(lp1129
(ischedule
Activity
p1130
(dp1131
g8
(lp1132
g415
ag813
ag361
ag362
ag814
ag815
ag817
ag818
ag819
ag24
ag370
ag480
ag260
ag697
ag174
ag820
ag162
ag706
ag823
ag812
ag419
ag250
ag816
ag45
ag86
ag299
ag157
ag177
ag455
ag256
ag686
ag89
ag369
ag417
ag14
ag314
ag221
ag134
ag679
ag393
ag821
ag701
ag220
ag659
ag165
ag122
ag822
ag756
ag699
asg55
g1125
sg56
g824
sg58
g234
sg60
g149
sg61
(iread_data
Room
p1133
(dp1134
g55
g129
sg56
g130
sbsba(ischedule
Activity
p1135
(dp1136
g8
g844
sg55
I1000
sg56
g855
sg58
g59
sg60
I0
sg61
g286
sba(ischedule
Activity
p1137
(dp1138
g8
(lp1139
g189
ag142
ag454
ag367
ag53
ag469
ag359
ag485
ag488
ag75
ag259
ag114
ag371
ag496
ag99
ag188
ag490
ag486
ag453
ag483
ag80
ag499
ag293
ag33
ag484
ag458
ag475
ag437
ag13
ag442
ag478
ag258
ag465
ag476
ag451
ag456
ag394
ag388
ag213
ag497
ag39
ag32
ag455
ag438
ag449
ag494
ag501
ag38
ag481
asg55
g717
sg56
g504
sg58
g234
sg60
g235
sg61
(iread_data
Room
p1140
(dp1141
g55
g64
sg56
g65
sbsba(ischedule
Activity
p1142
(dp1143
g8
(lp1144
g86
ag102
ag121
ag82
ag123
ag88
ag21
ag101
ag81
ag77
ag124
ag105
ag94
asg55
g750
sg56
g126
sg58
g234
sg60
g285
sg61
(iread_data
Room
p1145
(dp1146
g55
g205
sg56
g206
sbsba(ischedule
Activity
p1147
(dp1148
g8
g658
sg55
I1000
sg56
g278
sg58
g59
sg60
I0
sg61
(iread_data
Room
p1149
(dp1150
g55
g238
sg56
g239
sbsba(ischedule
Activity
p1151
(dp1152
g8
(lp1153
g797
ag631
ag795
ag804
ag106
ag794
ag802
ag184
ag798
ag805
ag31
ag247
ag801
ag806
ag354
asg55
g232
sg56
g233
sg58
g234
sg60
g149
sg61
(iread_data
Room
p1154
(dp1155
g55
g152
sg56
g153
sbsba(ischedule
Activity
p1156
(dp1157
g8
(lp1158
g441
ag445
ag470
ag109
ag186
ag477
ag495
ag503
ag462
ag459
ag471
ag447
ag460
ag461
ag436
ag463
ag51
ag492
ag457
ag358
ag352
ag468
ag439
ag304
ag313
ag71
ag440
asg55
g717
sg56
g504
sg58
g234
sg60
g285
sg61
(iread_data
Room
p1159
(dp1160
g55
g265
sg56
g266
sbsbaa(lp1161
(ischedule
Activity
p1162
(dp1163
g8
g1090
sg55
I1000
sg56
g1109
sg58
g59
sg60
I0
sg61
(iread_data
Room
p1164
(dp1165
g55
g129
sg56
g130
sbsba(ischedule
Activity
p1166
(dp1167
g8
(lp1168
g532
ag173
ag640
ag630
ag632
ag637
ag88
ag304
ag629
ag256
ag638
ag416
ag634
ag449
asg55
g996
sg56
g642
sg58
g234
sg60
g285
sg61
(iread_data
Room
p1169
(dp1170
g55
g288
sg56
g289
sbsba(ischedule
Activity
p1171
(dp1172
g8
(lp1173
g96
ag79
ag69
ag83
ag106
ag95
ag84
ag78
ag108
ag99
asg55
g750
sg56
g126
sg58
g234
sg60
g235
sg61
(iread_data
Room
p1174
(dp1175
g55
g238
sg56
g239
sbsba(ischedule
Activity
p1176
(dp1177
g8
(lp1178
g52
ag227
ag226
ag15
ag312
ag419
ag174
ag936
asg55
g864
sg56
g865
sg58
g148
sg60
g235
sg61
(iread_data
Room
p1179
(dp1180
g55
g265
sg56
g266
sbsba(ischedule
Activity
p1181
(dp1182
g8
(lp1183
g70
ag87
ag91
ag110
ag114
ag118
ag115
ag80
ag117
ag120
ag104
ag103
ag111
ag122
ag71
ag90
ag113
ag74
ag76
ag119
ag98
ag107
asg55
g750
sg56
g126
sg58
g234
sg60
g149
sg61
g982
sba(ischedule
Activity
p1184
(dp1185
g8
(lp1186
g579
ag605
ag518
ag631
ag369
ag112
ag710
ag900
ag301
ag902
ag510
ag516
ag512
ag185
ag299
ag513
ag170
ag853
ag478
asg55
g992
sg56
g520
sg58
g234
sg60
g285
sg61
(iread_data
Room
p1187
(dp1188
g55
g152
sg56
g153
sbsba(ischedule
Activity
p1189
(dp1190
g8
(lp1191
g102
ag580
ag140
ag275
ag123
ag861
aS'32183908'
p1192
ag384
ag27
aS'81116418'
p1193
ag200
ag436
ag493
ag298
ag673
ag439
ag20
ag795
ag738
ag586
asg55
S'15'
p1194
sg56
S'Project Numerical Recipes'
p1195
sg58
g148
sg60
g235
sg61
(iread_data
Room
p1196
(dp1197
g55
g64
sg56
g65
sbsbaa(lp1198
(ischedule
Activity
p1199
(dp1200
g8
(lp1201
g178
ag47
ag600
aS'5590289'
p1202
asg55
g545
sg56
g546
sg58
g148
sg60
g409
sg61
(iread_data
Room
p1203
(dp1204
g55
g265
sg56
g266
sbsba(ischedule
Activity
p1205
(dp1206
g8
(lp1207
g36
ag162
ag970
ag854
ag220
ag440
ag500
aS'55480737'
p1208
ag260
ag184
ag95
ag566
ag217
asg55
g874
sg56
g875
sg58
g148
sg60
g235
sg61
(iread_data
Room
p1209
(dp1210
g55
g152
sg56
g153
sbsba(ischedule
Activity
p1211
(dp1212
g8
(lp1213
S'123355'
p1214
aS'16912993'
p1215
ag16
ag1024
ag608
ag229
ag484
ag115
aS'25557516'
p1216
ag486
aS'59887191'
p1217
ag214
ag697
ag586
ag705
ag975
ag190
ag553
ag330
ag630
ag971
ag737
ag863
ag588
ag76
ag108
ag820
ag387
ag846
ag271
ag725
ag99
ag176
ag388
ag819
asg55
g545
sg56
g546
sg58
g148
sg60
g235
sg61
(iread_data
Room
p1218
(dp1219
g55
g129
sg56
g130
sbsba(ischedule
Activity
p1220
(dp1221
g8
(lp1222
g447
ag32
ag448
ag686
ag629
ag194
ag818
ag88
ag488
aS'39905995'
p1223
ag901
ag1108
ag222
ag198
ag464
ag365
ag354
ag51
ag274
asg55
g319
sg56
g320
sg58
g148
sg60
g285
sg61
(iread_data
Room
p1224
(dp1225
g55
g238
sg56
g239
sbsba(ischedule
Activity
p1226
(dp1227
g8
(lp1228
g87
ag589
ag801
aS'7386961'
p1229
aS'88519892'
p1230
ag1029
ag902
ag122
ag898
ag450
ag707
ag726
ag940
ag192
ag10
ag171
ag740
aS'63096281'
p1231
aS'64053722'
p1232
ag861
ag1094
ag254
ag803
ag159
ag463
ag173
ag503
asg55
g319
sg56
g320
sg58
g148
sg60
S'6'
p1233
sg61
(iread_data
Room
p1234
(dp1235
g55
g205
sg56
g206
sbsba(ischedule
Activity
p1236
(dp1237
g8
(lp1238
g579
ag249
ag19
ag28
ag110
aS'21070547'
p1239
ag183
ag415
aS'90103047'
p1240
aS'37419523'
p1241
aS'63939720'
p1242
ag541
ag54
ag852
ag181
aS'19662602'
p1243
ag420
asg55
g1194
sg56
g1195
sg58
g148
sg60
g285
sg61
(iread_data
Room
p1244
(dp1245
g55
g64
sg56
g65
sbsba(ischedule
Activity
p1246
(dp1247
g8
(lp1248
g43
ag96
ag421
ag580
ag31
ag102
ag517
ag71
ag141
aS'90296821'
p1249
asg55
g319
sg56
g320
sg58
g148
sg60
g409
sg61
(iread_data
Room
p1250
(dp1251
g55
g288
sg56
g289
sbsbaa(lp1252
(ischedule
Activity
p1253
(dp1254
g8
(lp1255
g630
ag93
aS'34691309'
p1256
ag450
ag798
ag817
aS'40911986'
p1257
asg55
g1194
sg56
g1195
sg58
g148
sg60
g149
sg61
(iread_data
Room
p1258
(dp1259
g55
g265
sg56
g266
sbsba(ischedule
Activity
p1260
(dp1261
g8
g242
sg55
I1000
sg56
g262
sg58
g59
sg60
I0
sg61
(iread_data
Room
p1262
(dp1263
g55
g238
sg56
g239
sbsba(ischedule
Activity
p1264
(dp1265
g8
(lp1266
g118
ag74
ag351
ag637
ag304
ag437
ag449
ag618
ag569
ag587
ag604
aS'75680261'
p1267
asg55
g874
sg56
g875
sg58
g148
sg60
g149
sg61
(iread_data
Room
p1268
(dp1269
g55
g288
sg56
g289
sbsba(ischedule
Activity
p1270
(dp1271
g8
g9
sg55
I1000
sg56
g57
sg58
g59
sg60
I0
sg61
(iread_data
Room
p1272
(dp1273
g55
g205
sg56
g206
sbsba(ischedule
Activity
p1274
(dp1275
g8
(lp1276
g621
ag461
ag478
ag299
ag492
ag109
ag900
ag134
ag301
ag170
ag897
ag903
ag112
ag579
ag88
ag853
ag605
ag902
ag899
ag901
ag185
ag631
ag898
ag710
ag369
asg55
g519
sg56
g520
sg58
g148
sg60
g149
sg61
(iread_data
Room
p1277
(dp1278
g55
g129
sg56
g130
sbsba(ischedule
Activity
p1279
(dp1280
g8
(lp1281
g216
ag98
ag227
ag78
ag419
ag271
ag739
ag273
ag723
ag355
ag728
ag741
ag510
ag164
ag43
ag297
ag583
ag725
ag14
ag358
ag39
ag724
ag742
ag69
ag633
ag600
ag165
ag450
ag451
ag729
ag738
ag303
ag743
ag639
ag727
ag387
ag75
ag737
ag726
ag167
ag13
ag740
ag223
ag108
asg55
I1000
sg56
g731
sg58
g59
sg60
I0
sg61
(iread_data
Room
p1282
(dp1283
g55
g64
sg56
g65
sbsbaa(lp1284
(ischedule
Activity
p1285
(dp1286
g8
g68
sg55
I1000
sg56
g126
sg58
g59
sg60
I0
sg61
(iread_data
Room
p1287
(dp1288
g55
g129
sg56
g130
sbsba(ischedule
Activity
p1289
(dp1290
g8
(lp1291
g16
ag40
ag53
ag51
asg55
g342
sg56
g57
sg58
g234
sg60
g285
sg61
(iread_data
Room
p1292
(dp1293
g55
g152
sg56
g153
sbsba(ischedule
Activity
p1294
(dp1295
g8
(lp1296
g606
ag41
ag439
ag254
ag661
ag200
ag672
ag585
ag33
ag671
ag544
ag218
ag674
ag318
ag20
ag135
ag587
asg55
g981
sg56
g592
sg58
g234
sg60
g285
sg61
g982
sba(ischedule
Activity
p1297
(dp1298
g8
(lp1299
g334
ag327
ag271
ag743
ag328
ag143
asg55
g910
sg56
g336
sg58
g148
sg60
g285
sg61
(iread_data
Room
p1300
(dp1301
g55
g288
sg56
g289
sbsba(ischedule
Activity
p1302
(dp1303
g8
g292
sg55
I1000
sg56
g306
sg58
g59
sg60
I0
sg61
(iread_data
Room
p1304
(dp1305
g55
g238
sg56
g239
sbsba(ischedule
Activity
p1306
(dp1307
g8
(lp1308
g37
ag813
ag362
ag686
ag367
ag260
ag174
ag820
ag30
ag216
ag157
ag670
ag86
ag11
ag159
ag162
ag369
ag165
ag417
ag818
ag256
ag419
ag659
ag45
ag821
ag177
ag370
ag276
ag415
ag455
ag502
ag134
ag701
ag480
ag812
ag191
asg55
g946
sg56
g824
sg58
g148
sg60
g149
sg61
(iread_data
Room
p1309
(dp1310
g55
g265
sg56
g266
sbsba(ischedule
Activity
p1311
(dp1312
g8
g793
sg55
I1000
sg56
g233
sg58
g59
sg60
I0
sg61
(iread_data
Room
p1313
(dp1314
g55
g64
sg56
g65
sbsbaaa(lp1315
(lp1316
a(lp1317
a(lp1318
a(lp1319
a(lp1320
aasS'timeslot_dict'
p1321
(dp1322
I0
S'9:00-11:00'
p1323
sI1
S'11:00-13:00'
p1324
sI2
S'13:00-15:00'
p1325
sI3
S'15:00-17:00'
p1326
sI4
S'17:00-19:00'
p1327
ssS'day_dict'
p1328
(dp1329
I0
S'Monday'
p1330
sI1
S'Tuesday'
p1331
sI2
S'Wednesday'
p1332
sI3
S'Thursday'
p1333
sI4
S'Friday'
p1334
ssb.