(ischedule
Schedule
p0
(dp1
S'timetable'
p2
(lp3
(lp4
(lp5
(ischedule
Activity
p6
(dp7
S'participants'
p8
(lp9
S'84110134'
p10
aS'58074656'
p11
aS'5976174'
p12
aS'62105897'
p13
aS'55474917'
p14
aS'96554914'
p15
aS'41153310'
p16
aS'82872148'
p17
aS'1048485'
p18
aS'9287708'
p19
aS'22323043'
p20
aS'78243495'
p21
aS'28357474'
p22
aS'40343779'
p23
aS'31103066'
p24
aS'89338938'
p25
aS'95631564'
p26
aS'68409833'
p27
aS'11068043'
p28
aS'65408517'
p29
aS'14309255'
p30
aS'65318664'
p31
aS'42115591'
p32
aS'37830626'
p33
aS'59544049'
p34
aS'54026378'
p35
aS'3233378'
p36
aS'27582862'
p37
aS'33877725'
p38
aS'31633723'
p39
aS'88176729'
p40
aS'44868097'
p41
aS'31247305'
p42
aS'50143947'
p43
aS'48601268'
p44
aS'70015932'
p45
aS'41527759'
p46
aS'26260141'
p47
aS'52715680'
p48
aS'4568018'
p49
aS'62356458'
p50
aS'27950803'
p51
aS'99283252'
p52
aS'4546613'
p53
aS'80709893'
p54
aS'21095566'
p55
aS'48357272'
p56
aS'37744525'
p57
aS'78443067'
p58
aS'94467156'
p59
asS'capacity'
p60
S'40'
p61
sS'name'
p62
S'Software engineering'
p63
sS'ttype'
p64
S'tutorials'
p65
sS'group_id'
p66
S'2'
p67
sS'room'
p68
(iread_data
Room
p69
(dp70
g60
S'48'
p71
sg62
S'B0.201'
p72
sbsba(ischedule
Activity
p73
(dp74
g8
(lp75
S'22731474'
p76
ag38
aS'7308727'
p77
aS'58522654'
p78
aS'56749879'
p79
aS'81200278'
p80
aS'56815156'
p81
ag35
aS'73236988'
p82
aS'22826928'
p83
aS'3168419'
p84
aS'33930505'
p85
aS'14816774'
p86
aS'96054456'
p87
aS'30050930'
p88
ag40
ag41
aS'85335143'
p89
aS'6723948'
p90
asg60
S'20'
p91
sg62
S'Bioinformatica'
p92
sg64
g65
sg66
S'1'
p93
sg68
(iread_data
Room
p94
(dp95
g60
S'56'
p96
sg62
S'A1.10'
p97
sbsba(ischedule
Activity
p98
(dp99
g8
(lp100
S'73350019'
p101
aS'60661905'
p102
aS'34243356'
p103
aS'58480929'
p104
aS'57086672'
p105
ag89
aS'78821918'
p106
ag56
aS'75997788'
p107
aS'13718298'
p108
aS'23798155'
p109
aS'80188025'
p110
ag31
aS'72586808'
p111
aS'97019450'
p112
aS'34900967'
p113
aS'51542218'
p114
ag81
aS'70193386'
p115
aS'73302736'
p116
aS'5595824'
p117
aS'72456780'
p118
aS'56544130'
p119
ag32
aS'78822885'
p120
aS'48678993'
p121
aS'18477924'
p122
aS'18266644'
p123
aS'16097870'
p124
aS'94955328'
p125
aS'97838175'
p126
aS'23658570'
p127
aS'22871048'
p128
aS'52311353'
p129
aS'62613937'
p130
aS'4921119'
p131
aS'36785409'
p132
aS'33672995'
p133
aS'82854435'
p134
aS'43027916'
p135
aS'23565001'
p136
aS'87830198'
p137
aS'83443653'
p138
aS'64296965'
p139
aS'77831658'
p140
aS'41578612'
p141
aS'5085194'
p142
aS'14637758'
p143
aS'88737765'
p144
asg60
I1000
sg62
S'Analysemethoden en -technieken'
p145
sg64
S'lectures'
p146
sg66
I0
sg68
(iread_data
Room
p147
(dp148
g60
S'41'
p149
sg62
S'A1.04'
p150
sbsba(ischedule
Activity
p151
(dp152
g8
(lp153
S'21964491'
p154
ag78
aS'13534377'
p155
aS'35330349'
p156
aS'77240949'
p157
aS'75521763'
p158
aS'22699561'
p159
ag44
aS'60312776'
p160
aS'45556081'
p161
aS'1665980'
p162
asg60
S'20'
p163
sg62
S'Collectieve Intelligentie'
p164
sg64
g65
sg66
g93
sg68
(iread_data
Room
p165
(dp166
g60
S'117'
p167
sg62
S'C0.110'
p168
sbsba(ischedule
Activity
p169
(dp170
g8
(lp171
S'72577292'
p172
aS'92665222'
p173
aS'72683344'
p174
aS'39429093'
p175
ag107
aS'40633534'
p176
aS'47477884'
p177
aS'1886996'
p178
aS'14847953'
p179
aS'20883994'
p180
ag84
aS'60352393'
p181
aS'23547619'
p182
aS'86807027'
p183
aS'70844780'
p184
aS'72665524'
p185
aS'27064249'
p186
aS'28618400'
p187
ag130
aS'78136904'
p188
asg60
I1000
sg62
S'Advanced Heuristics'
p189
sg64
g146
sg66
I0
sg68
(iread_data
Room
p190
(dp191
g60
S'60'
p192
sg62
S'C1.112'
p193
sbsba(ischedule
Activity
p194
(dp195
g8
(lp196
S'46052388'
p197
aS'42778953'
p198
ag135
ag78
aS'17222374'
p199
ag155
aS'97135019'
p200
aS'37770881'
p201
aS'86291592'
p202
asg60
S'20'
p203
sg62
g164
sg64
S'labs'
p204
sg66
g67
sg68
(iread_data
Room
p205
(dp206
g60
S'22'
p207
sg62
S'A1.06'
p208
sbsba(ischedule
Activity
p209
(dp210
g8
(lp211
g179
aS'66034145'
p212
aS'2416751'
p213
aS'28358060'
p214
aS'40434933'
p215
aS'6249823'
p216
ag172
aS'24891081'
p217
aS'16333449'
p218
aS'10698627'
p219
aS'89180944'
p220
aS'41790793'
p221
aS'43460038'
p222
aS'61443567'
p223
asg60
S'20'
p224
sg62
S'Webprogrammeren en databases'
p225
sg64
g204
sg66
g67
sg68
(iread_data
Room
p226
(dp227
g60
S'20'
p228
sg62
S'A1.08'
p229
sbsbaa(lp230
(ischedule
Activity
p231
(dp232
g8
(lp233
g112
aS'58469172'
p234
ag25
aS'5368702'
p235
aS'20331158'
p236
aS'47605891'
p237
ag103
aS'14591033'
p238
aS'28957789'
p239
ag32
ag157
ag139
aS'14671406'
p240
aS'14398123'
p241
aS'20239127'
p242
aS'49631542'
p243
aS'91196968'
p244
aS'7492204'
p245
aS'54310617'
p246
aS'41585485'
p247
aS'58332004'
p248
ag123
aS'78735049'
p249
aS'97371272'
p250
aS'17823206'
p251
aS'34262212'
p252
aS'46570285'
p253
aS'74182182'
p254
aS'3685034'
p255
aS'39230359'
p256
aS'32705005'
p257
aS'39659121'
p258
ag59
aS'56988998'
p259
ag180
aS'38499176'
p260
ag42
aS'37498675'
p261
aS'99272880'
p262
aS'5615125'
p263
aS'8522855'
p264
aS'9731271'
p265
ag14
aS'27187154'
p266
aS'10872825'
p267
aS'91139627'
p268
aS'81218347'
p269
aS'84524083'
p270
aS'44940353'
p271
ag125
aS'82688900'
p272
aS'63955238'
p273
ag34
aS'63634350'
p274
ag10
aS'47462856'
p275
aS'11915563'
p276
ag78
ag114
aS'36903574'
p277
ag79
aS'79858178'
p278
aS'23391676'
p279
aS'61518436'
p280
aS'63408522'
p281
ag76
ag109
ag188
ag46
aS'54569540'
p282
aS'10792879'
p283
ag39
aS'38329455'
p284
aS'51186803'
p285
aS'69086548'
p286
aS'76924297'
p287
aS'39919665'
p288
aS'77636749'
p289
aS'24875739'
p290
ag87
aS'65003379'
p291
aS'72547110'
p292
aS'79366078'
p293
aS'59075181'
p294
asg60
I1000
sg62
S'Kansrekenen 2'
p295
sg64
g146
sg66
I0
sg68
(iread_data
Room
p296
(dp297
g60
g167
sg62
g168
sbsba(ischedule
Activity
p298
(dp299
g8
(lp300
S'17092717'
p301
ag215
aS'1137946'
p302
aS'3474870'
p303
ag256
ag186
ag21
ag214
aS'76123484'
p304
ag179
ag218
ag172
aS'53512831'
p305
aS'77392404'
p306
aS'69459473'
p307
ag212
aS'64228258'
p308
aS'14303208'
p309
ag223
ag220
aS'72895450'
p310
aS'20618153'
p311
ag219
ag38
ag105
aS'53202517'
p312
ag263
aS'49908313'
p313
ag217
aS'76903244'
p314
ag216
aS'43902015'
p315
ag221
aS'22288615'
p316
ag213
aS'67073567'
p317
ag222
aS'94930277'
p318
aS'76648468'
p319
asg60
I1000
sg62
g225
sg64
g146
sg66
I0
sg68
(iread_data
Room
p320
(dp321
g60
g192
sg62
g193
sbsba(ischedule
Activity
p322
(dp323
g8
(lp324
S'92496780'
p325
ag250
ag30
aS'43680781'
p326
aS'21192048'
p327
aS'75664412'
p328
aS'32204977'
p329
ag182
aS'44901052'
p330
ag20
ag132
ag215
aS'7106649'
p331
aS'68315599'
p332
aS'11996292'
p333
ag216
aS'58565406'
p334
aS'70336464'
p335
aS'12077419'
p336
aS'10149535'
p337
ag89
aS'37110913'
p338
ag25
aS'31194811'
p339
aS'77264363'
p340
ag158
aS'26406342'
p341
aS'9332762'
p342
aS'47982619'
p343
ag289
ag286
aS'12430748'
p344
aS'93041523'
p345
aS'4697362'
p346
aS'76487754'
p347
aS'14383795'
p348
aS'48308205'
p349
ag141
asg60
I1000
sg62
S'Technology for games'
p350
sg64
g146
sg66
I0
sg68
(iread_data
Room
p351
(dp352
g60
g149
sg62
g150
sbsba(ischedule
Activity
p353
(dp354
g8
(lp355
g82
aS'64600457'
p356
aS'74131924'
p357
aS'66120270'
p358
aS'6913074'
p359
aS'79617364'
p360
ag28
aS'247918'
p361
ag90
ag49
aS'28359697'
p362
ag154
ag84
ag38
aS'5298748'
p363
ag180
ag77
aS'21029457'
p364
aS'70878567'
p365
ag34
ag88
ag326
ag35
aS'42196732'
p366
asg60
S'20'
p367
sg62
g92
sg64
g204
sg66
S'3'
p368
sg68
(iread_data
Room
p369
(dp370
g60
g228
sg62
g229
sbsba(ischedule
Activity
p371
(dp372
g8
(lp373
g315
aS'64947290'
p374
ag23
aS'77376714'
p375
aS'44828429'
p376
ag188
aS'88596522'
p377
aS'3707829'
p378
ag154
aS'51566595'
p379
ag43
ag46
ag48
aS'86988337'
p380
aS'67817269'
p381
aS'23983476'
p382
aS'58592894'
p383
aS'15902055'
p384
aS'27298319'
p385
aS'34765676'
p386
ag240
aS'57467488'
p387
ag47
ag336
asg60
S'25'
p388
sg62
S'Algoritmen en complexiteit'
p389
sg64
g65
sg66
g67
sg68
(iread_data
Room
p390
(dp391
g60
g207
sg62
g208
sbsbaa(lp392
(ischedule
Activity
p393
(dp394
g8
(lp395
g154
ag197
aS'42171678'
p396
ag22
aS'57595888'
p397
aS'4783858'
p398
ag161
ag43
ag78
ag159
aS'31416266'
p399
aS'87758823'
p400
ag182
ag44
ag308
aS'17575088'
p401
aS'29474737'
p402
ag341
ag158
ag366
aS'82689818'
p403
ag246
ag200
aS'51741554'
p404
ag202
aS'62701040'
p405
aS'77896638'
p406
aS'65960683'
p407
aS'13092455'
p408
ag223
ag36
aS'1075391'
p409
ag342
ag198
aS'5517869'
p410
ag160
ag201
ag172
aS'53107172'
p411
aS'68601184'
p412
ag155
aS'29640619'
p413
aS'96104167'
p414
aS'34773179'
p415
ag162
ag384
ag139
ag77
ag156
aS'33760909'
p416
aS'24277163'
p417
aS'64393888'
p418
aS'50184318'
p419
aS'1696500'
p420
ag199
aS'25106480'
p421
aS'86000192'
p422
ag135
aS'73980360'
p423
ag304
ag157
asg60
I1000
sg62
g164
sg64
g146
sg66
I0
sg68
(iread_data
Room
p424
(dp425
g60
g192
sg62
g193
sbsba(ischedule
Activity
p426
(dp427
g8
(lp428
g215
ag186
ag214
ag179
ag172
ag212
ag38
ag312
ag317
ag222
ag213
ag313
ag21
ag301
ag309
ag310
ag304
ag314
ag217
ag105
ag302
ag256
ag308
ag303
ag307
ag218
ag220
ag315
ag223
ag306
ag319
ag318
asg60
S'20'
p429
sg62
g225
sg64
g65
sg66
g67
sg68
(iread_data
Room
p430
(dp431
g60
g71
sg62
g72
sbsba(ischedule
Activity
p432
(dp433
g8
(lp434
S'81022997'
p435
asg60
S'10'
p436
sg62
S'Data Mining'
p437
sg64
g65
sg66
g368
sg68
(iread_data
Room
p438
(dp439
g60
g167
sg62
g168
sbsba(ischedule
Activity
p440
(dp441
g8
(lp442
g173
ag176
ag174
ag186
ag175
ag172
ag188
ag177
ag183
ag187
ag180
ag130
ag179
ag107
ag181
ag185
ag184
ag178
ag84
asg60
S'10'
p443
sg62
g189
sg64
g204
sg66
g67
sg68
(iread_data
Room
p444
(dp445
g60
g149
sg62
g150
sbsba(ischedule
Activity
p446
(dp447
g8
(lp448
S'1181560'
p449
ag52
aS'15051051'
p450
ag396
ag356
ag253
aS'36748818'
p451
aS'4709948'
p452
aS'29526540'
p453
aS'36527838'
p454
aS'84449005'
p455
aS'3883025'
p456
aS'1766560'
p457
aS'18144425'
p458
asg60
S'20'
p459
sg62
S'Moderne Databases'
p460
sg64
g65
sg66
g67
sg68
(iread_data
Room
p461
(dp462
g60
g207
sg62
g208
sbsba(ischedule
Activity
p463
(dp464
g8
(lp465
g358
ag326
ag361
ag356
aS'24613625'
p466
asg60
g91
sg62
g92
sg64
g65
sg66
g368
sg68
(iread_data
Room
p467
(dp468
g60
g228
sg62
g229
sbsba(ischedule
Activity
p469
(dp470
g8
(lp471
g335
ag286
ag89
ag25
ag141
ag289
ag328
ag333
asg60
S'20'
p472
sg62
g350
sg64
g65
sg66
g67
sg68
(iread_data
Room
p473
(dp474
g60
g96
sg62
g97
sbsbaa(lp475
(ischedule
Activity
p476
(dp477
g8
(lp478
g453
ag83
ag81
aS'89985072'
p479
ag312
ag79
aS'30195935'
p480
ag238
ag76
ag86
ag41
ag80
ag450
ag78
ag466
asg60
g367
sg62
g92
sg64
g204
sg66
g67
sg68
(iread_data
Room
p481
(dp482
g60
g71
sg62
g72
sbsba(ischedule
Activity
p483
(dp484
g8
(lp485
S'51509565'
p486
ag48
ag403
ag277
ag43
aS'64554442'
p487
aS'53585410'
p488
ag46
ag154
ag188
ag379
aS'96453361'
p489
ag380
ag264
ag162
ag23
ag381
ag376
ag310
ag383
ag247
ag375
ag378
ag55
ag315
aS'66433883'
p490
ag387
ag384
ag240
ag382
ag377
ag385
ag12
asg60
S'25'
p491
sg62
g389
sg64
g204
sg66
g93
sg68
(iread_data
Room
p492
(dp493
g60
g149
sg62
g150
sbsba(ischedule
Activity
p494
(dp495
g8
(lp496
S'29718115'
p497
aS'92977271'
p498
aS'75585647'
p499
ag330
aS'13658563'
p500
ag405
ag158
ag329
ag365
ag451
ag289
ag123
aS'17496687'
p501
ag248
ag332
aS'8557857'
p502
aS'11459236'
p503
aS'23257088'
p504
aS'19958553'
p505
aS'13116738'
p506
ag382
asg60
I1000
sg62
S'Informatie- en organsatieontwerp'
p507
sg64
g146
sg66
I0
sg68
(iread_data
Room
p508
(dp509
g60
g228
sg62
g229
sbsba(ischedule
Activity
p510
(dp511
g8
(lp512
g301
ag21
ag105
ag263
ag317
ag310
ag256
ag38
ag306
ag307
ag186
ag315
ag305
ag303
ag318
ag313
ag309
ag308
ag319
ag304
ag314
ag311
ag302
ag312
ag316
asg60
g224
sg62
g225
sg64
g204
sg66
g93
sg68
(iread_data
Room
p513
(dp514
g60
g167
sg62
g168
sbsba(ischedule
Activity
p515
(dp516
g8
(lp517
g451
ag410
aS'33776961'
p518
ag275
aS'96082155'
p519
aS'11741347'
p520
ag383
ag107
aS'59111489'
p521
aS'49219163'
p522
aS'83266686'
p523
aS'13218321'
p524
aS'58699305'
p525
ag326
ag458
ag199
ag356
ag243
ag332
ag375
asg60
S'20'
p526
sg62
g460
sg64
g204
sg66
g368
sg68
(iread_data
Room
p527
(dp528
g60
g207
sg62
g208
sbsbaa(lp529
(ischedule
Activity
p530
(dp531
g8
(lp532
g421
ag11
ag13
ag19
ag55
ag24
ag53
ag29
ag30
ag31
aS'52552718'
p533
ag33
ag129
ag43
ag45
ag116
ag128
ag40
ag34
ag82
ag20
ag38
ag44
ag108
aS'44671041'
p534
ag14
ag42
ag15
ag41
ag413
ag479
ag57
ag28
ag46
aS'3727435'
p535
ag36
ag56
ag10
ag54
ag35
ag334
ag52
asg60
S'40'
p536
sg62
g63
sg64
g204
sg66
g67
sg68
(iread_data
Room
p537
(dp538
g60
g228
sg62
g229
sbsba(ischedule
Activity
p539
(dp540
g8
(lp541
g406
aS'90296821'
p542
aS'39459642'
p543
aS'54772132'
p544
ag384
aS'93566383'
p545
aS'85284256'
p546
aS'45414528'
p547
ag131
ag16
aS'13996448'
p548
ag422
aS'23215240'
p549
ag183
aS'88519892'
p550
asg60
S'20'
p551
sg62
S'Programmeren in Java 2'
p552
sg64
g204
sg66
g368
sg68
(iread_data
Room
p553
(dp554
g60
g71
sg62
g72
sbsba(ischedule
Activity
p555
(dp556
g8
(lp557
g177
ag106
ag139
aS'83869542'
p558
ag543
ag315
ag383
aS'670011'
p559
aS'47932106'
p560
aS'34872117'
p561
ag84
aS'94686490'
p562
ag417
aS'37701751'
p563
aS'27123462'
p564
ag131
aS'73823548'
p565
ag114
ag403
ag304
aS'58083680'
p566
ag248
aS'56872729'
p567
aS'72796858'
p568
aS'90474003'
p569
ag199
ag380
ag142
ag379
ag333
aS'12091019'
p570
ag504
ag181
ag127
ag301
aS'54540997'
p571
aS'91527663'
p572
aS'56121590'
p573
ag533
ag410
aS'77960666'
p574
ag87
aS'59397895'
p575
ag387
ag135
ag406
aS'4529208'
p576
ag413
aS'88752563'
p577
aS'62736669'
p578
ag374
ag86
ag366
aS'46989508'
p579
aS'15187217'
p580
ag215
ag79
ag243
aS'40141996'
p581
ag408
ag453
aS'5526560'
p582
aS'70072978'
p583
aS'75005528'
p584
ag361
aS'13132925'
p585
aS'26207525'
p586
aS'86180471'
p587
ag118
ag341
aS'25077484'
p588
aS'56191333'
p589
asg60
I1000
sg62
S'Databases 2'
p590
sg64
g146
sg66
I0
sg68
(iread_data
Room
p591
(dp592
g60
g167
sg62
g168
sbsba(ischedule
Activity
p593
(dp594
g8
(lp595
S'14072826'
p596
ag129
ag534
aS'83210352'
p597
ag334
ag398
ag116
ag108
ag128
ag220
aS'61060652'
p598
ag160
aS'75599734'
p599
ag82
aS'51593625'
p600
ag421
ag533
ag222
ag535
ag479
ag375
aS'45915482'
p601
ag240
ag276
ag413
asg60
g61
sg62
g63
sg64
g65
sg66
g93
sg68
(iread_data
Room
p602
(dp603
g60
g149
sg62
g150
sbsba(ischedule
Activity
p604
(dp605
g8
g233
sg60
I1000
sg62
g295
sg64
g146
sg66
I0
sg68
(iread_data
Room
p606
(dp607
g60
g192
sg62
g193
sbsba(ischedule
Activity
p608
(dp609
g8
g496
sg60
I1000
sg62
g507
sg64
g146
sg66
I0
sg68
(iread_data
Room
p610
(dp611
g60
g207
sg62
g208
sbsba(ischedule
Activity
p612
(dp613
g8
(lp614
S'13911001'
p615
aS'64418623'
p616
ag162
aS'5892092'
p617
ag549
ag329
aS'71839156'
p618
aS'55103073'
p619
aS'47260040'
p620
aS'1695839'
p621
ag503
aS'42297781'
p622
ag341
aS'44151631'
p623
aS'74361881'
p624
ag488
aS'51673172'
p625
ag479
aS'82066165'
p626
ag260
ag142
ag397
aS'91250534'
p627
ag43
aS'51472074'
p628
ag49
ag274
ag28
aS'41644639'
p629
ag262
aS'25994016'
p630
ag309
ag348
aS'65675896'
p631
asg60
S'15'
p632
sg62
S'Compilerbouw practicum'
p633
sg64
g204
sg66
g67
sg68
(iread_data
Room
p634
(dp635
g60
g96
sg62
g97
sbsbaaa(lp636
(lp637
(ischedule
Activity
p638
(dp639
g8
(lp640
g375
ag106
aS'30658799'
p641
ag333
ag454
aS'41489515'
p642
ag326
ag199
ag253
ag21
ag383
ag451
aS'48198668'
p643
ag449
ag410
ag520
ag521
ag518
aS'63111000'
p644
ag523
ag275
ag220
ag52
ag58
ag457
ag525
ag332
ag458
ag615
ag89
aS'27916487'
p645
ag107
aS'51650744'
p646
ag158
ag450
ag583
ag453
ag243
ag524
aS'66621166'
p647
ag522
aS'27241113'
p648
ag456
ag396
aS'78544592'
p649
ag419
ag248
ag455
ag452
ag356
ag417
ag30
aS'83415514'
p650
ag519
asg60
I1000
sg62
g460
sg64
g146
sg66
I0
sg68
(iread_data
Room
p651
(dp652
g60
g192
sg62
g193
sbsba(ischedule
Activity
p653
(dp654
g8
(lp655
S'38179241'
p656
aS'69634191'
p657
aS'28055464'
p658
aS'64768422'
p659
aS'19214659'
p660
aS'20374340'
p661
ag182
aS'21677389'
p662
ag378
ag212
ag386
ag631
ag563
ag376
ag53
aS'76661016'
p663
ag545
aS'37399898'
p664
ag235
ag80
aS'2550487'
p665
ag179
ag287
aS'81155296'
p666
aS'81385263'
p667
asg60
I1000
sg62
S'Interactie-ontwerp'
p668
sg64
g146
sg66
I0
sg68
(iread_data
Room
p669
(dp670
g60
g149
sg62
g150
sbsba(ischedule
Activity
p671
(dp672
g8
(lp673
S'79033175'
p674
ag663
ag380
ag667
aS'98105190'
p675
ag173
ag117
ag201
ag328
aS'43689934'
p676
aS'80135353'
p677
ag520
aS'40791377'
p678
ag90
ag561
aS'2317551'
p679
aS'66701209'
p680
ag160
ag543
ag198
ag523
aS'48503689'
p681
ag26
ag577
ag568
aS'65852230'
p682
ag339
ag30
aS'75759231'
p683
aS'2079771'
p684
aS'49683101'
p685
aS'94687383'
p686
aS'3407554'
p687
ag235
ag266
aS'79167252'
p688
ag407
ag579
aS'88636924'
p689
ag310
ag51
ag202
ag283
aS'15911353'
p690
ag82
ag103
aS'44391517'
p691
aS'76802764'
p692
ag641
ag270
ag406
ag332
aS'7957843'
p693
ag312
ag336
ag544
aS'8464817'
p694
ag78
aS'9067939'
p695
ag349
ag615
aS'34110913'
p696
ag599
ag466
aS'95007221'
p697
ag276
aS'13284244'
p698
ag457
aS'88855695'
p699
asg60
I1000
sg62
S'Compilerbouw'
p700
sg64
g146
sg66
I0
sg68
(iread_data
Room
p701
(dp702
g60
g167
sg62
g168
sbsba(ischedule
Activity
p703
(dp704
g8
(lp705
g486
ag385
ag48
ag315
ag382
ag381
ag264
ag162
aS'19540225'
p706
ag667
ag403
aS'23652927'
p707
ag277
ag387
ag43
ag380
ag487
ag374
ag240
ag384
ag488
ag489
ag572
ag386
ag376
ag383
ag336
ag247
ag303
ag47
ag46
aS'46701583'
p708
ag310
ag378
ag154
ag23
ag55
ag12
ag377
ag490
ag188
ag375
ag379
asg60
I1000
sg62
g389
sg64
g146
sg66
I0
sg68
(iread_data
Room
p709
(dp710
g60
g71
sg62
g72
sbsba(ischedule
Activity
p711
(dp712
g8
(lp713
g216
ag221
ag311
ag316
ag305
ag219
ag263
asg60
g429
sg62
g225
sg64
g65
sg66
g93
sg68
(iread_data
Room
p714
(dp715
g60
g207
sg62
g208
sbsba(ischedule
Activity
p716
(dp717
g8
(lp718
g260
ag202
ag708
ag488
ag251
ag102
ag234
ag266
ag177
ag37
aS'12782624'
p719
aS'70113753'
p720
ag412
aS'88597745'
p721
ag277
ag279
asg60
g551
sg62
g552
sg64
g204
sg66
g67
sg68
(iread_data
Room
p722
(dp723
g60
g228
sg62
g229
sbsba(ischedule
Activity
p724
(dp725
g8
(lp726
g366
ag28
ag450
ag363
ag479
ag312
ag34
ag180
ag453
ag359
ag362
ag360
ag238
ag365
ag364
ag357
ag154
ag49
ag140
ag489
ag480
asg60
g91
sg62
g92
sg64
g65
sg66
g67
sg68
(iread_data
Room
p727
(dp728
g60
g96
sg62
g97
sbsbaa(lp729
(ischedule
Activity
p730
(dp731
g8
(lp732
S'75446434'
p733
aS'72526473'
p734
ag290
aS'27925117'
p735
ag523
aS'79888156'
p736
aS'11593163'
p737
ag567
ag110
ag183
ag274
aS'62363761'
p738
aS'37279234'
p739
ag398
ag89
aS'82412626'
p740
ag90
ag562
ag570
ag249
aS'3678531'
p741
ag87
aS'14179347'
p742
aS'6709529'
p743
ag116
ag238
ag587
aS'53139134'
p744
aS'22168693'
p745
ag688
ag119
ag383
ag86
ag601
ag488
ag136
aS'93361408'
p746
ag308
ag124
ag364
ag239
ag107
aS'31306819'
p747
asg60
S'40'
p748
sg62
S'Calculus 2'
p749
sg64
g65
sg66
g67
sg68
(iread_data
Room
p750
(dp751
g60
g96
sg62
g97
sbsba(ischedule
Activity
p752
(dp753
g8
(lp754
g197
ag398
ag246
ag223
ag172
ag423
ag404
ag202
ag201
ag419
ag401
ag22
ag200
ag397
ag412
ag198
ag399
ag341
asg60
g163
sg62
g164
sg64
g65
sg66
g67
sg68
(iread_data
Room
p755
(dp756
g60
g167
sg62
g168
sbsba(ischedule
Activity
p757
(dp758
g8
g324
sg60
I1000
sg62
g350
sg64
g146
sg66
I0
sg68
(iread_data
Room
p759
(dp760
g60
g192
sg62
g193
sbsba(ischedule
Activity
p761
(dp762
g8
(lp763
g83
ag219
ag559
ag694
ag413
ag57
ag127
ag18
ag359
aS'85236626'
p764
ag14
ag665
ag382
ag247
ag374
ag265
aS'58040377'
p765
ag87
ag677
aS'63096281'
p766
ag59
asg60
g551
sg62
g552
sg64
g204
sg66
g93
sg68
(iread_data
Room
p767
(dp768
g60
g149
sg62
g150
sbsba(ischedule
Activity
p769
(dp770
g8
(lp771
g52
ag583
ag645
ag650
ag450
ag220
asg60
g526
sg62
g460
sg64
g204
sg66
g67
sg68
(iread_data
Room
p772
(dp773
g60
g207
sg62
g208
sbsba(ischedule
Activity
p774
(dp775
g8
(lp776
g764
ag435
ag274
ag12
aS'52304977'
p777
ag223
ag135
ag80
aS'35315956'
p778
ag105
ag558
ag76
ag559
ag124
ag270
ag178
ag735
aS'72652638'
p779
aS'58736785'
p780
aS'15249775'
p781
ag121
aS'82968410'
p782
ag416
aS'5739011'
p783
aS'87602030'
p784
ag21
aS'31897288'
p785
ag765
ag331
ag386
aS'99975346'
p786
ag379
asg60
I1000
sg62
S'Heuristieken 2'
p787
sg64
g146
sg66
I0
sg68
(iread_data
Room
p788
(dp789
g60
g71
sg62
g72
sbsba(ischedule
Activity
p790
(dp791
g8
(lp792
g523
ag109
aS'13798030'
p793
ag337
ag222
ag561
ag172
aS'58866007'
p794
aS'59289233'
p795
ag187
ag220
ag174
ag685
ag215
ag161
ag735
ag403
aS'14138904'
p796
ag236
ag497
ag45
asg60
I1000
sg62
S'Architectuur en computerorganisatie'
p797
sg64
g146
sg66
I0
sg68
(iread_data
Room
p798
(dp799
g60
g228
sg62
g229
sbsbaa(lp800
(ischedule
Activity
p801
(dp802
g8
(lp803
g332
ag505
ag248
ag503
ag502
ag499
ag501
ag498
ag497
ag405
ag506
asg60
S'15'
p804
sg62
g507
sg64
g204
sg66
g93
sg68
(iread_data
Room
p805
(dp806
g60
g71
sg62
g72
sbsba(ischedule
Activity
p807
(dp808
g8
(lp809
g400
ag366
ag407
ag409
ag415
ag421
ag304
ag135
ag402
ag384
ag420
ag417
ag405
ag413
ag199
asg60
g163
sg62
g164
sg64
g65
sg66
S'4'
p810
sg68
(iread_data
Room
p811
(dp812
g60
g192
sg62
g193
sbsba(ischedule
Activity
p813
(dp814
g8
g673
sg60
I1000
sg62
g700
sg64
g146
sg66
I0
sg68
(iread_data
Room
p815
(dp816
g60
g96
sg62
g97
sbsba(ischedule
Activity
p817
(dp818
g8
(lp819
g50
aS'34806836'
p820
ag379
asg60
S'10'
p821
sg62
S'Autonomous Agents 2'
p822
sg64
g65
sg66
g93
sg68
(iread_data
Room
p823
(dp824
g60
g167
sg62
g168
sbsba(ischedule
Activity
p825
(dp826
g8
(lp827
g51
aS'20095994'
p828
aS'92778619'
p829
aS'51052738'
p830
ag326
ag786
ag184
ag664
ag83
ag132
ag452
ag359
ag242
ag518
aS'59753700'
p831
ag188
ag380
ag455
aS'42406214'
p832
ag280
aS'38296757'
p833
ag15
ag408
ag48
aS'82390428'
p834
ag141
aS'36213792'
p835
ag105
aS'32044893'
p836
ag270
ag417
aS'49922855'
p837
ag108
ag569
ag338
aS'51415617'
p838
ag128
aS'99453514'
p839
aS'27370083'
p840
aS'27805666'
p841
ag282
ag255
ag137
aS'68286356'
p842
ag363
ag102
ag115
ag181
ag306
ag500
ag574
asg60
I1000
sg62
S'Reflectie op de digitale cultuur'
p843
sg64
g146
sg66
I0
sg68
(iread_data
Room
p844
(dp845
g60
g207
sg62
g208
sbsba(ischedule
Activity
p846
(dp847
g8
(lp848
g330
ag132
ag334
ag336
ag340
ag349
ag338
ag345
ag346
ag326
ag337
ag339
ag342
ag325
ag30
ag329
ag327
ag331
ag215
ag216
ag343
ag332
ag20
ag158
ag341
ag344
ag182
ag250
ag347
ag348
asg60
g472
sg62
g350
sg64
g65
sg66
g93
sg68
(iread_data
Room
p849
(dp850
g60
g228
sg62
g229
sbsbaa(lp851
(ischedule
Activity
p852
(dp853
g8
(lp854
g201
ag90
ag679
ag682
ag30
ag684
ag332
ag312
ag544
ag349
ag696
ag466
ag641
ag687
ag270
ag688
ag674
ag681
ag694
ag328
ag380
ag667
asg60
S'40'
p855
sg62
g700
sg64
g204
sg66
g67
sg68
(iread_data
Room
p856
(dp857
g60
g228
sg62
g229
sbsba(ischedule
Activity
p858
(dp859
g8
(lp860
g182
asg60
g443
sg62
g189
sg64
g204
sg66
g93
sg68
(iread_data
Room
p861
(dp862
g60
g149
sg62
g150
sbsba(ischedule
Activity
p863
(dp864
g8
(lp865
g338
asg60
S'10'
p866
sg62
g822
sg64
g204
sg66
g368
sg68
(iread_data
Room
p867
(dp868
g60
g192
sg62
g193
sbsba(ischedule
Activity
p869
(dp870
g8
(lp871
S'59220392'
p872
ag733
aS'55530367'
p873
aS'70939718'
p874
ag734
ag577
ag263
ag290
ag56
ag53
ag735
ag185
ag499
ag663
ag488
ag688
ag523
ag58
ag265
ag257
aS'6939933'
p875
ag744
ag736
aS'23628642'
p876
ag47
ag737
ag308
ag587
ag567
ag656
ag119
ag110
ag784
ag283
ag183
aS'55412918'
p877
ag581
ag274
ag359
ag416
ag666
ag234
aS'34173695'
p878
ag356
ag765
ag422
ag738
aS'65978354'
p879
ag253
ag739
ag525
ag650
ag398
ag649
ag746
ag89
ag136
ag177
ag41
ag383
ag833
ag740
ag200
aS'77306636'
p880
ag90
aS'61520025'
p881
ag239
ag107
ag254
ag565
ag562
ag309
ag133
ag404
ag708
ag385
ag186
aS'56348773'
p882
ag360
aS'10609762'
p883
ag601
ag560
ag570
ag124
ag266
ag249
ag127
ag384
ag741
aS'58253841'
p884
ag337
ag87
ag364
ag745
ag742
ag747
ag86
ag743
ag699
aS'87900893'
p885
ag116
aS'19717077'
p886
ag29
ag238
ag13
aS'75623387'
p887
asg60
I1000
sg62
g749
sg64
g146
sg66
I0
sg68
(iread_data
Room
p888
(dp889
g60
g167
sg62
g168
sbsba(ischedule
Activity
p890
(dp891
g8
(lp892
g87
ag140
ag489
ag89
ag40
ag85
asg60
g367
sg62
g92
sg64
g204
sg66
g93
sg68
(iread_data
Room
p893
(dp894
g60
g71
sg62
g72
sbsba(ischedule
Activity
p895
(dp896
g8
(lp897
g343
ag490
aS'10702778'
p898
ag380
ag504
aS'39905995'
p899
ag650
aS'64053722'
p900
ag90
aS'54395877'
p901
ag342
ag829
aS'88263855'
p902
ag13
ag112
ag356
ag686
ag691
ag125
aS'26857113'
p903
ag245
ag79
ag316
asg60
g551
sg62
g552
sg64
g204
sg66
S'5'
p904
sg68
(iread_data
Room
p905
(dp906
g60
g207
sg62
g208
sbsba(ischedule
Activity
p907
(dp908
g8
(lp909
g421
aS'75680261'
p910
ag51
ag735
ag588
ag784
ag455
aS'55480737'
p911
ag52
ag307
ag626
ag630
ag144
ag663
ag141
ag176
ag582
ag884
ag264
asg60
S'15'
p912
sg62
S'Project Genetic Algorithms'
p913
sg64
g204
sg66
g67
sg68
(iread_data
Room
p914
(dp915
g60
g96
sg62
g97
sbsbaa(lp916
(ischedule
Activity
p917
(dp918
g8
(lp919
g781
ag782
ag386
ag379
ag784
ag135
ag331
ag121
ag416
ag435
ag558
ag80
ag777
ag785
ag178
ag76
ag735
ag12
ag270
asg60
S'20'
p920
sg62
g787
sg64
g65
sg66
g67
sg68
(iread_data
Room
p921
(dp922
g60
g228
sg62
g229
sbsba(ischedule
Activity
p923
(dp924
g8
(lp925
g674
ag117
ag328
ag26
ag339
ag687
ag266
ag407
ag689
ag82
ag406
ag693
ag694
ag695
ag681
ag103
ag51
ag692
ag276
ag677
ag457
ag466
ag90
ag685
ag690
ag577
ag235
ag349
ag283
ag683
ag679
ag682
ag667
ag310
ag641
ag675
ag30
ag312
ag198
asg60
S'40'
p926
sg62
g700
sg64
g65
sg66
g93
sg68
(iread_data
Room
p927
(dp928
g60
g71
sg62
g72
sbsba(ischedule
Activity
p929
(dp930
g8
(lp931
g361
ag366
ag489
ag480
ag453
ag362
ag76
ag28
ag82
ag238
ag85
ag140
ag38
ag84
ag356
ag89
ag83
ag326
ag154
ag450
ag40
ag364
ag49
ag357
ag86
ag363
ag80
ag41
ag180
ag35
ag77
ag81
ag358
ag365
ag88
ag87
ag78
ag479
ag359
ag90
ag312
ag360
ag79
ag34
ag466
asg60
I1000
sg62
g92
sg64
g146
sg66
I0
sg68
(iread_data
Room
p932
(dp933
g60
g149
sg62
g150
sbsba(ischedule
Activity
p934
(dp935
g8
(lp936
g80
ag548
ag154
ag435
ag251
ag831
aS'87314964'
p937
aS'68360259'
p938
ag43
aS'93023961'
p939
aS'25330192'
p940
ag129
ag244
ag379
ag365
aS'98780382'
p941
aS'19337738'
p942
aS'97136582'
p943
ag20
ag57
ag885
aS'66122625'
p944
ag506
ag547
ag338
ag839
ag357
asg60
I1000
sg62
g437
sg64
g146
sg66
I0
sg68
(iread_data
Room
p945
(dp946
g60
g167
sg62
g168
sbsba(ischedule
Activity
p947
(dp948
g8
(lp949
g396
ag399
ag36
ag414
ag139
ag413
ag398
ag420
ag404
ag156
ag366
ag308
asg60
g203
sg62
g164
sg64
g204
sg66
g368
sg68
(iread_data
Room
p950
(dp951
g60
g192
sg62
g193
sbsbaaa(lp952
(lp953
(ischedule
Activity
p954
(dp955
g8
(lp956
g379
ag942
ag57
ag506
ag154
ag20
ag941
ag129
ag548
ag943
ag547
ag244
ag839
ag831
ag251
ag938
ag939
ag937
ag43
ag338
ag940
asg60
g436
sg62
g437
sg64
g65
sg66
g67
sg68
(iread_data
Room
p957
(dp958
g60
g71
sg62
g72
sbsba(ischedule
Activity
p959
(dp960
g8
(lp961
g396
ag308
ag36
ag414
ag77
ag182
ag403
ag406
ag422
ag408
ag342
ag416
ag43
ag411
ag418
ag410
ag139
asg60
g163
sg62
g164
sg64
g65
sg66
g368
sg68
(iread_data
Room
p962
(dp963
g60
g192
sg62
g193
sbsba(ischedule
Activity
p964
(dp965
g8
(lp966
g158
ag289
ag123
ag329
ag500
ag451
ag382
ag365
ag330
ag504
asg60
g804
sg62
g507
sg64
g204
sg66
g67
sg68
(iread_data
Room
p967
(dp968
g60
g96
sg62
g97
sbsba(ischedule
Activity
p969
(dp970
g8
(lp971
g154
ag182
ag402
ag419
ag422
ag157
ag172
ag304
ag421
ag406
ag417
ag159
ag409
ag384
ag44
asg60
g203
sg62
g164
sg64
g204
sg66
g93
sg68
(iread_data
Room
p972
(dp973
g60
g207
sg62
g208
sbsba(ischedule
Activity
p974
(dp975
g8
(lp976
g872
ag874
ag53
ag499
ag265
ag47
ag283
ag581
ag416
ag878
ag422
ag253
ag650
ag177
ag880
ag565
ag133
ag385
ag360
ag560
ag266
ag384
ag885
ag887
ag876
ag577
ag404
ag234
ag58
ag41
ag666
ag127
ag884
ag656
ag708
ag886
ag663
ag254
asg60
g748
sg62
g749
sg64
g65
sg66
g93
sg68
(iread_data
Room
p977
(dp978
g60
g149
sg62
g150
sbsba(ischedule
Activity
p979
(dp980
g8
(lp981
g675
ag117
ag677
ag678
ag680
ag26
ag568
ag683
ag685
ag266
ag51
ag283
ag406
ag336
ag615
ag697
ag698
ag78
ag686
ag198
ag520
ag173
ag676
ag235
ag691
ag457
ag699
ag599
ag692
ag523
ag579
ag310
ag693
ag339
ag663
ag577
ag689
ag276
ag160
ag695
ag543
ag82
ag561
ag202
ag407
ag690
ag103
asg60
g855
sg62
g700
sg64
g204
sg66
g93
sg68
(iread_data
Room
p982
(dp983
g60
g167
sg62
g168
sbsba(ischedule
Activity
p984
(dp985
g8
(lp986
S'7386961'
p987
aS'79879876'
p988
ag534
ag311
ag274
ag600
ag252
ag248
ag679
ag681
ag688
ag399
ag452
ag113
ag574
ag154
aS'28943658'
p989
asg60
g551
sg62
g552
sg64
g204
sg66
S'6'
p990
sg68
(iread_data
Room
p991
(dp992
g60
g228
sg62
g229
sbsbaa(lp993
(ischedule
Activity
p994
(dp995
g8
(lp996
g644
aS'67625383'
p997
ag708
ag280
ag678
ag903
ag259
ag255
ag450
ag543
ag157
ag684
ag266
ag764
ag59
ag12
ag57
ag685
ag109
ag833
aS'90067329'
p998
aS'33252501'
p999
asg60
I1000
sg62
S'Machine Learning'
p1000
sg64
g146
sg66
I0
sg68
(iread_data
Room
p1001
(dp1002
g60
g96
sg62
g97
sbsba(ischedule
Activity
p1003
(dp1004
g8
(lp1005
g663
ag173
ag201
ag676
ag520
ag160
ag686
ag579
ag202
ag270
ag332
ag544
ag696
ag543
ag599
ag336
ag78
ag697
ag698
ag561
ag380
ag523
ag684
ag691
ag680
ag699
ag678
ag568
ag688
ag615
asg60
g926
sg62
g700
sg64
g65
sg66
g67
sg68
(iread_data
Room
p1006
(dp1007
g60
g71
sg62
g72
sbsba(ischedule
Activity
p1008
(dp1009
g8
(lp1010
g498
ag107
ag944
aS'97417002'
p1011
ag675
ag49
ag138
ag183
aS'19858730'
p1012
aS'87210640'
p1013
ag112
ag330
ag128
aS'53775014'
p1014
ag396
ag20
aS'20830477'
p1015
aS'14941752'
p1016
ag79
ag780
ag56
ag86
aS'45660925'
p1017
ag500
ag333
aS'76393508'
p1018
ag277
ag598
ag269
ag338
ag387
ag398
ag988
ag236
ag796
ag420
ag238
ag785
ag158
aS'4353500'
p1019
ag618
ag318
ag294
ag411
asg60
I1000
sg62
S'Heuristieken 1'
p1020
sg64
g146
sg66
I0
sg68
(iread_data
Room
p1021
(dp1022
g60
g167
sg62
g168
sbsba(ischedule
Activity
p1023
(dp1024
g8
(lp1025
g264
ag487
ag488
ag303
ag489
ag310
ag247
ag708
ag403
ag12
ag706
ag162
ag55
ag490
ag667
ag572
ag707
ag277
ag486
asg60
g388
sg62
g389
sg64
g65
sg66
g93
sg68
(iread_data
Room
p1026
(dp1027
g60
g149
sg62
g150
sbsba(ischedule
Activity
p1028
(dp1029
g8
(lp1030
g158
ag248
ag499
ag382
ag497
ag504
asg60
S'15'
p1031
sg62
g507
sg64
g65
sg66
g67
sg68
(iread_data
Room
p1032
(dp1033
g60
g192
sg62
g193
sbsbaa(lp1034
(ischedule
Activity
p1035
(dp1036
g8
g936
sg60
I1000
sg62
g437
sg64
g146
sg66
I0
sg68
(iread_data
Room
p1037
(dp1038
g60
g192
sg62
g193
sbsba(ischedule
Activity
p1039
(dp1040
g8
(lp1041
g873
ag56
ag185
ag784
ag877
ag359
ag765
ag879
ag525
ag649
ag200
ag309
ag882
ag699
ag186
ag833
ag263
ag337
ag883
ag356
ag875
ag881
ag257
ag13
ag29
asg60
g748
sg62
g749
sg64
g65
sg66
g368
sg68
(iread_data
Room
p1042
(dp1043
g60
g149
sg62
g150
sbsba(ischedule
Activity
p1044
(dp1045
g8
(lp1046
g329
ag365
ag451
ag505
ag330
ag506
ag289
ag501
ag500
ag502
ag332
ag123
ag498
ag405
ag503
asg60
g1031
sg62
g507
sg64
g65
sg66
g93
sg68
(iread_data
Room
p1047
(dp1048
g60
g228
sg62
g229
sbsba(ischedule
Activity
p1049
(dp1050
g8
(lp1051
g457
ag344
aS'37419523'
p1052
ag82
aS'34691309'
p1053
ag832
aS'63573738'
p1054
ag198
ag25
aS'90103047'
p1055
ag255
ag160
ag693
ag187
ag665
ag698
ag10
ag76
asg60
S'15'
p1056
sg62
S'Project Numerical Recipes'
p1057
sg64
g204
sg66
g93
sg68
(iread_data
Room
p1058
(dp1059
g60
g167
sg62
g168
sbsbaa(lp1060
(ischedule
Activity
p1061
(dp1062
g8
(lp1063
g943
ag103
ag200
ag18
ag578
ag187
ag264
ag17
ag452
ag184
ag413
ag185
asg60
S'20'
p1064
sg62
S'Netwerken en systeembeveiliging'
p1065
sg64
g204
sg66
g368
sg68
(iread_data
Room
p1066
(dp1067
g60
g71
sg62
g72
sbsba(ischedule
Activity
p1068
(dp1069
g8
(lp1070
g399
ag794
ag337
ag103
aS'66570705'
p1071
ag567
ag124
ag360
ag136
ag559
ag27
ag218
ag410
ag349
ag269
ag664
aS'96118484'
p1072
aS'32595335'
p1073
aS'21311067'
p1074
ag597
ag131
aS'16011419'
p1075
aS'62872965'
p1076
ag598
ag244
ag32
ag667
aS'26172512'
p1077
ag238
ag254
ag129
ag156
ag366
ag54
ag260
ag877
ag454
ag406
ag400
aS'79937969'
p1078
ag618
ag141
aS'90743504'
p1079
ag584
aS'34588570'
p1080
ag198
ag545
ag14
ag562
ag125
aS'36508571'
p1081
ag303
aS'54074680'
p1082
aS'80998260'
p1083
asg60
I1000
sg62
S'Lineaire Algebra'
p1084
sg64
g146
sg66
I0
sg68
(iread_data
Room
p1085
(dp1086
g60
g167
sg62
g168
sbsba(ischedule
Activity
p1087
(dp1088
g8
(lp1089
g786
ag783
ag274
ag778
ag105
ag779
ag223
ag764
ag124
ag780
ag21
ag765
ag559
asg60
g920
sg62
g787
sg64
g65
sg66
g93
sg68
(iread_data
Room
p1090
(dp1091
g60
g207
sg62
g208
sbsba(ischedule
Activity
p1092
(dp1093
g8
(lp1094
g202
ag836
ag408
ag681
ag28
asg60
g1056
sg62
g1057
sg64
g204
sg66
g368
sg68
(iread_data
Room
p1095
(dp1096
g60
g192
sg62
g193
sbsba(ischedule
Activity
p1097
(dp1098
g8
(lp1099
g22
ag43
ag400
ag401
ag407
ag160
ag412
ag415
ag77
ag418
ag423
ag341
ag246
ag342
ag223
ag397
ag405
ag410
ag162
ag403
ag161
ag411
ag416
ag158
ag408
asg60
g203
sg62
g164
sg64
g204
sg66
g810
sg68
(iread_data
Room
p1100
(dp1101
g60
g228
sg62
g229
sbsba(ischedule
Activity
p1102
(dp1103
g8
(lp1104
g944
ag885
ag365
ag357
ag80
asg60
g436
sg62
g437
sg64
g65
sg66
g93
sg68
(iread_data
Room
p1105
(dp1106
g60
g96
sg62
g97
sbsba(ischedule
Activity
p1107
(dp1108
g8
(lp1109
g707
ag336
ag706
ag572
ag303
ag386
ag47
ag374
ag667
ag708
asg60
g491
sg62
g389
sg64
g204
sg66
g67
sg68
(iread_data
Room
p1110
(dp1111
g60
g149
sg62
g150
sbsbaa(lp1112
(ischedule
Activity
p1113
(dp1114
g8
g827
sg60
I1000
sg62
g843
sg64
g146
sg66
I0
sg68
(iread_data
Room
p1115
(dp1116
g60
g192
sg62
g193
sbsba(ischedule
Activity
p1117
(dp1118
g8
g655
sg60
I1000
sg62
g668
sg64
g146
sg66
I0
sg68
(iread_data
Room
p1119
(dp1120
g60
g207
sg62
g208
sbsba(ischedule
Activity
p1121
(dp1122
g8
g931
sg60
I1000
sg62
g92
sg64
g146
sg66
I0
sg68
(iread_data
Room
p1123
(dp1124
g60
g96
sg62
g97
sbsba(ischedule
Activity
p1125
(dp1126
g8
(lp1127
g251
ag379
ag942
ag506
ag839
ag885
ag154
ag939
ag941
ag940
ag943
ag338
ag244
ag831
ag435
ag547
asg60
S'10'
p1128
sg62
g437
sg64
g204
sg66
g67
sg68
(iread_data
Room
p1129
(dp1130
g60
g71
sg62
g72
sbsba(ischedule
Activity
p1131
(dp1132
g8
(lp1133
g742
ag27
ag415
ag625
ag201
ag680
ag241
ag106
ag121
ag137
ag587
asg60
g912
sg62
g913
sg64
g204
sg66
g93
sg68
(iread_data
Room
p1134
(dp1135
g60
g167
sg62
g168
sbsba(ischedule
Activity
p1136
(dp1137
g8
(lp1138
g35
ag379
ag568
ag50
ag820
ag410
ag338
ag1081
ag385
ag533
ag543
ag1012
ag330
ag276
ag357
aS'88627897'
p1139
ag1076
ag27
ag720
ag128
ag124
aS'61611295'
p1140
asg60
I1000
sg62
g822
sg64
g146
sg66
I0
sg68
(iread_data
Room
p1141
(dp1142
g60
g149
sg62
g150
sbsba(ischedule
Activity
p1143
(dp1144
g8
g996
sg60
I1000
sg62
g1000
sg64
g146
sg66
I0
sg68
(iread_data
Room
p1145
(dp1146
g60
g228
sg62
g229
sbsbaaa(lp1147
(lp1148
(ischedule
Activity
p1149
(dp1150
g8
(lp1151
g57
aS'5590289'
p1152
ag1019
ag42
ag358
aS'535689'
p1153
ag586
ag306
ag693
ag277
ag480
ag111
ag181
ag874
ag1054
ag202
ag23
aS'19058315'
p1154
ag121
ag328
asg60
g1064
sg62
g1065
sg64
g204
sg66
g93
sg68
(iread_data
Room
p1155
(dp1156
g60
g149
sg62
g150
sbsba(ischedule
Activity
p1157
(dp1158
g8
g1070
sg60
I1000
sg62
g1084
sg64
g146
sg66
I0
sg68
(iread_data
Room
p1159
(dp1160
g60
g96
sg62
g97
sbsba(ischedule
Activity
p1161
(dp1162
g8
(lp1163
g377
asg60
g632
sg62
g633
sg64
g204
sg66
g368
sg68
(iread_data
Room
p1164
(dp1165
g60
g207
sg62
g208
sbsba(ischedule
Activity
p1166
(dp1167
g8
(lp1168
g50
ag596
ag49
ag51
ag37
ag47
ag39
ag597
ag59
ag601
ag398
ag220
ag160
ag599
ag48
ag23
ag600
ag27
ag240
ag276
ag18
ag25
ag12
ag22
ag58
ag26
ag32
ag222
ag598
ag21
ag17
ag375
ag16
asg60
g536
sg62
g63
sg64
g204
sg66
g93
sg68
(iread_data
Room
p1169
(dp1170
g60
g167
sg62
g168
sbsba(ischedule
Activity
p1171
(dp1172
g8
(lp1173
g1139
asg60
g821
sg62
g822
sg64
g65
sg66
g368
sg68
(iread_data
Room
p1174
(dp1175
g60
g71
sg62
g72
sbsba(ischedule
Activity
p1176
(dp1177
g8
(lp1178
g832
ag417
ag664
ag359
ag48
ag51
ag840
ag829
ag452
ag15
ag835
ag282
ag838
ag141
asg60
S'20'
p1179
sg62
g843
sg64
g65
sg66
g93
sg68
(iread_data
Room
p1180
(dp1181
g60
g192
sg62
g193
sbsbaa(lp1182
(ischedule
Activity
p1183
(dp1184
g8
g1138
sg60
I1000
sg62
g822
sg64
g146
sg66
I0
sg68
(iread_data
Room
p1185
(dp1186
g60
g96
sg62
g97
sbsba(ischedule
Activity
p1187
(dp1188
g8
(lp1189
g687
ag185
ag1153
ag48
ag796
asg60
g632
sg62
g633
sg64
g204
sg66
g93
sg68
(iread_data
Room
p1190
(dp1191
g60
g228
sg62
g229
sbsba(ischedule
Activity
p1192
(dp1193
g8
(lp1194
g83
ag831
ag270
ag363
ag574
ag841
ag105
ag380
ag137
ag500
ag569
ag102
ag842
ag408
ag839
ag188
ag181
ag132
ag830
asg60
g1179
sg62
g843
sg64
g65
sg66
g368
sg68
(iread_data
Room
p1195
(dp1196
g60
g167
sg62
g168
sbsba(ischedule
Activity
p1197
(dp1198
g8
(lp1199
g383
ag560
ag567
ag569
ag380
ag570
ag181
ag301
ag572
ag576
ag577
ag374
ag580
ag581
ag583
ag586
ag574
ag543
ag561
ag587
ag341
ag387
ag403
ag504
ag584
ag114
ag135
ag568
ag315
ag582
ag533
ag410
ag589
asg60
S'40'
p1200
sg62
g590
sg64
g65
sg66
g93
sg68
(iread_data
Room
p1201
(dp1202
g60
g71
sg62
g72
sbsba(ischedule
Activity
p1203
(dp1204
g8
(lp1205
g641
ag642
ag583
ag524
ag649
ag417
ag523
ag644
ag89
ag375
ag248
ag21
ag522
ag520
ag58
ag525
ag158
ag30
ag615
asg60
g459
sg62
g460
sg64
g65
sg66
g368
sg68
(iread_data
Room
p1206
(dp1207
g60
g192
sg62
g193
sbsba(ischedule
Activity
p1208
(dp1209
g8
(lp1210
g106
ag559
ag562
ag131
ag304
ag571
ag573
ag87
ag406
ag413
ag579
ag215
ag243
ag408
ag585
ag366
ag361
ag575
ag566
ag139
ag79
ag558
ag177
ag417
ag565
ag379
ag564
ag142
ag86
ag118
ag199
ag127
ag578
ag84
ag563
ag588
ag453
ag333
ag248
asg60
g1200
sg62
g590
sg64
g65
sg66
g67
sg68
(iread_data
Room
p1211
(dp1212
g60
g149
sg62
g150
sbsba(ischedule
Activity
p1213
(dp1214
g8
(lp1215
g565
aS'63939720'
p1216
aS'40911986'
p1217
aS'81116418'
p1218
ag1016
ag660
ag435
aS'19662602'
p1219
ag183
aS'32183908'
p1220
ag77
ag875
ag140
ag310
ag548
ag584
ag254
aS'21070547'
p1221
ag577
ag349
ag50
asg60
g1056
sg62
g1057
sg64
g204
sg66
g67
sg68
(iread_data
Room
p1222
(dp1223
g60
g207
sg62
g208
sbsbaa(lp1224
(ischedule
Activity
p1225
(dp1226
g8
(lp1227
g20
ag1016
ag780
ag86
ag338
ag944
ag138
ag675
ag294
ag387
ag1014
ag1019
ag498
ag49
ag1018
ag318
ag1011
ag107
ag236
ag277
ag333
ag56
asg60
S'25'
p1228
sg62
g1020
sg64
g65
sg66
g67
sg68
(iread_data
Room
p1229
(dp1230
g60
g149
sg62
g150
sbsba(ischedule
Activity
p1231
(dp1232
g8
g395
sg60
I1000
sg62
g164
sg64
g146
sg66
I0
sg68
(iread_data
Room
p1233
(dp1234
g60
g167
sg62
g168
sbsba(ischedule
Activity
p1235
(dp1236
g8
(lp1237
g333
ag21
ag644
ag158
ag647
ag456
ag419
ag30
ag641
ag396
ag452
ag449
ag649
ag642
ag454
ag248
ag106
ag417
ag58
ag89
ag615
ag648
ag646
ag457
ag253
ag455
ag643
ag453
asg60
g526
sg62
g460
sg64
g204
sg66
g93
sg68
(iread_data
Room
p1238
(dp1239
g60
g207
sg62
g208
sbsba(ischedule
Activity
p1240
(dp1241
g8
(lp1242
g50
ag421
ag479
ag10
ag596
ag11
ag49
ag12
ag129
ag13
ag54
ag14
ag51
ag15
ag37
ag16
ag45
ag17
ag47
ag276
ag40
ag18
ag534
ag19
ag56
ag600
ag39
ag535
ag44
ag20
ag43
ag375
ag597
ag55
ag222
ag21
ag59
ag57
ag413
ag240
ag38
ag22
ag601
ag23
ag334
ag24
ag398
ag25
ag116
ag26
ag46
ag27
ag108
ag28
ag128
ag53
ag220
ag29
ag598
ag30
ag36
ag31
ag42
ag533
ag160
ag32
ag599
ag33
ag52
ag58
ag41
ag34
ag48
ag35
ag82
asg60
I1000
sg62
g63
sg64
g146
sg66
I0
sg68
(iread_data
Room
p1243
(dp1244
g60
g71
sg62
g72
sbsba(ischedule
Activity
p1245
(dp1246
g8
(lp1247
g35
ag124
ag410
ag276
ag568
ag720
ag330
ag1076
ag1140
ag128
ag543
ag27
ag385
ag357
ag533
ag1081
ag1012
ag338
asg60
g821
sg62
g822
sg64
g65
sg66
g67
sg68
(iread_data
Room
p1248
(dp1249
g60
g96
sg62
g97
sbsba(ischedule
Activity
p1250
(dp1251
g8
(lp1252
g80
ag365
ag129
asg60
g1128
sg62
g437
sg64
g204
sg66
g93
sg68
(iread_data
Room
p1253
(dp1254
g60
g192
sg62
g193
sbsbaa(lp1255
(ischedule
Activity
p1256
(dp1257
g8
(lp1258
g1012
ag128
ag79
ag1017
ag269
ag988
ag796
ag785
ag598
ag420
ag1015
ag238
ag158
ag500
ag1013
ag411
ag396
ag183
ag330
ag618
ag112
ag398
asg60
g1228
sg62
g1020
sg64
g65
sg66
g93
sg68
(iread_data
Room
p1259
(dp1260
g60
g96
sg62
g97
sbsba(ischedule
Activity
p1261
(dp1262
g8
(lp1263
S'16912993'
p1264
aS'64246605'
p1265
ag456
ag546
aS'12170832'
p1266
aS'59887191'
p1267
ag77
ag667
ag420
ag123
aS'123355'
p1268
ag137
ag403
ag662
aS'25557516'
p1269
ag260
ag940
ag265
asg60
g1064
sg62
g1065
sg64
g204
sg66
g67
sg68
(iread_data
Room
p1270
(dp1271
g60
g228
sg62
g229
sbsba(ischedule
Activity
p1272
(dp1273
g8
(lp1274
g43
ag938
ag20
ag57
ag548
ag937
ag944
ag357
asg60
g1128
sg62
g437
sg64
g204
sg66
g368
sg68
(iread_data
Room
p1275
(dp1276
g60
g192
sg62
g193
sbsba(ischedule
Activity
p1277
(dp1278
g8
g931
sg60
I1000
sg62
g92
sg64
g146
sg66
I0
sg68
(iread_data
Room
p1279
(dp1280
g60
g71
sg62
g72
sbsba(ischedule
Activity
p1281
(dp1282
g8
(lp1283
g543
ag1076
ag1140
ag276
ag533
ag128
asg60
g866
sg62
g822
sg64
g204
sg66
g67
sg68
(iread_data
Room
p1284
(dp1285
g60
g167
sg62
g168
sbsba(ischedule
Activity
p1286
(dp1287
g8
g395
sg60
I1000
sg62
g164
sg64
g146
sg66
I0
sg68
(iread_data
Room
p1288
(dp1289
g60
g149
sg62
g150
sbsba(ischedule
Activity
p1290
(dp1291
g8
(lp1292
g287
ag466
ag629
ag59
ag624
ag708
asg60
g912
sg62
g913
sg64
g204
sg66
g368
sg68
(iread_data
Room
p1293
(dp1294
g60
g207
sg62
g208
sbsbaa(lp1295
(ischedule
Activity
p1296
(dp1297
g8
(lp1298
g50
ag330
ag1139
ag720
ag1012
ag124
ag27
ag385
ag410
ag379
ag1081
ag35
ag568
ag357
ag820
asg60
g866
sg62
g822
sg64
g204
sg66
g93
sg68
(iread_data
Room
p1299
(dp1300
g60
g71
sg62
g72
sbsba(ischedule
Activity
p1301
(dp1302
g8
(lp1303
g643
ag220
ag647
ag106
ag243
ag332
ag648
ag519
ag646
ag333
ag199
ag645
ag410
ag521
ag383
ag275
ag518
ag650
ag107
ag326
ag419
asg60
g459
sg62
g460
sg64
g65
sg66
g93
sg68
(iread_data
Room
p1304
(dp1305
g60
g207
sg62
g208
sbsba(ischedule
Activity
p1306
(dp1307
g8
g300
sg60
I1000
sg62
g225
sg64
g146
sg66
I0
sg68
(iread_data
Room
p1308
(dp1309
g60
g192
sg62
g193
sbsba(ischedule
Activity
p1310
(dp1311
g8
(lp1312
g418
ag781
ag1015
aS'51791169'
p1313
ag518
ag405
ag644
ag741
aS'73893840'
p1314
ag213
ag664
ag262
ag244
ag583
ag223
ag498
ag739
aS'73196865'
p1315
asg60
g551
sg62
g552
sg64
g204
sg66
g810
sg68
(iread_data
Room
p1316
(dp1317
g60
g167
sg62
g168
sbsba(ischedule
Activity
p1318
(dp1319
g8
(lp1320
g404
ag118
ag241
ag80
ag573
ag435
ag589
aS'53267490'
p1321
ag294
ag738
ag544
ag387
ag330
ag85
asg60
g1064
sg62
g1065
sg64
g204
sg66
g810
sg68
(iread_data
Room
p1322
(dp1323
g60
g96
sg62
g97
sbsba(ischedule
Activity
p1324
(dp1325
g8
(lp1326
g828
ag326
ag837
ag338
ag115
ag242
ag255
ag455
ag786
ag518
ag306
ag834
ag836
ag184
ag833
ag128
ag280
ag108
asg60
g1179
sg62
g843
sg64
g65
sg66
g67
sg68
(iread_data
Room
p1327
(dp1328
g60
g228
sg62
g229
sbsba(ischedule
Activity
p1329
(dp1330
g8
g792
sg60
I1000
sg62
g797
sg64
g146
sg66
I0
sg68
(iread_data
Room
p1331
(dp1332
g60
g149
sg62
g150
sbsbaaa(lp1333
(lp1334
a(lp1335
a(lp1336
a(lp1337
a(lp1338
aasS'timeslot_dict'
p1339
(dp1340
I0
S'9:00-11:00'
p1341
sI1
S'11:00-13:00'
p1342
sI2
S'13:00-15:00'
p1343
sI3
S'15:00-17:00'
p1344
sI4
S'17:00-19:00'
p1345
ssS'day_dict'
p1346
(dp1347
I0
S'Monday'
p1348
sI1
S'Tuesday'
p1349
sI2
S'Wednesday'
p1350
sI3
S'Thursday'
p1351
sI4
S'Friday'
p1352
ssb.