(ischedule
Schedule
p0
(dp1
S'timetable'
p2
(lp3
(lp4
(lp5
(ischedule
Activity
p6
(dp7
S'participants'
p8
(lp9
S'77240949'
p10
aS'62701040'
p11
aS'50184318'
p12
aS'61443567'
p13
aS'50143947'
p14
aS'15902055'
p15
aS'24277163'
p16
aS'86291592'
p17
aS'65960683'
p18
aS'5517869'
p19
aS'60312776'
p20
aS'9332762'
p21
aS'43027916'
p22
aS'37770881'
p23
aS'73980360'
p24
aS'68601184'
p25
aS'57595888'
p26
aS'45556081'
p27
aS'96104167'
p28
aS'97135019'
p29
aS'17575088'
p30
aS'75521763'
p31
aS'3233378'
p32
aS'48601268'
p33
aS'25106480'
p34
aS'13534377'
p35
aS'29474737'
p36
aS'7308727'
p37
aS'1075391'
p38
aS'64228258'
p39
aS'72577292'
p40
aS'64296965'
p41
aS'76123484'
p42
aS'34773179'
p43
aS'21964491'
p44
aS'23547619'
p45
aS'4783858'
p46
aS'42196732'
p47
aS'87758823'
p48
aS'13092455'
p49
aS'35330349'
p50
aS'17222374'
p51
aS'22699561'
p52
aS'29640619'
p53
aS'33760909'
p54
aS'1696500'
p55
aS'58522654'
p56
aS'28357474'
p57
aS'1665980'
p58
aS'54310617'
p59
aS'46052388'
p60
aS'42171678'
p61
aS'31416266'
p62
aS'42778953'
p63
aS'64393888'
p64
aS'53107172'
p65
aS'51741554'
p66
aS'26406342'
p67
aS'77896638'
p68
aS'82689818'
p69
aS'86000192'
p70
asS'capacity'
p71
I1000
sS'name'
p72
S'Collectieve Intelligentie'
p73
sS'ttype'
p74
S'lectures'
p75
sS'group_id'
p76
I0
sS'room'
p77
(iread_data
Room
p78
(dp79
g71
S'117'
p80
sg72
S'C0.110'
p81
sbsba(ischedule
Activity
p82
(dp83
g8
(lp84
g40
ag45
aS'28618400'
p85
aS'75997788'
p86
aS'62613937'
p87
aS'72683344'
p88
aS'39429093'
p89
aS'27064249'
p90
aS'1886996'
p91
aS'47477884'
p92
aS'92665222'
p93
aS'20883994'
p94
aS'40633534'
p95
aS'14847953'
p96
aS'70844780'
p97
aS'86807027'
p98
aS'60352393'
p99
aS'3168419'
p100
aS'72665524'
p101
aS'78136904'
p102
asg71
I1000
sg72
S'Advanced Heuristics'
p103
sg74
g75
sg76
I0
sg77
(iread_data
Room
p104
(dp105
g71
S'48'
p106
sg72
S'B0.201'
p107
sbsba(ischedule
Activity
p108
(dp109
g8
(lp110
S'87900893'
p111
aS'13116738'
p112
aS'13996448'
p113
aS'17823206'
p114
aS'68360259'
p115
aS'66122625'
p116
aS'98780382'
p117
asg71
S'10'
p118
sg72
S'Data Mining'
p119
sg74
S'labs'
p120
sg76
S'2'
p121
sg77
(iread_data
Room
p122
(dp123
g71
S'56'
p124
sg72
S'A1.10'
p125
sbsba(ischedule
Activity
p126
(dp127
g8
(lp128
S'62105897'
p129
aS'48357272'
p130
aS'96554914'
p131
aS'26260141'
p132
aS'3727435'
p133
aS'52552718'
p134
aS'11068043'
p135
aS'89180944'
p136
aS'95631564'
p137
aS'11915563'
p138
aS'62356458'
p139
aS'1048485'
p140
aS'45915482'
p141
aS'37830626'
p142
aS'58074656'
p143
aS'27950803'
p144
aS'9287708'
p145
aS'37744525'
p146
aS'52311353'
p147
aS'42115591'
p148
aS'61060652'
p149
aS'22323043'
p150
aS'52715680'
p151
aS'41527759'
p152
aS'89985072'
p153
aS'14309255'
p154
aS'88176729'
p155
aS'70015932'
p156
aS'40343779'
p157
aS'33877725'
p158
asg71
S'40'
p159
sg72
S'Software engineering'
p160
sg74
g120
sg76
g121
sg77
(iread_data
Room
p161
(dp162
g71
S'41'
p163
sg72
S'A1.04'
p164
sbsba(ischedule
Activity
p165
(dp166
g8
(lp167
S'30658799'
p168
aS'49219163'
p169
aS'78243495'
p170
aS'27916487'
p171
aS'18144425'
p172
aS'99283252'
p173
aS'29526540'
p174
aS'43680781'
p175
aS'77376714'
p176
aS'68315599'
p177
ag16
asg71
S'20'
p178
sg72
S'Moderne Databases'
p179
sg74
S'tutorials'
p180
sg76
S'1'
p181
sg77
(iread_data
Room
p182
(dp183
g71
S'22'
p184
sg72
S'A1.06'
p185
sbsba(ischedule
Activity
p186
(dp187
g8
(lp188
S'47260040'
p189
aS'53585410'
p190
aS'51472074'
p191
aS'99272880'
p192
aS'74361881'
p193
aS'5085194'
p194
asg71
S'15'
p195
sg72
S'Compilerbouw practicum'
p196
sg74
g120
sg76
g181
sg77
(iread_data
Room
p197
(dp198
g71
S'20'
p199
sg72
S'A1.08'
p200
sbsbaa(lp201
(ischedule
Activity
p202
(dp203
g8
(lp204
S'29718115'
p205
aS'13658563'
p206
aS'19958553'
p207
aS'36748818'
p208
aS'11459236'
p209
aS'17496687'
p210
ag11
ag177
ag31
aS'8557857'
p211
ag112
asg71
S'15'
p212
sg72
S'Informatie- en organsatieontwerp'
p213
sg74
g180
sg76
g121
sg77
(iread_data
Room
p214
(dp215
g71
g163
sg72
g164
sbsba(ischedule
Activity
p216
(dp217
g8
(lp218
S'36903574'
p219
aS'37279234'
p220
aS'23983476'
p221
aS'94687383'
p222
ag62
ag44
aS'45414528'
p223
aS'23658570'
p224
aS'51593625'
p225
aS'28943658'
p226
aS'12782624'
p227
aS'4709948'
p228
aS'4921119'
p229
aS'85284256'
p230
aS'20830477'
p231
aS'26857113'
p232
aS'63111000'
p233
aS'88519892'
p234
aS'88263855'
p235
ag64
aS'58332004'
p236
aS'94467156'
p237
aS'22288615'
p238
ag113
aS'70072978'
p239
aS'23257088'
p240
aS'44671041'
p241
aS'55474917'
p242
aS'93566383'
p243
asg71
S'20'
p244
sg72
S'Programmeren in Java 2'
p245
sg74
g120
sg76
g121
sg77
(iread_data
Room
p246
(dp247
g71
g106
sg72
g107
sbsba(ischedule
Activity
p248
(dp249
g8
(lp250
g28
ag53
ag45
ag33
ag57
ag24
ag25
ag12
ag41
ag70
ag10
ag23
ag65
ag30
ag37
ag17
ag38
ag58
ag16
ag32
ag19
ag68
asg71
S'20'
p251
sg72
g73
sg74
g180
sg76
g181
sg77
(iread_data
Room
p252
(dp253
g71
g184
sg72
g185
sbsba(ischedule
Activity
p254
(dp255
g8
(lp256
S'37110913'
p257
aS'34806836'
p258
aS'62872965'
p259
aS'22871048'
p260
aS'39459642'
p261
aS'27298319'
p262
aS'61611295'
p263
aS'36508571'
p264
aS'72796858'
p265
asg71
S'10'
p266
sg72
S'Autonomous Agents 2'
p267
sg74
g180
sg76
g121
sg77
(iread_data
Room
p268
(dp269
g71
g124
sg72
g125
sbsba(ischedule
Activity
p270
(dp271
g8
(lp272
S'56815156'
p273
aS'4568018'
p274
ag47
aS'14591033'
p275
ag37
aS'14816774'
p276
aS'74131924'
p277
aS'247918'
p278
aS'6723948'
p279
ag158
aS'24613625'
p280
ag155
aS'64600457'
p281
aS'33930505'
p282
aS'5298748'
p283
ag94
aS'44868097'
p284
aS'22826928'
p285
aS'96054456'
p286
aS'77831658'
p287
aS'30195935'
p288
ag135
aS'59544049'
p289
ag174
ag56
aS'6913074'
p290
ag175
ag100
asg71
S'20'
p291
sg72
S'Bioinformatica'
p292
sg74
g180
sg76
g121
sg77
(iread_data
Room
p293
(dp294
g71
S'60'
p295
sg72
S'C1.112'
p296
sbsba(ischedule
Activity
p297
(dp298
g8
(lp299
S'66120270'
p300
aS'15051051'
p301
aS'53202517'
p302
aS'81200278'
p303
ag153
aS'85335143'
p304
aS'56749879'
p305
aS'30050930'
p306
aS'21029457'
p307
aS'22731474'
p308
aS'70878567'
p309
aS'54026378'
p310
aS'79617364'
p311
aS'28359697'
p312
asg71
g291
sg72
g292
sg74
g180
sg76
g181
sg77
(iread_data
Room
p313
(dp314
g71
g199
sg72
g200
sbsba(ischedule
Activity
p315
(dp316
g8
(lp317
S'14138904'
p318
aS'55103073'
p319
aS'64418623'
p320
ag101
aS'38499176'
p321
ag274
ag67
asg71
g195
sg72
g196
sg74
g120
sg76
g121
sg77
(iread_data
Room
p322
(dp323
g71
g80
sg72
g81
sbsbaa(lp324
(ischedule
Activity
p325
(dp326
g8
(lp327
S'1766560'
p328
ag20
ag261
aS'75599734'
p329
ag222
aS'79167252'
p330
aS'31194811'
p331
aS'75664412'
p332
aS'44391517'
p333
aS'48308205'
p334
aS'10792879'
p335
aS'79033175'
p336
ag68
aS'34110913'
p337
aS'13284244'
p338
ag63
aS'76802764'
p339
ag177
aS'73236988'
p340
aS'80135353'
p341
aS'98105190'
p342
aS'84524083'
p343
ag280
ag23
aS'75759231'
p344
aS'48503689'
p345
ag56
aS'49683101'
p346
aS'34872117'
p347
aS'8464817'
p348
aS'46989508'
p349
aS'27187154'
p350
aS'40791377'
p351
aS'88752563'
p352
aS'34243356'
p353
aS'65852230'
p354
ag18
aS'88636924'
p355
aS'13911001'
p356
aS'83266686'
p357
aS'95007221'
p358
aS'2079771'
p359
aS'66701209'
p360
aS'15911353'
p361
aS'72895450'
p362
aS'11741347'
p363
ag154
aS'86988337'
p364
ag138
ag93
ag137
aS'88855695'
p365
ag168
aS'54772132'
p366
ag302
ag265
aS'7957843'
p367
aS'43689934'
p368
aS'81385263'
p369
aS'5368702'
p370
aS'12077419'
p371
aS'76661016'
p372
aS'2317551'
p373
aS'9067939'
p374
ag279
aS'5595824'
p375
ag144
ag17
aS'3407554'
p376
asg71
I1000
sg72
S'Compilerbouw'
p377
sg74
g75
sg76
I0
sg77
(iread_data
Room
p378
(dp379
g71
g80
sg72
g81
sbsba(ischedule
Activity
p380
(dp381
g8
(lp382
g277
ag305
ag278
aS'96453361'
p383
ag283
ag44
ag301
ag285
ag276
ag288
ag290
ag94
ag273
ag47
ag307
ag303
ag308
ag100
ag311
ag135
ag284
ag158
ag280
ag281
ag56
ag309
ag279
ag174
ag282
ag275
ag37
ag287
ag289
ag302
ag286
ag153
ag312
asg71
S'20'
p384
sg72
g292
sg74
g120
sg76
g181
sg77
(iread_data
Room
p385
(dp386
g71
g106
sg72
g107
sbsba(ischedule
Activity
p387
(dp388
g8
(lp389
g304
ag19
ag31
aS'58699305'
p390
aS'48198668'
p391
ag228
aS'83415514'
p392
aS'41489515'
p393
ag136
aS'36527838'
p394
aS'11996292'
p395
aS'3883025'
p396
asg71
g178
sg72
g179
sg74
g180
sg76
S'3'
p397
sg77
(iread_data
Room
p398
(dp399
g71
g163
sg72
g164
sbsba(ischedule
Activity
p400
(dp401
g8
(lp402
g289
asg71
S'40'
p403
sg72
g160
sg74
g180
sg76
g181
sg77
(iread_data
Room
p404
(dp405
g71
g184
sg72
g185
sbsba(ischedule
Activity
p406
(dp407
g8
(lp408
S'670011'
p409
aS'7106649'
p410
aS'5739011'
p411
aS'83869542'
p412
aS'85236626'
p413
aS'27925117'
p414
aS'81022997'
p415
aS'16097870'
p416
aS'35315956'
p417
aS'5976174'
p418
aS'51566595'
p419
aS'82968410'
p420
aS'58040377'
p421
asg71
S'20'
p422
sg72
S'Heuristieken 2'
p423
sg74
g180
sg76
g181
sg77
(iread_data
Room
p424
(dp425
g71
g295
sg72
g296
sbsba(ischedule
Activity
p426
(dp427
g8
(lp428
g55
asg71
S'20'
p429
sg72
g73
sg74
g120
sg76
g181
sg77
(iread_data
Room
p430
(dp431
g71
g199
sg72
g200
sbsbaa(lp432
(ischedule
Activity
p433
(dp434
g8
(lp435
g242
aS'91196968'
p436
ag286
aS'69086548'
p437
aS'23798155'
p438
ag335
aS'20239127'
p439
aS'8522855'
p440
aS'59075181'
p441
ag10
aS'37498675'
p442
aS'76924297'
p443
aS'63634350'
p444
aS'7492204'
p445
aS'72547110'
p446
aS'18266644'
p447
aS'3685034'
p448
aS'61518436'
p449
aS'54569540'
p450
aS'9731271'
p451
ag138
aS'38329455'
p452
aS'77636749'
p453
aS'74182182'
p454
ag94
aS'46570285'
p455
ag152
aS'31247305'
p456
ag56
aS'5615125'
p457
aS'31633723'
p458
ag370
aS'47462856'
p459
ag305
aS'58469172'
p460
aS'39659121'
p461
aS'81218347'
p462
ag102
ag219
aS'39230359'
p463
aS'39919665'
p464
aS'97019450'
p465
aS'10872825'
p466
ag353
aS'44940353'
p467
aS'41585485'
p468
aS'63955238'
p469
ag275
aS'23391676'
p470
ag343
aS'79366078'
p471
aS'89338938'
p472
ag192
ag114
aS'79858178'
p473
aS'47605891'
p474
ag59
aS'14671406'
p475
aS'34262212'
p476
aS'56988998'
p477
aS'94955328'
p478
aS'51186803'
p479
ag308
aS'65003379'
p480
aS'63408522'
p481
aS'24875739'
p482
aS'97371272'
p483
ag236
aS'51542218'
p484
ag41
ag321
aS'84110134'
p485
ag237
ag148
ag350
ag289
aS'14398123'
p486
aS'20331158'
p487
aS'82688900'
p488
aS'91139627'
p489
aS'32705005'
p490
aS'28957789'
p491
aS'49631542'
p492
aS'78735049'
p493
asg71
I1000
sg72
S'Kansrekenen 2'
p494
sg74
g75
sg76
I0
sg77
(iread_data
Room
p495
(dp496
g71
g80
sg72
g81
sbsba(ischedule
Activity
p497
(dp498
g8
(lp499
S'56121590'
p500
aS'57467488'
p501
ag228
aS'48678993'
p502
aS'87830198'
p503
ag66
aS'97136582'
p504
ag396
ag17
aS'62736669'
p505
ag451
ag367
aS'19058315'
p506
aS'44901052'
p507
ag440
ag369
aS'53267490'
p508
ag140
ag230
aS'77392404'
p509
ag99
ag146
ag157
aS'64246605'
p510
ag55
ag441
aS'70939718'
p511
aS'21677389'
p512
ag332
ag53
asg71
S'20'
p513
sg72
S'Netwerken en systeembeveiliging'
p514
sg74
g120
sg76
S'4'
p515
sg77
(iread_data
Room
p516
(dp517
g71
g124
sg72
g125
sbsba(ischedule
Activity
p518
(dp519
g8
(lp520
S'88627897'
p521
ag260
ag19
ag259
ag416
ag264
ag265
ag261
aS'19858730'
p522
aS'68409833'
p523
ag139
ag263
ag257
ag258
ag138
ag277
ag262
ag134
ag507
aS'70113753'
p524
ag310
ag419
asg71
I1000
sg72
g267
sg74
g75
sg76
I0
sg77
(iread_data
Room
p525
(dp526
g71
g184
sg72
g185
sbsba(ischedule
Activity
p527
(dp528
g8
(lp529
g98
ag485
aS'14941752'
p530
ag49
ag454
aS'75005528'
p531
aS'42406214'
p532
ag345
aS'32183908'
p533
aS'40911986'
p534
ag287
ag63
ag85
aS'2550487'
p535
ag20
ag415
ag308
aS'21070547'
p536
asg71
S'15'
p537
sg72
S'Project Numerical Recipes'
p538
sg74
g120
sg76
g397
sg77
(iread_data
Room
p539
(dp540
g71
g199
sg72
g200
sbsba(ischedule
Activity
p541
(dp542
g8
(lp543
S'63573738'
p544
aS'37419523'
p545
ag340
ag362
ag328
ag352
ag472
aS'6939933'
p546
aS'81116418'
p547
aS'34691309'
p548
asg71
g537
sg72
g538
sg74
g120
sg76
g121
sg77
(iread_data
Room
p549
(dp550
g71
g163
sg72
g164
sbsbaa(lp551
(ischedule
Activity
p552
(dp553
g8
(lp554
g57
ag46
ag145
aS'82872148'
p555
aS'80709893'
p556
aS'43460038'
p557
ag158
ag225
ag130
ag14
aS'41153310'
p558
ag170
ag289
ag148
ag157
ag131
ag284
ag34
aS'27582862'
p559
aS'4546613'
p560
ag137
ag135
ag458
ag132
ag136
ag329
aS'73302736'
p561
ag241
ag237
aS'65408517'
p562
aS'83210352'
p563
aS'14072826'
p564
ag134
ag20
ag141
ag33
ag173
ag147
ag151
aS'58565406'
p565
ag32
ag472
ag140
aS'21095566'
p566
ag274
ag139
ag133
ag523
ag149
aS'65318664'
p567
ag138
ag260
ag310
ag150
ag142
ag485
ag340
ag152
aS'78443067'
p568
ag154
aS'31103066'
p569
ag456
ag146
ag153
ag53
ag242
ag418
aS'13718298'
p570
ag475
ag143
ag176
ag129
ag155
ag156
ag144
asg71
I1000
sg72
g160
sg74
g75
sg76
I0
sg77
(iread_data
Room
p571
(dp572
g71
g80
sg72
g81
sbsba(ischedule
Activity
p573
(dp574
g8
(lp575
g370
ag512
ag243
ag303
ag369
aS'19214659'
p576
ag535
aS'20374340'
p577
aS'44828429'
p578
aS'64768422'
p579
ag560
aS'37399898'
p580
ag45
aS'65675896'
p581
ag96
aS'3707829'
p582
aS'69634191'
p583
aS'37701751'
p584
ag443
aS'38179241'
p585
aS'28055464'
p586
aS'66034145'
p587
ag372
aS'34765676'
p588
aS'81155296'
p589
asg71
I1000
sg72
S'Interactie-ontwerp'
p590
sg74
g75
sg76
I0
sg77
(iread_data
Room
p591
(dp592
g71
g295
sg72
g296
sbsba(ischedule
Activity
p593
(dp594
g8
(lp595
g206
ag31
ag207
ag507
ag453
ag112
ag209
aS'92977271'
p596
ag447
ag236
ag208
ag205
ag221
ag309
ag211
ag11
ag177
aS'32204977'
p597
ag210
ag240
aS'75585647'
p598
asg71
I1000
sg72
g213
sg74
g75
sg76
I0
sg77
(iread_data
Room
p599
(dp600
g71
g124
sg72
g125
sbsba(ischedule
Activity
p601
(dp602
g8
(lp603
g304
ag175
aS'40434933'
p604
ag437
ag177
ag395
ag483
aS'93041523'
p605
ag453
ag45
aS'47982619'
p606
ag410
ag597
aS'6249823'
p607
aS'14383795'
p608
aS'10149535'
p609
ag371
ag257
ag154
aS'36785409'
p610
aS'21192048'
p611
ag565
ag472
aS'41578612'
p612
aS'77264363'
p613
aS'92496780'
p614
ag31
ag21
aS'4697362'
p615
ag150
ag332
ag334
aS'76487754'
p616
aS'70336464'
p617
ag331
aS'12430748'
p618
ag507
ag67
asg71
I1000
sg72
S'Technology for games'
p619
sg74
g75
sg76
I0
sg77
(iread_data
Room
p620
(dp621
g71
g163
sg72
g164
sbsba(ischedule
Activity
p622
(dp623
g8
(lp624
g308
ag588
aS'58736785'
p625
aS'72652638'
p626
ag91
ag22
aS'99975346'
p627
ag13
aS'31897288'
p628
aS'87602030'
p629
aS'52304977'
p630
ag343
aS'57086672'
p631
ag444
ag303
ag502
ag54
aS'15249775'
p632
ag170
asg71
g422
sg72
g423
sg74
g180
sg76
g121
sg77
(iread_data
Room
p633
(dp634
g71
g184
sg72
g185
sbsba(ischedule
Activity
p635
(dp636
g8
(lp637
g19
ag522
ag419
ag416
asg71
g266
sg72
g267
sg74
g180
sg76
g181
sg77
(iread_data
Room
p638
(dp639
g71
g106
sg72
g107
sbsbaaa(lp640
(lp641
(ischedule
Activity
p642
(dp643
g8
(lp644
g409
aS'12091019'
p645
aS'73823548'
p646
aS'47932106'
p647
ag67
ag69
ag51
aS'78821918'
p648
aS'94686490'
p649
ag229
ag584
ag500
ag349
ag352
ag412
aS'43902015'
p650
aS'77960666'
p651
aS'59397895'
p652
ag236
aS'90474003'
p653
aS'4529208'
p654
aS'15187217'
p655
aS'17092717'
p656
ag224
aS'40141996'
p657
ag239
aS'27123462'
p658
ag505
ag347
ag261
aS'26207525'
p659
aS'58592894'
p660
ag484
ag22
ag99
aS'58083680'
p661
ag19
ag604
ag265
aS'91527663'
p662
ag501
ag134
aS'64947290'
p663
ag531
ag492
ag16
ag42
ag194
ag276
aS'72456780'
p664
ag53
ag41
aS'5526560'
p665
ag419
aS'86180471'
p666
aS'13132925'
p667
ag240
ag49
ag364
ag174
ag100
ag305
aS'54540997'
p668
ag92
aS'56872729'
p669
ag278
aS'56191333'
p670
aS'25077484'
p671
ag395
ag286
ag47
ag68
asg71
I1000
sg72
S'Databases 2'
p672
sg74
g75
sg76
I0
sg77
(iread_data
Room
p673
(dp674
g71
g80
sg72
g81
sbsba(ischedule
Activity
p675
(dp676
g8
(lp677
g275
ag305
ag288
ag153
ag312
ag309
ag303
ag100
ag56
ag287
ag280
ag304
ag155
ag311
ag135
ag175
ag279
ag158
ag174
ag302
ag47
ag310
ag308
ag274
ag300
ag277
ag301
ag290
ag306
ag285
ag283
ag289
ag276
ag44
ag340
ag284
ag273
ag94
ag278
ag37
ag286
ag307
ag282
ag383
ag281
asg71
I1000
sg72
g292
sg74
g75
sg76
I0
sg77
(iread_data
Room
p678
(dp679
g71
g295
sg72
g296
sbsba(ischedule
Activity
p680
(dp681
g8
(lp682
g257
ag415
ag44
aS'59753700'
p683
ag309
ag146
ag504
aS'25330192'
p684
ag14
ag436
aS'99453514'
p685
ag303
asg71
g118
sg72
g119
sg74
g120
sg76
g181
sg77
(iread_data
Room
p686
(dp687
g71
g106
sg72
g107
sbsba(ischedule
Activity
p688
(dp689
g8
g595
sg71
I1000
sg72
g213
sg74
g75
sg76
I0
sg77
(iread_data
Room
p690
(dp691
g71
g184
sg72
g185
sbsba(ischedule
Activity
p692
(dp693
g8
(lp694
g280
ag193
ag486
ag502
ag360
ag95
ag523
ag372
asg71
S'15'
p695
sg72
S'Project Genetic Algorithms'
p696
sg74
g120
sg76
g121
sg77
(iread_data
Room
p697
(dp698
g71
g199
sg72
g200
sbsba(ischedule
Activity
p699
(dp700
g8
(lp701
g419
ag147
aS'19337738'
p702
ag150
aS'93023961'
p703
ag223
ag277
aS'87314964'
p704
asg71
g118
sg72
g119
sg74
g120
sg76
g397
sg77
(iread_data
Room
p705
(dp706
g71
g163
sg72
g164
sbsbaa(lp707
(ischedule
Activity
p708
(dp709
g8
(lp710
g116
ag219
ag318
ag596
ag150
ag231
ag628
ag260
ag530
ag65
aS'53775014'
p711
ag487
ag305
ag149
aS'94930277'
p712
ag31
ag276
ag501
aS'79879876'
p713
aS'76393508'
p714
ag46
asg71
S'25'
p715
sg72
S'Heuristieken 1'
p716
sg74
g180
sg76
g121
sg77
(iread_data
Room
p717
(dp718
g71
g163
sg72
g164
sbsba(ischedule
Activity
p719
(dp720
g8
(lp721
S'1137946'
p722
ag607
ag170
ag604
aS'16333449'
p723
aS'41790793'
p724
ag136
aS'28358060'
p725
aS'67073567'
p726
ag656
ag650
aS'76903244'
p727
ag457
ag463
ag509
aS'3474870'
p728
ag90
ag631
aS'2416751'
p729
aS'10698627'
p730
ag557
ag39
ag158
aS'24891081'
p731
aS'76648468'
p732
aS'14303208'
p733
ag40
ag238
ag42
asg71
S'20'
p734
sg72
S'Webprogrammeren en databases'
p735
sg74
g120
sg76
g181
sg77
(iread_data
Room
p736
(dp737
g71
g106
sg72
g107
sbsba(ischedule
Activity
p738
(dp739
g8
g575
sg71
I1000
sg72
g590
sg74
g75
sg76
I0
sg77
(iread_data
Room
p740
(dp741
g71
g295
sg72
g296
sbsba(ischedule
Activity
p742
(dp743
g8
(lp744
g257
ag523
asg71
S'10'
p745
sg72
g267
sg74
g120
sg76
g181
sg77
(iread_data
Room
p746
(dp747
g71
g199
sg72
g200
sbsba(ischedule
Activity
p748
(dp749
g8
(lp750
g351
ag261
ag438
aS'38296757'
p751
aS'46701583'
p752
ag346
ag477
ag10
ag448
ag449
aS'90067329'
p753
aS'67625383'
p754
aS'33252501'
p755
ag146
ag350
ag359
ag237
ag301
ag232
ag233
ag418
ag413
asg71
I1000
sg72
S'Machine Learning'
p756
sg74
g75
sg76
I0
sg77
(iread_data
Room
p757
(dp758
g71
g184
sg72
g185
sbsba(ischedule
Activity
p759
(dp760
g8
g677
sg71
I1000
sg72
g292
sg74
g75
sg76
I0
sg77
(iread_data
Room
p761
(dp762
g71
g80
sg72
g81
sbsba(ischedule
Activity
p763
(dp764
g8
(lp765
g330
ag341
ag20
ag138
ag339
ag353
ag279
ag346
ag17
ag331
ag338
ag18
ag376
ag337
ag265
ag261
ag348
ag332
ag93
ag357
ag344
ag177
ag363
ag333
ag350
ag351
ag359
ag352
ag336
ag302
ag222
ag366
ag329
ag371
ag347
ag367
ag280
ag374
asg71
S'40'
p766
sg72
g377
sg74
g120
sg76
g181
sg77
(iread_data
Room
p767
(dp768
g71
g124
sg72
g125
sbsbaa(lp769
(ischedule
Activity
p770
(dp771
g8
(lp772
g310
ag523
ag138
ag139
ag134
ag524
ag521
ag277
ag507
asg71
g266
sg72
g267
sg74
g180
sg76
g397
sg77
(iread_data
Room
p773
(dp774
g71
g80
sg72
g81
sbsba(ischedule
Activity
p775
(dp776
g8
(lp777
g570
ag653
ag131
ag503
asg71
S'20'
p778
sg72
S'Reflectie op de digitale cultuur'
p779
sg74
g180
sg76
g181
sg77
(iread_data
Room
p780
(dp781
g71
g184
sg72
g185
sbsba(ischedule
Activity
p782
(dp783
g8
(lp784
g45
ag59
ag47
ag63
ag19
ag70
ag44
ag43
ag54
ag18
ag17
ag69
ag21
ag52
ag60
ag61
ag62
ag36
ag27
ag25
ag50
ag64
ag37
ag66
ag26
ag39
ag13
ag20
ag32
ag22
ag29
ag56
ag28
asg71
g429
sg72
g73
sg74
g120
sg76
g515
sg77
(iread_data
Room
p785
(dp786
g71
g124
sg72
g125
sbsba(ischedule
Activity
p787
(dp788
g8
(lp789
g169
ag568
ag170
ag172
ag357
aS'59111489'
p790
ag154
ag86
ag301
ag392
ag236
ag19
aS'96082155'
p791
ag391
ag304
ag177
ag393
ag16
ag390
ag173
ag455
aS'78544592'
p792
ag168
ag239
ag395
ag228
ag31
ag281
aS'1181560'
p793
ag136
ag459
ag174
ag648
aS'27241113'
p794
ag175
ag356
ag396
ag492
ag12
ag171
aS'51650744'
p795
ag176
aS'33776961'
p796
ag394
ag233
aS'84449005'
p797
aS'13218321'
p798
asg71
S'20'
p799
sg72
g179
sg74
g120
sg76
g181
sg77
(iread_data
Room
p800
(dp801
g71
g295
sg72
g296
sbsba(ischedule
Activity
p802
(dp803
g8
(lp804
g65
ag40
ag15
ag31
ag58
ag12
ag23
ag38
ag41
ag46
ag49
ag34
ag42
ag24
asg71
g429
sg72
g73
sg74
g120
sg76
g121
sg77
(iread_data
Room
p805
(dp806
g71
g106
sg72
g107
sbsba(ischedule
Activity
p807
(dp808
g8
(lp809
g33
ag30
ag67
ag51
ag48
ag68
ag35
ag10
ag16
ag11
ag57
ag53
ag14
asg71
g429
sg72
g73
sg74
g120
sg76
g397
sg77
(iread_data
Room
p810
(dp811
g71
g163
sg72
g164
sbsba(ischedule
Activity
p812
(dp813
g8
(lp814
g176
aS'67817269'
p815
ag578
ag58
ag752
ag369
ag663
ag440
ag468
ag588
ag221
ag418
asg71
S'25'
p816
sg72
S'Algoritmen en complexiteit'
p817
sg74
g180
sg76
g121
sg77
(iread_data
Room
p818
(dp819
g71
g199
sg72
g200
sbsbaa(lp820
(ischedule
Activity
p821
(dp822
g8
g677
sg71
I1000
sg72
g292
sg74
g75
sg76
I0
sg77
(iread_data
Room
p823
(dp824
g71
g124
sg72
g125
sbsba(ischedule
Activity
p825
(dp826
g8
g9
sg71
I1000
sg72
g73
sg74
g75
sg76
I0
sg77
(iread_data
Room
p827
(dp828
g71
g80
sg72
g81
sbsba(ischedule
Activity
p829
(dp830
g8
(lp831
g447
ag366
ag219
ag353
ag659
ag664
ag486
asg71
g513
sg72
g514
sg74
g120
sg76
g181
sg77
(iread_data
Room
p832
(dp833
g71
g184
sg72
g185
sbsba(ischedule
Activity
p834
(dp835
g8
(lp836
g89
ag93
ag102
ag98
ag95
ag45
ag92
ag91
ag100
ag40
asg71
S'10'
p837
sg72
g103
sg74
g120
sg76
g181
sg77
(iread_data
Room
p838
(dp839
g71
g199
sg72
g200
sbsba(ischedule
Activity
p840
(dp841
g8
(lp842
g665
ag671
ag237
ag43
ag443
ag666
ag612
ag144
ag440
aS'82066165'
p843
aS'25994016'
p844
ag629
ag173
aS'41644639'
p845
ag752
asg71
g695
sg72
g696
sg74
g120
sg76
g397
sg77
(iread_data
Room
p846
(dp847
g71
g163
sg72
g164
sbsbaa(lp848
(ischedule
Activity
p849
(dp850
g8
(lp851
g330
ag23
ag154
ag370
ag331
ag177
ag17
ag363
ag335
ag343
ag333
ag137
ag352
ag375
ag371
ag361
ag345
ag261
ag342
ag376
ag280
ag344
ag93
ag144
ag359
ag168
ag341
ag338
ag355
ag366
ag18
ag362
ag336
ag347
ag68
ag351
ag354
ag373
ag369
ag358
ag349
ag329
ag365
ag357
ag372
ag63
ag332
asg71
S'40'
p852
sg72
g377
sg74
g180
sg76
g181
sg77
(iread_data
Room
p853
(dp854
g71
g295
sg72
g296
sbsba(ischedule
Activity
p855
(dp856
g8
g435
sg71
I1000
sg72
g494
sg74
g75
sg76
I0
sg77
(iread_data
Room
p857
(dp858
g71
g80
sg72
g81
sbsba(ischedule
Activity
p859
(dp860
g8
(lp861
g99
ag683
aS'60661905'
p862
aS'32044893'
p863
ag797
aS'36213792'
p864
ag651
ag102
ag49
ag16
ag503
ag228
ag685
ag439
aS'70193386'
p865
ag283
ag175
aS'82390428'
p866
ag570
aS'92778619'
p867
ag532
ag131
ag450
ag97
ag610
ag144
aS'51052738'
p868
ag580
ag260
ag364
aS'27370083'
p869
ag631
aS'51415617'
p870
ag257
ag653
ag290
ag751
ag612
aS'27805666'
p871
aS'68286356'
p872
ag151
ag206
aS'20095994'
p873
ag343
ag285
ag509
aS'49922855'
p874
ag449
ag796
ag448
ag627
asg71
I1000
sg72
g779
sg74
g75
sg76
I0
sg77
(iread_data
Room
p875
(dp876
g71
g106
sg72
g107
sbsba(ischedule
Activity
p877
(dp878
g8
(lp879
g310
ag507
ag263
ag522
ag416
ag419
ag277
ag260
ag265
ag139
ag19
asg71
g745
sg72
g267
sg74
g120
sg76
g397
sg77
(iread_data
Room
p880
(dp881
g71
g199
sg72
g200
sbsba(ischedule
Activity
p882
(dp883
g8
(lp884
g587
aS'69459473'
p885
ag712
ag13
ag302
aS'20618153'
p886
ag362
ag96
aS'49908313'
p887
aS'53512831'
p888
asg71
g734
sg72
g735
sg74
g120
sg76
g121
sg77
(iread_data
Room
p889
(dp890
g71
g124
sg72
g125
sbsba(ischedule
Activity
p891
(dp892
g8
(lp893
g415
aS'62363761'
p894
ag456
ag684
ag670
ag544
ag69
aS'123355'
p895
aS'535689'
p896
ag29
aS'4353500'
p897
ag282
ag555
aS'16912993'
p898
aS'12170832'
p899
aS'25557516'
p900
ag321
ag300
asg71
g513
sg72
g514
sg74
g120
sg76
g121
sg77
(iread_data
Room
p901
(dp902
g71
g184
sg72
g185
sbsba(ischedule
Activity
p903
(dp904
g8
(lp905
g340
ag44
ag383
asg71
g291
sg72
g292
sg74
g180
sg76
g397
sg77
(iread_data
Room
p906
(dp907
g71
g163
sg72
g164
sbsbaaa(lp908
(lp909
(ischedule
Activity
p910
(dp911
g8
g520
sg71
I1000
sg72
g267
sg74
g75
sg76
I0
sg77
(iread_data
Room
p912
(dp913
g71
g199
sg72
g200
sbsba(ischedule
Activity
p914
(dp915
g8
g861
sg71
I1000
sg72
g779
sg74
g75
sg76
I0
sg77
(iread_data
Room
p916
(dp917
g71
g124
sg72
g125
sbsba(ischedule
Activity
p918
(dp919
g8
(lp920
g712
ag887
ag631
ag13
ag96
ag888
ag722
ag136
ag885
ag729
ag42
ag730
ag90
ag463
ag587
ag509
ag650
ag302
ag723
ag39
ag725
ag732
ag724
ag362
ag728
ag727
ag238
ag726
ag733
ag40
ag607
ag170
ag656
ag457
ag731
ag158
ag557
ag886
ag604
asg71
I1000
sg72
g735
sg74
g75
sg76
I0
sg77
(iread_data
Room
p921
(dp922
g71
g80
sg72
g81
sbsba(ischedule
Activity
p923
(dp924
g8
(lp925
g21
ag465
ag321
aS'54395877'
p926
ag445
aS'10702778'
p927
aS'34900967'
p928
ag333
aS'63096281'
p929
ag146
ag190
ag53
ag98
ag373
ag460
ag68
ag468
ag444
asg71
g244
sg72
g245
sg74
g120
sg76
g181
sg77
(iread_data
Room
p930
(dp931
g71
g163
sg72
g164
sbsba(ischedule
Activity
p932
(dp933
g8
(lp934
g392
ag713
ag862
ag305
asg71
g244
sg72
g245
sg74
g120
sg76
S'6'
p935
sg77
(iread_data
Room
p936
(dp937
g71
g184
sg72
g185
sbsba(ischedule
Activity
p938
(dp939
g8
(lp940
g236
ag798
ag356
aS'66621166'
p941
ag363
ag791
ag154
ag792
ag233
ag492
ag794
ag61
ag86
ag239
ag51
ag660
ag793
ag328
ag568
ag790
ag12
ag455
ag208
ag648
ag795
ag357
ag796
ag797
ag301
ag459
ag281
asg71
g178
sg72
g179
sg74
g180
sg76
g121
sg77
(iread_data
Room
p942
(dp943
g71
g295
sg72
g296
sbsba(ischedule
Activity
p944
(dp945
g8
(lp946
g288
aS'59887191'
p947
ag37
ag85
aS'72586808'
p948
aS'5590289'
p949
ag97
ag303
ag101
asg71
g513
sg72
g514
sg74
g120
sg76
g397
sg77
(iread_data
Room
p950
(dp951
g71
g106
sg72
g107
sbsbaa(lp952
(ischedule
Activity
p953
(dp954
g8
(lp955
g68
aS'23565001'
p956
ag649
ag19
ag149
ag478
ag229
aS'58866007'
p957
ag259
ag50
ag436
ag264
ag334
ag669
ag416
ag462
ag147
ag612
ag369
ag311
aS'21311067'
p958
ag275
aS'96118484'
p959
ag580
ag728
ag47
aS'80998260'
p960
ag723
ag556
ag523
ag63
ag563
aS'26172512'
p961
aS'90743504'
p962
aS'66570705'
p963
ag394
ag321
aS'55412918'
p964
ag409
aS'54074680'
p965
aS'34588570'
p966
ag609
aS'79937969'
p967
ag454
ag148
ag243
aS'32595335'
p968
ag62
aS'16011419'
p969
ag531
aS'71839156'
p970
ag353
ag242
ag48
asg71
I1000
sg72
S'Lineaire Algebra'
p971
sg74
g75
sg76
I0
sg77
(iread_data
Room
p972
(dp973
g71
g124
sg72
g125
sbsba(ischedule
Activity
p974
(dp975
g8
(lp976
g69
ag88
ag205
ag487
ag357
ag85
ag347
ag346
ag609
ag414
ag318
ag136
ag604
aS'13798030'
p977
aS'59289233'
p978
ag957
ag40
ag156
ag27
ag438
ag557
asg71
I1000
sg72
S'Architectuur en computerorganisatie'
p979
sg74
g75
sg76
I0
sg77
(iread_data
Room
p980
(dp981
g71
g106
sg72
g107
sbsba(ischedule
Activity
p982
(dp983
g8
(lp984
g236
ag597
ag240
ag309
ag221
ag598
ag596
ag453
ag507
ag447
asg71
g212
sg72
g213
sg74
g180
sg76
g181
sg77
(iread_data
Room
p985
(dp986
g71
g199
sg72
g200
sbsba(ischedule
Activity
p987
(dp988
g8
(lp989
g413
ag303
ag502
ag418
ag22
ag444
ag170
ag626
ag411
ag419
ag420
ag631
ag91
ag415
ag627
ag625
ag13
ag416
ag343
ag409
ag629
ag410
ag308
ag421
ag628
ag414
ag412
ag588
ag54
ag632
ag630
ag417
asg71
I1000
sg72
g423
sg74
g75
sg76
I0
sg77
(iread_data
Room
p990
(dp991
g71
g80
sg72
g81
sbsba(ischedule
Activity
p992
(dp993
g8
(lp994
g257
ag130
ag206
ag522
aS'45660925'
p995
aS'83443653'
p996
aS'97417002'
p997
ag462
ag61
ag86
ag98
ag274
ag625
ag275
ag342
ag465
ag395
ag55
ag897
ag507
aS'87210640'
p998
ag970
ag441
asg71
g715
sg72
g716
sg74
g180
sg76
g181
sg77
(iread_data
Room
p999
(dp1000
g71
g184
sg72
g185
sbsba(ischedule
Activity
p1001
(dp1002
g8
(lp1003
g56
ag34
asg71
g251
sg72
g73
sg74
g180
sg76
g397
sg77
(iread_data
Room
p1004
(dp1005
g71
g295
sg72
g296
sbsba(ischedule
Activity
p1006
(dp1007
g8
(lp1008
g44
ag69
ag364
ag383
ag219
ag582
aS'66433883'
p1009
ag14
aS'64554442'
p1010
ag475
aS'88596522'
p1011
ag566
ag728
ag419
ag650
ag15
ag262
ag102
ag501
ag660
aS'19540225'
p1012
ag151
ag362
aS'23652927'
p1013
ag371
ag152
ag662
ag190
ag132
ag157
aS'51509565'
p1014
asg71
g816
sg72
g817
sg74
g180
sg76
g181
sg77
(iread_data
Room
p1015
(dp1016
g71
g163
sg72
g164
sbsbaa(lp1017
(ischedule
Activity
p1018
(dp1019
g8
(lp1020
g340
ag274
ag304
ag300
ag310
asg71
g384
sg72
g292
sg74
g120
sg76
g397
sg77
(iread_data
Room
p1021
(dp1022
g71
g124
sg72
g125
sbsba(ischedule
Activity
p1023
(dp1024
g8
(lp1025
g228
ag866
ag580
ag873
ag796
ag872
ag99
ag869
ag685
ag870
ag343
ag863
ag651
ag450
ag97
ag868
ag144
ag206
ag449
ag610
ag751
ag364
ag874
ag532
asg71
g778
sg72
g779
sg74
g180
sg76
g121
sg77
(iread_data
Room
p1026
(dp1027
g71
g106
sg72
g107
sbsba(ischedule
Activity
p1028
(dp1029
g8
(lp1030
g565
ag154
ag611
ag617
ag150
ag606
ag615
ag616
ag453
ag472
ag607
asg71
S'20'
p1031
sg72
g619
sg74
g180
sg76
g181
sg77
(iread_data
Room
p1032
(dp1033
g71
g80
sg72
g81
sbsba(ischedule
Activity
p1034
(dp1035
g8
(lp1036
g51
ag61
ag43
ag59
ag64
ag20
ag50
ag11
ag40
ag67
ag69
ag47
ag27
ag26
ag18
ag13
ag39
ag49
ag29
ag35
ag36
ag44
ag31
ag21
ag22
ag54
ag63
ag15
ag52
ag42
ag48
ag60
ag14
ag55
ag46
ag62
asg71
g251
sg72
g73
sg74
g180
sg76
g121
sg77
(iread_data
Room
p1037
(dp1038
g71
g163
sg72
g164
sbsba(ischedule
Activity
p1039
(dp1040
g8
(lp1041
g257
ag612
ag448
ag871
ag867
ag439
ag797
ag283
ag627
ag683
ag285
ag862
ag175
ag865
ag16
ag631
ag102
ag49
ag509
ag864
ag260
ag290
ag151
asg71
g778
sg72
g779
sg74
g180
sg76
g397
sg77
(iread_data
Room
p1042
(dp1043
g71
g184
sg72
g185
sbsbaa(lp1044
(ischedule
Activity
p1045
(dp1046
g8
g327
sg71
I1000
sg72
g377
sg74
g75
sg76
I0
sg77
(iread_data
Room
p1047
(dp1048
g71
g80
sg72
g81
sbsba(ischedule
Activity
p1049
(dp1050
g8
(lp1051
g132
ag657
ag290
ag15
ag262
aS'75623387'
p1052
ag275
ag956
ag372
asg71
S'40'
p1053
sg72
S'Calculus 2'
p1054
sg74
g180
sg76
g121
sg77
(iread_data
Room
p1055
(dp1056
g71
g199
sg72
g200
sbsba(ischedule
Activity
p1057
(dp1058
g8
(lp1059
g303
ag257
ag147
ag150
ag436
ag14
ag117
ag115
ag277
ag111
ag112
ag114
ag44
ag116
ag704
asg71
S'10'
p1060
sg72
g119
sg74
g180
sg76
g397
sg77
(iread_data
Room
p1061
(dp1062
g71
g295
sg72
g296
sbsba(ischedule
Activity
p1063
(dp1064
g8
(lp1065
g702
ag419
ag309
ag146
ag504
ag684
asg71
g1060
sg72
g119
sg74
g180
sg76
g121
sg77
(iread_data
Room
p1066
(dp1067
g71
g184
sg72
g185
sbsba(ischedule
Activity
p1068
(dp1069
g8
g920
sg71
I1000
sg72
g735
sg74
g75
sg76
I0
sg77
(iread_data
Room
p1070
(dp1071
g71
g106
sg72
g107
sbsba(ischedule
Activity
p1072
(dp1073
g8
(lp1074
g41
ag662
ag646
ag261
ag229
ag47
ag653
ag505
ag286
ag305
ag419
ag651
ag664
ag670
ag236
ag655
ag19
ag650
ag278
asg71
S'40'
p1075
sg72
g672
sg74
g180
sg76
g121
sg77
(iread_data
Room
p1076
(dp1077
g71
g163
sg72
g164
sbsba(ischedule
Activity
p1078
(dp1079
g8
(lp1080
g240
ag236
ag453
ag205
ag221
ag207
ag177
ag211
ag112
asg71
S'15'
p1081
sg72
g213
sg74
g120
sg76
g121
sg77
(iread_data
Room
p1082
(dp1083
g71
g124
sg72
g125
sbsbaa(lp1084
(ischedule
Activity
p1085
(dp1086
g8
g9
sg71
I1000
sg72
g73
sg74
g75
sg76
I0
sg77
(iread_data
Room
p1087
(dp1088
g71
g295
sg72
g296
sbsba(ischedule
Activity
p1089
(dp1090
g8
(lp1091
g258
ag138
ag264
ag259
ag261
ag521
ag134
ag262
ag524
asg71
g745
sg72
g267
sg74
g120
sg76
g121
sg77
(iread_data
Room
p1092
(dp1093
g71
g184
sg72
g185
sbsba(ischedule
Activity
p1094
(dp1095
g8
(lp1096
g362
ag588
ag383
ag728
ag58
ag219
ag369
ag660
ag815
ag468
ag1009
ag752
ag151
ag152
ag475
ag1011
ag418
ag662
ag364
ag262
ag44
ag14
ag102
ag1012
ag501
ag15
ag221
ag190
ag1010
ag1014
ag578
ag176
ag157
ag69
ag419
ag1013
ag650
ag132
ag440
ag663
ag582
ag566
ag371
asg71
I1000
sg72
g817
sg74
g75
sg76
I0
sg77
(iread_data
Room
p1097
(dp1098
g71
g106
sg72
g107
sbsba(ischedule
Activity
p1099
(dp1100
g8
g976
sg71
I1000
sg72
g979
sg74
g75
sg76
I0
sg77
(iread_data
Room
p1101
(dp1102
g71
g199
sg72
g200
sbsba(ischedule
Activity
p1103
(dp1104
g8
(lp1105
g51
ag392
ag16
ag459
ag172
ag391
ag171
ag19
ag660
ag136
ag154
ag170
ag236
ag173
ag568
ag393
ag301
ag31
ag390
ag176
ag793
ag12
ag363
ag790
ag395
ag328
ag396
ag61
ag175
ag795
ag169
ag791
ag796
ag168
ag356
ag177
ag792
ag174
ag239
ag357
ag648
ag797
ag455
ag208
ag228
ag394
ag492
ag86
ag941
ag798
ag794
ag233
ag304
ag281
asg71
I1000
sg72
g179
sg74
g75
sg76
I0
sg77
(iread_data
Room
p1106
(dp1107
g71
g124
sg72
g125
sbsba(ischedule
Activity
p1108
(dp1109
g8
(lp1110
g112
ag14
ag257
ag703
ag114
ag223
ag419
ag113
ag111
ag150
ag702
ag309
ag704
ag277
ag117
ag147
ag116
ag303
ag44
ag684
ag504
ag436
ag115
ag415
ag683
ag146
ag685
asg71
I1000
sg72
g119
sg74
g75
sg76
I0
sg77
(iread_data
Room
p1111
(dp1112
g71
g80
sg72
g81
sbsba(ischedule
Activity
p1113
(dp1114
g8
(lp1115
g20
ag222
ag337
ag56
ag356
ag265
ag360
ag340
ag328
ag334
ag374
ag364
ag367
ag302
ag353
ag348
ag346
ag368
ag279
ag350
ag339
ag138
asg71
g852
sg72
g377
sg74
g180
sg76
g121
sg77
(iread_data
Room
p1116
(dp1117
g71
g163
sg72
g164
sbsbaaa(lp1118
(lp1119
(ischedule
Activity
p1120
(dp1121
g8
(lp1122
S'79888156'
p1123
ag666
ag86
ag365
ag894
ag111
aS'59220392'
p1124
ag752
ag444
aS'72526473'
p1125
ag357
ag646
ag647
aS'58253841'
p1126
ag304
ag645
ag330
aS'53139134'
p1127
ag546
ag460
ag46
ag454
ag964
ag657
ag455
aS'65978354'
p1128
ag491
ag224
ag281
aS'56348773'
p1129
ag129
ag482
aS'14179347'
p1130
aS'75446434'
p1131
aS'3678531'
p1132
ag311
aS'34173695'
p1133
ag39
ag70
ag560
ag669
ag751
ag490
ag262
ag511
aS'93361408'
p1134
ag598
aS'31306819'
p1135
ag307
aS'23628642'
p1136
ag286
ag92
ag451
ag275
aS'19717077'
p1137
ag609
ag392
ag568
ag956
ag414
ag660
ag54
ag141
ag493
ag733
ag352
ag562
ag390
aS'11593163'
p1138
ag90
ag457
ag279
aS'82412626'
p1139
ag130
ag190
ag561
aS'6709529'
p1140
ag101
ag421
ag29
ag66
aS'56544130'
p1141
ag792
ag220
aS'10609762'
p1142
aS'33672995'
p1143
ag1052
ag98
aS'77306636'
p1144
ag350
ag290
ag335
aS'55530367'
p1145
aS'61520025'
p1146
ag589
ag15
ag649
ag585
ag416
aS'80188025'
p1147
ag629
ag276
aS'22168693'
p1148
ag372
ag284
ag132
asg71
I1000
sg72
g1054
sg74
g75
sg76
I0
sg77
(iread_data
Room
p1149
(dp1150
g71
g80
sg72
g81
sbsba(ischedule
Activity
p1151
(dp1152
g8
g603
sg71
I1000
sg72
g619
sg74
g75
sg76
I0
sg77
(iread_data
Room
p1153
(dp1154
g71
g124
sg72
g125
sbsba(ischedule
Activity
p1155
(dp1156
g8
(lp1157
g569
ag568
ag274
ag472
ag560
ag289
ag173
ag310
ag237
ag557
ag14
ag562
ag485
ag418
ag260
ag284
ag33
ag566
ag57
ag558
ag242
ag46
ag225
ag32
ag559
ag456
ag20
ag34
ag567
ag555
ag340
ag170
ag329
ag561
ag556
ag458
ag564
ag570
ag241
ag563
ag53
ag523
ag176
ag475
ag565
asg71
g159
sg72
g160
sg74
g120
sg76
g181
sg77
(iread_data
Room
p1158
(dp1159
g71
g106
sg72
g107
sbsba(ischedule
Activity
p1160
(dp1161
g8
(lp1162
g663
ag221
ag219
ag419
ag190
ag501
ag15
ag1012
ag1014
ag69
ag468
ag582
asg71
S'25'
p1163
sg72
g817
sg74
g120
sg76
g121
sg77
(iread_data
Room
p1164
(dp1165
g71
g199
sg72
g200
sbsba(ischedule
Activity
p1166
(dp1167
g8
(lp1168
g61
ag363
ag208
asg71
g799
sg72
g179
sg74
g120
sg76
g397
sg77
(iread_data
Room
p1169
(dp1170
g71
g163
sg72
g164
sbsba(ischedule
Activity
p1171
(dp1172
g8
(lp1173
g651
ag261
ag345
ag580
aS'90296821'
p1174
aS'64053722'
p1175
ag409
ag478
ag15
ag140
ag436
ag524
ag285
ag632
ag192
ag92
ag290
ag752
ag413
asg71
g244
sg72
g245
sg74
g120
sg76
g397
sg77
(iread_data
Room
p1176
(dp1177
g71
g184
sg72
g185
sbsbaa(lp1178
(ischedule
Activity
p1179
(dp1180
g8
(lp1181
g355
ag354
ag137
ag364
ag342
ag369
ag340
ag365
ag375
ag343
ag144
ag23
ag68
ag168
ag368
ag349
ag154
ag372
ag362
ag345
ag358
ag63
ag356
ag334
ag360
ag328
ag373
ag370
ag335
ag56
ag361
asg71
g766
sg72
g377
sg74
g120
sg76
g121
sg77
(iread_data
Room
p1182
(dp1183
g71
g106
sg72
g107
sbsba(ischedule
Activity
p1184
(dp1185
g8
(lp1186
g17
ag730
ag341
ag535
ag559
ag11
ag114
ag70
ag286
ag1132
ag350
ag886
ag330
ag867
ag606
ag663
aS'23215240'
p1187
ag421
ag558
ag348
ag476
aS'88597745'
p1188
ag281
ag729
ag796
ag129
ag596
aS'73196865'
p1189
aS'7386961'
p1190
aS'51791169'
p1191
ag25
ag1009
asg71
g244
sg72
g245
sg74
g120
sg76
g515
sg77
(iread_data
Room
p1192
(dp1193
g71
g80
sg72
g81
sbsba(ischedule
Activity
p1194
(dp1195
g8
(lp1196
g438
ag631
ag148
ag287
ag260
ag503
aS'88737765'
p1197
ag948
ag648
ag862
ag229
ag570
ag375
aS'78822885'
p1198
ag567
ag502
aS'82854435'
p1199
ag87
ag147
ag1143
aS'18477924'
p1200
aS'58480929'
p1201
ag41
aS'14637758'
p1202
ag865
ag416
ag928
ag664
aS'73350019'
p1203
ag353
ag86
aS'97838175'
p1204
ag465
ag1147
ag561
ag224
ag194
ag956
ag1141
ag273
ag478
ag610
ag130
ag447
ag22
ag612
ag996
ag484
ag304
asg71
I1000
sg72
S'Analysemethoden en -technieken'
p1205
sg74
g75
sg76
I0
sg77
(iread_data
Room
p1206
(dp1207
g71
g295
sg72
g296
sbsba(ischedule
Activity
p1208
(dp1209
g8
(lp1210
g618
ag367
ag135
ag139
ag334
ag338
ag863
ag646
aS'63939720'
p1211
ag113
ag37
aS'19662602'
p1212
ag17
ag576
aS'90103047'
p1213
ag448
asg71
g537
sg72
g538
sg74
g120
sg76
g181
sg77
(iread_data
Room
p1214
(dp1215
g71
g199
sg72
g200
sbsba(ischedule
Activity
p1216
(dp1217
g8
(lp1218
g725
ag732
ag631
ag96
ag650
ag39
ag727
ag136
ag886
ag457
ag302
ag557
ag733
asg71
S'20'
p1219
sg72
g735
sg74
g180
sg76
g121
sg77
(iread_data
Room
p1220
(dp1221
g71
g184
sg72
g185
sbsba(ischedule
Activity
p1222
(dp1223
g8
g1110
sg71
I1000
sg72
g119
sg74
g75
sg76
I0
sg77
(iread_data
Room
p1224
(dp1225
g71
g124
sg72
g125
sbsba(ischedule
Activity
p1226
(dp1227
g8
(lp1228
g66
asg71
g251
sg72
g73
sg74
g180
sg76
g515
sg77
(iread_data
Room
p1229
(dp1230
g71
g163
sg72
g164
sbsbaa(lp1231
(ischedule
Activity
p1232
(dp1233
g8
(lp1234
g660
ag328
ag941
ag51
asg71
g799
sg72
g179
sg74
g120
sg76
g121
sg77
(iread_data
Room
p1235
(dp1236
g71
g295
sg72
g296
sbsba(ischedule
Activity
p1237
(dp1238
g8
(lp1239
g608
ag175
ag177
ag31
ag45
ag604
ag371
ag614
ag605
ag609
ag304
ag612
ag437
ag257
ag610
ag334
ag21
ag597
ag618
ag507
ag331
ag410
ag483
ag613
ag67
ag395
ag332
asg71
g1031
sg72
g619
sg74
g180
sg76
g121
sg77
(iread_data
Room
p1240
(dp1241
g71
g163
sg72
g164
sbsba(ischedule
Activity
p1242
(dp1243
g8
(lp1244
g558
ag137
ag456
ag472
ag475
ag131
ag340
ag242
ag140
ag156
ag57
ag565
ag173
ag33
ag135
ag555
ag241
ag260
ag566
ag157
ag485
ag146
ag46
ag151
ag53
ag523
ag14
ag154
ag237
ag570
ag567
ag149
ag143
ag562
ag147
ag145
ag564
ag559
ag139
ag556
ag141
ag563
ag225
ag148
ag170
ag152
ag130
ag568
ag418
ag142
ag136
ag150
ag176
ag284
ag458
ag560
ag32
ag132
ag144
ag569
ag34
ag134
ag329
ag561
ag138
ag155
ag153
ag274
ag20
ag310
ag129
ag557
ag158
ag133
asg71
g403
sg72
g160
sg74
g180
sg76
g121
sg77
(iread_data
Room
p1245
(dp1246
g71
g80
sg72
g81
sbsba(ischedule
Activity
p1247
(dp1248
g8
(lp1249
g470
aS'39905995'
p1250
ag364
ag13
ag366
ag279
ag451
aS'73893840'
p1251
asg71
g244
sg72
g245
sg74
g120
sg76
S'5'
p1252
sg77
(iread_data
Room
p1253
(dp1254
g71
g106
sg72
g107
sbsba(ischedule
Activity
p1255
(dp1256
g8
(lp1257
g1130
ag503
ag1197
ag23
aS'75680261'
p1258
aS'55480737'
p1259
aS'51673172'
p1260
ag885
ag34
ag648
ag414
ag1126
ag797
asg71
g695
sg72
g696
sg74
g120
sg76
g181
sg77
(iread_data
Room
p1261
(dp1262
g71
g199
sg72
g200
sbsbaa(lp1263
(ischedule
Activity
p1264
(dp1265
g8
(lp1266
g194
ag492
ag69
ag409
ag652
ag660
ag661
ag68
ag99
ag663
ag669
ag671
ag659
ag649
ag364
ag276
ag647
ag240
ag174
ag100
ag349
ag645
ag265
ag49
ag668
ag352
ag665
ag648
ag657
ag16
ag42
ag501
ag134
ag500
ag51
ag604
ag53
ag584
ag395
ag658
ag347
ag667
ag239
ag484
ag224
ag654
ag656
ag531
ag22
ag67
ag92
ag666
ag412
asg71
g1075
sg72
g672
sg74
g180
sg76
g181
sg77
(iread_data
Room
p1267
(dp1268
g71
g124
sg72
g125
sbsba(ischedule
Activity
p1269
(dp1270
g8
(lp1271
g566
ag815
ag418
ag662
ag440
ag132
ag44
ag1011
ag362
ag369
ag157
ag151
ag752
ag578
ag650
ag102
ag475
ag14
ag58
ag1013
ag588
ag262
ag660
ag176
ag728
ag1010
ag152
ag364
ag383
ag371
ag1009
asg71
g1163
sg72
g817
sg74
g120
sg76
g181
sg77
(iread_data
Room
p1272
(dp1273
g71
g80
sg72
g81
sbsba(ischedule
Activity
p1274
(dp1275
g8
(lp1276
g568
ag352
ag46
ag350
ag649
ag1144
ag1143
ag1128
ag444
ag330
ag1140
ag220
ag86
ag311
ag129
ag111
ag733
ag585
ag70
ag416
ag546
ag669
ag660
ag29
ag365
ag1125
ag54
ag66
ag1141
ag98
ag490
ag1133
ag645
ag304
ag421
ag598
ag455
ag392
ag414
ag92
ag646
ag286
ag1135
ag281
ag1131
ag141
ag562
ag1129
ag491
ag792
ag964
ag460
ag1146
ag130
ag276
ag482
ag1138
asg71
g1053
sg72
g1054
sg74
g180
sg76
g397
sg77
(iread_data
Room
p1277
(dp1278
g71
g295
sg72
g296
sbsba(ischedule
Activity
p1279
(dp1280
g8
(lp1281
g101
ag85
ag90
ag86
ag96
ag94
ag97
ag99
ag87
ag88
asg71
g837
sg72
g103
sg74
g120
sg76
g121
sg77
(iread_data
Room
p1282
(dp1283
g71
g199
sg72
g200
sbsba(ischedule
Activity
p1284
(dp1285
g8
(lp1286
g223
ag415
ag683
ag685
ag113
ag703
asg71
g1060
sg72
g119
sg74
g180
sg76
g181
sg77
(iread_data
Room
p1287
(dp1288
g71
g106
sg72
g107
sbsba(ischedule
Activity
p1289
(dp1290
g8
(lp1291
g1147
ag589
ag493
ag647
ag1139
ag101
ag457
ag1127
ag666
ag1145
ag1137
ag390
ag224
ag279
ag1134
ag284
ag454
ag1124
ag751
ag90
ag561
ag629
ag1142
ag609
ag1132
ag1126
ag1136
ag1123
ag39
ag560
ag335
ag511
ag357
ag1148
ag1130
ag307
ag752
ag451
ag894
ag190
asg71
g1053
sg72
g1054
sg74
g180
sg76
g181
sg77
(iread_data
Room
p1292
(dp1293
g71
g163
sg72
g164
sbsba(ischedule
Activity
p1294
(dp1295
g8
(lp1296
g507
ag598
ag209
ag309
ag597
ag206
ag31
ag208
ag596
ag447
ag11
ag210
asg71
g1081
sg72
g213
sg74
g120
sg76
g181
sg77
(iread_data
Room
p1297
(dp1298
g71
g184
sg72
g185
sbsbaa(lp1299
(ischedule
Activity
p1300
(dp1301
g8
g955
sg71
I1000
sg72
g971
sg74
g75
sg76
I0
sg77
(iread_data
Room
p1302
(dp1303
g71
g106
sg72
g107
sbsba(ischedule
Activity
p1304
(dp1305
g8
(lp1306
g219
ag625
ag86
ag116
ag55
ag31
ag970
ag487
ag996
ag713
ag305
ag46
ag395
ag257
ag149
ag465
ag995
ag507
ag150
ag274
ag318
ag522
ag711
ag206
ag897
ag596
ag342
ag276
ag441
ag275
ag998
ag712
ag628
ag462
ag501
ag65
ag997
ag714
ag130
ag530
ag231
ag61
ag98
ag260
asg71
I1000
sg72
g716
sg74
g75
sg76
I0
sg77
(iread_data
Room
p1307
(dp1308
g71
g124
sg72
g125
sbsba(ischedule
Activity
p1309
(dp1310
g8
(lp1311
g158
ag729
ag238
ag726
ag730
ag362
ag604
ag170
ag40
ag463
ag731
ag728
ag887
ag587
ag656
ag509
ag885
ag888
ag90
ag723
ag42
ag724
ag712
ag722
ag13
ag607
asg71
g1219
sg72
g735
sg74
g180
sg76
g181
sg77
(iread_data
Room
p1312
(dp1313
g71
g163
sg72
g164
sbsba(ischedule
Activity
p1314
(dp1315
g8
g750
sg71
I1000
sg72
g756
sg74
g75
sg76
I0
sg77
(iread_data
Room
p1316
(dp1317
g71
g80
sg72
g81
sbsba(ischedule
Activity
p1318
(dp1319
g8
(lp1320
g175
ag155
ag306
asg71
g384
sg72
g292
sg74
g120
sg76
g121
sg77
(iread_data
Room
p1321
(dp1322
g71
g199
sg72
g200
sbsba(ischedule
Activity
p1323
(dp1324
g8
(lp1325
g845
aS'44151631'
p1326
ag58
aS'42297781'
p1327
ag608
ag209
ag356
ag14
ag151
ag970
ag153
ag1187
aS'5892092'
p1328
ag26
ag844
ag1011
ag843
ag376
aS'1695839'
p1329
aS'91250534'
p1330
ag896
ag733
ag581
ag597
ag135
ag1260
ag444
asg71
g195
sg72
g196
sg74
g120
sg76
g397
sg77
(iread_data
Room
p1331
(dp1332
g71
g295
sg72
g296
sbsbaaa(lp1333
(lp1334
a(lp1335
a(lp1336
a(lp1337
a(lp1338
aasS'timeslot_dict'
p1339
(dp1340
I0
S'9:00-11:00'
p1341
sI1
S'11:00-13:00'
p1342
sI2
S'13:00-15:00'
p1343
sI3
S'15:00-17:00'
p1344
sI4
S'17:00-19:00'
p1345
ssS'day_dict'
p1346
(dp1347
I0
S'Monday'
p1348
sI1
S'Tuesday'
p1349
sI2
S'Wednesday'
p1350
sI3
S'Thursday'
p1351
sI4
S'Friday'
p1352
ssb.