(ischedule
Schedule
p0
(dp1
S'timetable'
p2
(lp3
(lp4
(lp5
(ischedule
Activity
p6
(dp7
S'participants'
p8
(lp9
S'77636749'
p10
aS'75521763'
p11
aS'19958553'
p12
aS'13116738'
p13
aS'36748818'
p14
aS'29718115'
p15
aS'58332004'
p16
aS'17496687'
p17
aS'75585647'
p18
aS'70878567'
p19
aS'23257088'
p20
aS'44901052'
p21
aS'62701040'
p22
aS'11459236'
p23
aS'92977271'
p24
asS'capacity'
p25
S'15'
p26
sS'name'
p27
S'Informatie- en organsatieontwerp'
p28
sS'ttype'
p29
S'tutorials'
p30
sS'group_id'
p31
S'1'
p32
sS'room'
p33
(iread_data
Room
p34
(dp35
g25
S'56'
p36
sg27
S'A1.10'
p37
sbsba(ischedule
Activity
p38
(dp39
g8
(lp40
S'9731271'
p41
aS'63955238'
p42
aS'54310617'
p43
aS'61518436'
p44
aS'31633723'
p45
aS'84110134'
p46
aS'78136904'
p47
aS'20239127'
p48
aS'28957789'
p49
aS'10792879'
p50
aS'27187154'
p51
aS'47462856'
p52
aS'7492204'
p53
aS'59075181'
p54
aS'72547110'
p55
aS'82688900'
p56
aS'58522654'
p57
aS'59544049'
p58
aS'91139627'
p59
aS'38329455'
p60
aS'99272880'
p61
aS'55474917'
p62
aS'91196968'
p63
aS'79858178'
p64
aS'79366078'
p65
aS'77240949'
p66
aS'56749879'
p67
aS'11915563'
p68
aS'41527759'
p69
aS'94955328'
p70
aS'34262212'
p71
aS'97019450'
p72
aS'39659121'
p73
aS'76924297'
p74
aS'47605891'
p75
aS'18266644'
p76
ag10
aS'74182182'
p77
aS'94467156'
p78
aS'63634350'
p79
aS'32705005'
p80
aS'37498675'
p81
aS'46570285'
p82
aS'69086548'
p83
aS'10872825'
p84
aS'14671406'
p85
aS'58469172'
p86
aS'65003379'
p87
aS'14591033'
p88
aS'22731474'
p89
aS'84524083'
p90
aS'56988998'
p91
aS'51542218'
p92
aS'31247305'
p93
aS'64296965'
p94
aS'54569540'
p95
aS'39230359'
p96
aS'51186803'
p97
aS'42115591'
p98
aS'20331158'
p99
aS'23798155'
p100
aS'89338938'
p101
ag16
aS'49631542'
p102
aS'36903574'
p103
aS'63408522'
p104
aS'96054456'
p105
aS'5615125'
p106
aS'38499176'
p107
aS'34243356'
p108
aS'14398123'
p109
aS'3685034'
p110
aS'78735049'
p111
aS'81218347'
p112
aS'17823206'
p113
aS'44940353'
p114
aS'24875739'
p115
aS'97371272'
p116
aS'8522855'
p117
aS'5368702'
p118
aS'20883994'
p119
aS'39919665'
p120
aS'23391676'
p121
aS'41585485'
p122
asg25
I1000
sg27
S'Kansrekenen 2'
p123
sg29
S'lectures'
p124
sg31
I0
sg33
(iread_data
Room
p125
(dp126
g25
S'22'
p127
sg27
S'A1.06'
p128
sbsba(ischedule
Activity
p129
(dp130
g8
(lp131
S'72895450'
p132
aS'43902015'
p133
aS'64554442'
p134
aS'3474870'
p135
aS'3707829'
p136
aS'1665980'
p137
aS'81385263'
p138
ag47
aS'12077419'
p139
aS'64947290'
p140
aS'91527663'
p141
aS'23983476'
p142
aS'86988337'
p143
ag69
aS'50143947'
p144
aS'96453361'
p145
aS'53585410'
p146
aS'58592894'
p147
aS'27298319'
p148
aS'21095566'
p149
aS'26260141'
p150
ag122
aS'15902055'
p151
aS'67817269'
p152
aS'5976174'
p153
aS'88596522'
p154
ag85
ag117
aS'82689818'
p155
aS'57467488'
p156
aS'66433883'
p157
aS'44828429'
p158
aS'51509565'
p159
aS'77376714'
p160
aS'51566595'
p161
aS'23652927'
p162
aS'34765676'
p163
aS'19540225'
p164
aS'46701583'
p165
aS'21964491'
p166
ag103
aS'52715680'
p167
aS'40343779'
p168
asg25
I1000
sg27
S'Algoritmen en complexiteit'
p169
sg29
g124
sg31
I0
sg33
(iread_data
Room
p170
(dp171
g25
S'48'
p172
sg27
S'B0.201'
p173
sbsba(ischedule
Activity
p174
(dp175
g8
(lp176
S'37110913'
p177
aS'49922855'
p178
aS'5298748'
p179
aS'99975346'
p180
aS'32044893'
p181
aS'51415617'
p182
aS'27950803'
p183
aS'13092455'
p184
aS'22871048'
p185
aS'70844780'
p186
aS'77392404'
p187
aS'38296757'
p188
ag47
aS'60352393'
p189
asg25
S'20'
p190
sg27
S'Reflectie op de digitale cultuur'
p191
sg29
g30
sg31
S'3'
p192
sg33
(iread_data
Room
p193
(dp194
g25
S'20'
p195
sg27
S'A1.08'
p196
sbsba(ischedule
Activity
p197
(dp198
g8
(lp199
S'55412918'
p200
aS'41578612'
p201
aS'31416266'
p202
aS'670011'
p203
aS'93566383'
p204
aS'5517869'
p205
ag108
aS'32595335'
p206
ag107
aS'16333449'
p207
ag63
ag135
aS'80709893'
p208
aS'87758823'
p209
aS'66570705'
p210
aS'61060652'
p211
aS'90743504'
p212
aS'36508571'
p213
ag112
aS'37399898'
p214
aS'42778953'
p215
aS'79617364'
p216
aS'48308205'
p217
ag70
aS'71839156'
p218
aS'77896638'
p219
aS'16011419'
p220
ag77
ag88
aS'58866007'
p221
aS'94686490'
p222
aS'83210352'
p223
aS'35330349'
p224
aS'21311067'
p225
aS'68409833'
p226
aS'10149535'
p227
aS'36527838'
p228
aS'96118484'
p229
aS'56872729'
p230
aS'62872965'
p231
ag62
ag138
ag98
aS'16097870'
p232
aS'42196732'
p233
aS'4921119'
p234
aS'23565001'
p235
aS'80998260'
p236
aS'79937969'
p237
aS'54074680'
p238
aS'34588570'
p239
aS'75005528'
p240
aS'52311353'
p241
aS'26172512'
p242
asg25
I1000
sg27
S'Lineaire Algebra'
p243
sg29
g124
sg31
I0
sg33
(iread_data
Room
p244
(dp245
g25
S'117'
p246
sg27
S'C0.110'
p247
sbsbaa(lp248
(ischedule
Activity
p249
(dp250
g8
(lp251
S'14383795'
p252
aS'23547619'
p253
ag116
aS'68315599'
p254
ag83
aS'22323043'
p255
aS'47982619'
p256
aS'76487754'
p257
ag139
ag201
aS'11996292'
p258
ag217
aS'14309255'
p259
aS'9332762'
p260
aS'12430748'
p261
asg25
S'20'
p262
sg27
S'Technology for games'
p263
sg29
g30
sg31
S'2'
p264
sg33
(iread_data
Room
p265
(dp266
g25
g172
sg27
g173
sbsba(ischedule
Activity
p267
(dp268
g8
(lp269
S'33760909'
p270
aS'81200278'
p271
ag79
aS'52304977'
p272
aS'83869542'
p273
aS'1886996'
p274
ag232
aS'35315956'
p275
ag90
aS'57086672'
p276
ag203
aS'81022997'
p277
aS'27925117'
p278
aS'78243495'
p279
aS'58736785'
p280
ag180
aS'87602030'
p281
aS'72652638'
p282
asg25
S'20'
p283
sg27
S'Heuristieken 2'
p284
sg29
g30
sg31
g264
sg33
(iread_data
Room
p285
(dp286
g25
g246
sg27
g247
sbsba(ischedule
Activity
p287
(dp288
g8
(lp289
g137
ag140
ag142
ag69
ag145
ag147
ag154
ag158
ag160
ag162
ag164
ag166
ag167
ag153
ag85
ag103
ag146
ag165
ag148
ag135
asg25
S'25'
p290
sg27
g169
sg29
g30
sg31
g264
sg33
(iread_data
Room
p291
(dp292
g25
g195
sg27
g196
sbsba(ischedule
Activity
p293
(dp294
g8
(lp295
S'62736669'
p296
aS'43027916'
p297
ag105
aS'29526540'
p298
aS'15187217'
p299
ag205
aS'72456780'
p300
aS'40434933'
p301
aS'26406342'
p302
aS'29640619'
p303
aS'17222374'
p304
aS'88752563'
p305
ag273
ag94
aS'5085194'
p306
ag143
aS'77960666'
p307
ag234
ag184
ag203
ag141
aS'47477884'
p308
aS'58083680'
p309
ag133
aS'46989508'
p310
aS'25077484'
p311
ag161
aS'5526560'
p312
ag219
aS'14816774'
p313
aS'23658570'
p314
aS'3168419'
p315
ag20
aS'39459642'
p316
ag102
aS'72796858'
p317
ag140
aS'17092717'
p318
ag16
aS'26207525'
p319
aS'78821918'
p320
aS'40141996'
p321
ag156
aS'73823548'
p322
aS'56121590'
p323
ag258
aS'76123484'
p324
aS'247918'
p325
aS'59397895'
p326
aS'56191333'
p327
aS'34872117'
p328
aS'86180471'
p329
ag222
ag147
aS'27123462'
p330
aS'12091019'
p331
ag67
aS'24277163'
p332
ag155
aS'4529208'
p333
ag240
aS'37701751'
p334
aS'54540997'
p335
aS'47932106'
p336
aS'52552718'
p337
aS'70072978'
p338
ag230
ag233
ag189
aS'90474003'
p339
ag92
aS'13132925'
p340
asg25
I1000
sg27
S'Databases 2'
p341
sg29
g124
sg31
I0
sg33
(iread_data
Room
p342
(dp343
g25
S'60'
p344
sg27
S'C1.112'
p345
sbsba(ischedule
Activity
p346
(dp347
g8
(lp348
g148
ag226
aS'34806836'
p349
aS'62356458'
p350
aS'88627897'
p351
ag161
ag232
aS'54026378'
p352
ag205
ag68
ag213
asg25
S'10'
p353
sg27
S'Autonomous Agents 2'
p354
sg29
g30
sg31
g32
sg33
(iread_data
Room
p355
(dp356
g25
S'41'
p357
sg27
S'A1.04'
p358
sbsbaa(lp359
(ischedule
Activity
p360
(dp361
g8
(lp362
S'51052738'
p363
aS'13718298'
p364
ag177
ag110
aS'68286356'
p365
ag178
ag188
ag189
ag179
aS'92778619'
p366
aS'6913074'
p367
ag186
ag95
ag90
ag180
aS'36785409'
p368
aS'70193386'
p369
aS'59753700'
p370
ag47
aS'87830198'
p371
aS'4709948'
p372
aS'20095994'
p373
ag143
aS'22826928'
p374
aS'36213792'
p375
aS'27805666'
p376
ag181
ag167
ag187
aS'60661905'
p377
ag339
aS'27370083'
p378
ag182
aS'42406214'
p379
ag307
ag183
aS'82390428'
p380
ag214
aS'13658563'
p381
ag332
aS'99453514'
p382
ag48
aS'43680781'
p383
ag201
ag184
ag44
ag276
ag185
aS'96554914'
p384
aS'33776961'
p385
aS'84449005'
p386
asg25
I1000
sg27
g191
sg29
g124
sg31
I0
sg33
(iread_data
Room
p387
(dp388
g25
g357
sg27
g358
sbsba(ischedule
Activity
p389
(dp390
g8
(lp391
g332
aS'64228258'
p392
ag166
ag202
ag66
ag303
ag219
aS'7308727'
p393
ag11
aS'72577292'
p394
aS'17575088'
p395
ag144
aS'3233378'
p396
ag155
aS'50184318'
p397
ag215
ag324
aS'51741554'
p398
aS'48601268'
p399
ag224
aS'37770881'
p400
aS'64393888'
p401
aS'60312776'
p402
aS'97135019'
p403
aS'34773179'
p404
aS'46052388'
p405
aS'86291592'
p406
aS'13534377'
p407
aS'57595888'
p408
ag302
aS'45556081'
p409
aS'22699561'
p410
aS'61443567'
p411
ag209
ag137
ag43
ag94
aS'29474737'
p412
ag233
aS'73980360'
p413
ag205
ag270
ag297
aS'1075391'
p414
aS'53107172'
p415
ag260
ag151
aS'68601184'
p416
aS'25106480'
p417
ag304
ag22
aS'96104167'
p418
aS'4783858'
p419
aS'1696500'
p420
ag57
ag184
ag253
aS'86000192'
p421
aS'28357474'
p422
aS'65960683'
p423
aS'42171678'
p424
asg25
I1000
sg27
S'Collectieve Intelligentie'
p425
sg29
g124
sg31
I0
sg33
(iread_data
Room
p426
(dp427
g25
g344
sg27
g345
sbsba(ischedule
Activity
p428
(dp429
g8
(lp430
g14
aS'75997788'
p431
ag338
ag147
aS'66621166'
p432
ag16
ag320
aS'18144425'
p433
aS'30658799'
p434
aS'11741347'
p435
aS'27916487'
p436
aS'96082155'
p437
ag304
aS'41489515'
p438
ag279
aS'1181560'
p439
asg25
S'20'
p440
sg27
S'Moderne Databases'
p441
sg29
g30
sg31
g192
sg33
(iread_data
Room
p442
(dp443
g25
g172
sg27
g173
sbsba(ischedule
Activity
p444
(dp445
g8
(lp446
S'72665524'
p447
ag315
asg25
S'10'
p448
sg27
S'Advanced Heuristics'
p449
sg29
S'labs'
p450
sg31
g32
sg33
(iread_data
Room
p451
(dp452
g25
g195
sg27
g196
sbsba(ischedule
Activity
p453
(dp454
g8
(lp455
g142
ag51
ag406
ag41
aS'44391517'
p456
ag20
aS'88597745'
p457
ag63
ag204
aS'83415514'
p458
ag103
ag234
aS'45414528'
p459
aS'10698627'
p460
ag165
ag421
aS'20618153'
p461
asg25
S'20'
p462
sg27
S'Programmeren in Java 2'
p463
sg29
g450
sg31
g32
sg33
(iread_data
Room
p464
(dp465
g25
g246
sg27
g247
sbsba(ischedule
Activity
p466
(dp467
g8
(lp468
S'61611295'
p469
aS'70113753'
p470
ag337
ag68
ag148
ag352
ag213
asg25
S'10'
p471
sg27
g354
sg29
g450
sg31
g192
sg33
(iread_data
Room
p472
(dp473
g25
g127
sg27
g128
sbsbaa(lp474
(ischedule
Activity
p475
(dp476
g8
g199
sg25
I1000
sg27
g243
sg29
g124
sg31
I0
sg33
g285
sba(ischedule
Activity
p477
(dp478
g8
(lp479
S'43689934'
p480
aS'2317551'
p481
aS'48503689'
p482
aS'24613625'
p483
ag215
aS'75599734'
p484
ag328
ag57
aS'92665222'
p485
ag138
ag456
ag108
aS'95007221'
p486
aS'13911001'
p487
aS'79167252'
p488
aS'94687383'
p489
ag310
aS'2079771'
p490
aS'53202517'
p491
aS'73236988'
p492
ag183
aS'6723948'
p493
aS'34110913'
p494
ag423
aS'5595824'
p495
ag68
aS'79033175'
p496
aS'83266686'
p497
aS'76661016'
p498
ag51
aS'49683101'
p499
ag118
aS'31194811'
p500
aS'7957843'
p501
asg25
S'40'
p502
sg27
S'Compilerbouw'
p503
sg29
g450
sg31
g264
sg33
g34
sba(ischedule
Activity
p504
(dp505
g8
(lp506
S'32183908'
p507
aS'2550487'
p508
aS'90103047'
p509
ag46
aS'63939720'
p510
aS'81116418'
p511
ag492
aS'34691309'
p512
ag393
aS'1766560'
p513
ag305
ag101
aS'19662602'
p514
ag184
asg25
S'15'
p515
sg27
S'Project Numerical Recipes'
p516
sg29
g450
sg31
g32
sg33
(iread_data
Room
p517
(dp518
g25
g195
sg27
g196
sbsba(ischedule
Activity
p519
(dp520
g8
(lp521
S'79879876'
p522
aS'4568018'
p523
ag24
ag431
aS'87210640'
p524
ag381
ag424
aS'45660925'
p525
ag88
ag420
aS'94930277'
p526
ag54
ag185
aS'4353500'
p527
aS'83443653'
p528
aS'31897288'
p529
aS'97417002'
p530
ag211
ag103
aS'76393508'
p531
ag255
aS'20830477'
p532
aS'14138904'
p533
asg25
S'25'
p534
sg27
S'Heuristieken 1'
p535
sg29
g30
sg31
g32
sg33
(iread_data
Room
p536
(dp537
g25
g357
sg27
g358
sbsba(ischedule
Activity
p538
(dp539
g8
(lp540
S'8557857'
p541
ag18
ag20
ag16
ag23
ag22
ag381
ag21
ag10
ag15
ag11
ag142
ag12
ag254
aS'32204977'
p542
ag76
ag24
ag17
ag13
ag19
ag14
asg25
I1000
sg27
g28
sg29
g124
sg31
I0
sg33
(iread_data
Room
p543
(dp544
g25
g127
sg27
g128
sbsba(ischedule
Activity
p545
(dp546
g8
(lp547
g392
ag394
ag155
ag401
ag405
ag302
ag209
ag260
ag304
ag419
ag184
asg25
S'20'
p548
sg27
g425
sg29
g450
sg31
g264
sg33
(iread_data
Room
p549
(dp550
g25
g172
sg27
g173
sbsba(ischedule
Activity
p551
(dp552
g8
(lp553
g158
aS'19214659'
p554
aS'81155296'
p555
aS'21677389'
p556
ag334
ag214
aS'4546613'
p557
aS'14847953'
p558
ag163
aS'28055464'
p559
ag271
ag508
ag498
ag74
aS'65675896'
p560
aS'66034145'
p561
ag118
ag136
ag138
ag204
aS'38179241'
p562
aS'20374340'
p563
aS'69634191'
p564
ag253
aS'64768422'
p565
asg25
I1000
sg27
S'Interactie-ontwerp'
p566
sg29
g124
sg31
I0
sg33
(iread_data
Room
p567
(dp568
g25
g344
sg27
g345
sbsbaa(lp569
(ischedule
Activity
p570
(dp571
g8
(lp572
S'95631564'
p573
aS'73302736'
p574
ag58
ag211
aS'44868097'
p575
aS'62105897'
p576
ag101
ag422
ag255
ag62
ag183
ag484
aS'11068043'
p577
ag352
ag350
aS'33877725'
p578
aS'31103066'
p579
ag85
aS'58565406'
p580
aS'82872148'
p581
ag259
aS'37830626'
p582
ag226
ag223
aS'44671041'
p583
ag185
aS'78443067'
p584
aS'1048485'
p585
aS'89180944'
p586
aS'9287708'
p587
ag303
aS'14072826'
p588
ag384
ag149
aS'41153310'
p589
ag337
aS'45915482'
p590
aS'65318664'
p591
ag279
aS'37744525'
p592
ag144
aS'99283252'
p593
aS'48357272'
p594
ag417
ag364
ag93
ag46
ag168
ag68
asg25
S'40'
p595
sg27
S'Software engineering'
p596
sg29
g30
sg31
g32
sg33
(iread_data
Room
p597
(dp598
g25
g344
sg27
g345
sbsba(ischedule
Activity
p599
(dp600
g8
(lp601
g105
ag483
ag325
ag89
ag575
ag67
aS'15051051'
p602
ag492
aS'30195935'
p603
ag166
asg25
S'20'
p604
sg27
S'Bioinformatica'
p605
sg29
g450
sg31
g192
sg33
(iread_data
Room
p606
(dp607
g25
g127
sg27
g128
sbsba(ischedule
Activity
p608
(dp609
g8
(lp610
g317
ag232
ag205
aS'19858730'
p611
ag177
ag351
ag316
aS'74131924'
p612
ag161
asg25
g471
sg27
g354
sg29
g450
sg31
g264
sg33
(iread_data
Room
p613
(dp614
g25
g172
sg27
g173
sbsba(ischedule
Activity
p615
(dp616
g8
(lp617
S'16912993'
p618
aS'5590289'
p619
ag371
ag189
aS'123355'
p620
ag592
aS'70939718'
p621
aS'63573738'
p622
ag300
ag327
aS'25557516'
p623
ag403
asg25
S'20'
p624
sg27
S'Netwerken en systeembeveiliging'
p625
sg29
g450
sg31
g192
sg33
(iread_data
Room
p626
(dp627
g25
g246
sg27
g247
sbsba(ischedule
Activity
p628
(dp629
g8
(lp630
S'79888156'
p631
aS'53139134'
p632
ag322
aS'62363761'
p633
ag77
ag88
ag281
ag419
ag331
aS'3678531'
p634
aS'6939933'
p635
ag562
ag498
aS'87900893'
p636
ag79
aS'19717077'
p637
ag557
ag594
aS'27064249'
p638
ag305
aS'78544592'
p639
aS'65408517'
p640
aS'55530367'
p641
ag216
ag313
aS'65978354'
p642
ag115
aS'10609762'
p643
ag18
aS'93361408'
p644
ag575
aS'37279234'
p645
ag50
ag621
aS'31306819'
p646
ag232
ag165
ag80
ag188
asg25
S'40'
p647
sg27
S'Calculus 2'
p648
sg29
g30
sg31
g32
sg33
(iread_data
Room
p649
(dp650
g25
g357
sg27
g358
sbsba(ischedule
Activity
p651
(dp652
g8
(lp653
S'13218321'
p654
ag385
ag254
ag513
ag338
ag432
ag52
ag16
ag320
ag586
ag435
ag436
ag304
ag160
ag258
aS'59111489'
p655
ag439
ag383
asg25
S'20'
p656
sg27
g441
sg29
g450
sg31
g192
sg33
(iread_data
Room
p657
(dp658
g25
g195
sg27
g196
sbsba(ischedule
Activity
p659
(dp660
g8
(lp661
g367
ag51
ag574
ag111
aS'64600457'
p662
ag314
aS'85335143'
p663
ag41
ag82
ag150
ag493
aS'58253841'
p664
ag392
ag488
aS'72526473'
p665
ag86
aS'58699305'
p666
ag398
aS'14303208'
p667
aS'56348773'
p668
ag222
ag227
aS'77306636'
p669
aS'75623387'
p670
aS'6709529'
p671
ag576
ag230
ag321
ag200
ag431
aS'59220392'
p672
aS'61520025'
p673
asg25
g647
sg27
g648
sg29
g30
sg31
g192
sg33
(iread_data
Room
p674
(dp675
g25
g36
sg27
g37
sbsbaaa(lp676
(lp677
(ischedule
Activity
p678
(dp679
g8
g391
sg25
I1000
sg27
g425
sg29
g124
sg31
I0
sg33
g387
sba(ischedule
Activity
p680
(dp681
g8
(lp682
g383
ag88
ag313
ag105
ag483
ag325
ag367
ag89
ag352
ag575
aS'77831658'
p683
ag57
ag603
ag166
ag233
asg25
S'20'
p684
sg27
g605
sg29
g30
sg31
g192
sg33
(iread_data
Room
p685
(dp686
g25
g127
sg27
g128
sbsba(ischedule
Activity
p687
(dp688
g8
(lp689
g631
ag447
ag584
ag270
aS'75446434'
p690
ag367
ag632
ag50
ag51
ag322
ag146
ag574
ag633
aS'33672995'
p691
ag165
ag77
ag148
ag111
ag88
ag278
ag662
ag329
aS'34173695'
p692
ag314
ag281
aS'56544130'
p693
ag663
ag419
aS'14179347'
p694
ag41
ag331
ag575
ag82
ag634
ag147
ag150
ag635
ag151
ag493
ag562
ag590
ag664
ag498
aS'82412626'
p695
ag392
ag636
aS'23628642'
p696
ag488
ag79
ag49
ag665
ag637
ag232
ag86
ag557
aS'11593163'
p697
ag666
ag673
ag106
ag398
ag594
ag421
ag667
ag638
ag336
ag668
ag305
ag555
ag222
ag639
ag458
ag646
ag640
ag621
ag227
ag308
aS'86807027'
p698
ag497
ag641
ag403
ag669
ag216
aS'88855695'
p699
ag670
ag313
ag80
ag671
ag642
aS'22168693'
p700
ag576
ag115
aS'21029457'
p701
ag230
ag643
ag235
ag321
ag18
aS'58040377'
p702
ag645
ag644
ag105
ag200
aS'80188025'
p703
ag188
ag431
ag672
asg25
I1000
sg27
g648
sg29
g124
sg31
I0
sg33
(iread_data
Room
p704
(dp705
g25
g246
sg27
g247
sbsba(ischedule
Activity
p706
(dp707
g8
g553
sg25
I1000
sg27
g566
sg29
g124
sg31
I0
sg33
(iread_data
Room
p708
(dp709
g25
g172
sg27
g173
sbsba(ischedule
Activity
p710
(dp711
g8
(lp712
g148
ag317
ag316
ag226
ag232
ag612
ag349
ag68
ag21
ag350
ag205
ag185
ag231
ag352
ag469
ag351
ag611
ag470
ag161
ag177
ag337
ag213
asg25
I1000
sg27
g354
sg29
g124
sg31
I0
sg33
(iread_data
Room
p713
(dp714
g25
g195
sg27
g196
sbsba(ischedule
Activity
p715
(dp716
g8
(lp717
S'97136582'
p718
ag370
aS'66122625'
p719
aS'19337738'
p720
ag166
ag63
ag241
aS'25330192'
p721
ag382
ag19
ag271
ag459
ag255
asg25
S'10'
p722
sg27
S'Data Mining'
p723
sg29
g450
sg31
g32
sg33
(iread_data
Room
p724
(dp725
g25
g344
sg27
g345
sbsba(ischedule
Activity
p726
(dp727
g8
(lp728
S'24891081'
p729
ag394
aS'53512831'
p730
aS'2416751'
p731
ag279
ag578
aS'41790793'
p732
aS'69459473'
p733
ag411
aS'67073567'
p734
aS'76648468'
p735
ag187
aS'49908313'
p736
aS'76903244'
p737
ag491
ag133
ag132
aS'6249823'
p738
ag526
asg25
S'20'
p739
sg27
S'Webprogrammeren en databases'
p740
sg29
g450
sg31
g32
sg33
(iread_data
Room
p741
(dp742
g25
g36
sg27
g37
sbsbaa(lp743
(ischedule
Activity
p744
(dp745
g8
(lp746
g698
ag72
ag611
ag258
ag67
ag156
ag415
ag419
ag177
ag21
aS'53775014'
p747
ag99
ag594
ag313
aS'98105190'
p748
aS'14941752'
p749
ag218
ag112
ag11
ag719
ag280
asg25
g534
sg27
g535
sg29
g30
sg31
g264
sg33
g285
sba(ischedule
Activity
p750
(dp751
g8
(lp752
g18
ag22
ag21
ag15
ag142
ag76
ag17
ag19
ag14
ag10
ag13
ag16
ag542
ag12
ag381
asg25
S'15'
p753
sg27
g28
sg29
g450
sg31
g264
sg33
g34
sba(ischedule
Activity
p754
(dp755
g8
(lp756
S'59289233'
p757
ag394
aS'70015932'
p758
ag221
ag100
ag227
ag278
ag155
ag586
ag99
ag15
aS'72683344'
p759
ag499
ag409
aS'13798030'
p760
aS'43460038'
p761
ag328
ag301
aS'28618400'
p762
ag497
ag533
asg25
I1000
sg27
S'Architectuur en computerorganisatie'
p763
sg29
g124
sg31
I0
sg33
(iread_data
Room
p764
(dp765
g25
g172
sg27
g173
sbsba(ischedule
Activity
p766
(dp767
g8
(lp768
g701
aS'89985072'
p769
ag58
aS'28359697'
p770
ag492
ag19
ag119
ag612
ag491
ag577
ag602
asg25
g684
sg27
g605
sg29
g30
sg31
g32
sg33
(iread_data
Room
p771
(dp772
g25
g357
sg27
g358
sbsba(ischedule
Activity
p773
(dp774
g8
(lp775
g134
ag136
ag138
ag139
ag141
ag143
ag144
ag151
ag155
ag157
ag159
ag161
ag163
ag168
ag117
ag122
ag132
ag149
ag156
ag47
ag150
ag133
ag152
asg25
g290
sg27
g169
sg29
g30
sg31
g32
sg33
(iread_data
Room
p776
(dp777
g25
g195
sg27
g196
sbsba(ischedule
Activity
p778
(dp779
g8
g391
sg25
I1000
sg27
g425
sg29
g124
sg31
I0
sg33
(iread_data
Room
p780
(dp781
g25
g127
sg27
g128
sbsba(ischedule
Activity
p782
(dp783
g8
(lp784
g101
ag383
aS'75664412'
p785
ag542
aS'21192048'
p786
ag21
ag663
aS'70336464'
p787
ag301
aS'4697362'
p788
ag11
ag738
aS'92496780'
p789
aS'77264363'
p790
ag368
ag302
ag177
ag500
ag580
aS'7106649'
p791
ag10
aS'93041523'
p792
ag227
asg25
g262
sg27
g263
sg29
g30
sg31
g32
sg33
(iread_data
Room
p793
(dp794
g25
g344
sg27
g345
sbsbaa(lp795
(ischedule
Activity
p796
(dp797
g8
(lp798
g101
ag252
ag383
ag253
ag785
ag10
ag542
ag177
ag786
ag217
ag21
ag116
ag663
ag254
ag787
ag791
ag301
ag580
ag788
ag792
ag11
ag83
ag261
ag255
ag260
ag227
ag738
ag256
ag789
ag257
ag790
ag139
ag368
ag201
ag259
ag258
ag302
ag500
asg25
I1000
sg27
g263
sg29
g124
sg31
I0
sg33
g387
sba(ischedule
Activity
p799
(dp800
g8
(lp801
g585
ag186
aS'66120270'
p802
ag398
ag54
aS'72586808'
p803
ag103
ag41
ag633
aS'48678993'
p804
aS'54772132'
p805
ag785
ag718
aS'535689'
p806
ag319
ag168
ag155
ag93
ag406
ag721
asg25
g624
sg27
g625
sg29
g450
sg31
g32
sg33
g291
sba(ischedule
Activity
p807
(dp808
g8
(lp809
g168
ag160
ag364
aS'51593625'
p810
ag208
ag78
ag150
ag417
ag419
ag144
ag396
ag769
ag98
ag279
aS'3727435'
p811
ag492
ag593
ag167
ag46
ag241
ag68
ag592
ag557
ag591
aS'58074656'
p812
aS'88176729'
p813
ag153
ag337
ag523
ag303
ag580
ag384
ag185
ag640
asg25
S'40'
p814
sg27
g596
sg29
g450
sg31
g264
sg33
g265
sba(ischedule
Activity
p815
(dp816
g8
g540
sg25
I1000
sg27
g28
sg29
g124
sg31
I0
sg33
g685
sba(ischedule
Activity
p817
(dp818
g8
(lp819
g370
aS'93023961'
p820
ag720
ag166
ag63
ag271
ag19
ag161
ag255
asg25
S'10'
p821
sg27
g723
sg29
g30
sg31
g32
sg33
g285
sba(ischedule
Activity
p822
(dp823
g8
(lp824
g612
ag57
ag813
ag578
ag683
ag493
ag179
ag374
ag145
ag383
ag352
ag88
ag491
ag119
aS'33930505'
p825
asg25
g604
sg27
g605
sg29
g450
sg31
g264
sg33
(iread_data
Room
p826
(dp827
g25
g344
sg27
g345
sbsba(ischedule
Activity
p828
(dp829
g8
(lp830
g634
ag698
ag532
aS'90296821'
p831
ag303
ag157
ag121
ag488
ag576
ag53
ag70
aS'63111000'
p832
aS'28943658'
p833
ag203
ag61
ag585
ag122
ag805
aS'88263855'
p834
ag489
ag338
aS'73196865'
p835
asg25
g462
sg27
g463
sg29
g450
sg31
S'5'
p836
sg33
(iread_data
Room
p837
(dp838
g25
g36
sg27
g37
sbsbaa(lp839
(ischedule
Activity
p840
(dp841
g8
(lp842
S'56815156'
p843
ag663
ag825
ag603
ag612
ag383
ag271
ag57
ag491
ag701
ag813
ag88
ag769
ag166
ag313
ag58
ag578
ag105
ag770
ag683
ag483
ag492
ag393
ag325
ag315
ag493
ag577
ag298
ag179
ag367
ag19
ag523
ag89
ag802
ag374
ag352
ag662
ag216
ag575
ag119
aS'30050930'
p844
ag67
ag233
ag145
ag602
asg25
I1000
sg27
g605
sg29
g124
sg31
I0
sg33
(iread_data
Room
p845
(dp846
g25
g246
sg27
g247
sbsba(ischedule
Activity
p847
(dp848
g8
(lp849
g134
ag136
ag138
ag139
ag141
ag144
ag146
ag150
ag151
ag153
ag85
ag155
ag159
ag161
ag163
ag168
ag145
ag117
ag135
ag122
ag103
ag148
asg25
S'25'
p850
sg27
g169
sg29
g450
sg31
g32
sg33
(iread_data
Room
p851
(dp852
g25
g127
sg27
g128
sbsba(ischedule
Activity
p853
(dp854
g8
(lp855
g218
ag769
ag252
aS'51472074'
p856
ag577
ag107
ag79
ag408
aS'5892092'
p857
aS'1695839'
p858
aS'55103073'
p859
ag61
ag306
aS'51673172'
p860
ag560
ag302
ag167
asg25
S'15'
p861
sg27
S'Compilerbouw practicum'
p862
sg29
g450
sg31
g192
sg33
(iread_data
Room
p863
(dp864
g25
g357
sg27
g358
sbsba(ischedule
Activity
p865
(dp866
g8
(lp867
g276
ag185
ag591
aS'58480929'
p868
ag495
aS'88737765'
p869
aS'34900967'
p870
aS'97838175'
p871
ag804
aS'62613937'
p872
aS'78822885'
p873
ag108
ag234
ag100
ag306
ag235
ag843
ag703
ag594
ag98
ag371
ag232
ag76
ag368
ag300
ag72
aS'18477924'
p874
ag574
ag314
ag70
ag691
ag94
ag377
ag663
ag431
ag92
aS'82854435'
p875
ag297
ag364
ag683
ag528
ag201
ag320
ag803
ag369
ag241
aS'14637758'
p876
aS'73350019'
p877
ag693
asg25
I1000
sg27
S'Analysemethoden en -technieken'
p878
sg29
g124
sg31
I0
sg33
(iread_data
Room
p879
(dp880
g25
g344
sg27
g345
sbsba(ischedule
Activity
p881
(dp882
g8
(lp883
g332
ag66
ag11
ag396
ag324
ag400
ag404
ag408
ag411
ag94
ag205
ag415
ag417
ag253
ag424
ag224
ag413
ag412
ag270
asg25
g548
sg27
g425
sg29
g450
sg31
g32
sg33
(iread_data
Room
p884
(dp885
g25
g172
sg27
g173
sbsba(ischedule
Activity
p886
(dp887
g8
(lp888
g138
ag420
ag556
ag501
ag21
ag581
ag117
ag323
aS'3883025'
p889
aS'59887191'
p890
ag303
ag762
ag825
aS'85284256'
p891
ag156
aS'64246605'
p892
ag527
aS'19058315'
p893
ag447
ag109
ag296
asg25
g624
sg27
g625
sg29
g450
sg31
g264
sg33
(iread_data
Room
p894
(dp895
g25
g36
sg27
g37
sbsba(ischedule
Activity
p896
(dp897
g8
(lp898
g142
ag254
ag76
ag542
ag381
ag541
asg25
g26
sg27
g28
sg29
g30
sg31
g264
sg33
(iread_data
Room
p899
(dp900
g25
g195
sg27
g196
sbsbaa(lp901
(ischedule
Activity
p902
(dp903
g8
(lp904
g143
aS'80135353'
p905
ag498
aS'8464817'
p906
ag495
ag480
ag217
ag481
aS'9067939'
p907
aS'75759231'
p908
ag68
ag482
ag259
ag483
ag400
aS'40791377'
p909
aS'15911353'
p910
ag215
ag501
ag484
ag805
ag328
ag435
ag317
ag785
ag57
ag90
ag499
ag423
ag485
ag500
ag573
ag219
ag138
ag254
ag456
ag494
ag108
ag51
ag434
ag496
ag486
aS'65852230'
p911
ag487
ag139
ag488
ag118
ag748
ag132
ag406
ag50
ag489
aS'66701209'
p912
ag310
aS'13284244'
p913
ag490
aS'88636924'
p914
ag491
ag305
ag492
aS'76802764'
p915
aS'3407554'
p916
ag316
ag183
ag513
ag699
ag402
ag493
ag497
asg25
I1000
sg27
g503
sg29
g124
sg31
I0
sg33
(iread_data
Room
p917
(dp918
g25
g344
sg27
g345
sbsba(ischedule
Activity
p919
(dp920
g8
(lp921
g730
ag731
ag392
ag586
ag276
ag733
ag411
ag734
ag187
ag106
ag761
aS'28358060'
p922
ag461
ag207
asg25
S'20'
p923
sg27
g740
sg29
g30
sg31
g32
sg33
g34
sba(ischedule
Activity
p924
(dp925
g8
(lp926
S'26857113'
p927
ag316
aS'85236626'
p928
ag91
ag499
aS'90067329'
p929
ag490
ag153
ag165
aS'67625383'
p930
ag110
ag602
ag188
ag592
ag44
ag78
ag909
ag832
aS'33252501'
p931
ag51
ag100
ag66
asg25
I1000
sg27
S'Machine Learning'
p932
sg29
g124
sg31
I0
sg33
g291
sba(ischedule
Activity
p933
(dp934
g8
(lp935
g16
ag522
ag113
ag662
aS'15249775'
p936
ag72
aS'64053722'
p937
ag481
ag79
ag71
ag411
aS'88519892'
p938
aS'12782624'
p939
ag62
ag260
asg25
g462
sg27
g463
sg29
g450
sg31
g192
sg33
(iread_data
Room
p940
(dp941
g25
g172
sg27
g173
sbsba(ischedule
Activity
p942
(dp943
g8
g798
sg25
I1000
sg27
g263
sg29
g124
sg31
I0
sg33
(iread_data
Room
p944
(dp945
g25
g127
sg27
g128
sbsba(ischedule
Activity
p946
(dp947
g8
(lp948
g47
ag394
ag189
ag872
aS'40633534'
p949
ag638
ag762
ag119
ag186
ag558
ag274
ag485
ag431
ag253
ag308
aS'39429093'
p950
ag759
ag315
ag447
ag698
asg25
I1000
sg27
g449
sg29
g124
sg31
I0
sg33
(iread_data
Room
p951
(dp952
g25
g357
sg27
g358
sbsba(ischedule
Activity
p953
(dp954
g8
(lp955
g144
aS'68360259'
p956
aS'87314964'
p957
ag592
ag113
ag177
ag277
asg25
g722
sg27
g723
sg29
g450
sg31
g192
sg33
(iread_data
Room
p958
(dp959
g25
g246
sg27
g247
sbsbaaa(lp960
(lp961
(ischedule
Activity
p962
(dp963
g8
(lp964
g143
ag498
ag495
ag217
ag907
ag68
ag259
ag400
ag805
ag435
ag785
ag90
ag423
ag500
ag219
ag494
ag51
ag496
ag139
ag118
ag132
ag912
ag914
ag305
ag316
ag513
ag499
ag490
ag482
ag493
ag908
ag50
ag489
asg25
S'40'
p965
sg27
g503
sg29
g30
sg31
g32
sg33
(iread_data
Room
p966
(dp967
g25
g172
sg27
g173
sbsba(ischedule
Activity
p968
(dp969
g8
(lp970
g144
aS'91250534'
p971
aS'64418623'
p972
ag137
aS'25994016'
p973
aS'82066165'
p974
ag523
ag447
ag916
asg25
g861
sg27
g862
sg29
g450
sg31
g32
sg33
(iread_data
Room
p975
(dp976
g25
g357
sg27
g358
sbsba(ischedule
Activity
p977
(dp978
g8
(lp979
g102
ag663
ag654
ag383
ag584
ag385
aS'27241113'
p980
ag458
ag254
ag655
ag437
ag513
ag487
ag497
ag662
ag889
ag602
ag14
ag205
ag666
ag431
ag304
aS'48198668'
p981
ag338
ag593
aS'51650744'
p982
ag147
ag228
ag279
ag432
ag372
ag298
ag52
ag397
ag386
ag16
ag332
ag639
ag320
ag439
ag82
ag433
ag258
ag438
ag586
ag832
ag160
ag434
ag424
ag259
ag435
ag11
aS'49219163'
p983
ag436
asg25
I1000
sg27
g441
sg29
g124
sg31
I0
sg33
(iread_data
Room
p984
(dp985
g25
g36
sg27
g37
sbsba(ischedule
Activity
p986
(dp987
g8
(lp988
g316
ag612
ag469
ag470
ag337
ag177
ag231
ag611
ag185
ag21
asg25
g353
sg27
g354
sg29
g30
sg31
g192
sg33
(iread_data
Room
p989
(dp990
g25
g344
sg27
g345
sbsba(ischedule
Activity
p991
(dp992
g8
(lp993
S'98780382'
p994
ag255
ag144
ag718
ag19
ag956
ag370
ag277
ag721
ag719
ag636
ag957
ag820
ag459
ag592
ag720
ag13
ag612
ag166
aS'13996448'
p995
ag113
ag63
ag271
ag382
ag241
ag161
ag177
asg25
I1000
sg27
g723
sg29
g124
sg31
I0
sg33
(iread_data
Room
p996
(dp997
g25
g246
sg27
g247
sbsba(ischedule
Activity
p998
(dp999
g8
(lp1000
g461
ag561
ag135
ag922
ag207
aS'1137946'
p1001
ag301
ag318
ag460
aS'22288615'
p1002
ag667
ag558
ag96
ag392
ag276
ag586
ag324
ag638
ag761
ag106
asg25
g739
sg27
g740
sg29
g450
sg31
g264
sg33
(iread_data
Room
p1003
(dp1004
g25
g195
sg27
g196
sbsba(ischedule
Activity
p1005
(dp1006
g8
(lp1007
g905
ag906
ag480
ag481
ag483
ag909
ag215
ag484
ag328
ag317
ag57
ag485
ag573
ag138
ag456
ag108
ag434
ag486
ag487
ag488
ag748
ag406
ag310
ag491
ag492
ag916
ag183
ag699
ag911
ag501
ag497
ag402
ag910
ag915
ag913
ag254
asg25
g965
sg27
g503
sg29
g30
sg31
g264
sg33
(iread_data
Room
p1008
(dp1009
g25
g127
sg27
g128
sbsbaa(lp1010
(ischedule
Activity
p1011
(dp1012
g8
(lp1013
g144
ag956
ag721
ag957
ag592
ag612
ag113
ag382
ag177
ag13
ag459
ag636
ag719
ag994
asg25
g821
sg27
g723
sg29
g30
sg31
g192
sg33
g265
sba(ischedule
Activity
p1014
(dp1015
g8
(lp1016
g201
ag949
ag278
ag183
ag109
ag694
ag281
ag74
ag311
aS'55480737'
p1017
ag165
ag869
asg25
S'15'
p1018
sg27
S'Project Genetic Algorithms'
p1019
sg29
g450
sg31
g32
sg33
g917
sba(ischedule
Activity
p1020
(dp1021
g8
g40
sg25
I1000
sg27
g123
sg29
g124
sg31
I0
sg33
(iread_data
Room
p1022
(dp1023
g25
g195
sg27
g196
sbsba(ischedule
Activity
p1024
(dp1025
g8
(lp1026
g663
ag813
ag578
ag393
ag493
ag179
ag523
ag374
ag216
ag844
ag145
ag67
ag315
ag271
ag662
ag298
ag802
ag843
ag825
asg25
g684
sg27
g605
sg29
g30
sg31
g264
sg33
(iread_data
Room
p1027
(dp1028
g25
g357
sg27
g358
sbsba(ischedule
Activity
p1029
(dp1030
g8
g904
sg25
I1000
sg27
g503
sg29
g124
sg31
I0
sg33
(iread_data
Room
p1031
(dp1032
g25
g246
sg27
g247
sbsba(ischedule
Activity
p1033
(dp1034
g8
(lp1035
g363
ag110
ag366
ag95
ag368
ag373
ag375
ag167
ag339
ag379
ag380
ag332
ag383
ag44
ag276
ag377
ag364
ag367
ag372
ag307
ag371
asg25
g190
sg27
g191
sg29
g30
sg31
g32
sg33
(iread_data
Room
p1036
(dp1037
g25
g36
sg27
g37
sbsba(ischedule
Activity
p1038
(dp1039
g8
(lp1040
g349
ag350
ag231
ag185
ag226
ag21
asg25
g471
sg27
g354
sg29
g450
sg31
g32
sg33
(iread_data
Room
p1041
(dp1042
g25
g127
sg27
g128
sbsbaa(lp1043
(ischedule
Activity
p1044
(dp1045
g8
(lp1046
g843
ag701
ag769
ag770
ag315
ag298
ag19
ag802
ag662
ag233
ag393
ag271
ag313
ag216
ag58
ag577
ag663
ag844
ag367
ag523
asg25
g604
sg27
g605
sg29
g450
sg31
g32
sg33
g265
sba(ischedule
Activity
p1047
(dp1048
g8
(lp1049
g365
ag90
ag369
ag143
ag376
ag378
ag214
ag382
ag201
ag385
ag48
ag386
ag381
ag370
ag374
ag384
asg25
g190
sg27
g191
sg29
g30
sg31
g264
sg33
(iread_data
Room
p1050
(dp1051
g25
g195
sg27
g196
sbsba(ischedule
Activity
p1052
(dp1053
g8
(lp1054
g729
ag461
ag394
ag561
ag730
ag135
ag558
ag737
ag731
ag736
ag279
ag922
ag392
ag207
ag586
ag1001
ag578
ag301
ag276
ag132
ag732
ag324
ag733
ag96
ag411
ag318
ag734
ag460
ag735
ag1002
ag638
ag667
ag187
ag491
ag526
ag738
ag106
ag133
ag761
asg25
I1000
sg27
g740
sg29
g124
sg31
I0
sg33
(iread_data
Room
p1055
(dp1056
g25
g357
sg27
g358
sbsba(ischedule
Activity
p1057
(dp1058
g8
(lp1059
g102
ag980
ag889
ag205
ag593
ag228
ag372
ag832
ag424
ag11
ag434
ag458
ag279
ag431
asg25
g656
sg27
g441
sg29
g450
sg31
g32
sg33
(iread_data
Room
p1060
(dp1061
g25
g246
sg27
g247
sbsba(ischedule
Activity
p1062
(dp1063
g8
g712
sg25
I1000
sg27
g354
sg29
g124
sg31
I0
sg33
(iread_data
Room
p1064
(dp1065
g25
g344
sg27
g345
sbsba(ischedule
Activity
p1066
(dp1067
g8
(lp1068
g995
ag166
ag592
ag151
ag314
ag927
ag307
ag1002
ag905
ag214
ag366
aS'39905995'
p1069
ag107
ag645
ag810
ag702
ag146
aS'7386961'
p1070
ag143
asg25
g462
sg27
g463
sg29
g450
sg31
S'4'
p1071
sg33
(iread_data
Room
p1072
(dp1073
g25
g36
sg27
g37
sbsbaa(lp1074
(ischedule
Activity
p1075
(dp1076
g8
(lp1077
g202
ag393
ag144
ag215
ag224
ag403
ag413
ag414
ag416
ag418
ag184
ag423
ag396
asg25
S'20'
p1078
sg27
g425
sg29
g30
sg31
g1071
sg33
(iread_data
Room
p1079
(dp1080
g25
g172
sg27
g173
sbsba(ischedule
Activity
p1081
(dp1082
g8
(lp1083
g296
ag105
ag299
ag300
ag302
ag273
ag306
ag307
ag184
ag141
ag309
ag310
ag161
ag219
ag20
ag102
ag140
ag16
ag320
ag156
ag323
ag326
ag328
ag222
ag330
ag67
ag155
ag240
ag335
ag337
ag230
ag189
ag305
ag311
ag203
ag333
ag233
ag313
ag147
ag312
ag304
ag143
ag329
ag340
ag336
ag315
ag94
ag324
ag332
asg25
S'40'
p1084
sg27
g341
sg29
g30
sg31
g32
sg33
(iread_data
Room
p1085
(dp1086
g25
g246
sg27
g247
sbsba(ischedule
Activity
p1087
(dp1088
g8
(lp1089
g573
ag574
ag58
ag211
ag575
ag576
ag101
ag422
ag758
ag255
ag62
ag183
ag484
ag577
ag350
ag578
ag579
ag85
ag581
ag259
ag582
ag226
ag223
ag583
ag584
ag585
aS'27582862'
p1090
ag588
ag589
ag69
ag761
ag45
ag399
ag93
ag402
ag590
ag352
ag594
ag149
ag587
ag586
asg25
g814
sg27
g596
sg29
g450
sg31
g32
sg33
(iread_data
Room
p1091
(dp1092
g25
g357
sg27
g358
sbsba(ischedule
Activity
p1093
(dp1094
g8
(lp1095
g317
asg25
g353
sg27
g354
sg29
g30
sg31
g264
sg33
(iread_data
Room
p1096
(dp1097
g25
g344
sg27
g345
sbsba(ischedule
Activity
p1098
(dp1099
g8
(lp1100
g261
ag749
ag77
ag698
ag501
ag995
ag132
ag622
aS'21070547'
p1101
aS'40911986'
p1102
aS'37419523'
p1103
ag110
ag554
ag577
ag322
ag482
asg25
g515
sg27
g516
sg29
g450
sg31
g264
sg33
(iread_data
Room
p1104
(dp1105
g25
g195
sg27
g196
sbsbaa(lp1106
(ischedule
Activity
p1107
(dp1108
g8
(lp1109
g522
ag103
ag523
ag698
ag24
ag72
ag431
ag611
ag524
ag258
ag112
ag67
ag218
ag255
ag381
ag531
ag424
ag156
ag525
ag415
ag88
ag419
ag420
ag719
ag526
ag177
ag54
ag21
ag533
ag747
ag11
ag99
ag185
ag594
ag527
ag313
ag528
ag211
ag529
ag748
ag280
ag532
ag530
ag749
asg25
I1000
sg27
g535
sg29
g124
sg31
I0
sg33
g265
sba(ischedule
Activity
p1110
(dp1111
g8
g842
sg25
I1000
sg27
g605
sg29
g124
sg31
I0
sg33
g917
sba(ischedule
Activity
p1112
(dp1113
g8
(lp1114
g277
ag995
ag718
ag241
asg25
g821
sg27
g723
sg29
g30
sg31
g264
sg33
(iread_data
Room
p1115
(dp1116
g25
g357
sg27
g358
sbsba(ischedule
Activity
p1117
(dp1118
g8
(lp1119
g392
ag303
ag394
ag155
ag398
ag401
ag405
ag302
ag209
ag412
ag270
ag260
ag304
ag421
ag402
ag415
ag410
ag43
asg25
g1078
sg27
g425
sg29
g30
sg31
g264
sg33
(iread_data
Room
p1120
(dp1121
g25
g127
sg27
g128
sbsba(ischedule
Activity
p1122
(dp1123
g8
g1054
sg25
I1000
sg27
g740
sg29
g124
sg31
I0
sg33
(iread_data
Room
p1124
(dp1125
g25
g36
sg27
g37
sbsba(ischedule
Activity
p1126
(dp1127
g8
(lp1128
g806
aS'41644639'
p1129
aS'74361881'
p1130
ag146
ag154
ag23
aS'44151631'
p1131
ag542
aS'47260040'
p1132
aS'42297781'
p1133
ag487
ag533
ag667
aS'23215240'
p1134
asg25
g861
sg27
g862
sg29
g450
sg31
g264
sg33
(iread_data
Room
p1135
(dp1136
g25
g195
sg27
g196
sbsbaaa(lp1137
(lp1138
(ischedule
Activity
p1139
(dp1140
g8
(lp1141
g573
ag168
ag574
ag69
ag58
ag160
ag211
ag364
ag575
ag761
ag576
ag402
ag101
ag810
ag422
ag208
ag758
ag78
ag255
ag45
ag62
ag150
ag93
ag417
ag183
ag419
ag484
ag144
ag577
ag396
ag352
ag769
ag350
ag98
ag578
ag279
ag579
ag590
ag85
ag811
ag580
ag492
ag581
ag593
ag259
ag167
ag582
ag46
ag226
ag241
ag223
ag68
ag583
ag592
ag185
ag557
ag584
ag591
ag585
ag812
ag586
ag813
ag1090
ag640
ag587
ag594
ag303
ag399
ag588
ag153
ag384
ag337
ag149
ag523
ag589
asg25
I1000
sg27
g596
sg29
g124
sg31
I0
sg33
g265
sba(ischedule
Activity
p1142
(dp1143
g8
(lp1144
g791
ag529
ag180
ag270
ag280
ag271
ag804
ag79
ag282
ag153
ag279
ag272
ag297
ag273
ag936
ag274
ag163
aS'82968410'
p1145
ag161
aS'5739011'
p1146
ag89
ag232
ag928
ag275
ag702
ag90
ag411
ag276
ag278
ag281
ag277
ag203
asg25
I1000
sg27
g284
sg29
g124
sg31
I0
sg33
(iread_data
Room
p1147
(dp1148
g25
g357
sg27
g358
sbsba(ischedule
Activity
p1149
(dp1150
g8
(lp1151
g107
aS'12170832'
p1152
ag187
ag271
aS'53267490'
p1153
ag393
ag277
ag108
ag372
ag603
ag76
asg25
g624
sg27
g625
sg29
g450
sg31
g1071
sg33
(iread_data
Room
p1154
(dp1155
g25
g195
sg27
g196
sbsba(ischedule
Activity
p1156
(dp1157
g8
(lp1158
g663
ag584
ag437
ag497
ag602
ag666
ag981
ag298
ag386
ag639
ag82
ag438
ag259
ag983
ag662
ag332
ag397
ag982
ag14
ag487
ag147
ag433
asg25
g656
sg27
g441
sg29
g450
sg31
g264
sg33
(iread_data
Room
p1159
(dp1160
g25
g246
sg27
g247
sbsbaa(lp1161
(ischedule
Activity
p1162
(dp1163
g8
g842
sg25
I1000
sg27
g605
sg29
g124
sg31
I0
sg33
g387
sba(ischedule
Activity
p1164
(dp1165
g8
(lp1166
g541
ag20
ag23
ag11
ag254
ag24
asg25
g753
sg27
g28
sg29
g450
sg31
g32
sg33
g285
sba(ischedule
Activity
p1167
(dp1168
g8
g926
sg25
I1000
sg27
g932
sg29
g124
sg31
I0
sg33
g34
sba(ischedule
Activity
p1169
(dp1170
g8
(lp1171
g332
ag66
ag11
ag324
ag400
ag404
ag408
ag411
ag94
ag205
ag417
ag253
ag424
ag219
ag22
ag407
ag419
asg25
g1078
sg27
g425
sg29
g30
sg31
g32
sg33
(iread_data
Room
p1172
(dp1173
g25
g127
sg27
g128
sbsba(ischedule
Activity
p1174
(dp1175
g8
(lp1176
g593
ag664
ag329
ag78
ag973
ag912
ag498
ag483
ag860
ag733
asg25
g1018
sg27
g1019
sg29
g450
sg31
g192
sg33
(iread_data
Room
p1177
(dp1178
g25
g344
sg27
g345
sbsba(ischedule
Activity
p1179
(dp1180
g8
(lp1181
g400
ag371
ag1129
ag1130
ag417
ag312
ag974
ag404
ag386
aS'75680261'
p1182
ag804
ag226
ag117
ag320
asg25
g1018
sg27
g1019
sg29
g450
sg31
g264
sg33
(iread_data
Room
p1183
(dp1184
g25
g195
sg27
g196
sbsba(ischedule
Activity
p1185
(dp1186
g8
(lp1187
g394
ag872
ag638
ag119
ag558
ag485
ag253
ag950
ag698
ag949
ag762
ag759
ag274
ag47
ag431
ag189
ag186
ag308
asg25
g448
sg27
g449
sg29
g450
sg31
g264
sg33
(iread_data
Room
p1188
(dp1189
g25
g172
sg27
g173
sbsbaa(lp1190
(ischedule
Activity
p1191
(dp1192
g8
(lp1193
g166
ag219
ag395
ag397
ag399
ag402
ag406
ag409
ag137
ag233
ag297
ag151
ag22
ag57
ag422
ag398
ag423
ag420
ag393
ag421
asg25
g548
sg27
g425
sg29
g450
sg31
g192
sg33
(iread_data
Room
p1194
(dp1195
g25
g127
sg27
g128
sbsba(ischedule
Activity
p1196
(dp1197
g8
(lp1198
g13
ag161
ag994
ag995
ag612
ag636
ag820
asg25
g722
sg27
g723
sg29
g450
sg31
g264
sg33
(iread_data
Room
p1199
(dp1200
g25
g357
sg27
g358
sbsba(ischedule
Activity
p1201
(dp1202
g8
(lp1203
g663
ag584
ag497
ag666
ag981
ag982
ag298
ag386
ag639
ag82
ag259
ag983
ag332
ag424
ag385
ag205
ag258
ag52
asg25
g440
sg27
g441
sg29
g30
sg31
g264
sg33
(iread_data
Room
p1204
(dp1205
g25
g246
sg27
g247
sbsba(ischedule
Activity
p1206
(dp1207
g8
g756
sg25
I1000
sg27
g763
sg29
g124
sg31
I0
sg33
(iread_data
Room
p1208
(dp1209
g25
g172
sg27
g173
sbsba(ischedule
Activity
p1210
(dp1211
g8
(lp1212
g202
ag589
ag374
ag377
ag870
ag86
aS'73893840'
p1213
ag308
ag508
aS'63096281'
p1214
ag891
ag105
ag731
ag78
ag140
ag24
ag493
ag256
asg25
g462
sg27
g463
sg29
g450
sg31
g264
sg33
(iread_data
Room
p1215
(dp1216
g25
g344
sg27
g345
sbsba(ischedule
Activity
p1217
(dp1218
g8
(lp1219
g372
ag385
ag316
aS'54395877'
p1220
ag401
aS'51791169'
p1221
ag67
ag482
ag1134
ag416
ag367
ag928
ag583
ag906
aS'10702778'
p1222
ag1090
ag470
ag219
ag22
asg25
g462
sg27
g463
sg29
g450
sg31
S'6'
p1223
sg33
(iread_data
Room
p1224
(dp1225
g25
g36
sg27
g37
sbsba(ischedule
Activity
p1226
(dp1227
g8
(lp1228
g133
ag137
ag47
ag140
ag142
ag69
ag147
ag149
ag152
ag154
ag158
ag160
ag162
ag164
ag166
ag167
ag157
ag143
ag156
ag132
ag165
asg25
g850
sg27
g169
sg29
g450
sg31
g264
sg33
(iread_data
Room
p1229
(dp1230
g25
g195
sg27
g196
sbsbaa(lp1231
(ischedule
Activity
p1232
(dp1233
g8
(lp1234
g791
ag804
ag297
ag936
ag163
ag161
ag89
ag928
ag702
ag411
ag1146
ag1145
ag529
ag153
asg25
g283
sg27
g284
sg29
g30
sg31
g32
sg33
(iread_data
Room
p1235
(dp1236
g25
g172
sg27
g173
sbsba(ischedule
Activity
p1237
(dp1238
g8
(lp1239
g447
ag690
ag146
ag691
ag148
ag278
ag692
ag693
ag694
ag147
ag151
ag590
ag695
ag696
ag49
ag697
ag106
ag421
ag336
ag555
ag458
ag698
ag403
ag699
ag700
ag701
ag235
ag702
ag105
ag270
ag329
ag308
ag497
ag703
ag584
asg25
g647
sg27
g648
sg29
g30
sg31
g264
sg33
(iread_data
Room
p1240
(dp1241
g25
g195
sg27
g196
sbsba(ischedule
Activity
p1242
(dp1243
g8
(lp1244
g143
ag217
ag907
ag259
ag400
ag910
ag805
ag435
ag785
ag90
ag219
ag254
ag911
ag139
ag132
ag50
ag912
ag913
ag305
ag915
ag316
ag513
ag402
ag699
ag317
ag909
ag916
ag906
ag914
ag908
ag406
ag573
ag748
ag434
ag905
asg25
g502
sg27
g503
sg29
g450
sg31
g32
sg33
(iread_data
Room
p1245
(dp1246
g25
g246
sg27
g247
sbsba(ischedule
Activity
p1247
(dp1248
g8
(lp1249
g69
ag160
ag761
ag402
ag810
ag208
ag78
ag45
ag150
ag419
ag396
ag769
ag98
ag811
ag492
ag167
ag241
ag557
ag812
ag813
ag640
ag399
ag153
ag523
ag1090
ag758
asg25
g595
sg27
g596
sg29
g30
sg31
g264
sg33
(iread_data
Room
p1250
(dp1251
g25
g127
sg27
g128
sbsba(ischedule
Activity
p1252
(dp1253
g8
g993
sg25
I1000
sg27
g723
sg29
g124
sg31
I0
sg33
(iread_data
Room
p1254
(dp1255
g25
g36
sg27
g37
sbsbaa(lp1256
(ischedule
Activity
p1257
(dp1258
g8
(lp1259
g166
ag395
ag397
ag399
ag406
ag409
ag137
ag233
ag297
ag151
ag422
ag420
ag57
asg25
g1078
sg27
g425
sg29
g30
sg31
g192
sg33
g34
sba(ischedule
Activity
p1260
(dp1261
g8
(lp1262
g181
ag379
ag406
ag402
ag240
ag89
ag217
ag635
ag762
ag277
ag350
ag913
ag683
ag215
asg25
g515
sg27
g516
sg29
g450
sg31
g192
sg33
g387
sba(ischedule
Activity
p1263
(dp1264
g8
(lp1265
g202
ag144
ag215
ag403
ag407
ag410
ag43
ag414
ag416
ag418
ag303
asg25
g548
sg27
g425
sg29
g450
sg31
g1071
sg33
(iread_data
Room
p1266
(dp1267
g25
g246
sg27
g247
sbsba(ischedule
Activity
p1268
(dp1269
g8
g362
sg25
I1000
sg27
g191
sg29
g124
sg31
I0
sg33
(iread_data
Room
p1270
(dp1271
g25
g172
sg27
g173
sbsba(ischedule
Activity
p1272
(dp1273
g8
(lp1274
g297
ag298
ag205
ag301
ag303
ag234
ag308
ag133
ag316
ag317
ag318
ag319
ag321
ag322
ag258
ag325
ag327
ag331
ag334
ag338
ag339
ag92
ag314
asg25
g1084
sg27
g341
sg29
g30
sg31
g264
sg33
(iread_data
Room
p1275
(dp1276
g25
g127
sg27
g128
sbsba(ischedule
Activity
p1277
(dp1278
g8
(lp1279
g561
ag135
ag737
ag736
ag1001
ag301
ag132
ag324
ag96
ag318
ag460
ag1002
ag667
ag491
ag738
ag133
ag394
ag735
ag279
ag578
ag729
ag638
ag558
ag732
ag526
asg25
g923
sg27
g740
sg29
g30
sg31
g264
sg33
(iread_data
Room
p1280
(dp1281
g25
g344
sg27
g345
sbsba(ischedule
Activity
p1282
(dp1283
g8
(lp1284
g102
ag383
ag980
ag655
ag487
ag889
ag593
ag228
ag372
ag397
ag832
ag11
ag662
ag602
ag458
ag654
ag513
ag160
ag586
ag254
asg25
g440
sg27
g441
sg29
g30
sg31
g32
sg33
(iread_data
Room
p1285
(dp1286
g25
g195
sg27
g196
sbsbaaa(lp1287
(lp1288
a(lp1289
a(lp1290
a(lp1291
a(lp1292
aasS'timeslot_dict'
p1293
(dp1294
I0
S'9:00-11:00'
p1295
sI1
S'11:00-13:00'
p1296
sI2
S'13:00-15:00'
p1297
sI3
S'15:00-17:00'
p1298
sI4
S'17:00-19:00'
p1299
ssS'day_dict'
p1300
(dp1301
I0
S'Monday'
p1302
sI1
S'Tuesday'
p1303
sI2
S'Wednesday'
p1304
sI3
S'Thursday'
p1305
sI4
S'Friday'
p1306
ssb.