(ischedule
Schedule
p0
(dp1
S'timetable'
p2
(lp3
(lp4
(lp5
(ischedule
Activity
p6
(dp7
S'participants'
p8
(lp9
S'33760909'
p10
aS'77896638'
p11
aS'65960683'
p12
aS'42196732'
p13
aS'54310617'
p14
aS'77240949'
p15
aS'75521763'
p16
aS'42778953'
p17
aS'50143947'
p18
aS'13092455'
p19
aS'64296965'
p20
aS'29640619'
p21
aS'62701040'
p22
aS'96104167'
p23
aS'17222374'
p24
aS'31416266'
p25
aS'61443567'
p26
aS'4783858'
p27
aS'82689818'
p28
aS'7308727'
p29
aS'25106480'
p30
aS'13534377'
p31
aS'45556081'
p32
aS'60312776'
p33
aS'86000192'
p34
aS'64393888'
p35
aS'58522654'
p36
aS'29474737'
p37
aS'72577292'
p38
aS'17575088'
p39
aS'5517869'
p40
aS'86291592'
p41
aS'43027916'
p42
aS'35330349'
p43
aS'48601268'
p44
aS'9332762'
p45
aS'28357474'
p46
aS'37770881'
p47
aS'87758823'
p48
aS'73980360'
p49
aS'15902055'
p50
aS'97135019'
p51
aS'57595888'
p52
aS'51741554'
p53
aS'50184318'
p54
aS'22699561'
p55
aS'1665980'
p56
aS'21964491'
p57
aS'53107172'
p58
aS'3233378'
p59
aS'46052388'
p60
aS'1696500'
p61
aS'24277163'
p62
aS'68601184'
p63
aS'42171678'
p64
aS'23547619'
p65
aS'1075391'
p66
aS'76123484'
p67
aS'26406342'
p68
aS'64228258'
p69
aS'34773179'
p70
asS'capacity'
p71
I1000
sS'name'
p72
S'Collectieve Intelligentie'
p73
sS'ttype'
p74
S'lectures'
p75
sS'group_id'
p76
I0
sS'room'
p77
(iread_data
Room
p78
(dp79
g71
S'117'
p80
sg72
S'C0.110'
p81
sbsba(ischedule
Activity
p82
(dp83
g8
(lp84
S'14816774'
p85
aS'20883994'
p86
aS'247918'
p87
aS'14591033'
p88
aS'56815156'
p89
aS'33877725'
p90
aS'89985072'
p91
aS'4568018'
p92
aS'6723948'
p93
aS'64600457'
p94
aS'22826928'
p95
ag57
aS'56749879'
p96
aS'28359697'
p97
aS'79617364'
p98
aS'85335143'
p99
aS'53202517'
p100
aS'88176729'
p101
ag36
aS'3168419'
p102
aS'30195935'
p103
aS'54026378'
p104
aS'66120270'
p105
aS'96453361'
p106
aS'74131924'
p107
aS'21029457'
p108
aS'5298748'
p109
aS'96054456'
p110
aS'73236988'
p111
aS'30050930'
p112
aS'43680781'
p113
aS'6913074'
p114
aS'29526540'
p115
aS'11068043'
p116
aS'22731474'
p117
ag29
ag13
aS'59544049'
p118
aS'44868097'
p119
aS'24613625'
p120
aS'81200278'
p121
aS'77831658'
p122
aS'33930505'
p123
aS'15051051'
p124
aS'70878567'
p125
asg71
I1000
sg72
S'Bioinformatica'
p126
sg74
g75
sg76
I0
sg77
(iread_data
Room
p127
(dp128
g71
S'48'
p129
sg72
S'B0.201'
p130
sbsba(ischedule
Activity
p131
(dp132
g8
(lp133
S'13116738'
p134
aS'32204977'
p135
aS'44901052'
p136
aS'13658563'
p137
aS'92977271'
p138
aS'23257088'
p139
ag22
aS'75585647'
p140
aS'18266644'
p141
ag16
aS'19958553'
p142
aS'11459236'
p143
aS'17496687'
p144
aS'29718115'
p145
ag125
aS'8557857'
p146
aS'77636749'
p147
aS'36748818'
p148
aS'23983476'
p149
aS'68315599'
p150
aS'58332004'
p151
asg71
I1000
sg72
S'Informatie- en organsatieontwerp'
p152
sg74
g75
sg76
I0
sg77
(iread_data
Room
p153
(dp154
g71
S'22'
p155
sg72
S'A1.06'
p156
sbsba(ischedule
Activity
p157
(dp158
g8
(lp159
S'43902015'
p160
aS'46701583'
p161
aS'91527663'
p162
aS'8522855'
p163
aS'67817269'
p164
aS'72895450'
p165
aS'3707829'
p166
aS'14671406'
p167
aS'81385263'
p168
aS'66433883'
p169
aS'64947290'
p170
aS'27298319'
p171
aS'23652927'
p172
aS'53585410'
p173
ag18
aS'26260141'
p174
aS'40343779'
p175
aS'88596522'
p176
ag28
ag106
aS'51509565'
p177
aS'41585485'
p178
aS'21095566'
p179
aS'64554442'
p180
ag50
aS'3474870'
p181
aS'19540225'
p182
aS'52715680'
p183
aS'34765676'
p184
aS'5976174'
p185
aS'44828429'
p186
aS'86988337'
p187
aS'77376714'
p188
aS'57467488'
p189
aS'12077419'
p190
aS'51566595'
p191
aS'36903574'
p192
ag149
aS'78136904'
p193
ag57
aS'58592894'
p194
aS'41527759'
p195
ag56
asg71
I1000
sg72
S'Algoritmen en complexiteit'
p196
sg74
g75
sg76
I0
sg77
(iread_data
Room
p197
(dp198
g71
S'60'
p199
sg72
S'C1.112'
p200
sbsbaa(lp201
(ischedule
Activity
p202
(dp203
g8
(lp204
g10
ag14
ag18
ag22
ag26
ag30
ag38
ag42
ag46
ag50
ag54
ag58
ag62
ag66
ag70
ag48
ag63
asg71
S'20'
p205
sg72
g73
sg74
S'labs'
p206
sg76
S'1'
p207
sg77
(iread_data
Room
p208
(dp209
g71
S'41'
p210
sg72
S'A1.04'
p211
sbsba(ischedule
Activity
p212
(dp213
g8
(lp214
g90
ag93
ag57
ag98
ag101
ag103
ag106
ag109
ag115
ag29
ag122
ag125
ag85
asg71
S'20'
p215
sg72
g126
sg74
g206
sg76
S'3'
p216
sg77
(iread_data
Room
p217
(dp218
g71
g155
sg72
g156
sbsba(ischedule
Activity
p219
(dp220
g8
(lp221
g65
ag166
aS'93566383'
p222
aS'28055464'
p223
aS'38179241'
p224
aS'21677389'
p225
aS'20374340'
p226
aS'4546613'
p227
aS'76661016'
p228
aS'37701751'
p229
ag186
aS'19214659'
p230
aS'5368702'
p231
aS'69634191'
p232
ag168
aS'76924297'
p233
aS'14847953'
p234
aS'37399898'
p235
ag184
aS'65675896'
p236
aS'66034145'
p237
aS'2550487'
p238
ag121
aS'81155296'
p239
aS'64768422'
p240
asg71
I1000
sg72
S'Interactie-ontwerp'
p241
sg74
g75
sg76
I0
sg77
(iread_data
Room
p242
(dp243
g71
S'56'
p244
sg72
S'A1.10'
p245
sbsba(ischedule
Activity
p246
(dp247
g8
(lp248
S'89180944'
p249
aS'13798030'
p250
aS'23798155'
p251
aS'28618400'
p252
ag145
aS'83266686'
p253
aS'43460038'
p254
aS'40434933'
p255
aS'70015932'
p256
aS'49683101'
p257
aS'34872117'
p258
aS'14138904'
p259
ag38
aS'72683344'
p260
ag32
aS'20331158'
p261
ag28
aS'59289233'
p262
aS'10149535'
p263
aS'27925117'
p264
aS'58866007'
p265
asg71
I1000
sg72
S'Architectuur en computerorganisatie'
p266
sg74
g75
sg76
I0
sg77
(iread_data
Room
p267
(dp268
g71
g80
sg72
g81
sbsba(ischedule
Activity
p269
(dp270
g8
(lp271
g107
aS'16097870'
p272
aS'11915563'
p273
ag40
aS'39459642'
p274
aS'62872965'
p275
aS'22871048'
p276
aS'34806836'
p277
aS'61611295'
p278
ag104
aS'37110913'
p279
ag191
aS'68409833'
p280
aS'52552718'
p281
aS'70113753'
p282
aS'62356458'
p283
ag171
aS'19858730'
p284
aS'72796858'
p285
aS'88627897'
p286
ag136
aS'36508571'
p287
asg71
I1000
sg72
S'Autonomous Agents 2'
p288
sg74
g75
sg76
I0
sg77
(iread_data
Room
p289
(dp290
g71
g199
sg72
g200
sbsba(ischedule
Activity
p291
(dp292
g8
(lp293
g86
ag89
ag95
ag97
ag100
ag102
ag105
ag108
ag111
ag114
ag117
ag118
ag122
ag110
ag112
ag119
asg71
S'20'
p294
sg72
g126
sg74
S'tutorials'
p295
sg76
S'2'
p296
sg77
(iread_data
Room
p297
(dp298
g71
S'20'
p299
sg72
S'A1.08'
p300
sbsbaa(lp301
(ischedule
Activity
p302
(dp303
g8
(lp304
g87
ag90
ag93
ag57
ag98
ag101
ag103
ag106
ag109
ag115
ag29
ag125
ag121
ag124
asg71
g294
sg72
g126
sg74
g295
sg76
g216
sg77
(iread_data
Room
p305
(dp306
g71
g155
sg72
g156
sbsba(ischedule
Activity
p307
(dp308
g8
(lp309
S'12430748'
p310
aS'73823548'
p311
ag122
aS'42406214'
p312
aS'84110134'
p313
ag238
aS'1766560'
p314
ag19
ag165
aS'74182182'
p315
ag17
aS'37419523'
p316
aS'81022997'
p317
asg71
S'15'
p318
sg72
S'Project Numerical Recipes'
p319
sg74
g206
sg76
g216
sg77
g297
sba(ischedule
Activity
p320
(dp321
g8
(lp322
S'82872148'
p323
ag27
ag195
aS'45915482'
p324
aS'75599734'
p325
aS'31247305'
p326
ag118
ag227
ag30
aS'1048485'
p327
aS'58565406'
p328
aS'95631564'
p329
ag18
ag90
aS'13718298'
p330
aS'37744525'
p331
ag33
aS'9287708'
p332
aS'52311353'
p333
aS'73302736'
p334
ag256
aS'78443067'
p335
aS'48357272'
p336
aS'65318664'
p337
ag111
aS'78243495'
p338
ag175
ag188
ag273
ag281
ag280
aS'83210352'
p339
aS'58074656'
p340
aS'41153310'
p341
aS'14309255'
p342
ag183
ag249
ag59
aS'44671041'
p343
aS'31633723'
p344
asg71
S'40'
p345
sg72
S'Software engineering'
p346
sg74
g295
sg76
g207
sg77
g208
sba(ischedule
Activity
p347
(dp348
g8
(lp349
g135
ag137
ag139
ag140
ag143
ag145
ag146
ag148
ag150
ag151
ag16
asg71
S'15'
p350
sg72
g152
sg74
g295
sg76
g296
sg77
g242
sba(ischedule
Activity
p351
(dp352
g8
(lp353
g27
aS'47477884'
p354
aS'86807027'
p355
ag227
aS'63634350'
p356
aS'14179347'
p357
aS'75997788'
p358
ag114
aS'83415514'
p359
ag108
aS'23658570'
p360
aS'14303208'
p361
ag224
aS'56544130'
p362
aS'88752563'
p363
aS'32705005'
p364
ag110
aS'9731271'
p365
ag94
ag228
aS'53139134'
p366
aS'82412626'
p367
aS'23565001'
p368
ag85
ag171
aS'87900893'
p369
aS'77306636'
p370
ag93
aS'10609762'
p371
aS'38296757'
p372
ag334
aS'24875739'
p373
aS'37279234'
p374
aS'40141996'
p375
aS'70939718'
p376
ag194
aS'65978354'
p377
asg71
S'40'
p378
sg72
S'Calculus 2'
p379
sg74
g295
sg76
g207
sg77
g78
sba(ischedule
Activity
p380
(dp381
g8
(lp382
S'3685034'
p383
aS'14941752'
p384
ag252
aS'89338938'
p385
aS'48503689'
p386
aS'40911986'
p387
aS'13284244'
p388
ag230
aS'34691309'
p389
ag116
ag283
aS'21070547'
p390
ag363
ag111
ag29
aS'6939933'
p391
aS'90103047'
p392
asg71
g318
sg72
g319
sg74
g206
sg76
g296
sg77
g127
sba(ischedule
Activity
p393
(dp394
g8
(lp395
g273
ag275
ag191
ag284
ag136
asg71
S'10'
p396
sg72
g288
sg74
g295
sg76
g216
sg77
(iread_data
Room
p397
(dp398
g71
g199
sg72
g200
sbsbaa(lp399
(ischedule
Activity
p400
(dp401
g8
(lp402
g135
ag137
ag139
ag140
ag16
ag143
ag145
ag148
ag150
ag149
asg71
S'15'
p403
sg72
g152
sg74
g206
sg76
g296
sg77
g297
sba(ischedule
Activity
p404
(dp405
g8
(lp406
S'4921119'
p407
aS'5085194'
p408
ag375
aS'59397895'
p409
ag274
ag139
aS'77960666'
p410
aS'70072978'
p411
ag363
ag96
aS'12091019'
p412
aS'49631542'
p413
ag360
ag62
ag102
ag20
ag194
ag311
ag11
aS'13132925'
p414
aS'25077484'
p415
ag13
aS'4529208'
p416
aS'62736669'
p417
ag87
ag160
ag110
aS'56872729'
p418
aS'17092717'
p419
aS'72456780'
p420
ag281
aS'5526560'
p421
ag285
ag189
aS'54540997'
p422
ag85
ag21
ag354
aS'56121590'
p423
aS'94686490'
p424
ag170
aS'51542218'
p425
ag191
ag40
ag162
ag151
ag28
aS'26207525'
p426
aS'58083680'
p427
aS'83869542'
p428
ag24
aS'46989508'
p429
ag229
ag255
aS'47932106'
p430
aS'75005528'
p431
aS'56191333'
p432
ag19
aS'78821918'
p433
ag67
aS'60352393'
p434
aS'27123462'
p435
ag68
ag187
aS'15187217'
p436
ag42
ag115
aS'90474003'
p437
aS'670011'
p438
aS'11996292'
p439
ag258
aS'86180471'
p440
asg71
I1000
sg72
S'Databases 2'
p441
sg74
g75
sg76
I0
sg77
g78
sba(ischedule
Activity
p442
(dp443
g8
(lp444
S'88597745'
p445
ag365
ag63
ag343
aS'55474917'
p446
aS'54395877'
p447
aS'94467156'
p448
aS'64053722'
p449
aS'85236626'
p450
aS'10702778'
p451
ag25
ag178
aS'26857113'
p452
ag173
aS'20618153'
p453
ag222
aS'7492204'
p454
ag57
aS'8464817'
p455
asg71
S'20'
p456
sg72
S'Programmeren in Java 2'
p457
sg74
g206
sg76
S'4'
p458
sg77
(iread_data
Room
p459
(dp460
g71
g155
sg72
g156
sbsba(ischedule
Activity
p461
(dp462
g8
(lp463
g272
ag274
ag279
ag171
ag283
ag278
asg71
S'10'
p464
sg72
g288
sg74
g206
sg76
g296
sg77
(iread_data
Room
p465
(dp466
g71
g199
sg72
g200
sbsba(ischedule
Activity
p467
(dp468
g8
g221
sg71
I1000
sg72
g241
sg74
g75
sg76
I0
sg77
(iread_data
Room
p469
(dp470
g71
g210
sg72
g211
sbsba(ischedule
Activity
p471
(dp472
g8
(lp473
g134
ag317
ag18
ag125
aS'13996448'
p474
aS'98780382'
p475
asg71
S'10'
p476
sg72
S'Data Mining'
p477
sg74
g206
sg76
g207
sg77
(iread_data
Room
p478
(dp479
g71
g129
sg72
g130
sbsbaa(lp480
(ischedule
Activity
p481
(dp482
g8
(lp483
g11
ag15
ag19
ag23
ag27
ag31
ag35
ag39
ag43
ag47
ag51
ag55
ag59
ag67
ag17
asg71
g205
sg72
g73
sg74
g206
sg76
g296
sg77
g465
sba(ischedule
Activity
p484
(dp485
g8
(lp486
S'99283252'
p487
aS'3883025'
p488
aS'41489515'
p489
aS'27241113'
p490
aS'18144425'
p491
ag335
aS'49219163'
p492
ag359
aS'63111000'
p493
ag188
ag113
aS'33776961'
p494
ag16
ag40
aS'84449005'
p495
ag249
aS'1181560'
p496
aS'48198668'
p497
ag94
asg71
S'20'
p498
sg72
S'Moderne Databases'
p499
sg74
g206
sg76
g296
sg77
(iread_data
Room
p500
(dp501
g71
g299
sg72
g300
sbsba(ischedule
Activity
p502
(dp503
g8
(lp504
g119
aS'80709893'
p505
ag313
ag116
aS'62105897'
p506
ag104
ag283
ag448
ag446
aS'3727435'
p507
aS'96554914'
p508
ag21
ag179
aS'61060652'
p509
aS'27582862'
p510
aS'37830626'
p511
ag101
aS'51593625'
p512
aS'27950803'
p513
ag487
ag44
ag92
aS'14072826'
p514
aS'31103066'
p515
ag167
ag46
aS'65408517'
p516
aS'22323043'
p517
ag385
ag91
ag276
ag174
aS'42115591'
p518
ag185
ag254
asg71
g345
sg72
g346
sg74
g295
sg76
g296
sg77
g127
sba(ischedule
Activity
p519
(dp520
g8
(lp521
g354
ag355
ag86
ag234
aS'1886996'
p522
ag358
aS'92665222'
p523
aS'70844780'
p524
aS'62613937'
p525
ag260
aS'72665524'
p526
aS'39429093'
p527
ag193
ag38
aS'40633534'
p528
asg71
S'10'
p529
sg72
S'Advanced Heuristics'
p530
sg74
g206
sg76
g296
sg77
(iread_data
Room
p531
(dp532
g71
g210
sg72
g211
sbsba(ischedule
Activity
p533
(dp534
g8
(lp535
S'59753700'
p536
aS'87830198'
p537
ag312
ag193
aS'82390428'
p538
ag276
ag494
aS'49922855'
p539
aS'4709948'
p540
aS'84524083'
p541
ag383
ag330
aS'51415617'
p542
aS'70193386'
p543
ag524
aS'61518436'
p544
asg71
S'20'
p545
sg72
S'Reflectie op de digitale cultuur'
p546
sg74
g295
sg76
g207
sg77
(iread_data
Room
p547
(dp548
g71
g80
sg72
g81
sbsba(ischedule
Activity
p549
(dp550
g8
(lp551
g53
aS'72586808'
p552
aS'85284256'
p553
ag432
aS'77392404'
p554
ag123
ag21
ag175
ag51
ag41
ag323
aS'62363761'
p555
ag163
ag121
ag331
aS'12170832'
p556
asg71
S'20'
p557
sg72
S'Netwerken en systeembeveiliging'
p558
sg74
g206
sg76
g296
sg77
(iread_data
Room
p559
(dp560
g71
g244
sg72
g245
sbsbaaa(lp561
(lp562
(ischedule
Activity
p563
(dp564
g8
(lp565
S'83443653'
p566
aS'58736785'
p567
ag88
aS'31897288'
p568
aS'76393508'
p569
aS'97019450'
p570
ag92
ag509
ag137
ag358
aS'66122625'
p571
aS'79879876'
p572
ag439
ag279
ag261
aS'59075181'
p573
aS'53775014'
p574
ag85
ag259
aS'94930277'
p575
ag27
ag192
aS'81218347'
p576
ag96
ag58
ag384
ag189
aS'97417002'
p577
ag64
aS'45660925'
p578
ag138
ag284
ag16
aS'20830477'
p579
ag276
ag517
aS'98105190'
p580
aS'87210640'
p581
aS'71839156'
p582
aS'4353500'
p583
ag136
ag336
ag61
ag355
asg71
I1000
sg72
S'Heuristieken 1'
p584
sg74
g75
sg76
I0
sg77
(iread_data
Room
p585
(dp586
g71
g129
sg72
g130
sbsba(ischedule
Activity
p587
(dp588
g8
(lp589
S'92778619'
p590
aS'41578612'
p591
aS'54569540'
p592
ag495
aS'36213792'
p593
ag372
ag536
aS'36785409'
p594
aS'99453514'
p595
ag537
aS'27370083'
p596
ag508
ag312
ag235
ag437
ag193
aS'99975346'
p597
ag95
ag538
ag434
aS'60661905'
p598
ag276
ag183
ag554
ag494
aS'20239127'
p599
ag109
ag539
ag137
aS'68286356'
p600
ag540
aS'51052738'
p601
aS'20095994'
p602
ag541
ag114
ag513
ag383
ag19
aS'32044893'
p603
ag330
aS'57086672'
p604
ag187
ag542
ag279
ag62
ag543
aS'27805666'
p605
ag113
ag524
ag410
ag544
asg71
I1000
sg72
g546
sg74
g75
sg76
I0
sg77
g465
sba(ischedule
Activity
p606
(dp607
g8
(lp608
g475
ag595
ag474
ag134
aS'25330192'
p609
ag121
ag317
aS'93023961'
p610
ag571
aS'91196968'
p611
aS'17823206'
p612
ag279
ag57
ag536
ag331
ag18
aS'68360259'
p613
aS'45414528'
p614
ag333
ag107
ag369
aS'97136582'
p615
ag517
aS'19337738'
p616
ag125
aS'87314964'
p617
ag191
asg71
I1000
sg72
g477
sg74
g75
sg76
I0
sg77
g459
sba(ischedule
Activity
p618
(dp619
g8
(lp620
g314
ag487
ag150
ag253
ag488
ag194
aS'36527838'
p621
ag489
aS'13218321'
p622
ag115
ag490
aS'59111489'
p623
ag342
ag491
aS'13911001'
p624
aS'96082155'
p625
ag335
ag413
ag64
ag492
ag497
aS'58699305'
p626
ag359
ag540
ag99
ag493
ag439
aS'47462856'
p627
ag188
aS'78544592'
p628
ag496
ag113
ag124
ag358
ag494
ag338
ag151
ag16
ag94
aS'51650744'
p629
ag40
ag62
ag433
ag495
aS'46570285'
p630
aS'27916487'
p631
ag24
ag54
ag148
aS'30658799'
p632
aS'66621166'
p633
aS'11741347'
p634
ag249
ag411
asg71
I1000
sg72
g499
sg74
g75
sg76
I0
sg77
g78
sba(ischedule
Activity
p635
(dp636
g8
(lp637
S'58469172'
p638
aS'31306819'
p639
ag424
aS'75623387'
p640
aS'55530367'
p641
aS'88855695'
p642
ag391
ag140
aS'23628642'
p643
ag555
ag239
ag336
aS'87602030'
p644
aS'19717077'
p645
ag272
ag88
ag253
ag311
ag264
ag53
aS'72526473'
p646
ag99
ag526
aS'58040377'
p647
ag506
aS'79167252'
p648
ag161
ag119
ag440
aS'27187154'
p649
ag51
aS'78735049'
p650
ag516
aS'22168693'
p651
ag324
asg71
g378
sg72
g379
sg74
g295
sg76
g296
sg77
g242
sba(ischedule
Activity
p652
(dp653
g8
(lp654
g45
ag510
ag638
ag354
ag34
aS'10698627'
p655
ag359
ag512
ag50
ag169
ag570
ag611
ag438
ag170
ag149
ag355
ag96
ag95
ag360
asg71
g456
sg72
g457
sg74
g206
sg76
S'6'
p656
sg77
(iread_data
Room
p657
(dp658
g71
g299
sg72
g300
sbsba(ischedule
Activity
p659
(dp660
g8
(lp661
g26
ag568
ag317
ag356
ag597
aS'72652638'
p662
ag644
aS'52304977'
p663
ag541
ag438
aS'48678993'
p664
ag191
ag10
ag428
aS'82968410'
p665
ag567
ag338
asg71
S'20'
p666
sg72
S'Heuristieken 2'
p667
sg74
g295
sg76
g207
sg77
(iread_data
Room
p668
(dp669
g71
g210
sg72
g211
sbsbaa(lp670
(ischedule
Activity
p671
(dp672
g8
(lp673
g85
ag88
ag91
ag94
ag96
ag99
ag36
ag104
ag107
ag113
ag116
ag13
ag120
ag123
ag92
asg71
g294
sg72
g126
sg74
g295
sg76
g207
sg77
g459
sba(ischedule
Activity
p674
(dp675
g8
(lp676
g528
ag354
aS'27064249'
p677
ag355
ag527
ag86
ag102
ag234
ag193
ag522
ag252
ag358
ag526
ag523
ag65
ag524
ag434
ag525
ag38
ag260
asg71
I1000
sg72
g530
sg74
g75
sg76
I0
sg77
g127
sba(ischedule
Activity
p678
(dp679
g8
(lp680
g475
ag134
ag317
ag611
ag125
ag191
asg71
S'10'
p681
sg72
g477
sg74
g295
sg76
g207
sg77
g208
sba(ischedule
Activity
p682
(dp683
g8
(lp684
S'28957789'
p685
aS'23391676'
p686
ag364
ag446
ag650
ag630
ag20
aS'63408522'
p687
ag195
ag261
ag14
ag251
aS'79858178'
p688
ag570
ag141
ag147
ag576
aS'65003379'
p689
ag518
aS'69086548'
p690
ag611
aS'39230359'
p691
ag315
ag448
ag151
ag413
aS'10792879'
p692
ag273
aS'38329455'
p693
aS'14398123'
p694
ag118
aS'72547110'
p695
ag356
ag592
aS'39919665'
p696
ag425
aS'94955328'
p697
aS'44940353'
p698
ag36
ag385
aS'34243356'
p699
ag326
ag638
ag96
ag541
ag163
ag649
ag599
aS'99272880'
p700
ag88
ag86
ag231
ag365
ag344
ag573
ag233
ag454
aS'39659121'
p701
aS'63955238'
p702
ag117
aS'10872825'
p703
ag383
aS'79366078'
p704
aS'34262212'
p705
ag313
ag544
aS'37498675'
p706
aS'51186803'
p707
aS'97371272'
p708
ag373
aS'82688900'
p709
aS'38499176'
p710
ag167
aS'91139627'
p711
aS'47605891'
p712
ag193
aS'56988998'
p713
aS'5615125'
p714
ag627
ag192
ag15
ag612
ag110
ag178
asg71
I1000
sg72
S'Kansrekenen 2'
p715
sg74
g75
sg76
I0
sg77
(iread_data
Room
p716
(dp717
g71
g80
sg72
g81
sbsba(ischedule
Activity
p718
(dp719
g8
(lp720
g576
ag287
aS'90743504'
p721
ag48
ag181
ag40
ag88
ag263
aS'79937969'
p722
aS'66570705'
p723
ag368
ag591
aS'54074680'
p724
aS'16011419'
p725
aS'34588570'
p726
aS'32595335'
p727
ag505
ag25
ag431
aS'48308205'
p728
ag339
ag235
aS'96118484'
p729
ag13
ag222
ag518
ag418
aS'55412918'
p730
ag333
ag98
aS'80998260'
p731
ag697
aS'26172512'
p732
ag168
ag17
ag582
aS'16333449'
p733
ag438
ag43
ag446
ag710
ag275
ag621
ag509
ag407
ag280
ag699
ag272
ag315
ag611
ag265
ag11
ag424
aS'21311067'
p734
asg71
I1000
sg72
S'Lineaire Algebra'
p735
sg74
g75
sg76
I0
sg77
g242
sba(ischedule
Activity
p736
(dp737
g8
(lp738
g56
ag236
ag52
aS'3407554'
p739
aS'82066165'
p740
ag68
aS'41644639'
p741
aS'42297781'
p742
ag408
aS'47260040'
p743
ag624
aS'55103073'
p744
ag135
asg71
S'15'
p745
sg72
S'Compilerbouw practicum'
p746
sg74
g206
sg76
g216
sg77
(iread_data
Room
p747
(dp748
g71
g199
sg72
g200
sbsba(ischedule
Activity
p749
(dp750
g8
(lp751
g487
ag488
ag489
ag490
ag491
ag335
ag492
ag359
ag493
ag188
ag113
ag494
ag16
ag40
ag495
ag24
ag632
ag249
ag124
asg71
S'20'
p752
sg72
g499
sg74
g295
sg76
g296
sg77
(iread_data
Room
p753
(dp754
g71
g299
sg72
g300
sbsbaa(lp755
(ischedule
Activity
p756
(dp757
g8
(lp758
g361
ag733
ag249
ag100
ag677
aS'2416751'
p759
aS'67073567'
p760
aS'6249823'
p761
ag254
ag26
ag38
aS'1137946'
p762
ag453
aS'22288615'
p763
ag691
ag604
ag255
aS'53512831'
p764
ag338
aS'41790793'
p765
ag237
ag69
aS'28358060'
p766
ag160
ag181
aS'49908313'
p767
ag575
aS'24891081'
p768
ag67
aS'76903244'
p769
ag165
aS'69459473'
p770
aS'76648468'
p771
ag234
ag90
ag419
ag714
ag655
ag554
asg71
I1000
sg72
S'Webprogrammeren en databases'
p772
sg74
g75
sg76
I0
sg77
(iread_data
Room
p773
(dp774
g71
g199
sg72
g200
sbsba(ischedule
Activity
p775
(dp776
g8
(lp777
g88
ag94
ag96
ag99
ag36
ag104
ag107
ag110
ag113
ag116
ag13
ag120
ag123
ag87
ag111
asg71
g215
sg72
g126
sg74
g206
sg76
g207
sg77
(iread_data
Room
p778
(dp779
g71
g210
sg72
g211
sbsba(ischedule
Activity
p780
(dp781
g8
g684
sg71
I1000
sg72
g715
sg74
g75
sg76
I0
sg77
(iread_data
Room
p782
(dp783
g71
g80
sg72
g81
sbsba(ischedule
Activity
p784
(dp785
g8
(lp786
S'64418623'
p787
aS'51673172'
p788
aS'25994016'
p789
ag116
ag91
ag259
ag710
ag526
ag18
ag143
aS'74361881'
p790
ag356
asg71
g745
sg72
g746
sg74
g206
sg76
g207
sg77
(iread_data
Room
p791
(dp792
g71
g299
sg72
g300
sbsba(ischedule
Activity
p793
(dp794
g8
g608
sg71
I1000
sg72
g477
sg74
g75
sg76
I0
sg77
(iread_data
Room
p795
(dp796
g71
g244
sg72
g245
sbsba(ischedule
Activity
p797
(dp798
g8
(lp799
g553
aS'39905995'
p800
ag572
ag386
ag192
aS'3678531'
p801
aS'54772132'
p802
ag22
ag763
ag410
aS'28943658'
p803
aS'34900967'
p804
ag21
aS'94687383'
p805
ag238
ag282
aS'88519892'
p806
ag93
asg71
g456
sg72
g457
sg74
g206
sg76
S'5'
p807
sg77
(iread_data
Room
p808
(dp809
g71
g129
sg72
g130
sbsbaa(lp810
(ischedule
Activity
p811
(dp812
g8
(lp813
g385
ag728
ag439
ag68
aS'47982619'
p814
ag99
ag690
ag136
aS'7106649'
p815
aS'14383795'
p816
ag328
ag147
ag45
aS'21192048'
p817
ag16
aS'93041523'
p818
ag591
ag255
ag190
ag310
aS'75664412'
p819
ag150
asg71
S'20'
p820
sg72
S'Technology for games'
p821
sg74
g295
sg76
g207
sg77
(iread_data
Room
p822
(dp823
g71
g129
sg72
g130
sbsba(ischedule
Activity
p824
(dp825
g8
(lp826
g121
ag571
ag279
ag614
ag616
ag611
ag333
ag610
asg71
g476
sg72
g477
sg74
g206
sg76
g216
sg77
g242
sba(ischedule
Activity
p827
(dp828
g8
(lp829
g361
ag249
ag677
ag760
ag254
ag38
ag691
ag255
ag338
ag237
ag766
ag181
ag575
ag67
ag165
ag771
ag90
ag714
ag554
asg71
S'20'
p830
sg72
g772
sg74
g295
sg76
g207
sg77
g297
sba(ischedule
Activity
p831
(dp832
g8
(lp833
g495
ag448
ag233
ag790
aS'88737765'
p834
ag528
ag357
ag433
ag644
ag280
asg71
S'15'
p835
sg72
S'Project Genetic Algorithms'
p836
sg74
g206
sg76
g296
sg77
(iread_data
Room
p837
(dp838
g71
g80
sg72
g81
sbsba(ischedule
Activity
p839
(dp840
g8
(lp841
g759
ag761
ag26
ag762
ag763
ag765
ag69
ag767
ag768
ag769
ag770
ag234
ag419
asg71
S'20'
p842
sg72
g772
sg74
g206
sg76
g296
sg77
g208
sba(ischedule
Activity
p843
(dp844
g8
(lp845
g225
ag420
ag327
ag168
aS'7957843'
p846
aS'64246605'
p847
ag29
ag192
aS'535689'
p848
ag426
ag537
ag326
ag664
ag615
aS'53267490'
p849
aS'25557516'
p850
asg71
g557
sg72
g558
sg74
g206
sg76
g216
sg77
g465
sba(ischedule
Activity
p851
(dp852
g8
(lp853
g161
ag163
ag167
ag169
ag171
ag173
ag174
ag176
ag180
ag181
ag183
ag185
ag187
ag191
ag149
ag57
ag195
ag175
ag50
ag162
ag177
asg71
S'25'
p854
sg72
g196
sg74
g295
sg76
g296
sg77
(iread_data
Room
p855
(dp856
g71
g155
sg72
g156
sbsbaa(lp857
(ischedule
Activity
p858
(dp859
g8
(lp860
g273
ag191
ag282
ag284
ag136
ag281
ag277
asg71
g464
sg72
g288
sg74
g206
sg76
g216
sg77
g297
sba(ischedule
Activity
p861
(dp862
g8
g84
sg71
I1000
sg72
g126
sg74
g75
sg76
I0
sg77
g465
sba(ischedule
Activity
p863
(dp864
g8
(lp865
g699
ag273
ag342
aS'40791377'
p866
ag187
ag329
ag728
ag648
ag12
ag388
aS'95007221'
p867
aS'43689934'
p868
ag455
ag642
ag253
ag523
aS'9067939'
p869
ag805
aS'15911353'
p870
ag41
ag228
ag314
aS'34110913'
p871
ag541
ag632
aS'80135353'
p872
ag190
aS'88636924'
p873
ag429
ag93
ag819
ag363
aS'5595824'
p874
ag33
ag165
asg71
S'40'
p875
sg72
S'Compilerbouw'
p876
sg74
g295
sg76
g296
sg77
g127
sba(ischedule
Activity
p877
(dp878
g8
(lp879
g407
ag161
ag494
ag474
aS'44391517'
p880
ag11
ag235
ag110
ag506
ag327
ag648
ag274
ag686
ag705
ag579
ag493
ag647
ag872
ag540
aS'90296821'
p881
asg71
g456
sg72
g457
sg74
g206
sg76
g296
sg77
g78
sba(ischedule
Activity
p882
(dp883
g8
(lp884
g134
ag136
ag22
ag142
ag144
ag125
ag147
ag141
ag149
ag138
asg71
g350
sg72
g152
sg74
g295
sg76
g207
sg77
(iread_data
Room
p885
(dp886
g71
g155
sg72
g156
sbsba(ischedule
Activity
p887
(dp888
g8
g248
sg71
I1000
sg72
g266
sg74
g75
sg76
I0
sg77
g208
sba(ischedule
Activity
p889
(dp890
g8
(lp891
g141
ag408
ag518
aS'33672995'
p892
ag537
ag525
ag360
ag433
ag697
aS'58480929'
p893
aS'73350019'
p894
ag358
ag425
ag552
ag420
ag337
ag591
aS'80188025'
p895
ag699
ag834
ag664
ag604
ag368
ag42
ag276
ag543
ag272
aS'18477924'
p896
ag594
aS'78822885'
p897
ag598
aS'97838175'
p898
ag333
ag566
ag362
ag570
ag874
ag20
ag336
ag89
ag99
aS'82854435'
p899
ag330
aS'14637758'
p900
ag334
ag122
ag251
ag804
ag407
asg71
I1000
sg72
S'Analysemethoden en -technieken'
p901
sg74
g75
sg76
I0
sg77
(iread_data
Room
p902
(dp903
g71
g244
sg72
g245
sbsbaaa(lp904
(lp905
(ischedule
Activity
p906
(dp907
g8
(lp908
g107
ag40
ag276
ag104
ag280
ag285
ag287
ag286
ag275
asg71
g464
sg72
g288
sg74
g206
sg76
g207
sg77
g208
sba(ischedule
Activity
p909
(dp910
g8
(lp911
g361
ag249
ag677
ag760
ag254
ag38
ag453
ag691
ag255
ag338
ag237
ag766
ag181
ag575
ag67
ag165
ag771
ag90
ag714
ag655
ag733
ag604
ag160
ag100
ag554
ag764
asg71
g842
sg72
g772
sg74
g206
sg76
g207
sg77
(iread_data
Room
p912
(dp913
g71
g244
sg72
g245
sbsba(ischedule
Activity
p914
(dp915
g8
(lp916
g513
ag487
ag694
ag120
aS'66701209'
p917
ag161
ag741
ag415
aS'75680261'
p918
aS'58253841'
p919
ag264
ag47
aS'55480737'
p920
ag70
ag440
asg71
g835
sg72
g836
sg74
g206
sg76
g216
sg77
(iread_data
Room
p921
(dp922
g71
g129
sg72
g130
sbsba(ischedule
Activity
p923
(dp924
g8
(lp925
g13
ag21
ag25
ag29
ag33
ag37
ag41
ag45
ag49
ag53
ag57
ag61
ag65
ag69
asg71
g205
sg72
g73
sg74
g206
sg76
g458
sg77
(iread_data
Room
p926
(dp927
g71
g155
sg72
g156
sbsba(ischedule
Activity
p928
(dp929
g8
(lp930
g407
ag375
ag274
ag410
ag363
ag412
ag360
ag102
ag194
ag11
ag415
ag416
ag87
ag110
ag281
ag285
ag422
ag21
ag423
ag170
ag191
ag28
ag24
ag229
ag432
ag433
ag434
ag68
ag436
ag115
ag438
ag258
ag189
asg71
S'40'
p931
sg72
g441
sg74
g295
sg76
g207
sg77
(iread_data
Room
p932
(dp933
g71
g199
sg72
g200
sbsba(ischedule
Activity
p934
(dp935
g8
(lp936
g314
ag253
ag621
ag115
ag342
ag625
ag64
ag626
ag99
ag627
ag496
ag358
ag151
ag629
ag433
ag631
ag148
ag634
ag630
ag413
ag94
asg71
g752
sg72
g499
sg74
g295
sg76
g207
sg77
(iread_data
Room
p937
(dp938
g71
g299
sg72
g300
sbsbaa(lp939
(ischedule
Activity
p940
(dp941
g8
(lp942
g513
ag699
ag846
ag273
ag874
ag342
ag33
ag866
ag386
ag187
ag624
ag329
ag580
ag728
ag692
ag648
ag739
ag12
ag120
ag388
ag36
ag867
ag111
ag868
ag274
ag455
ag802
ag642
ag168
ag253
ag100
ag523
ag150
ag869
aS'31194811'
p943
ag805
ag258
ag870
aS'65852230'
p944
ag41
aS'2317551'
p945
ag228
ag285
ag314
aS'76802764'
p946
ag871
ag231
ag541
ag165
ag632
ag649
ag872
ag257
ag190
ag47
ag873
aS'79033175'
p947
ag429
aS'75759231'
p948
ag325
ag11
ag917
aS'2079771'
p949
ag93
ag634
ag819
ag880
ag363
ag17
asg71
I1000
sg72
g876
sg74
g75
sg76
I0
sg77
(iread_data
Room
p950
(dp951
g71
g244
sg72
g245
sbsba(ischedule
Activity
p952
(dp953
g8
(lp954
g343
ag119
ag505
ag174
ag313
ag116
ag506
ag104
ag283
ag448
ag446
ag507
ag508
ag21
ag179
ag509
ag510
ag511
ag101
ag512
ag513
ag487
ag44
ag92
ag514
ag344
ag59
ag249
ag515
ag167
ag46
ag516
ag385
ag91
ag276
ag183
ag280
ag340
ag334
ag323
ag338
asg71
S'40'
p955
sg72
g346
sg74
g206
sg76
g296
sg77
g208
sba(ischedule
Activity
p956
(dp957
g8
(lp958
g408
ag409
ag139
ag411
ag96
ag413
ag62
ag20
ag311
ag414
ag13
ag417
ag160
ag418
ag420
ag421
ag85
ag354
ag424
ag425
ag40
ag151
ag426
ag428
ag429
ag255
ag431
ag19
ag67
ag435
ag187
ag42
ag437
ag439
ag440
ag430
ag162
ag419
ag427
asg71
g931
sg72
g441
sg74
g295
sg76
g296
sg77
(iread_data
Room
p959
(dp960
g71
g199
sg72
g200
sbsba(ischedule
Activity
p961
(dp962
g8
g9
sg71
I1000
sg72
g73
sg74
g75
sg76
I0
sg77
g78
sba(ischedule
Activity
p963
(dp964
g8
g589
sg71
I1000
sg72
g546
sg74
g75
sg76
I0
sg77
g127
sbaa(lp965
(ischedule
Activity
p966
(dp967
g8
(lp968
g12
ag16
ag20
ag24
ag28
ag32
ag36
ag40
ag44
ag52
ag56
ag60
ag64
ag68
ag34
asg71
g205
sg72
g73
sg74
g206
sg76
g216
sg77
g78
sba(ischedule
Activity
p969
(dp970
g8
(lp971
g699
ag273
ag342
ag866
ag187
ag329
ag728
ag648
ag12
ag388
ag867
ag868
ag455
ag253
ag523
ag869
ag805
ag870
ag41
ag228
ag314
ag871
ag541
ag632
ag872
ag190
ag873
ag429
ag325
ag917
ag93
ag819
ag363
ag111
ag634
ag258
ag231
ag880
ag944
asg71
S'40'
p972
sg72
g876
sg74
g206
sg76
g296
sg77
(iread_data
Room
p973
(dp974
g71
g129
sg72
g130
sbsba(ischedule
Activity
p975
(dp976
g8
(lp977
g160
ag164
ag166
ag168
ag170
ag172
ag18
ag28
ag179
ag182
ag184
ag186
ag188
ag190
ag192
ag193
ag194
ag56
ag106
ag165
ag189
ag178
asg71
g854
sg72
g196
sg74
g295
sg76
g207
sg77
g208
sba(ischedule
Activity
p978
(dp979
g8
(lp980
g86
ag89
ag92
ag95
ag97
ag100
ag102
ag105
ag108
ag114
ag117
ag118
ag121
ag124
ag112
ag119
ag91
asg71
g215
sg72
g126
sg74
g206
sg76
g296
sg77
(iread_data
Room
p981
(dp982
g71
g299
sg72
g300
sbsba(ischedule
Activity
p983
(dp984
g8
(lp985
g107
ag40
ag104
ag280
ag285
ag278
ag279
ag282
asg71
g396
sg72
g288
sg74
g295
sg76
g207
sg77
(iread_data
Room
p986
(dp987
g71
g155
sg72
g156
sbsba(ischedule
Activity
p988
(dp989
g8
(lp990
g591
ag594
ag596
ag235
ag597
ag434
ag183
ag599
ag137
ag601
ag114
ag19
ag604
ag279
ag605
ag410
ag513
ag603
asg71
g545
sg72
g546
sg74
g295
sg76
g296
sg77
(iread_data
Room
p991
(dp992
g71
g199
sg72
g200
sbsbaa(lp993
(ischedule
Activity
p994
(dp995
g8
(lp996
g314
ag253
ag621
ag342
ag625
ag64
ag626
ag99
ag627
ag151
ag629
ag433
ag631
ag148
ag634
ag628
asg71
g498
sg72
g499
sg74
g206
sg76
g207
sg77
(iread_data
Room
p997
(dp998
g71
g210
sg72
g211
sbsba(ischedule
Activity
p999
(dp1000
g8
(lp1001
S'67625383'
p1002
ag450
ag493
ag185
ag274
aS'90067329'
p1003
ag649
ag161
ag866
ag544
ag372
ag331
ag257
ag124
ag452
ag251
ag383
aS'33252501'
p1004
ag448
ag713
ag949
ag15
asg71
I1000
sg72
S'Machine Learning'
p1005
sg74
g75
sg76
I0
sg77
g127
sba(ischedule
Activity
p1006
(dp1007
g8
(lp1008
g61
aS'59887191'
p1009
ag583
ag710
ag365
ag699
aS'63573738'
p1010
ag524
aS'5590289'
p1011
ag136
aS'123355'
p1012
ag28
ag573
ag540
ag488
aS'19058315'
p1013
ag526
asg71
g557
sg72
g558
sg74
g206
sg76
g458
sg77
g297
sba(ischedule
Activity
p1014
(dp1015
g8
g720
sg71
I1000
sg72
g735
sg74
g75
sg76
I0
sg77
g78
sba(ischedule
Activity
p1016
(dp1017
g8
(lp1018
g160
ag170
ag175
ag28
ag177
ag179
ag50
ag182
ag184
ag186
ag188
ag192
ag193
ag194
ag56
ag173
ag167
ag57
asg71
S'25'
p1019
sg72
g196
sg74
g206
sg76
g207
sg77
g465
sbaa(lp1020
(ischedule
Activity
p1021
(dp1022
g8
(lp1023
g12
ag16
ag20
ag24
ag28
ag32
ag36
ag40
ag44
ag48
ag52
ag56
ag60
ag64
ag68
ag49
ag31
ag67
ag59
ag61
asg71
S'20'
p1024
sg72
g73
sg74
g295
sg76
g216
sg77
g127
sba(ischedule
Activity
p1025
(dp1026
g8
(lp1027
g272
ag274
ag277
ag281
ag171
ag286
ag287
ag283
ag276
asg71
g396
sg72
g288
sg74
g295
sg76
g296
sg77
g208
sba(ischedule
Activity
p1028
(dp1029
g8
g758
sg71
I1000
sg72
g772
sg74
g75
sg76
I0
sg77
g465
sba(ischedule
Activity
p1030
(dp1031
g8
(lp1032
g161
ag163
ag165
ag169
ag171
ag174
ag176
ag106
ag178
ag180
ag181
ag183
ag185
ag187
ag189
ag191
ag149
ag195
ag190
ag166
ag172
ag168
ag164
ag18
ag162
asg71
g1019
sg72
g196
sg74
g206
sg76
g296
sg77
g78
sba(ischedule
Activity
p1033
(dp1034
g8
(lp1035
g150
ag194
ag622
ag623
ag624
ag497
ag540
ag439
ag628
ag338
ag62
ag54
ag633
ag411
asg71
g752
sg72
g499
sg74
g295
sg76
g216
sg77
(iread_data
Room
p1036
(dp1037
g71
g299
sg72
g300
sbsba(ischedule
Activity
p1038
(dp1039
g8
(lp1040
g595
ag609
ag612
ag536
ag613
ag107
ag517
ag617
ag331
ag369
ag57
ag615
ag191
asg71
g476
sg72
g477
sg74
g206
sg76
g296
sg77
(iread_data
Room
p1041
(dp1042
g71
g155
sg72
g156
sbsba(ischedule
Activity
p1043
(dp1044
g8
g84
sg71
I1000
sg72
g126
sg74
g75
sg76
I0
sg77
(iread_data
Room
p1045
(dp1046
g71
g244
sg72
g245
sbsbaaa(lp1047
(lp1048
(ischedule
Activity
p1049
(dp1050
g8
g271
sg71
I1000
sg72
g288
sg74
g75
sg76
I0
sg77
g78
sba(ischedule
Activity
p1051
(dp1052
g8
(lp1053
g815
ag647
ag42
ag522
aS'35315956'
p1054
ag185
ag184
ag264
ag272
ag450
ag121
ag117
ag604
aS'5739011'
p1055
aS'15249775'
p1056
asg71
g666
sg72
g667
sg74
g295
sg76
g296
sg77
(iread_data
Room
p1057
(dp1058
g71
g199
sg72
g200
sbsba(ischedule
Activity
p1059
(dp1060
g8
(lp1061
g513
ag846
ag874
ag33
ag386
ag624
ag580
ag692
ag739
ag120
ag36
ag274
ag168
ag100
ag150
ag943
ag945
ag285
ag946
ag165
ag649
ag257
ag47
ag947
ag948
ag11
ag949
ag17
ag642
ag802
asg71
g972
sg72
g876
sg74
g206
sg76
g207
sg77
(iread_data
Room
p1062
(dp1063
g71
g210
sg72
g211
sbsba(ischedule
Activity
p1064
(dp1065
g8
(lp1066
g733
ag100
ag759
ag761
ag26
ag762
ag763
ag604
ag764
ag765
ag69
ag160
ag767
ag768
ag769
ag770
ag234
ag419
ag655
ag453
asg71
g830
sg72
g772
sg74
g295
sg76
g296
sg77
(iread_data
Room
p1067
(dp1068
g71
g155
sg72
g156
sbsba(ischedule
Activity
p1069
(dp1070
g8
(lp1071
g361
aS'1695839'
p1072
ag582
ag183
ag700
aS'23215240'
p1073
ag92
aS'44151631'
p1074
ag176
aS'5892092'
p1075
ag848
aS'51472074'
p1076
aS'91250534'
p1077
ag173
ag816
asg71
g745
sg72
g746
sg74
g206
sg76
g296
sg77
g297
sba(ischedule
Activity
p1078
(dp1079
g8
(lp1080
g27
ag195
ag324
ag325
ag326
ag254
ag118
ag227
ag30
ag327
ag328
ag329
ag18
ag90
ag330
ag518
ag331
ag33
ag332
ag333
ag256
ag185
ag335
ag336
ag337
ag111
ag175
ag188
ag273
ag281
ag339
ag341
ag342
ag517
asg71
g955
sg72
g346
sg74
g206
sg76
g207
sg77
(iread_data
Room
p1081
(dp1082
g71
g129
sg72
g130
sbsba(ischedule
Activity
p1083
(dp1084
g8
g1001
sg71
I1000
sg72
g1005
sg74
g75
sg76
I0
sg77
(iread_data
Room
p1085
(dp1086
g71
g244
sg72
g245
sbsbaa(lp1087
(ischedule
Activity
p1088
(dp1089
g8
(lp1090
g385
ag819
ag728
aS'70336464'
p1091
ag439
ag150
ag68
ag65
ag814
ag135
ag99
ag761
ag690
aS'92496780'
p1092
ag136
ag943
ag815
aS'77264363'
p1093
ag816
aS'4697362'
p1094
ag328
ag708
ag147
ag113
ag45
ag517
ag817
ag263
ag16
ag594
ag818
ag310
ag591
aS'76487754'
p1095
ag255
ag342
ag190
ag279
asg71
I1000
sg72
g821
sg74
g75
sg76
I0
sg77
(iread_data
Room
p1096
(dp1097
g71
g199
sg72
g200
sbsba(ischedule
Activity
p1098
(dp1099
g8
(lp1100
g567
ag570
ag358
ag572
ag279
ag85
ag575
ag96
ag384
ag577
ag578
ag284
ag579
ag517
ag583
ag336
ag355
ag276
ag27
ag92
ag569
asg71
S'25'
p1101
sg72
g584
sg74
g295
sg76
g296
sg77
g242
sba(ischedule
Activity
p1102
(dp1103
g8
(lp1104
g566
ag88
ag137
ag571
ag439
ag261
ag574
ag259
ag576
ag58
ag189
ag64
ag138
ag16
ag580
ag582
ag136
ag61
ag192
ag568
ag581
ag573
ag509
asg71
g1101
sg72
g584
sg74
g295
sg76
g207
sg77
(iread_data
Room
p1105
(dp1106
g71
g210
sg72
g211
sbsba(ischedule
Activity
p1107
(dp1108
g8
(lp1109
g94
ag945
ag649
ag598
ag26
ag187
ag138
ag151
ag35
ag700
ag590
ag331
aS'88263855'
p1110
ag411
ag614
aS'73893840'
p1111
ag139
asg71
g456
sg72
g457
sg74
g206
sg76
g216
sg77
(iread_data
Room
p1112
(dp1113
g71
g155
sg72
g156
sbsba(ischedule
Activity
p1114
(dp1115
g8
(lp1116
g474
ag121
ag571
ag279
ag614
ag369
ag616
ag615
ag57
asg71
g681
sg72
g477
sg74
g295
sg76
g216
sg77
(iread_data
Room
p1117
(dp1118
g71
g80
sg72
g81
sbsba(ischedule
Activity
p1119
(dp1120
g8
(lp1121
g30
ag537
ag788
ag664
ag591
ag421
ag789
ag163
ag740
ag228
ag770
asg71
g835
sg72
g836
sg74
g206
sg76
g207
sg77
(iread_data
Room
p1122
(dp1123
g71
g129
sg72
g130
sbsba(ischedule
Activity
p1124
(dp1125
g8
(lp1126
g134
ag136
ag22
ag142
ag144
ag125
ag147
ag151
ag138
ag141
ag146
asg71
g403
sg72
g152
sg74
g206
sg76
g207
sg77
(iread_data
Room
p1127
(dp1128
g71
g299
sg72
g300
sbsbaa(lp1129
(ischedule
Activity
p1130
(dp1131
g8
(lp1132
g323
ag343
ag27
ag119
ag195
ag505
ag324
ag174
ag325
ag313
ag326
ag116
ag254
ag506
ag118
ag104
ag227
ag283
ag30
ag448
ag327
ag446
ag328
ag507
ag329
ag508
ag18
ag21
ag90
ag179
ag330
ag509
ag518
ag510
ag331
ag511
ag33
ag101
ag332
ag512
ag333
ag513
ag334
ag487
ag256
ag44
ag185
ag92
ag335
ag514
ag336
ag344
ag337
ag59
ag111
ag249
ag338
ag515
ag175
ag167
ag188
ag46
ag273
ag516
ag281
ag517
ag280
ag385
ag339
ag91
ag340
ag276
ag341
ag183
ag342
asg71
I1000
sg72
g346
sg74
g75
sg76
I0
sg77
g465
sba(ischedule
Activity
p1133
(dp1134
g8
g133
sg71
I1000
sg72
g152
sg74
g75
sg76
I0
sg77
g242
sba(ischedule
Activity
p1135
(dp1136
g8
(lp1137
g150
ag194
ag622
ag623
ag624
ag413
ag540
ag439
ag124
ag338
ag62
ag630
ag54
ag633
ag411
ag358
ag115
ag24
ag632
asg71
g498
sg72
g499
sg74
g206
sg76
g216
sg77
(iread_data
Room
p1138
(dp1139
g71
g299
sg72
g300
sbsba(ischedule
Activity
p1140
(dp1141
g8
(lp1142
S'81116418'
p1143
ag355
ag846
ag117
ag603
ag1010
aS'19662602'
p1144
ag728
aS'32183908'
p1145
aS'63939720'
p1146
ag41
ag431
ag474
ag33
asg71
g318
sg72
g319
sg74
g206
sg76
g207
sg77
(iread_data
Room
p1147
(dp1148
g71
g210
sg72
g211
sbsba(ischedule
Activity
p1149
(dp1150
g8
(lp1151
g1091
ag65
ag135
ag761
ag1092
ag943
ag1093
ag1094
ag708
ag113
ag517
ag263
ag594
ag1095
ag342
ag279
asg71
g820
sg72
g821
sg74
g295
sg76
g296
sg77
(iread_data
Room
p1152
(dp1153
g71
g80
sg72
g81
sbsba(ischedule
Activity
p1154
(dp1155
g8
(lp1156
g423
ag105
ag252
ag317
ag802
ag189
ag417
ag609
ag376
ag819
ag694
ag434
ag103
aS'16912993'
p1157
ag141
asg71
g557
sg72
g558
sg74
g206
sg76
g207
sg77
(iread_data
Room
p1158
(dp1159
g71
g129
sg72
g130
sbsbaa(lp1160
(ischedule
Activity
p1161
(dp1162
g8
(lp1163
g10
ag14
ag18
ag22
ag26
ag30
ag34
ag38
ag46
ag50
ag54
ag58
ag62
ag66
ag70
asg71
g1024
sg72
g73
sg74
g295
sg76
g207
sg77
g297
sba(ischedule
Activity
p1164
(dp1165
g8
g942
sg71
I1000
sg72
g876
sg74
g75
sg76
I0
sg77
g465
sba(ischedule
Activity
p1166
(dp1167
g8
(lp1168
g26
ag815
ag568
ag338
ag317
ag665
ag356
ag647
ag604
ag42
ag597
ag522
ag662
ag567
ag644
ag1054
ag663
ag185
ag541
ag184
ag438
ag264
ag1055
ag272
ag664
ag1056
ag191
ag450
ag10
ag428
ag117
ag121
asg71
I1000
sg72
g667
sg74
g75
sg76
I0
sg77
g127
sba(ischedule
Activity
p1169
(dp1170
g8
(lp1171
g13
ag17
ag21
ag25
ag29
ag33
ag37
ag41
ag45
ag53
ag65
ag69
ag42
asg71
g1024
sg72
g73
sg74
g295
sg76
g458
sg77
(iread_data
Room
p1172
(dp1173
g71
g80
sg72
g81
sbsba(ischedule
Activity
p1174
(dp1175
g8
(lp1176
g677
ag102
ag252
ag65
ag434
asg71
g529
sg72
g530
sg74
g206
sg76
g207
sg77
(iread_data
Room
p1177
(dp1178
g71
g155
sg72
g156
sbsba(ischedule
Activity
p1179
(dp1180
g8
(lp1181
g595
ag609
ag610
ag612
ag536
ag613
ag107
ag517
ag617
ag18
ag333
ag331
asg71
g681
sg72
g477
sg74
g295
sg76
g296
sg77
(iread_data
Room
p1182
(dp1183
g71
g210
sg72
g211
sbsbaa(lp1184
(ischedule
Activity
p1185
(dp1186
g8
(lp1187
g69
ag895
ag630
ag34
aS'34173695'
p1188
ag335
ag50
ag263
aS'6709529'
p1189
ag692
aS'75446434'
p1190
ag685
ag628
ag626
ag892
aS'79888156'
p1191
ag315
ag10
ag714
aS'61520025'
p1192
ag430
aS'11593163'
p1193
ag418
aS'93361408'
p1194
ag730
aS'56348773'
p1195
ag412
ag677
ag173
ag919
ag801
ag98
ag174
aS'59220392'
p1196
asg71
g378
sg72
g379
sg74
g295
sg76
g216
sg77
(iread_data
Room
p1197
(dp1198
g71
g210
sg72
g211
sbsba(ischedule
Activity
p1199
(dp1200
g8
(lp1201
S'51791169'
p1202
ag710
aS'73196865'
p1203
ag356
aS'63096281'
p1204
aS'12782624'
p1205
ag697
aS'7386961'
p1206
ag612
ag759
ag114
ag1056
ag1073
ag41
ag341
ag814
ag374
asg71
g456
sg72
g457
sg74
g206
sg76
g207
sg77
g297
sba(ischedule
Activity
p1207
(dp1208
g8
(lp1209
g513
ag846
ag386
ag624
ag580
ag692
ag739
ag120
ag36
ag111
ag274
ag802
ag168
ag100
ag150
ag943
ag258
ag944
ag945
ag285
ag946
ag231
ag649
ag257
ag47
ag947
ag948
ag11
ag949
ag634
ag880
ag17
ag325
ag917
asg71
g875
sg72
g876
sg74
g295
sg76
g207
sg77
(iread_data
Room
p1210
(dp1211
g71
g155
sg72
g156
sbsba(ischedule
Activity
p1212
(dp1213
g8
g1090
sg71
I1000
sg72
g821
sg74
g75
sg76
I0
sg77
g127
sba(ischedule
Activity
p1214
(dp1215
g8
g9
sg71
I1000
sg72
g73
sg74
g75
sg76
I0
sg77
g78
sba(ischedule
Activity
p1216
(dp1217
g8
(lp1218
g11
ag15
ag19
ag23
ag27
ag35
ag39
ag43
ag47
ag51
ag55
ag63
ag57
asg71
g1024
sg72
g73
sg74
g295
sg76
g296
sg77
(iread_data
Room
p1219
(dp1220
g71
g199
sg72
g200
sbsba(ischedule
Activity
p1221
(dp1222
g8
(lp1223
g592
ag372
ag595
ag508
ag437
ag95
ag598
ag554
ag109
ag600
ag602
ag187
ag62
ag113
ag590
ag495
ag593
asg71
g545
sg72
g546
sg74
g295
sg76
g216
sg77
(iread_data
Room
p1224
(dp1225
g71
g244
sg72
g245
sbsbaaa(lp1226
(lp1227
a(lp1228
a(lp1229
a(lp1230
(ischedule
Activity
p1231
(dp1232
g8
(lp1233
g27
ag638
ag69
ag354
ag639
ag895
ag355
ag424
ag324
ag227
ag640
ag630
ag356
ag641
ag34
ag357
ag642
ag1188
ag358
ag391
ag335
ag1196
ag140
ag50
ag114
ag643
ag263
ag359
ag555
ag1189
ag108
ag239
ag692
ag360
ag336
ag1190
ag361
ag644
ag685
ag224
ag645
ag628
ag362
ag272
ag626
ag363
ag88
ag892
ag364
ag253
ag194
ag110
ag311
ag1191
ag365
ag264
ag315
ag94
ag53
ag10
ag228
ag646
ag714
ag366
ag99
ag1192
ag367
ag526
ag430
ag368
ag647
ag1193
ag85
ag506
ag418
ag171
ag648
ag1194
ag369
ag161
ag730
ag370
ag174
ag1195
ag93
ag377
ag412
ag371
ag119
ag651
ag372
ag440
ag677
ag334
ag649
ag173
ag373
ag51
ag919
ag374
ag650
ag801
ag375
ag516
ag98
ag376
asg71
I1000
sg72
g379
sg74
g75
sg76
I0
sg77
(iread_data
Room
p1234
(dp1235
g71
g80
sg72
g81
sbsbaa(lp1236
aasS'timeslot_dict'
p1237
(dp1238
I0
S'9:00-11:00'
p1239
sI1
S'11:00-13:00'
p1240
sI2
S'13:00-15:00'
p1241
sI3
S'15:00-17:00'
p1242
sI4
S'17:00-19:00'
p1243
ssS'day_dict'
p1244
(dp1245
I0
S'Monday'
p1246
sI1
S'Tuesday'
p1247
sI2
S'Wednesday'
p1248
sI3
S'Thursday'
p1249
sI4
S'Friday'
p1250
ssb.