(ischedule
Schedule
p0
(dp1
S'timetable'
p2
(lp3
(lp4
(lp5
(ischedule
Activity
p6
(dp7
S'participants'
p8
(lp9
S'35330349'
p10
aS'61443567'
p11
aS'45556081'
p12
aS'77896638'
p13
aS'62701040'
p14
aS'48601268'
p15
aS'42171678'
p16
aS'54310617'
p17
aS'9332762'
p18
aS'37770881'
p19
aS'34773179'
p20
aS'97135019'
p21
aS'24277163'
p22
aS'53107172'
p23
aS'13092455'
p24
aS'51741554'
p25
aS'96104167'
p26
aS'29474737'
p27
aS'82689818'
p28
aS'46052388'
p29
aS'76123484'
p30
aS'5517869'
p31
aS'50184318'
p32
aS'77240949'
p33
aS'60312776'
p34
aS'21964491'
p35
aS'75521763'
p36
aS'42778953'
p37
aS'3233378'
p38
aS'87758823'
p39
aS'65960683'
p40
aS'58522654'
p41
aS'4783858'
p42
aS'22699561'
p43
aS'17222374'
p44
aS'57595888'
p45
aS'1665980'
p46
aS'73980360'
p47
aS'43027916'
p48
aS'64393888'
p49
aS'29640619'
p50
aS'23547619'
p51
aS'15902055'
p52
aS'72577292'
p53
aS'28357474'
p54
aS'64228258'
p55
aS'31416266'
p56
aS'17575088'
p57
aS'1075391'
p58
aS'25106480'
p59
aS'1696500'
p60
aS'13534377'
p61
aS'7308727'
p62
aS'42196732'
p63
aS'68601184'
p64
aS'86291592'
p65
aS'26406342'
p66
aS'86000192'
p67
aS'50143947'
p68
aS'64296965'
p69
aS'33760909'
p70
asS'capacity'
p71
I1000
sS'group'
p72
NsS'room'
p73
(iread_data
Room
p74
(dp75
g71
S'117'
p76
sS'name'
p77
S'C0.110'
p78
sbsS'ttype'
p79
S'lectures'
p80
sS'group_id'
p81
I0
sg77
S'Collectieve Intelligentie'
p82
sba(ischedule
Activity
p83
(dp84
g8
(lp85
S'47477884'
p86
aS'70844780'
p87
aS'72683344'
p88
aS'28618400'
p89
aS'40633534'
p90
aS'14847953'
p91
ag53
aS'92665222'
p92
aS'60352393'
p93
aS'78136904'
p94
aS'1886996'
p95
ag51
aS'39429093'
p96
aS'86807027'
p97
aS'75997788'
p98
aS'72665524'
p99
aS'62613937'
p100
aS'3168419'
p101
aS'27064249'
p102
aS'20883994'
p103
asg71
I1000
sg72
Nsg73
(iread_data
Room
p104
(dp105
g71
S'48'
p106
sg77
S'B0.201'
p107
sbsg79
g80
sg81
I0
sg77
S'Advanced Heuristics'
p108
sba(ischedule
Activity
p109
(dp110
g8
(lp111
S'37399898'
p112
aS'38179241'
p113
aS'81200278'
p114
aS'76924297'
p115
aS'2550487'
p116
aS'65675896'
p117
aS'44828429'
p118
aS'69634191'
p119
aS'34765676'
p120
aS'19214659'
p121
aS'81385263'
p122
aS'4546613'
p123
aS'21677389'
p124
aS'28055464'
p125
ag51
aS'93566383'
p126
aS'5368702'
p127
aS'66034145'
p128
aS'81155296'
p129
aS'37701751'
p130
aS'20374340'
p131
ag91
aS'76661016'
p132
aS'3707829'
p133
aS'64768422'
p134
asg71
I1000
sg72
Nsg73
(iread_data
Room
p135
(dp136
g71
S'60'
p137
sg77
S'C1.112'
p138
sbsg79
g80
sg81
I0
sg77
S'Interactie-ontwerp'
p139
sba(ischedule
Activity
p140
(dp141
g8
(lp142
S'44901052'
p143
aS'13658563'
p144
aS'23983476'
p145
aS'68315599'
p146
aS'18266644'
p147
aS'77636749'
p148
aS'58332004'
p149
aS'8557857'
p150
aS'17496687'
p151
aS'32204977'
p152
aS'11459236'
p153
aS'13116738'
p154
aS'75585647'
p155
aS'36748818'
p156
aS'92977271'
p157
asg71
S'15'
p158
sg72
(ischedule
Group
p159
(dp160
g8
g142
sg77
S'Informatie- en organsatieontwerp2'
p161
sbsg73
(iread_data
Room
p162
(dp163
g71
S'22'
p164
sg77
S'A1.06'
p165
sbsg79
S'tutorials'
p166
sg81
S'2'
p167
sg77
S'Informatie- en organsatieontwerp'
p168
sba(ischedule
Activity
p169
(dp170
g8
(lp171
S'74131924'
p172
aS'37110913'
p173
asg71
S'10'
p174
sg72
(ischedule
Group
p175
(dp176
g8
g171
sg77
S'Autonomous Agents 22'
p177
sbsg73
(iread_data
Room
p178
(dp179
g71
S'20'
p180
sg77
S'A1.08'
p181
sbsg79
g166
sg81
g167
sg77
S'Autonomous Agents 2'
p182
sba(ischedule
Activity
p183
(dp184
g8
(lp185
S'38296757'
p186
aS'94467156'
p187
aS'26857113'
p188
aS'63111000'
p189
aS'40791377'
p190
aS'67625383'
p191
aS'90067329'
p192
aS'5976174'
p193
aS'3685034'
p194
aS'37744525'
p195
aS'27187154'
p196
aS'56988998'
p197
aS'33252501'
p198
aS'23798155'
p199
aS'39459642'
p200
aS'46701583'
p201
ag33
aS'85236626'
p202
aS'49683101'
p203
aS'61518436'
p204
aS'15051051'
p205
aS'2079771'
p206
asg71
I1000
sg72
Nsg73
(iread_data
Room
p207
(dp208
g71
S'41'
p209
sg77
S'A1.04'
p210
sbsg79
g80
sg81
I0
sg77
S'Machine Learning'
p211
sba(ischedule
Activity
p212
(dp213
g8
(lp214
S'51566595'
p215
aS'87900893'
p216
aS'91196968'
p217
aS'17823206'
p218
aS'81022997'
p219
aS'22323043'
p220
aS'87314964'
p221
aS'45414528'
p222
asg71
S'10'
p223
sg72
(ischedule
Group
p224
(dp225
g8
g214
sg77
S'Data Mining3'
p226
sbsg73
(iread_data
Room
p227
(dp228
g71
S'56'
p229
sg77
S'A1.10'
p230
sbsg79
g166
sg81
S'3'
p231
sg77
S'Data Mining'
p232
sbaa(lp233
(ischedule
Activity
p234
(dp235
g8
(lp236
g36
ag146
aS'58592894'
p237
ag16
aS'36527838'
p238
aS'27916487'
p239
aS'3883025'
p240
aS'58699305'
p241
aS'48198668'
p242
aS'78243495'
p243
aS'30658799'
p244
aS'70072978'
p245
aS'89180944'
p246
ag149
aS'11741347'
p247
aS'64600457'
p248
aS'83415514'
p249
aS'14309255'
p250
aS'49631542'
p251
aS'83266686'
p252
aS'78443067'
p253
ag98
aS'66621166'
p254
aS'27241113'
p255
ag31
aS'13911001'
p256
ag205
ag22
aS'96082155'
p257
aS'13218321'
p258
aS'29526540'
p259
ag189
aS'84449005'
p260
aS'33776961'
p261
aS'59111489'
p262
aS'78544592'
p263
aS'1181560'
p264
aS'18144425'
p265
ag44
aS'47462856'
p266
aS'11996292'
p267
aS'41489515'
p268
aS'46570285'
p269
aS'49219163'
p270
aS'78821918'
p271
aS'4709948'
p272
aS'85335143'
p273
aS'1766560'
p274
aS'99283252'
p275
ag32
aS'77376714'
p276
ag156
aS'51650744'
p277
aS'43680781'
p278
asg71
I1000
sg72
Nsg73
(iread_data
Room
p279
(dp280
g71
g229
sg77
g230
sbsg79
g80
sg81
I0
sg77
S'Moderne Databases'
p281
sba(ischedule
Activity
p282
(dp283
g8
(lp284
S'11915563'
p285
aS'54026378'
p286
ag143
aS'70113753'
p287
ag200
aS'72796858'
p288
asg71
g174
sg72
(ischedule
Group
p289
(dp290
g8
g284
sg77
S'Autonomous Agents 21'
p291
sbsg73
(iread_data
Room
p292
(dp293
g71
g164
sg77
g165
sbsg79
g166
sg81
S'1'
p294
sg77
g182
sba(ischedule
Activity
p295
(dp296
g8
(lp297
g50
ag62
ag51
ag63
ag42
ag48
ag13
ag15
ag56
ag14
ag33
ag69
ag34
ag61
ag70
ag67
asg71
S'20'
p298
sg72
(ischedule
Group
p299
(dp300
g8
g297
sg77
S'Collectieve Intelligentie1'
p301
sbsg73
(iread_data
Room
p302
(dp303
g71
g106
sg77
g107
sbsg79
g166
sg81
g294
sg77
g82
sba(ischedule
Activity
p304
(dp305
g8
(lp306
g216
ag221
ag172
aS'99453514'
p307
ag195
aS'93023961'
p308
aS'19337738'
p309
aS'66122625'
p310
ag222
aS'97136582'
p311
ag114
ag220
aS'98780382'
p312
aS'25330192'
p313
aS'59753700'
p314
aS'13996448'
p315
ag217
ag219
ag68
aS'70878567'
p316
ag218
ag154
ag173
aS'68360259'
p317
ag35
aS'52311353'
p318
ag215
asg71
I1000
sg72
Nsg73
(iread_data
Room
p319
(dp320
g71
g209
sg77
g210
sbsg79
g80
sg81
I0
sg77
g232
sba(ischedule
Activity
p321
(dp322
g8
(lp323
S'53202517'
p324
aS'33877725'
p325
ag53
aS'40434933'
p326
ag55
ag30
aS'17092717'
p327
aS'22288615'
p328
aS'43460038'
p329
aS'69459473'
p330
aS'72895450'
p331
aS'94930277'
p332
aS'53512831'
p333
aS'57086672'
p334
aS'1137946'
p335
aS'49908313'
p336
ag11
aS'76648468'
p337
aS'16333449'
p338
aS'3474870'
p339
aS'14303208'
p340
ag91
aS'28358060'
p341
asg71
S'20'
p342
sg72
(ischedule
Group
p343
(dp344
g8
g323
sg77
S'Webprogrammeren en databases2'
p345
sbsg73
(iread_data
Room
p346
(dp347
g71
g76
sg77
g78
sbsg79
S'labs'
p348
sg81
g167
sg77
S'Webprogrammeren en databases'
p349
sba(ischedule
Activity
p350
(dp351
g8
(lp352
S'24613625'
p353
ag19
aS'48678993'
p354
aS'82066165'
p355
aS'66701209'
p356
ag132
aS'74361881'
p357
aS'27925117'
p358
aS'27950803'
p359
aS'58253841'
p360
aS'25994016'
p361
aS'25077484'
p362
aS'75680261'
p363
aS'55480737'
p364
aS'14179347'
p365
aS'41644639'
p366
ag201
aS'86180471'
p367
ag115
asg71
S'15'
p368
sg72
(ischedule
Group
p369
(dp370
g8
g352
sg77
S'Project Genetic Algorithms1'
p371
sbsg73
(iread_data
Room
p372
(dp373
g71
g137
sg77
g138
sbsg79
g348
sg81
g294
sg77
S'Project Genetic Algorithms'
p374
sba(ischedule
Activity
p375
(dp376
g8
(lp377
g24
ag97
aS'48308205'
p378
ag116
ag121
aS'74182182'
p379
aS'89338938'
p380
aS'73823548'
p381
aS'14941752'
p382
aS'37419523'
p383
ag89
asg71
S'15'
p384
sg72
(ischedule
Group
p385
(dp386
g8
g377
sg77
S'Project Numerical Recipes2'
p387
sbsg73
(iread_data
Room
p388
(dp389
g71
g180
sg77
g181
sbsg79
g348
sg81
g167
sg77
S'Project Numerical Recipes'
p390
sbaa(lp391
(ischedule
Activity
p392
(dp393
g8
(lp394
g334
aS'48357272'
p395
aS'72456780'
p396
aS'87830198'
p397
aS'33672995'
p398
aS'58480929'
p399
aS'34243356'
p400
aS'51542218'
p401
aS'82854435'
p402
aS'18477924'
p403
aS'73302736'
p404
ag273
aS'42115591'
p405
aS'97838175'
p406
aS'60661905'
p407
aS'23658570'
p408
aS'13718298'
p409
ag271
ag98
aS'16097870'
p410
aS'4921119'
p411
aS'78822885'
p412
aS'77831658'
p413
ag199
aS'41578612'
p414
aS'22871048'
p415
aS'36785409'
p416
ag318
aS'34900967'
p417
ag69
aS'5085194'
p418
aS'97019450'
p419
aS'83443653'
p420
aS'5595824'
p421
aS'94955328'
p422
aS'88737765'
p423
aS'23565001'
p424
aS'65318664'
p425
ag48
ag100
aS'14637758'
p426
ag354
aS'56544130'
p427
aS'72586808'
p428
aS'56815156'
p429
aS'70193386'
p430
aS'73350019'
p431
ag147
aS'80188025'
p432
asg71
I1000
sg72
Nsg73
(iread_data
Room
p433
(dp434
g71
g76
sg77
g78
sbsg79
g80
sg81
I0
sg77
S'Analysemethoden en -technieken'
p435
sba(ischedule
Activity
p436
(dp437
g8
(lp438
g94
aS'53585410'
p439
ag145
ag276
ag68
aS'12077419'
p440
ag339
ag52
aS'27298319'
p441
ag215
aS'64554442'
p442
aS'52715680'
p443
ag122
aS'57467488'
p444
ag133
ag46
ag331
aS'51509565'
p445
aS'41527759'
p446
ag193
aS'40343779'
p447
aS'41585485'
p448
aS'43902015'
p449
aS'67817269'
p450
aS'88596522'
p451
aS'96453361'
p452
ag28
aS'66433883'
p453
aS'14671406'
p454
ag201
ag237
asg71
S'25'
p455
sg72
(ischedule
Group
p456
(dp457
g8
g438
sg77
S'Algoritmen en complexiteit1'
p458
sbsg73
(iread_data
Room
p459
(dp460
g71
g209
sg77
g210
sbsg79
g166
sg81
g294
sg77
S'Algoritmen en complexiteit'
p461
sba(ischedule
Activity
p462
(dp463
g8
(lp464
g62
aS'12430748'
p465
ag34
aS'19662602'
p466
aS'75005528'
p467
aS'73236988'
p468
aS'63573738'
p469
ag65
ag37
aS'13284244'
p470
aS'40911986'
p471
aS'32183908'
p472
aS'63939720'
p473
aS'6939933'
p474
aS'90103047'
p475
ag315
aS'32044893'
p476
aS'11068043'
p477
aS'88752563'
p478
aS'42406214'
p479
asg71
g384
sg72
(ischedule
Group
p480
(dp481
g8
g464
sg77
S'Project Numerical Recipes3'
p482
sbsg73
(iread_data
Room
p483
(dp484
g71
g164
sg77
g165
sbsg79
g348
sg81
g231
sg77
g390
sba(ischedule
Activity
p485
(dp486
g8
(lp487
g278
ag24
ag261
ag173
ag22
aS'6913074'
p488
ag272
ag186
ag144
aS'90474003'
p489
ag87
aS'36213792'
p490
ag93
aS'77392404'
p491
ag307
aS'49922855'
p492
asg71
S'20'
p493
sg72
(ischedule
Group
p494
(dp495
g8
g487
sg77
S'Reflectie op de digitale cultuur1'
p496
sbsg73
(iread_data
Room
p497
(dp498
g71
g180
sg77
g181
sbsg79
g166
sg81
g294
sg77
S'Reflectie op de digitale cultuur'
p499
sba(ischedule
Activity
p500
(dp501
g8
(lp502
g35
ag118
aS'19540225'
p503
aS'64947290'
p504
aS'26260141'
p505
ag120
aS'86988337'
p506
aS'8522855'
p507
aS'36903574'
p508
aS'91527663'
p509
aS'23652927'
p510
aS'21095566'
p511
asg71
g455
sg72
(ischedule
Group
p512
(dp513
g8
g502
sg77
S'Algoritmen en complexiteit2'
p514
sbsg73
(iread_data
Room
p515
(dp516
g71
g106
sg77
g107
sbsg79
g166
sg81
g167
sg77
g461
sba(ischedule
Activity
p517
(dp518
g8
(lp519
g31
ag36
ag156
ag205
ag238
ag267
asg71
S'20'
p520
sg72
(ischedule
Group
p521
(dp522
g8
g519
sg77
S'Moderne Databases2'
p523
sbsg73
(iread_data
Room
p524
(dp525
g71
g229
sg77
g230
sbsg79
g166
sg81
g167
sg77
g281
sbaa(lp526
(ischedule
Activity
p527
(dp528
g8
(lp529
S'55412918'
p530
ag400
ag217
ag63
ag13
aS'94686490'
p531
aS'80998260'
p532
aS'14591033'
p533
aS'83210352'
p534
aS'34588570'
p535
aS'79617364'
p536
ag10
ag126
aS'81218347'
p537
aS'55474917'
p538
ag56
aS'90743504'
p539
aS'96118484'
p540
aS'79937969'
p541
aS'38499176'
p542
ag37
ag112
ag339
ag467
ag414
ag410
ag338
ag422
aS'36508571'
p543
aS'80709893'
p544
aS'54074680'
p545
ag39
ag122
aS'32595335'
p546
ag411
aS'71839156'
p547
ag378
ag238
ag31
aS'62872965'
p548
aS'56872729'
p549
aS'21311067'
p550
aS'10149535'
p551
aS'61060652'
p552
ag405
aS'58866007'
p553
ag424
aS'26172512'
p554
ag318
aS'68409833'
p555
aS'66570705'
p556
ag379
aS'670011'
p557
aS'16011419'
p558
asg71
I1000
sg72
Nsg73
(iread_data
Room
p559
(dp560
g71
g137
sg77
g138
sbsg79
g80
sg81
I0
sg77
S'Lineaire Algebra'
p561
sba(ischedule
Activity
p562
(dp563
g8
(lp564
g22
ag274
ag256
ag44
ag253
ag275
ag265
ag243
ag254
ag270
ag266
ag240
ag239
ag258
ag242
ag271
ag149
ag32
ag246
ag16
ag249
ag244
ag269
ag245
ag262
asg71
g520
sg72
(ischedule
Group
p565
(dp566
g8
g564
sg77
S'Moderne Databases1'
p567
sbsg73
(iread_data
Room
p568
(dp569
g71
g229
sg77
g230
sbsg79
g166
sg81
g294
sg77
g281
sba(ischedule
Activity
p570
(dp571
g8
(lp572
S'14816774'
p573
ag63
aS'89985072'
p574
aS'21029457'
p575
ag536
ag101
aS'96054456'
p576
aS'22731474'
p577
ag429
aS'88176729'
p578
ag114
aS'28359697'
p579
ag468
aS'59544049'
p580
ag248
ag278
aS'30050930'
p581
aS'22826928'
p582
aS'6723948'
p583
ag353
aS'247918'
p584
ag259
aS'44868097'
p585
ag35
ag172
ag273
ag286
ag325
ag477
aS'56749879'
p586
ag324
ag533
aS'5298748'
p587
ag62
aS'66120270'
p588
ag488
aS'33930505'
p589
aS'30195935'
p590
ag316
ag103
ag452
aS'4568018'
p591
ag41
ag413
ag205
asg71
I1000
sg72
Nsg73
(iread_data
Room
p592
(dp593
g71
g76
sg77
g78
sbsg79
g80
sg81
I0
sg77
S'Bioinformatica'
p594
sba(ischedule
Activity
p595
(dp596
g8
(lp597
g11
ag36
ag19
ag66
ag18
ag53
ag12
ag47
ag26
asg71
g298
sg72
(ischedule
Group
p598
(dp599
g8
g597
sg77
S'Collectieve Intelligentie2'
p600
sbsg73
(iread_data
Room
p601
(dp602
g71
g180
sg77
g181
sbsg79
g166
sg81
g167
sg77
g82
sba(ischedule
Activity
p603
(dp604
g8
g185
sg71
I1000
sg72
Nsg73
(iread_data
Room
p605
(dp606
g71
g106
sg77
g107
sbsg79
g80
sg81
I0
sg77
g211
sbaa(lp607
(ischedule
Activity
p608
(dp609
g8
(lp610
g267
ag220
ag278
ag36
ag66
ag326
aS'93041523'
p611
aS'4697362'
p612
aS'70336464'
p613
ag148
aS'6249823'
p614
aS'75664412'
p615
aS'47982619'
p616
aS'14383795'
p617
aS'7106649'
p618
aS'76487754'
p619
ag250
ag143
ag273
aS'31194811'
p620
aS'21192048'
p621
ag465
aS'77264363'
p622
ag380
ag378
aS'97371272'
p623
aS'58565406'
p624
aS'92496780'
p625
ag414
ag152
aS'69086548'
p626
ag551
ag416
ag173
ag51
ag18
asg71
S'20'
p627
sg72
(ischedule
Group
p628
(dp629
g8
g610
sg77
S'Technology for games1'
p630
sbsg73
(iread_data
Room
p631
(dp632
g71
g229
sg77
g230
sbsg79
g166
sg81
g294
sg77
S'Technology for games'
p633
sba(ischedule
Activity
p634
(dp635
g8
g502
sg71
S'25'
p636
sg72
g512
sg73
(iread_data
Room
p637
(dp638
g71
g137
sg77
g138
sbsg79
g348
sg81
g167
sg77
g461
sba(ischedule
Activity
p639
(dp640
g8
(lp641
g41
ag591
ag468
ag583
ag324
ag353
ag114
ag573
ag205
ag578
ag590
ag325
ag586
ag477
ag103
ag581
ag576
ag589
ag577
ag429
asg71
S'20'
p642
sg72
(ischedule
Group
p643
(dp644
g8
g641
sg77
S'Bioinformatica3'
p645
sbsg73
(iread_data
Room
p646
(dp647
g71
g180
sg77
g181
sbsg79
g348
sg81
g231
sg77
g594
sba(ischedule
Activity
p648
(dp649
g8
(lp650
g252
ag132
ag102
ag55
ag340
ag70
ag478
aS'53139134'
p651
ag379
aS'37279234'
p652
aS'63634350'
p653
ag536
aS'70939718'
p654
aS'79167252'
p655
ag585
aS'5615125'
p656
ag531
aS'72526473'
p657
aS'62105897'
p658
aS'6709529'
p659
aS'75446434'
p660
ag358
ag575
ag398
ag113
aS'65408517'
p661
asg71
S'40'
p662
sg72
(ischedule
Group
p663
(dp664
g8
g650
sg77
S'Calculus 21'
p665
sbsg73
(iread_data
Room
p666
(dp667
g71
g209
sg77
g210
sbsg79
g166
sg81
g294
sg77
S'Calculus 2'
p668
sba(ischedule
Activity
p669
(dp670
g8
g438
sg71
g636
sg72
g456
sg73
(iread_data
Room
p671
(dp672
g71
g76
sg77
g78
sbsg79
g348
sg81
g294
sg77
g461
sba(ischedule
Activity
p673
(dp674
g8
g564
sg71
S'20'
p675
sg72
g565
sg73
(iread_data
Room
p676
(dp677
g71
g106
sg77
g107
sbsg79
g348
sg81
g294
sg77
g281
sba(ischedule
Activity
p678
(dp679
g8
(lp680
g543
ag555
ag441
ag410
ag31
ag287
ag286
aS'52552718'
p681
ag172
aS'34806836'
p682
ag143
aS'88627897'
p683
ag200
aS'62356458'
p684
aS'61611295'
p685
ag215
aS'19858730'
p686
ag285
ag288
ag415
ag173
ag548
asg71
I1000
sg72
Nsg73
(iread_data
Room
p687
(dp688
g71
g164
sg77
g165
sbsg79
g80
sg81
I0
sg77
g182
sbaaa(lp689
(lp690
(ischedule
Activity
p691
(dp692
g8
(lp693
g422
ag507
aS'9731271'
p694
ag218
ag204
aS'72547110'
p695
aS'91139627'
p696
ag400
ag251
ag149
ag653
ag194
ag33
ag586
ag199
aS'28957789'
p697
ag94
ag69
aS'32705005'
p698
aS'7492204'
p699
aS'20331158'
p700
aS'44940353'
p701
aS'39919665'
p702
ag266
ag103
ag446
ag576
ag379
aS'79858178'
p703
aS'78735049'
p704
ag623
aS'37498675'
p705
ag580
aS'14398123'
p706
ag187
aS'31247305'
p707
aS'65003379'
p708
aS'84110134'
p709
ag285
aS'84524083'
p710
aS'51186803'
p711
aS'99272880'
p712
aS'34262212'
p713
ag542
ag656
aS'63955238'
p714
ag196
ag405
ag626
aS'54569540'
p715
aS'79366078'
p716
ag17
ag148
ag380
ag41
aS'10792879'
p717
ag538
aS'31633723'
p718
aS'63408522'
p719
aS'58469172'
p720
ag269
ag401
ag419
aS'20239127'
p721
ag448
aS'10872825'
p722
aS'23391676'
p723
aS'39230359'
p724
aS'38329455'
p725
ag147
ag115
ag454
ag197
ag533
aS'39659121'
p726
ag217
aS'59075181'
p727
ag127
aS'47605891'
p728
ag537
aS'82688900'
p729
ag508
aS'24875739'
p730
ag577
asg71
I1000
sg72
Nsg73
(iread_data
Room
p731
(dp732
g71
g76
sg77
g78
sbsg79
g80
sg81
I0
sg77
S'Kansrekenen 2'
p733
sba(ischedule
Activity
p734
(dp735
g8
g323
sg71
S'20'
p736
sg72
g343
sg73
(iread_data
Room
p737
(dp738
g71
g209
sg77
g210
sbsg79
g166
sg81
g167
sg77
g349
sba(ischedule
Activity
p739
(dp740
g8
(lp741
g314
ag195
ag318
ag317
ag173
ag114
ag310
ag316
ag312
ag315
asg71
S'10'
p742
sg72
(ischedule
Group
p743
(dp744
g8
g741
sg77
S'Data Mining1'
p745
sbsg73
(iread_data
Room
p746
(dp747
g71
g180
sg77
g181
sbsg79
g348
sg81
g294
sg77
g232
sba(ischedule
Activity
p748
(dp749
g8
(lp750
g215
ag410
ag681
ag31
ag441
ag555
ag415
ag543
ag683
ag682
ag548
ag684
ag686
ag685
asg71
g174
sg72
(ischedule
Group
p751
(dp752
g8
g750
sg77
S'Autonomous Agents 23'
p753
sbsg73
(iread_data
Room
p754
(dp755
g71
g229
sg77
g230
sbsg79
g166
sg81
g231
sg77
g182
sba(ischedule
Activity
p756
(dp757
g8
(lp758
S'58736785'
p759
aS'31897288'
p760
aS'98105190'
p761
aS'87210640'
p762
aS'76393508'
p763
aS'20830477'
p764
aS'45660925'
p765
asg71
S'25'
p766
sg72
(ischedule
Group
p767
(dp768
g8
g758
sg77
S'Heuristieken 11'
p769
sbsg73
(iread_data
Room
p770
(dp771
g71
g106
sg77
g107
sbsg79
g166
sg81
g294
sg77
S'Heuristieken 1'
p772
sba(ischedule
Activity
p773
(dp774
g8
(lp775
g416
ag51
ag615
ag619
ag146
ag278
ag148
ag173
ag612
ag326
ag624
ag152
ag551
ag617
ag622
ag220
ag465
ag625
ag250
ag440
ag618
ag267
ag380
ag616
ag626
ag66
ag613
ag414
ag273
ag623
ag611
ag18
ag36
ag621
ag620
ag614
ag143
ag378
asg71
I1000
sg72
Nsg73
(iread_data
Room
p776
(dp777
g71
g137
sg77
g138
sbsg79
g80
sg81
I0
sg77
g633
sba(ischedule
Activity
p778
(dp779
g8
(lp780
g307
ag68
ag172
ag308
ag35
ag309
ag154
ag311
ag313
asg71
g223
sg72
(ischedule
Group
p781
(dp782
g8
g780
sg77
S'Data Mining2'
p783
sbsg73
(iread_data
Room
p784
(dp785
g71
g164
sg77
g165
sbsg79
g166
sg81
g167
sg77
g232
sbaa(lp786
(ischedule
Activity
p787
(dp788
g8
g750
sg71
S'10'
p789
sg72
g751
sg73
(iread_data
Room
p790
(dp791
g71
g180
sg77
g181
sbsg79
g348
sg81
g231
sg77
g182
sba(ischedule
Activity
p792
(dp793
g8
(lp794
g152
ag143
ag155
ag154
ag147
ag149
ag144
ag14
aS'29718115'
p795
ag148
ag150
aS'23257088'
p796
ag145
aS'19958553'
p797
ag151
ag146
ag36
ag156
ag153
ag316
ag157
asg71
I1000
sg72
Nsg73
(iread_data
Room
p798
(dp799
g71
g76
sg77
g78
sbsg79
g80
sg81
I0
sg77
g168
sba(ischedule
Activity
p800
(dp801
g8
(lp802
g68
ag59
ag21
ag52
ag38
ag55
ag28
ag65
ag32
ag54
ag37
ag39
ag49
ag24
ag10
ag30
ag29
ag22
ag40
ag16
ag25
ag17
ag46
ag27
ag43
ag60
ag20
ag23
asg71
g298
sg72
(ischedule
Group
p803
(dp804
g8
g802
sg77
S'Collectieve Intelligentie4'
p805
sbsg73
(iread_data
Room
p806
(dp807
g71
g137
sg77
g138
sbsg79
g166
sg81
S'4'
p808
sg77
g82
sba(ischedule
Activity
p809
(dp810
g8
g572
sg71
I1000
sg72
Nsg73
(iread_data
Room
p811
(dp812
g71
g106
sg77
g107
sbsg79
g80
sg81
I0
sg77
g594
sba(ischedule
Activity
p813
(dp814
g8
(lp815
g478
ag237
aS'40141996'
p816
ag86
aS'47932106'
p817
ag531
ag408
ag549
ag381
aS'12091019'
p818
ag367
ag50
aS'5526560'
p819
ag327
aS'56191333'
p820
aS'54540997'
p821
aS'46989508'
p822
ag444
ag48
ag362
ag66
ag44
ag245
ag504
aS'59397895'
p823
aS'4529208'
p824
aS'83869542'
p825
ag506
ag267
ag69
aS'26207525'
p826
ag411
aS'13132925'
p827
aS'58083680'
p828
ag251
ag93
aS'27123462'
p829
ag326
aS'77960666'
p830
ag401
asg71
S'40'
p831
sg72
(ischedule
Group
p832
(dp833
g8
g815
sg77
S'Databases 22'
p834
sbsg73
(iread_data
Room
p835
(dp836
g71
g209
sg77
g210
sbsg79
g166
sg81
g167
sg77
S'Databases 2'
p837
sba(ischedule
Activity
p838
(dp839
g8
(lp840
g243
ag614
ag724
ag656
aS'24891081'
p841
ag246
aS'76903244'
p842
aS'10698627'
p843
aS'20618153'
p844
ag102
ag449
ag128
aS'2416751'
p845
ag491
aS'67073567'
p846
aS'41790793'
p847
asg71
g736
sg72
(ischedule
Group
p848
(dp849
g8
g840
sg77
S'Webprogrammeren en databases1'
p850
sbsg73
(iread_data
Room
p851
(dp852
g71
g164
sg77
g165
sbsg79
g166
sg81
g294
sg77
g349
sba(ischedule
Activity
p853
(dp854
g8
(lp855
S'85284256'
p856
ag654
aS'12170832'
p857
asg71
S'20'
p858
sg72
(ischedule
Group
p859
(dp860
g8
g855
sg77
S'Netwerken en systeembeveiliging2'
p861
sbsg73
(iread_data
Room
p862
(dp863
g71
g229
sg77
g230
sbsg79
g348
sg81
g167
sg77
S'Netwerken en systeembeveiliging'
p864
sbaa(lp865
(ischedule
Activity
p866
(dp867
g8
g9
sg71
I1000
sg72
Nsg73
(iread_data
Room
p868
(dp869
g71
g76
sg77
g78
sbsg79
g80
sg81
I0
sg77
g82
sba(ischedule
Activity
p870
(dp871
g8
(lp872
g331
ag413
aS'7957843'
p873
ag577
ag709
aS'48503689'
p874
aS'34691309'
p875
ag274
ag194
aS'81116418'
p876
ag219
aS'21070547'
p877
ag684
asg71
g384
sg72
(ischedule
Group
p878
(dp879
g8
g872
sg77
S'Project Numerical Recipes1'
p880
sbsg73
(iread_data
Room
p881
(dp882
g71
g164
sg77
g165
sbsg79
g348
sg81
g294
sg77
g390
sba(ischedule
Activity
p883
(dp884
g8
(lp885
g273
ag252
ag278
ag98
ag237
ag276
ag250
ag146
ag259
ag261
ag268
ag263
ag251
ag241
ag272
ag260
ag257
ag247
ag248
ag264
ag189
ag255
ag277
asg71
g675
sg72
(ischedule
Group
p886
(dp887
g8
g885
sg77
S'Moderne Databases3'
p888
sbsg73
(iread_data
Room
p889
(dp890
g71
g106
sg77
g107
sbsg79
g348
sg81
g231
sg77
g281
sba(ischedule
Activity
p891
(dp892
g8
(lp893
g416
ag506
aS'99975346'
p894
ag334
ag414
aS'68286356'
p895
aS'27805666'
p896
ag721
ag830
ag443
ag587
ag112
ag314
ag430
aS'20095994'
p897
ag415
aS'96554914'
p898
ag409
ag582
ag710
ag715
ag407
aS'51415617'
p899
ag204
ag476
aS'92778619'
p900
aS'51052738'
p901
aS'82390428'
p902
asg71
g493
sg72
(ischedule
Group
p903
(dp904
g8
g893
sg77
S'Reflectie op de digitale cultuur3'
p905
sbsg73
(iread_data
Room
p906
(dp907
g71
g229
sg77
g230
sbsg79
g166
sg81
g231
sg77
g499
sba(ischedule
Activity
p908
(dp909
g8
(lp910
g400
ag469
aS'535689'
p911
aS'4353500'
p912
aS'5590289'
p913
ag143
aS'53267490'
p914
ag99
ag428
aS'123355'
p915
ag694
aS'25557516'
p916
ag124
ag507
ag87
aS'16912993'
p917
aS'82872148'
p918
ag491
ag588
ag122
ag240
ag195
ag396
asg71
g858
sg72
(ischedule
Group
p919
(dp920
g8
g910
sg77
S'Netwerken en systeembeveiliging4'
p921
sbsg73
(iread_data
Room
p922
(dp923
g71
g137
sg77
g138
sbsg79
g348
sg81
g808
sg77
g864
sba(ischedule
Activity
p924
(dp925
g8
(lp926
g256
ag617
ag591
ag712
ag355
aS'64418623'
p927
aS'55103073'
p928
ag451
ag152
aS'14138904'
p929
ag357
aS'1695839'
p930
asg71
S'15'
p931
sg72
(ischedule
Group
p932
(dp933
g8
g926
sg77
S'Compilerbouw practicum1'
p934
sbsg73
(iread_data
Room
p935
(dp936
g71
g180
sg77
g181
sbsg79
g348
sg81
g294
sg77
S'Compilerbouw practicum'
p937
sbaa(lp938
(ischedule
Activity
p939
(dp940
g8
(lp941
g583
ag717
ag400
ag196
ag127
aS'88855695'
p942
ag41
aS'76802764'
p943
aS'34110913'
p944
ag206
ag655
aS'80135353'
p945
aS'9067939'
p946
ag822
aS'8464817'
p947
ag440
ag190
ag122
ag470
asg71
S'40'
p948
sg72
(ischedule
Group
p949
(dp950
g8
g941
sg77
S'Compilerbouw1'
p951
sbsg73
(iread_data
Room
p952
(dp953
g71
g180
sg77
g181
sbsg79
g348
sg81
g294
sg77
S'Compilerbouw'
p954
sba(ischedule
Activity
p955
(dp956
g8
g885
sg71
g520
sg72
g886
sg73
(iread_data
Room
p957
(dp958
g71
g209
sg77
g210
sbsg79
g166
sg81
g231
sg77
g281
sba(ischedule
Activity
p959
(dp960
g8
g680
sg71
I1000
sg72
Nsg73
(iread_data
Room
p961
(dp962
g71
g229
sg77
g230
sbsg79
g80
sg81
I0
sg77
g182
sba(ischedule
Activity
p963
(dp964
g8
g297
sg71
S'20'
p965
sg72
g299
sg73
(iread_data
Room
p966
(dp967
g71
g164
sg77
g165
sbsg79
g348
sg81
g294
sg77
g82
sba(ischedule
Activity
p968
(dp969
g8
(lp970
g338
ag11
ag724
ag491
ag329
ag334
ag843
ag614
ag53
ag656
ag336
ag325
ag328
ag337
ag449
ag340
ag324
ag844
ag341
ag331
ag243
ag841
ag91
ag333
ag128
ag842
ag246
ag330
ag335
ag332
ag845
ag847
ag327
ag30
ag339
ag55
ag102
ag326
ag846
asg71
I1000
sg72
Nsg73
(iread_data
Room
p971
(dp972
g71
g137
sg77
g138
sbsg79
g80
sg81
I0
sg77
g349
sba(ischedule
Activity
p973
(dp974
g8
(lp975
g114
ag65
ag873
ag25
ag60
ag219
ag89
ag397
ag615
ag21
aS'19058315'
p976
aS'59887191'
p977
ag28
ag727
ag826
aS'54772132'
p978
ag820
ag706
ag354
aS'1048485'
p979
ag444
ag508
ag147
aS'62363761'
p980
asg71
g858
sg72
(ischedule
Group
p981
(dp982
g8
g975
sg77
S'Netwerken en systeembeveiliging3'
p983
sbsg73
(iread_data
Room
p984
(dp985
g71
g76
sg77
g78
sbsg79
g348
sg81
g231
sg77
g864
sba(ischedule
Activity
p986
(dp987
g8
(lp988
g542
ag45
ag68
ag117
ag366
ag443
ag66
ag574
ag361
aS'51673172'
p989
aS'5892092'
p990
aS'51472074'
p991
aS'44151631'
p992
ag153
ag547
aS'3407554'
p993
aS'91250534'
p994
aS'42297781'
p995
ag653
ag477
aS'47260040'
p996
ag418
asg71
g931
sg72
(ischedule
Group
p997
(dp998
g8
g988
sg77
S'Compilerbouw practicum2'
p999
sbsg73
(iread_data
Room
p1000
(dp1001
g71
g106
sg77
g107
sbsg79
g348
sg81
g167
sg77
g937
sbaa(lp1002
(ischedule
Activity
p1003
(dp1004
g8
(lp1005
g382
ag98
ag220
ag552
ag332
ag573
ag508
ag761
ag759
ag395
ag60
ag42
ag929
ag727
ag547
ag157
ag267
ag173
ag763
ag97
ag16
ag700
ag23
ag537
ag762
ag310
ag143
ag144
ag760
ag912
ag591
ag765
aS'53775014'
p1006
ag533
ag415
aS'97417002'
p1007
ag686
ag36
ag444
aS'79879876'
p1008
ag764
ag419
ag420
ag586
asg71
I1000
sg72
Nsg73
(iread_data
Room
p1009
(dp1010
g71
g229
sg77
g230
sbsg79
g80
sg81
I0
sg77
g772
sba(ischedule
Activity
p1011
(dp1012
g8
(lp1013
S'56121590'
p1014
ag573
ag411
ag401
ag44
ag478
ag796
ag237
ag381
ag816
ag130
ag444
ag326
ag819
ag48
ag259
ag828
ag63
ag557
ag31
ag822
ag823
ag30
ag821
aS'15187217'
p1015
ag681
ag408
ag418
ag215
ag504
ag584
ag467
ag825
aS'34872117'
p1016
ag576
ag93
ag271
aS'62736669'
p1017
ag66
ag22
ag367
ag826
ag489
ag829
ag327
ag506
ag818
ag267
ag251
ag245
ag50
ag86
ag200
ag820
ag549
ag830
ag827
ag817
ag396
ag586
ag69
ag24
ag101
ag449
ag824
ag13
ag149
ag509
ag362
ag288
ag28
ag531
asg71
I1000
sg72
Nsg73
(iread_data
Room
p1018
(dp1019
g71
g76
sg77
g78
sbsg79
g80
sg81
I0
sg77
g837
sba(ischedule
Activity
p1020
(dp1021
g8
(lp1022
g440
ag146
asg71
g627
sg72
(ischedule
Group
p1023
(dp1024
g8
g1022
sg77
S'Technology for games2'
p1025
sbsg73
(iread_data
Room
p1026
(dp1027
g71
g209
sg77
g210
sbsg79
g166
sg81
g167
sg77
g633
sba(ischedule
Activity
p1028
(dp1029
g8
(lp1030
g114
ag410
ag11
ag243
ag334
aS'87602030'
p1031
aS'58040377'
p1032
ag710
ag577
ag354
aS'35315956'
p1033
ag120
aS'72652638'
p1034
ag70
ag894
aS'82968410'
p1035
aS'52304977'
p1036
ag219
ag95
aS'5739011'
p1037
asg71
S'20'
p1038
sg72
(ischedule
Group
p1039
(dp1040
g8
g1030
sg77
S'Heuristieken 21'
p1041
sbsg73
(iread_data
Room
p1042
(dp1043
g71
g180
sg77
g181
sbsg79
g166
sg81
g294
sg77
S'Heuristieken 2'
p1044
sba(ischedule
Activity
p1045
(dp1046
g8
(lp1047
g582
ag286
ag587
ag278
ag585
ag488
ag316
ag452
ag580
ag574
ag172
ag273
ag536
ag588
ag62
ag413
asg71
g642
sg72
(ischedule
Group
p1048
(dp1049
g8
g1047
sg77
S'Bioinformatica2'
p1050
sbsg73
(iread_data
Room
p1051
(dp1052
g71
g106
sg77
g107
sbsg79
g348
sg81
g167
sg77
g594
sba(ischedule
Activity
p1053
(dp1054
g8
(lp1055
g340
ag911
ag46
ag439
ag99
aS'23215240'
p1056
asg71
g931
sg72
(ischedule
Group
p1057
(dp1058
g8
g1055
sg77
S'Compilerbouw practicum3'
p1059
sbsg73
(iread_data
Room
p1060
(dp1061
g71
g164
sg77
g165
sbsg79
g348
sg81
g231
sg77
g937
sbaaa(lp1062
(lp1063
(ischedule
Activity
p1064
(dp1065
g8
(lp1066
g112
ag721
ag899
ag260
ag359
ag272
aS'27370083'
p1067
ag186
ag397
ag488
ag506
ag489
ag715
ag490
ag896
ag173
ag409
ag415
ag144
ag414
ag587
ag901
ag476
ag894
ag492
ag194
ag710
ag87
ag93
ag334
ag307
ag902
ag314
ag900
ag895
ag261
ag898
ag22
ag24
ag491
ag897
ag416
ag94
ag479
ag830
ag443
ag582
ag407
ag204
ag278
ag430
asg71
I1000
sg72
Nsg73
(iread_data
Room
p1068
(dp1069
g71
g76
sg77
g78
sbsg79
g80
sg81
I0
sg77
g499
sba(ischedule
Activity
p1070
(dp1071
g8
g529
sg71
I1000
sg72
Nsg73
(iread_data
Room
p1072
(dp1073
g71
g137
sg77
g138
sbsg79
g80
sg81
I0
sg77
g561
sba(ischedule
Activity
p1074
(dp1075
g8
(lp1076
g661
ag585
aS'70015932'
p1077
ag253
ag246
ag658
aS'45915482'
p1078
ag395
ag404
ag329
ag681
ag42
ag123
ag979
ag187
ag684
ag574
aS'9287708'
p1079
ag34
asg71
S'40'
p1080
sg72
(ischedule
Group
p1081
(dp1082
g8
g1076
sg77
S'Software engineering2'
p1083
sbsg73
(iread_data
Room
p1084
(dp1085
g71
g209
sg77
g210
sbsg79
g348
sg81
g167
sg77
S'Software engineering'
p1086
sba(ischedule
Activity
p1087
(dp1088
g8
g641
sg71
S'20'
p1089
sg72
g643
sg73
(iread_data
Room
p1090
(dp1091
g71
g180
sg77
g181
sbsg79
g166
sg81
g231
sg77
g594
sba(ischedule
Activity
p1092
(dp1093
g8
g284
sg71
g789
sg72
g289
sg73
(iread_data
Room
p1094
(dp1095
g71
g106
sg77
g107
sbsg79
g348
sg81
g294
sg77
g182
sba(ischedule
Activity
p1096
(dp1097
g8
(lp1098
g508
ag52
ag331
ag442
ag511
ag454
ag94
ag133
ag145
ag68
ag339
ag120
ag504
ag215
ag122
ag505
ag28
ag445
ag446
ag450
ag447
ag46
ag449
ag201
ag451
ag35
ag453
ag193
ag510
ag444
ag443
ag448
ag452
ag503
ag439
ag276
ag118
ag506
ag441
ag237
ag509
ag440
ag507
asg71
I1000
sg72
Nsg73
(iread_data
Room
p1099
(dp1100
g71
g229
sg77
g230
sbsg79
g80
sg81
I0
sg77
g461
sba(ischedule
Activity
p1101
(dp1102
g8
(lp1103
g36
ag14
ag795
ag316
ag797
ag796
asg71
S'15'
p1104
sg72
(ischedule
Group
p1105
(dp1106
g8
g1103
sg77
S'Informatie- en organsatieontwerp1'
p1107
sbsg73
(iread_data
Room
p1108
(dp1109
g71
g164
sg77
g165
sbsg79
g348
sg81
g294
sg77
g168
sbaa(lp1110
(ischedule
Activity
p1111
(dp1112
g8
(lp1113
g99
ag367
ag474
ag398
ag942
ag216
ag360
ag98
ag536
ag52
ag253
ag698
ag252
ag97
ag42
ag817
ag155
ag381
ag505
aS'55530367'
p1114
ag201
aS'3678531'
p1115
ag25
aS'11593163'
p1116
ag659
ag21
ag551
ag980
ag113
ag67
ag1078
ag263
ag651
ag478
ag123
ag237
aS'56348773'
p1117
ag439
ag660
ag655
aS'77306636'
p1118
ag658
ag1032
ag697
ag816
aS'61520025'
p1119
ag720
ag86
ag717
aS'82412626'
p1120
ag273
ag241
ag653
ag248
ag408
ag441
aS'22168693'
p1121
aS'93361408'
p1122
aS'19717077'
p1123
aS'34173695'
p1124
ag730
ag530
ag249
ag404
ag340
ag379
ag269
ag395
ag410
aS'59220392'
p1125
ag102
ag654
ag704
ag427
ag129
ag818
ag652
ag55
ag575
aS'75623387'
p1126
ag432
ag531
aS'79888156'
p1127
ag585
ag186
ag358
aS'10609762'
p1128
ag196
ag424
ag549
ag657
ag488
ag533
ag694
ag583
ag573
ag365
ag1031
aS'65978354'
p1129
ag70
aS'23628642'
p1130
ag132
ag576
aS'31306819'
p1131
ag661
ag656
asg71
I1000
sg72
Nsg73
(iread_data
Room
p1132
(dp1133
g71
g76
sg77
g78
sbsg79
g80
sg81
I0
sg77
g668
sba(ischedule
Activity
p1134
(dp1135
g8
(lp1136
g534
ag591
ag415
ag447
ag446
ag68
ag276
ag220
ag380
ag454
ag552
ag359
ag544
ag624
ag511
ag409
ag318
ag250
ag405
ag555
ag193
ag898
ag443
ag59
ag54
ag286
ag538
ag285
ag468
aS'44671041'
p1137
ag195
ag38
aS'27582862'
p1138
aS'41153310'
p1139
ag50
aS'51593625'
p1140
ag578
aS'14072826'
p1141
ag707
ag325
ag505
ag709
ag718
aS'95631564'
p1142
aS'31103066'
p1143
ag243
ag477
ag580
aS'37830626'
p1144
ag275
aS'75599734'
p1145
ag15
aS'58074656'
p1146
ag425
aS'3727435'
p1147
ag918
asg71
g1080
sg72
(ischedule
Group
p1148
(dp1149
g8
g1136
sg77
S'Software engineering1'
p1150
sbsg73
(iread_data
Room
p1151
(dp1152
g71
g229
sg77
g230
sbsg79
g348
sg81
g294
sg77
g1086
sba(ischedule
Activity
p1153
(dp1154
g8
(lp1155
g796
ag215
ag584
ag200
ag101
ag149
ag28
ag13
ag259
ag63
ag681
ag31
ag586
ag24
ag288
ag22
ag30
ag418
ag576
ag271
ag396
ag557
ag449
ag489
ag1015
ag573
ag1014
ag130
ag467
ag509
ag1016
ag1017
asg71
g831
sg72
(ischedule
Group
p1156
(dp1157
g8
g1155
sg77
S'Databases 21'
p1158
sbsg73
(iread_data
Room
p1159
(dp1160
g71
g106
sg77
g107
sbsg79
g166
sg81
g294
sg77
g837
sba(ischedule
Activity
p1161
(dp1162
g8
g597
sg71
g965
sg72
g598
sg73
(iread_data
Room
p1163
(dp1164
g71
g164
sg77
g165
sbsg79
g348
sg81
g167
sg77
g82
sba(ischedule
Activity
p1165
(dp1166
g8
g171
sg71
g789
sg72
g175
sg73
(iread_data
Room
p1167
(dp1168
g71
g180
sg77
g181
sbsg79
g348
sg81
g167
sg77
g182
sba(ischedule
Activity
p1169
(dp1170
g8
(lp1171
g35
ag31
ag44
ag45
ag57
ag64
ag41
ag58
asg71
g298
sg72
(ischedule
Group
p1172
(dp1173
g8
g1171
sg77
S'Collectieve Intelligentie3'
p1174
sbsg73
(iread_data
Room
p1175
(dp1176
g71
g209
sg77
g210
sbsg79
g166
sg81
g231
sg77
g82
sbaa(lp1177
(ischedule
Activity
p1178
(dp1179
g8
g775
sg71
I1000
sg72
Nsg73
(iread_data
Room
p1180
(dp1181
g71
g106
sg77
g107
sbsg79
g80
sg81
I0
sg77
g633
sba(ischedule
Activity
p1182
(dp1183
g8
g1076
sg71
S'40'
p1184
sg72
g1081
sg73
(iread_data
Room
p1185
(dp1186
g71
g164
sg77
g165
sbsg79
g166
sg81
g167
sg77
g1086
sba(ischedule
Activity
p1187
(dp1188
g8
(lp1189
g720
ag408
ag488
ag11
ag35
aS'44391517'
p1190
ag1140
aS'39905995'
p1191
ag699
ag1139
ag652
aS'15249775'
p1192
ag856
ag947
ag655
ag764
ag217
ag945
ag582
ag542
ag202
ag67
asg71
S'20'
p1193
sg72
(ischedule
Group
p1194
(dp1195
g8
g1189
sg77
S'Programmeren in Java 23'
p1196
sbsg73
(iread_data
Room
p1197
(dp1198
g71
g229
sg77
g230
sbsg79
g348
sg81
g231
sg77
S'Programmeren in Java 2'
p1199
sba(ischedule
Activity
p1200
(dp1201
g8
(lp1202
g1138
ag557
ag97
ag504
ag64
ag712
ag126
aS'63096281'
p1203
ag86
ag538
ag1115
ag453
ag116
ag328
ag287
ag508
ag218
ag844
ag112
ag188
aS'94687383'
p1204
ag195
aS'54395877'
p1205
ag200
ag586
aS'10702778'
p1206
ag145
ag583
ag13
aS'2317551'
p1207
ag723
ag1008
ag1056
ag411
asg71
g1193
sg72
(ischedule
Group
p1208
(dp1209
g8
g1202
sg77
S'Programmeren in Java 22'
p1210
sbsg73
(iread_data
Room
p1211
(dp1212
g71
g76
sg77
g78
sbsg79
g348
sg81
g167
sg77
g1199
sba(ischedule
Activity
p1213
(dp1214
g8
g802
sg71
g965
sg72
g803
sg73
(iread_data
Room
p1215
(dp1216
g71
g209
sg77
g210
sbsg79
g348
sg81
g808
sg77
g82
sba(ischedule
Activity
p1217
(dp1218
g8
(lp1219
g1032
ag196
ag56
ag272
ag576
aS'90296821'
p1220
ag1137
ag50
ag845
ag506
ag249
ag222
ag713
aS'51791169'
p1221
aS'64053722'
p1222
ag157
asg71
g1193
sg72
(ischedule
Group
p1223
(dp1224
g8
g1219
sg77
S'Programmeren in Java 21'
p1225
sbsg73
(iread_data
Room
p1226
(dp1227
g71
g180
sg77
g181
sbsg79
g348
sg81
g294
sg77
g1199
sba(ischedule
Activity
p1228
(dp1229
g8
(lp1230
g194
ag479
ag260
ag94
ag1067
ag397
ag359
asg71
g493
sg72
(ischedule
Group
p1231
(dp1232
g8
g1230
sg77
S'Reflectie op de digitale cultuur2'
p1233
sbsg73
(iread_data
Room
p1234
(dp1235
g71
g137
sg77
g138
sbsg79
g166
sg81
g167
sg77
g499
sbaa(lp1236
(ischedule
Activity
p1237
(dp1238
g8
g693
sg71
I1000
sg72
Nsg73
(iread_data
Room
p1239
(dp1240
g71
g76
sg77
g78
sbsg79
g80
sg81
I0
sg77
g733
sba(ischedule
Activity
p1241
(dp1242
g8
(lp1243
g468
ag506
ag250
ag288
ag1145
ag200
ag146
ag1142
ag359
ag285
ag34
ag252
ag873
ag65
ag324
aS'43689934'
p1244
aS'75759231'
p1245
ag615
ag378
aS'95007221'
p1246
ag978
ag37
ag761
ag353
ag203
ag13
ag244
ag331
ag1207
ag274
ag247
ag92
aS'65852230'
p1247
ag421
aS'15911353'
p1248
ag40
ag19
ag993
ag874
ag1204
aS'79033175'
p1249
ag132
ag620
ag1190
ag710
ag256
ag478
ag1016
ag356
aS'88636924'
p1250
asg71
g948
sg72
(ischedule
Group
p1251
(dp1252
g8
g1243
sg77
S'Compilerbouw2'
p1253
sbsg73
(iread_data
Room
p1254
(dp1255
g71
g229
sg77
g230
sbsg79
g348
sg81
g167
sg77
g954
sba(ischedule
Activity
p1256
(dp1257
g8
g306
sg71
I1000
sg72
Nsg73
(iread_data
Room
p1258
(dp1259
g71
g137
sg77
g138
sbsg79
g80
sg81
I0
sg77
g232
sba(ischedule
Activity
p1260
(dp1261
g8
(lp1262
g53
ag88
ag89
ag91
ag51
ag99
ag96
ag86
ag102
ag97
ag100
ag101
ag87
asg71
S'10'
p1263
sg72
(ischedule
Group
p1264
(dp1265
g8
g1262
sg77
S'Advanced Heuristics1'
p1266
sbsg73
(iread_data
Room
p1267
(dp1268
g71
g209
sg77
g210
sbsg79
g348
sg81
g294
sg77
g108
sba(ischedule
Activity
p1269
(dp1270
g8
g519
sg71
g675
sg72
g521
sg73
(iread_data
Room
p1271
(dp1272
g71
g164
sg77
g165
sbsg79
g348
sg81
g167
sg77
g281
sbaa(lp1273
(ischedule
Activity
p1274
(dp1275
g8
g1243
sg71
S'40'
p1276
sg72
g1251
sg73
(iread_data
Room
p1277
(dp1278
g71
g137
sg77
g138
sbsg79
g166
sg81
g167
sg77
g954
sba(ischedule
Activity
p1279
(dp1280
g8
(lp1281
g381
ag263
ag1115
asg71
g662
sg72
(ischedule
Group
p1282
(dp1283
g8
g1281
sg77
S'Calculus 22'
p1284
sbsg73
(iread_data
Room
p1285
(dp1286
g71
g209
sg77
g210
sbsg79
g166
sg81
g167
sg77
g668
sba(ischedule
Activity
p1287
(dp1288
g8
(lp1289
g704
ag253
ag432
ag410
ag1127
ag201
ag1122
ag533
ag1114
ag427
ag1124
ag1129
ag269
ag196
ag817
ag365
ag42
ag439
ag408
ag530
ag237
ag424
ag942
ag505
ag1031
ag249
ag1032
ag1117
ag717
ag21
ag1078
ag1123
ag698
ag474
ag1120
ag1126
ag1128
ag216
ag98
ag1130
ag697
ag694
ag123
ag583
ag816
ag441
ag1118
ag25
ag549
ag1131
ag1125
ag551
ag52
ag1116
ag129
ag155
ag573
ag241
ag86
ag273
ag404
ag576
ag248
ag186
ag720
ag67
ag818
ag97
ag730
ag360
ag980
ag488
ag395
ag367
ag99
ag1119
ag1121
asg71
g662
sg72
(ischedule
Group
p1290
(dp1291
g8
g1289
sg77
S'Calculus 23'
p1292
sbsg73
(iread_data
Room
p1293
(dp1294
g71
g76
sg77
g78
sbsg79
g166
sg81
g231
sg77
g668
sba(ischedule
Activity
p1295
(dp1296
g8
g741
sg71
g223
sg72
g743
sg73
(iread_data
Room
p1297
(dp1298
g71
g229
sg77
g230
sbsg79
g166
sg81
g294
sg77
g232
sba(ischedule
Activity
p1299
(dp1300
g8
g970
sg71
I1000
sg72
Nsg73
(iread_data
Room
p1301
(dp1302
g71
g106
sg77
g107
sbsg79
g80
sg81
I0
sg77
g349
sba(ischedule
Activity
p1303
(dp1304
g8
(lp1305
g759
ag557
ag48
ag202
ag825
ag193
ag760
ag215
ag1192
ag653
ag358
ag618
asg71
g1038
sg72
(ischedule
Group
p1306
(dp1307
g8
g1305
sg77
S'Heuristieken 22'
p1308
sbsg73
(iread_data
Room
p1309
(dp1310
g71
g180
sg77
g181
sbsg79
g166
sg81
g167
sg77
g1044
sba(ischedule
Activity
p1311
(dp1312
g8
g780
sg71
g742
sg72
g781
sg73
(iread_data
Room
p1313
(dp1314
g71
g164
sg77
g165
sbsg79
g348
sg81
g167
sg77
g232
sbaaa(lp1315
(lp1316
(ischedule
Activity
p1317
(dp1318
g8
(lp1319
g1204
ag655
ag378
ag978
ag146
ag65
ag359
ag331
ag1016
ag873
ag583
ag19
ag717
ag1249
ag1250
ag468
ag1142
ag506
ag92
ag1248
ag41
ag250
ag1244
ag874
ag946
ag1246
ag122
ag132
ag190
ag40
ag34
ag1247
ag470
ag288
ag615
ag356
ag353
ag1145
ag944
ag761
ag13
ag37
ag421
ag620
ag400
ag256
ag945
ag1207
ag285
ag324
ag822
ag206
ag244
ag710
ag942
ag252
ag993
ag1245
ag440
ag274
ag1190
ag127
ag943
ag203
ag247
ag200
ag196
ag947
ag478
asg71
I1000
sg72
Nsg73
(iread_data
Room
p1320
(dp1321
g71
g76
sg77
g78
sbsg79
g80
sg81
I0
sg77
g954
sba(ischedule
Activity
p1322
(dp1323
g8
g1047
sg71
g1089
sg72
g1048
sg73
(iread_data
Room
p1324
(dp1325
g71
g180
sg77
g181
sbsg79
g166
sg81
g167
sg77
g594
sba(ischedule
Activity
p1326
(dp1327
g8
(lp1328
g203
ag12
ag329
aS'59289233'
p1329
ag553
ag1016
ag246
ag252
ag326
ag551
ag88
ag358
ag53
ag700
ag1077
ag199
ag795
ag28
ag929
aS'13798030'
p1330
ag89
asg71
I1000
sg72
Nsg73
(iread_data
Room
p1331
(dp1332
g71
g229
sg77
g230
sbsg79
g80
sg81
I0
sg77
S'Architectuur en computerorganisatie'
p1333
sba(ischedule
Activity
p1334
(dp1335
g8
(lp1336
g819
ag271
ag275
ag90
ag330
ag1031
ag59
ag260
ag989
ag555
ag187
ag423
ag706
asg71
g368
sg72
(ischedule
Group
p1337
(dp1338
g8
g1336
sg77
S'Project Genetic Algorithms2'
p1339
sbsg73
(iread_data
Room
p1340
(dp1341
g71
g137
sg77
g138
sbsg79
g348
sg81
g167
sg77
g374
sba(ischedule
Activity
p1342
(dp1343
g8
g840
sg71
g342
sg72
g848
sg73
(iread_data
Room
p1344
(dp1345
g71
g164
sg77
g165
sbsg79
g348
sg81
g294
sg77
g349
sba(ischedule
Activity
p1346
(dp1347
g8
(lp1348
g533
ag63
ag248
ag584
ag101
ag35
ag259
ag575
ag579
asg71
g1089
sg72
(ischedule
Group
p1349
(dp1350
g8
g1348
sg77
S'Bioinformatica1'
p1351
sbsg73
(iread_data
Room
p1352
(dp1353
g71
g209
sg77
g210
sbsg79
g166
sg81
g294
sg77
g594
sba(ischedule
Activity
p1354
(dp1355
g8
(lp1356
g616
ag149
ag14
asg71
g1193
sg72
(ischedule
Group
p1357
(dp1358
g8
g1356
sg77
S'Programmeren in Java 25'
p1359
sbsg73
(iread_data
Room
p1360
(dp1361
g71
g106
sg77
g107
sbsg79
g348
sg81
S'5'
p1362
sg77
g1199
sbaa(lp1363
(ischedule
Activity
p1364
(dp1365
g8
g1319
sg71
I1000
sg72
Nsg73
(iread_data
Room
p1366
(dp1367
g71
g76
sg77
g78
sbsg79
g80
sg81
I0
sg77
g954
sba(ischedule
Activity
p1368
(dp1369
g8
(lp1370
g727
ag700
ag537
ag533
ag419
ag586
ag508
ag332
ag143
ag173
ag415
ag220
ag310
ag267
ag36
ag97
ag929
ag686
ag382
ag1006
ag157
ag23
ag444
ag42
ag573
ag1007
ag591
ag547
ag1008
ag420
ag395
ag912
ag144
ag98
ag552
ag60
ag16
asg71
g766
sg72
(ischedule
Group
p1371
(dp1372
g8
g1370
sg77
S'Heuristieken 12'
p1373
sbsg73
(iread_data
Room
p1374
(dp1375
g71
g229
sg77
g230
sbsg79
g166
sg81
g167
sg77
g772
sba(ischedule
Activity
p1376
(dp1377
g8
(lp1378
g1037
ag759
ag1036
ag577
ag1192
ag557
ag618
ag1033
ag193
ag410
ag710
ag48
ag653
ag1034
ag1032
ag334
ag114
ag11
ag894
ag1031
ag120
ag202
ag243
ag70
ag760
ag354
ag215
ag95
ag825
ag219
ag358
ag1035
asg71
I1000
sg72
Nsg73
(iread_data
Room
p1379
(dp1380
g71
g106
sg77
g107
sbsg79
g80
sg81
I0
sg77
g1044
sba(ischedule
Activity
p1381
(dp1382
g8
(lp1383
g62
ag50
ag589
ag313
ag93
ag1014
ag311
ag1017
aS'64246605'
p1384
ag707
ag590
ag447
ag542
ag272
asg71
g858
sg72
(ischedule
Group
p1385
(dp1386
g8
g1383
sg77
S'Netwerken en systeembeveiliging1'
p1387
sbsg73
(iread_data
Room
p1388
(dp1389
g71
g209
sg77
g210
sbsg79
g348
sg81
g294
sg77
g864
sba(ischedule
Activity
p1390
(dp1391
g8
(lp1392
S'88519892'
p1393
ag796
ag843
asg71
g1193
sg72
(ischedule
Group
p1394
(dp1395
g8
g1392
sg77
S'Programmeren in Java 26'
p1396
sbsg73
(iread_data
Room
p1397
(dp1398
g71
g164
sg77
g165
sbsg79
g348
sg81
S'6'
p1399
sg77
g1199
sba(ischedule
Activity
p1400
(dp1401
g8
(lp1402
g20
ag397
ag414
ag507
asg71
g368
sg72
(ischedule
Group
p1403
(dp1404
g8
g1402
sg77
S'Project Genetic Algorithms3'
p1405
sbsg73
(iread_data
Room
p1406
(dp1407
g71
g137
sg77
g138
sbsg79
g348
sg81
g231
sg77
g374
sbaa(lp1408
(ischedule
Activity
p1409
(dp1410
g8
g9
sg71
I1000
sg72
Nsg73
(iread_data
Room
p1411
(dp1412
g71
g76
sg77
g78
sbsg79
g80
sg81
I0
sg77
g82
sba(ischedule
Activity
p1413
(dp1414
g8
g572
sg71
I1000
sg72
Nsg73
(iread_data
Room
p1415
(dp1416
g71
g229
sg77
g230
sbsg79
g80
sg81
I0
sg77
g594
sbaa(lp1417
(ischedule
Activity
p1418
(dp1419
g8
g1136
sg71
g1184
sg72
g1148
sg73
(iread_data
Room
p1420
(dp1421
g71
g137
sg77
g138
sbsg79
g166
sg81
g294
sg77
g1086
sba(ischedule
Activity
p1422
(dp1423
g8
g1328
sg71
I1000
sg72
Nsg73
(iread_data
Room
p1424
(dp1425
g71
g76
sg77
g78
sbsg79
g80
sg81
I0
sg77
g1333
sba(ischedule
Activity
p1426
(dp1427
g8
g111
sg71
I1000
sg72
Nsg73
(iread_data
Room
p1428
(dp1429
g71
g106
sg77
g107
sbsg79
g80
sg81
I0
sg77
g139
sba(ischedule
Activity
p1430
(dp1431
g8
g794
sg71
I1000
sg72
Nsg73
(iread_data
Room
p1432
(dp1433
g71
g209
sg77
g210
sbsg79
g80
sg81
I0
sg77
g168
sba(ischedule
Activity
p1434
(dp1435
g8
(lp1436
g65
ag407
ag49
ag979
aS'88263855'
p1437
ag419
ag187
ag261
ag658
ag52
ag978
aS'7386961'
p1438
ag245
ag315
ag248
ag439
ag448
ag422
aS'88597745'
p1439
aS'28943658'
p1440
ag874
ag900
ag189
ag201
aS'73196865'
p1441
ag653
ag18
ag417
aS'12782624'
p1442
aS'73893840'
p1443
ag694
ag830
asg71
g1193
sg72
(ischedule
Group
p1444
(dp1445
g8
g1436
sg77
S'Programmeren in Java 24'
p1446
sbsg73
(iread_data
Room
p1447
(dp1448
g71
g229
sg77
g230
sbsg79
g348
sg81
g808
sg77
g1199
sba(ischedule
Activity
p1449
(dp1450
g8
g1171
sg71
g965
sg72
g1172
sg73
(iread_data
Room
p1451
(dp1452
g71
g180
sg77
g181
sbsg79
g348
sg81
g231
sg77
g82
sba(ischedule
Activity
p1453
(dp1454
g8
(lp1455
g103
ag94
ag92
ag90
ag98
ag95
ag93
asg71
g1263
sg72
(ischedule
Group
p1456
(dp1457
g8
g1455
sg77
S'Advanced Heuristics2'
p1458
sbsg73
(iread_data
Room
p1459
(dp1460
g71
g164
sg77
g165
sbsg79
g348
sg81
g167
sg77
g108
sbaa(lp1461
(ischedule
Activity
p1462
(dp1463
g8
(lp1464
g534
ag1137
ag591
ag898
ag415
ag1138
ag329
ag1144
ag38
ag34
ag447
ag661
ag681
ag585
ag42
ag325
ag446
ag468
ag684
ag1141
ag123
ag1147
ag68
ag1077
ag276
ag253
ag220
ag425
ag286
ag580
ag195
ag555
ag1146
ag246
ag578
ag1143
ag538
ag275
ag1142
ag624
ag1145
ag1139
ag380
ag15
ag59
ag318
ag454
ag707
ag1140
ag918
ag285
ag54
ag552
ag709
ag1078
ag443
ag574
ag193
ag718
ag409
ag359
ag505
ag404
ag50
ag395
ag250
ag1079
ag658
ag243
ag405
ag187
ag511
ag477
ag979
ag544
asg71
I1000
sg72
Nsg73
(iread_data
Room
p1465
(dp1466
g71
g76
sg77
g78
sbsg79
g80
sg81
I0
sg77
g1086
sba(ischedule
Activity
p1467
(dp1468
g8
g1066
sg71
I1000
sg72
Nsg73
(iread_data
Room
p1469
(dp1470
g71
g229
sg77
g230
sbsg79
g80
sg81
I0
sg77
g499
sba(ischedule
Activity
p1471
(dp1472
g8
g142
sg71
g1104
sg72
g159
sg73
(iread_data
Room
p1473
(dp1474
g71
g209
sg77
g210
sbsg79
g348
sg81
g167
sg77
g168
sba(ischedule
Activity
p1475
(dp1476
g8
g941
sg71
g1276
sg72
g949
sg73
(iread_data
Room
p1477
(dp1478
g71
g164
sg77
g165
sbsg79
g166
sg81
g294
sg77
g954
sba(ischedule
Activity
p1479
(dp1480
g8
g1348
sg71
g642
sg72
g1349
sg73
(iread_data
Room
p1481
(dp1482
g71
g137
sg77
g138
sbsg79
g348
sg81
g294
sg77
g594
sba(ischedule
Activity
p1483
(dp1484
g8
g1103
sg71
g158
sg72
g1105
sg73
(iread_data
Room
p1485
(dp1486
g71
g180
sg77
g181
sbsg79
g166
sg81
g294
sg77
g168
sba(ischedule
Activity
p1487
(dp1488
g8
g214
sg71
g742
sg72
g224
sg73
(iread_data
Room
p1489
(dp1490
g71
g106
sg77
g107
sbsg79
g348
sg81
g231
sg77
g232
sbaaa(lp1491
(lp1492
a(lp1493
a(lp1494
a(lp1495
a(lp1496
aasS'timeslot_dict'
p1497
(dp1498
I0
S'9:00-11:00'
p1499
sI1
S'11:00-13:00'
p1500
sI2
S'13:00-15:00'
p1501
sI3
S'15:00-17:00'
p1502
sI4
S'17:00-19:00'
p1503
ssS'day_dict'
p1504
(dp1505
I0
S'Monday'
p1506
sI1
S'Tuesday'
p1507
sI2
S'Wednesday'
p1508
sI3
S'Thursday'
p1509
sI4
S'Friday'
p1510
ssb.