(ischedule
Schedule
p0
(dp1
S'timetable'
p2
(lp3
(lp4
(lp5
(ischedule
Activity
p6
(dp7
S'participants'
p8
(lp9
S'20239127'
p10
aS'94955328'
p11
aS'10872825'
p12
aS'61518436'
p13
aS'34243356'
p14
aS'41527759'
p15
aS'8522855'
p16
aS'3685034'
p17
aS'58469172'
p18
aS'20883994'
p19
aS'59075181'
p20
aS'63408522'
p21
aS'65003379'
p22
aS'39919665'
p23
aS'78735049'
p24
aS'28957789'
p25
aS'38329455'
p26
aS'91139627'
p27
aS'10792879'
p28
aS'94467156'
p29
aS'54569540'
p30
aS'97371272'
p31
aS'56749879'
p32
aS'24875739'
p33
aS'51186803'
p34
aS'46570285'
p35
aS'58332004'
p36
aS'18266644'
p37
aS'58522654'
p38
aS'31633723'
p39
aS'79366078'
p40
aS'84110134'
p41
aS'69086548'
p42
aS'14671406'
p43
aS'5368702'
p44
aS'55474917'
p45
aS'76924297'
p46
aS'78136904'
p47
aS'77636749'
p48
aS'81218347'
p49
aS'37498675'
p50
aS'99272880'
p51
aS'63955238'
p52
aS'17823206'
p53
aS'27187154'
p54
aS'59544049'
p55
aS'38499176'
p56
aS'9731271'
p57
aS'77240949'
p58
aS'11915563'
p59
aS'54310617'
p60
aS'49631542'
p61
aS'51542218'
p62
aS'7492204'
p63
aS'63634350'
p64
aS'23798155'
p65
aS'79858178'
p66
aS'14398123'
p67
aS'23391676'
p68
aS'56988998'
p69
aS'96054456'
p70
aS'47462856'
p71
aS'42115591'
p72
aS'82688900'
p73
aS'39230359'
p74
aS'34262212'
p75
aS'72547110'
p76
aS'32705005'
p77
aS'5615125'
p78
aS'64296965'
p79
aS'36903574'
p80
aS'84524083'
p81
aS'41585485'
p82
aS'47605891'
p83
aS'39659121'
p84
aS'31247305'
p85
aS'20331158'
p86
aS'44940353'
p87
aS'97019450'
p88
aS'74182182'
p89
aS'22731474'
p90
aS'89338938'
p91
aS'14591033'
p92
aS'91196968'
p93
asS'capacity'
p94
I1000
sS'group'
p95
NsS'room'
p96
(iread_data
Room
p97
(dp98
g94
S'117'
p99
sS'name'
p100
S'C0.110'
p101
sbsS'ttype'
p102
S'lectures'
p103
sS'group_id'
p104
I0
sg100
S'Kansrekenen 2'
p105
sba(ischedule
Activity
p106
(dp107
g8
(lp108
S'53202517'
p109
aS'64228258'
p110
aS'33877725'
p111
aS'61443567'
p112
aS'72895450'
p113
aS'76648468'
p114
ag78
aS'53512831'
p115
aS'76903244'
p116
aS'76123484'
p117
aS'22288615'
p118
aS'27064249'
p119
aS'57086672'
p120
aS'49908313'
p121
aS'66034145'
p122
aS'94930277'
p123
aS'2416751'
p124
aS'67073567'
p125
aS'14303208'
p126
aS'6249823'
p127
aS'3474870'
p128
aS'17092717'
p129
aS'1137946'
p130
aS'41790793'
p131
aS'24891081'
p132
aS'14847953'
p133
aS'16333449'
p134
aS'78243495'
p135
aS'43902015'
p136
aS'40434933'
p137
aS'43460038'
p138
ag74
aS'89180944'
p139
aS'20618153'
p140
aS'69459473'
p141
aS'77392404'
p142
aS'10698627'
p143
aS'72577292'
p144
aS'28358060'
p145
asg94
I1000
sg95
Nsg96
(iread_data
Room
p146
(dp147
g94
S'56'
p148
sg100
S'A1.10'
p149
sbsg102
g103
sg104
I0
sg100
S'Webprogrammeren en databases'
p150
sba(ischedule
Activity
p151
(dp152
g8
(lp153
S'15051051'
p154
aS'77376714'
p155
aS'13911001'
p156
aS'78443067'
p157
aS'63111000'
p158
ag61
aS'51650744'
p159
ag135
aS'75997788'
p160
aS'36748818'
p161
ag139
aS'50184318'
p162
aS'41489515'
p163
aS'83266686'
p164
aS'27241113'
p165
aS'84449005'
p166
aS'11741347'
p167
aS'13218321'
p168
aS'99283252'
p169
aS'18144425'
p170
aS'66621166'
p171
aS'58699305'
p172
aS'29526540'
p173
aS'3883025'
p174
aS'59111489'
p175
aS'27916487'
p176
aS'1766560'
p177
aS'11996292'
p178
aS'30658799'
p179
aS'33776961'
p180
aS'83415514'
p181
aS'68315599'
p182
aS'78821918'
p183
aS'43680781'
p184
ag35
aS'24277163'
p185
aS'36527838'
p186
aS'85335143'
p187
aS'58592894'
p188
aS'1181560'
p189
aS'64600457'
p190
aS'4709948'
p191
aS'78544592'
p192
aS'5517869'
p193
aS'75521763'
p194
aS'17222374'
p195
aS'42171678'
p196
aS'14309255'
p197
ag36
aS'49219163'
p198
aS'48198668'
p199
aS'96082155'
p200
aS'70072978'
p201
ag71
asg94
I1000
sg95
Nsg96
(iread_data
Room
p202
(dp203
g94
S'60'
p204
sg100
S'C1.112'
p205
sbsg102
g103
sg104
I0
sg100
S'Moderne Databases'
p206
sba(ischedule
Activity
p207
(dp208
g8
(lp209
S'1665980'
p210
aS'15902055'
p211
aS'50143947'
p212
aS'21964491'
p213
aS'82689818'
p214
aS'13534377'
p215
aS'29640619'
p216
aS'7308727'
p217
aS'51741554'
p218
aS'53107172'
p219
aS'87758823'
p220
aS'29474737'
p221
aS'45556081'
p222
asg94
S'20'
p223
sg95
(ischedule
Group
p224
(dp225
g8
g209
sg100
S'Collectieve Intelligentie3'
p226
sbsg96
(iread_data
Room
p227
(dp228
g94
S'41'
p229
sg100
S'A1.04'
p230
sbsg102
S'tutorials'
p231
sg104
S'3'
p232
sg100
S'Collectieve Intelligentie'
p233
sba(ischedule
Activity
p234
(dp235
g8
(lp236
S'41578612'
p237
aS'86988337'
p238
aS'96554914'
p239
aS'27950803'
p240
aS'22826928'
p241
aS'92778619'
p242
aS'70844780'
p243
aS'60352393'
p244
aS'37399898'
p245
aS'99453514'
p246
aS'13718298'
p247
asg94
S'20'
p248
sg95
(ischedule
Group
p249
(dp250
g8
g236
sg100
S'Reflectie op de digitale cultuur3'
p251
sbsg96
(iread_data
Room
p252
(dp253
g94
S'22'
p254
sg100
S'A1.06'
p255
sbsg102
g231
sg104
g232
sg100
S'Reflectie op de digitale cultuur'
p256
sba(ischedule
Activity
p257
(dp258
g8
(lp259
S'16097870'
p260
aS'51566595'
p261
aS'37110913'
p262
aS'88627897'
p263
aS'22871048'
p264
aS'52552718'
p265
aS'61611295'
p266
aS'68409833'
p267
ag59
aS'62356458'
p268
aS'74131924'
p269
aS'36508571'
p270
aS'27298319'
p271
ag193
aS'19858730'
p272
aS'70113753'
p273
aS'39459642'
p274
aS'34806836'
p275
aS'62872965'
p276
aS'44901052'
p277
aS'72796858'
p278
aS'54026378'
p279
asg94
I1000
sg95
Nsg96
(iread_data
Room
p280
(dp281
g94
S'48'
p282
sg100
S'B0.201'
p283
sbsg102
g103
sg104
I0
sg100
S'Autonomous Agents 2'
p284
sba(ischedule
Activity
p285
(dp286
g8
(lp287
S'32044893'
p288
aS'73236988'
p289
aS'73823548'
p290
aS'7957843'
p291
aS'11068043'
p292
asg94
S'15'
p293
sg95
(ischedule
Group
p294
(dp295
g8
g287
sg100
S'Project Numerical Recipes3'
p296
sbsg96
(iread_data
Room
p297
(dp298
g94
S'20'
p299
sg100
S'A1.08'
p300
sbsg102
S'labs'
p301
sg104
g232
sg100
S'Project Numerical Recipes'
p302
sbaa(lp303
(ischedule
Activity
p304
(dp305
g8
(lp306
g162
aS'23547619'
p307
ag222
aS'22699561'
p308
aS'42196732'
p309
ag211
aS'9332762'
p310
aS'25106480'
p311
ag185
ag194
aS'35330349'
p312
aS'62701040'
p313
ag221
aS'17575088'
p314
ag213
aS'68601184'
p315
ag220
ag218
aS'31416266'
p316
aS'64393888'
p317
aS'42778953'
p318
aS'1075391'
p319
ag79
aS'73980360'
p320
aS'43027916'
p321
aS'48601268'
p322
aS'86000192'
p323
ag210
aS'97135019'
p324
aS'3233378'
p325
aS'86291592'
p326
ag117
ag144
aS'65960683'
p327
aS'96104167'
p328
aS'26406342'
p329
aS'37770881'
p330
ag196
ag219
ag195
ag58
aS'28357474'
p331
aS'13092455'
p332
ag216
ag110
ag60
ag212
aS'34773179'
p333
aS'60312776'
p334
ag193
aS'77896638'
p335
ag215
aS'57595888'
p336
ag112
aS'33760909'
p337
ag38
aS'4783858'
p338
ag214
aS'46052388'
p339
ag217
aS'1696500'
p340
asg94
I1000
sg95
Nsg96
(iread_data
Room
p341
(dp342
g94
g99
sg100
g101
sbsg102
g103
sg104
I0
sg100
g233
sba(ischedule
Activity
p343
(dp344
g8
(lp345
g154
ag58
aS'5976174'
p346
aS'40791377'
p347
ag29
aS'33252501'
p348
aS'38296757'
p349
ag54
aS'90067329'
p350
aS'2079771'
p351
ag17
aS'26857113'
p352
aS'49683101'
p353
aS'46701583'
p354
ag158
aS'37744525'
p355
ag13
ag69
aS'85236626'
p356
ag274
ag65
aS'67625383'
p357
asg94
I1000
sg95
Nsg96
(iread_data
Room
p358
(dp359
g94
g148
sg100
g149
sbsg102
g103
sg104
I0
sg100
S'Machine Learning'
p360
sba(ischedule
Activity
p361
(dp362
g8
(lp363
S'4568018'
p364
ag56
ag51
aS'74361881'
p365
ag126
aS'53585410'
p366
ag156
aS'535689'
p367
aS'14138904'
p368
aS'52715680'
p369
aS'11459236'
p370
ag292
asg94
S'15'
p371
sg95
(ischedule
Group
p372
(dp373
g8
g363
sg100
S'Compilerbouw practicum2'
p374
sbsg96
(iread_data
Room
p375
(dp376
g94
g299
sg100
g300
sbsg102
g301
sg104
S'2'
p377
sg100
S'Compilerbouw practicum'
p378
sba(ischedule
Activity
p379
(dp380
g8
(lp381
S'13116738'
p382
aS'87314964'
p383
aS'97136582'
p384
aS'52311353'
p385
aS'45414528'
p386
aS'25330192'
p387
ag53
aS'87900893'
p388
aS'81022997'
p389
aS'19337738'
p390
ag262
ag269
aS'81200278'
p391
ag355
aS'59753700'
p392
aS'93023961'
p393
ag261
ag93
aS'22323043'
p394
aS'70878567'
p395
ag212
aS'68360259'
p396
aS'66122625'
p397
ag246
aS'13996448'
p398
aS'98780382'
p399
ag213
asg94
I1000
sg95
Nsg96
(iread_data
Room
p400
(dp401
g94
g282
sg100
g283
sbsg102
g103
sg104
I0
sg100
S'Data Mining'
p402
sba(ischedule
Activity
p403
(dp404
g8
(lp405
g279
ag265
ag264
ag270
asg94
S'10'
p406
sg95
(ischedule
Group
p407
(dp408
g8
g405
sg100
S'Autonomous Agents 21'
p409
sbsg96
(iread_data
Room
p410
(dp411
g94
g204
sg100
g205
sbsg102
g301
sg104
S'1'
p412
sg100
g284
sbaa(lp413
(ischedule
Activity
p414
(dp415
g8
(lp416
g109
aS'48503689'
p417
ag330
aS'79033175'
p418
aS'75759231'
p419
aS'44391517'
p420
aS'2317551'
p421
aS'79167252'
p422
ag274
ag278
aS'95631564'
p423
aS'98105190'
p424
aS'54772132'
p425
aS'88636924'
p426
ag289
aS'65852230'
p427
ag291
ag177
ag334
aS'76802764'
p428
aS'88752563'
p429
ag156
ag38
aS'9067939'
p430
aS'94687383'
p431
ag318
aS'15911353'
p432
aS'76661016'
p433
ag347
ag54
ag81
aS'75664412'
p434
ag14
ag351
aS'80135353'
p435
ag326
ag335
ag182
ag59
aS'3407554'
p436
aS'66701209'
p437
ag197
ag179
ag113
ag44
aS'43689934'
p438
ag164
aS'13284244'
p439
aS'8464817'
p440
aS'12077419'
p441
aS'34110913'
p442
aS'46989508'
p443
ag28
aS'48308205'
p444
aS'81385263'
p445
aS'92665222'
p446
aS'31194811'
p447
aS'6723948'
p448
aS'5595824'
p449
ag240
aS'75599734'
p450
aS'88855695'
p451
ag167
aS'34872117'
p452
aS'95007221'
p453
ag353
aS'24613625'
p454
ag238
ag327
asg94
I1000
sg95
Nsg96
(iread_data
Room
p455
(dp456
g94
g99
sg100
g101
sbsg102
g103
sg104
I0
sg100
S'Compilerbouw'
p457
sba(ischedule
Activity
p458
(dp459
g8
(lp460
g135
ag185
ag165
ag195
asg94
S'20'
p461
sg95
(ischedule
Group
p462
(dp463
g8
g460
sg100
S'Moderne Databases1'
p464
sbsg96
(iread_data
Room
p465
(dp466
g94
g229
sg100
g230
sbsg102
g301
sg104
g412
sg100
g206
sba(ischedule
Activity
p467
(dp468
g8
(lp469
g237
ag16
aS'58253841'
p470
aS'82066165'
p471
ag141
asg94
S'15'
p472
sg95
(ischedule
Group
p473
(dp474
g8
g469
sg100
S'Project Genetic Algorithms2'
p475
sbsg96
(iread_data
Room
p476
(dp477
g94
g148
sg100
g149
sbsg102
g301
sg104
g377
sg100
S'Project Genetic Algorithms'
p478
sba(ischedule
Activity
p479
(dp480
g8
(lp481
S'3168419'
p482
aS'77831658'
p483
aS'79617364'
p484
ag190
aS'21029457'
p485
ag213
ag289
ag70
ag395
aS'247918'
p486
ag173
ag309
aS'89985072'
p487
ag241
aS'96453361'
p488
aS'6913074'
p489
ag38
ag391
ag19
aS'56815156'
p490
ag454
aS'88176729'
p491
ag279
ag32
ag217
ag109
aS'33930505'
p492
aS'5298748'
p493
ag364
ag154
ag269
aS'44868097'
p494
ag292
aS'30195935'
p495
ag187
aS'14816774'
p496
ag90
ag55
ag111
ag92
aS'66120270'
p497
ag448
ag184
aS'28359697'
p498
aS'30050930'
p499
asg94
I1000
sg95
Nsg96
(iread_data
Room
p500
(dp501
g94
g282
sg100
g283
sbsg102
g103
sg104
I0
sg100
S'Bioinformatica'
p502
sbaa(lp503
(ischedule
Activity
p504
(dp505
g8
(lp506
g14
aS'34588570'
p507
aS'56872729'
p508
aS'96118484'
p509
ag316
ag276
aS'16011419'
p510
ag128
aS'66570705'
p511
aS'4921119'
p512
ag267
ag49
ag245
aS'10149535'
p513
ag309
aS'94686490'
p514
ag484
aS'80709893'
p515
ag92
aS'75005528'
p516
ag93
aS'79937969'
p517
ag134
aS'83210352'
p518
ag385
aS'23565001'
p519
aS'90743504'
p520
ag445
ag193
aS'80998260'
p521
ag335
ag72
ag270
ag56
aS'21311067'
p522
ag186
aS'26172512'
p523
aS'58866007'
p524
aS'32595335'
p525
aS'61060652'
p526
ag45
aS'55412918'
p527
aS'93566383'
p528
ag260
aS'670011'
p529
ag444
ag89
ag237
ag11
aS'54074680'
p530
ag318
aS'71839156'
p531
ag220
ag312
asg94
I1000
sg95
Nsg96
(iread_data
Room
p532
(dp533
g94
g148
sg100
g149
sbsg102
g103
sg104
I0
sg100
S'Lineaire Algebra'
p534
sba(ischedule
Activity
p535
(dp536
g8
(lp537
g279
ag38
ag70
ag19
ag90
ag32
ag55
ag391
ag364
ag497
ag488
ag483
ag489
ag496
ag482
ag495
ag487
ag241
ag187
ag448
ag494
ag184
ag486
ag92
ag493
asg94
S'20'
p538
sg95
(ischedule
Group
p539
(dp540
g8
g537
sg100
S'Bioinformatica2'
p541
sbsg96
(iread_data
Room
p542
(dp543
g94
g229
sg100
g230
sbsg102
g301
sg104
g377
sg100
g502
sba(ischedule
Activity
p544
(dp545
g8
(lp546
g194
aS'23983476'
p547
ag382
aS'19958553'
p548
aS'29718115'
p549
ag313
aS'75585647'
p550
ag161
ag36
ag395
aS'17496687'
p551
ag277
aS'23257088'
p552
aS'32204977'
p553
ag182
aS'8557857'
p554
aS'92977271'
p555
ag37
ag48
aS'13658563'
p556
ag370
asg94
I1000
sg95
Nsg96
(iread_data
Room
p557
(dp558
g94
g282
sg100
g283
sbsg102
g103
sg104
I0
sg100
S'Informatie- en organsatieontwerp'
p559
sba(ischedule
Activity
p560
(dp561
g8
(lp562
g454
ag240
ag46
aS'25994016'
p563
aS'14179347'
p564
aS'25077484'
p565
ag330
ag311
aS'51673172'
p566
ag29
ag437
aS'41644639'
p567
ag433
ag166
ag169
ag183
aS'88737765'
p568
aS'75680261'
p569
aS'87830198'
p570
aS'55480737'
p571
ag333
ag354
asg94
g472
sg95
(ischedule
Group
p572
(dp573
g8
g562
sg100
S'Project Genetic Algorithms1'
p574
sbsg96
(iread_data
Room
p575
(dp576
g94
g204
sg100
g205
sbsg102
g301
sg104
g412
sg100
g478
sba(ischedule
Activity
p577
(dp578
g8
(lp579
g110
ag112
ag144
ag139
ag111
ag138
ag117
ag74
ag115
ag125
ag131
ag118
asg94
S'20'
p580
sg95
(ischedule
Group
p581
(dp582
g8
g579
sg100
S'Webprogrammeren en databases2'
p583
sbsg96
(iread_data
Room
p584
(dp585
g94
g99
sg100
g101
sbsg102
g301
sg104
g377
sg100
g150
sba(ischedule
Activity
p586
(dp587
g8
(lp588
g269
ag213
ag212
ag399
ag396
ag390
ag393
ag387
ag392
ag261
asg94
S'10'
p589
sg95
(ischedule
Group
p590
(dp591
g8
g588
sg100
S'Data Mining1'
p592
sbsg96
(iread_data
Room
p593
(dp594
g94
g299
sg100
g300
sbsg102
g301
sg104
g412
sg100
g402
sba(ischedule
Activity
p595
(dp596
g8
(lp597
g58
ag307
ag328
ag338
ag334
ag322
ag321
ag60
asg94
S'20'
p598
sg95
(ischedule
Group
p599
(dp600
g8
g597
sg100
S'Collectieve Intelligentie1'
p601
sbsg96
(iread_data
Room
p602
(dp603
g94
g254
sg100
g255
sbsg102
g301
sg104
g412
sg100
g233
sbaa(lp604
(ischedule
Activity
p605
(dp606
g8
(lp607
g269
ag490
ag454
ag492
ag498
ag213
ag395
ag491
ag154
ag485
ag173
ag217
ag499
ag309
ag111
ag289
ag109
ag190
asg94
g538
sg95
(ischedule
Group
p608
(dp609
g8
g607
sg100
S'Bioinformatica1'
p610
sbsg96
(iread_data
Room
p611
(dp612
g94
g229
sg100
g230
sbsg102
g301
sg104
g412
sg100
g502
sba(ischedule
Activity
p613
(dp614
g8
(lp615
g193
ag36
ag71
ag161
ag182
ag159
ag194
ag188
ag180
ag168
ag191
ag171
ag196
ag162
ag35
ag158
ag170
ag200
ag183
asg94
S'20'
p616
sg95
(ischedule
Group
p617
(dp618
g8
g615
sg100
S'Moderne Databases3'
p619
sbsg96
(iread_data
Room
p620
(dp621
g94
g204
sg100
g205
sbsg102
g231
sg104
g232
sg100
g206
sba(ischedule
Activity
p622
(dp623
g8
(lp624
g484
ag292
asg94
S'20'
p625
sg95
(ischedule
Group
p626
(dp627
g8
g624
sg100
S'Bioinformatica3'
p628
sbsg96
(iread_data
Room
p629
(dp630
g94
g148
sg100
g149
sbsg102
g231
sg104
g232
sg100
g502
sba(ischedule
Activity
p631
(dp632
g8
(lp633
g262
aS'86807027'
p634
ag160
ag277
ag338
aS'48357272'
p635
ag178
ag394
ag194
aS'97417002'
p636
aS'57467488'
p637
ag20
ag531
aS'53775014'
p638
aS'76393508'
p639
aS'14941752'
p640
ag123
ag92
aS'83443653'
p641
ag80
ag555
aS'4353500'
p642
ag219
ag496
ag88
ag264
asg94
S'25'
p643
sg95
(ischedule
Group
p644
(dp645
g8
g633
sg100
S'Heuristieken 11'
p646
sbsg96
(iread_data
Room
p647
(dp648
g94
g99
sg100
g101
sbsg102
g231
sg104
g412
sg100
S'Heuristieken 1'
p649
sba(ischedule
Activity
p650
(dp651
g8
(lp652
S'28618400'
p653
ag139
aS'70015932'
p654
ag222
ag144
aS'27925117'
p655
ag368
ag524
ag138
ag137
ag164
ag452
ag86
ag214
ag353
aS'59289233'
p656
aS'13798030'
p657
ag65
ag549
aS'72683344'
p658
ag513
asg94
I1000
sg95
Nsg96
(iread_data
Room
p659
(dp660
g94
g254
sg100
g255
sbsg102
g103
sg104
I0
sg100
S'Architectuur en computerorganisatie'
p661
sba(ischedule
Activity
p662
(dp663
g8
g537
sg94
g625
sg95
g539
sg96
(iread_data
Room
p664
(dp665
g94
g282
sg100
g283
sbsg102
g231
sg104
g377
sg100
g502
sba(ischedule
Activity
p666
(dp667
g8
g460
sg94
g616
sg95
g462
sg96
(iread_data
Room
p668
(dp669
g94
g299
sg100
g300
sbsg102
g231
sg104
g412
sg100
g206
sbaaa(lp670
(lp671
(ischedule
Activity
p672
(dp673
g8
g381
sg94
I1000
sg95
Nsg96
(iread_data
Room
p674
(dp675
g94
g229
sg100
g230
sbsg102
g103
sg104
I0
sg100
g402
sba(ischedule
Activity
p676
(dp677
g8
(lp678
g193
ag312
ag196
ag194
ag314
ag311
ag332
ag320
ag323
ag337
ag326
ag329
ag324
ag162
ag308
ag117
ag310
ag336
ag339
ag335
ag110
ag315
ag331
ag195
ag330
ag313
ag317
ag318
ag327
ag185
ag325
ag333
asg94
g223
sg95
(ischedule
Group
p679
(dp680
g8
g678
sg100
S'Collectieve Intelligentie2'
p681
sbsg96
(iread_data
Room
p682
(dp683
g94
g148
sg100
g149
sbsg102
g231
sg104
g377
sg100
g233
sba(ischedule
Activity
p684
(dp685
g8
(lp686
g278
ag182
ag197
ag443
ag448
ag240
ag452
ag289
ag81
ag274
ag429
ag433
ag44
ag59
ag423
ag450
ag54
ag351
ag445
ag444
ag156
ag421
ag291
ag419
ag425
ag431
ag167
ag449
ag436
ag420
ag426
ag440
ag238
ag177
ag454
ag427
ag437
ag335
ag434
ag179
ag446
asg94
S'40'
p687
sg95
(ischedule
Group
p688
(dp689
g8
g686
sg100
S'Compilerbouw2'
p690
sbsg96
(iread_data
Room
p691
(dp692
g94
g99
sg100
g101
sbsg102
g231
sg104
g377
sg100
g457
sba(ischedule
Activity
p693
(dp694
g8
(lp695
g15
ag210
ag488
ag238
ag271
ag445
aS'67817269'
p696
aS'66433883'
p697
aS'19540225'
p698
ag261
ag136
aS'51509565'
p699
ag369
aS'40343779'
p700
ag80
ag43
ag637
aS'88596522'
p701
aS'91527663'
p702
aS'64554442'
p703
aS'44828429'
p704
ag213
ag547
ag128
ag155
ag354
ag188
aS'3707829'
p705
aS'26260141'
p706
ag211
ag16
ag441
aS'64947290'
p707
ag113
ag212
ag82
aS'21095566'
p708
aS'23652927'
p709
ag346
aS'34765676'
p710
ag366
ag214
ag47
asg94
I1000
sg95
Nsg96
(iread_data
Room
p711
(dp712
g94
g204
sg100
g205
sbsg102
g103
sg104
I0
sg100
S'Algoritmen en complexiteit'
p713
sba(ischedule
Activity
p714
(dp715
g8
(lp716
g38
ag112
ag144
ag319
ag79
ag316
ag340
ag309
asg94
g223
sg95
(ischedule
Group
p717
(dp718
g8
g716
sg100
S'Collectieve Intelligentie4'
p719
sbsg96
(iread_data
Room
p720
(dp721
g94
g299
sg100
g300
sbsg102
g231
sg104
S'4'
p722
sg100
g233
sba(ischedule
Activity
p723
(dp724
g8
g597
sg94
g223
sg95
g599
sg96
(iread_data
Room
p725
(dp726
g94
g282
sg100
g283
sbsg102
g231
sg104
g412
sg100
g233
sba(ischedule
Activity
p727
(dp728
g8
(lp729
S'1886996'
p730
ag634
aS'40633534'
p731
ag19
ag133
aS'39429093'
p732
asg94
S'10'
p733
sg95
(ischedule
Group
p734
(dp735
g8
g729
sg100
S'Advanced Heuristics1'
p736
sbsg96
(iread_data
Room
p737
(dp738
g94
g254
sg100
g255
sbsg102
g301
sg104
g412
sg100
S'Advanced Heuristics'
p739
sbaa(lp740
(ischedule
Activity
p741
(dp742
g8
(lp743
S'4546613'
p744
aS'73302736'
p745
aS'62105897'
p746
aS'45915482'
p747
ag494
ag349
ag354
aS'62363761'
p748
aS'38179241'
p749
ag187
ag33
ag25
aS'31306819'
p750
ag451
ag508
aS'47932106'
p751
aS'80188025'
p752
aS'58040377'
p753
ag324
ag218
aS'11593163'
p754
aS'75623387'
p755
aS'65408517'
p756
aS'53139134'
p757
aS'65978354'
p758
ag164
ag28
ag35
ag260
ag64
ag550
ag18
ag635
ag470
ag172
ag527
aS'34173695'
p759
ag24
aS'56544130'
p760
ag422
ag188
aS'37279234'
p761
asg94
S'40'
p762
sg95
(ischedule
Group
p763
(dp764
g8
g743
sg100
S'Calculus 21'
p765
sbsg96
(iread_data
Room
p766
(dp767
g94
g282
sg100
g283
sbsg102
g231
sg104
g412
sg100
S'Calculus 2'
p768
sba(ischedule
Activity
p769
(dp770
g8
g686
sg94
S'40'
p771
sg95
g688
sg96
(iread_data
Room
p772
(dp773
g94
g229
sg100
g230
sbsg102
g301
sg104
g377
sg100
g457
sba(ischedule
Activity
p774
(dp775
g8
(lp776
g326
ag334
ag217
ag483
ag332
aS'32183908'
p777
ag41
ag91
ag516
aS'42406214'
p778
ag17
aS'40911986'
p779
aS'63939720'
p780
aS'81116418'
p781
aS'63573738'
p782
ag439
aS'19214659'
p783
aS'2550487'
p784
aS'21070547'
p785
ag318
asg94
g293
sg95
(ischedule
Group
p786
(dp787
g8
g776
sg100
S'Project Numerical Recipes2'
p788
sbsg96
(iread_data
Room
p789
(dp790
g94
g254
sg100
g255
sbsg102
g301
sg104
g377
sg100
g302
sba(ischedule
Activity
p791
(dp792
g8
(lp793
g638
ag368
ag178
ag641
aS'45660925'
p794
ag394
ag397
ag496
ag20
ag635
ag194
ag264
ag636
ag32
aS'58736785'
p795
ag526
ag639
ag272
ag262
ag531
ag634
ag80
aS'20830477'
p796
aS'79879876'
p797
ag160
ag640
ag364
ag424
ag92
ag49
ag556
ag340
ag123
ag555
ag277
ag642
ag88
aS'31897288'
p798
ag196
ag637
ag338
ag219
ag86
aS'87210640'
p799
asg94
I1000
sg95
Nsg96
(iread_data
Room
p800
(dp801
g94
g148
sg100
g149
sbsg102
g103
sg104
I0
sg100
g649
sba(ischedule
Activity
p802
(dp803
g8
g108
sg94
I1000
sg95
Nsg96
(iread_data
Room
p804
(dp805
g94
g99
sg100
g101
sbsg102
g103
sg104
I0
sg100
g150
sba(ischedule
Activity
p806
(dp807
g8
(lp808
g731
aS'86180471'
p809
ag267
aS'48678993'
p810
ag655
aS'87602030'
p811
aS'5526560'
p812
ag67
ag365
asg94
g472
sg95
(ischedule
Group
p813
(dp814
g8
g808
sg100
S'Project Genetic Algorithms3'
p815
sbsg96
(iread_data
Room
p816
(dp817
g94
g204
sg100
g205
sbsg102
g301
sg104
g232
sg100
g478
sbaa(lp818
(ischedule
Activity
p819
(dp820
g8
(lp821
g197
ag441
ag237
ag447
aS'21192048'
p822
ag31
aS'93041523'
p823
ag394
ag91
aS'92496780'
p824
aS'4697362'
p825
aS'36785409'
p826
aS'7106649'
p827
ag178
aS'76487754'
p828
ag137
ag307
aS'77264363'
p829
ag48
ag553
aS'12430748'
p830
aS'47982619'
p831
ag42
ag184
ag277
ag513
ag434
ag444
ag187
aS'58565406'
p832
ag310
aS'70336464'
p833
ag182
aS'14383795'
p834
ag262
ag127
ag194
ag329
asg94
I1000
sg95
Nsg96
(iread_data
Room
p835
(dp836
g94
g282
sg100
g283
sbsg102
g103
sg104
I0
sg100
S'Technology for games'
p837
sba(ischedule
Activity
p838
(dp839
g8
(lp840
g72
ag752
ag88
ag120
ag79
ag65
aS'23658570'
p841
ag187
ag519
ag264
aS'14637758'
p842
ag635
ag14
aS'97838175'
p843
aS'60661905'
p844
ag490
ag260
ag641
aS'72456780'
p845
ag826
ag568
ag745
aS'72586808'
p846
aS'33672995'
p847
ag247
aS'34900967'
p848
ag237
ag183
ag483
aS'73350019'
p849
ag321
ag385
ag160
aS'78822885'
p850
ag37
ag760
aS'18477924'
p851
ag62
ag512
ag570
ag449
aS'62613937'
p852
aS'82854435'
p853
aS'58480929'
p854
ag11
aS'70193386'
p855
aS'65318664'
p856
aS'5085194'
p857
ag810
asg94
I1000
sg95
Nsg96
(iread_data
Room
p858
(dp859
g94
g204
sg100
g205
sbsg102
g103
sg104
I0
sg100
S'Analysemethoden en -technieken'
p860
sba(ischedule
Activity
p861
(dp862
g8
(lp863
g210
ag113
ag214
ag212
ag47
ag128
ag213
ag238
ag369
ag211
ag136
ag43
ag155
ag696
ag261
ag15
ag82
ag697
ag702
ag704
ag80
ag445
ag707
ag488
ag709
asg94
S'25'
p864
sg95
(ischedule
Group
p865
(dp866
g8
g863
sg100
S'Algoritmen en complexiteit2'
p867
sbsg96
(iread_data
Room
p868
(dp869
g94
g99
sg100
g101
sbsg102
g301
sg104
g377
sg100
g713
sba(ischedule
Activity
p870
(dp871
g8
(lp872
g56
ag29
ag216
aS'88597745'
p873
ag796
ag425
aS'54395877'
p874
aS'7386961'
p875
ag274
ag190
aS'15249775'
p876
aS'27582862'
p877
ag32
ag140
ag45
ag63
ag75
aS'41153310'
p878
aS'88519892'
p879
ag326
ag143
ag68
ag181
ag420
aS'51593625'
p880
ag245
ag352
ag242
aS'64053722'
p881
ag323
ag746
aS'1048485'
p882
ag70
aS'51791169'
p883
asg94
S'20'
p884
sg95
(ischedule
Group
p885
(dp886
g8
g872
sg100
S'Programmeren in Java 21'
p887
sbsg96
(iread_data
Room
p888
(dp889
g94
g229
sg100
g230
sbsg102
g301
sg104
g412
sg100
S'Programmeren in Java 2'
p890
sba(ischedule
Activity
p891
(dp892
g8
(lp893
g191
ag180
aS'77960666'
p894
ag547
ag761
ag529
ag18
ag435
ag273
ag448
asg94
g884
sg95
(ischedule
Group
p895
(dp896
g8
g893
sg100
S'Programmeren in Java 22'
p897
sbsg96
(iread_data
Room
p898
(dp899
g94
g148
sg100
g149
sbsg102
g301
sg104
g377
sg100
g890
sbaa(lp900
(ischedule
Activity
p901
(dp902
g8
(lp903
g91
ag494
ag139
ag832
ag491
ag289
ag197
ag487
ag111
ag292
ag364
ag279
ag394
ag55
ag216
ag700
ag355
ag155
aS'82872148'
p904
ag338
ag265
ag85
ag157
ag239
ag169
ag423
ag654
ag15
aS'44671041'
p905
aS'31103066'
p906
ag745
ag41
ag369
ag212
ag744
ag43
ag138
ag746
aS'3727435'
p907
ag878
ag39
ag706
aS'37830626'
p908
aS'9287708'
p909
ag240
ag882
aS'58074656'
p910
ag29
ag247
ag880
ag311
ag747
ag322
ag708
ag450
ag856
asg94
S'40'
p911
sg95
(ischedule
Group
p912
(dp913
g8
g903
sg100
S'Software engineering2'
p914
sbsg96
(iread_data
Room
p915
(dp916
g94
g99
sg100
g101
sbsg102
g301
sg104
g377
sg100
S'Software engineering'
p917
sba(ischedule
Activity
p918
(dp919
g8
(lp920
g81
ag64
ag90
aS'72652638'
p921
ag876
ag337
ag710
ag730
aS'99975346'
p922
ag346
ag655
ag795
aS'5739011'
p923
ag391
aS'35315956'
p924
ag356
ag810
ag753
asg94
S'20'
p925
sg95
(ischedule
Group
p926
(dp927
g8
g920
sg100
S'Heuristieken 21'
p928
sbsg96
(iread_data
Room
p929
(dp930
g94
g299
sg100
g300
sbsg102
g231
sg104
g412
sg100
S'Heuristieken 2'
p931
sba(ischedule
Activity
p932
(dp933
g8
(lp934
g113
ag142
ag120
ag122
ag134
ag128
ag133
ag137
ag136
ag145
ag109
ag124
ag143
ag141
ag119
ag121
ag126
ag114
ag129
ag130
ag140
ag78
ag135
ag123
ag127
ag132
ag116
asg94
S'20'
p935
sg95
(ischedule
Group
p936
(dp937
g8
g934
sg100
S'Webprogrammeren en databases1'
p938
sbsg96
(iread_data
Room
p939
(dp940
g94
g229
sg100
g230
sbsg102
g231
sg104
g412
sg100
g150
sba(ischedule
Activity
p941
(dp942
g8
g716
sg94
g598
sg95
g717
sg96
(iread_data
Room
p943
(dp944
g94
g148
sg100
g149
sbsg102
g301
sg104
g722
sg100
g233
sba(ischedule
Activity
p945
(dp946
g8
(lp947
g269
ag276
ag262
ag193
ag261
ag278
asg94
g406
sg95
(ischedule
Group
p948
(dp949
g8
g947
sg100
S'Autonomous Agents 22'
p950
sbsg96
(iread_data
Room
p951
(dp952
g94
g282
sg100
g283
sbsg102
g301
sg104
g377
sg100
g284
sba(ischedule
Activity
p953
(dp954
g8
(lp955
g59
ag271
ag260
ag274
ag272
ag267
ag273
ag277
ag263
ag268
ag266
ag275
asg94
g406
sg95
(ischedule
Group
p956
(dp957
g8
g955
sg100
S'Autonomous Agents 23'
p958
sbsg96
(iread_data
Room
p959
(dp960
g94
g204
sg100
g205
sbsg102
g301
sg104
g232
sg100
g284
sba(ischedule
Activity
p961
(dp962
g8
(lp963
g88
ag158
ag211
ag335
ag634
ag440
ag36
ag57
ag555
ag512
asg94
g884
sg95
(ischedule
Group
p964
(dp965
g8
g963
sg100
S'Programmeren in Java 24'
p966
sbsg96
(iread_data
Room
p967
(dp968
g94
g254
sg100
g255
sbsg102
g301
sg104
g722
sg100
g890
sbaa(lp969
(ischedule
Activity
p970
(dp971
g8
(lp972
g832
ag828
ag91
ag834
ag184
ag824
ag127
asg94
S'20'
p973
sg95
(ischedule
Group
p974
(dp975
g8
g972
sg100
S'Technology for games1'
p976
sbsg96
(iread_data
Room
p977
(dp978
g94
g254
sg100
g255
sbsg102
g231
sg104
g412
sg100
g837
sba(ischedule
Activity
p979
(dp980
g8
(lp981
g110
ag489
aS'3678531'
p982
ag429
ag752
ag759
ag18
ag760
ag496
ag485
aS'47477884'
p983
aS'22168693'
p984
ag33
ag211
aS'75446434'
p985
ag78
ag754
ag337
ag190
ag706
ag187
aS'81155296'
p986
ag366
ag57
ag811
ag157
ag745
ag70
ag192
ag527
ag89
ag519
aS'55530367'
p987
ag484
ag750
aS'56348773'
p988
ag749
ag92
ag746
aS'19717077'
p989
ag841
ag655
ag757
ag448
ag218
ag324
ag748
ag54
ag451
aS'10609762'
p990
ag126
aS'6709529'
p991
aS'93361408'
p992
aS'72665524'
p993
ag635
aS'72526473'
p994
ag338
aS'70939718'
p995
ag747
aS'6939933'
p996
ag564
aS'79888156'
p997
ag164
aS'61520025'
p998
ag260
ag758
aS'40141996'
p999
aS'12091019'
p1000
ag751
aS'77306636'
p1001
aS'23628642'
p1002
ag349
ag744
ag271
ag388
ag24
ag761
ag35
ag508
ag756
ag323
ag354
ag755
ag494
ag550
ag290
ag634
ag470
ag753
ag160
ag847
ag433
ag809
ag119
aS'59220392'
p1003
ag28
aS'82412626'
p1004
ag513
ag422
ag25
ag188
ag514
ag64
ag181
ag77
ag172
asg94
I1000
sg95
Nsg96
(iread_data
Room
p1005
(dp1006
g94
g99
sg100
g101
sbsg102
g103
sg104
I0
sg100
g768
sba(ischedule
Activity
p1007
(dp1008
g8
(lp1009
g553
ag178
ag394
ag310
ag827
ag48
ag194
ag42
ag829
ag833
ag825
ag434
ag822
ag237
ag826
ag307
ag329
ag187
ag447
ag823
ag137
ag830
ag182
ag831
ag197
ag31
ag513
ag441
ag444
ag262
ag277
asg94
g973
sg95
(ischedule
Group
p1010
(dp1011
g8
g1009
sg100
S'Technology for games2'
p1012
sbsg96
(iread_data
Room
p1013
(dp1014
g94
g229
sg100
g230
sbsg102
g231
sg104
g377
sg100
g837
sba(ischedule
Activity
p1015
(dp1016
g8
g863
sg94
S'25'
p1017
sg95
g865
sg96
(iread_data
Room
p1018
(dp1019
g94
g282
sg100
g283
sbsg102
g231
sg104
g377
sg100
g713
sba(ischedule
Activity
p1020
(dp1021
g8
g345
sg94
I1000
sg95
Nsg96
(iread_data
Room
p1022
(dp1023
g94
g204
sg100
g205
sbsg102
g103
sg104
I0
sg100
g360
sba(ischedule
Activity
p1024
(dp1025
g8
(lp1026
g368
ag32
ag364
ag86
ag196
ag797
ag49
ag556
ag796
ag526
ag272
ag424
ag397
ag798
ag340
ag794
ag795
ag799
asg94
g643
sg95
(ischedule
Group
p1027
(dp1028
g8
g1026
sg100
S'Heuristieken 12'
p1029
sbsg96
(iread_data
Room
p1030
(dp1031
g94
g299
sg100
g300
sbsg102
g231
sg104
g377
sg100
g649
sba(ischedule
Activity
p1032
(dp1033
g8
g588
sg94
S'10'
p1034
sg95
g590
sg96
(iread_data
Room
p1035
(dp1036
g94
g148
sg100
g149
sbsg102
g231
sg104
g412
sg100
g402
sbaaa(lp1037
(lp1038
(ischedule
Activity
p1039
(dp1040
g8
(lp1041
g346
ag267
ag518
ag264
ag526
ag385
ag45
ag135
ag72
ag515
ag59
ag756
ag635
ag334
ag325
aS'14072826'
p1042
ag268
ag877
ag331
asg94
S'40'
p1043
sg95
(ischedule
Group
p1044
(dp1045
g8
g1041
sg100
S'Software engineering1'
p1046
sbsg96
(iread_data
Room
p1047
(dp1048
g94
g299
sg100
g300
sbsg102
g231
sg104
g412
sg100
g917
sba(ischedule
Activity
p1049
(dp1050
g8
(lp1051
S'27123462'
p1052
ag195
ag707
ag36
ag332
ag812
ag496
ag216
aS'83869542'
p1053
ag309
ag429
aS'56121590'
p1054
ag565
ag238
ag261
ag136
ag552
ag486
ag137
ag529
aS'62736669'
p1055
ag321
ag443
aS'15187217'
p1056
ag265
ag514
ag516
ag183
ag857
ag244
aS'37701751'
p1057
ag637
ag482
aS'58083680'
p1058
ag62
ag214
ag79
ag702
aS'56191333'
p1059
ag278
ag999
ag185
ag894
aS'54540997'
p1060
ag129
ag512
ag32
ag845
ag274
ag290
aS'13132925'
p1061
ag335
aS'90474003'
p1062
ag173
ag188
ag61
ag751
ag1000
ag329
aS'26207525'
p1063
ag983
ag193
ag809
ag841
aS'4529208'
p1064
aS'59397895'
p1065
ag508
ag452
ag70
ag117
ag178
ag201
asg94
I1000
sg95
Nsg96
(iread_data
Room
p1066
(dp1067
g94
g99
sg100
g101
sbsg102
g103
sg104
I0
sg100
S'Databases 2'
p1068
sba(ischedule
Activity
p1069
(dp1070
g8
g821
sg94
I1000
sg95
Nsg96
(iread_data
Room
p1071
(dp1072
g94
g229
sg100
g230
sbsg102
g103
sg104
I0
sg100
g837
sba(ischedule
Activity
p1073
(dp1074
g8
(lp1075
S'28943658'
p1076
ag355
ag315
ag64
ag431
ag82
ag93
ag422
aS'85284256'
p1077
aS'39905995'
p1078
asg94
g884
sg95
(ischedule
Group
p1079
(dp1080
g8
g1075
sg100
S'Programmeren in Java 25'
p1081
sbsg96
(iread_data
Room
p1082
(dp1083
g94
g204
sg100
g205
sbsg102
g301
sg104
S'5'
p1084
sg100
g890
sba(ischedule
Activity
p1085
(dp1086
g8
g481
sg94
I1000
sg95
Nsg96
(iread_data
Room
p1087
(dp1088
g94
g148
sg100
g149
sbsg102
g103
sg104
I0
sg100
g502
sba(ischedule
Activity
p1089
(dp1090
g8
(lp1091
g120
ag81
ag47
ag17
ag191
aS'51415617'
p1092
aS'68286356'
p1093
ag166
ag30
ag778
aS'82390428'
p1094
ag922
ag570
ag369
ag142
ag844
ag855
aS'36213792'
p1095
aS'27370083'
p1096
ag556
ag349
ag13
asg94
g248
sg95
(ischedule
Group
p1097
(dp1098
g8
g1091
sg100
S'Reflectie op de digitale cultuur1'
p1099
sbsg96
(iread_data
Room
p1100
(dp1101
g94
g282
sg100
g283
sbsg102
g231
sg104
g412
sg100
g256
sba(ischedule
Activity
p1102
(dp1103
g8
(lp1104
g161
asg94
S'15'
p1105
sg95
(ischedule
Group
p1106
(dp1107
g8
g1104
sg100
S'Informatie- en organsatieontwerp1'
p1108
sbsg96
(iread_data
Room
p1109
(dp1110
g94
g254
sg100
g255
sbsg102
g301
sg104
g412
sg100
g559
sbaa(lp1111
(ischedule
Activity
p1112
(dp1113
g8
(lp1114
g331
ag906
ag155
ag515
ag346
ag15
ag169
ag239
ag216
ag41
ag877
ag450
ag745
ag240
ag55
ag654
ag878
ag325
ag910
ag157
ag247
ag91
ag265
ag494
ag882
ag139
ag111
ag43
ag267
ag832
ag338
ag908
ag369
ag138
ag744
ag423
ag364
ag856
ag518
ag905
ag635
ag756
ag904
ag747
ag880
ag334
ag264
ag355
ag526
ag39
ag700
ag491
ag385
ag59
ag292
ag135
ag311
ag907
ag394
ag72
ag706
ag322
ag279
ag746
ag268
ag212
ag85
ag289
ag45
ag909
ag29
ag197
ag708
ag487
ag1042
asg94
I1000
sg95
Nsg96
(iread_data
Room
p1115
(dp1116
g94
g99
sg100
g101
sbsg102
g103
sg104
I0
sg100
g917
sba(ischedule
Activity
p1117
(dp1118
g8
(lp1119
g191
ag80
ag391
aS'59887191'
p1120
aS'53267490'
p1121
ag214
ag20
aS'123355'
p1122
ag1063
ag174
ag384
aS'21677389'
p1123
asg94
S'20'
p1124
sg95
(ischedule
Group
p1125
(dp1126
g8
g1119
sg100
S'Netwerken en systeembeveiliging3'
p1127
sbsg96
(iread_data
Room
p1128
(dp1129
g94
g148
sg100
g149
sbsg102
g301
sg104
g232
sg100
S'Netwerken en systeembeveiliging'
p1130
sba(ischedule
Activity
p1131
(dp1132
g8
(lp1133
g337
ag485
ag986
ag433
ag92
ag496
ag982
ag448
ag54
ag484
ag996
ag1001
ag89
ag1004
ag190
ag388
ag655
ag57
ag983
ag489
ag513
ag271
ag323
ag991
ag995
ag990
ag77
ag119
ag564
ag847
ag192
ag70
ag211
ag992
ag987
ag1003
ag181
ag998
ag809
ag366
ag989
ag993
ag988
ag811
ag997
ag841
asg94
g762
sg95
(ischedule
Group
p1134
(dp1135
g8
g1133
sg100
S'Calculus 23'
p1136
sbsg96
(iread_data
Room
p1137
(dp1138
g94
g204
sg100
g205
sbsg102
g231
sg104
g232
sg100
g768
sba(ischedule
Activity
p1139
(dp1140
g8
g947
sg94
S'10'
p1141
sg95
g948
sg96
(iread_data
Room
p1142
(dp1143
g94
g299
sg100
g300
sbsg102
g231
sg104
g377
sg100
g284
sba(ischedule
Activity
p1144
(dp1145
g8
(lp1146
g330
ag334
ag327
ag318
ag113
ag326
ag424
ag38
ag441
ag451
ag417
ag164
ag28
ag430
ag109
ag14
ag438
ag428
ag422
ag439
ag447
ag435
ag353
ag347
ag442
ag432
ag453
ag418
asg94
g771
sg95
(ischedule
Group
p1147
(dp1148
g8
g1146
sg100
S'Compilerbouw1'
p1149
sbsg96
(iread_data
Room
p1150
(dp1151
g94
g282
sg100
g283
sbsg102
g301
sg104
g412
sg100
g457
sba(ischedule
Activity
p1152
(dp1153
g8
g546
sg94
I1000
sg95
Nsg96
(iread_data
Room
p1154
(dp1155
g94
g254
sg100
g255
sbsg102
g103
sg104
I0
sg100
g559
sbaa(lp1156
(ischedule
Activity
p1157
(dp1158
g8
(lp1159
g37
ag277
ag216
ag700
ag324
ag14
ag355
ag218
ag845
ag904
ag326
ag340
ag497
ag445
ag57
ag642
aS'16912993'
p1160
ag846
ag425
ag434
ag1077
ag1055
aS'5590289'
p1161
ag748
ag217
ag291
ag782
aS'19058315'
p1162
ag56
aS'64246605'
p1163
ag570
ag1059
aS'25557516'
p1164
ag244
aS'12170832'
p1165
ag142
ag389
ag492
ag243
ag495
ag637
ag882
ag16
ag653
ag1054
ag387
ag810
asg94
g1124
sg95
(ischedule
Group
p1166
(dp1167
g8
g1159
sg100
S'Netwerken en systeembeveiliging4'
p1168
sbsg96
(iread_data
Room
p1169
(dp1170
g94
g148
sg100
g149
sbsg102
g301
sg104
g722
sg100
g1130
sba(ischedule
Activity
p1171
(dp1172
g8
g1041
sg94
g911
sg95
g1044
sg96
(iread_data
Room
p1173
(dp1174
g94
g99
sg100
g101
sbsg102
g301
sg104
g412
sg100
g917
sba(ischedule
Activity
p1175
(dp1176
g8
g615
sg94
g461
sg95
g617
sg96
(iread_data
Room
p1177
(dp1178
g94
g299
sg100
g300
sbsg102
g301
sg104
g232
sg100
g206
sba(ischedule
Activity
p1179
(dp1180
g8
(lp1181
g784
ag310
ag238
ag366
ag831
ag11
aS'63096281'
p1182
ag528
ag707
ag118
ag398
ag213
aS'10702778'
p1183
aS'73893840'
p1184
ag421
ag241
ag53
ag51
ag841
ag316
ag552
ag797
ag54
ag417
ag124
ag697
ag844
aS'88263855'
p1185
ag848
ag80
aS'90296821'
p1186
aS'73196865'
p1187
ag753
ag112
ag905
aS'12782624'
p1188
ag317
ag489
ag313
ag356
asg94
g884
sg95
(ischedule
Group
p1189
(dp1190
g8
g1181
sg100
S'Programmeren in Java 23'
p1191
sbsg96
(iread_data
Room
p1192
(dp1193
g94
g204
sg100
g205
sbsg102
g301
sg104
g232
sg100
g890
sba(ischedule
Activity
p1194
(dp1195
g8
(lp1196
g139
ag173
ag187
ag190
ag160
ag154
ag178
ag184
ag164
ag167
ag192
ag179
ag169
ag198
ag189
ag201
ag186
ag176
ag197
ag155
ag174
ag181
ag156
ag166
ag199
ag61
ag177
ag157
ag175
ag172
ag163
asg94
g461
sg95
(ischedule
Group
p1197
(dp1198
g8
g1196
sg100
S'Moderne Databases2'
p1199
sbsg96
(iread_data
Room
p1200
(dp1201
g94
g229
sg100
g230
sbsg102
g301
sg104
g377
sg100
g206
sba(ischedule
Activity
p1202
(dp1203
g8
(lp1204
g436
aS'42297781'
p1205
ag566
ag701
ag64
ag531
asg94
g371
sg95
(ischedule
Group
p1206
(dp1207
g8
g1204
sg100
S'Compilerbouw practicum3'
p1208
sbsg96
(iread_data
Room
p1209
(dp1210
g94
g282
sg100
g283
sbsg102
g301
sg104
g232
sg100
g378
sba(ischedule
Activity
p1211
(dp1212
g8
(lp1213
g212
ag553
ag329
aS'23215240'
p1214
ag993
ag487
ag563
ag210
aS'65675896'
p1215
aS'51472074'
p1216
aS'1695839'
p1217
ag336
aS'91250534'
p1218
aS'5892092'
p1219
aS'64418623'
p1220
aS'47260040'
p1221
ag567
ag834
ag471
aS'55103073'
p1222
ag857
aS'44151631'
p1223
asg94
g371
sg95
(ischedule
Group
p1224
(dp1225
g8
g1213
sg100
S'Compilerbouw practicum1'
p1226
sbsg96
(iread_data
Room
p1227
(dp1228
g94
g254
sg100
g255
sbsg102
g301
sg104
g412
sg100
g378
sbaa(lp1229
(ischedule
Activity
p1230
(dp1231
g8
(lp1232
g36
ag185
ag1062
ag552
ag894
ag332
ag117
ag1057
ag529
ag1054
ag514
ag70
ag193
ag845
ag32
ag321
ag508
ag129
ag512
ag137
ag79
ag183
ag1063
ag516
ag1055
ag201
asg94
S'40'
p1233
sg95
(ischedule
Group
p1234
(dp1235
g8
g1232
sg100
S'Databases 22'
p1236
sbsg96
(iread_data
Room
p1237
(dp1238
g94
g229
sg100
g230
sbsg102
g231
sg104
g377
sg100
g1068
sba(ischedule
Activity
p1239
(dp1240
g8
g416
sg94
I1000
sg95
Nsg96
g647
sg102
g103
sg104
I0
sg100
g457
sba(ischedule
Activity
p1241
(dp1242
g8
(lp1243
g382
ag397
ag93
ag394
ag355
ag385
ag389
ag53
ag246
ag262
ag395
ag398
ag391
ag384
ag383
ag386
asg94
g589
sg95
(ischedule
Group
p1244
(dp1245
g8
g1243
sg100
S'Data Mining2'
p1246
sbsg96
(iread_data
Room
p1247
(dp1248
g94
g282
sg100
g283
sbsg102
g301
sg104
g377
sg100
g402
sba(ischedule
Activity
p1249
(dp1250
g8
g209
sg94
g598
sg95
g224
sg96
(iread_data
Room
p1251
(dp1252
g94
g204
sg100
g205
sbsg102
g301
sg104
g232
sg100
g233
sba(ischedule
Activity
p1253
(dp1254
g8
(lp1255
g658
ag144
ag993
ag482
ag983
ag243
ag730
ag119
ag446
ag653
ag160
ag244
ag307
ag731
ag732
ag634
ag47
ag133
ag852
ag19
asg94
I1000
sg95
Nsg96
(iread_data
Room
p1256
(dp1257
g94
g148
sg100
g149
sbsg102
g103
sg104
I0
sg100
g739
sba(ischedule
Activity
p1258
(dp1259
g8
(lp1260
g388
asg94
g589
sg95
(ischedule
Group
p1261
(dp1262
g8
g1260
sg100
S'Data Mining3'
p1263
sbsg96
(iread_data
Room
p1264
(dp1265
g94
g299
sg100
g300
sbsg102
g301
sg104
g232
sg100
g402
sbaa(lp1266
(ischedule
Activity
p1267
(dp1268
g8
g306
sg94
I1000
sg95
Nsg96
(iread_data
Room
p1269
(dp1270
g94
g99
sg100
g101
sbsg102
g103
sg104
I0
sg100
g233
sba(ischedule
Activity
p1271
(dp1272
g8
g1260
sg94
g1034
sg95
g1261
sg96
(iread_data
Room
p1273
(dp1274
g94
g282
sg100
g283
sbsg102
g231
sg104
g232
sg100
g402
sba(ischedule
Activity
p1275
(dp1276
g8
g259
sg94
I1000
sg95
Nsg96
(iread_data
Room
p1277
(dp1278
g94
g204
sg100
g205
sbsg102
g103
sg104
I0
sg100
g284
sba(ischedule
Activity
p1279
(dp1280
g8
g934
sg94
g580
sg95
g936
sg96
(iread_data
Room
p1281
(dp1282
g94
g148
sg100
g149
sbsg102
g301
sg104
g412
sg100
g150
sba(ischedule
Activity
p1283
(dp1284
g8
(lp1285
g188
ag706
ag346
ag354
ag366
ag441
ag547
ag710
ag700
ag698
ag271
ag701
ag637
ag699
ag703
ag708
ag16
ag705
asg94
g864
sg95
(ischedule
Group
p1286
(dp1287
g8
g1285
sg100
S'Algoritmen en complexiteit1'
p1288
sbsg96
(iread_data
Room
p1289
(dp1290
g94
g299
sg100
g300
sbsg102
g301
sg104
g412
sg100
g713
sba(ischedule
Activity
p1291
(dp1292
g8
g1243
sg94
g1034
sg95
g1244
sg96
(iread_data
Room
p1293
(dp1294
g94
g254
sg100
g255
sbsg102
g231
sg104
g377
sg100
g402
sba(ischedule
Activity
p1295
(dp1296
g8
g1196
sg94
g616
sg95
g1197
sg96
(iread_data
Room
p1297
(dp1298
g94
g229
sg100
g230
sbsg102
g231
sg104
g377
sg100
g206
sbaaa(lp1299
(lp1300
(ischedule
Activity
p1301
(dp1302
g8
g903
sg94
g1043
sg95
g912
sg96
(iread_data
Room
p1303
(dp1304
g94
g99
sg100
g101
sbsg102
g231
sg104
g377
sg100
g917
sba(ischedule
Activity
p1305
(dp1306
g8
(lp1307
g261
ag1053
ag923
ag730
ag391
ag655
ag346
ag356
ag112
ag337
ag135
ag389
ag90
ag810
ag795
aS'82968410'
p1308
ag924
ag321
ag753
ag922
ag798
ag876
ag529
ag811
ag120
ag81
ag710
ag260
ag921
ag64
ag827
aS'52304977'
p1309
asg94
I1000
sg95
Nsg96
(iread_data
Room
p1310
(dp1311
g94
g282
sg100
g283
sbsg102
g103
sg104
I0
sg100
g931
sba(ischedule
Activity
p1312
(dp1313
g8
g506
sg94
I1000
sg95
Nsg96
(iread_data
Room
p1314
(dp1315
g94
g204
sg100
g205
sbsg102
g103
sg104
I0
sg100
g534
sba(ischedule
Activity
p1316
(dp1317
g8
(lp1318
g47
ag144
ag307
ag482
ag119
ag244
ag243
ag653
ag983
ag160
ag658
ag852
ag993
ag446
asg94
g733
sg95
(ischedule
Group
p1319
(dp1320
g8
g1318
sg100
S'Advanced Heuristics2'
p1321
sbsg96
(iread_data
Room
p1322
(dp1323
g94
g148
sg100
g149
sbsg102
g301
sg104
g377
sg100
g739
sba(ischedule
Activity
p1324
(dp1325
g8
(lp1326
g48
ag553
ag395
ag552
ag547
ag36
ag277
ag182
ag194
ag37
ag555
ag382
ag556
ag554
ag548
ag551
ag313
ag370
ag549
ag550
asg94
g1105
sg95
(ischedule
Group
p1327
(dp1328
g8
g1326
sg100
S'Informatie- en organsatieontwerp2'
p1329
sbsg96
(iread_data
Room
p1330
(dp1331
g94
g229
sg100
g230
sbsg102
g301
sg104
g377
sg100
g559
sba(ischedule
Activity
p1332
(dp1333
g8
(lp1334
g264
ag262
ag184
ag185
ag180
aS'51052738'
p1335
ag894
ag493
aS'27805666'
p1336
ag489
ag10
aS'20095994'
p1337
ag332
ag288
ag1062
aS'49922855'
p1338
ag826
ag392
asg94
g248
sg95
(ischedule
Group
p1339
(dp1340
g8
g1334
sg100
S'Reflectie op de digitale cultuur2'
p1341
sbsg96
(iread_data
Room
p1342
(dp1343
g94
g299
sg100
g300
sbsg102
g231
sg104
g377
sg100
g256
sbaa(lp1344
(ischedule
Activity
p1345
(dp1346
g8
g652
sg94
I1000
sg95
Nsg96
(iread_data
Room
p1347
(dp1348
g94
g99
sg100
g101
sbsg102
g103
sg104
I0
sg100
g661
sba(ischedule
Activity
p1349
(dp1350
g8
g481
sg94
I1000
sg95
Nsg96
(iread_data
Room
p1351
(dp1352
g94
g204
sg100
g205
sbsg102
g103
sg104
I0
sg100
g502
sba(ischedule
Activity
p1353
(dp1354
g8
(lp1355
g46
ag122
ag307
aS'69634191'
p1356
ag784
ag391
ag1123
ag44
ag986
ag705
ag704
ag245
ag749
ag783
ag528
ag710
ag433
aS'20374340'
p1357
ag445
ag1215
aS'28055464'
p1358
aS'64768422'
p1359
ag1057
ag133
ag744
asg94
I1000
sg95
Nsg96
(iread_data
Room
p1360
(dp1361
g94
g282
sg100
g283
sbsg102
g103
sg104
I0
sg100
S'Interactie-ontwerp'
p1362
sba(ischedule
Activity
p1363
(dp1364
g8
(lp1365
g201
ag354
ag983
ag1214
ag386
ag982
asg94
g884
sg95
(ischedule
Group
p1366
(dp1367
g8
g1365
sg100
S'Programmeren in Java 26'
p1368
sbsg96
(iread_data
Room
p1369
(dp1370
g94
g299
sg100
g300
sbsg102
g301
sg104
S'6'
p1371
sg100
g890
sba(ischedule
Activity
p1372
(dp1373
g8
(lp1374
g338
ag110
ag160
ag706
ag984
ag429
ag519
ag290
ag1002
ag514
ag634
ag157
ag78
ag994
ag985
ag126
ag1000
ag999
asg94
g762
sg95
(ischedule
Group
p1375
(dp1376
g8
g1374
sg100
S'Calculus 22'
p1377
sbsg96
(iread_data
Room
p1378
(dp1379
g94
g148
sg100
g149
sbsg102
g231
sg104
g377
sg100
g768
sba(ischedule
Activity
p1380
(dp1381
g8
g955
sg94
g1141
sg95
g956
sg96
(iread_data
Room
p1382
(dp1383
g94
g254
sg100
g255
sbsg102
g231
sg104
g232
sg100
g284
sba(ischedule
Activity
p1384
(dp1385
g8
(lp1386
g995
asg94
g1124
sg95
(ischedule
Group
p1387
(dp1388
g8
g1386
sg100
S'Netwerken en systeembeveiliging2'
p1389
sbsg96
(iread_data
Room
p1390
(dp1391
g94
g229
sg100
g230
sbsg102
g301
sg104
g377
sg100
g1130
sbaa(lp1392
(ischedule
Activity
p1393
(dp1394
g8
(lp1395
g570
ag1335
ag778
ag288
ag1096
ag237
ag185
ag894
ag242
ag1338
ag392
ag166
ag30
ag369
ag556
ag120
ag489
ag244
ag1093
ag240
ag81
ag13
ag243
ag238
ag1094
ag1336
ag493
ag245
ag264
ag246
ag922
ag241
ag247
ag1095
ag844
ag47
ag1062
ag262
ag332
ag10
ag826
ag239
ag180
ag142
ag184
ag349
ag1337
ag855
ag191
ag17
ag1092
asg94
I1000
sg95
Nsg96
(iread_data
Room
p1396
(dp1397
g94
g148
sg100
g149
sbsg102
g103
sg104
I0
sg100
g256
sba(ischedule
Activity
p1398
(dp1399
g8
g306
sg94
I1000
sg95
Nsg96
(iread_data
Room
p1400
(dp1401
g94
g99
sg100
g101
sbsg102
g103
sg104
I0
sg100
g233
sba(ischedule
Activity
p1402
(dp1403
g8
(lp1404
g85
ag367
ag67
ag993
asg94
g1124
sg95
(ischedule
Group
p1405
(dp1406
g8
g1404
sg100
S'Netwerken en systeembeveiliging1'
p1407
sbsg96
(iread_data
Room
p1408
(dp1409
g94
g299
sg100
g300
sbsg102
g301
sg104
g412
sg100
g1130
sba(ischedule
Activity
p1410
(dp1411
g8
(lp1412
g268
ag113
aS'34691309'
p1413
ag444
ag177
ag640
ag389
ag996
ag634
aS'90103047'
p1414
ag89
ag429
aS'19662602'
p1415
ag398
ag417
ag830
ag90
ag653
aS'37419523'
p1416
asg94
g293
sg95
(ischedule
Group
p1417
(dp1418
g8
g1412
sg100
S'Project Numerical Recipes1'
p1419
sbsg96
(iread_data
Room
p1420
(dp1421
g94
g204
sg100
g205
sbsg102
g301
sg104
g412
sg100
g302
sba(ischedule
Activity
p1422
(dp1423
g8
g1285
sg94
g1017
sg95
g1286
sg96
(iread_data
Room
p1424
(dp1425
g94
g282
sg100
g283
sbsg102
g231
sg104
g412
sg100
g713
sbaa(lp1426
(ischedule
Activity
p1427
(dp1428
g8
g9
sg94
I1000
sg95
Nsg96
(iread_data
Room
p1429
(dp1430
g94
g99
sg100
g101
sbsg102
g103
sg104
I0
sg100
g105
sba(ischedule
Activity
p1431
(dp1432
g8
g624
sg94
g538
sg95
g626
sg96
(iread_data
Room
p1433
(dp1434
g94
g282
sg100
g283
sbsg102
g301
sg104
g232
sg100
g502
sba(ischedule
Activity
p1435
(dp1436
g8
g678
sg94
g598
sg95
g679
sg96
(iread_data
Room
p1437
(dp1438
g94
g148
sg100
g149
sbsg102
g301
sg104
g377
sg100
g233
sba(ischedule
Activity
p1439
(dp1440
g8
(lp1441
g120
ag261
ag260
ag112
ag827
ag811
ag798
ag135
ag321
ag1308
ag389
ag1309
ag1053
ag529
asg94
g925
sg95
(ischedule
Group
p1442
(dp1443
g8
g1441
sg100
S'Heuristieken 22'
p1444
sbsg96
(iread_data
Room
p1445
(dp1446
g94
g204
sg100
g205
sbsg102
g231
sg104
g377
sg100
g931
sba(ischedule
Activity
p1447
(dp1448
g8
g405
sg94
g1141
sg95
g407
sg96
(iread_data
Room
p1449
(dp1450
g94
g254
sg100
g255
sbsg102
g231
sg104
g412
sg100
g284
sba(ischedule
Activity
p1451
(dp1452
g8
g607
sg94
g625
sg95
g608
sg96
(iread_data
Room
p1453
(dp1454
g94
g299
sg100
g300
sbsg102
g231
sg104
g412
sg100
g502
sbaa(lp1455
(ischedule
Activity
p1456
(dp1457
g8
g1395
sg94
I1000
sg95
Nsg96
(iread_data
Room
p1458
(dp1459
g94
g148
sg100
g149
sbsg102
g103
sg104
I0
sg100
g256
sba(ischedule
Activity
p1460
(dp1461
g8
g1326
sg94
S'15'
p1462
sg95
g1327
sg96
(iread_data
Room
p1463
(dp1464
g94
g229
sg100
g230
sbsg102
g231
sg104
g377
sg100
g559
sba(ischedule
Activity
p1465
(dp1466
g8
g1104
sg94
g1462
sg95
g1106
sg96
(iread_data
Room
p1467
(dp1468
g94
g254
sg100
g255
sbsg102
g231
sg104
g412
sg100
g559
sba(ischedule
Activity
p1469
(dp1470
g8
g579
sg94
g935
sg95
g581
sg96
(iread_data
Room
p1471
(dp1472
g94
g299
sg100
g300
sbsg102
g231
sg104
g377
sg100
g150
sba(ischedule
Activity
p1473
(dp1474
g8
(lp1475
g443
ag274
ag452
ag278
ag429
ag482
ag983
ag214
ag178
ag309
ag841
ag216
ag329
ag136
ag1056
ag496
ag857
ag1061
ag173
ag195
ag244
ag1064
ag238
ag1000
ag261
ag61
ag486
ag809
ag290
ag565
ag812
ag265
ag1053
ag1052
ag751
ag1065
ag1059
ag999
ag1060
ag62
ag637
ag702
ag188
ag707
ag335
ag1058
asg94
g1233
sg95
(ischedule
Group
p1476
(dp1477
g8
g1475
sg100
S'Databases 21'
p1478
sbsg96
(iread_data
Room
p1479
(dp1480
g94
g282
sg100
g283
sbsg102
g231
sg104
g412
sg100
g1068
sba(ischedule
Activity
p1481
(dp1482
g8
g1146
sg94
g687
sg95
g1147
sg96
(iread_data
Room
p1483
(dp1484
g94
g204
sg100
g205
sbsg102
g231
sg104
g412
sg100
g457
sba(ischedule
Activity
p1485
(dp1486
g8
g1355
sg94
I1000
sg95
Nsg96
(iread_data
Room
p1487
(dp1488
g94
g99
sg100
g101
sbsg102
g103
sg104
I0
sg100
g1362
sbaaa(lp1489
(lp1490
a(lp1491
a(lp1492
a(lp1493
a(lp1494
aasS'timeslot_dict'
p1495
(dp1496
I0
S'9:00-11:00'
p1497
sI1
S'11:00-13:00'
p1498
sI2
S'13:00-15:00'
p1499
sI3
S'15:00-17:00'
p1500
sI4
S'17:00-19:00'
p1501
ssS'day_dict'
p1502
(dp1503
I0
S'Monday'
p1504
sI1
S'Tuesday'
p1505
sI2
S'Wednesday'
p1506
sI3
S'Thursday'
p1507
sI4
S'Friday'
p1508
ssb.