(ischedule
Schedule
p0
(dp1
S'timetable'
p2
(lp3
(lp4
(lp5
(ischedule
Activity
p6
(dp7
S'participants'
p8
(lp9
S'48308205'
p10
aS'77896638'
p11
aS'34243356'
p12
aS'42778953'
p13
aS'2079771'
p14
aS'72895450'
p15
aS'92665222'
p16
aS'14309255'
p17
aS'27187154'
p18
aS'39459642'
p19
aS'34872117'
p20
aS'49683101'
p21
aS'40791377'
p22
aS'75664412'
p23
aS'12077419'
p24
aS'68315599'
p25
aS'72796858'
p26
aS'86291592'
p27
aS'31194811'
p28
aS'88752563'
p29
aS'75599734'
p30
aS'79033175'
p31
aS'34110913'
p32
aS'8464817'
p33
aS'94687383'
p34
aS'11915563'
p35
aS'54772132'
p36
aS'13284244'
p37
aS'3407554'
p38
aS'65960683'
p39
aS'95007221'
p40
aS'37770881'
p41
aS'75759231'
p42
aS'9067939'
p43
aS'65852230'
p44
aS'11741347'
p45
aS'10792879'
p46
aS'95631564'
p47
aS'5595824'
p48
aS'7957843'
p49
aS'60312776'
p50
aS'46989508'
p51
asS'capacity'
p52
S'40'
p53
sS'group'
p54
(ischedule
Group
p55
(dp56
g8
g9
sS'name'
p57
S'Compilerbouw2'
p58
sbsS'room'
p59
(iread_data
Room
p60
(dp61
g52
S'56'
p62
sg57
S'A1.10'
p63
sbsS'ttype'
p64
S'tutorials'
p65
sS'group_id'
p66
S'2'
p67
sg57
S'Compilerbouw'
p68
sba(ischedule
Activity
p69
(dp70
g8
(lp71
S'96453361'
p72
aS'42196732'
p73
aS'21964491'
p74
aS'54026378'
p75
aS'14591033'
p76
aS'56749879'
p77
aS'79617364'
p78
aS'74131924'
p79
aS'81200278'
p80
aS'22731474'
p81
aS'30050930'
p82
aS'56815156'
p83
aS'89985072'
p84
aS'73236988'
p85
aS'24613625'
p86
asg52
S'20'
p87
sg54
(ischedule
Group
p88
(dp89
g8
g71
sg57
S'Bioinformatica2'
p90
sbsg59
(iread_data
Room
p91
(dp92
g52
S'48'
p93
sg57
S'B0.201'
p94
sbsg64
S'labs'
p95
sg66
g67
sg57
S'Bioinformatica'
p96
sba(ischedule
Activity
p97
(dp98
g8
(lp99
S'32044893'
p100
aS'60352393'
p101
aS'22826928'
p102
aS'60661905'
p103
aS'27370083'
p104
aS'92778619'
p105
aS'78136904'
p106
aS'57086672'
p107
aS'51415617'
p108
aS'77392404'
p109
aS'43680781'
p110
aS'36785409'
p111
aS'41578612'
p112
aS'51052738'
p113
aS'99453514'
p114
aS'87830198'
p115
aS'37110913'
p116
aS'82390428'
p117
aS'42406214'
p118
aS'3685034'
p119
aS'70844780'
p120
aS'27805666'
p121
aS'13718298'
p122
aS'33776961'
p123
aS'20239127'
p124
aS'5298748'
p125
aS'20095994'
p126
aS'61518436'
p127
aS'4709948'
p128
aS'36213792'
p129
aS'90474003'
p130
aS'6913074'
p131
aS'59753700'
p132
aS'84524083'
p133
aS'13658563'
p134
aS'96554914'
p135
aS'22871048'
p136
aS'54569540'
p137
aS'77960666'
p138
aS'70193386'
p139
aS'84449005'
p140
aS'27950803'
p141
aS'99975346'
p142
aS'49922855'
p143
aS'52715680'
p144
aS'37399898'
p145
aS'24277163'
p146
aS'68286356'
p147
aS'38296757'
p148
aS'86988337'
p149
aS'13092455'
p150
asg52
I1000
sg54
Nsg59
(iread_data
Room
p151
(dp152
g52
S'60'
p153
sg57
S'C1.112'
p154
sbsg64
S'lectures'
p155
sg66
I0
sg57
S'Reflectie op de digitale cultuur'
p156
sba(ischedule
Activity
p157
(dp158
g8
(lp159
S'26406342'
p160
aS'5517869'
p161
aS'50143947'
p162
aS'22699561'
p163
aS'48601268'
p164
asg52
S'20'
p165
sg54
(ischedule
Group
p166
(dp167
g8
g159
sg57
S'Collectieve Intelligentie4'
p168
sbsg59
(iread_data
Room
p169
(dp170
g52
S'22'
p171
sg57
S'A1.06'
p172
sbsg64
g65
sg66
S'4'
p173
sg57
S'Collectieve Intelligentie'
p174
sba(ischedule
Activity
p175
(dp176
g8
(lp177
S'82689818'
p178
aS'43902015'
p179
aS'91527663'
p180
aS'58592894'
p181
aS'27298319'
p182
aS'64947290'
p183
aS'41527759'
p184
aS'53585410'
p185
aS'44828429'
p186
aS'26260141'
p187
aS'34765676'
p188
aS'67817269'
p189
aS'40343779'
p190
aS'36903574'
p191
aS'19540225'
p192
aS'15902055'
p193
aS'23652927'
p194
aS'14671406'
p195
aS'41585485'
p196
asg52
S'25'
p197
sg54
(ischedule
Group
p198
(dp199
g8
g177
sg57
S'Algoritmen en complexiteit2'
p200
sbsg59
(iread_data
Room
p201
(dp202
g52
S'20'
p203
sg57
S'A1.08'
p204
sbsg64
g65
sg66
g67
sg57
S'Algoritmen en complexiteit'
p205
sba(ischedule
Activity
p206
(dp207
g8
(lp208
S'75521763'
p209
aS'13116738'
p210
aS'23983476'
p211
aS'17496687'
p212
aS'75585647'
p213
aS'32204977'
p214
ag25
aS'36748818'
p215
aS'70878567'
p216
aS'44901052'
p217
aS'19958553'
p218
aS'23257088'
p219
aS'58332004'
p220
aS'29718115'
p221
aS'92977271'
p222
ag134
aS'18266644'
p223
aS'11459236'
p224
aS'62701040'
p225
aS'77636749'
p226
aS'8557857'
p227
asg52
I1000
sg54
Nsg59
(iread_data
Room
p228
(dp229
g52
S'117'
p230
sg57
S'C0.110'
p231
sbsg64
g155
sg66
I0
sg57
S'Informatie- en organsatieontwerp'
p232
sba(ischedule
Activity
p233
(dp234
g8
(lp235
S'39230359'
p236
aS'5615125'
p237
aS'14847953'
p238
aS'72577292'
p239
aS'89180944'
p240
aS'53202517'
p241
aS'40434933'
p242
aS'27064249'
p243
aS'78243495'
p244
aS'43460038'
p245
aS'6249823'
p246
aS'14303208'
p247
aS'33877725'
p248
aS'3474870'
p249
aS'94930277'
p250
aS'10698627'
p251
aS'28358060'
p252
aS'67073567'
p253
aS'66034145'
p254
aS'1137946'
p255
aS'76903244'
p256
asg52
S'20'
p257
sg54
(ischedule
Group
p258
(dp259
g8
g235
sg57
S'Webprogrammeren en databases2'
p260
sbsg59
(iread_data
Room
p261
(dp262
g52
S'41'
p263
sg57
S'A1.04'
p264
sbsg64
g95
sg66
g67
sg57
S'Webprogrammeren en databases'
p265
sbaa(lp266
(ischedule
Activity
p267
(dp268
g8
(lp269
g73
ag79
aS'29526540'
p270
aS'11068043'
p271
aS'33930505'
p272
ag77
aS'21029457'
p273
ag76
aS'59544049'
p274
aS'247918'
p275
aS'28359697'
p276
aS'77831658'
p277
ag102
ag78
ag216
aS'58522654'
p278
ag110
ag74
ag81
ag131
ag248
ag85
aS'7308727'
p279
aS'14816774'
p280
ag83
aS'4568018'
p281
aS'15051051'
p282
aS'30195935'
p283
aS'20883994'
p284
aS'44868097'
p285
ag241
aS'3168419'
p286
ag125
aS'6723948'
p287
aS'66120270'
p288
aS'85335143'
p289
aS'88176729'
p290
aS'96054456'
p291
aS'64600457'
p292
ag80
ag86
ag75
ag84
ag82
ag72
asg52
I1000
sg54
Nsg59
(iread_data
Room
p293
(dp294
g52
g153
sg57
g154
sbsg64
g155
sg66
I0
sg57
g96
sba(ischedule
Activity
p295
(dp296
g8
g9
sg52
S'40'
p297
sg54
g55
sg59
(iread_data
Room
p298
(dp299
g52
g230
sg57
g231
sbsg64
g95
sg66
g67
sg57
g68
sba(ischedule
Activity
p300
(dp301
g8
(lp302
S'31897288'
p303
aS'22323043'
p304
aS'75997788'
p305
aS'11996292'
p306
aS'58736785'
p307
aS'61060652'
p308
ag209
ag116
aS'4783858'
p309
ag136
aS'66122625'
p310
aS'48357272'
p311
ag191
aS'97417002'
p312
aS'4353500'
p313
aS'42171678'
p314
aS'98105190'
p315
aS'97019450'
p316
aS'14138904'
p317
aS'20830477'
p318
aS'76393508'
p319
ag217
aS'57467488'
p320
ag222
aS'53775014'
p321
aS'19858730'
p322
aS'14941752'
p323
aS'81218347'
p324
aS'1696500'
p325
aS'45660925'
p326
aS'71839156'
p327
aS'59075181'
p328
ag250
aS'86807027'
p329
aS'53107172'
p330
aS'20331158'
p331
aS'79879876'
p332
asg52
S'25'
p333
sg54
(ischedule
Group
p334
(dp335
g8
g302
sg57
S'Heuristieken 12'
p336
sbsg59
(iread_data
Room
p337
(dp338
g52
g263
sg57
g264
sbsg64
g65
sg66
g67
sg57
S'Heuristieken 1'
p339
sba(ischedule
Activity
p340
(dp341
g8
(lp342
S'5368702'
p343
aS'64768422'
p344
ag145
ag238
aS'4546613'
p345
aS'93566383'
p346
ag188
aS'28055464'
p347
aS'21677389'
p348
aS'69634191'
p349
aS'20374340'
p350
aS'76661016'
p351
ag80
aS'76924297'
p352
ag254
aS'19214659'
p353
aS'23547619'
p354
aS'3707829'
p355
aS'2550487'
p356
aS'38179241'
p357
aS'81385263'
p358
ag186
aS'65675896'
p359
aS'37701751'
p360
aS'81155296'
p361
asg52
I1000
sg54
Nsg59
(iread_data
Room
p362
(dp363
g52
g93
sg57
g94
sbsg64
g155
sg66
I0
sg57
S'Interactie-ontwerp'
p364
sba(ischedule
Activity
p365
(dp366
g8
(lp367
g193
aS'9332762'
p368
aS'29640619'
p369
ag225
aS'22288615'
p370
aS'94467156'
p371
aS'46701583'
p372
ag220
aS'79167252'
p373
aS'63096281'
p374
aS'88519892'
p375
aS'61443567'
p376
aS'88597745'
p377
ag219
aS'12782624'
p378
asg52
S'20'
p379
sg54
(ischedule
Group
p380
(dp381
g8
g367
sg57
S'Programmeren in Java 22'
p382
sbsg59
(iread_data
Room
p383
(dp384
g52
g62
sg57
g63
sbsg64
g95
sg66
g67
sg57
S'Programmeren in Java 2'
p385
sba(ischedule
Activity
p386
(dp387
g8
(lp388
S'91196968'
p389
aS'52311353'
p390
aS'51566595'
p391
ag162
aS'97136582'
p392
ag210
aS'17823206'
p393
aS'45414528'
p394
aS'87900893'
p395
aS'93023961'
p396
aS'98780382'
p397
asg52
S'10'
p398
sg54
(ischedule
Group
p399
(dp400
g8
g388
sg57
S'Data Mining1'
p401
sbsg59
(iread_data
Room
p402
(dp403
g52
g171
sg57
g172
sbsg64
g95
sg66
S'1'
p404
sg57
S'Data Mining'
p405
sba(ischedule
Activity
p406
(dp407
g8
(lp408
g138
asg52
g379
sg54
(ischedule
Group
p409
(dp410
g8
g408
sg57
S'Programmeren in Java 26'
p411
sbsg59
(iread_data
Room
p412
(dp413
g52
g203
sg57
g204
sbsg64
g95
sg66
S'6'
p414
sg57
g385
sbaa(lp415
(ischedule
Activity
p416
(dp417
g8
(lp418
g85
ag47
aS'77376714'
p419
ag17
ag30
ag141
ag35
ag50
aS'99283252'
p420
aS'78443067'
p421
aS'65318664'
p422
aS'62356458'
p423
ag390
ag311
ag136
aS'84110134'
p424
aS'73302736'
p425
ag271
ag122
aS'42115591'
p426
aS'68409833'
p427
aS'52552718'
p428
ag184
ag290
aS'41153310'
p429
aS'62105897'
p430
ag84
aS'37744525'
p431
aS'31103066'
p432
aS'70015932'
p433
ag345
aS'28357474'
p434
aS'3727435'
p435
aS'31247305'
p436
ag308
aS'58074656'
p437
aS'25106480'
p438
ag309
aS'14072826'
p439
aS'27582862'
p440
ag187
ag144
ag304
ag240
aS'21095566'
p441
aS'44671041'
p442
aS'89338938'
p443
aS'5976174'
p444
aS'83210352'
p445
aS'80709893'
p446
aS'37830626'
p447
ag371
ag274
aS'31633723'
p448
ag244
ag164
ag135
ag190
aS'51593625'
p449
ag285
asg52
S'40'
p450
sg54
(ischedule
Group
p451
(dp452
g8
g418
sg57
S'Software engineering2'
p453
sbsg59
(iread_data
Room
p454
(dp455
g52
g153
sg57
g154
sbsg64
g65
sg66
g67
sg57
S'Software engineering'
p456
sba(ischedule
Activity
p457
(dp458
g8
(lp459
g73
aS'64296965'
p460
aS'34773179'
p461
ag146
aS'45556081'
p462
ag161
aS'87758823'
p463
ag13
ag209
aS'51741554'
p464
aS'64393888'
p465
ag178
aS'35330349'
p466
aS'31416266'
p467
aS'13534377'
p468
aS'43027916'
p469
ag150
ag369
aS'77240949'
p470
ag434
ag225
ag279
aS'86000192'
p471
ag278
aS'96104167'
p472
aS'46052388'
p473
ag314
ag193
aS'29474737'
p474
aS'54310617'
p475
ag27
aS'97135019'
p476
ag330
ag163
aS'1075391'
p477
aS'1665980'
p478
aS'3233378'
p479
aS'57595888'
p480
ag239
aS'33760909'
p481
ag74
ag50
aS'64228258'
p482
ag164
ag309
ag354
ag438
aS'73980360'
p483
ag376
aS'76123484'
p484
ag160
ag368
ag39
ag162
aS'68601184'
p485
ag325
aS'50184318'
p486
ag11
aS'17575088'
p487
ag41
aS'17222374'
p488
asg52
I1000
sg54
Nsg59
(iread_data
Room
p489
(dp490
g52
g230
sg57
g231
sbsg64
g155
sg66
I0
sg57
g174
sba(ischedule
Activity
p491
(dp492
g8
(lp493
S'23215240'
p494
ag191
aS'58040377'
p495
aS'37279234'
p496
aS'73196865'
p497
aS'55474917'
p498
aS'66433883'
p499
ag131
aS'58469172'
p500
aS'2416751'
p501
aS'51791169'
p502
aS'99272880'
p503
aS'39905995'
p504
ag291
aS'64053722'
p505
ag103
aS'48503689'
p506
asg52
g379
sg54
(ischedule
Group
p507
(dp508
g8
g493
sg57
S'Programmeren in Java 21'
p509
sbsg59
(iread_data
Room
p510
(dp511
g52
g263
sg57
g264
sbsg64
g95
sg66
g404
sg57
g385
sba(ischedule
Activity
p512
(dp513
g8
(lp514
S'8522855'
p515
aS'82066165'
p516
ag86
aS'86180471'
p517
ag352
ag372
aS'55480737'
p518
ag140
aS'75680261'
p519
asg52
S'15'
p520
sg54
(ischedule
Group
p521
(dp522
g8
g514
sg57
S'Project Genetic Algorithms3'
p523
sbsg59
(iread_data
Room
p524
(dp525
g52
g62
sg57
g63
sbsg64
g95
sg66
S'3'
p526
sg57
S'Project Genetic Algorithms'
p527
sbaa(lp528
(ischedule
Activity
p529
(dp530
g8
(lp531
g292
ag285
ag311
ag131
ag181
ag273
aS'12091019'
p532
ag287
aS'47477884'
p533
ag78
ag430
ag305
aS'65408517'
p534
aS'47932106'
p535
aS'79888156'
p536
aS'14179347'
p537
ag213
aS'77306636'
p538
ag517
ag291
aS'65978354'
p539
aS'46570285'
p540
aS'23628642'
p541
aS'55530367'
p542
aS'34173695'
p543
ag29
aS'55412918'
p544
ag500
aS'56544130'
p545
ag309
aS'6939933'
p546
aS'40141996'
p547
ag76
aS'56872729'
p548
ag280
aS'33672995'
p549
aS'31306819'
p550
aS'9731271'
p551
aS'59220392'
p552
aS'11593163'
p553
aS'74182182'
p554
aS'19717077'
p555
aS'53139134'
p556
ag46
ag185
aS'73823548'
p557
aS'24875739'
p558
ag425
aS'93361408'
p559
aS'78735049'
p560
ag182
ag289
aS'94686490'
p561
aS'80188025'
p562
aS'88855695'
p563
ag357
aS'3678531'
p564
aS'75446434'
p565
asg52
S'40'
p566
sg54
(ischedule
Group
p567
(dp568
g8
g531
sg57
S'Calculus 23'
p569
sbsg59
(iread_data
Room
p570
(dp571
g52
g230
sg57
g231
sbsg64
g65
sg66
g526
sg57
S'Calculus 2'
p572
sba(ischedule
Activity
p573
(dp574
g8
(lp575
g132
aS'13996448'
p576
ag396
ag389
aS'68360259'
p577
ag74
ag390
aS'19337738'
p578
ag80
ag310
ag216
ag431
ag391
ag114
ag304
ag79
aS'81022997'
p579
ag394
ag393
aS'25330192'
p580
aS'87314964'
p581
ag162
ag116
ag397
ag392
ag395
ag210
asg52
I1000
sg54
Nsg59
(iread_data
Room
p582
(dp583
g52
g263
sg57
g264
sbsg64
g155
sg66
I0
sg57
g405
sba(ischedule
Activity
p584
(dp585
g8
g235
sg52
S'20'
p586
sg54
g258
sg59
(iread_data
Room
p587
(dp588
g52
g62
sg57
g63
sbsg64
g65
sg66
g67
sg57
g265
sba(ischedule
Activity
p589
(dp590
g8
(lp591
g209
ag354
ag225
ag178
ag150
ag41
ag471
ag73
ag279
ag368
ag475
ag470
ag330
ag468
ag472
ag486
ag278
ag463
ag369
ag467
ag465
ag461
asg52
g165
sg54
(ischedule
Group
p592
(dp593
g8
g591
sg57
S'Collectieve Intelligentie2'
p594
sbsg59
(iread_data
Room
p595
(dp596
g52
g93
sg57
g94
sbsg64
g65
sg66
g67
sg57
g174
sba(ischedule
Activity
p597
(dp598
g8
(lp599
g376
ag481
ag460
ag146
ag50
ag482
ag314
ag466
ag479
ag438
ag11
ag39
ag434
ag474
ag478
ag469
ag27
ag193
ag484
ag476
ag464
ag487
ag325
ag473
ag74
ag485
ag488
ag483
ag13
ag480
ag477
asg52
g165
sg54
(ischedule
Group
p600
(dp601
g8
g599
sg57
S'Collectieve Intelligentie1'
p602
sbsg59
(iread_data
Room
p603
(dp604
g52
g153
sg57
g154
sbsg64
g65
sg66
g404
sg57
g174
sba(ischedule
Activity
p605
(dp606
g8
(lp607
g112
ag115
aS'66701209'
p608
asg52
g520
sg54
(ischedule
Group
p609
(dp610
g8
g607
sg57
S'Project Genetic Algorithms2'
p611
sbsg59
(iread_data
Room
p612
(dp613
g52
g171
sg57
g172
sbsg64
g95
sg66
g67
sg57
g527
sbaa(lp614
(ischedule
Activity
p615
(dp616
g8
g599
sg52
S'20'
p617
sg54
g600
sg59
(iread_data
Room
p618
(dp619
g52
g230
sg57
g231
sbsg64
g95
sg66
g404
sg57
g174
sba(ischedule
Activity
p620
(dp621
g8
(lp622
g35
ag423
ag391
ag79
ag428
ag427
aS'34806836'
p623
ag26
aS'88627897'
p624
aS'61611295'
p625
aS'70113753'
p626
asg52
S'10'
p627
sg54
(ischedule
Group
p628
(dp629
g8
g622
sg57
S'Autonomous Agents 21'
p630
sbsg59
(iread_data
Room
p631
(dp632
g52
g203
sg57
g204
sbsg64
g95
sg66
g404
sg57
S'Autonomous Agents 2'
p633
sba(ischedule
Activity
p634
(dp635
g8
(lp636
g209
ag25
ag214
ag112
ag116
aS'58565406'
p637
aS'21192048'
p638
ag443
ag289
ag17
aS'10149535'
p639
aS'69086548'
p640
aS'70336464'
p641
ag111
ag28
ag306
aS'97371272'
p642
ag368
ag10
ag23
ag160
ag242
aS'93041523'
p643
ag110
aS'47982619'
p644
aS'7106649'
p645
aS'12430748'
p646
aS'4697362'
p647
ag217
aS'77264363'
p648
ag226
aS'14383795'
p649
aS'76487754'
p650
ag354
ag24
ag246
ag304
aS'92496780'
p651
asg52
I1000
sg54
Nsg59
(iread_data
Room
p652
(dp653
g52
g62
sg57
g63
sbsg64
g155
sg66
I0
sg57
S'Technology for games'
p654
sba(ischedule
Activity
p655
(dp656
g8
(lp657
g216
ag282
ag275
ag279
ag283
ag292
ag274
ag273
ag276
ag285
ag288
ag270
asg52
g87
sg54
(ischedule
Group
p658
(dp659
g8
g657
sg57
S'Bioinformatica1'
p660
sbsg59
(iread_data
Room
p661
(dp662
g52
g171
sg57
g172
sbsg64
g95
sg66
g404
sg57
g96
sba(ischedule
Activity
p663
(dp664
g8
g342
sg52
I1000
sg54
Nsg59
(iread_data
Room
p665
(dp666
g52
g263
sg57
g264
sbsg64
g155
sg66
I0
sg57
g364
sba(ischedule
Activity
p667
(dp668
g8
(lp669
g150
ag130
ag102
ag148
ag131
ag140
ag120
ag135
ag144
ag103
ag119
ag109
ag104
ag128
ag108
ag117
ag107
ag100
ag115
ag129
asg52
S'20'
p670
sg54
(ischedule
Group
p671
(dp672
g8
g669
sg57
S'Reflectie op de digitale cultuur2'
p673
sbsg59
(iread_data
Room
p674
(dp675
g52
g93
sg57
g94
sbsg64
g65
sg66
g67
sg57
g156
sba(ischedule
Activity
p676
(dp677
g8
(lp678
g287
ag34
aS'670011'
p679
ag465
ag551
ag149
ag19
ag449
aS'34262212'
p680
ag33
aS'83415514'
p681
ag77
aS'15249775'
p682
ag394
aS'38499176'
p683
ag389
ag211
aS'73893840'
p684
ag471
aS'10702778'
p685
asg52
g379
sg54
(ischedule
Group
p686
(dp687
g8
g678
sg57
S'Programmeren in Java 24'
p688
sbsg59
(iread_data
Room
p689
(dp690
g52
g153
sg57
g154
sbsg64
g95
sg66
g173
sg57
g385
sbaaa(lp691
(lp692
(ischedule
Activity
p693
(dp694
g8
(lp695
g371
aS'85236626'
p696
aS'90067329'
p697
aS'56988998'
p698
aS'23798155'
p699
ag127
aS'26857113'
p700
ag14
ag282
ag21
ag148
ag431
aS'33252501'
p701
ag22
ag372
aS'67625383'
p702
aS'63111000'
p703
ag444
ag119
ag19
ag470
ag18
asg52
I1000
sg54
Nsg59
(iread_data
Room
p704
(dp705
g52
g93
sg57
g94
sbsg64
g155
sg66
I0
sg57
S'Machine Learning'
p706
sba(ischedule
Activity
p707
(dp708
g8
(lp709
g305
ag16
ag106
ag329
ag238
aS'72683344'
p710
aS'40633534'
p711
ag101
aS'62613937'
p712
aS'28618400'
p713
ag239
aS'39429093'
p714
ag533
aS'72665524'
p715
aS'1886996'
p716
ag120
ag243
ag284
ag354
ag286
asg52
I1000
sg54
Nsg59
(iread_data
Room
p717
(dp718
g52
g62
sg57
g63
sbsg64
g155
sg66
I0
sg57
S'Advanced Heuristics'
p719
sba(ischedule
Activity
p720
(dp721
g8
(lp722
g421
ag419
ag161
ag420
ag17
ag240
ag244
ag123
ag270
ag209
aS'27241113'
p723
aS'51650744'
p724
ag140
aS'59111489'
p725
ag215
ag314
ag486
asg52
S'20'
p726
sg54
(ischedule
Group
p727
(dp728
g8
g722
sg57
S'Moderne Databases1'
p729
sbsg59
(iread_data
Room
p730
(dp731
g52
g203
sg57
g204
sbsg64
g95
sg66
g404
sg57
S'Moderne Databases'
p732
sba(ischedule
Activity
p733
(dp734
g8
(lp735
g484
ag15
ag482
ag107
ag109
ag376
ag179
aS'76648468'
p736
aS'49908313'
p737
aS'69459473'
p738
ag501
aS'53512831'
p739
aS'20618153'
p740
aS'17092717'
p741
ag370
aS'24891081'
p742
aS'16333449'
p743
aS'41790793'
p744
asg52
g257
sg54
(ischedule
Group
p745
(dp746
g8
g735
sg57
S'Webprogrammeren en databases1'
p747
sbsg59
(iread_data
Room
p748
(dp749
g52
g171
sg57
g172
sbsg64
g95
sg66
g404
sg57
g265
sba(ischedule
Activity
p750
(dp751
g8
(lp752
g85
ag343
ag141
ag351
ag86
ag133
ag241
ag287
ag278
ag315
ag149
aS'76802764'
p753
ag373
aS'30658799'
p754
aS'80135353'
p755
aS'2317551'
p756
ag506
aS'43689934'
p757
ag608
aS'88636924'
p758
aS'83266686'
p759
ag358
aS'15911353'
p760
aS'44391517'
p761
aS'13911001'
p762
ag563
aS'1766560'
p763
asg52
g53
sg54
(ischedule
Group
p764
(dp765
g8
g752
sg57
S'Compilerbouw1'
p766
sbsg59
(iread_data
Room
p767
(dp768
g52
g263
sg57
g264
sbsg64
g65
sg66
g404
sg57
g68
sba(ischedule
Activity
p769
(dp770
g8
(lp771
g289
ag242
ag639
ag116
ag24
ag160
ag110
ag25
ag368
ag650
ag217
ag648
ag28
ag304
ag647
ag246
ag306
ag643
ag640
ag443
ag638
ag642
ag644
ag10
ag641
ag651
ag111
asg52
S'20'
p772
sg54
(ischedule
Group
p773
(dp774
g8
g771
sg57
S'Technology for games2'
p775
sbsg59
(iread_data
Room
p776
(dp777
g52
g153
sg57
g154
sbsg64
g65
sg66
g67
sg57
g654
sba(ischedule
Activity
p778
(dp779
g8
(lp780
g309
ag239
ag462
asg52
g617
sg54
(ischedule
Group
p781
(dp782
g8
g780
sg57
S'Collectieve Intelligentie3'
p783
sbsg59
g618
sg64
g95
sg66
g526
sg57
g174
sbaa(lp784
(ischedule
Activity
p785
(dp786
g8
(lp787
S'26172512'
p788
ag327
aS'62872965'
p789
aS'58866007'
p790
aS'23565001'
p791
aS'79937969'
p792
ag498
ag324
aS'66570705'
p793
ag639
aS'34588570'
p794
ag76
ag10
ag390
aS'32595335'
p795
ag145
aS'94955328'
p796
ag112
ag561
ag427
aS'16011419'
p797
ag743
aS'21311067'
p798
ag12
ag346
ag308
ag446
aS'96118484'
p799
ag463
ag358
ag249
ag78
ag389
ag13
aS'90743504'
p800
ag554
ag548
aS'4921119'
p801
aS'16097870'
p802
ag161
ag11
ag73
aS'54074680'
p803
aS'36527838'
p804
ag426
ag445
ag466
ag467
ag544
ag683
ag679
aS'80998260'
p805
aS'75005528'
p806
aS'36508571'
p807
asg52
I1000
sg54
Nsg59
(iread_data
Room
p808
(dp809
g52
g62
sg57
g63
sbsg64
g155
sg66
I0
sg57
S'Lineaire Algebra'
p810
sba(ischedule
Activity
p811
(dp812
g8
(lp813
g242
ag270
ag178
ag20
ag286
ag275
ag26
aS'59397895'
p814
ag320
ag77
ag280
ag391
aS'5526560'
p815
ag306
ag291
aS'23658570'
p816
ag469
ag484
ag532
aS'78821918'
p817
ag360
aS'58083680'
p818
ag460
aS'25077484'
p819
asg52
S'40'
p820
sg54
(ischedule
Group
p821
(dp822
g8
g813
sg57
S'Databases 22'
p823
sbsg59
(iread_data
Room
p824
(dp825
g52
g153
sg57
g154
sbsg64
g65
sg66
g67
sg57
S'Databases 2'
p826
sba(ischedule
Activity
p827
(dp828
g8
g208
sg52
I1000
sg54
Nsg59
(iread_data
Room
p829
(dp830
g52
g93
sg57
g94
sbsg64
g155
sg66
I0
sg57
g232
sba(ischedule
Activity
p831
(dp832
g8
(lp833
g74
ag80
ag578
ag431
ag579
ag576
ag577
ag310
ag580
ag304
ag581
asg52
g398
sg54
(ischedule
Group
p834
(dp835
g8
g833
sg57
S'Data Mining3'
p836
sbsg59
(iread_data
Room
p837
(dp838
g52
g263
sg57
g264
sbsg64
g95
sg66
g526
sg57
g405
sba(ischedule
Activity
p839
(dp840
g8
(lp841
g115
ag392
aS'59887191'
p842
aS'3883025'
p843
ag464
aS'70939718'
p844
asg52
S'20'
p845
sg54
(ischedule
Group
p846
(dp847
g8
g841
sg57
S'Netwerken en systeembeveiliging4'
p848
sbsg59
(iread_data
Room
p849
(dp850
g52
g171
sg57
g172
sbsg64
g95
sg66
g173
sg57
S'Netwerken en systeembeveiliging'
p851
sba(ischedule
Activity
p852
(dp853
g8
g752
sg52
g297
sg54
g764
sg59
(iread_data
Room
p854
(dp855
g52
g230
sg57
g231
sbsg64
g95
sg66
g404
sg57
g68
sba(ischedule
Activity
p856
(dp857
g8
(lp858
S'47260040'
p859
aS'44151631'
p860
ag649
aS'63634350'
p861
ag160
ag84
aS'1695839'
p862
aS'55103073'
p863
aS'535689'
p864
ag247
ag715
aS'74361881'
p865
ag185
ag271
ag281
aS'25994016'
p866
aS'42297781'
p867
ag144
asg52
S'15'
p868
sg54
(ischedule
Group
p869
(dp870
g8
g858
sg57
S'Compilerbouw practicum3'
p871
sbsg59
(iread_data
Room
p872
(dp873
g52
g203
sg57
g204
sbsg64
g95
sg66
g526
sg57
S'Compilerbouw practicum'
p874
sbaa(lp875
(ischedule
Activity
p876
(dp877
g8
(lp878
g277
ag816
ag122
ag426
ag712
ag83
ag289
ag796
ag103
ag136
aS'5085194'
p879
ag802
ag801
ag549
ag817
aS'34900967'
p880
ag223
ag422
ag311
ag390
aS'72456780'
p881
ag545
aS'78822885'
p882
ag699
ag112
aS'58480929'
p883
ag48
ag139
ag316
aS'83443653'
p884
aS'97838175'
p885
ag115
ag425
ag460
ag111
ag562
aS'82854435'
p886
aS'48678993'
p887
ag107
ag791
aS'14637758'
p888
aS'72586808'
p889
ag469
aS'51542218'
p890
aS'88737765'
p891
aS'73350019'
p892
ag12
aS'18477924'
p893
ag305
asg52
I1000
sg54
Nsg59
(iread_data
Room
p894
(dp895
g52
g62
sg57
g63
sbsg64
g155
sg66
I0
sg57
S'Analysemethoden en -technieken'
p896
sba(ischedule
Activity
p897
(dp898
g8
g459
sg52
I1000
sg54
Nsg59
(iread_data
Room
p899
(dp900
g52
g230
sg57
g231
sbsg64
g155
sg66
I0
sg57
g174
sba(ischedule
Activity
p901
(dp902
g8
(lp903
g119
ag81
ag15
ag646
ag424
ag118
ag546
ag100
ag29
aS'81116418'
p904
aS'34691309'
p905
aS'63573738'
p906
ag713
aS'90103047'
p907
aS'63939720'
p908
aS'40911986'
p909
ag763
ag323
ag85
ag329
aS'37419523'
p910
ag49
ag356
ag10
aS'19662602'
p911
ag506
asg52
S'15'
p912
sg54
(ischedule
Group
p913
(dp914
g8
g903
sg57
S'Project Numerical Recipes3'
p915
sbsg59
(iread_data
Room
p916
(dp917
g52
g153
sg57
g154
sbsg64
g95
sg66
g526
sg57
S'Project Numerical Recipes'
p918
sba(ischedule
Activity
p919
(dp920
g8
(lp921
S'14398123'
p922
ag109
ag431
aS'64246605'
p923
ag80
aS'62363761'
p924
ag715
aS'56121590'
p925
ag272
ag328
aS'12170832'
p926
ag120
ag217
ag313
asg52
g845
sg54
(ischedule
Group
p927
(dp928
g8
g921
sg57
S'Netwerken en systeembeveiliging3'
p929
sbsg59
(iread_data
Room
p930
(dp931
g52
g171
sg57
g172
sbsg64
g95
sg66
g526
sg57
g851
sba(ischedule
Activity
p932
(dp933
g8
(lp934
g245
ag248
ag75
ag498
ag369
aS'82872148'
p935
ag479
aS'1048485'
p936
aS'9287708'
p937
ag637
ag534
ag195
aS'45915482'
p938
ag162
ag281
asg52
g450
sg54
(ischedule
Group
p939
(dp940
g8
g934
sg57
S'Software engineering1'
p941
sbsg59
(iread_data
Room
p942
(dp943
g52
g263
sg57
g264
sbsg64
g65
sg66
g404
sg57
g456
sba(ischedule
Activity
p944
(dp945
g8
g622
sg52
S'10'
p946
sg54
g628
sg59
(iread_data
Room
p947
(dp948
g52
g93
sg57
g94
sbsg64
g65
sg66
g404
sg57
g633
sbaa(lp949
(ischedule
Activity
p950
(dp951
g8
(lp952
g280
aS'49631542'
p953
ag242
ag547
aS'26207525'
p954
ag881
ag138
ag360
ag291
ag391
aS'70072978'
p955
ag306
ag183
ag557
ag150
aS'54540997'
p956
aS'4529208'
p957
ag469
ag286
ag73
aS'62736669'
p958
ag741
ag19
ag679
ag801
ag533
aS'56191333'
p959
ag517
ag460
ag146
ag816
ag817
ag160
ag179
ag219
ag818
ag220
ag149
ag879
aS'15187217'
p960
ag20
ag180
ag270
aS'27123462'
p961
ag814
ag815
ag29
ag535
ag806
ag890
ag178
ag77
ag101
ag925
ag532
aS'13132925'
p962
ag548
ag181
ag161
ag275
aS'83869542'
p963
ag320
ag484
ag11
ag488
ag428
ag51
ag819
ag561
ag369
ag130
ag26
asg52
I1000
sg54
Nsg59
(iread_data
Room
p964
(dp965
g52
g230
sg57
g231
sbsg64
g155
sg66
I0
sg57
g826
sba(ischedule
Activity
p966
(dp967
g8
(lp968
g482
ag237
ag243
ag247
ag715
ag476
ag187
aS'10609762'
p969
ag496
ag395
aS'78544592'
p970
ag471
ag495
aS'28957789'
p971
ag372
aS'22168693'
p972
ag421
ag759
ag481
ag193
ag802
ag924
aS'32705005'
p973
ag148
aS'82412626'
p974
ag18
aS'61520025'
p975
ag345
ag681
aS'58253841'
p976
ag361
ag639
aS'75623387'
p977
aS'6709529'
p978
ag844
ag373
aS'87602030'
p979
aS'72526473'
p980
ag791
ag329
ag351
ag464
ag938
aS'58699305'
p981
aS'56348773'
p982
asg52
g566
sg54
(ischedule
Group
p983
(dp984
g8
g968
sg57
S'Calculus 21'
p985
sbsg59
(iread_data
Room
p986
(dp987
g52
g93
sg57
g94
sbsg64
g65
sg66
g404
sg57
g572
sba(ischedule
Activity
p988
(dp989
g8
g269
sg52
I1000
sg54
Nsg59
(iread_data
Room
p990
(dp991
g52
g153
sg57
g154
sbsg64
g155
sg66
I0
sg57
g96
sba(ischedule
Activity
p992
(dp993
g8
(lp994
g25
ag222
ag134
ag209
ag217
ag212
ag214
ag215
ag218
ag224
ag225
ag223
ag213
ag226
asg52
S'15'
p995
sg54
(ischedule
Group
p996
(dp997
g8
g994
sg57
S'Informatie- en organsatieontwerp1'
p998
sbsg59
(iread_data
Room
p999
(dp1000
g52
g62
sg57
g63
sbsg64
g65
sg66
g404
sg57
g232
sba(ischedule
Activity
p1001
(dp1002
g8
(lp1003
S'51673172'
p1004
ag516
asg52
g868
sg54
(ischedule
Group
p1005
(dp1006
g8
g1003
sg57
S'Compilerbouw practicum1'
p1007
sbsg59
(iread_data
Room
p1008
(dp1009
g52
g263
sg57
g264
sbsg64
g95
sg66
g404
sg57
g874
sba(ischedule
Activity
p1010
(dp1011
g8
g780
sg52
g165
sg54
g781
sg59
(iread_data
Room
p1012
(dp1013
g52
g171
sg57
g172
sbsg64
g65
sg66
g526
sg57
g174
sbaa(lp1014
(ischedule
Activity
p1015
(dp1016
g8
(lp1017
g72
ag144
ag211
ag106
ag15
ag74
ag24
ag249
ag515
ag358
ag162
aS'64554442'
p1018
ag320
aS'51509565'
p1019
ag478
ag419
aS'88596522'
p1020
ag391
ag149
ag441
ag444
ag372
ag499
ag355
asg52
S'25'
p1021
sg54
(ischedule
Group
p1022
(dp1023
g8
g1017
sg57
S'Algoritmen en complexiteit1'
p1024
sbsg59
(iread_data
Room
p1025
(dp1026
g52
g93
sg57
g94
sbsg64
g95
sg66
g404
sg57
g205
sba(ischedule
Activity
p1027
(dp1028
g8
g177
sg52
g1021
sg54
g198
sg59
(iread_data
Room
p1029
(dp1030
g52
g153
sg57
g154
sbsg64
g95
sg66
g67
sg57
g205
sba(ischedule
Activity
p1031
(dp1032
g8
g787
sg52
I1000
sg54
Nsg59
(iread_data
Room
p1033
(dp1034
g52
g62
sg57
g63
sbsg64
g155
sg66
I0
sg57
g810
sba(ischedule
Activity
p1035
(dp1036
g8
g994
sg52
S'15'
p1037
sg54
g996
sg59
(iread_data
Room
p1038
(dp1039
g52
g230
sg57
g231
sbsg64
g95
sg66
g404
sg57
g232
sba(ischedule
Activity
p1040
(dp1041
g8
(lp1042
g216
ag116
ag132
ag114
ag79
asg52
g398
sg54
(ischedule
Group
p1043
(dp1044
g8
g1042
sg57
S'Data Mining2'
p1045
sbsg59
(iread_data
Room
p1046
(dp1047
g52
g263
sg57
g264
sbsg64
g95
sg66
g67
sg57
g405
sba(ischedule
Activity
p1048
(dp1049
g8
(lp1050
g110
ag289
ag102
ag131
ag241
ag277
ag248
ag287
ag290
ag280
ag284
ag125
ag281
ag272
ag286
ag291
ag271
ag278
asg52
S'20'
p1051
sg54
(ischedule
Group
p1052
(dp1053
g8
g1050
sg57
S'Bioinformatica3'
p1054
sbsg59
(iread_data
Room
p1055
(dp1056
g52
g203
sg57
g204
sbsg64
g65
sg66
g526
sg57
g96
sba(ischedule
Activity
p1057
(dp1058
g8
g695
sg52
I1000
sg54
Nsg59
(iread_data
Room
p1059
(dp1060
g52
g171
sg57
g172
sbsg64
g155
sg66
I0
sg57
g706
sbaaa(lp1061
(lp1062
(ischedule
Activity
p1063
(dp1064
g8
(lp1065
g802
ag116
ag75
ag136
ag182
ag322
asg52
g946
sg54
(ischedule
Group
p1066
(dp1067
g8
g1065
sg57
S'Autonomous Agents 23'
p1068
sbsg59
g618
sg64
g65
sg66
g526
sg57
g633
sba(ischedule
Activity
p1069
(dp1070
g8
g1050
sg52
g87
sg54
g1052
sg59
(iread_data
Room
p1071
(dp1072
g52
g62
sg57
g63
sbsg64
g95
sg66
g526
sg57
g96
sba(ischedule
Activity
p1073
(dp1074
g8
g1017
sg52
g197
sg54
g1022
sg59
g665
sg64
g65
sg66
g404
sg57
g205
sba(ischedule
Activity
p1075
(dp1076
g8
(lp1077
g801
ag219
ag220
ag806
ag548
ag161
ag561
ag73
ag679
ag11
ag160
ag149
ag956
ag953
ag19
ag179
ag488
ag146
ag959
ag130
ag51
ag535
ag138
ag180
ag960
ag962
ag957
ag890
ag958
ag547
ag428
ag150
ag961
ag533
ag183
ag181
ag369
ag881
ag879
ag557
ag955
ag925
ag101
ag517
ag29
ag963
ag741
ag954
asg52
g820
sg54
(ischedule
Group
p1078
(dp1079
g8
g1077
sg57
S'Databases 21'
p1080
sbsg59
(iread_data
Room
p1081
(dp1082
g52
g153
sg57
g154
sbsg64
g65
sg66
g404
sg57
g826
sba(ischedule
Activity
p1083
(dp1084
g8
(lp1085
g713
ag239
ag710
ag462
aS'13798030'
p1086
ag21
ag178
ag242
ag331
ag20
ag790
ag639
ag240
ag699
ag317
ag221
ag433
ag759
aS'59289233'
p1087
aS'27925117'
p1088
ag245
asg52
I1000
sg54
Nsg59
(iread_data
Room
p1089
(dp1090
g52
g93
sg57
g94
sbsg64
g155
sg66
I0
sg57
S'Architectuur en computerorganisatie'
p1091
sba(ischedule
Activity
p1092
(dp1093
g8
g657
sg52
g1051
sg54
g658
sg59
(iread_data
Room
p1094
(dp1095
g52
g203
sg57
g204
sbsg64
g65
sg66
g404
sg57
g96
sba(ischedule
Activity
p1096
(dp1097
g8
(lp1098
g354
ag17
ag637
ag645
ag209
ag112
ag649
ag226
ag23
ag646
ag214
asg52
g772
sg54
(ischedule
Group
p1099
(dp1100
g8
g1098
sg57
S'Technology for games1'
p1101
sbsg59
(iread_data
Room
p1102
(dp1103
g52
g171
sg57
g172
sbsg64
g65
sg66
g404
sg57
g654
sbaa(lp1104
(ischedule
Activity
p1105
(dp1106
g8
(lp1107
g278
ag640
ag81
aS'79366078'
p1108
ag642
ag328
aS'63408522'
p1109
aS'91139627'
p1110
ag551
ag133
ag371
ag191
aS'39919665'
p1111
ag683
ag316
aS'79858178'
p1112
ag953
ag389
aS'82688900'
p1113
ag424
aS'7492204'
p1114
ag226
aS'51186803'
p1115
ag861
aS'38329455'
p1116
ag236
ag426
aS'47605891'
p1117
ag331
ag971
ag77
ag448
aS'47462856'
p1118
ag796
ag393
aS'37498675'
p1119
ag500
ag699
ag119
ag76
ag46
ag560
ag343
ag498
ag352
ag237
ag18
ag443
ag284
ag196
ag195
ag475
ag184
ag680
ag503
ag223
ag436
ag558
ag35
ag922
ag274
aS'44940353'
p1120
ag973
aS'72547110'
p1121
ag291
ag106
ag554
aS'10872825'
p1122
aS'63955238'
p1123
ag698
ag12
ag220
aS'23391676'
p1124
ag460
aS'39659121'
p1125
ag127
ag470
ag137
ag540
ag515
ag324
ag890
aS'65003379'
p1126
ag124
asg52
I1000
sg54
Nsg59
(iread_data
Room
p1127
(dp1128
g52
g230
sg57
g231
sbsg64
g155
sg66
I0
sg57
S'Kansrekenen 2'
p1129
sba(ischedule
Activity
p1130
(dp1131
g8
g459
sg52
I1000
sg54
Nsg59
(iread_data
Room
p1132
(dp1133
g52
g153
sg57
g154
sbsg64
g155
sg66
I0
sg57
g174
sba(ischedule
Activity
p1134
(dp1135
g8
g1042
sg52
S'10'
p1136
sg54
g1043
sg59
(iread_data
Room
p1137
(dp1138
g52
g263
sg57
g264
sbsg64
g65
sg66
g67
sg57
g405
sbaa(lp1139
(ischedule
Activity
p1140
(dp1141
g8
g99
sg52
I1000
sg54
Nsg59
(iread_data
Room
p1142
(dp1143
g52
g230
sg57
g231
sbsg64
g155
sg66
I0
sg57
g156
sba(ischedule
Activity
p1144
(dp1145
g8
(lp1146
g421
ag305
aS'49219163'
p1147
ag240
ag215
ag970
ag25
ag759
ag181
aS'96082155'
p1148
ag763
ag110
ag486
aS'41489515'
p1149
ag540
ag681
aS'66621166'
p1150
ag244
ag804
ag1118
ag270
aS'1181560'
p1151
ag45
ag282
ag955
ag817
ag488
ag419
ag289
ag209
ag220
ag292
ag703
aS'27916487'
p1152
ag762
aS'18144425'
p1153
ag146
ag123
ag314
aS'48198668'
p1154
ag306
ag161
ag754
ag17
ag843
ag725
ag420
ag128
ag981
ag723
ag140
ag724
ag953
aS'13218321'
p1155
asg52
I1000
sg54
Nsg59
(iread_data
Room
p1156
(dp1157
g52
g62
sg57
g63
sbsg64
g155
sg66
I0
sg57
g732
sba(ischedule
Activity
p1158
(dp1159
g8
g388
sg52
g1136
sg54
g399
sg59
(iread_data
Room
p1160
(dp1161
g52
g263
sg57
g264
sbsg64
g65
sg66
g404
sg57
g405
sba(ischedule
Activity
p1162
(dp1163
g8
(lp1164
g178
ag551
aS'16912993'
p1165
ag906
ag325
ag190
aS'19058315'
p1166
ag12
ag683
ag713
ag515
ag887
ag223
aS'25557516'
p1167
ag476
ag27
aS'123355'
p1168
ag283
asg52
g845
sg54
(ischedule
Group
p1169
(dp1170
g8
g1164
sg57
S'Netwerken en systeembeveiliging2'
p1171
sbsg59
(iread_data
Room
p1172
(dp1173
g52
g203
sg57
g204
sbsg64
g95
sg66
g67
sg57
g851
sba(ischedule
Activity
p1174
(dp1175
g8
g71
sg52
g1051
sg54
g88
sg59
(iread_data
Room
p1176
(dp1177
g52
g153
sg57
g154
sbsg64
g65
sg66
g67
sg57
g96
sba(ischedule
Activity
p1178
(dp1179
g8
(lp1180
g279
ag423
ag579
ag557
ag554
aS'32183908'
p1181
asg52
g912
sg54
(ischedule
Group
p1182
(dp1183
g8
g1180
sg57
S'Project Numerical Recipes2'
p1184
sbsg59
(iread_data
Room
p1185
(dp1186
g52
g171
sg57
g172
sbsg64
g95
sg66
g67
sg57
g918
sbaa(lp1187
(ischedule
Activity
p1188
(dp1189
g8
(lp1190
g757
ag761
ag49
ag755
ag85
ag762
ag12
ag50
ag17
ag287
ag358
ag14
ag373
ag32
ag13
ag39
ag343
ag760
ag20
ag46
ag30
ag608
ag51
ag10
ag758
ag29
ag141
ag33
ag351
ag41
ag31
ag48
ag24
ag563
ag506
ag21
ag86
ag43
ag44
ag11
ag133
ag22
ag35
ag756
ag38
ag23
ag19
ag25
ag28
ag753
ag18
ag754
ag759
ag47
ag37
ag149
ag27
ag315
ag40
ag15
ag45
ag16
ag278
ag26
ag241
ag42
ag34
ag36
ag763
asg52
I1000
sg54
Nsg59
(iread_data
Room
p1191
(dp1192
g52
g230
sg57
g231
sbsg64
g155
sg66
I0
sg57
g68
sba(ischedule
Activity
p1193
(dp1194
g8
(lp1195
g323
ag303
ag310
ag304
ag136
ag331
ag318
ag305
ag76
ag306
ag329
ag325
ag77
ag332
ag322
ag317
ag191
ag313
ag312
ag307
ag321
ag308
ag250
ag316
ag315
ag217
aS'87210640'
p1196
ag209
ag314
ag326
ag280
ag311
ag320
ag116
ag327
ag134
ag222
ag309
ag324
ag328
ag884
ag319
ag330
ag281
asg52
I1000
sg54
Nsg59
(iread_data
Room
p1197
(dp1198
g52
g93
sg57
g94
sbsg64
g155
sg66
I0
sg57
g339
sba(ischedule
Activity
p1199
(dp1200
g8
(lp1201
g219
ag220
ag211
ag216
ag210
ag227
ag221
asg52
g995
sg54
(ischedule
Group
p1202
(dp1203
g8
g1201
sg57
S'Informatie- en organsatieontwerp2'
p1204
sbsg59
(iread_data
Room
p1205
(dp1206
g52
g171
sg57
g172
sbsg64
g65
sg66
g67
sg57
g232
sba(ischedule
Activity
p1207
(dp1208
g8
(lp1209
g74
ag196
ag644
ag251
ag102
ag393
ag185
ag440
ag356
ag1124
ag183
ag292
ag626
asg52
g379
sg54
(ischedule
Group
p1210
(dp1211
g8
g1209
sg57
S'Programmeren in Java 23'
p1212
sbsg59
(iread_data
Room
p1213
(dp1214
g52
g62
sg57
g63
sbsg64
g95
sg66
g526
sg57
g385
sba(ischedule
Activity
p1215
(dp1216
g8
(lp1217
g81
ag391
ag861
ag802
ag107
ag1088
ag376
ag244
ag481
ag679
ag495
ag80
ag696
ag133
aS'72652638'
p1218
ag188
asg52
S'20'
p1219
sg54
(ischedule
Group
p1220
(dp1221
g8
g1217
sg57
S'Heuristieken 21'
p1222
sbsg59
(iread_data
Room
p1223
(dp1224
g52
g263
sg57
g264
sbsg64
g65
sg66
g404
sg57
S'Heuristieken 2'
p1225
sba(ischedule
Activity
p1226
(dp1227
g8
(lp1228
g106
ag716
ag284
ag710
ag713
ag239
ag715
ag120
ag238
ag714
asg52
S'10'
p1229
sg54
(ischedule
Group
p1230
(dp1231
g8
g1228
sg57
S'Advanced Heuristics1'
p1232
sbsg59
(iread_data
Room
p1233
(dp1234
g52
g203
sg57
g204
sbsg64
g95
sg66
g404
sg57
g719
sba(ischedule
Activity
p1235
(dp1236
g8
g159
sg52
g617
sg54
g166
sg59
(iread_data
Room
p1237
(dp1238
g52
g153
sg57
g154
sbsg64
g95
sg66
g173
sg57
g174
sbaa(lp1239
(ischedule
Activity
p1240
(dp1241
g8
g1201
sg52
g1037
sg54
g1202
sg59
(iread_data
Room
p1242
(dp1243
g52
g62
sg57
g63
sbsg64
g95
sg66
g67
sg57
g232
sba(ischedule
Activity
p1244
(dp1245
g8
g1190
sg52
I1000
sg54
Nsg59
(iread_data
Room
p1246
(dp1247
g52
g230
sg57
g231
sbsg64
g155
sg66
I0
sg57
g68
sba(ischedule
Activity
p1248
(dp1249
g8
(lp1250
g128
asg52
g726
sg54
(ischedule
Group
p1251
(dp1252
g8
g1250
sg57
S'Moderne Databases3'
p1253
sbsg59
(iread_data
Room
p1254
(dp1255
g52
g93
sg57
g94
sbsg64
g95
sg66
g526
sg57
g732
sba(ischedule
Activity
p1256
(dp1257
g8
g833
sg52
g1136
sg54
g834
sg59
(iread_data
Room
p1258
(dp1259
g52
g263
sg57
g264
sbsg64
g65
sg66
g526
sg57
g405
sba(ischedule
Activity
p1260
(dp1261
g8
(lp1262
g116
ag136
ag110
ag126
ag127
ag112
ag142
ag101
ag132
ag121
ag106
ag137
ag134
ag139
ag113
ag125
ag147
ag146
asg52
g670
sg54
(ischedule
Group
p1263
(dp1264
g8
g1262
sg57
S'Reflectie op de digitale cultuur1'
p1265
sbsg59
(iread_data
Room
p1266
(dp1267
g52
g153
sg57
g154
sbsg64
g65
sg66
g404
sg57
g156
sba(ischedule
Activity
p1268
(dp1269
g8
g722
sg52
S'20'
p1270
sg54
g727
sg59
(iread_data
Room
p1271
(dp1272
g52
g203
sg57
g204
sbsg64
g65
sg66
g404
sg57
g732
sba(ischedule
Activity
p1273
(dp1274
g8
g934
sg52
S'40'
p1275
sg54
g939
sg59
(iread_data
Room
p1276
(dp1277
g52
g171
sg57
g172
sbsg64
g95
sg66
g404
sg57
g456
sbaaa(lp1278
(lp1279
(ischedule
Activity
p1280
(dp1281
g8
(lp1282
g76
ag77
ag280
ag281
ag134
ag884
ag1196
asg52
g333
sg54
(ischedule
Group
p1283
(dp1284
g8
g1282
sg57
S'Heuristieken 11'
p1285
sbsg59
(iread_data
Room
p1286
(dp1287
g52
g171
sg57
g172
sbsg64
g65
sg66
g404
sg57
g339
sba(ischedule
Activity
p1288
(dp1289
g8
(lp1290
g469
aS'52304977'
p1291
ag495
ag142
ag679
ag188
ag376
ag716
ag682
aS'82968410'
p1292
ag81
aS'35315956'
p1293
ag645
ag802
ag887
ag481
ag107
ag444
ag963
ag979
aS'5739011'
p1294
ag1088
ag391
ag133
ag244
ag80
ag861
ag307
ag696
ag579
ag1218
ag303
asg52
I1000
sg54
Nsg59
(iread_data
Room
p1295
(dp1296
g52
g93
sg57
g94
sbsg64
g155
sg66
I0
sg57
g1225
sba(ischedule
Activity
p1297
(dp1298
g8
(lp1299
g759
ag763
ag45
ag762
ag220
ag754
ag25
ag110
ag703
ag1155
ag817
ag1150
ag305
ag1153
ag146
ag953
ag1118
ag540
ag181
ag1154
ag289
ag282
ag681
ag1148
ag1151
ag488
ag804
ag843
ag1149
ag955
ag1147
ag292
ag1152
ag981
ag970
ag306
asg52
g1270
sg54
(ischedule
Group
p1300
(dp1301
g8
g1299
sg57
S'Moderne Databases2'
p1302
sbsg59
(iread_data
Room
p1303
(dp1304
g52
g62
sg57
g63
sbsg64
g65
sg66
g67
sg57
g732
sba(ischedule
Activity
p1305
(dp1306
g8
(lp1307
g161
ag19
ag807
ag789
ag217
asg52
g627
sg54
(ischedule
Group
p1308
(dp1309
g8
g1307
sg57
S'Autonomous Agents 22'
p1310
sbsg59
(iread_data
Room
p1311
(dp1312
g52
g263
sg57
g264
sbsg64
g95
sg66
g67
sg57
g633
sba(ischedule
Activity
p1313
(dp1314
g8
g1250
sg52
g1270
sg54
g1251
sg59
(iread_data
Room
p1315
(dp1316
g52
g203
sg57
g204
sbsg64
g65
sg66
g526
sg57
g732
sba(ischedule
Activity
p1317
(dp1318
g8
(lp1319
g935
ag443
ag369
ag439
ag429
ag309
ag426
ag244
ag187
ag434
ag445
ag75
ag427
ag290
ag449
ag135
ag50
ag436
ag184
ag345
ag304
ag441
ag195
ag190
ag308
ag444
ag162
ag498
ag433
ag534
ag447
ag285
ag425
ag144
ag936
ag164
ag421
ag245
ag938
ag424
ag420
ag435
ag448
ag390
ag84
ag479
ag35
ag85
ag423
ag442
ag30
ag141
ag281
ag17
ag122
ag637
ag422
ag248
ag371
ag438
ag240
ag431
ag440
ag430
ag419
ag432
ag136
ag311
ag428
ag274
ag271
ag937
ag47
ag446
ag437
asg52
I1000
sg54
Nsg59
(iread_data
Room
p1320
(dp1321
g52
g230
sg57
g231
sbsg64
g155
sg66
I0
sg57
g456
sba(ischedule
Activity
p1322
(dp1323
g8
g575
sg52
I1000
sg54
Nsg59
(iread_data
Room
p1324
(dp1325
g52
g153
sg57
g154
sbsg64
g155
sg66
I0
sg57
g405
sbaa(lp1326
(ischedule
Activity
p1327
(dp1328
g8
(lp1329
g974
ag541
ag545
ag309
ag476
ag287
ag639
ag280
ag802
ag565
ag237
ag292
ag979
ag351
ag976
ag969
ag181
ag372
ag357
ag791
ag76
ag971
ag543
ag542
ag291
ag559
ag533
ag345
ag970
ag550
ag556
ag500
ag563
ag495
ag535
ag759
ag243
ag1088
ag361
ag182
ag544
ag329
ag539
ag534
ag532
ag185
ag564
ag193
ag471
ag187
ag430
ag549
ag924
ag977
ag482
ag29
ag395
ag247
ag18
ag537
ag421
ag373
ag517
ag464
ag561
ag46
ag425
ag861
ag555
ag562
ag311
ag540
ag289
ag560
ag546
ag558
ag975
ag213
ag681
ag536
ag551
ag554
ag553
ag547
ag305
ag938
ag273
ag538
ag496
ag552
ag981
ag78
ag148
ag557
ag481
ag285
ag715
ag973
ag816
ag131
ag844
ag982
ag980
ag972
ag548
ag978
asg52
I1000
sg54
Nsg59
(iread_data
Room
p1330
(dp1331
g52
g230
sg57
g231
sbsg64
g155
sg66
I0
sg57
g572
sba(ischedule
Activity
p1332
(dp1333
g8
(lp1334
g241
ag743
ag370
ag247
ag744
ag245
ag239
ag249
ag238
ag484
ag246
ag109
ag376
ag107
ag251
ag738
ag741
ag740
ag252
ag739
ag737
ag256
ag243
ag236
ag244
ag248
ag255
ag482
ag250
ag237
ag179
ag240
ag742
ag242
ag736
ag501
ag15
ag253
ag254
asg52
I1000
sg54
Nsg59
(iread_data
Room
p1335
(dp1336
g52
g263
sg57
g264
sbsg64
g155
sg66
I0
sg57
g265
sba(ischedule
Activity
p1337
(dp1338
g8
(lp1339
g279
ag101
ag580
ag959
ag936
ag958
ag954
ag128
ag579
ag889
ag881
ag369
aS'53267490'
p1340
ag36
aS'5590289'
p1341
ag358
ag864
ag288
ag348
aS'85284256'
p1342
ag320
ag23
ag935
ag191
ag49
ag436
asg52
g845
sg54
(ischedule
Group
p1343
(dp1344
g8
g1339
sg57
S'Netwerken en systeembeveiliging1'
p1345
sbsg59
(iread_data
Room
p1346
(dp1347
g52
g93
sg57
g94
sbsg64
g95
sg66
g404
sg57
g851
sba(ischedule
Activity
p1348
(dp1349
g8
(lp1350
g105
ag143
ag111
ag122
ag114
ag149
ag133
ag118
ag145
ag138
ag123
ag124
ag141
asg52
g670
sg54
(ischedule
Group
p1351
(dp1352
g8
g1350
sg57
S'Reflectie op de digitale cultuur3'
p1353
sbsg59
(iread_data
Room
p1354
(dp1355
g52
g153
sg57
g154
sbsg64
g65
sg66
g526
sg57
g156
sba(ischedule
Activity
p1356
(dp1357
g8
(lp1358
g427
ag26
ag423
ag182
ag116
ag35
ag161
ag623
ag807
ag802
ag624
ag322
ag75
ag79
ag626
ag391
ag789
ag136
ag428
ag19
ag217
ag625
asg52
I1000
sg54
Nsg59
(iread_data
Room
p1359
(dp1360
g52
g171
sg57
g172
sbsg64
g155
sg66
I0
sg57
g633
sba(ischedule
Activity
p1361
(dp1362
g8
(lp1363
g150
ag443
ag277
ag13
ag576
ag50
ag27
ag806
ag353
ag271
ag37
aS'21070547'
p1364
asg52
g912
sg54
(ischedule
Group
p1365
(dp1366
g8
g1363
sg57
S'Project Numerical Recipes1'
p1367
sbsg59
(iread_data
Room
p1368
(dp1369
g52
g203
sg57
g204
sbsg64
g95
sg66
g404
sg57
g918
sba(ischedule
Activity
p1370
(dp1371
g8
(lp1372
g359
ag317
aS'5892092'
p1373
ag683
ag879
ag503
ag327
ag214
ag38
ag224
aS'91250534'
p1374
ag762
ag1020
ag162
ag480
ag478
aS'64418623'
p1375
aS'51472074'
p1376
ag494
aS'41644639'
p1377
asg52
g868
sg54
(ischedule
Group
p1378
(dp1379
g8
g1372
sg57
S'Compilerbouw practicum2'
p1380
sbsg59
(iread_data
Room
p1381
(dp1382
g52
g62
sg57
g63
sbsg64
g95
sg66
g67
sg57
g874
sbaa(lp1383
(ischedule
Activity
p1384
(dp1385
g8
g636
sg52
I1000
sg54
Nsg59
(iread_data
Room
p1386
(dp1387
g52
g263
sg57
g264
sbsg64
g155
sg66
I0
sg57
g654
sba(ischedule
Activity
p1388
(dp1389
g8
(lp1390
g72
ag391
ag249
ag182
ag441
ag444
ag195
ag499
ag179
ag372
ag478
ag419
ag193
ag183
ag149
ag189
ag162
ag194
ag1019
ag196
ag1018
ag191
ag24
ag185
ag358
ag181
ag192
ag187
ag188
ag515
ag15
ag178
ag144
ag184
ag180
ag190
ag74
ag355
ag186
ag106
ag211
ag1020
ag320
asg52
I1000
sg54
Nsg59
(iread_data
Room
p1391
(dp1392
g52
g62
sg57
g63
sbsg64
g155
sg66
I0
sg57
g205
sba(ischedule
Activity
p1393
(dp1394
g8
(lp1395
g346
ag27
ag329
ag485
ag816
ag761
ag442
ag430
ag955
ag316
ag576
ag533
ag1342
ag105
ag467
ag936
ag429
ag128
ag332
ag36
aS'88263855'
p1396
ag1114
ag564
ag222
ag11
ag740
ag861
ag796
ag18
ag318
ag145
ag431
ag700
ag696
ag755
ag123
aS'28943658'
p1397
aS'7386961'
p1398
ag703
aS'90296821'
p1399
ag756
ag880
aS'54395877'
p1400
ag801
asg52
g379
sg54
(ischedule
Group
p1401
(dp1402
g8
g1395
sg57
S'Programmeren in Java 25'
p1403
sbsg59
(iread_data
Room
p1404
(dp1405
g52
g230
sg57
g231
sbsg64
g95
sg66
S'5'
p1406
sg57
g385
sba(ischedule
Activity
p1407
(dp1408
g8
g269
sg52
I1000
sg54
Nsg59
(iread_data
Room
p1409
(dp1410
g52
g93
sg57
g94
sbsg64
g155
sg66
I0
sg57
g96
sba(ischedule
Activity
p1411
(dp1412
g8
(lp1413
g438
ag461
ag815
ag141
ag41
ag738
ag979
ag922
ag1377
ag866
ag537
ag817
ag1004
ag711
ag420
ag351
ag1088
ag865
ag427
ag819
ag891
ag976
ag371
ag887
asg52
g520
sg54
(ischedule
Group
p1414
(dp1415
g8
g1413
sg57
S'Project Genetic Algorithms1'
p1416
sbsg59
(iread_data
Room
p1417
(dp1418
g52
g153
sg57
g154
sbsg64
g95
sg66
g404
sg57
g527
sbaa(lp1419
(ischedule
Activity
p1420
(dp1421
g8
(lp1422
g16
ag329
ag305
ag533
ag243
ag286
ag101
ag711
ag354
ag712
asg52
g1229
sg54
(ischedule
Group
p1423
(dp1424
g8
g1422
sg57
S'Advanced Heuristics2'
p1425
sbsg59
(iread_data
Room
p1426
(dp1427
g52
g93
sg57
g94
sbsg64
g95
sg66
g67
sg57
g719
sba(ischedule
Activity
p1428
(dp1429
g8
g1107
sg52
I1000
sg54
Nsg59
(iread_data
Room
p1430
(dp1431
g52
g230
sg57
g231
sbsg64
g155
sg66
I0
sg57
g1129
sba(ischedule
Activity
p1432
(dp1433
g8
g1358
sg52
I1000
sg54
Nsg59
(iread_data
Room
p1434
(dp1435
g52
g263
sg57
g264
sbsg64
g155
sg66
I0
sg57
g633
sba(ischedule
Activity
p1436
(dp1437
g8
g735
sg52
g586
sg54
g745
sg59
(iread_data
Room
p1438
(dp1439
g52
g203
sg57
g204
sbsg64
g65
sg66
g404
sg57
g265
sba(ischedule
Activity
p1440
(dp1441
g8
g1085
sg52
I1000
sg54
Nsg59
(iread_data
Room
p1442
(dp1443
g52
g153
sg57
g154
sbsg64
g155
sg66
I0
sg57
g1091
sba(ischedule
Activity
p1444
(dp1445
g8
(lp1446
g716
ag307
ag303
ag579
ag1292
ag1293
ag963
ag142
ag887
ag444
ag682
ag469
ag1294
ag1291
ag979
ag645
asg52
g1219
sg54
(ischedule
Group
p1447
(dp1448
g8
g1446
sg57
S'Heuristieken 22'
p1449
sbsg59
(iread_data
Room
p1450
(dp1451
g52
g171
sg57
g172
sbsg64
g65
sg66
g67
sg57
g1225
sbaa(lp1452
(ischedule
Activity
p1453
(dp1454
g8
g418
sg52
g1275
sg54
g451
sg59
(iread_data
Room
p1455
(dp1456
g52
g230
sg57
g231
sbsg64
g95
sg66
g67
sg57
g456
sba(ischedule
Activity
p1457
(dp1458
g8
g1334
sg52
I1000
sg54
Nsg59
(iread_data
Room
p1459
(dp1460
g52
g62
sg57
g63
sbsg64
g155
sg66
I0
sg57
g265
sba(ischedule
Activity
p1461
(dp1462
g8
g1299
sg52
g726
sg54
g1300
sg59
(iread_data
Room
p1463
(dp1464
g52
g153
sg57
g154
sbsg64
g95
sg66
g67
sg57
g732
sba(ischedule
Activity
p1465
(dp1466
g8
g1065
sg52
g627
sg54
g1066
sg59
(iread_data
Room
p1467
(dp1468
g52
g203
sg57
g204
sbsg64
g95
sg66
g526
sg57
g633
sba(ischedule
Activity
p1469
(dp1470
g8
g591
sg52
g617
sg54
g592
sg59
(iread_data
Room
p1471
(dp1472
g52
g263
sg57
g264
sbsg64
g95
sg66
g67
sg57
g174
sba(ischedule
Activity
p1473
(dp1474
g8
(lp1475
g1088
ag861
ag816
asg52
g566
sg54
(ischedule
Group
p1476
(dp1477
g8
g1475
sg57
S'Calculus 22'
p1478
sbsg59
(iread_data
Room
p1479
(dp1480
g52
g171
sg57
g172
sbsg64
g65
sg66
g67
sg57
g572
sba(ischedule
Activity
p1481
(dp1482
g8
g1307
sg52
g946
sg54
g1308
sg59
(iread_data
Room
p1483
(dp1484
g52
g93
sg57
g94
sbsg64
g65
sg66
g67
sg57
g633
sbaaa(lp1485
(lp1486
a(lp1487
a(lp1488
a(lp1489
a(lp1490
aasS'timeslot_dict'
p1491
(dp1492
I0
S'9:00-11:00'
p1493
sI1
S'11:00-13:00'
p1494
sI2
S'13:00-15:00'
p1495
sI3
S'15:00-17:00'
p1496
sI4
S'17:00-19:00'
p1497
ssS'day_dict'
p1498
(dp1499
I0
S'Monday'
p1500
sI1
S'Tuesday'
p1501
sI2
S'Wednesday'
p1502
sI3
S'Thursday'
p1503
sI4
S'Friday'
p1504
ssb.