(ischedule
Schedule
p0
(dp1
S'timetable'
p2
(lp3
(lp4
(lp5
(ischedule
Activity
p6
(dp7
S'participants'
p8
(lp9
S'74131924'
p10
aS'28359697'
p11
aS'21029457'
p12
aS'56815156'
p13
aS'11068043'
p14
aS'54026378'
p15
aS'81200278'
p16
aS'6913074'
p17
aS'53202517'
p18
aS'70878567'
p19
aS'88176729'
p20
aS'14591033'
p21
aS'79617364'
p22
aS'21964491'
p23
aS'64600457'
p24
aS'58522654'
p25
aS'24613625'
p26
aS'56749879'
p27
aS'6723948'
p28
aS'42196732'
p29
aS'73236988'
p30
aS'5298748'
p31
aS'22826928'
p32
aS'7308727'
p33
aS'85335143'
p34
aS'14816774'
p35
aS'4568018'
p36
aS'30195935'
p37
aS'3168419'
p38
aS'30050930'
p39
aS'44868097'
p40
aS'33877725'
p41
aS'33930505'
p42
aS'22731474'
p43
aS'96054456'
p44
aS'15051051'
p45
aS'77831658'
p46
aS'29526540'
p47
aS'247918'
p48
aS'96453361'
p49
aS'43680781'
p50
aS'20883994'
p51
aS'66120270'
p52
aS'59544049'
p53
aS'89985072'
p54
asS'capacity'
p55
I1000
sS'name'
p56
S'Bioinformatica'
p57
sS'ttype'
p58
S'lectures'
p59
sS'group_id'
p60
I0
sS'room'
p61
(iread_data
Room
p62
(dp63
g55
S'60'
p64
sg56
S'C1.112'
p65
sbsba(ischedule
Activity
p66
(dp67
g8
(lp68
S'7957843'
p69
ag43
aS'13092455'
p70
aS'12430748'
p71
aS'48308205'
p72
aS'74182182'
p73
aS'42778953'
p74
aS'86291592'
p75
ag46
aS'81116418'
p76
aS'2550487'
p77
aS'63939720'
p78
ag30
aS'34691309'
p79
aS'75005528'
p80
aS'62356458'
p81
aS'88752563'
p82
aS'6939933'
p83
aS'90103047'
p84
aS'89338938'
p85
asg55
S'15'
p86
sg56
S'Project Numerical Recipes'
p87
sg58
S'labs'
p88
sg60
S'1'
p89
sg61
(iread_data
Room
p90
(dp91
g55
S'22'
p92
sg56
S'A1.06'
p93
sbsba(ischedule
Activity
p94
(dp95
g8
(lp96
S'75521763'
p97
aS'14941752'
p98
aS'92977271'
p99
aS'53107172'
p100
aS'37110913'
p101
aS'48357272'
p102
aS'19858730'
p103
aS'61060652'
p104
aS'11996292'
p105
aS'97019450'
p106
aS'98105190'
p107
aS'97417002'
p108
aS'13658563'
p109
aS'42171678'
p110
aS'94930277'
p111
aS'83443653'
p112
aS'4783858'
p113
aS'66122625'
p114
aS'1696500'
p115
aS'31897288'
p116
aS'53775014'
p117
aS'20331158'
p118
asg55
S'25'
p119
sg56
S'Heuristieken 1'
p120
sg58
S'tutorials'
p121
sg60
S'2'
p122
sg61
(iread_data
Room
p123
(dp124
g55
S'41'
p125
sg56
S'A1.04'
p126
sbsba(ischedule
Activity
p127
(dp128
g8
(lp129
g15
ag18
ag24
ag30
ag33
ag36
ag39
ag45
ag52
ag53
ag28
ag49
ag16
asg55
S'20'
p130
sg56
g57
sg58
g121
sg60
S'3'
p131
sg61
(iread_data
Room
p132
(dp133
g55
S'48'
p134
sg56
S'B0.201'
p135
sbsba(ischedule
Activity
p136
(dp137
g8
(lp138
S'86000192'
p139
ag27
aS'2317551'
p140
aS'64947290'
p141
aS'17823206'
p142
aS'47477884'
p143
aS'79879876'
p144
ag77
ag106
aS'44391517'
p145
aS'29640619'
p146
aS'60661905'
p147
aS'58469172'
p148
aS'94687383'
p149
aS'61443567'
p150
aS'88597745'
p151
aS'3678531'
p152
aS'83415514'
p153
aS'13996448'
p154
asg55
S'20'
p155
sg56
S'Programmeren in Java 2'
p156
sg58
g88
sg60
g122
sg61
(iread_data
Room
p157
(dp158
g55
S'20'
p159
sg56
S'A1.08'
p160
sbsba(ischedule
Activity
p161
(dp162
g8
(lp163
S'1048485'
p164
aS'45915482'
p165
ag54
aS'21095566'
p166
aS'78443067'
p167
aS'41153310'
p168
aS'27950803'
p169
ag85
aS'89180944'
p170
aS'5976174'
p171
aS'9287708'
p172
aS'96554914'
p173
aS'95631564'
p174
aS'55474917'
p175
aS'65318664'
p176
aS'26260141'
p177
aS'60312776'
p178
ag15
aS'52715680'
p179
aS'84110134'
p180
aS'77376714'
p181
aS'70015932'
p182
aS'65408517'
p183
ag104
aS'43460038'
p184
aS'68409833'
p185
aS'99283252'
p186
aS'50143947'
p187
ag30
aS'52552718'
p188
ag14
aS'48601268'
p189
ag41
aS'3727435'
p190
ag102
aS'58565406'
p191
ag40
aS'62105897'
p192
ag113
aS'44671041'
p193
aS'80709893'
p194
aS'27582862'
p195
asg55
S'40'
p196
sg56
S'Software engineering'
p197
sg58
g121
sg60
g89
sg61
(iread_data
Room
p198
(dp199
g55
S'56'
p200
sg56
S'A1.10'
p201
sbsba(ischedule
Activity
p202
(dp203
g8
(lp204
S'51566595'
p205
aS'88627897'
p206
aS'72796858'
p207
aS'5517869'
p208
ag188
aS'70113753'
p209
aS'27298319'
p210
aS'44901052'
p211
asg55
S'10'
p212
sg56
S'Autonomous Agents 2'
p213
sg58
g121
sg60
g131
sg61
(iread_data
Room
p214
(dp215
g55
S'117'
p216
sg56
S'C0.110'
p217
sbsbaa(lp218
(ischedule
Activity
p219
(dp220
g8
(lp221
g82
aS'13284244'
p222
aS'84524083'
p223
aS'30658799'
p224
aS'79167252'
p225
aS'2079771'
p226
aS'34872117'
p227
aS'80135353'
p228
ag107
aS'68315599'
p229
ag72
aS'75599734'
p230
aS'31194811'
p231
ag207
ag25
aS'34243356'
p232
aS'39459642'
p233
aS'8464817'
p234
aS'65852230'
p235
aS'11915563'
p236
ag28
aS'14309255'
p237
aS'37770881'
p238
ag30
aS'15911353'
p239
ag75
aS'77896638'
p240
aS'75759231'
p241
ag140
aS'83266686'
p242
aS'13911001'
p243
aS'43689934'
p244
ag18
aS'48503689'
p245
aS'3407554'
p246
aS'72895450'
p247
aS'27187154'
p248
aS'76661016'
p249
aS'46989508'
p250
aS'76802764'
p251
aS'54772132'
p252
ag145
aS'88636924'
p253
aS'10792879'
p254
aS'1766560'
p255
aS'5595824'
p256
ag74
aS'86988337'
p257
aS'79033175'
p258
aS'65960683'
p259
ag26
ag178
aS'5368702'
p260
aS'9067939'
p261
aS'81385263'
p262
aS'40791377'
p263
ag169
aS'92665222'
p264
aS'12077419'
p265
aS'34110913'
p266
aS'95007221'
p267
ag69
aS'88855695'
p268
aS'66701209'
p269
ag174
aS'11741347'
p270
aS'75664412'
p271
aS'49683101'
p272
ag149
asg55
I1000
sg56
S'Compilerbouw'
p273
sg58
g59
sg60
I0
sg61
(iread_data
Room
p274
(dp275
g55
g125
sg56
g126
sbsba(ischedule
Activity
p276
(dp277
g8
(lp278
S'57086672'
p279
aS'6249823'
p280
aS'41790793'
p281
aS'16333449'
p282
aS'76903244'
p283
aS'66034145'
p284
aS'24891081'
p285
aS'53512831'
p286
aS'49908313'
p287
aS'76648468'
p288
aS'77392404'
p289
ag150
aS'10698627'
p290
aS'27064249'
p291
ag247
ag111
aS'20618153'
p292
aS'3474870'
p293
aS'17092717'
p294
asg55
S'20'
p295
sg56
S'Webprogrammeren en databases'
p296
sg58
g88
sg60
g89
sg61
g62
sba(ischedule
Activity
p297
(dp298
g8
(lp299
S'38499176'
p300
aS'10149535'
p301
ag80
aS'62872965'
p302
aS'41578612'
p303
ag21
aS'80998260'
p304
aS'23565001'
p305
aS'21311067'
p306
aS'83210352'
p307
ag73
aS'36508571'
p308
aS'66570705'
p309
aS'55412918'
p310
ag194
aS'34588570'
p311
aS'56872729'
p312
aS'4921119'
p313
ag185
aS'36527838'
p314
aS'87758823'
p315
aS'16097870'
p316
aS'42115591'
p317
aS'31416266'
p318
aS'58866007'
p319
aS'79937969'
p320
aS'91196968'
p321
aS'81218347'
p322
aS'32595335'
p323
ag72
ag232
ag29
aS'670011'
p324
ag104
ag175
aS'54074680'
p325
aS'16011419'
p326
aS'90743504'
p327
aS'96118484'
p328
ag282
aS'93566383'
p329
aS'26172512'
p330
ag262
aS'35330349'
p331
aS'94686490'
p332
aS'52311353'
p333
ag22
ag240
aS'71839156'
p334
aS'94955328'
p335
ag293
ag74
ag208
aS'37399898'
p336
asg55
I1000
sg56
S'Lineaire Algebra'
p337
sg58
g59
sg60
I0
sg61
(iread_data
Room
p338
(dp339
g55
g92
sg56
g93
sbsba(ischedule
Activity
p340
(dp341
g8
(lp342
S'78822885'
p343
aS'18477924'
p344
aS'33672995'
p345
aS'97838175'
p346
aS'36785409'
p347
aS'87830198'
p348
ag316
aS'48678993'
p349
aS'73350019'
p350
aS'62613937'
p351
aS'73302736'
p352
aS'43027916'
p353
ag333
ag232
ag13
aS'80188025'
p354
aS'22871048'
p355
ag317
aS'5085194'
p356
ag46
ag147
ag106
aS'23658570'
p357
ag303
aS'13718298'
p358
aS'34900967'
p359
aS'58480929'
p360
aS'64296965'
p361
aS'82854435'
p362
ag256
ag335
aS'18266644'
p363
ag34
ag313
ag279
aS'14637758'
p364
aS'51542218'
p365
aS'78821918'
p366
ag305
aS'72586808'
p367
aS'23798155'
p368
aS'72456780'
p369
aS'70193386'
p370
ag102
aS'75997788'
p371
aS'56544130'
p372
ag112
aS'88737765'
p373
ag176
asg55
I1000
sg56
S'Analysemethoden en -technieken'
p374
sg58
g59
sg60
I0
sg61
(iread_data
Room
p375
(dp376
g55
g200
sg56
g201
sbsba(ischedule
Activity
p377
(dp378
g8
(lp379
S'40911986'
p380
ag33
aS'42406214'
p381
aS'73823548'
p382
aS'86807027'
p383
aS'32183908'
p384
ag154
aS'21070547'
p385
ag180
asg55
g86
sg56
g87
sg58
g88
sg60
g122
sg61
(iread_data
Room
p386
(dp387
g55
g159
sg56
g160
sbsba(ischedule
Activity
p388
(dp389
g8
(lp390
g113
ag345
aS'5615125'
p391
aS'14179347'
p392
aS'4546613'
p393
aS'22168693'
p394
aS'56348773'
p395
aS'59220392'
p396
aS'27925117'
p397
aS'15902055'
p398
aS'55530367'
p399
ag316
aS'10609762'
p400
aS'46701583'
p401
aS'53585410'
p402
ag248
aS'14303208'
p403
aS'87602030'
p404
aS'70939718'
p405
ag35
aS'75623387'
p406
ag21
aS'32705005'
p407
aS'47932106'
p408
aS'6709529'
p409
aS'58253841'
p410
ag354
ag291
aS'51741554'
p411
ag383
aS'38296757'
p412
aS'58592894'
p413
aS'12091019'
p414
aS'62363761'
p415
ag24
aS'23628642'
p416
ag192
aS'79888156'
p417
ag268
aS'61520025'
p418
ag143
ag225
asg55
S'40'
p419
sg56
S'Calculus 2'
p420
sg58
g121
sg60
g131
sg61
(iread_data
Room
p421
(dp422
g55
g134
sg56
g135
sbsba(ischedule
Activity
p423
(dp424
g8
(lp425
S'99453514'
p426
ag10
aS'59753700'
p427
ag114
aS'13116738'
p428
ag187
aS'19337738'
p429
ag333
aS'93023961'
p430
ag142
asg55
S'10'
p431
sg56
S'Data Mining'
p432
sg58
g121
sg60
g122
sg61
(iread_data
Room
p433
(dp434
g55
g216
sg56
g217
sbsbaa(lp435
(ischedule
Activity
p436
(dp437
g8
(lp438
S'78243495'
p439
aS'48198668'
p440
aS'3883025'
p441
aS'58699305'
p442
ag229
ag224
ag314
ag270
aS'63111000'
p443
ag243
ag167
aS'50184318'
p444
aS'36748818'
p445
aS'78544592'
p446
aS'13218321'
p447
aS'70072978'
p448
aS'4709948'
p449
asg55
S'20'
p450
sg56
S'Moderne Databases'
p451
sg58
g88
sg60
g122
sg61
g90
sba(ischedule
Activity
p452
(dp453
g8
(lp454
g34
ag332
ag113
ag442
ag225
ag345
ag242
aS'24875739'
p455
ag391
ag371
aS'53139134'
p456
ag392
ag44
ag210
ag393
aS'33760909'
p457
ag165
ag394
aS'97135019'
p458
ag17
ag395
aS'93361408'
p459
aS'58040377'
p460
ag396
aS'38179241'
p461
ag177
ag397
aS'11593163'
p462
ag40
ag398
ag357
ag268
ag399
ag167
aS'86180471'
p463
ag316
ag183
aS'82412626'
p464
ag400
ag310
ag152
ag401
aS'75446434'
p465
aS'31306819'
p466
ag402
aS'81155296'
p467
aS'64228258'
p468
ag248
ag305
ag382
ag403
ag415
ag301
ag404
ag417
ag446
ag405
ag148
ag143
ag352
aS'78735049'
p469
ag73
ag35
aS'77306636'
p470
aS'87900893'
p471
ag406
ag139
ag83
ag21
aS'37279234'
p472
aS'9731271'
p473
ag407
ag416
aS'65978354'
p474
ag408
ag249
ag82
ag409
aS'46570285'
p475
ag418
ag410
ag372
ag28
ag354
aS'72665524'
p476
aS'19717077'
p477
ag291
aS'72526473'
p478
ag102
ag411
ag192
ag12
aS'28957789'
p479
ag24
aS'75585647'
p480
ag383
ag254
aS'34173695'
p481
ag412
ag22
ag312
ag413
aS'40141996'
p482
ag153
ag414
aS'63634350'
p483
asg55
I1000
sg56
g420
sg58
g59
sg60
I0
sg61
(iread_data
Room
p484
(dp485
g55
g64
sg56
g65
sbsba(ischedule
Activity
p486
(dp487
g8
(lp488
g23
aS'36903574'
p489
aS'43902015'
p490
aS'67817269'
p491
aS'91527663'
p492
ag171
aS'23983476'
p493
ag265
aS'23652927'
p494
ag177
aS'40343779'
p495
aS'41585485'
p496
aS'88596522'
p497
aS'82689818'
p498
aS'34765676'
p499
aS'51509565'
p500
aS'8522855'
p501
ag293
aS'3707829'
p502
ag262
aS'66433883'
p503
ag413
ag257
aS'44828429'
p504
ag205
aS'41527759'
p505
asg55
S'25'
p506
sg56
S'Algoritmen en complexiteit'
p507
sg58
g121
sg60
g122
sg61
(iread_data
Room
p508
(dp509
g55
g216
sg56
g217
sbsba(ischedule
Activity
p510
(dp511
g8
(lp512
g164
ag165
ag54
ag166
ag168
ag85
aS'51593625'
p513
ag172
ag173
ag174
ag176
ag355
ag177
ag53
ag178
ag180
ag181
ag104
aS'37744525'
p514
ag184
ag185
ag352
ag187
ag358
ag30
ag188
ag237
ag113
aS'31247305'
p515
ag191
aS'94467156'
p516
ag15
ag192
asg55
S'40'
p517
sg56
g197
sg58
g88
sg60
g89
sg61
(iread_data
Room
p518
(dp519
g55
g125
sg56
g126
sbsba(ischedule
Activity
p520
(dp521
g8
(lp522
g15
ag18
ag21
ag27
ag30
ag36
ag39
ag45
ag48
ag54
ag16
ag12
ag11
ag44
ag41
ag53
asg55
S'20'
p523
sg56
g57
sg58
g88
sg60
g131
sg61
(iread_data
Room
p524
(dp525
g55
g159
sg56
g160
sbsba(ischedule
Activity
p526
(dp527
g8
(lp528
g426
ag101
ag154
ag427
ag321
ag16
ag23
ag514
aS'68360259'
p529
ag114
asg55
S'10'
p530
sg56
g432
sg58
g88
sg60
g122
sg61
(iread_data
Room
p531
(dp532
g55
g134
sg56
g135
sbsba(ischedule
Activity
p533
(dp534
g8
(lp535
g426
ag449
ag169
aS'54569540'
p536
aS'20239127'
p537
aS'24277163'
p538
ag101
aS'49922855'
p539
aS'60352393'
p540
aS'99975346'
p541
ag427
ag32
aS'84449005'
p542
ag17
aS'77960666'
p543
ag347
ag289
ag303
aS'61518436'
p544
ag179
ag147
aS'27370083'
p545
aS'32044893'
p546
ag355
ag336
ag370
aS'20095994'
p547
aS'78136904'
p548
ag358
aS'33776961'
p549
ag412
aS'92778619'
p550
ag223
aS'51052738'
p551
ag279
ag109
aS'36213792'
p552
aS'90474003'
p553
ag70
ag381
aS'3685034'
p554
ag257
ag31
aS'68286356'
p555
aS'27805666'
p556
ag173
aS'51415617'
p557
ag348
ag50
aS'70844780'
p558
aS'82390428'
p559
asg55
I1000
sg56
S'Reflectie op de digitale cultuur'
p560
sg58
g59
sg60
I0
sg61
(iread_data
Room
p561
(dp562
g55
g200
sg56
g201
sbsbaa(lp563
(ischedule
Activity
p564
(dp565
g8
(lp566
g19
aS'77636749'
p567
ag428
aS'32204977'
p568
aS'58332004'
p569
aS'17496687'
p570
aS'19958553'
p571
aS'11459236'
p572
ag109
ag363
ag480
ag229
asg55
S'15'
p573
sg56
S'Informatie- en organsatieontwerp'
p574
sg58
g121
sg60
g89
sg61
(iread_data
Room
p575
(dp576
g55
g200
sg56
g201
sbsba(ischedule
Activity
p577
(dp578
g8
(lp579
S'85284256'
p580
ag245
ag23
ag513
ag175
ag99
ag401
aS'23215240'
p581
ag193
ag335
ag292
ag233
ag496
aS'22288615'
p582
ag357
aS'23391676'
p583
ag460
asg55
g155
sg56
g156
sg58
g88
sg60
S'6'
p584
sg61
(iread_data
Room
p585
(dp586
g55
g64
sg56
g65
sbsba(ischedule
Activity
p587
(dp588
g8
(lp589
g468
ag291
ag18
aS'28358060'
p590
ag403
ag293
ag170
ag247
ag391
ag294
ag286
ag287
ag290
ag289
asg55
S'20'
p591
sg56
g296
sg58
g121
sg60
g122
sg61
(iread_data
Room
p592
(dp593
g55
g92
sg56
g93
sbsba(ischedule
Activity
p594
(dp595
g8
(lp596
g222
ag224
ag226
ag228
ag230
ag207
ag234
ag236
ag30
ag75
ag241
ag244
ag247
ag249
ag251
ag145
ag256
ag257
ag259
ag261
ag263
ag264
ag266
ag270
ag272
ag174
asg55
S'40'
p597
sg56
g273
sg58
g121
sg60
g122
sg61
(iread_data
Room
p598
(dp599
g55
g159
sg56
g160
sbsba(ischedule
Activity
p600
(dp601
g8
(lp602
S'61611295'
p603
ag81
ag205
ag210
ag101
ag206
ag103
ag188
ag10
ag211
ag355
aS'34806836'
p604
ag308
ag185
ag233
ag208
ag209
ag207
ag316
ag236
ag15
ag302
asg55
I1000
sg56
g213
sg58
g59
sg60
I0
sg61
(iread_data
Room
p605
(dp606
g55
g125
sg56
g126
sbsba(ischedule
Activity
p607
(dp608
g8
(lp609
S'14383795'
p610
aS'77264363'
p611
aS'4697362'
p612
ag105
ag237
ag347
aS'21192048'
p613
ag71
ag568
ag303
ag301
ag50
aS'92496780'
p614
aS'22323043'
p615
ag72
ag271
ag231
aS'97371272'
p616
aS'47982619'
p617
ag567
aS'9332762'
p618
ag97
aS'69086548'
p619
ag191
asg55
S'20'
p620
sg56
S'Technology for games'
p621
sg58
g121
sg60
g89
sg61
(iread_data
Room
p622
(dp623
g55
g216
sg56
g217
sbsbaa(lp624
(ischedule
Activity
p625
(dp626
g8
(lp627
g603
ag308
ag316
ag302
ag10
ag233
asg55
g212
sg56
g213
sg58
g121
sg60
g89
sg61
g274
sba(ischedule
Activity
p628
(dp629
g8
(lp630
g222
ag224
ag229
ag230
ag207
ag236
ag237
ag30
ag241
ag242
ag244
ag245
ag247
ag249
ag254
ag256
ag257
ag178
ag261
ag263
ag264
ag270
ag272
ag240
ag140
ag149
ag74
ag223
ag235
ag267
ag265
ag255
ag72
ag225
asg55
S'40'
p631
sg56
g273
sg58
g88
sg60
g122
sg61
(iread_data
Room
p632
(dp633
g55
g159
sg56
g160
sbsba(ischedule
Activity
p634
(dp635
g8
(lp636
S'93041523'
p637
aS'76487754'
p638
ag229
ag101
aS'7106649'
p639
aS'40434933'
p640
ag85
aS'70336464'
p641
aS'23547619'
p642
ag280
ag265
ag34
ag211
aS'26406342'
p643
asg55
g620
sg56
g621
sg58
g121
sg60
g122
sg61
(iread_data
Room
p644
(dp645
g55
g92
sg56
g93
sbsba(ischedule
Activity
p646
(dp647
g8
(lp648
g301
aS'72683344'
p649
aS'28618400'
p650
ag118
ag272
ag182
ag640
ag368
ag498
aS'72577292'
p651
ag397
aS'14138904'
p652
ag170
aS'29718115'
p653
ag184
ag319
ag242
aS'59289233'
p654
aS'45556081'
p655
ag227
aS'13798030'
p656
asg55
I1000
sg56
S'Architectuur en computerorganisatie'
p657
sg58
g59
sg60
I0
sg61
(iread_data
Room
p658
(dp659
g55
g200
sg56
g201
sbsba(ischedule
Activity
p660
(dp661
g8
(lp662
g402
ag28
ag318
ag209
aS'88519892'
p663
aS'68601184'
p664
ag324
ag472
ag543
ag329
ag514
ag300
ag32
aS'20830477'
p665
ag164
ag257
aS'12782624'
p666
ag321
ag483
aS'34262212'
p667
asg55
g155
sg56
g156
sg58
g88
sg60
S'4'
p668
sg61
(iread_data
Room
p669
(dp670
g55
g64
sg56
g65
sbsba(ischedule
Activity
p671
(dp672
g8
(lp673
g568
aS'8557857'
p674
ag569
aS'62701040'
p675
asg55
S'15'
p676
sg56
g574
sg58
g88
sg60
g89
sg61
(iread_data
Room
p677
(dp678
g55
g216
sg56
g217
sbsbaaa(lp679
(lp680
(ischedule
Activity
p681
(dp682
g8
(lp683
g333
ag430
aS'97136582'
p684
ag429
ag426
ag471
ag514
ag101
ag205
ag187
ag19
aS'25330192'
p685
ag321
ag154
ag142
ag529
ag10
aS'98780382'
p686
aS'87314964'
p687
ag427
aS'81022997'
p688
ag23
ag114
aS'45414528'
p689
ag16
ag428
ag615
asg55
I1000
sg56
g432
sg58
g59
sg60
I0
sg61
(iread_data
Room
p690
(dp691
g55
g200
sg56
g201
sbsba(ischedule
Activity
p692
(dp693
g8
(lp694
g493
ag363
ag674
aS'23257088'
p695
ag97
ag229
ag19
ag211
ag567
ag572
ag675
ag570
ag428
ag99
ag445
ag653
ag568
ag109
ag480
ag571
ag569
asg55
I1000
sg56
g574
sg58
g59
sg60
I0
sg61
(iread_data
Room
p696
(dp697
g55
g134
sg56
g135
sbsba(ischedule
Activity
p698
(dp699
g8
(lp700
S'14847953'
p701
ag143
ag540
ag650
ag371
aS'39429093'
p702
ag264
ag642
ag51
ag351
ag291
ag38
ag649
asg55
S'10'
p703
sg56
S'Advanced Heuristics'
p704
sg58
g88
sg60
g89
sg61
(iread_data
Room
p705
(dp706
g55
g125
sg56
g126
sbsba(ischedule
Activity
p707
(dp708
g8
(lp709
g469
ag106
aS'79366078'
p710
aS'38329455'
p711
aS'77240949'
p712
ag43
aS'47462856'
p713
ag44
aS'82688900'
p714
ag73
ag554
ag569
ag391
ag322
ag300
ag616
ag25
ag118
ag407
ag21
ag51
aS'56988998'
p715
aS'49631542'
p716
ag361
aS'7492204'
p717
ag180
ag232
ag496
ag365
aS'37498675'
p718
ag363
aS'63408522'
p719
ag544
aS'47605891'
p720
aS'44940353'
p721
aS'65003379'
p722
ag483
ag501
ag505
ag335
ag236
ag321
ag619
aS'14671406'
p723
ag567
ag516
aS'14398123'
p724
ag537
ag455
ag27
ag85
ag515
aS'31633723'
p725
ag583
aS'76924297'
p726
ag248
ag175
ag260
aS'99272880'
p727
ag489
ag479
ag548
aS'51186803'
p728
aS'59075181'
p729
aS'39659121'
p730
ag667
aS'39230359'
p731
ag317
ag368
aS'54310617'
p732
ag223
ag536
ag148
aS'63955238'
p733
ag142
ag473
ag53
aS'79858178'
p734
aS'91139627'
p735
ag254
ag475
aS'10872825'
p736
aS'72547110'
p737
aS'39919665'
p738
asg55
I1000
sg56
S'Kansrekenen 2'
p739
sg58
g59
sg60
I0
sg61
(iread_data
Room
p740
(dp741
g55
g216
sg56
g217
sbsba(ischedule
Activity
p742
(dp743
g8
(lp744
S'46052388'
p745
ag115
ag458
ag208
ag315
ag113
ag259
ag331
ag651
aS'29474737'
p746
ag642
ag468
ag23
ag178
ag643
aS'25106480'
p747
aS'96104167'
p748
aS'73980360'
p749
ag361
ag675
aS'28357474'
p750
ag110
ag411
ag444
aS'1075391'
p751
ag238
ag97
aS'3233378'
p752
aS'64393888'
p753
ag187
ag146
ag25
ag70
aS'57595888'
p754
ag618
ag33
ag318
ag75
ag664
ag240
ag732
aS'22699561'
p755
ag100
ag139
ag29
aS'13534377'
p756
ag150
aS'17222374'
p757
ag457
ag538
ag498
ag712
ag398
ag655
aS'34773179'
p758
aS'1665980'
p759
ag74
ag353
ag189
aS'17575088'
p760
aS'76123484'
p761
asg55
I1000
sg56
S'Collectieve Intelligentie'
p762
sg58
g59
sg60
I0
sg61
(iread_data
Room
p763
(dp764
g55
g64
sg56
g65
sbsba(ischedule
Activity
p765
(dp766
g8
(lp767
g81
ag101
ag355
ag185
ag209
ag211
ag603
ag302
ag208
ag316
asg55
S'10'
p768
sg56
g213
sg58
g88
sg60
g122
sg61
(iread_data
Room
p769
(dp770
g55
g159
sg56
g160
sbsbaa(lp771
(ischedule
Activity
p772
(dp773
g8
(lp774
g35
aS'4353500'
p775
aS'45660925'
p776
ag371
aS'58736785'
p777
ag36
ag21
ag615
ag729
ag665
ag322
aS'57467488'
p778
ag383
ag652
aS'76393508'
p779
ag355
ag489
ag211
ag27
ag334
aS'87210640'
p780
ag144
asg55
g119
sg56
g120
sg58
g121
sg60
g89
sg61
g62
sba(ischedule
Activity
p781
(dp782
g8
g744
sg55
I1000
sg56
g762
sg58
g59
sg60
I0
sg61
(iread_data
Room
p783
(dp784
g55
g92
sg56
g93
sbsba(ischedule
Activity
p785
(dp786
g8
(lp787
S'56121590'
p788
ag716
ag366
ag408
ag80
aS'15187217'
p789
ag695
ag227
ag208
ag498
aS'54540997'
p790
aS'83869542'
p791
ag482
ag313
ag240
aS'59397895'
p792
ag82
ag492
ag143
ag413
ag357
ag70
ag207
ag543
ag250
aS'26207525'
p793
ag540
asg55
S'40'
p794
sg56
S'Databases 2'
p795
sg58
g121
sg60
g89
sg61
(iread_data
Room
p796
(dp797
g55
g134
sg56
g135
sbsba(ischedule
Activity
p798
(dp799
g8
(lp800
g398
ag759
ag402
ag293
ag401
ag503
ag262
ag166
ag247
ag210
ag778
ag505
ag548
ag501
ag413
ag504
ag723
ag179
ag181
ag494
ag502
ag177
ag492
ag491
aS'19540225'
p801
ag499
asg55
S'25'
p802
sg56
g507
sg58
g88
sg60
g89
sg61
(iread_data
Room
p803
(dp804
g55
g216
sg56
g217
sbsba(ischedule
Activity
p805
(dp806
g8
(lp807
g260
aS'20374340'
p808
aS'69634191'
p809
ag701
ag16
ag329
ag77
ag502
ag499
ag262
ag504
ag336
ag642
aS'64768422'
p810
aS'21677389'
p811
ag249
ag467
ag284
aS'28055464'
p812
ag393
aS'65675896'
p813
aS'19214659'
p814
aS'37701751'
p815
ag461
ag726
asg55
I1000
sg56
S'Interactie-ontwerp'
p816
sg58
g59
sg60
I0
sg61
(iread_data
Room
p817
(dp818
g55
g159
sg56
g160
sbsba(ischedule
Activity
p819
(dp820
g8
(lp821
g778
aS'62736669'
p822
ag414
aS'25077484'
p823
ag47
ag569
ag369
ag356
ag361
ag105
ag44
ag324
aS'5526560'
p824
ag757
ag188
ag448
ag643
aS'4529208'
p825
ag353
ag146
ag294
ag815
aS'58083680'
p826
ag205
aS'56191333'
p827
aS'27123462'
p828
ag463
aS'13132925'
p829
ag38
ag141
ag257
ag233
ag365
ag490
ag382
ag312
ag29
ag27
ag553
ag48
ag538
ag332
ag640
ag761
ag35
asg55
g794
sg56
g795
sg58
g121
sg60
g122
sg61
(iread_data
Room
p830
(dp831
g55
g200
sg56
g201
sbsbaa(lp832
(ischedule
Activity
p833
(dp834
g8
(lp835
g279
aS'67073567'
p836
ag640
ag731
ag651
ag468
ag761
ag41
ag280
ag439
ag281
ag291
ag282
ag18
ag283
ag590
ag284
ag701
ag285
ag582
ag286
aS'69459473'
p837
ag490
ag403
aS'1137946'
p838
ag293
ag287
ag170
ag288
ag292
ag289
ag247
aS'2416751'
p839
ag391
ag150
ag111
ag184
ag294
ag290
asg55
I1000
sg56
g296
sg58
g59
sg60
I0
sg61
(iread_data
Room
p840
(dp841
g55
g64
sg56
g65
sbsba(ischedule
Activity
p842
(dp843
g8
g683
sg55
I1000
sg56
g432
sg58
g59
sg60
I0
sg61
(iread_data
Room
p844
(dp845
g55
g216
sg56
g217
sbsba(ischedule
Activity
p846
(dp847
g8
(lp848
g332
ag456
ag210
ag165
ag17
ag460
ag177
ag40
ag464
ag152
ag466
ag468
ag382
ag301
ag446
ag73
ag471
ag83
ag473
ag474
ag82
ag28
ag477
ag102
ag12
ag480
ag481
ag312
ag153
ag476
ag357
ag242
ag483
ag479
ag459
asg55
g419
sg56
g420
sg58
g121
sg60
g122
sg61
(iread_data
Room
p849
(dp850
g55
g134
sg56
g135
sbsba(ischedule
Activity
p851
(dp852
g8
(lp853
g10
ag13
ag22
ag25
ag31
ag34
ag37
ag40
ag43
ag46
ag42
ag12
ag50
ag41
ag26
asg55
g130
sg56
g57
sg58
g121
sg60
g89
sg61
(iread_data
Room
p854
(dp855
g55
g159
sg56
g160
sbsba(ischedule
Activity
p856
(dp857
g8
(lp858
g401
ag758
ag397
ag726
ag349
ag26
ag392
aS'25994016'
p859
aS'41644639'
p860
ag348
ag824
asg55
S'15'
p861
sg56
S'Project Genetic Algorithms'
p862
sg58
g88
sg60
g131
sg61
(iread_data
Room
p863
(dp864
g55
g125
sg56
g126
sbsbaa(lp865
(ischedule
Activity
p866
(dp867
g8
(lp868
g441
aS'25557516'
p869
aS'59887191'
p870
ag514
ag232
ag449
aS'53267490'
p871
ag69
ag271
ag75
ag729
ag42
ag33
asg55
S'20'
p872
sg56
S'Netwerken en systeembeveiliging'
p873
sg58
g88
sg60
g89
sg61
(iread_data
Room
p874
(dp875
g55
g125
sg56
g126
sbsba(ischedule
Activity
p876
(dp877
g8
(lp878
g187
ag687
ag10
asg55
g530
sg56
g432
sg58
g88
sg60
g89
sg61
(iread_data
Room
p879
(dp880
g55
g159
sg56
g160
sbsba(ischedule
Activity
p881
(dp882
g8
(lp883
g178
ag110
ag238
ag187
ag75
ag755
ag756
ag655
ag468
asg55
S'20'
p884
sg56
g762
sg58
g88
sg60
g122
sg61
(iread_data
Room
p885
(dp886
g55
g64
sg56
g65
sbsba(ischedule
Activity
p887
(dp888
g8
(lp889
g701
ag548
ag143
ag476
aS'1886996'
p890
ag558
ag540
ag702
ag651
ag264
ag650
ag351
ag38
ag649
ag371
ag642
ag51
ag383
ag291
aS'40633534'
p891
asg55
I1000
sg56
g704
sg58
g59
sg60
I0
sg61
(iread_data
Room
p892
(dp893
g55
g216
sg56
g217
sbsba(ischedule
Activity
p894
(dp895
g8
g299
sg55
I1000
sg56
g337
sg58
g59
sg60
I0
sg61
(iread_data
Room
p896
(dp897
g55
g200
sg56
g201
sbsba(ischedule
Activity
p898
(dp899
g8
(lp900
g650
ag814
aS'37419523'
p901
ag554
ag688
aS'63573738'
p902
ag178
aS'19662602'
p903
ag245
ag255
ag98
ag222
ag546
ag247
ag14
asg55
g86
sg56
g87
sg58
g88
sg60
g131
sg61
(iread_data
Room
p904
(dp905
g55
g134
sg56
g135
sbsbaa(lp906
(ischedule
Activity
p907
(dp908
g8
(lp909
g115
ag113
ag746
ag178
ag749
ag110
ag238
ag187
ag75
ag755
ag756
ag538
ag655
ag642
ag259
asg55
S'20'
p910
sg56
g762
sg58
g121
sg60
g122
sg61
g90
sba(ischedule
Activity
p911
(dp912
g8
(lp913
g35
ag97
ag775
ag98
ag776
ag211
ag371
ag27
ag113
ag99
ag777
ag100
ag36
ag101
ag21
ag102
ag615
ag103
ag729
ag144
ag665
ag104
ag117
ag105
ag322
ag106
ag778
ag334
ag383
ag107
ag652
ag108
ag779
ag109
ag112
ag110
ag355
ag780
ag489
ag116
ag118
ag115
ag114
ag111
asg55
I1000
sg56
g120
sg58
g59
sg60
I0
sg61
g274
sba(ischedule
Activity
p914
(dp915
g8
(lp916
g548
ag476
ag383
ag891
ag558
ag651
ag890
asg55
g703
sg56
g704
sg58
g88
sg60
g122
sg61
g690
sba(ischedule
Activity
p917
(dp918
g8
(lp919
g572
ag568
aS'51673172'
p920
ag643
ag610
aS'1695839'
p921
aS'44151631'
p922
aS'5892092'
p923
aS'82066165'
p924
ag727
ag300
ag754
aS'42297781'
p925
asg55
S'15'
p926
sg56
S'Compilerbouw practicum'
p927
sg58
g88
sg60
g122
sg61
(iread_data
Room
p928
(dp929
g55
g134
sg56
g135
sbsba(ischedule
Activity
p930
(dp931
g8
(lp932
g82
ag223
ag225
ag227
ag107
ag72
ag231
ag25
ag233
ag235
ag28
ag238
ag239
ag240
ag140
ag243
ag18
ag246
ag248
ag250
ag252
ag253
ag255
ag74
ag258
ag26
ag260
ag262
ag169
ag265
ag267
ag268
ag271
ag149
ag229
ag69
ag245
ag232
ag237
ag269
ag178
ag254
ag242
asg55
g597
sg56
g273
sg58
g121
sg60
g89
sg61
(iread_data
Room
p933
(dp934
g55
g216
sg56
g217
sbsba(ischedule
Activity
p935
(dp936
g8
(lp937
g439
ag505
ag236
aS'82872148'
p938
ag193
ag146
ag723
ag195
ag230
ag393
ag615
ag102
ag190
ag747
ag20
ag189
aS'58074656'
p939
ag752
ag317
ag194
ag81
ag725
ag750
ag333
ag495
aS'31103066'
p940
ag40
ag41
ag307
aS'14072826'
p941
aS'37830626'
p942
ag167
ag171
ag186
ag183
ag169
ag36
ag175
ag170
ag182
ag14
ag179
asg55
g517
sg56
g197
sg58
g88
sg60
g122
sg61
(iread_data
Room
p943
(dp944
g55
g64
sg56
g65
sbsbaaa(lp945
(lp946
(ischedule
Activity
p947
(dp948
g8
g602
sg55
I1000
sg56
g213
sg58
g59
sg60
I0
sg61
g62
sba(ischedule
Activity
p949
(dp950
g8
(lp951
g234
ag398
ag727
ag44
aS'54395877'
p952
ag313
ag443
ag192
aS'51791169'
p953
aS'10702778'
p954
ag516
ag248
ag225
ag336
aS'15249775'
p955
aS'63096281'
p956
asg55
g155
sg56
g156
sg58
g88
sg60
g89
sg61
(iread_data
Room
p957
(dp958
g55
g216
sg56
g217
sbsba(ischedule
Activity
p959
(dp960
g8
(lp961
g713
ag439
ag242
ag97
ag440
ag255
ag413
ag441
ag446
ag444
ag442
ag569
ag24
ag229
ag34
ag47
ag224
ag716
ag542
ag170
ag475
ag237
ag371
aS'49219163'
p962
aS'59111489'
p963
ag314
ag448
ag445
ag270
ag447
ag181
ag443
ag538
ag549
aS'96082155'
p964
ag757
aS'1181560'
p965
aS'27916487'
p966
aS'66621166'
p967
aS'51650744'
p968
ag243
aS'18144425'
p969
aS'27241113'
p970
ag167
ag105
ag110
ag45
ag366
ag50
ag449
ag208
ag186
ag153
aS'41489515'
p971
asg55
I1000
sg56
g451
sg58
g59
sg60
I0
sg61
(iread_data
Room
p972
(dp973
g55
g125
sg56
g126
sbsba(ischedule
Activity
p974
(dp975
g8
(lp976
g713
ag97
ag413
ag47
ag542
ag237
ag181
ag549
ag965
ag968
ag110
ag50
ag186
ag966
ag45
ag538
ag962
asg55
g450
sg56
g451
sg58
g88
sg60
g89
sg61
(iread_data
Room
p977
(dp978
g55
g159
sg56
g160
sbsba(ischedule
Activity
p979
(dp980
g8
(lp981
g10
ag13
ag22
ag31
ag34
ag43
ag46
ag49
ag52
ag14
ag24
ag42
ag33
asg55
g523
sg56
g57
sg58
g88
sg60
g89
sg61
(iread_data
Room
p982
(dp983
g55
g134
sg56
g135
sbsba(ischedule
Activity
p984
(dp985
g8
(lp986
S'535689'
p987
ag356
ag581
ag36
ag334
ag14
ag179
ag187
aS'55103073'
p988
ag483
aS'74361881'
p989
asg55
g926
sg56
g927
sg58
g88
sg60
g89
sg61
(iread_data
Room
p990
(dp991
g55
g92
sg56
g93
sbsba(ischedule
Activity
p992
(dp993
g8
(lp994
g553
ag207
ag788
ag778
ag48
ag70
ag716
ag822
ag38
ag414
ag332
ag823
ag366
ag47
ag365
ag569
ag408
ag369
ag250
ag356
ag141
ag361
ag761
ag105
ag80
ag44
ag789
ag324
ag695
ag824
ag35
ag757
ag490
ag188
ag227
ag448
ag208
ag540
ag498
ag643
ag492
ag825
ag257
ag353
ag790
ag146
ag791
ag294
ag413
ag793
ag382
ag815
ag482
ag826
ag233
ag143
ag640
ag543
ag29
ag205
ag313
ag538
ag240
ag357
ag312
ag827
ag27
ag828
ag792
ag463
ag82
ag829
asg55
I1000
sg56
g795
sg58
g59
sg60
I0
sg61
(iread_data
Room
p995
(dp996
g55
g200
sg56
g201
sbsbaa(lp997
(ischedule
Activity
p998
(dp999
g8
(lp1000
g643
ag637
ag34
ag191
ag610
ag638
ag611
ag229
ag612
ag231
ag105
ag101
ag237
ag619
ag347
ag639
ag613
ag640
ag71
ag85
ag568
ag641
ag303
ag642
ag265
ag211
ag301
ag567
ag50
ag616
ag614
ag618
ag615
ag280
ag72
ag617
ag271
ag97
asg55
I1000
sg56
g621
sg58
g59
sg60
I0
sg61
g62
sba(ischedule
Activity
p1001
(dp1002
g8
(lp1003
S'75680261'
p1004
ag185
ag724
ag463
ag516
ag404
ag823
ag303
ag891
ag238
ag747
ag989
asg55
g861
sg56
g862
sg58
g88
sg60
g89
sg61
(iread_data
Room
p1005
(dp1006
g55
g125
sg56
g126
sbsba(ischedule
Activity
p1007
(dp1008
g8
(lp1009
g684
ag471
ag205
ag685
ag142
ag686
ag688
ag689
ag615
ag430
ag428
ag19
ag333
ag429
asg55
g530
sg56
g432
sg58
g88
sg60
g131
sg61
(iread_data
Room
p1010
(dp1011
g55
g216
sg56
g217
sbsba(ischedule
Activity
p1012
(dp1013
g8
(lp1014
g554
aS'85236626'
p1015
ag272
aS'33252501'
p1016
ag401
ag712
aS'67625383'
p1017
ag368
ag171
ag516
ag544
aS'90067329'
p1018
aS'26857113'
p1019
ag412
ag443
ag233
ag514
ag715
ag248
ag45
ag226
ag263
asg55
I1000
sg56
S'Machine Learning'
p1020
sg58
g59
sg60
I0
sg61
(iread_data
Room
p1021
(dp1022
g55
g134
sg56
g135
sbsba(ischedule
Activity
p1023
(dp1024
g8
(lp1025
g439
ag441
ag442
ag224
ag170
ag371
ag314
ag270
ag966
ag243
ag970
ag97
ag366
ag964
asg55
S'20'
p1026
sg56
g451
sg58
g121
sg60
g122
sg61
(iread_data
Room
p1027
(dp1028
g55
g159
sg56
g160
sbsba(ischedule
Activity
p1029
(dp1030
g8
(lp1031
g207
ag10
ag236
asg55
g768
sg56
g213
sg58
g88
sg60
g89
sg61
(iread_data
Room
p1032
(dp1033
g55
g92
sg56
g93
sbsba(ischedule
Activity
p1034
(dp1035
g8
g9
sg55
I1000
sg56
g57
sg58
g59
sg60
I0
sg61
(iread_data
Room
p1036
(dp1037
g55
g200
sg56
g201
sbsbaa(lp1038
(ischedule
Activity
p1039
(dp1040
g8
(lp1041
g246
aS'51472074'
p1042
ag243
ag403
ag813
aS'91250534'
p1043
ag652
ag497
aS'47260040'
p1044
ag402
ag859
ag54
ag860
ag759
aS'64418623'
p1045
ag476
asg55
g926
sg56
g927
sg58
g88
sg60
g131
sg61
(iread_data
Room
p1046
(dp1047
g55
g200
sg56
g201
sbsba(ischedule
Activity
p1048
(dp1049
g8
g9
sg55
I1000
sg56
g57
sg58
g59
sg60
I0
sg61
(iread_data
Room
p1050
(dp1051
g55
g216
sg56
g217
sbsba(ischedule
Activity
p1052
(dp1053
g8
g221
sg55
I1000
sg56
g273
sg58
g59
sg60
I0
sg61
(iread_data
Room
p1054
(dp1055
g55
g125
sg56
g126
sbsba(ischedule
Activity
p1056
(dp1057
g8
(lp1058
g398
ag759
ag402
ag401
ag166
ag247
ag210
ag778
ag548
ag49
ag723
ag179
ag181
ag801
ag187
aS'64554442'
p1059
ag141
asg55
g506
sg56
g507
sg58
g121
sg60
g89
sg61
(iread_data
Room
p1060
(dp1061
g55
g64
sg56
g65
sbsba(ischedule
Activity
p1062
(dp1063
g8
(lp1064
g205
ag686
ag688
ag615
ag101
ag19
ag685
asg55
g431
sg56
g432
sg58
g121
sg60
g131
sg61
(iread_data
Room
p1065
(dp1066
g55
g134
sg56
g135
sbsba(ischedule
Activity
p1067
(dp1068
g8
(lp1069
g242
ag255
ag569
ag34
ag716
ag475
ag448
ag447
ag538
ag757
ag967
ag969
ag105
ag208
ag971
ag167
ag24
ag440
ag186
ag229
ag50
ag965
ag153
ag45
ag413
asg55
g1026
sg56
g451
sg58
g121
sg60
g131
sg61
(iread_data
Room
p1070
(dp1071
g55
g159
sg56
g160
sbsba(ischedule
Activity
p1072
(dp1073
g8
(lp1074
g827
aS'123355'
p1075
ag367
ag793
ag146
ag289
aS'5590289'
p1076
ag415
ag811
ag37
ag489
ag501
aS'16912993'
p1077
ag558
ag211
ag987
ag164
ag788
asg55
g872
sg56
g873
sg58
g88
sg60
g668
sg61
(iread_data
Room
p1078
(dp1079
g55
g92
sg56
g93
sbsbaa(lp1080
(ischedule
Activity
p1081
(dp1082
g8
(lp1083
g17
ag20
ag23
ag32
ag35
ag38
ag44
ag47
ag21
ag51
ag54
ag29
ag19
ag11
ag48
ag27
ag14
asg55
g130
sg56
g57
sg58
g121
sg60
g122
sg61
(iread_data
Room
p1084
(dp1085
g55
g200
sg56
g201
sbsba(ischedule
Activity
p1086
(dp1087
g8
(lp1088
g208
ag331
ag468
ag747
ag444
ag752
ag33
ag240
ag757
ag759
ag760
ag758
ag353
ag23
ag146
ag748
asg55
g910
sg56
g762
sg58
g121
sg60
g668
sg61
(iread_data
Room
p1089
(dp1090
g55
g92
sg56
g93
sbsba(ischedule
Activity
p1091
(dp1092
g8
g1014
sg55
I1000
sg56
g1020
sg58
g59
sg60
I0
sg61
(iread_data
Room
p1093
(dp1094
g55
g134
sg56
g135
sbsba(ischedule
Activity
p1095
(dp1096
g8
g694
sg55
I1000
sg56
g574
sg58
g59
sg60
I0
sg61
(iread_data
Room
p1097
(dp1098
g55
g125
sg56
g126
sbsba(ischedule
Activity
p1099
(dp1100
g8
(lp1101
g208
ag331
ag675
ag444
ag752
ag25
ag240
ag139
ag712
ag760
ag751
ag651
ag74
ag259
ag113
asg55
g884
sg56
g762
sg58
g88
sg60
g668
sg61
(iread_data
Room
p1102
(dp1103
g55
g216
sg56
g217
sbsba(ischedule
Activity
p1104
(dp1105
g8
(lp1106
g836
ag731
ag41
ag18
ag590
ag701
ag582
ag837
ag403
ag170
ag391
ag184
ag439
ag651
ag640
ag761
ag490
ag839
ag838
ag468
asg55
g295
sg56
g296
sg58
g88
sg60
g122
sg61
(iread_data
Room
p1107
(dp1108
g55
g159
sg56
g160
sbsba(ischedule
Activity
p1109
(dp1110
g8
(lp1111
S'12170832'
p1112
ag650
ag580
ag300
ag685
ag458
ag684
ag349
ag115
ag363
asg55
g872
sg56
g873
sg58
g88
sg60
g122
sg61
(iread_data
Room
p1113
(dp1114
g55
g64
sg56
g65
sbsbaa(lp1115
(ischedule
Activity
p1116
(dp1117
g8
(lp1118
g205
ag206
ag604
ag233
ag15
ag308
ag210
ag188
ag103
asg55
g768
sg56
g213
sg58
g88
sg60
g131
sg61
(iread_data
Room
p1119
(dp1120
g55
g92
sg56
g93
sbsba(ischedule
Activity
p1121
(dp1122
g8
(lp1123
g426
ag536
ag101
ag541
ag542
ag347
ag544
ag336
ag412
ag551
ag552
ag381
ag31
ag173
ag538
asg55
S'20'
p1124
sg56
g560
sg58
g121
sg60
g89
sg61
(iread_data
Room
p1125
(dp1126
g55
g125
sg56
g126
sbsba(ischedule
Activity
p1127
(dp1128
g8
(lp1129
g398
ag23
ag759
ag141
ag402
ag489
ag293
ag490
ag401
ag491
ag257
ag492
ag503
ag171
ag262
ag493
ag166
ag265
ag247
ag187
ag210
ag502
ag778
ag494
ag505
ag177
ag548
ag495
ag501
ag496
ag413
ag497
ag49
ag498
ag504
ag499
ag723
ag801
ag179
ag1059
ag181
ag500
ag205
asg55
I1000
sg56
g507
sg58
g59
sg60
I0
sg61
(iread_data
Room
p1130
(dp1131
g55
g216
sg56
g217
sbsba(ischedule
Activity
p1132
(dp1133
g8
(lp1134
g458
ag643
ag361
ag411
ag97
ag618
ag664
ag100
ag150
ag498
ag189
ag675
ag25
ag712
ag139
ag457
ag732
ag761
asg55
g910
sg56
g762
sg58
g121
sg60
g131
sg61
(iread_data
Room
p1135
(dp1136
g55
g134
sg56
g135
sbsba(ischedule
Activity
p1137
(dp1138
g8
(lp1139
g449
ag539
ag427
ag17
ag179
ag546
ag370
ag358
ag550
ag279
ag553
ag554
ag555
ag558
ag50
ag70
ag548
ag32
ag223
ag289
ag545
asg55
g1124
sg56
g560
sg58
g121
sg60
g122
sg61
(iread_data
Room
p1140
(dp1141
g55
g159
sg56
g160
sbsbaaa(lp1142
(lp1143
(ischedule
Activity
p1144
(dp1145
g8
g709
sg55
I1000
sg56
g739
sg58
g59
sg60
I0
sg61
(iread_data
Room
p1146
(dp1147
g55
g159
sg56
g160
sbsba(ischedule
Activity
p1148
(dp1149
g8
g535
sg55
I1000
sg56
g560
sg58
g59
sg60
I0
sg61
(iread_data
Room
p1150
(dp1151
g55
g134
sg56
g135
sbsba(ischedule
Activity
p1152
(dp1153
g8
(lp1154
g82
ag107
ag231
ag25
ag233
ag28
ag238
ag239
ag243
ag18
ag246
ag248
ag250
ag252
ag258
ag26
ag260
ag262
ag169
ag268
ag174
ag271
ag232
ag145
ag269
ag69
ag234
ag226
ag251
ag266
ag227
ag259
ag228
ag253
ag75
asg55
g631
sg56
g273
sg58
g88
sg60
g89
sg61
(iread_data
Room
p1155
(dp1156
g55
g64
sg56
g65
sbsba(ischedule
Activity
p1157
(dp1158
g8
(lp1159
g745
ag315
ag651
ag750
ag751
ag753
ag70
ag318
ag29
ag398
ag74
ag754
asg55
g910
sg56
g762
sg58
g121
sg60
g89
sg61
(iread_data
Room
p1160
(dp1161
g55
g216
sg56
g217
sbsba(ischedule
Activity
p1162
(dp1163
g8
(lp1164
g439
ag505
ag236
ag938
ag146
ag723
ag230
ag516
ag393
ag615
ag237
ag747
ag20
ag939
ag752
ag317
ag81
ag725
ag515
ag750
ag333
ag495
ag940
ag307
ag941
ag942
ag53
ag358
ag355
ag513
ag352
ag514
ag36
asg55
g196
sg56
g197
sg58
g121
sg60
g122
sg61
(iread_data
Room
p1165
(dp1166
g55
g125
sg56
g126
sbsba(ischedule
Activity
p1167
(dp1168
g8
(lp1169
g171
ag1015
aS'72652638'
p1170
ag499
aS'82968410'
p1171
ag439
ag890
ag397
ag955
ag279
ag324
ag777
ag688
ag205
aS'35315956'
p1172
aS'52304977'
p1173
ag457
ag541
ag349
ag116
ag404
asg55
S'20'
p1174
sg56
S'Heuristieken 2'
p1175
sg58
g121
sg60
g89
sg61
(iread_data
Room
p1176
(dp1177
g55
g92
sg56
g93
sbsba(ischedule
Activity
p1178
(dp1179
g8
(lp1180
g695
ag211
ag99
ag675
ag653
ag97
ag674
ag445
ag493
asg55
g573
sg56
g574
sg58
g121
sg60
g122
sg61
(iread_data
Room
p1181
(dp1182
g55
g200
sg56
g201
sbsbaa(lp1183
(ischedule
Activity
p1184
(dp1185
g8
(lp1186
g348
ag688
ag262
ag498
ag52
aS'64246605'
p1187
ag822
ag369
ag938
ag515
ag16
ag495
ag540
ag252
ag405
ag724
ag473
ag902
ag411
ag476
ag778
ag775
aS'19058315'
p1188
asg55
g872
sg56
g873
sg58
g88
sg60
g131
sg61
g632
sba(ischedule
Activity
p1189
(dp1190
g8
(lp1191
g617
ag550
ag359
ag17
ag689
ag569
ag448
ag489
aS'73893840'
p1192
ag618
aS'39905995'
p1193
ag503
ag240
ag449
ag290
aS'28943658'
p1194
aS'88263855'
p1195
aS'7386961'
p1196
ag75
ag753
asg55
g155
sg56
g156
sg58
g88
sg60
g131
sg61
(iread_data
Room
p1197
(dp1198
g55
g134
sg56
g135
sbsba(ischedule
Activity
p1199
(dp1200
g8
(lp1201
g514
ag321
ag529
ag687
ag23
ag16
ag154
ag471
ag689
ag684
asg55
g431
sg56
g432
sg58
g121
sg60
g89
sg61
(iread_data
Room
p1202
(dp1203
g55
g200
sg56
g201
sbsba(ischedule
Activity
p1204
(dp1205
g8
(lp1206
g242
ag255
ag569
ag34
ag716
ag475
ag757
ag967
ag969
ag105
ag366
ag208
ag971
ag970
ag371
ag24
ag170
ag963
ag153
ag964
asg55
g450
sg56
g451
sg58
g88
sg60
g131
sg61
(iread_data
Room
p1207
(dp1208
g55
g216
sg56
g217
sbsba(ischedule
Activity
p1209
(dp1210
g8
g648
sg55
I1000
sg56
g657
sg58
g59
sg60
I0
sg61
(iread_data
Room
p1211
(dp1212
g55
g125
sg56
g126
sbsba(ischedule
Activity
p1213
(dp1214
g8
(lp1215
g34
ag442
ag371
ag44
ag457
ag458
ag461
ag462
ag167
ag183
ag310
ag465
ag467
ag305
ag148
ag469
ag470
ag139
ag472
ag249
ag475
ag372
ag478
ag22
ag482
ag352
ag463
ag455
ag254
asg55
g419
sg56
g420
sg58
g121
sg60
g89
sg61
(iread_data
Room
p1216
(dp1217
g55
g64
sg56
g65
sbsba(ischedule
Activity
p1218
(dp1219
g8
(lp1220
g101
ag185
ag604
ag103
ag236
ag355
ag15
ag81
asg55
g212
sg56
g213
sg58
g121
sg60
g122
sg61
(iread_data
Room
p1221
(dp1222
g55
g92
sg56
g93
sbsbaa(lp1223
(ischedule
Activity
p1224
(dp1225
g8
g744
sg55
I1000
sg56
g762
sg58
g59
sg60
I0
sg61
(iread_data
Room
p1226
(dp1227
g55
g92
sg56
g93
sbsba(ischedule
Activity
p1228
(dp1229
g8
(lp1230
g695
ag229
ag211
ag570
ag653
ag109
ag571
ag480
ag97
ag567
ag493
ag445
ag19
ag363
ag428
ag572
ag99
asg55
g676
sg56
g574
sg58
g88
sg60
g122
sg61
(iread_data
Room
p1231
(dp1232
g55
g200
sg56
g201
sbsba(ischedule
Activity
p1233
(dp1234
g8
(lp1235
g186
ag366
ag410
aS'55480737'
p1236
ag837
ag501
ag269
ag373
ag169
ag542
ag920
ag249
ag924
asg55
g861
sg56
g862
sg58
g88
sg60
g122
sg61
(iread_data
Room
p1237
(dp1238
g55
g64
sg56
g65
sbsba(ischedule
Activity
p1239
(dp1240
g8
(lp1241
g171
ag1173
ag1015
ag688
ag150
ag791
aS'5739011'
p1242
ag116
ag1170
ag404
ag499
ag457
ag1171
ag639
ag316
ag43
ag439
ag1172
ag890
ag541
ag397
ag353
ag349
ag483
ag955
ag460
ag279
ag205
ag324
ag223
ag777
ag16
asg55
I1000
sg56
g1175
sg58
g59
sg60
I0
sg61
(iread_data
Room
p1243
(dp1244
g55
g159
sg56
g160
sbsba(ischedule
Activity
p1245
(dp1246
g8
g1000
sg55
I1000
sg56
g621
sg58
g59
sg60
I0
sg61
(iread_data
Room
p1247
(dp1248
g55
g125
sg56
g126
sbsba(ischedule
Activity
p1249
(dp1250
g8
(lp1251
g169
ag540
ag543
ag303
ag147
ag355
ag547
ag549
ag109
ag257
ag556
ag348
ag559
ag557
ag537
asg55
g1124
sg56
g560
sg58
g121
sg60
g131
sg61
(iread_data
Room
p1252
(dp1253
g55
g134
sg56
g135
sbsbaa(lp1254
(ischedule
Activity
p1255
(dp1256
g8
(lp1257
g164
ag113
ag165
ag439
ag54
ag505
ag166
ag236
ag167
ag938
ag168
ag193
ag169
ag146
ag85
ag723
ag513
ag195
ag170
ag230
ag171
ag516
ag172
ag393
ag173
ag615
ag174
ag102
ag36
ag237
ag175
ag190
ag176
ag747
ag355
ag20
ag177
ag189
ag53
ag939
ag178
ag752
ag15
ag317
ag179
ag194
ag180
ag81
ag181
ag725
ag182
ag515
ag183
ag750
ag104
ag333
ag514
ag495
ag184
ag192
ag185
ag940
ag352
ag40
ag186
ag41
ag187
ag307
ag358
ag941
ag30
ag191
ag188
ag942
ag14
asg55
I1000
sg56
g197
sg58
g59
sg60
I0
sg61
(iread_data
Room
p1258
(dp1259
g55
g216
sg56
g217
sbsba(ischedule
Activity
p1260
(dp1261
g8
(lp1262
g279
ag640
ag651
ag761
ag280
ag282
ag283
ag284
ag285
ag490
ag838
ag288
ag839
ag150
ag184
ag111
ag701
ag439
ag837
ag292
ag41
ag281
ag836
ag582
ag731
asg55
g591
sg56
g296
sg58
g121
sg60
g89
sg61
(iread_data
Room
p1263
(dp1264
g55
g92
sg56
g93
sbsba(ischedule
Activity
p1265
(dp1266
g8
(lp1267
g639
ag43
ag353
ag483
ag460
ag223
ag16
ag316
ag1242
ag791
ag150
asg55
g1174
sg56
g1175
sg58
g121
sg60
g122
sg61
(iread_data
Room
p1268
(dp1269
g55
g125
sg56
g126
sbsba(ischedule
Activity
p1270
(dp1271
g8
(lp1272
g23
ag141
ag490
ag171
ag493
ag265
ag187
ag495
ag496
ag497
ag498
ag1059
ag500
ag205
ag49
ag257
ag489
asg55
g802
sg56
g507
sg58
g88
sg60
g122
sg61
(iread_data
Room
p1273
(dp1274
g55
g159
sg56
g160
sbsbaa(lp1275
(ischedule
Activity
p1276
(dp1277
g8
(lp1278
g745
ag315
ag23
ag748
ag750
ag318
ag732
ag29
ag398
ag761
ag642
ag538
ag70
ag33
ag747
ag749
asg55
g884
sg56
g762
sg58
g88
sg60
g89
sg61
(iread_data
Room
p1279
(dp1280
g55
g216
sg56
g217
sbsba(ischedule
Activity
p1281
(dp1282
g8
g807
sg55
I1000
sg56
g816
sg58
g59
sg60
I0
sg61
(iread_data
Room
p1283
(dp1284
g55
g125
sg56
g126
sbsba(ischedule
Activity
p1285
(dp1286
g8
(lp1287
g458
ag643
ag361
ag411
ag97
ag146
ag618
ag664
ag100
ag150
ag498
ag758
ag189
ag754
ag115
ag457
ag759
ag746
ag353
ag753
ag757
asg55
g884
sg56
g762
sg58
g88
sg60
g131
sg61
(iread_data
Room
p1288
(dp1289
g55
g92
sg56
g93
sbsba(ischedule
Activity
p1290
(dp1291
g8
(lp1292
g17
ag20
ag23
ag26
ag29
ag32
ag35
ag38
ag47
ag50
ag40
ag19
ag37
ag51
ag28
ag25
asg55
g523
sg56
g57
sg58
g88
sg60
g122
sg61
(iread_data
Room
p1293
(dp1294
g55
g159
sg56
g160
sbsba(ischedule
Activity
p1295
(dp1296
g8
g835
sg55
I1000
sg56
g296
sg58
g59
sg60
I0
sg61
(iread_data
Room
p1297
(dp1298
g55
g64
sg56
g65
sbsba(ischedule
Activity
p1299
(dp1300
g8
(lp1301
g713
ag444
ag47
ag542
ag237
ag963
ag445
ag181
ag549
ag968
ag110
ag443
ag446
ag962
ag449
asg55
g1026
sg56
g451
sg58
g121
sg60
g89
sg61
(iread_data
Room
p1302
(dp1303
g55
g200
sg56
g201
sbsba(ischedule
Activity
p1304
(dp1305
g8
(lp1306
g1015
ag252
ag383
ag695
aS'90296821'
p1307
ag473
ag493
aS'73196865'
p1308
ag717
ag839
ag228
ag168
aS'64053722'
p1309
ag24
ag675
ag1019
ag195
ag549
asg55
g155
sg56
g156
sg58
g88
sg60
S'5'
p1310
sg61
(iread_data
Room
p1311
(dp1312
g55
g134
sg56
g135
sbsbaaa(lp1313
(lp1314
a(lp1315
a(lp1316
a(lp1317
a(lp1318
aasS'timeslot_dict'
p1319
(dp1320
I0
S'9:00-11:00'
p1321
sI1
S'11:00-13:00'
p1322
sI2
S'13:00-15:00'
p1323
sI3
S'15:00-17:00'
p1324
sI4
S'17:00-19:00'
p1325
ssS'day_dict'
p1326
(dp1327
I0
S'Monday'
p1328
sI1
S'Tuesday'
p1329
sI2
S'Wednesday'
p1330
sI3
S'Thursday'
p1331
sI4
S'Friday'
p1332
ssb.