(ischedule
Schedule
p0
(dp1
S'timetable'
p2
(lp3
(lp4
(lp5
(ischedule
Activity
p6
(dp7
S'participants'
p8
(lp9
S'20883994'
p10
aS'56815156'
p11
aS'58522654'
p12
aS'11068043'
p13
aS'66120270'
p14
aS'79617364'
p15
aS'3168419'
p16
aS'81200278'
p17
aS'96453361'
p18
aS'85335143'
p19
aS'88176729'
p20
aS'43680781'
p21
aS'247918'
p22
aS'30195935'
p23
aS'89985072'
p24
aS'56749879'
p25
aS'96054456'
p26
aS'22826928'
p27
aS'4568018'
p28
aS'24613625'
p29
aS'22731474'
p30
aS'14816774'
p31
aS'30050930'
p32
aS'29526540'
p33
aS'7308727'
p34
aS'5298748'
p35
aS'74131924'
p36
aS'6723948'
p37
aS'77831658'
p38
aS'33930505'
p39
aS'21029457'
p40
aS'73236988'
p41
aS'14591033'
p42
aS'6913074'
p43
aS'15051051'
p44
aS'53202517'
p45
aS'44868097'
p46
aS'28359697'
p47
aS'70878567'
p48
aS'54026378'
p49
aS'21964491'
p50
aS'64600457'
p51
aS'59544049'
p52
aS'33877725'
p53
aS'42196732'
p54
asS'capacity'
p55
I1000
sS'name'
p56
S'Bioinformatica'
p57
sS'ttype'
p58
S'lectures'
p59
sS'group_id'
p60
I0
sS'room'
p61
(iread_data
Room
p62
(dp63
g55
S'48'
p64
sg56
S'B0.201'
p65
sbsba(ischedule
Activity
p66
(dp67
g8
(lp68
S'34765676'
p69
aS'23652927'
p70
aS'43902015'
p71
aS'1665980'
p72
aS'19540225'
p73
aS'36903574'
p74
aS'86988337'
p75
aS'41585485'
p76
aS'58592894'
p77
ag50
aS'8522855'
p78
aS'77376714'
p79
ag18
aS'53585410'
p80
aS'91527663'
p81
aS'14671406'
p82
aS'64947290'
p83
aS'23983476'
p84
aS'12077419'
p85
aS'82689818'
p86
aS'3707829'
p87
aS'21095566'
p88
aS'15902055'
p89
aS'64554442'
p90
aS'40343779'
p91
aS'67817269'
p92
aS'26260141'
p93
aS'81385263'
p94
aS'44828429'
p95
aS'46701583'
p96
aS'57467488'
p97
aS'3474870'
p98
aS'51509565'
p99
aS'52715680'
p100
aS'78136904'
p101
aS'27298319'
p102
aS'66433883'
p103
aS'50143947'
p104
aS'41527759'
p105
aS'72895450'
p106
aS'88596522'
p107
aS'51566595'
p108
aS'5976174'
p109
asg55
I1000
sg56
S'Algoritmen en complexiteit'
p110
sg58
g59
sg60
I0
sg61
(iread_data
Room
p111
(dp112
g55
S'56'
p113
sg56
S'A1.10'
p114
sbsba(ischedule
Activity
p115
(dp116
g8
(lp117
S'69459473'
p118
aS'94467156'
p119
ag96
aS'25994016'
p120
aS'55480737'
p121
ag78
aS'27950803'
p122
aS'41644639'
p123
aS'88737765'
p124
aS'37770881'
p125
aS'27925117'
p126
aS'25106480'
p127
aS'5526560'
p128
aS'75680261'
p129
aS'58253841'
p130
aS'14179347'
p131
asg55
S'15'
p132
sg56
S'Project Genetic Algorithms'
p133
sg58
S'labs'
p134
sg60
S'3'
p135
sg61
(iread_data
Room
p136
(dp137
g55
S'60'
p138
sg56
S'C1.112'
p139
sbsba(ischedule
Activity
p140
(dp141
g8
(lp142
S'66701209'
p143
aS'14398123'
p144
ag29
aS'82066165'
p145
aS'87602030'
p146
aS'41578612'
p147
aS'84449005'
p148
asg55
g132
sg56
g133
sg58
g134
sg60
S'2'
p149
sg61
(iread_data
Room
p150
(dp151
g55
S'20'
p152
sg56
S'A1.08'
p153
sbsba(ischedule
Activity
p154
(dp155
g8
(lp156
S'60352393'
p157
ag26
aS'23658570'
p158
aS'17222374'
p159
aS'58332004'
p160
aS'88752563'
p161
aS'5085194'
p162
ag25
aS'13092455'
p163
aS'43027916'
p164
aS'46989508'
p165
ag16
aS'94686490'
p166
aS'23257088'
p167
ag75
ag128
aS'37701751'
p168
aS'59397895'
p169
aS'670011'
p170
aS'34872117'
p171
aS'78821918'
p172
aS'24277163'
p173
aS'25077484'
p174
aS'77896638'
p175
aS'40434933'
p176
aS'64296965'
p177
aS'13132925'
p178
ag22
aS'29640619'
p179
ag86
aS'15187217'
p180
aS'17092717'
p181
aS'75005528'
p182
aS'27123462'
p183
ag33
aS'40141996'
p184
aS'62736669'
p185
aS'56191333'
p186
aS'56121590'
p187
aS'4529208'
p188
aS'90474003'
p189
aS'4921119'
p190
aS'58083680'
p191
ag71
ag81
ag97
aS'11996292'
p192
ag77
aS'70072978'
p193
aS'77960666'
p194
aS'26207525'
p195
aS'86180471'
p196
aS'47477884'
p197
aS'5517869'
p198
ag83
aS'49631542'
p199
aS'76123484'
p200
ag108
aS'47932106'
p201
aS'26406342'
p202
aS'73823548'
p203
aS'39459642'
p204
aS'52552718'
p205
ag31
aS'54540997'
p206
aS'72796858'
p207
ag54
aS'72456780'
p208
aS'12091019'
p209
aS'56872729'
p210
aS'83869542'
p211
aS'51542218'
p212
asg55
I1000
sg56
S'Databases 2'
p213
sg58
g59
sg60
I0
sg61
(iread_data
Room
p214
(dp215
g55
S'117'
p216
sg56
S'C0.110'
p217
sbsba(ischedule
Activity
p218
(dp219
g8
(lp220
g146
aS'58736785'
p221
ag69
ag109
aS'57086672'
p222
aS'61443567'
p223
aS'99975346'
p224
ag164
aS'15249775'
p225
aS'35315956'
p226
aS'16097870'
p227
aS'84524083'
p228
aS'48678993'
p229
aS'5739011'
p230
aS'31897288'
p231
aS'63634350'
p232
asg55
S'20'
p233
sg56
S'Heuristieken 2'
p234
sg58
S'tutorials'
p235
sg60
S'1'
p236
sg61
(iread_data
Room
p237
(dp238
g55
S'41'
p239
sg56
S'A1.04'
p240
sbsbaa(lp241
(ischedule
Activity
p242
(dp243
g8
(lp244
S'87758823'
p245
ag86
aS'86000192'
p246
aS'28357474'
p247
aS'64228258'
p248
ag34
aS'68601184'
p249
ag104
aS'29474737'
p250
aS'48601268'
p251
ag173
aS'64393888'
p252
aS'1075391'
p253
aS'62701040'
p254
aS'23547619'
p255
asg55
S'20'
p256
sg56
S'Collectieve Intelligentie'
p257
sg58
g134
sg60
S'4'
p258
sg61
(iread_data
Room
p259
(dp260
g55
S'22'
p261
sg56
S'A1.06'
p262
sbsba(ischedule
Activity
p263
(dp264
g8
(lp265
S'20331158'
p266
aS'97019450'
p267
aS'13658563'
p268
aS'14138904'
p269
aS'71839156'
p270
aS'75997788'
p271
aS'83443653'
p272
aS'22323043'
p273
ag31
aS'14941752'
p274
aS'1696500'
p275
aS'42171678'
p276
aS'76393508'
p277
aS'75521763'
p278
aS'61060652'
p279
aS'48357272'
p280
ag192
aS'53775014'
p281
aS'98105190'
p282
aS'37110913'
p283
aS'45660925'
p284
aS'19858730'
p285
ag97
aS'44901052'
p286
aS'66122625'
p287
ag28
aS'86807027'
p288
ag25
aS'87210640'
p289
aS'59075181'
p290
aS'94930277'
p291
aS'22871048'
p292
aS'4783858'
p293
ag42
aS'97417002'
p294
aS'81218347'
p295
aS'79879876'
p296
aS'53107172'
p297
aS'4353500'
p298
aS'20830477'
p299
ag74
ag231
ag221
aS'92977271'
p300
asg55
I1000
sg56
S'Heuristieken 1'
p301
sg58
g59
sg60
I0
sg61
(iread_data
Room
p302
(dp303
g55
g138
sg56
g139
sbsba(ischedule
Activity
p304
(dp305
g8
(lp306
S'68360259'
p307
ag287
aS'17823206'
p308
aS'98780382'
p309
aS'52311353'
p310
aS'97136582'
p311
aS'45414528'
p312
aS'59753700'
p313
aS'19337738'
p314
ag273
aS'91196968'
p315
ag48
aS'81022997'
p316
aS'25330192'
p317
aS'13116738'
p318
ag36
aS'99453514'
p319
aS'93023961'
p320
ag17
aS'13996448'
p321
aS'87900893'
p322
ag104
ag108
aS'37744525'
p323
aS'87314964'
p324
ag50
ag283
asg55
I1000
sg56
S'Data Mining'
p325
sg58
g59
sg60
I0
sg61
g62
sba(ischedule
Activity
p326
(dp327
g8
(lp328
S'13911001'
p329
aS'1181560'
p330
aS'49219163'
p331
aS'58699305'
p332
aS'30658799'
p333
ag160
ag79
aS'3883025'
p334
ag44
ag148
aS'96082155'
p335
aS'51650744'
p336
aS'78243495'
p337
ag33
ag199
ag159
aS'1766560'
p338
asg55
S'20'
p339
sg56
S'Moderne Databases'
p340
sg58
g235
sg60
g135
sg61
(iread_data
Room
p341
(dp342
g55
g239
sg56
g240
sbsba(ischedule
Activity
p343
(dp344
g8
(lp345
g45
aS'89180944'
p346
aS'66034145'
p347
aS'16333449'
p348
ag337
ag98
aS'5615125'
p349
aS'2416751'
p350
aS'53512831'
p351
aS'20618153'
p352
aS'27064249'
p353
aS'67073567'
p354
aS'6249823'
p355
aS'76648468'
p356
aS'14847953'
p357
ag176
ag118
aS'39230359'
p358
aS'24891081'
p359
ag222
aS'10698627'
p360
asg55
S'20'
p361
sg56
S'Webprogrammeren en databases'
p362
sg58
g235
sg60
g149
sg61
g111
sba(ischedule
Activity
p363
(dp364
g8
(lp365
S'70113753'
p366
ag198
aS'11915563'
p367
ag207
ag205
ag227
ag49
ag102
asg55
S'10'
p368
sg56
S'Autonomous Agents 2'
p369
sg58
g235
sg60
g135
sg61
(iread_data
Room
p370
(dp371
g55
g216
sg56
g217
sbsba(ischedule
Activity
p372
(dp373
g8
(lp374
g11
ag17
ag20
ag23
ag32
ag38
ag41
ag44
ag47
ag50
ag53
ag52
ag12
asg55
S'20'
p375
sg56
g57
sg58
g235
sg60
g149
sg61
g150
sbaa(lp376
(ischedule
Activity
p377
(dp378
g8
(lp379
g267
ag269
ag274
ag276
ag278
ag280
ag281
ag283
ag285
ag286
ag28
ag25
ag290
ag292
ag42
ag295
ag297
ag231
ag300
ag282
ag296
ag31
ag221
ag291
ag192
asg55
S'25'
p380
sg56
g301
sg58
g235
sg60
g149
sg61
g341
sba(ischedule
Activity
p381
(dp382
g8
(lp383
g11
ag14
ag17
ag20
ag26
ag29
ag32
ag35
ag38
ag41
ag44
ag47
ag50
ag53
ag23
ag22
ag52
ag39
asg55
S'20'
p384
sg56
g57
sg58
g134
sg60
g149
sg61
g150
sba(ischedule
Activity
p385
(dp386
g8
(lp387
S'54569540'
p388
ag43
ag147
ag173
ag163
ag222
ag21
aS'27805666'
p389
aS'20095994'
p390
ag194
ag35
aS'32044893'
p391
ag313
ag189
ag100
ag27
aS'20239127'
p392
ag157
ag268
ag148
aS'49922855'
p393
aS'61518436'
p394
aS'13718298'
p395
aS'77392404'
p396
aS'38296757'
p397
aS'4709948'
p398
aS'37399898'
p399
ag292
ag122
aS'42406214'
p400
ag75
aS'87830198'
p401
aS'51052738'
p402
aS'70193386'
p403
aS'3685034'
p404
aS'27370083'
p405
ag224
aS'96554914'
p406
aS'70844780'
p407
ag101
aS'68286356'
p408
aS'36213792'
p409
ag228
aS'82390428'
p410
aS'33776961'
p411
ag283
aS'92778619'
p412
aS'36785409'
p413
ag319
aS'60661905'
p414
aS'51415617'
p415
asg55
I1000
sg56
S'Reflectie op de digitale cultuur'
p416
sg58
g59
sg60
I0
sg61
g302
sba(ischedule
Activity
p417
(dp418
g8
(lp419
g69
ag71
ag73
ag75
ag77
ag78
ag18
ag81
ag83
ag85
ag87
ag89
ag91
ag93
ag95
ag97
ag99
ag101
ag103
ag105
ag107
ag109
ag96
ag86
ag74
ag102
ag106
ag104
ag84
asg55
S'25'
p420
sg56
g110
sg58
g134
sg60
g236
sg61
(iread_data
Room
p421
(dp422
g55
g216
sg56
g217
sbsba(ischedule
Activity
p423
(dp424
g8
(lp425
S'62872965'
p426
aS'10149535'
p427
aS'36527838'
p428
ag348
aS'31416266'
p429
aS'68409833'
p430
aS'38499176'
p431
ag399
ag170
aS'54074680'
p432
ag98
ag15
aS'55412918'
p433
ag166
aS'42115591'
p434
ag190
aS'34588570'
p435
ag175
aS'58866007'
p436
aS'26172512'
p437
aS'80998260'
p438
aS'36508571'
p439
ag147
aS'34243356'
p440
aS'80709893'
p441
ag295
aS'16011419'
p442
aS'96118484'
p443
ag310
aS'48308205'
p444
ag94
aS'35330349'
p445
aS'94955328'
p446
aS'32595335'
p447
aS'83210352'
p448
ag210
ag315
ag198
aS'23565001'
p449
aS'79937969'
p450
ag227
ag279
ag270
aS'74182182'
p451
aS'55474917'
p452
aS'42778953'
p453
ag54
ag42
aS'21311067'
p454
ag245
aS'66570705'
p455
ag182
aS'90743504'
p456
aS'93566383'
p457
asg55
I1000
sg56
S'Lineaire Algebra'
p458
sg58
g59
sg60
I0
sg61
(iread_data
Room
p459
(dp460
g55
g113
sg56
g114
sbsba(ischedule
Activity
p461
(dp462
g8
(lp463
g283
aS'12430748'
p464
aS'76487754'
p465
ag355
aS'92496780'
p466
ag286
aS'31194811'
p467
ag278
aS'47982619'
p468
ag202
ag21
aS'68315599'
p469
ag147
aS'89338938'
p470
aS'4697362'
p471
asg55
S'20'
p472
sg56
S'Technology for games'
p473
sg58
g235
sg60
g149
sg61
g62
sbaa(lp474
(ischedule
Activity
p475
(dp476
g8
(lp477
S'72665524'
p478
aS'82412626'
p479
ag449
aS'58469172'
p480
aS'31306819'
p481
aS'65408517'
p482
ag246
ag37
aS'62105897'
p483
ag146
aS'72526473'
p484
ag271
ag96
ag322
aS'88855695'
p485
ag349
aS'11593163'
p486
aS'45915482'
p487
ag201
ag126
aS'19717077'
p488
ag102
ag197
aS'59220392'
p489
aS'61520025'
p490
ag46
aS'27187154'
p491
aS'83266686'
p492
ag293
ag227
aS'33760909'
p493
aS'75623387'
p494
ag166
asg55
S'40'
p495
sg56
S'Calculus 2'
p496
sg58
g235
sg60
g236
sg61
(iread_data
Room
p497
(dp498
g55
g64
sg56
g65
sbsba(ischedule
Activity
p499
(dp500
g8
(lp501
g309
ag312
ag316
ag36
ag104
ag324
ag308
asg55
S'10'
p502
sg56
g325
sg58
g134
sg60
g236
sg61
g150
sba(ischedule
Activity
p503
(dp504
g8
(lp505
S'1137946'
p506
ag45
ag359
ag346
aS'14303208'
p507
ag347
ag181
ag348
ag223
ag337
aS'41790793'
p508
aS'49908313'
p509
ag358
ag98
ag53
ag349
aS'22288615'
p510
ag350
ag71
ag351
ag396
ag106
aS'28358060'
p511
ag352
aS'43460038'
p512
ag353
aS'76903244'
p513
ag354
ag200
ag355
aS'72577292'
p514
ag356
ag291
ag357
ag222
ag176
ag360
ag118
ag248
asg55
I1000
sg56
g362
sg58
g59
sg60
I0
sg61
g302
sba(ischedule
Activity
p515
(dp516
g8
g9
sg55
I1000
sg56
g57
sg58
g59
sg60
I0
sg61
g111
sba(ischedule
Activity
p517
(dp518
g8
(lp519
g286
aS'36748818'
p520
ag84
ag254
ag278
aS'77636749'
p521
ag318
aS'29718115'
p522
ag268
aS'32204977'
p523
ag469
ag48
aS'75585647'
p524
aS'8557857'
p525
asg55
S'15'
p526
sg56
S'Informatie- en organsatieontwerp'
p527
sg58
g134
sg60
g236
sg61
(iread_data
Room
p528
(dp529
g55
g261
sg56
g262
sbsba(ischedule
Activity
p530
(dp531
g8
(lp532
g197
aS'62613937'
p533
ag407
ag357
ag101
ag353
ag255
aS'39429093'
p534
aS'40633534'
p535
aS'72683344'
p536
aS'92665222'
p537
aS'1886996'
p538
asg55
S'10'
p539
sg56
S'Advanced Heuristics'
p540
sg58
g134
sg60
g149
sg61
(iread_data
Room
p541
(dp542
g55
g216
sg56
g217
sbsbaa(lp543
(ischedule
Activity
p544
(dp545
g8
(lp546
g45
ag346
ag347
ag348
ag337
ag509
ag98
ag349
ag351
ag106
ag352
ag353
ag354
ag355
ag356
ag118
ag511
asg55
S'20'
p547
sg56
g362
sg58
g134
sg60
g149
sg61
g111
sba(ischedule
Activity
p548
(dp549
g8
(lp550
g316
ag94
aS'82872148'
p551
ag34
ag97
aS'16912993'
p552
ag23
aS'9731271'
p553
aS'28618400'
p554
aS'1048485'
p555
ag398
ag157
aS'12170832'
p556
ag229
ag74
aS'70939718'
p557
aS'75664412'
p558
ag401
asg55
S'20'
p559
sg56
S'Netwerken en systeembeveiliging'
p560
sg58
g134
sg60
g258
sg61
(iread_data
Room
p561
(dp562
g55
g64
sg56
g65
sbsba(ischedule
Activity
p563
(dp564
g8
(lp565
g478
ag40
aS'76661016'
p566
ag479
ag130
aS'73302736'
p567
ag449
aS'80188025'
p568
aS'62363761'
p569
ag480
aS'79888156'
p570
aS'24875739'
p571
ag481
aS'32705005'
p572
ag80
ag482
ag553
aS'37279234'
p573
aS'23628642'
p574
aS'81155296'
p575
aS'75446434'
p576
ag246
ag89
aS'97135019'
p577
ag37
aS'33672995'
p578
ag507
ag483
ag26
ag248
ag146
ag353
ag166
ag484
aS'28957789'
p579
aS'6709529'
p580
ag271
ag203
aS'51741554'
p581
ag96
aS'3678531'
p582
aS'78735049'
p583
ag322
aS'34173695'
p584
ag288
ag280
aS'93361408'
p585
ag427
ag485
ag93
aS'6939933'
p586
ag349
ag397
aS'65978354'
p587
ag486
ag161
ag524
ag487
ag210
aS'78544592'
p588
ag201
ag15
ag451
ag126
aS'46570285'
p589
aS'22168693'
p590
ag488
ag158
ag196
ag102
aS'56544130'
p591
aS'58040377'
p592
ag197
ag42
ag43
ag489
ag77
aS'56348773'
p593
ag19
aS'53139134'
p594
ag131
ag490
aS'55530367'
p595
ag557
ag46
ag31
ag494
ag491
aS'79167252'
p596
ag232
aS'38179241'
p597
ag51
aS'83415514'
p598
ag492
ag209
ag433
ag293
ag332
aS'78443067'
p599
ag227
aS'77306636'
p600
aS'4546613'
p601
aS'10792879'
p602
aS'10609762'
p603
ag184
ag493
asg55
I1000
sg56
g496
sg58
g59
sg60
I0
sg61
(iread_data
Room
p604
(dp605
g55
g216
sg56
g217
sbsba(ischedule
Activity
p606
(dp607
g8
(lp608
g39
ag407
aS'25557516'
p609
ag334
aS'54772132'
p610
aS'31247305'
p611
ag317
ag86
ag440
aS'18266644'
p612
ag323
aS'19058315'
p613
ag187
ag78
ag186
asg55
g559
sg56
g560
sg58
g134
sg60
g149
sg61
(iread_data
Room
p614
(dp615
g55
g239
sg56
g240
sbsba(ischedule
Activity
p616
(dp617
g8
(lp618
g430
ag36
ag283
ag426
asg55
g368
sg56
g369
sg58
g235
sg60
g236
sg61
(iread_data
Room
p619
(dp620
g55
g152
sg56
g153
sbsba(ischedule
Activity
p621
(dp622
g8
(lp623
g266
ag268
ag270
ag272
ag275
ag279
ag284
ag97
ag287
ag288
ag289
ag293
ag294
ag298
ag74
ag299
ag273
ag277
ag271
asg55
g380
sg56
g301
sg58
g235
sg60
g236
sg61
(iread_data
Room
p624
(dp625
g55
g261
sg56
g262
sbsba(ischedule
Activity
p626
(dp627
g8
(lp628
g506
ag359
ag507
ag181
ag223
ag508
ag358
ag53
ag510
ag71
ag396
ag512
ag513
ag200
ag514
ag291
ag222
ag360
ag248
ag176
ag357
ag350
asg55
g547
sg56
g362
sg58
g134
sg60
g236
sg61
(iread_data
Room
p629
(dp630
g55
g138
sg56
g139
sbsbaaa(lp631
(lp632
(ischedule
Activity
p633
(dp634
g8
(lp635
g17
aS'52304977'
p636
ag126
ag538
ag592
ag493
ag30
ag108
ag316
ag337
ag211
aS'72652638'
p637
ag170
aS'82968410'
p638
aS'7106649'
p639
aS'85236626'
p640
asg55
g233
sg56
g234
sg58
g235
sg60
g149
sg61
g62
sba(ischedule
Activity
p641
(dp642
g8
(lp643
g40
ag130
ag568
ag570
ag572
ag553
ag575
ag89
ag578
ag26
ag353
ag579
ag203
ag582
ag584
ag585
ag93
ag397
ag161
ag210
ag15
ag589
ag158
ag591
ag42
ag77
ag594
ag595
ag31
ag596
ag51
ag209
ag332
ag600
ag603
ag602
ag280
ag567
ag597
asg55
g495
sg56
g496
sg58
g235
sg60
g149
sg61
g341
sba(ischedule
Activity
p644
(dp645
g8
(lp646
g292
ag430
ag204
ag36
ag102
ag283
ag426
aS'61611295'
p647
ag227
ag205
aS'34806836'
p648
ag367
aS'88627897'
p649
asg55
S'10'
p650
sg56
g369
sg58
g134
sg60
g236
sg61
(iread_data
Room
p651
(dp652
g55
g261
sg56
g262
sbsba(ischedule
Activity
p653
(dp654
g8
(lp655
g198
ag202
aS'22699561'
p656
ag245
ag429
ag127
ag514
ag86
aS'96104167'
p657
ag453
ag493
ag246
aS'73980360'
p658
aS'54310617'
p659
aS'46052388'
p660
ag247
ag276
ag12
ag164
ag248
ag159
ag163
ag293
aS'86291592'
p661
aS'45556081'
p662
aS'17575088'
p663
ag50
ag34
ag577
ag175
ag223
ag249
aS'60312776'
p664
aS'34773179'
p665
ag200
ag104
ag179
ag278
ag177
ag250
ag89
ag445
ag275
ag251
aS'13534377'
p666
ag125
aS'3233378'
p667
ag173
ag297
aS'9332762'
p668
aS'57595888'
p669
ag252
ag54
aS'50184318'
p670
aS'65960683'
p671
ag253
ag581
aS'77240949'
p672
ag255
ag254
ag72
asg55
I1000
sg56
g257
sg58
g59
sg60
I0
sg61
g214
sba(ischedule
Activity
p673
(dp674
g8
(lp675
g286
aS'17496687'
p676
ag520
ag160
ag300
aS'19958553'
p677
ag84
ag268
ag254
ag167
ag524
aS'11459236'
p678
ag278
ag48
ag612
ag525
ag521
ag469
ag318
ag523
ag522
asg55
I1000
sg56
g527
sg58
g59
sg60
I0
sg61
(iread_data
Room
p679
(dp680
g55
g113
sg56
g114
sbsba(ischedule
Activity
p681
(dp682
g8
(lp683
g288
ag197
ag554
ag533
ag478
ag157
ag271
ag407
ag10
ag357
ag536
ag101
ag537
ag514
ag535
ag353
ag538
ag16
ag534
ag255
asg55
I1000
sg56
g540
sg58
g59
sg60
I0
sg61
g302
sba(ischedule
Activity
p684
(dp685
g8
(lp686
g366
ag108
ag198
ag207
aS'62356458'
p687
asg55
g650
sg56
g369
sg58
g134
sg60
g135
sg61
(iread_data
Room
p688
(dp689
g55
g152
sg56
g153
sbsbaa(lp690
(ischedule
Activity
p691
(dp692
g8
(lp693
S'85284256'
p694
ag577
aS'72586808'
p695
aS'53267490'
p696
ag275
aS'21677389'
p697
aS'59887191'
p698
ag208
ag17
ag298
aS'64246605'
p699
ag311
ag581
ag91
ag195
ag14
ag185
asg55
g559
sg56
g560
sg58
g134
sg60
g135
sg61
g150
sba(ischedule
Activity
p700
(dp701
g8
(lp702
S'51593625'
p703
ag20
ag482
ag337
ag611
ag483
aS'14309255'
p704
aS'44671041'
p705
ag122
ag105
aS'31103066'
p706
ag119
ag323
ag46
ag430
aS'41153310'
p707
ag104
ag293
ag310
aS'95631564'
p708
ag179
ag367
aS'58565406'
p709
ag205
aS'65318664'
p710
ag687
aS'14072826'
p711
ag100
ag88
ag52
ag452
aS'75599734'
p712
ag555
ag599
ag280
ag395
ag247
ag53
ag24
ag28
ag551
aS'58074656'
p713
ag292
ag41
ag487
ag512
ag664
ag49
ag406
aS'84110134'
p714
ag251
aS'37830626'
p715
aS'99283252'
p716
ag667
ag91
ag601
ag82
aS'27582862'
p717
aS'9287708'
p718
ag434
ag93
ag567
aS'70015932'
p719
ag79
aS'3727435'
p720
ag273
aS'31633723'
p721
ag346
ag109
ag127
ag470
ag279
ag13
ag441
ag448
asg55
I1000
sg56
S'Software engineering'
p722
sg58
g59
sg60
I0
sg61
(iread_data
Room
p723
(dp724
g55
g216
sg56
g217
sbsba(ischedule
Activity
p725
(dp726
g8
(lp727
g678
ag48
ag469
ag521
ag300
ag676
ag84
asg55
S'15'
p728
sg56
g527
sg58
g235
sg60
g149
sg61
g62
sba(ischedule
Activity
p729
(dp730
g8
(lp731
S'13218321'
p732
ag670
ag329
ag338
aS'63111000'
p733
ag398
ag469
ag598
aS'66621166'
p734
ag198
ag716
ag330
ag192
ag278
ag331
ag193
ag588
ag332
ag77
ag19
ag333
ag346
ag271
ag160
ag173
ag428
ag79
ag520
ag172
ag334
aS'18144425'
p735
ag704
ag44
ag599
ag411
ag148
aS'41489515'
p736
aS'11741347'
p737
ag335
aS'27241113'
p738
ag51
ag336
aS'59111489'
p739
ag21
ag337
aS'47462856'
p740
aS'48198668'
p741
ag33
aS'27916487'
p742
ag276
ag199
ag589
ag492
ag159
asg55
I1000
sg56
g340
sg58
g59
sg60
I0
sg61
g302
sba(ischedule
Activity
p743
(dp744
g8
(lp745
g198
ag429
ag657
ag658
ag276
ag159
ag662
ag577
ag664
ag179
ag89
ag666
ag297
ag54
ag72
ag661
asg55
g256
sg56
g257
sg58
g134
sg60
g236
sg61
g111
sba(ischedule
Activity
p746
(dp747
g8
(lp748
g70
ag72
ag76
ag50
ag79
ag80
ag82
ag88
ag90
ag92
ag94
ag98
ag100
ag108
asg55
g420
sg56
g110
sg58
g134
sg60
g149
sg61
g341
sbaa(lp749
(ischedule
Activity
p750
(dp751
g8
(lp752
g193
ag96
ag103
ag223
aS'44391517'
p753
aS'54395877'
p754
ag350
ag179
ag717
ag89
aS'23215240'
p755
aS'90296821'
p756
aS'2550487'
p757
ag592
ag225
ag452
ag190
ag160
ag300
ag640
asg55
S'20'
p758
sg56
S'Programmeren in Java 2'
p759
sg58
g134
sg60
S'6'
p760
sg61
(iread_data
Room
p761
(dp762
g55
g152
sg56
g153
sbsba(ischedule
Activity
p763
(dp764
g8
(lp765
g20
ag337
ag483
ag705
ag105
ag119
ag46
ag707
ag293
ag708
ag367
ag205
ag687
ag100
ag52
ag712
ag599
ag395
ag53
ag28
ag713
ag41
ag512
ag49
ag714
ag715
ag667
ag601
ag717
ag434
ag567
ag79
ag346
ag127
ag279
ag441
ag24
ag721
ag91
asg55
S'40'
p766
sg56
g722
sg58
g134
sg60
g149
sg61
g214
sba(ischedule
Activity
p767
(dp768
g8
(lp769
S'51673172'
p770
ag430
ag716
ag566
aS'76924297'
p771
ag535
ag665
ag229
ag174
ag196
ag401
ag172
aS'74361881'
p772
asg55
g132
sg56
g133
sg58
g134
sg60
g236
sg61
g111
sba(ischedule
Activity
p773
(dp774
g8
(lp775
g202
ag127
ag453
ag659
ag12
ag163
ag663
ag175
ag665
ag278
ag445
ag125
ag668
ag670
ag514
ag246
asg55
S'20'
p776
sg56
g257
sg58
g235
sg60
g149
sg61
(iread_data
Room
p777
(dp778
g55
g239
sg56
g240
sbsba(ischedule
Activity
p779
(dp780
g8
(lp781
g338
ag469
ag198
ag192
ag193
ag77
ag346
ag173
ag520
ag735
ag736
ag738
ag739
ag740
ag589
ag734
asg55
S'20'
p782
sg56
g340
sg58
g134
sg60
g236
sg61
(iread_data
Room
p783
(dp784
g55
g261
sg56
g262
sbsba(ischedule
Activity
p785
(dp786
g8
(lp787
g37
ag399
ag573
aS'26857113'
p788
ag598
ag491
ag25
ag312
aS'88263855'
p789
ag232
ag254
ag296
ag323
ag299
aS'8464817'
p790
ag412
ag596
ag43
asg55
g758
sg56
g759
sg58
g134
sg60
g149
sg61
g62
sba(ischedule
Activity
p791
(dp792
g8
(lp793
g48
ag318
ag320
ag322
ag323
ag17
ag307
ag315
asg55
g502
sg56
g325
sg58
g134
sg60
g135
sg61
g302
sbaa(lp794
(ischedule
Activity
p795
(dp796
g8
(lp797
g427
ag176
ag255
ag283
ag709
ag464
ag668
ag465
ag192
ag355
ag471
ag273
aS'97371272'
p798
ag466
aS'70336464'
p799
ag558
ag470
ag286
ag444
ag467
ag523
ag278
ag19
ag468
aS'93041523'
p800
aS'69086548'
p801
ag704
ag202
ag639
ag21
ag413
ag469
ag521
aS'21192048'
p802
aS'14383795'
p803
ag147
ag85
aS'77264363'
p804
asg55
I1000
sg56
g473
sg58
g59
sg60
I0
sg61
g111
sba(ischedule
Activity
p805
(dp806
g8
(lp807
g506
ag507
ag181
ag223
ag508
ag53
ag510
ag71
ag396
ag511
ag512
ag513
ag200
ag514
ag291
ag248
ag509
ag106
asg55
g361
sg56
g362
sg58
g235
sg60
g236
sg61
g341
sba(ischedule
Activity
p808
(dp809
g8
(lp810
S'47605891'
p811
ag452
aS'5368702'
p812
aS'38329455'
p813
aS'23391676'
p814
aS'91139627'
p815
ag315
aS'65003379'
p816
aS'44940353'
p817
ag721
aS'72547110'
p818
ag160
aS'39659121'
p819
ag579
ag228
ag290
ag212
aS'7492204'
p820
ag74
ag367
aS'23798155'
p821
ag358
ag491
ag602
ag10
aS'51186803'
p822
ag42
ag480
aS'63408522'
p823
aS'56988998'
p824
ag25
ag659
ag571
ag589
ag404
aS'79366078'
p825
ag451
ag295
ag672
ag266
ag394
ag144
ag611
ag798
aS'79858178'
p826
ag30
ag440
ag801
aS'99272880'
p827
ag267
ag388
ag446
ag177
ag572
ag392
ag740
ag612
ag349
ag714
ag26
ag199
ag521
ag52
ag553
ag119
ag232
ag308
ag82
aS'82688900'
p828
aS'37498675'
p829
ag583
aS'39919665'
p830
ag105
aS'63955238'
p831
aS'10872825'
p832
ag76
ag12
ag771
ag431
ag78
ag101
ag470
aS'34262212'
p833
ag434
asg55
I1000
sg56
S'Kansrekenen 2'
p834
sg58
g59
sg60
I0
sg61
(iread_data
Room
p835
(dp836
g55
g216
sg56
g217
sbsba(ischedule
Activity
p837
(dp838
g8
(lp839
g554
ag492
ag536
ag266
ag269
ag522
ag171
ag176
ag436
ag514
ag427
ag86
ag346
ag512
aS'59289233'
p840
ag126
ag821
aS'49683101'
p841
ag662
ag719
aS'13798030'
p842
asg55
I1000
sg56
S'Architectuur en computerorganisatie'
p843
sg58
g59
sg60
I0
sg61
(iread_data
Room
p844
(dp845
g55
g138
sg56
g139
sbsba(ischedule
Activity
p846
(dp847
g8
(lp848
g287
ag310
ag313
ag315
ag317
ag319
ag321
ag316
ag323
ag36
asg55
S'10'
p849
sg56
g325
sg58
g235
sg60
g149
sg61
(iread_data
Room
p850
(dp851
g55
g64
sg56
g65
sbsba(ischedule
Activity
p852
(dp853
g8
(lp854
g676
ag160
ag677
ag167
ag678
ag612
ag300
asg55
g526
sg56
g527
sg58
g134
sg60
g149
sg61
(iread_data
Room
p855
(dp856
g55
g152
sg56
g153
sbsba(ischedule
Activity
p857
(dp858
g8
(lp859
g640
ag824
ag733
ag109
ag394
ag397
ag491
ag96
ag841
ag821
aS'67625383'
p860
ag323
ag44
ag672
aS'40791377'
p861
ag119
aS'33252501'
p862
ag404
ag788
aS'90067329'
p863
aS'2079771'
p864
ag204
asg55
I1000
sg56
S'Machine Learning'
p865
sg58
g59
sg60
I0
sg61
(iread_data
Room
p866
(dp867
g55
g261
sg56
g262
sbsbaa(lp868
(ischedule
Activity
p869
(dp870
g8
(lp871
g292
ag49
ag366
ag430
ag687
ag108
ag204
ag439
ag198
ag36
ag649
ag367
ag102
ag286
ag207
ag283
ag285
ag205
ag426
ag648
ag227
ag647
asg55
I1000
sg56
g369
sg58
g59
sg60
I0
sg61
g62
sba(ischedule
Activity
p872
(dp873
g8
(lp874
S'3407554'
p875
ag704
ag12
aS'2317551'
p876
ag537
aS'65852230'
p877
ag492
aS'95007221'
p878
ag444
ag125
aS'75759231'
p879
ag228
ag812
ag75
ag207
ag29
ag204
ag37
ag338
ag122
aS'79033175'
p880
aS'80135353'
p881
ag485
ag161
ag143
aS'94687383'
p882
aS'15911353'
p883
ag467
ag453
ag106
ag841
aS'13284244'
p884
asg55
S'40'
p885
sg56
S'Compilerbouw'
p886
sg58
g235
sg60
g149
sg61
(iread_data
Room
p887
(dp888
g55
g113
sg56
g114
sbsba(ischedule
Activity
p889
(dp890
g8
(lp891
g388
ag173
ag194
ag313
ag27
ag268
ag394
ag397
ag292
ag75
ag224
ag101
ag228
ag283
ag319
ag410
asg55
S'20'
p892
sg56
g416
sg58
g235
sg60
g236
sg61
(iread_data
Room
p893
(dp894
g55
g152
sg56
g153
sbsba(ischedule
Activity
p895
(dp896
g8
(lp897
g732
ag469
ag198
ag192
ag193
ag77
ag346
ag173
ag520
ag735
ag599
ag736
ag738
ag739
ag740
ag742
ag589
ag741
ag734
asg55
g339
sg56
g340
sg58
g235
sg60
g236
sg61
(iread_data
Room
p898
(dp899
g55
g261
sg56
g262
sbsba(ischedule
Activity
p900
(dp901
g8
g797
sg55
I1000
sg56
g473
sg58
g59
sg60
I0
sg61
g214
sba(ischedule
Activity
p902
(dp903
g8
(lp904
g147
ag222
ag390
ag391
ag100
ag157
ag393
ag396
ag399
ag400
ag402
ag405
ag407
ag409
ag411
ag413
ag415
ag21
asg55
g892
sg56
g416
sg58
g235
sg60
g135
sg61
g341
sba(ischedule
Activity
p905
(dp906
g8
(lp907
S'73350019'
p908
ag414
aS'18477924'
p909
ag147
ag162
ag19
ag38
aS'58480929'
p910
ag11
ag434
ag440
ag403
aS'5595824'
p911
ag449
ag533
ag271
ag267
ag612
ag591
ag222
ag212
ag158
ag578
ag310
ag821
ag567
ag292
ag710
ag164
aS'97838175'
p912
ag208
ag177
ag568
ag401
ag413
ag272
aS'34900967'
p913
ag124
ag229
ag446
aS'82854435'
p914
ag227
ag695
aS'78822885'
p915
ag395
aS'14637758'
p916
ag190
ag172
ag280
asg55
I1000
sg56
S'Analysemethoden en -technieken'
p917
sg58
g59
sg60
I0
sg61
g302
sbaaa(lp918
(lp919
(ischedule
Activity
p920
(dp921
g8
(lp922
g703
ag482
ag611
ag704
ag122
ag706
ag323
ag430
ag104
ag310
ag179
ag709
ag710
ag711
ag88
ag452
ag555
ag280
ag247
ag551
ag292
ag487
ag664
ag406
ag251
ag716
ag82
ag718
ag93
ag719
ag720
ag109
ag470
ag13
ag448
ag273
asg55
g766
sg56
g722
sg58
g134
sg60
g236
sg61
(iread_data
Room
p923
(dp924
g55
g138
sg56
g139
sbsba(ischedule
Activity
p925
(dp926
g8
(lp927
S'42297781'
p928
ag107
ag270
ag13
aS'47260040'
p929
ag772
ag507
ag202
ag523
ag770
ag478
ag678
asg55
S'15'
p930
sg56
S'Compilerbouw practicum'
p931
sg58
g134
sg60
g149
sg61
(iread_data
Room
p932
(dp933
g55
g261
sg56
g262
sbsba(ischedule
Activity
p934
(dp935
g8
(lp936
g875
ag704
ag876
ag537
ag877
ag566
ag444
ag125
ag228
ag708
ag812
ag282
ag75
ag204
ag37
ag338
aS'43689934'
p937
ag122
ag881
ag485
ag161
ag143
ag882
ag883
ag467
ag453
ag737
asg55
S'40'
p938
sg56
g886
sg58
g134
sg60
g149
sg61
(iread_data
Room
p939
(dp940
g55
g239
sg56
g240
sbsba(ischedule
Activity
p941
(dp942
g8
(lp943
g656
ag514
ag493
ag660
ag164
ag293
ag50
ag223
ag200
ag177
ag275
ag667
ag669
ag671
ag581
asg55
g256
sg56
g257
sg58
g134
sg60
g135
sg61
(iread_data
Room
p944
(dp945
g55
g152
sg56
g153
sbsba(ischedule
Activity
p946
(dp947
g8
(lp948
g10
ag16
ag19
ag22
ag25
ag28
ag31
ag34
ag40
ag43
ag46
ag29
ag48
asg55
g375
sg56
g57
sg58
g235
sg60
g236
sg61
g62
sba(ischedule
Activity
p949
(dp950
g8
g839
sg55
I1000
sg56
g843
sg58
g59
sg60
I0
sg61
(iread_data
Room
p951
(dp952
g55
g216
sg56
g217
sbsba(ischedule
Activity
p953
(dp954
g8
(lp955
g255
aS'69634191'
p956
aS'20374340'
p957
ag357
aS'28055464'
p958
aS'65675896'
p959
ag69
ag347
ag697
ag757
ag94
aS'64768422'
p960
aS'19214659'
p961
ag399
ag812
ag575
ag771
ag87
ag597
ag95
ag601
ag566
ag17
ag457
ag168
asg55
I1000
sg56
S'Interactie-ontwerp'
p962
sg58
g59
sg60
I0
sg61
(iread_data
Room
p963
(dp964
g55
g113
sg56
g114
sbsbaa(lp965
(ischedule
Activity
p966
(dp967
g8
(lp968
g198
ag429
ag657
ag658
ag276
ag159
ag662
ag577
ag664
ag179
ag89
ag666
ag297
ag54
ag581
ag72
ag200
asg55
g776
sg56
g257
sg58
g235
sg60
g236
sg61
g898
sba(ischedule
Activity
p969
(dp970
g8
(lp971
g316
aS'32183908'
p972
ag687
ag321
ag961
ag13
aS'48503689'
p973
ag661
ag444
ag34
ag464
aS'63573738'
p974
ag338
asg55
S'15'
p975
sg56
S'Project Numerical Recipes'
p976
sg58
g134
sg60
g149
sg61
(iread_data
Room
p977
(dp978
g55
g64
sg56
g65
sbsba(ischedule
Activity
p979
(dp980
g8
(lp981
g20
ag337
ag483
ag705
ag105
ag119
ag46
ag707
ag293
ag708
ag367
ag205
ag687
ag100
ag52
ag712
ag395
ag53
ag28
ag713
ag41
ag49
ag714
ag715
ag667
ag601
ag717
ag434
ag567
ag79
ag273
ag127
ag279
ag441
ag704
ag292
ag406
asg55
S'40'
p982
sg56
g722
sg58
g235
sg60
g149
sg61
g111
sba(ischedule
Activity
p983
(dp984
g8
(lp985
g286
ag520
ag254
ag278
ag612
ag318
ag522
ag160
ag525
ag167
ag268
ag523
ag524
ag677
asg55
g728
sg56
g527
sg58
g235
sg60
g236
sg61
(iread_data
Room
p986
(dp987
g55
g152
sg56
g153
sbsba(ischedule
Activity
p988
(dp989
g8
(lp990
g15
ag21
ag24
ag27
ag30
ag33
ag36
ag42
ag48
ag51
ag49
asg55
g384
sg56
g57
sg58
g134
sg60
g135
sg61
g341
sba(ischedule
Activity
p991
(dp992
g8
g810
sg55
I1000
sg56
g834
sg58
g59
sg60
I0
sg61
(iread_data
Room
p993
(dp994
g55
g216
sg56
g217
sbsbaa(lp995
(ischedule
Activity
p996
(dp997
g8
g655
sg55
I1000
sg56
g257
sg58
g59
sg60
I0
sg61
g214
sba(ischedule
Activity
p998
(dp999
g8
(lp1000
g703
ag482
ag611
ag122
ag706
ag323
ag430
ag104
ag310
ag179
ag709
ag710
ag711
ag88
ag452
ag555
ag280
ag247
ag24
ag551
ag487
ag664
ag251
ag716
ag91
ag82
ag718
ag93
ag719
ag720
ag721
ag109
ag470
ag13
ag448
ag346
ag599
ag512
asg55
g982
sg56
g722
sg58
g235
sg60
g236
sg61
(iread_data
Room
p1001
(dp1002
g55
g138
sg56
g139
sbsba(ischedule
Activity
p1003
(dp1004
g8
(lp1005
g352
ag288
aS'88597745'
p1006
ag733
ag51
aS'73196865'
p1007
ag194
ag80
ag446
ag882
aS'12782624'
p1008
ag827
ag204
ag308
ag431
ag321
aS'10702778'
p1009
ag26
aS'88519892'
p1010
ag582
asg55
g758
sg56
g759
sg58
g134
sg60
g236
sg61
(iread_data
Room
p1011
(dp1012
g55
g239
sg56
g240
sbsba(ischedule
Activity
p1013
(dp1014
g8
(lp1015
g427
ag255
ag709
ag668
ag192
ag798
ag799
ag444
ag523
ag19
ag800
ag704
ag639
ag413
ag521
ag803
ag85
ag273
ag801
ag176
ag802
ag558
ag804
asg55
g472
sg56
g473
sg58
g235
sg60
g236
sg61
g62
sbaa(lp1016
(ischedule
Activity
p1017
(dp1018
g8
(lp1019
g245
ag86
ag247
ag248
ag661
ag249
ag104
ag250
ag251
ag173
ag252
ag253
ag254
ag672
asg55
g776
sg56
g257
sg58
g235
sg60
g258
sg61
g150
sba(ischedule
Activity
p1020
(dp1021
g8
g871
sg55
I1000
sg56
g369
sg58
g59
sg60
I0
sg61
g302
sba(ischedule
Activity
p1022
(dp1023
g8
(lp1024
g639
ag17
ag146
ag636
ag221
ag638
ag69
ag126
ag109
ag538
ag222
ag592
ag223
ag493
ag224
ag231
ag164
ag30
ag225
ag108
ag640
ag316
ag226
ag337
ag227
ag211
ag228
ag232
ag229
ag637
ag230
ag170
asg55
I1000
sg56
g234
sg58
g59
sg60
I0
sg61
g214
sba(ischedule
Activity
p1025
(dp1026
g8
g9
sg55
I1000
sg56
g57
sg58
g59
sg60
I0
sg61
(iread_data
Room
p1027
(dp1028
g55
g64
sg56
g65
sbsba(ischedule
Activity
p1029
(dp1030
g8
(lp1031
g671
ag875
ag664
ag704
ag884
ag12
ag661
ag876
ag165
ag537
aS'88636924'
p1032
ag877
ag790
ag566
ag712
ag492
ag861
ag878
ag491
ag444
ag841
ag125
ag469
ag879
ag753
ag228
aS'34110913'
p1033
ag708
ag440
ag812
ag558
ag282
ag333
ag75
ag41
ag207
ag737
ag29
ag329
ag204
ag610
ag37
ag367
ag338
ag94
ag937
ag175
ag122
ag911
ag880
ag171
ag881
ag864
ag485
ag45
ag161
ag596
ag143
ag973
ag882
ag85
ag883
ag602
ag467
aS'9067939'
p1034
ag453
aS'76802764'
p1035
ag106
aS'7957843'
p1036
asg55
I1000
sg56
g886
sg58
g59
sg60
I0
sg61
g111
sba(ischedule
Activity
p1037
(dp1038
g8
(lp1039
g70
ag72
ag74
ag76
ag50
ag79
ag80
ag82
ag84
ag86
ag88
ag90
ag92
ag94
ag96
ag98
ag100
ag106
ag108
ag18
ag105
ag89
asg55
S'25'
p1040
sg56
g110
sg58
g235
sg60
g149
sg61
(iread_data
Room
p1041
(dp1042
g55
g239
sg56
g240
sbsba(ischedule
Activity
p1043
(dp1044
g8
(lp1045
g202
ag127
ag453
ag659
ag12
ag163
ag663
ag175
ag665
ag278
ag445
ag125
ag668
ag670
ag672
asg55
g256
sg56
g257
sg58
g134
sg60
g149
sg61
(iread_data
Room
p1046
(dp1047
g55
g261
sg56
g262
sbsbaa(lp1048
(ischedule
Activity
p1049
(dp1050
g8
g655
sg55
I1000
sg56
g257
sg58
g59
sg60
I0
sg61
g214
sba(ischedule
Activity
p1051
(dp1052
g8
(lp1053
g15
ag18
ag21
ag24
ag27
ag30
ag33
ag36
ag39
ag42
ag45
ag51
ag54
ag37
ag35
ag13
ag14
ag49
ag26
asg55
g375
sg56
g57
sg58
g235
sg60
g135
sg61
g302
sba(ischedule
Activity
p1054
(dp1055
g8
(lp1056
g287
ag310
ag313
ag317
ag319
ag321
ag108
ag50
ag311
ag283
ag314
ag273
asg55
g502
sg56
g325
sg58
g134
sg60
g149
sg61
(iread_data
Room
p1057
(dp1058
g55
g261
sg56
g262
sbsba(ischedule
Activity
p1059
(dp1060
g8
(lp1061
g431
ag286
ag396
ag144
ag478
ag290
aS'123355'
p1062
ag569
ag179
ag974
aS'5590289'
p1063
ag661
aS'535689'
p1064
ag1036
asg55
g559
sg56
g560
sg58
g134
sg60
g236
sg61
(iread_data
Room
p1065
(dp1066
g55
g152
sg56
g153
sbsba(ischedule
Activity
p1067
(dp1068
g8
(lp1069
g69
ag71
ag73
ag75
ag77
ag78
ag81
ag83
ag85
ag87
ag91
ag93
ag95
ag97
ag99
ag101
ag103
ag107
ag109
ag102
ag104
asg55
g1040
sg56
g110
sg58
g235
sg60
g236
sg61
(iread_data
Room
p1070
(dp1071
g55
g113
sg56
g114
sbsbaaa(lp1072
(lp1073
(ischedule
Activity
p1074
(dp1075
g8
g306
sg55
I1000
sg56
g325
sg58
g59
sg60
I0
sg61
g111
sba(ischedule
Activity
p1076
(dp1077
g8
(lp1078
g670
ag733
ag598
ag716
ag278
ag588
ag19
ag271
ag428
ag172
ag704
ag411
ag737
ag51
ag21
ag741
ag276
ag492
ag336
ag160
ag599
asg55
g782
sg56
g340
sg58
g134
sg60
g149
sg61
(iread_data
Room
p1079
(dp1080
g55
g64
sg56
g65
sbsba(ischedule
Activity
p1081
(dp1082
g8
g859
sg55
I1000
sg56
g865
sg58
g59
sg60
I0
sg61
g341
sba(ischedule
Activity
p1083
(dp1084
g8
(lp1085
g398
ag705
ag913
aS'51791169'
p1086
ag366
aS'28943658'
p1087
ag881
ag480
ag50
ag74
ag414
ag555
ag170
ag411
ag197
ag84
ag27
aS'73893840'
p1088
ag175
asg55
g758
sg56
g759
sg58
g134
sg60
S'5'
p1089
sg61
g150
sba(ischedule
Activity
p1090
(dp1091
g8
(lp1092
g566
ag569
ag571
ag80
ag573
ag576
ag577
ag507
ag248
ag580
ag581
ag583
ag288
ag427
ag586
ag587
ag524
ag588
ag451
ag590
ag196
ag592
ag43
ag593
ag131
ag557
ag232
ag598
ag433
ag599
ag601
ag184
ag19
ag574
asg55
g495
sg56
g496
sg58
g235
sg60
g135
sg61
(iread_data
Room
p1093
(dp1094
g55
g216
sg56
g217
sbsba(ischedule
Activity
p1095
(dp1096
g8
(lp1097
g833
aS'7386961'
p1098
ag158
ag429
ag167
ag814
aS'39905995'
p1099
aS'63096281'
p1100
ag119
ag610
ag668
ag75
ag661
ag315
ag876
ag973
asg55
g758
sg56
g759
sg58
g134
sg60
g135
sg61
(iread_data
Room
p1101
(dp1102
g55
g261
sg56
g262
sbsba(ischedule
Activity
p1103
(dp1104
g8
g387
sg55
I1000
sg56
g416
sg58
g59
sg60
I0
sg61
(iread_data
Room
p1105
(dp1106
g55
g138
sg56
g139
sbsbaa(lp1107
(ischedule
Activity
p1108
(dp1109
g8
(lp1110
g586
aS'21070547'
p1111
aS'34691309'
p1112
ag38
aS'40911986'
p1113
aS'19662602'
p1114
aS'37419523'
p1115
ag288
ag41
ag470
ag554
ag203
ag714
ag400
ag106
ag182
aS'63939720'
p1116
asg55
g975
sg56
g976
sg58
g134
sg60
g135
sg61
g898
sba(ischedule
Activity
p1117
(dp1118
g8
g955
sg55
I1000
sg56
g962
sg58
g59
sg60
I0
sg61
(iread_data
Room
p1119
(dp1120
g55
g239
sg56
g240
sbsba(ischedule
Activity
p1121
(dp1122
g8
(lp1123
g431
ag827
ag669
ag120
aS'1695839'
p1124
ag162
ag145
ag803
ag104
ag329
ag269
ag28
aS'44151631'
p1125
aS'51472074'
p1126
ag232
asg55
g930
sg56
g931
sg58
g134
sg60
g236
sg61
g62
sba(ischedule
Activity
p1127
(dp1128
g8
g1031
sg55
I1000
sg56
g886
sg58
g59
sg60
I0
sg61
(iread_data
Room
p1129
(dp1130
g55
g138
sg56
g139
sbsbaa(lp1131
(ischedule
Activity
p1132
(dp1133
g8
(lp1134
g687
ag439
ag649
ag286
ag285
ag648
ag204
ag108
ag292
ag647
asg55
g368
sg56
g369
sg58
g235
sg60
g149
sg61
(iread_data
Room
p1135
(dp1136
g55
g261
sg56
g262
sbsba(ischedule
Activity
p1137
(dp1138
g8
(lp1139
S'90103047'
p1140
ag30
aS'81116418'
p1141
ag1036
ag161
ag453
ag163
ag451
ag664
ag391
ag404
ag757
ag274
ag884
asg55
g975
sg56
g976
sg58
g134
sg60
g236
sg61
(iread_data
Room
p1142
(dp1143
g55
g152
sg56
g153
sbsba(ischedule
Activity
p1144
(dp1145
g8
g505
sg55
I1000
sg56
g362
sg58
g59
sg60
I0
sg61
g341
sba(ischedule
Activity
p1146
(dp1147
g8
(lp1148
g670
ag733
ag598
ag716
ag278
ag588
ag19
ag271
ag428
ag172
ag704
ag411
ag737
ag51
ag21
ag276
ag492
ag398
asg55
g339
sg56
g340
sg58
g235
sg60
g149
sg61
(iread_data
Room
p1149
(dp1150
g55
g64
sg56
g65
sbsba(ischedule
Activity
p1151
(dp1152
g8
(lp1153
g100
ag123
aS'64418623'
p1154
ag959
ag24
ag72
ag80
aS'55103073'
p1155
ag1064
aS'91250534'
p1156
ag755
ag875
aS'5892092'
p1157
asg55
g930
sg56
g931
sg58
g134
sg60
g135
sg61
(iread_data
Room
p1158
(dp1159
g55
g216
sg56
g217
sbsba(ischedule
Activity
p1160
(dp1161
g8
(lp1162
g671
ag664
ag661
ag165
ag1032
ag790
ag712
ag861
ag491
ag469
ag753
ag1033
ag440
ag558
ag333
ag41
ag737
ag329
ag610
ag367
ag94
ag175
ag911
ag171
ag864
ag45
ag596
ag973
ag85
ag602
ag1034
ag1035
ag1036
ag282
ag937
ag566
ag708
asg55
g885
sg56
g886
sg58
g235
sg60
g236
sg61
(iread_data
Room
p1163
(dp1164
g55
g113
sg56
g114
sbsba(ischedule
Activity
p1165
(dp1166
g8
(lp1167
g159
ag25
ag164
ag16
ag167
ag128
ag169
ag171
ag173
ag175
ag177
ag22
ag86
ag181
ag183
ag184
ag186
ag188
ag190
ag71
ag97
ag77
ag194
ag198
ag199
ag108
ag202
ag204
ag31
ag207
ag208
ag210
ag212
ag203
asg55
S'40'
p1168
sg56
g213
sg58
g235
sg60
g149
sg61
(iread_data
Room
p1169
(dp1170
g55
g138
sg56
g139
sbsbaa(lp1171
(ischedule
Activity
p1172
(dp1173
g8
(lp1174
g656
ag493
ag660
ag164
ag293
ag50
ag223
ag177
ag275
ag669
ag671
ag255
ag34
ag667
asg55
g776
sg56
g257
sg58
g235
sg60
g135
sg61
g898
sba(ischedule
Activity
p1175
(dp1176
g8
(lp1177
g157
ag158
ag160
ag162
ag163
ag165
ag166
ag75
ag168
ag170
ag172
ag174
ag176
ag178
ag179
ag180
ag182
ag33
ag185
ag187
ag189
ag191
ag81
ag192
ag193
ag195
ag197
ag83
ag200
ag201
ag205
ag206
ag54
ag209
ag211
ag26
ag196
ag161
asg55
g1168
sg56
g213
sg58
g235
sg60
g236
sg61
g111
sba(ischedule
Activity
p1178
(dp1179
g8
(lp1180
g329
ag398
ag330
ag331
ag332
ag333
ag79
ag334
ag44
ag148
ag335
ag337
ag33
ag199
ag159
ag732
ag742
asg55
g782
sg56
g340
sg58
g134
sg60
g135
sg61
g150
sba(ischedule
Activity
p1181
(dp1182
g8
(lp1183
g10
ag13
ag16
ag19
ag25
ag28
ag31
ag34
ag37
ag40
ag43
ag46
ag54
ag12
ag45
ag18
asg55
g384
sg56
g57
sg58
g134
sg60
g236
sg61
(iread_data
Room
p1184
(dp1185
g55
g216
sg56
g217
sbsba(ischedule
Activity
p1186
(dp1187
g8
(lp1188
g49
ag439
ag286
ag285
asg55
g650
sg56
g369
sg58
g134
sg60
g149
sg61
g62
sba(ischedule
Activity
p1189
(dp1190
g8
(lp1191
g308
ag311
ag314
ag48
ag318
ag320
ag322
ag283
ag324
ag307
ag104
ag108
ag17
asg55
g849
sg56
g325
sg58
g235
sg60
g135
sg61
(iread_data
Room
p1192
(dp1193
g55
g239
sg56
g240
sbsba(ischedule
Activity
p1194
(dp1195
g8
g425
sg55
I1000
sg56
g458
sg58
g59
sg60
I0
sg61
(iread_data
Room
p1196
(dp1197
g55
g138
sg56
g139
sbsbaa(lp1198
(ischedule
Activity
p1199
(dp1200
g8
(lp1201
g671
ag664
ag884
ag661
ag165
ag1032
ag790
ag712
ag861
ag491
ag841
ag469
ag1033
ag440
ag558
ag333
ag41
ag329
ag610
ag367
ag94
ag175
ag911
ag171
ag864
ag45
ag596
ag973
ag85
ag602
ag1034
ag1035
ag1036
ag878
ag29
ag492
ag12
ag879
ag106
ag207
ag753
ag880
asg55
g938
sg56
g886
sg58
g134
sg60
g236
sg61
g111
sba(ischedule
Activity
p1202
(dp1203
g8
(lp1204
g360
ag76
ag249
ag553
ag820
ag457
ag510
ag483
ag246
ag83
ag468
ag252
ag694
ag703
ag707
aS'64053722'
p1205
ag267
asg55
g758
sg56
g759
sg58
g134
sg60
g258
sg61
(iread_data
Room
p1206
(dp1207
g55
g64
sg56
g65
sbsba(ischedule
Activity
p1208
(dp1209
g8
g675
sg55
I1000
sg56
g527
sg58
g59
sg60
I0
sg61
g302
sba(ischedule
Activity
p1210
(dp1211
g8
(lp1212
g309
ag312
ag273
ag50
asg55
g849
sg56
g325
sg58
g235
sg60
g236
sg61
g341
sba(ischedule
Activity
p1213
(dp1214
g8
(lp1215
g43
ag163
ag389
ag35
ag189
ag392
ag148
ag395
ag398
ag122
ag401
ag404
ag406
ag408
ag412
ag414
ag403
asg55
g892
sg56
g416
sg58
g235
sg60
g149
sg61
g898
sba(ischedule
Activity
p1216
(dp1217
g8
(lp1218
g288
ag554
ag478
ag271
ag157
ag514
ag16
ag10
asg55
g539
sg56
g540
sg58
g134
sg60
g236
sg61
(iread_data
Room
p1219
(dp1220
g55
g216
sg56
g217
sbsbaaa(lp1221
(lp1222
a(lp1223
a(lp1224
a(lp1225
a(lp1226
aasS'timeslot_dict'
p1227
(dp1228
I0
S'9:00-11:00'
p1229
sI1
S'11:00-13:00'
p1230
sI2
S'13:00-15:00'
p1231
sI3
S'15:00-17:00'
p1232
sI4
S'17:00-19:00'
p1233
ssS'day_dict'
p1234
(dp1235
I0
S'Monday'
p1236
sI1
S'Tuesday'
p1237
sI2
S'Wednesday'
p1238
sI3
S'Thursday'
p1239
sI4
S'Friday'
p1240
ssb.