(ischedule
Schedule
p0
(dp1
S'timetable'
p2
(lp3
(lp4
(lp5
(ischedule
Activity
p6
(dp7
S'participants'
p8
(lp9
S'95007221'
p10
aS'42778953'
p11
aS'40791377'
p12
aS'88752563'
p13
aS'31194811'
p14
aS'37770881'
p15
aS'83266686'
p16
aS'39459642'
p17
aS'11915563'
p18
aS'2317551'
p19
aS'75759231'
p20
aS'34872117'
p21
aS'43689934'
p22
aS'6723948'
p23
aS'24613625'
p24
aS'44391517'
p25
aS'5595824'
p26
aS'76661016'
p27
aS'10792879'
p28
aS'72895450'
p29
aS'65960683'
p30
aS'14309255'
p31
aS'15911353'
p32
aS'9067939'
p33
aS'27950803'
p34
aS'84524083'
p35
aS'5368702'
p36
aS'11741347'
p37
aS'54772132'
p38
aS'86988337'
p39
asS'capacity'
p40
S'40'
p41
sS'name'
p42
S'Compilerbouw'
p43
sS'ttype'
p44
S'tutorials'
p45
sS'group_id'
p46
S'2'
p47
sS'room'
p48
(iread_data
Room
p49
(dp50
g40
S'60'
p51
sg42
S'C1.112'
p52
sbsba(ischedule
Activity
p53
(dp54
g8
(lp55
S'7957843'
p56
aS'36903574'
p57
aS'70939718'
p58
aS'56121590'
p59
aS'59887191'
p60
aS'535689'
p61
aS'44901052'
p62
aS'33930505'
p63
aS'14398123'
p64
aS'57467488'
p65
aS'62736669'
p66
aS'72456780'
p67
aS'82872148'
p68
aS'72586808'
p69
aS'18266644'
p70
aS'38499176'
p71
aS'97135019'
p72
aS'5590289'
p73
aS'81200278'
p74
aS'16912993'
p75
aS'37744525'
p76
asg40
S'20'
p77
sg42
S'Netwerken en systeembeveiliging'
p78
sg44
S'labs'
p79
sg46
S'1'
p80
sg48
(iread_data
Room
p81
(dp82
g40
S'41'
p83
sg42
S'A1.04'
p84
sbsba(ischedule
Activity
p85
(dp86
g8
(lp87
S'21964491'
p88
ag65
aS'41585485'
p89
aS'1665980'
p90
aS'78136904'
p91
aS'50143947'
p92
aS'58592894'
p93
aS'34765676'
p94
aS'40343779'
p95
aS'51509565'
p96
aS'51566595'
p97
aS'3707829'
p98
aS'43902015'
p99
aS'46701583'
p100
ag29
aS'77376714'
p101
aS'15902055'
p102
ag39
aS'26260141'
p103
aS'12077419'
p104
aS'67817269'
p105
aS'5976174'
p106
aS'14671406'
p107
aS'82689818'
p108
aS'23652927'
p109
aS'52715680'
p110
aS'8522855'
p111
aS'19540225'
p112
aS'23983476'
p113
aS'44828429'
p114
aS'41527759'
p115
aS'88596522'
p116
aS'3474870'
p117
aS'21095566'
p118
aS'64554442'
p119
aS'91527663'
p120
aS'96453361'
p121
aS'64947290'
p122
aS'66433883'
p123
asg40
S'25'
p124
sg42
S'Algoritmen en complexiteit'
p125
sg44
g45
sg46
g80
sg48
(iread_data
Room
p126
(dp127
g40
S'48'
p128
sg42
S'B0.201'
p129
sbsba(ischedule
Activity
p130
(dp131
g8
(lp132
S'28359697'
p133
aS'21029457'
p134
aS'79617364'
p135
aS'3168419'
p136
aS'22731474'
p137
aS'89985072'
p138
aS'22826928'
p139
aS'56749879'
p140
ag23
ag121
aS'58522654'
p141
aS'85335143'
p142
aS'44868097'
p143
aS'96054456'
p144
aS'43680781'
p145
ag63
ag24
aS'70878567'
p146
aS'4568018'
p147
aS'15051051'
p148
aS'20883994'
p149
aS'53202517'
p150
aS'14591033'
p151
aS'33877725'
p152
aS'6913074'
p153
ag74
aS'5298748'
p154
aS'42196732'
p155
aS'54026378'
p156
aS'56815156'
p157
aS'59544049'
p158
aS'247918'
p159
aS'74131924'
p160
aS'73236988'
p161
aS'88176729'
p162
ag88
aS'11068043'
p163
aS'7308727'
p164
aS'66120270'
p165
aS'77831658'
p166
aS'29526540'
p167
aS'30195935'
p168
aS'64600457'
p169
aS'30050930'
p170
aS'14816774'
p171
asg40
I1000
sg42
S'Bioinformatica'
p172
sg44
S'lectures'
p173
sg46
I0
sg48
(iread_data
Room
p174
(dp175
g40
S'117'
p176
sg42
S'C0.110'
p177
sbsba(ischedule
Activity
p178
(dp179
g8
(lp180
g89
aS'77896638'
p181
aS'31416266'
p182
aS'28943658'
p183
aS'9332762'
p184
asg40
S'20'
p185
sg42
S'Programmeren in Java 2'
p186
sg44
g79
sg46
S'6'
p187
sg48
(iread_data
Room
p188
(dp189
g40
S'22'
p190
sg42
S'A1.06'
p191
sbsba(ischedule
Activity
p192
(dp193
g8
(lp194
S'72796858'
p195
aS'88627897'
p196
aS'5517869'
p197
aS'27298319'
p198
aS'62356458'
p199
ag18
ag62
aS'62872965'
p200
ag156
asg40
S'10'
p201
sg42
S'Autonomous Agents 2'
p202
sg44
g45
sg46
g47
sg48
(iread_data
Room
p203
(dp204
g40
S'20'
p205
sg42
S'A1.08'
p206
sbsba(ischedule
Activity
p207
(dp208
g8
(lp209
g108
aS'1696500'
p210
asg40
S'20'
p211
sg42
S'Collectieve Intelligentie'
p212
sg44
g79
sg46
g47
sg48
(iread_data
Room
p213
(dp214
g40
S'56'
p215
sg42
S'A1.10'
p216
sbsbaa(lp217
(ischedule
Activity
p218
(dp219
g8
(lp220
S'68315599'
p221
aS'32204977'
p222
aS'41578612'
p223
aS'6249823'
p224
aS'75664412'
p225
aS'40434933'
p226
aS'4697362'
p227
aS'11996292'
p228
aS'14383795'
p229
aS'75521763'
p230
aS'69086548'
p231
aS'97371272'
p232
aS'77264363'
p233
aS'47982619'
p234
aS'70336464'
p235
aS'10149535'
p236
ag145
aS'22323043'
p237
aS'76487754'
p238
ag31
aS'58565406'
p239
aS'21192048'
p240
aS'12430748'
p241
ag142
ag14
aS'77636749'
p242
aS'48308205'
p243
aS'36785409'
p244
aS'37110913'
p245
aS'23547619'
p246
ag184
aS'93041523'
p247
aS'92496780'
p248
ag62
aS'26406342'
p249
aS'89338938'
p250
aS'7106649'
p251
ag104
asg40
I1000
sg42
S'Technology for games'
p252
sg44
g173
sg46
I0
sg48
(iread_data
Room
p253
(dp254
g40
g83
sg42
g84
sbsba(ischedule
Activity
p255
(dp256
g8
(lp257
S'77392404'
p258
aS'41790793'
p259
aS'28358060'
p260
aS'5615125'
p261
aS'24891081'
p262
ag117
aS'22288615'
p263
aS'17092717'
p264
aS'20618153'
p265
aS'78243495'
p266
ag224
ag99
ag152
aS'53512831'
p267
aS'94930277'
p268
aS'2416751'
p269
ag29
aS'61443567'
p270
aS'43460038'
p271
aS'27064249'
p272
aS'10698627'
p273
aS'16333449'
p274
ag226
aS'69459473'
p275
aS'49908313'
p276
asg40
S'20'
p277
sg42
S'Webprogrammeren en databases'
p278
sg44
g79
sg46
g80
sg48
(iread_data
Room
p279
(dp280
g40
g190
sg42
g191
sbsba(ischedule
Activity
p281
(dp282
g8
(lp283
S'43027916'
p284
aS'64393888'
p285
ag249
aS'60312776'
p286
ag230
ag246
ag108
aS'17575088'
p287
aS'33760909'
p288
aS'57595888'
p289
ag141
aS'48601268'
p290
aS'29474737'
p291
aS'86000192'
p292
ag182
aS'50184318'
p293
aS'96104167'
p294
ag164
aS'87758823'
p295
aS'17222374'
p296
aS'76123484'
p297
aS'86291592'
p298
aS'13534377'
p299
ag30
ag88
aS'62701040'
p300
ag15
ag270
ag197
aS'54310617'
p301
ag92
ag72
ag90
aS'73980360'
p302
aS'25106480'
p303
aS'1075391'
p304
ag11
ag184
aS'34773179'
p305
aS'51741554'
p306
aS'28357474'
p307
aS'77240949'
p308
aS'42171678'
p309
aS'13092455'
p310
ag102
ag155
ag210
aS'46052388'
p311
aS'3233378'
p312
aS'53107172'
p313
aS'64296965'
p314
aS'45556081'
p315
aS'68601184'
p316
aS'64228258'
p317
aS'72577292'
p318
ag181
aS'29640619'
p319
aS'35330349'
p320
aS'4783858'
p321
aS'24277163'
p322
aS'22699561'
p323
asg40
I1000
sg42
g212
sg44
g173
sg46
I0
sg48
(iread_data
Room
p324
(dp325
g40
g176
sg42
g177
sbsba(ischedule
Activity
p326
(dp327
g8
(lp328
S'91250534'
p329
aS'47260040'
p330
aS'82066165'
p331
aS'11459236'
p332
asg40
S'15'
p333
sg42
S'Compilerbouw practicum'
p334
sg44
g79
sg46
S'3'
p335
sg48
(iread_data
Room
p336
(dp337
g40
g128
sg42
g129
sbsba(ischedule
Activity
p338
(dp339
g8
(lp340
g164
ag169
ag152
ag163
ag149
ag134
asg40
S'20'
p341
sg42
g172
sg44
g79
sg46
g335
sg48
(iread_data
Room
p342
(dp343
g40
g205
sg42
g206
sbsbaa(lp344
(ischedule
Activity
p345
(dp346
g8
(lp347
S'1766560'
p348
ag29
aS'76802764'
p349
ag150
ag23
ag30
aS'79033175'
p350
ag24
aS'46989508'
p351
aS'34110913'
p352
ag225
ag22
ag37
aS'66701209'
p353
ag27
ag298
ag181
ag28
aS'80135353'
p354
ag38
ag221
ag141
aS'13284244'
p355
aS'98105190'
p356
ag195
aS'81385263'
p357
aS'79167252'
p358
ag286
ag34
ag32
aS'13911001'
p359
ag16
aS'8464817'
p360
aS'49683101'
p361
aS'2079771'
p362
ag25
ag11
ag104
ag33
ag21
aS'65852230'
p363
ag10
ag39
ag12
ag13
ag20
ag56
ag18
ag35
aS'3407554'
p364
ag19
aS'92665222'
p365
ag31
ag243
aS'94687383'
p366
aS'48503689'
p367
ag15
ag26
aS'30658799'
p368
aS'88636924'
p369
ag36
aS'95631564'
p370
aS'27187154'
p371
ag17
aS'75599734'
p372
ag161
aS'88855695'
p373
aS'34243356'
p374
ag14
asg40
I1000
sg42
g43
sg44
g173
sg46
I0
sg48
(iread_data
Room
p375
(dp376
g40
g176
sg42
g177
sbsba(ischedule
Activity
p377
(dp378
g8
(lp379
g200
ag236
ag320
ag197
aS'58866007'
p380
aS'32595335'
p381
aS'36508571'
p382
ag295
aS'54074680'
p383
aS'79937969'
p384
aS'61060652'
p385
ag135
ag357
aS'75005528'
p386
ag151
aS'90743504'
p387
ag182
aS'91196968'
p388
aS'68409833'
p389
aS'16097870'
p390
aS'93566383'
p391
aS'36527838'
p392
ag243
aS'34588570'
p393
aS'16011419'
p394
aS'94686490'
p395
aS'23565001'
p396
ag181
aS'670011'
p397
aS'26172512'
p398
aS'96118484'
p399
aS'80709893'
p400
aS'56872729'
p401
aS'66570705'
p402
ag274
ag71
aS'94955328'
p403
aS'42115591'
p404
aS'55474917'
p405
ag117
aS'21311067'
p406
ag11
aS'74182182'
p407
ag374
aS'37399898'
p408
aS'4921119'
p409
aS'55412918'
p410
ag155
aS'71839156'
p411
aS'83210352'
p412
ag223
aS'52311353'
p413
aS'80998260'
p414
aS'81218347'
p415
asg40
I1000
sg42
S'Lineaire Algebra'
p416
sg44
g173
sg46
I0
sg48
(iread_data
Room
p417
(dp418
g40
g128
sg42
g129
sbsba(ischedule
Activity
p419
(dp420
g8
(lp421
g39
ag122
ag88
ag100
ag91
ag119
ag93
ag113
ag65
ag123
ag96
ag112
ag107
ag111
ag97
ag95
ag109
aS'53585410'
p422
ag110
ag115
ag98
ag57
ag106
ag104
ag102
ag118
ag120
ag90
ag101
ag117
ag99
ag357
ag92
ag121
ag29
ag105
ag114
ag94
ag108
ag103
ag89
ag116
ag198
asg40
I1000
sg42
g125
sg44
g173
sg46
I0
sg48
(iread_data
Room
p423
(dp424
g40
g190
sg42
g191
sbsba(ischedule
Activity
p425
(dp426
g8
(lp427
g268
aS'87210640'
p428
aS'58736785'
p429
ag237
aS'13658563'
p430
aS'19858730'
p431
ag140
ag385
ag245
aS'14941752'
p432
aS'22871048'
p433
aS'20331158'
p434
aS'97417002'
p435
ag309
aS'79879876'
p436
ag65
ag415
ag151
aS'20830477'
p437
aS'53775014'
p438
aS'92977271'
p439
aS'45660925'
p440
aS'31897288'
p441
aS'66122625'
p442
asg40
S'25'
p443
sg42
S'Heuristieken 1'
p444
sg44
g45
sg46
g47
sg48
(iread_data
Room
p445
(dp446
g40
g51
sg42
g52
sbsba(ischedule
Activity
p447
(dp448
g8
(lp449
g62
ag199
asg40
S'10'
p450
sg42
g202
sg44
g79
sg46
g335
sg48
(iread_data
Room
p451
(dp452
g40
g215
sg42
g216
sbsbaa(lp453
(ischedule
Activity
p454
(dp455
g8
(lp456
S'49631542'
p457
aS'47932106'
p458
aS'83869542'
p459
aS'23257088'
p460
aS'51542218'
p461
ag39
ag226
ag195
ag136
aS'27123462'
p462
ag401
ag264
ag351
ag155
ag409
ag13
aS'52552718'
p463
ag310
aS'12091019'
p464
aS'70072978'
p465
aS'37701751'
p466
ag122
ag395
ag228
aS'58332004'
p467
aS'5085194'
p468
ag17
aS'40141996'
p469
aS'23658570'
p470
ag144
ag140
ag386
ag59
aS'56191333'
p471
aS'86180471'
p472
ag66
ag171
ag284
aS'13132925'
p473
aS'90474003'
p474
ag97
aS'15187217'
p475
ag322
ag319
ag397
aS'5526560'
p476
aS'60352393'
p477
aS'58083680'
p478
ag197
aS'77960666'
p479
aS'78821918'
p480
ag159
ag120
ag181
ag65
ag93
ag314
ag167
aS'59397895'
p481
ag108
aS'25077484'
p482
aS'47477884'
p483
ag67
aS'73823548'
p484
aS'26207525'
p485
ag296
ag99
aS'4529208'
p486
ag249
ag297
ag21
aS'54540997'
p487
asg40
I1000
sg42
S'Databases 2'
p488
sg44
g173
sg46
I0
sg48
(iread_data
Room
p489
(dp490
g40
g176
sg42
g177
sbsba(ischedule
Activity
p491
(dp492
g8
(lp493
S'62105897'
p494
aS'14072826'
p495
aS'37830626'
p496
ag163
aS'44671041'
p497
ag290
ag143
ag385
ag307
ag34
ag103
aS'73302736'
p498
aS'58074656'
p499
aS'65408517'
p500
ag433
ag463
ag370
aS'27582862'
p501
ag271
aS'13718298'
p502
aS'70015932'
p503
ag31
ag110
ag321
ag199
ag138
aS'41153310'
p504
aS'9287708'
p505
ag107
ag92
ag95
ag76
aS'99283252'
p506
asg40
S'40'
p507
sg42
S'Software engineering'
p508
sg44
g45
sg46
g47
sg48
(iread_data
Room
p509
(dp510
g40
g128
sg42
g129
sbsba(ischedule
Activity
p511
(dp512
g8
(lp513
g413
aS'13116738'
p514
ag74
aS'45414528'
p515
ag76
aS'87314964'
p516
aS'19337738'
p517
aS'98780382'
p518
ag442
aS'93023961'
p519
aS'99453514'
p520
asg40
S'10'
p521
sg42
S'Data Mining'
p522
sg44
g79
sg46
g335
sg48
(iread_data
Room
p523
(dp524
g40
g205
sg42
g206
sbsba(ischedule
Activity
p525
(dp526
g8
g220
sg40
I1000
sg42
g252
sg44
g173
sg46
I0
sg48
(iread_data
Room
p527
(dp528
g40
g83
sg42
g84
sbsba(ischedule
Activity
p529
(dp530
g8
(lp531
g296
ag164
ag284
ag289
ag320
ag288
ag141
asg40
S'20'
p532
sg42
g212
sg44
g45
sg46
g335
sg48
(iread_data
Room
p533
(dp534
g40
g190
sg42
g191
sbsbaa(lp535
(ischedule
Activity
p536
(dp537
g8
(lp538
S'59753700'
p539
ag516
ag413
aS'13996448'
p540
aS'87900893'
p541
ag146
ag160
ag517
ag74
ag515
ag520
ag514
ag442
aS'25330192'
p542
ag92
ag237
ag518
ag88
aS'68360259'
p543
aS'97136582'
p544
ag519
ag97
ag388
ag245
ag76
aS'17823206'
p545
aS'81022997'
p546
asg40
I1000
sg42
g522
sg44
g173
sg46
I0
sg48
(iread_data
Room
p547
(dp548
g40
g83
sg42
g84
sbsba(ischedule
Activity
p549
(dp550
g8
(lp551
g311
ag301
ag102
ag290
ag315
ag322
ag291
ag309
ag321
ag184
ag90
ag318
ag319
ag323
ag298
ag306
ag293
ag302
ag307
ag210
ag197
ag246
asg40
g532
sg42
g212
sg44
g45
sg46
S'4'
p552
sg48
(iread_data
Room
p553
(dp554
g40
g128
sg42
g129
sbsba(ischedule
Activity
p555
(dp556
g8
(lp557
g93
ag98
ag95
ag115
ag123
ag118
ag112
ag89
ag92
ag198
ag57
ag357
ag121
ag39
ag110
ag91
ag120
ag29
ag99
ag111
ag104
ag88
ag100
ag103
ag422
ag117
ag94
asg40
S'25'
p558
sg42
g125
sg44
g79
sg46
g80
sg48
(iread_data
Room
p559
(dp560
g40
g51
sg42
g52
sbsba(ischedule
Activity
p561
(dp562
g8
(lp563
g139
ag35
aS'51052738'
p564
ag258
aS'54569540'
p565
aS'49922855'
p566
aS'42406214'
p567
aS'96554914'
p568
aS'99975346'
p569
ag433
aS'84449005'
p570
aS'60661905'
p571
ag322
ag39
ag245
ag145
ag408
aS'82390428'
p572
aS'33776961'
p573
aS'70193386'
p574
aS'51415617'
p575
aS'38296757'
p576
ag34
ag477
ag430
ag91
aS'20095994'
p577
ag244
aS'70844780'
p578
ag310
ag474
ag479
ag520
aS'57086672'
p579
ag539
ag502
aS'27370083'
p580
aS'32044893'
p581
ag153
aS'68286356'
p582
ag154
ag223
ag110
aS'3685034'
p583
aS'4709948'
p584
aS'87830198'
p585
aS'92778619'
p586
aS'61518436'
p587
aS'27805666'
p588
aS'20239127'
p589
aS'36213792'
p590
asg40
I1000
sg42
S'Reflectie op de digitale cultuur'
p591
sg44
g173
sg46
I0
sg48
(iread_data
Room
p592
(dp593
g40
g215
sg42
g216
sbsba(ischedule
Activity
p594
(dp595
g8
(lp596
g39
aS'83415514'
p597
ag269
aS'26857113'
p598
aS'1048485'
p599
aS'63111000'
p600
aS'73893840'
p601
ag465
ag501
aS'85284256'
p602
ag169
aS'39905995'
p603
ag470
aS'63634350'
p604
aS'34262212'
p605
ag388
ag437
ag292
asg40
g185
sg42
g186
sg44
g79
sg46
g80
sg48
(iread_data
Room
p606
(dp607
g40
g176
sg42
g177
sbsba(ischedule
Activity
p608
(dp609
g8
(lp610
g441
ag604
ag546
ag288
ag569
ag74
ag579
ag266
aS'82968410'
p611
ag429
ag284
aS'58040377'
p612
ag397
ag390
ag106
aS'52304977'
p613
aS'48678993'
p614
ag137
aS'15249775'
p615
aS'72652638'
p616
asg40
S'20'
p617
sg42
S'Heuristieken 2'
p618
sg44
g45
sg46
g80
sg48
(iread_data
Room
p619
(dp620
g40
g190
sg42
g191
sbsba(ischedule
Activity
p621
(dp622
g8
(lp623
g411
aS'51472074'
p624
ag359
aS'25994016'
p625
ag422
ag163
ag90
ag110
aS'74361881'
p626
ag138
aS'42297781'
p627
aS'51673172'
p628
aS'41644639'
p629
ag222
ag364
ag61
aS'5892092'
p630
ag116
asg40
g333
sg42
g334
sg44
g79
sg46
g47
sg48
(iread_data
Room
p631
(dp632
g40
g205
sg42
g206
sbsbaaa(lp633
(lp634
(ischedule
Activity
p635
(dp636
g8
(lp637
S'59220392'
p638
aS'22168693'
p639
aS'9731271'
p640
aS'27925117'
p641
ag13
ag58
ag169
ag236
ag93
ag321
ag102
aS'4546613'
p642
aS'32705005'
p643
aS'79888156'
p644
ag541
aS'72526473'
p645
ag484
ag72
aS'33672995'
p646
ag198
ag371
ag103
aS'19717077'
p647
ag604
ag142
ag470
aS'3678531'
p648
aS'48357272'
p649
aS'93361408'
p650
ag100
aS'78443067'
p651
ag407
asg40
S'40'
p652
sg42
S'Calculus 2'
p653
sg44
g45
sg46
g47
sg48
(iread_data
Room
p654
(dp655
g40
g176
sg42
g177
sbsba(ischedule
Activity
p656
(dp657
g8
(lp658
g228
ag145
aS'18144425'
p659
aS'3883025'
p660
aS'89180944'
p661
ag600
ag368
ag37
ag101
ag597
ag230
ag293
ag348
ag266
ag197
ag142
ag465
ag392
aS'27241113'
p662
aS'41489515'
p663
ag584
aS'27916487'
p664
ag148
aS'1181560'
p665
aS'96082155'
p666
aS'36748818'
p667
ag221
ag169
ag322
ag31
aS'78544592'
p668
ag93
ag506
ag296
ag167
aS'51650744'
p669
aS'66621166'
p670
aS'49219163'
p671
ag16
ag480
ag467
ag651
ag359
aS'47462856'
p672
aS'59111489'
p673
aS'13218321'
p674
ag457
aS'58699305'
p675
aS'48198668'
p676
aS'46570285'
p677
ag573
aS'75997788'
p678
ag309
ag570
asg40
I1000
sg42
S'Moderne Databases'
p679
sg44
g173
sg46
I0
sg48
(iread_data
Room
p680
(dp681
g40
g128
sg42
g129
sbsba(ischedule
Activity
p682
(dp683
g8
(lp684
S'86807027'
p685
ag136
ag246
ag91
aS'14847953'
p686
aS'1886996'
p687
ag272
ag578
ag678
aS'72665524'
p688
aS'39429093'
p689
asg40
S'10'
p690
sg42
S'Advanced Heuristics'
p691
sg44
g79
sg46
g80
sg48
(iread_data
Room
p692
(dp693
g40
g205
sg42
g206
sbsba(ischedule
Activity
p694
(dp695
g8
(lp696
g422
aS'77306636'
p697
aS'28957789'
p698
ag317
aS'24875739'
p699
ag483
aS'53139134'
p700
ag677
aS'37279234'
p701
ag151
aS'75623387'
p702
aS'75585647'
p703
aS'38179241'
p704
ag472
ag272
ag464
aS'31306819'
p705
ag685
aS'11593163'
p706
aS'61520025'
p707
ag612
aS'58253841'
p708
aS'82412626'
p709
aS'75446434'
p710
ag288
ag469
aS'80188025'
p711
ag23
ag143
ag135
ag27
asg40
g652
sg42
g653
sg44
g45
sg46
g80
sg48
(iread_data
Room
p712
(dp713
g40
g83
sg42
g84
sbsba(ischedule
Activity
p714
(dp715
g8
(lp716
S'61611295'
p717
ag195
ag197
ag198
asg40
g450
sg42
g202
sg44
g79
sg46
g80
sg48
(iread_data
Room
p718
(dp719
g40
g51
sg42
g52
sbsba(ischedule
Activity
p720
(dp721
g8
(lp722
g287
ag72
ag311
ag164
ag11
ag184
ag299
ag316
ag30
ag88
ag318
ag289
ag284
ag286
ag312
ag292
ag317
ag181
ag155
ag102
ag92
ag323
ag322
ag298
ag90
ag314
asg40
g211
sg42
g212
sg44
g79
sg46
g552
sg48
(iread_data
Room
p723
(dp724
g40
g190
sg42
g191
sbsba(ischedule
Activity
p725
(dp726
g8
(lp727
g182
ag293
ag304
ag300
ag321
ag303
ag15
ag296
ag285
ag305
ag307
ag320
ag141
ag297
ag308
ag230
ag306
ag315
ag246
asg40
g211
sg42
g212
sg44
g79
sg46
g335
sg48
(iread_data
Room
p728
(dp729
g40
g215
sg42
g216
sbsbaa(lp730
(ischedule
Activity
p731
(dp732
g8
(lp733
g266
ag288
aS'35315956'
p734
aS'87602030'
p735
ag687
aS'5739011'
p736
aS'85236626'
p737
ag74
ag137
ag106
ag613
ag546
ag97
ag614
ag35
ag441
ag397
ag94
ag579
ag604
ag611
ag641
ag616
ag270
ag459
ag429
ag569
ag251
ag284
ag615
ag390
ag612
asg40
I1000
sg42
g618
sg44
g173
sg46
I0
sg48
(iread_data
Room
p738
(dp739
g40
g128
sg42
g129
sbsba(ischedule
Activity
p740
(dp741
g8
g379
sg40
I1000
sg42
g416
sg44
g173
sg46
I0
sg48
(iread_data
Room
p742
(dp743
g40
g176
sg42
g177
sbsba(ischedule
Activity
p744
(dp745
g8
(lp746
g156
aS'34806836'
p747
ag463
ag198
ag717
ag197
ag199
ag390
ag433
ag431
ag195
ag18
ag200
aS'70113753'
p748
ag62
ag389
ag97
ag196
ag382
ag17
ag160
ag245
asg40
I1000
sg42
g202
sg44
g173
sg46
I0
sg48
(iread_data
Room
p749
(dp750
g40
g215
sg42
g216
sbsba(ischedule
Activity
p751
(dp752
g8
(lp753
g23
ag139
ag358
ag57
ag265
ag319
ag298
ag285
ag573
ag436
ag586
asg40
g185
sg42
g186
sg44
g79
sg46
g335
sg48
(iread_data
Room
p754
(dp755
g40
g205
sg42
g206
sbsbaa(lp756
(ischedule
Activity
p757
(dp758
g8
g283
sg40
I1000
sg42
g212
sg44
g173
sg46
I0
sg48
(iread_data
Room
p759
(dp760
g40
g176
sg42
g177
sbsba(ischedule
Activity
p761
(dp762
g8
(lp763
g133
ag150
ag158
ag146
ag148
ag121
ag138
ag142
ag157
ag147
ag153
ag137
ag166
ag24
ag23
ag155
ag167
ag136
ag165
ag170
ag168
ag171
ag160
ag141
ag63
ag154
ag143
ag156
asg40
g341
sg42
g172
sg44
g79
sg46
g47
sg48
(iread_data
Room
p764
(dp765
g40
g51
sg42
g52
sbsba(ischedule
Activity
p766
(dp767
g8
(lp768
g664
ag169
ag667
ag600
ag584
ag480
ag309
ag670
ag676
ag660
ag228
ag669
ag506
ag597
ag674
ag665
ag570
ag167
ag368
ag651
ag668
ag661
ag675
ag197
asg40
S'20'
p769
sg42
g679
sg44
g79
sg46
g80
sg48
(iread_data
Room
p770
(dp771
g40
g215
sg42
g216
sbsba(ischedule
Activity
p772
(dp773
g8
(lp774
g242
ag241
ag226
ag221
ag240
ag31
ag237
ag142
ag227
ag251
ag250
ag231
ag243
ag246
ag14
ag62
ag247
ag232
ag229
ag245
ag223
ag225
ag145
ag224
ag244
ag249
ag222
ag238
ag234
asg40
S'20'
p775
sg42
g252
sg44
g45
sg46
g80
sg48
(iread_data
Room
p776
(dp777
g40
g83
sg42
g84
sbsba(ischedule
Activity
p778
(dp779
g8
(lp780
g225
aS'59075181'
p781
ag258
aS'25557516'
p782
ag165
ag688
ag542
ag485
ag602
aS'19058315'
p783
ag640
ag544
aS'53267490'
p784
asg40
g77
sg42
g78
sg44
g79
sg46
g47
sg48
(iread_data
Room
p785
(dp786
g40
g205
sg42
g206
sbsba(ischedule
Activity
p787
(dp788
g8
(lp789
g248
ag104
ag233
ag239
ag236
ag228
ag235
ag184
ag230
asg40
g775
sg42
g252
sg44
g45
sg46
g47
sg48
(iread_data
Room
p790
(dp791
g40
g190
sg42
g191
sbsbaa(lp792
(ischedule
Activity
p793
(dp794
g8
(lp795
g709
ag236
ag688
ag143
ag72
ag647
aS'14179347'
p796
ag134
ag650
aS'14303208'
p797
ag612
ag735
ag23
ag401
ag668
ag422
ag272
ag142
ag711
ag470
aS'81155296'
p798
aS'55530367'
p799
ag292
ag678
ag675
ag638
ag646
ag697
ag639
ag642
ag643
ag649
aS'58469172'
p800
ag16
ag153
ag458
ag484
ag395
ag494
ag698
ag407
ag500
ag358
ag640
ag464
ag317
ag645
ag27
ag469
ag708
ag28
ag648
ag472
aS'56348773'
p801
ag699
aS'34173695'
p802
ag321
ag703
ag261
ag498
ag483
ag390
ag198
ag144
aS'56544130'
p803
ag288
ag644
ag705
aS'78735049'
p804
ag541
aS'6939933'
p805
ag410
ag700
ag604
ag710
ag677
aS'45915482'
p806
ag169
aS'62363761'
p807
ag641
ag704
ag102
aS'10609762'
p808
ag171
ag702
ag706
ag151
aS'23628642'
p809
ag597
ag93
ag373
aS'6709529'
p810
aS'65978354'
p811
ag103
ag13
ag306
ag100
ag135
ag576
ag701
ag58
ag707
ag651
ag685
ag396
ag371
asg40
I1000
sg42
g653
sg44
g173
sg46
I0
sg48
(iread_data
Room
p812
(dp813
g40
g176
sg42
g177
sbsba(ischedule
Activity
p814
(dp815
g8
(lp816
g108
aS'28618400'
p817
aS'12170832'
p818
ag614
ag357
ag306
ag374
asg40
g77
sg42
g78
sg44
g79
sg46
g335
sg48
(iread_data
Room
p819
(dp820
g40
g205
sg42
g206
sbsba(ischedule
Activity
p821
(dp822
g8
(lp823
g737
ag76
ag600
aS'67625383'
p824
ag362
aS'90067329'
p825
ag361
aS'23798155'
p826
ag100
ag148
aS'33252501'
p827
ag371
ag17
ag583
aS'56988998'
p828
ag598
ag308
aS'94467156'
p829
ag106
ag587
ag12
ag576
asg40
I1000
sg42
S'Machine Learning'
p830
sg44
g173
sg46
I0
sg48
(iread_data
Room
p831
(dp832
g40
g190
sg42
g191
sbsba(ischedule
Activity
p833
(dp834
g8
(lp835
g275
ag270
ag224
ag266
ag274
ag661
ag262
ag686
ag271
aS'76903244'
p836
ag264
ag272
ag152
aS'1137946'
p837
ag99
ag258
ag318
ag263
ag259
ag150
aS'67073567'
p838
ag579
ag267
ag261
aS'76648468'
p839
ag268
aS'39230359'
p840
ag273
ag276
ag265
aS'66034145'
p841
ag317
ag117
ag797
ag226
ag297
ag260
ag269
ag29
asg40
I1000
sg42
g278
sg44
g173
sg46
I0
sg48
(iread_data
Room
p842
(dp843
g40
g128
sg42
g129
sbsba(ischedule
Activity
p844
(dp845
g8
(lp846
g226
aS'29718115'
p847
aS'59289233'
p848
ag661
ag434
ag108
ag318
aS'13798030'
p849
ag826
aS'72683344'
p850
ag315
ag380
ag271
ag503
ag641
ag16
ag361
ag21
ag817
aS'14138904'
p851
ag236
asg40
I1000
sg42
S'Architectuur en computerorganisatie'
p852
sg44
g173
sg46
I0
sg48
(iread_data
Room
p853
(dp854
g40
g83
sg42
g84
sbsba(ischedule
Activity
p855
(dp856
g8
(lp857
g310
aS'63939720'
p858
ag546
ag432
aS'19214659'
p859
ag583
ag137
ag29
ag250
ag163
ag407
aS'40911986'
p860
ag199
aS'34691309'
p861
aS'21070547'
p862
ag286
ag164
ag386
aS'19662602'
p863
aS'37419523'
p864
aS'90103047'
p865
aS'32183908'
p866
asg40
S'15'
p867
sg42
S'Project Numerical Recipes'
p868
sg44
g79
sg46
g80
sg48
(iread_data
Room
p869
(dp870
g40
g215
sg42
g216
sbsbaa(lp871
(ischedule
Activity
p872
(dp873
g8
(lp874
g463
ag433
ag382
ag156
ag747
ag389
ag160
ag748
ag200
ag17
ag431
ag390
ag245
ag196
ag18
ag97
asg40
g450
sg42
g202
sg44
g79
sg46
g47
sg48
(iread_data
Room
p875
(dp876
g40
g128
sg42
g129
sbsba(ischedule
Activity
p877
(dp878
g8
(lp879
g351
ag354
ag362
ag366
ag368
ag364
ag367
ag355
ag348
ag243
ag357
ag350
ag358
ag369
ag371
ag181
ag372
ag359
ag298
ag356
ag286
ag195
ag141
ag363
ag104
ag225
ag352
ag374
ag365
ag221
ag370
ag360
ag353
ag56
ag361
ag161
ag349
ag150
ag373
asg40
g41
sg42
g43
sg44
g45
sg46
g80
sg48
(iread_data
Room
p880
(dp881
g40
g83
sg42
g84
sbsba(ischedule
Activity
p882
(dp883
g8
(lp884
g309
ag101
ag660
ag675
ag659
ag148
ag665
ag677
asg40
S'20'
p885
sg42
g679
sg44
g45
sg46
g47
sg48
(iread_data
Room
p886
(dp887
g40
g176
sg42
g177
sbsba(ischedule
Activity
p888
(dp889
g8
(lp890
S'82854435'
p891
ag413
ag166
aS'62613937'
p892
ag574
ag403
ag244
aS'78822885'
p893
ag579
ag67
ag390
ag26
aS'97838175'
p894
ag678
ag571
ag480
ag646
aS'18477924'
p895
ag223
ag142
ag614
ag374
ag157
ag284
ag461
aS'97019450'
p896
ag649
aS'65318664'
p897
ag826
ag69
aS'73350019'
p898
ag404
ag498
ag314
ag502
ag70
ag433
ag585
ag468
aS'83443653'
p899
ag711
aS'88737765'
p900
ag470
ag396
ag803
aS'14637758'
p901
aS'58480929'
p902
ag409
aS'34900967'
p903
asg40
I1000
sg42
S'Analysemethoden en -technieken'
p904
sg44
g173
sg46
I0
sg48
(iread_data
Room
p905
(dp906
g40
g215
sg42
g216
sbsba(ischedule
Activity
p907
(dp908
g8
(lp909
g151
ag74
ag139
ag88
ag144
ag145
ag135
ag161
ag162
ag159
ag140
asg40
g341
sg42
g172
sg44
g79
sg46
g80
sg48
(iread_data
Room
p910
(dp911
g40
g205
sg42
g206
sbsba(ischedule
Activity
p912
(dp913
g8
(lp914
g292
ag310
ag230
ag287
ag270
ag303
ag304
ag15
ag305
ag92
ag30
ag88
ag108
ag295
ag72
ag286
ag300
ag312
ag249
asg40
g532
sg42
g212
sg44
g45
sg46
g47
sg48
(iread_data
Room
p915
(dp916
g40
g190
sg42
g191
sbsba(ischedule
Activity
p917
(dp918
g8
(lp919
g331
asg40
S'15'
p920
sg42
S'Project Genetic Algorithms'
p921
sg44
g79
sg46
g80
sg48
(iread_data
Room
p922
(dp923
g40
g51
sg42
g52
sbsbaaa(lp924
(lp925
(ischedule
Activity
p926
(dp927
g8
(lp928
g735
ag668
ag678
ag800
ag500
ag801
ag171
ag811
ag576
ag803
ag134
ag597
ag306
ag16
ag798
ag802
ag396
ag796
ag799
ag358
ag498
ag804
ag395
ag675
ag809
ag797
ag292
ag688
ag28
ag805
ag401
ag808
ag807
ag494
ag373
ag410
ag806
ag144
ag458
ag261
ag390
ag153
ag810
asg40
g652
sg42
g653
sg44
g45
sg46
g335
sg48
(iread_data
Room
p929
(dp930
g40
g176
sg42
g177
sbsba(ischedule
Activity
p931
(dp932
g8
(lp933
g146
ag76
ag515
ag160
ag542
ag539
ag543
ag544
ag92
ag518
ag388
ag514
ag74
ag519
ag245
ag520
ag88
ag546
ag541
ag516
ag237
ag413
ag517
asg40
S'10'
p934
sg42
g522
sg44
g45
sg46
g335
sg48
(iread_data
Room
p935
(dp936
g40
g51
sg42
g52
sbsba(ischedule
Activity
p937
(dp938
g8
g563
sg40
I1000
sg42
g591
sg44
g173
sg46
I0
sg48
(iread_data
Room
p939
(dp940
g40
g83
sg42
g84
sbsba(ischedule
Activity
p941
(dp942
g8
g846
sg40
I1000
sg42
g852
sg44
g173
sg46
I0
sg48
(iread_data
Room
p943
(dp944
g40
g215
sg42
g216
sbsba(ischedule
Activity
p945
(dp946
g8
(lp947
g92
ag540
ag543
ag541
ag545
ag160
ag542
ag97
ag544
ag146
asg40
g521
sg42
g522
sg44
g79
sg46
g80
sg48
(iread_data
Room
p948
(dp949
g40
g190
sg42
g191
sbsba(ischedule
Activity
p950
(dp951
g8
(lp952
g294
ag316
ag313
ag299
ag181
ag314
ag317
ag182
ag297
ag308
ag11
ag285
ag155
asg40
g532
sg42
g212
sg44
g45
sg46
g80
sg48
(iread_data
Room
p953
(dp954
g40
g128
sg42
g129
sbsba(ischedule
Activity
p955
(dp956
g8
(lp957
g143
ag163
ag147
ag142
ag146
ag151
ag137
ag162
asg40
S'20'
p958
sg42
g172
sg44
g45
sg46
g335
sg48
(iread_data
Room
p959
(dp960
g40
g205
sg42
g206
sbsbaa(lp961
(ischedule
Activity
p962
(dp963
g8
(lp964
g483
ag817
ag850
ag149
ag892
ag477
ag365
ag318
aS'40633534'
p965
asg40
g690
sg42
g691
sg44
g79
sg46
g47
sg48
(iread_data
Room
p966
(dp967
g40
g205
sg42
g206
sbsba(ischedule
Activity
p968
(dp969
g8
(lp970
g466
ag470
ag472
ag97
ag481
ag469
ag159
ag59
ag226
ag468
ag486
ag458
ag296
ag463
ag171
ag249
ag65
ag401
ag465
ag136
ag310
ag473
ag122
ag228
ag395
ag144
ag457
ag140
ag484
ag460
ag483
ag479
ag181
ag471
ag485
ag314
ag475
ag197
ag195
ag462
ag13
ag397
ag17
ag21
ag459
asg40
S'40'
p971
sg42
g488
sg44
g45
sg46
g80
sg48
(iread_data
Room
p972
(dp973
g40
g83
sg42
g84
sbsba(ischedule
Activity
p974
(dp975
g8
(lp976
g103
ag286
ag115
ag661
ag162
ag400
ag110
ag95
ag504
ag321
ag412
aS'31633723'
p977
ag34
ag237
ag404
ag599
ag101
aS'84110134'
p978
ag18
ag266
ag502
ag319
ag143
ag152
ag147
ag389
aS'31247305'
p979
ag501
ag497
ag642
ag498
ag92
ag199
ag506
ag370
ag433
ag158
ag271
ag496
ag651
ag829
ag156
ag372
ag138
ag161
ag107
ag500
ag494
ag897
ag495
aS'3727435'
p980
ag303
ag312
ag568
ag405
ag499
ag505
ag413
ag106
ag31
ag68
ag806
aS'51593625'
p981
ag463
ag163
ag290
ag76
ag118
aS'31103066'
p982
ag239
ag307
ag250
ag649
ag385
ag503
asg40
I1000
sg42
g508
sg44
g173
sg46
I0
sg48
(iread_data
Room
p983
(dp984
g40
g215
sg42
g216
sbsba(ischedule
Activity
p985
(dp986
g8
(lp987
g357
ag422
ag57
ag198
asg40
g124
sg42
g125
sg44
g45
sg46
g47
sg48
(iread_data
Room
p988
(dp989
g40
g176
sg42
g177
sbsba(ischedule
Activity
p990
(dp991
g8
(lp992
g838
ag150
ag797
ag579
ag297
ag836
ag661
ag837
ag318
ag686
ag841
ag317
ag840
ag839
asg40
g277
sg42
g278
sg44
g79
sg46
g47
sg48
(iread_data
Room
p993
(dp994
g40
g51
sg42
g52
sbsba(ischedule
Activity
p995
(dp996
g8
(lp997
g847
ag300
ag332
ag70
ag460
ag230
ag146
aS'19958553'
p998
asg40
S'15'
p999
sg42
S'Informatie- en organsatieontwerp'
p1000
sg44
g45
sg46
g47
sg48
(iread_data
Room
p1001
(dp1002
g40
g190
sg42
g191
sbsba(ischedule
Activity
p1003
(dp1004
g8
(lp1005
g408
ag494
aS'23215240'
p1006
ag300
aS'51791169'
p1007
ag354
ag748
ag367
ag903
ag460
aS'12782624'
p1008
aS'99272880'
p1009
aS'88263855'
p1010
ag405
ag270
ag701
ag19
ag439
ag360
ag316
ag71
ag371
aS'23391676'
p1011
ag140
aS'54395877'
p1012
ag102
aS'63096281'
p1013
aS'2550487'
p1014
ag612
ag737
ag504
aS'64053722'
p1015
ag263
ag153
asg40
g185
sg42
g186
sg44
g79
sg46
S'5'
p1016
sg48
(iread_data
Room
p1017
(dp1018
g40
g128
sg42
g129
sbsbaa(lp1019
(ischedule
Activity
p1020
(dp1021
g8
g347
sg40
I1000
sg42
g43
sg44
g173
sg46
I0
sg48
(iread_data
Room
p1022
(dp1023
g40
g176
sg42
g177
sbsba(ischedule
Activity
p1024
(dp1025
g8
(lp1026
g479
ag34
ag564
ag430
ag586
ag258
ag572
ag580
ag91
ag590
ag568
ag571
ag520
ag245
ag574
ag322
ag154
ag145
ag408
ag567
ag539
ag583
ag579
ag39
ag575
ag587
ag582
ag139
asg40
S'20'
p1027
sg42
g591
sg44
g45
sg46
g80
sg48
(iread_data
Room
p1028
(dp1029
g40
g128
sg42
g129
sbsba(ischedule
Activity
p1030
(dp1031
g8
(lp1032
g113
ag540
ag640
ag100
ag584
ag397
aS'90296821'
p1033
aS'88519892'
p1034
ag829
ag896
aS'10702778'
p1035
ag273
aS'73196865'
p1036
ag144
ag685
ag422
ag571
aS'88597745'
p1037
ag76
ag234
ag25
ag615
asg40
g185
sg42
g186
sg44
g79
sg46
g47
sg48
(iread_data
Room
p1038
(dp1039
g40
g215
sg42
g216
sbsba(ischedule
Activity
p1040
(dp1041
g8
(lp1042
g576
ag474
ag578
ag570
ag589
ag223
ag569
ag566
ag565
ag502
ag310
ag244
ag585
ag110
ag577
ag573
ag433
ag588
ag153
ag581
ag477
asg40
g1027
sg42
g591
sg44
g45
sg46
g47
sg48
(iread_data
Room
p1043
(dp1044
g40
g51
sg42
g52
sbsba(ischedule
Activity
p1045
(dp1046
g8
(lp1047
g839
ag258
ag318
ag262
ag264
ag837
ag297
ag317
ag273
ag99
ag260
ag263
ag579
ag224
ag117
ag686
ag840
ag272
ag29
ag838
ag797
ag152
ag150
ag270
ag267
ag261
ag271
ag275
ag661
ag266
ag226
ag268
ag836
ag274
ag265
ag841
ag269
asg40
S'20'
p1048
sg42
g278
sg44
g45
sg46
g80
sg48
(iread_data
Room
p1049
(dp1050
g40
g83
sg42
g84
sbsba(ischedule
Activity
p1051
(dp1052
g8
(lp1053
g390
ag463
ag245
ag747
ag389
ag431
ag160
ag97
ag17
asg40
g201
sg42
g202
sg44
g45
sg46
g335
sg48
(iread_data
Room
p1054
(dp1055
g40
g205
sg42
g206
sbsbaa(lp1056
(ischedule
Activity
p1057
(dp1058
g8
(lp1059
g686
ag365
ag272
ag850
ag246
ag477
ag483
ag685
ag688
ag91
ag687
ag136
ag817
ag678
ag578
ag965
ag892
ag149
ag689
ag318
asg40
I1000
sg42
g691
sg44
g173
sg46
I0
sg48
(iread_data
Room
p1060
(dp1061
g40
g205
sg42
g206
sbsba(ischedule
Activity
p1062
(dp1063
g8
(lp1064
g599
ag471
ag298
ag164
ag807
ag578
ag319
aS'63573738'
p1065
aS'4353500'
p1066
aS'64246605'
p1067
ag546
ag210
ag660
aS'21677389'
p1068
aS'123355'
p1069
ag585
ag168
ag95
ag111
ag584
ag477
ag38
ag979
asg40
g77
sg42
g78
sg44
g79
sg46
g552
sg48
(iread_data
Room
p1070
(dp1071
g40
g190
sg42
g191
sbsba(ischedule
Activity
p1072
(dp1073
g8
g132
sg40
I1000
sg42
g172
sg44
g173
sg46
I0
sg48
(iread_data
Room
p1074
(dp1075
g40
g51
sg42
g52
sbsba(ischedule
Activity
p1076
(dp1077
g8
(lp1078
g286
ag361
ag298
ag225
ag24
ag141
ag31
ag16
ag348
ag39
ag28
ag10
ag37
ag13
ag11
ag371
ag21
ag25
ag243
ag33
ag354
ag35
ag370
ag373
ag29
ag20
ag356
ag181
ag161
ag352
ag358
ag14
ag369
ag351
ag195
asg40
S'40'
p1079
sg42
g43
sg44
g79
sg46
g47
sg48
(iread_data
Room
p1080
(dp1081
g40
g176
sg42
g177
sbsba(ischedule
Activity
p1082
(dp1083
g8
(lp1084
g107
ag116
ag108
ag119
ag114
ag65
ag122
ag90
ag102
ag101
ag97
ag96
ag105
ag106
ag109
ag113
asg40
g558
sg42
g125
sg44
g79
sg46
g47
sg48
(iread_data
Room
p1085
(dp1086
g40
g128
sg42
g129
sbsba(ischedule
Activity
p1087
(dp1088
g8
g746
sg40
I1000
sg42
g202
sg44
g173
sg46
I0
sg48
(iread_data
Room
p1089
(dp1090
g40
g83
sg42
g84
sbsbaa(lp1091
(ischedule
Activity
p1092
(dp1093
g8
(lp1094
g737
ag270
ag735
ag35
ag687
ag94
ag251
ag97
ag734
ag641
ag459
ag736
asg40
g617
sg42
g618
sg44
g45
sg46
g47
sg48
(iread_data
Room
p1095
(dp1096
g40
g176
sg42
g177
sbsba(ischedule
Activity
p1097
(dp1098
g8
(lp1099
g411
ag899
ag62
ag432
ag230
ag57
ag435
ag245
ag1066
ag434
ag429
ag441
ag851
ag313
ag430
ag321
ag428
ag896
ag437
ag151
ag439
aS'76393508'
p1100
ag436
ag140
ag781
ag438
ag147
ag268
ag431
ag228
ag442
ag171
ag65
ag385
ag309
ag356
ag433
ag210
ag237
ag685
ag649
ag415
ag440
ag678
asg40
I1000
sg42
g444
sg44
g173
sg46
I0
sg48
(iread_data
Room
p1101
(dp1102
g40
g83
sg42
g84
sbsba(ischedule
Activity
p1103
(dp1104
g8
(lp1105
g900
ag24
aS'55480737'
p1106
ag275
ag64
ag34
aS'76924297'
p1107
ag628
ag27
ag796
ag614
ag480
ag506
ag305
ag965
ag100
asg40
g920
sg42
g921
sg44
g79
sg46
g335
sg48
(iread_data
Room
p1108
(dp1109
g40
g190
sg42
g191
sbsba(ischedule
Activity
p1110
(dp1111
g8
(lp1112
g101
ag392
ag573
ag672
ag142
ag677
ag31
ag467
ag671
ag221
ag678
ag93
ag663
ag659
ag457
ag673
ag465
ag230
ag293
ag322
ag296
ag37
ag148
ag266
ag662
ag145
ag348
asg40
g769
sg42
g679
sg44
g79
sg46
g335
sg48
(iread_data
Room
p1113
(dp1114
g40
g51
sg42
g52
sbsba(ischedule
Activity
p1115
(dp1116
g8
(lp1117
g162
ag412
ag404
ag147
ag979
ag158
ag372
ag303
ag319
ag978
ag977
ag266
ag649
ag405
ag239
ag286
ag400
ag829
ag413
ag651
ag101
ag897
ag806
ag156
ag661
ag152
ag68
ag106
ag389
ag237
ag980
ag18
ag161
ag312
ag642
ag599
ag250
ag982
ag118
ag115
ag981
ag568
asg40
g507
sg42
g508
sg44
g45
sg46
g80
sg48
(iread_data
Room
p1118
(dp1119
g40
g215
sg42
g216
sbsba(ischedule
Activity
p1120
(dp1121
g8
(lp1122
g158
ag160
ag141
ag167
ag153
ag74
ag136
ag23
ag135
ag63
ag154
ag168
ag171
ag149
ag166
ag155
ag161
asg40
g958
sg42
g172
sg44
g45
sg46
g47
sg48
(iread_data
Room
p1123
(dp1124
g40
g205
sg42
g206
sbsba(ischedule
Activity
p1125
(dp1126
g8
(lp1127
g108
ag482
ag155
ag67
ag322
ag167
ag386
ag351
ag467
ag474
ag409
ag480
ag39
ag477
ag319
ag120
ag66
ag99
ag297
ag487
ag478
ag464
ag476
ag93
ag461
ag264
ag284
asg40
g971
sg42
g488
sg44
g45
sg46
g47
sg48
(iread_data
Room
p1128
(dp1129
g40
g128
sg42
g129
sbsbaaa(lp1130
(lp1131
(ischedule
Activity
p1132
(dp1133
g8
(lp1134
g162
ag115
ag101
ag501
ag161
ag107
ag413
ag319
ag642
ag979
ag494
ag110
ag499
ag506
ag568
ag405
ag651
ag271
ag504
ag68
asg40
S'40'
p1135
sg42
g508
sg44
g79
sg46
g47
sg48
(iread_data
Room
p1136
(dp1137
g40
g128
sg42
g129
sbsba(ischedule
Activity
p1138
(dp1139
g8
(lp1140
g388
ag237
ag539
ag546
ag245
ag88
asg40
g521
sg42
g522
sg44
g79
sg46
g47
sg48
(iread_data
Room
p1141
(dp1142
g40
g51
sg42
g52
sbsba(ischedule
Activity
p1143
(dp1144
g8
g823
sg40
I1000
sg42
g830
sg44
g173
sg46
I0
sg48
(iread_data
Room
p1145
(dp1146
g40
g190
sg42
g191
sbsba(ischedule
Activity
p1147
(dp1148
g8
(lp1149
g18
ag502
ag497
ag829
ag106
ag981
ag76
ag982
ag389
ag400
ag503
ag433
ag404
ag661
ag199
ag385
ag897
ag321
ag147
ag978
ag118
ag31
ag103
ag92
ag977
ag239
ag370
ag500
ag806
ag34
ag143
ag412
ag250
ag649
ag495
ag307
ag156
ag463
ag303
ag496
ag505
ag290
ag95
ag163
ag152
ag286
ag498
ag158
ag980
ag372
ag138
ag599
ag237
ag312
ag266
asg40
g1135
sg42
g508
sg44
g79
sg46
g80
sg48
(iread_data
Room
p1150
(dp1151
g40
g215
sg42
g216
sbsba(ischedule
Activity
p1152
(dp1153
g8
(lp1154
g62
ag703
ag332
ag230
ag847
ag113
ag467
ag667
ag998
ag222
ag460
ag514
aS'17496687'
p1155
ag70
ag242
ag439
ag430
ag300
ag146
aS'8557857'
p1156
ag221
asg40
I1000
sg42
g1000
sg44
g173
sg46
I0
sg48
(iread_data
Room
p1157
(dp1158
g40
g205
sg42
g206
sbsba(ischedule
Activity
p1159
(dp1160
g8
(lp1161
g1107
aS'65675896'
p1162
ag841
ag357
ag1014
ag798
ag466
ag94
ag98
ag704
ag859
aS'20374340'
p1163
ag642
aS'28055464'
p1164
ag74
aS'69634191'
p1165
ag114
ag27
ag1068
ag391
ag246
ag36
ag408
aS'64768422'
p1166
ag686
asg40
I1000
sg42
S'Interactie-ontwerp'
p1167
sg44
g173
sg46
I0
sg48
(iread_data
Room
p1168
(dp1169
g40
g176
sg42
g177
sbsba(ischedule
Activity
p1170
(dp1171
g8
(lp1172
g259
ag276
asg40
g1048
sg42
g278
sg44
g45
sg46
g47
sg48
(iread_data
Room
p1173
(dp1174
g40
g83
sg42
g84
sbsbaa(lp1175
(ischedule
Activity
p1176
(dp1177
g8
(lp1178
g23
ag360
ag56
ag19
ag22
ag363
ag32
ag367
ag12
ag104
ag349
ag36
ag353
ag365
ag17
ag150
ag34
ag221
ag366
ag15
ag30
ag364
ag374
ag368
ag362
ag38
ag357
ag27
ag18
ag350
ag359
ag355
ag372
ag26
asg40
g1079
sg42
g43
sg44
g79
sg46
g80
sg48
(iread_data
Room
p1179
(dp1180
g40
g83
sg42
g84
sbsba(ischedule
Activity
p1181
(dp1182
g8
(lp1183
g62
ag1100
ag147
ag851
ag781
ag228
ag899
ag896
ag685
ag230
ag356
ag678
ag210
ag313
ag321
ag1066
ag649
ag411
ag57
ag171
asg40
g443
sg42
g444
sg44
g45
sg46
g80
sg48
(iread_data
Room
p1184
(dp1185
g40
g205
sg42
g206
sbsba(ischedule
Activity
p1186
(dp1187
g8
(lp1188
g161
ag484
aS'81116418'
p1189
ag367
ag567
ag13
ag1065
ag166
ag805
asg40
g867
sg42
g868
sg44
g79
sg46
g335
sg48
(iread_data
Room
p1190
(dp1191
g40
g176
sg42
g177
sbsba(ischedule
Activity
p1192
(dp1193
g8
g538
sg40
I1000
sg42
g522
sg44
g173
sg46
I0
sg48
(iread_data
Room
p1194
(dp1195
g40
g51
sg42
g52
sbsba(ischedule
Activity
p1196
(dp1197
g8
(lp1198
g1155
ag514
ag62
ag242
ag221
ag430
ag667
ag113
ag1156
ag439
ag703
ag467
ag222
asg40
g999
sg42
g1000
sg44
g45
sg46
g80
sg48
(iread_data
Room
p1199
(dp1200
g40
g190
sg42
g191
sbsba(ischedule
Activity
p1201
(dp1202
g8
(lp1203
g851
ag468
ag92
ag1009
ag797
ag229
ag147
ag604
aS'44151631'
p1204
ag249
aS'64418623'
p1205
aS'1695839'
p1206
ag1162
ag289
ag71
ag1006
aS'55103073'
p1207
ag688
asg40
g333
sg42
g334
sg44
g79
sg46
g80
sg48
(iread_data
Room
p1208
(dp1209
g40
g215
sg42
g216
sbsba(ischedule
Activity
p1210
(dp1211
g8
(lp1212
g170
ag152
ag164
ag159
ag88
ag24
ag165
ag148
ag156
ag139
ag134
ag157
ag140
ag169
ag144
ag150
ag138
ag145
ag133
ag121
asg40
g958
sg42
g172
sg44
g45
sg46
g80
sg48
(iread_data
Room
p1213
(dp1214
g40
g128
sg42
g129
sbsbaa(lp1215
(ischedule
Activity
p1216
(dp1217
g8
(lp1218
g71
ag415
ag979
ag565
ag308
ag1107
ag232
ag137
ag826
ag583
ag896
ag804
ag57
ag978
ag301
aS'63955238'
p1219
ag698
ag1009
ag467
ag643
aS'38329455'
p1220
ag407
ag231
ag158
ag144
ag28
ag404
ag699
ag149
ag115
aS'51186803'
p1221
aS'82688900'
p1222
aS'39659121'
p1223
ag461
ag261
ag314
ag677
ag250
ag111
ag545
ag405
aS'91139627'
p1224
ag800
aS'7492204'
p1225
ag403
ag107
ag640
ag36
ag89
ag151
aS'79858178'
p1226
aS'44940353'
p1227
ag840
aS'37498675'
p1228
ag35
ag141
ag374
ag589
aS'10872825'
p1229
ag140
ag977
ag457
ag388
ag371
ag1011
ag828
aS'79366078'
p1230
aS'63408522'
p1231
ag672
ag604
aS'47605891'
p1232
ag64
ag587
ag70
ag91
ag242
ag829
aS'72547110'
p1233
ag781
ag18
ag605
ag434
aS'65003379'
p1234
aS'39919665'
p1235
asg40
I1000
sg42
S'Kansrekenen 2'
p1236
sg44
g173
sg46
I0
sg48
(iread_data
Room
p1237
(dp1238
g40
g176
sg42
g177
sbsba(ischedule
Activity
p1239
(dp1240
g8
(lp1241
g629
ag303
ag472
ag641
aS'75680261'
p1242
ag708
ag15
ag626
ag829
ag570
ag389
ag482
ag353
ag585
ag735
ag223
ag111
ag476
ag625
asg40
g920
sg42
g921
sg44
g79
sg46
g47
sg48
(iread_data
Room
p1243
(dp1244
g40
g205
sg42
g206
sbsba(ischedule
Activity
p1245
(dp1246
g8
g132
sg40
I1000
sg42
g172
sg44
g173
sg46
I0
sg48
(iread_data
Room
p1247
(dp1248
g40
g215
sg42
g216
sbsba(ischedule
Activity
p1249
(dp1250
g8
(lp1251
g359
ag16
ag666
asg40
g769
sg42
g679
sg44
g79
sg46
g47
sg48
(iread_data
Room
p1252
(dp1253
g40
g190
sg42
g191
sbsba(ischedule
Activity
p1254
(dp1255
g8
(lp1256
g70
ag439
ag514
ag847
ag430
ag242
ag467
ag1156
ag222
ag146
ag332
ag1155
ag62
ag703
ag221
ag113
asg40
S'15'
p1257
sg42
g1000
sg44
g79
sg46
g80
sg48
(iread_data
Room
p1258
(dp1259
g40
g51
sg42
g52
sbsba(ischedule
Activity
p1260
(dp1261
g8
(lp1262
g584
ag35
asg40
g1027
sg42
g591
sg44
g45
sg46
g335
sg48
(iread_data
Room
p1263
(dp1264
g40
g128
sg42
g129
sbsbaa(lp1265
(ischedule
Activity
p1266
(dp1267
g8
g1161
sg40
I1000
sg42
g1167
sg44
g173
sg46
I0
sg48
(iread_data
Room
p1268
(dp1269
g40
g215
sg42
g216
sbsba(ischedule
Activity
p1270
(dp1271
g8
(lp1272
g16
ag673
ag197
ag663
ag666
ag457
ag671
ag465
ag573
ag570
ag597
ag348
ag293
ag662
ag670
ag322
ag167
asg40
g885
sg42
g679
sg44
g45
sg46
g80
sg48
(iread_data
Room
p1273
(dp1274
g40
g128
sg42
g129
sbsba(ischedule
Activity
p1275
(dp1276
g8
(lp1277
g31
ag368
ag230
ag221
ag661
ag664
ag678
ag145
ag669
ag169
ag676
ag467
ag651
ag674
ag359
ag667
ag266
ag506
ag584
ag296
ag392
ag668
ag600
ag228
ag480
ag37
ag93
ag142
ag672
asg40
g885
sg42
g679
sg44
g45
sg46
g335
sg48
(iread_data
Room
p1278
(dp1279
g40
g176
sg42
g177
sbsba(ischedule
Activity
p1280
(dp1281
g8
g283
sg40
I1000
sg42
g212
sg44
g173
sg46
I0
sg48
(iread_data
Room
p1282
(dp1283
g40
g51
sg42
g52
sbsba(ischedule
Activity
p1284
(dp1285
g8
(lp1286
g545
asg40
g934
sg42
g522
sg44
g45
sg46
g47
sg48
(iread_data
Room
p1287
(dp1288
g40
g83
sg42
g84
sbsba(ischedule
Activity
p1289
(dp1290
g8
(lp1291
g97
ag442
ag540
asg40
g934
sg42
g522
sg44
g45
sg46
g80
sg48
(iread_data
Room
p1292
(dp1293
g40
g205
sg42
g206
sbsba(ischedule
Activity
p1294
(dp1295
g8
g1154
sg40
I1000
sg42
g1000
sg44
g173
sg46
I0
sg48
(iread_data
Room
p1296
(dp1297
g40
g190
sg42
g191
sbsbaa(lp1298
(ischedule
Activity
p1299
(dp1300
g8
(lp1301
g230
ag998
ag667
ag300
ag460
asg40
g1257
sg42
g1000
sg44
g79
sg46
g47
sg48
(iread_data
Room
p1302
(dp1303
g40
g215
sg42
g216
sbsba(ischedule
Activity
p1304
(dp1305
g8
g835
sg40
I1000
sg42
g278
sg44
g173
sg46
I0
sg48
(iread_data
Room
p1306
(dp1307
g40
g128
sg42
g129
sbsba(ischedule
Activity
p1308
(dp1309
g8
(lp1310
g581
ag1014
ag243
ag11
ag56
ag817
ag241
ag298
ag685
ag978
ag540
ag348
ag355
asg40
g867
sg42
g868
sg44
g79
sg46
g47
sg48
(iread_data
Room
p1311
(dp1312
g40
g83
sg42
g84
sbsba(ischedule
Activity
p1313
(dp1314
g8
(lp1315
g366
ag545
ag483
ag648
ag391
ag122
ag17
ag497
ag123
ag800
ag515
ag467
ag88
ag479
ag38
ag403
aS'7386961'
p1316
ag981
ag409
ag1225
asg40
g185
sg42
g186
sg44
g79
sg46
g552
sg48
(iread_data
Room
p1317
(dp1318
g40
g205
sg42
g206
sbsba(ischedule
Activity
p1319
(dp1320
g8
g1218
sg40
I1000
sg42
g1236
sg44
g173
sg46
I0
sg48
(iread_data
Room
p1321
(dp1322
g40
g176
sg42
g177
sbsba(ischedule
Activity
p1323
(dp1324
g8
(lp1325
g309
ag295
ag310
ag270
ag249
ag294
ag288
ag302
ag197
ag319
ag290
ag313
ag291
ag301
asg40
g211
sg42
g212
sg44
g79
sg46
g80
sg48
(iread_data
Room
p1326
(dp1327
g40
g190
sg42
g191
sbsba(ischedule
Activity
p1328
(dp1329
g8
(lp1330
g433
ag717
ag748
ag382
asg40
g201
sg42
g202
sg44
g45
sg46
g80
sg48
(iread_data
Room
p1331
(dp1332
g40
g51
sg42
g52
sbsbaaa(lp1333
(lp1334
a(lp1335
a(lp1336
a(lp1337
a(lp1338
aasS'timeslot_dict'
p1339
(dp1340
I0
S'9:00-11:00'
p1341
sI1
S'11:00-13:00'
p1342
sI2
S'13:00-15:00'
p1343
sI3
S'15:00-17:00'
p1344
sI4
S'17:00-19:00'
p1345
ssS'day_dict'
p1346
(dp1347
I0
S'Monday'
p1348
sI1
S'Tuesday'
p1349
sI2
S'Wednesday'
p1350
sI3
S'Thursday'
p1351
sI4
S'Friday'
p1352
ssb.