(ischedule
Schedule
p0
(dp1
S'timetable'
p2
(lp3
(lp4
(lp5
(ischedule
Activity
p6
(dp7
S'participants'
p8
(lp9
S'5298748'
p10
aS'247918'
p11
aS'96453361'
p12
aS'20883994'
p13
aS'59544049'
p14
aS'54026378'
p15
aS'58522654'
p16
aS'74131924'
p17
asS'capacity'
p18
S'20'
p19
sS'name'
p20
S'Bioinformatica'
p21
sS'ttype'
p22
S'tutorials'
p23
sS'group_id'
p24
S'2'
p25
sS'room'
p26
(iread_data
Room
p27
(dp28
g18
S'48'
p29
sg20
S'B0.201'
p30
sbsba(ischedule
Activity
p31
(dp32
g8
(lp33
S'81200278'
p34
ag10
aS'3168419'
p35
aS'43680781'
p36
aS'30195935'
p37
aS'56749879'
p38
aS'21964491'
p39
ag11
aS'33930505'
p40
aS'28359697'
p41
aS'6913074'
p42
aS'11068043'
p43
aS'33877725'
p44
ag12
ag16
aS'88176729'
p45
aS'15051051'
p46
aS'4568018'
p47
aS'64600457'
p48
ag13
aS'56815156'
p49
aS'66120270'
p50
aS'70878567'
p51
aS'22731474'
p52
aS'85335143'
p53
aS'6723948'
p54
aS'22826928'
p55
aS'14591033'
p56
ag14
aS'42196732'
p57
aS'53202517'
p58
aS'29526540'
p59
aS'24613625'
p60
aS'96054456'
p61
aS'14816774'
p62
aS'89985072'
p63
aS'77831658'
p64
ag15
ag17
aS'44868097'
p65
aS'7308727'
p66
aS'79617364'
p67
aS'30050930'
p68
aS'73236988'
p69
aS'21029457'
p70
asg18
I1000
sg20
g21
sg22
S'lectures'
p71
sg24
I0
sg26
(iread_data
Room
p72
(dp73
g18
S'56'
p74
sg20
S'A1.10'
p75
sbsba(ischedule
Activity
p76
(dp77
g8
(lp78
S'61518436'
p79
aS'54569540'
p80
aS'70193386'
p81
aS'70844780'
p82
aS'13658563'
p83
aS'37110913'
p84
aS'99453514'
p85
aS'4709948'
p86
aS'32044893'
p87
ag55
aS'20239127'
p88
aS'13092455'
p89
aS'13718298'
p90
aS'27950803'
p91
aS'90474003'
p92
aS'20095994'
p93
aS'36785409'
p94
aS'49922855'
p95
aS'27805666'
p96
aS'82390428'
p97
aS'60661905'
p98
aS'51415617'
p99
aS'77960666'
p100
aS'52715680'
p101
aS'68286356'
p102
aS'42406214'
p103
aS'3685034'
p104
aS'84449005'
p105
aS'96554914'
p106
aS'24277163'
p107
aS'92778619'
p108
ag36
aS'57086672'
p109
aS'87830198'
p110
aS'37399898'
p111
aS'78136904'
p112
aS'22871048'
p113
aS'36213792'
p114
aS'60352393'
p115
aS'77392404'
p116
aS'86988337'
p117
aS'38296757'
p118
aS'51052738'
p119
ag10
aS'59753700'
p120
aS'33776961'
p121
ag42
aS'99975346'
p122
aS'27370083'
p123
aS'41578612'
p124
aS'84524083'
p125
asg18
I1000
sg20
S'Reflectie op de digitale cultuur'
p126
sg22
g71
sg24
I0
sg26
(iread_data
Room
p127
(dp128
g18
S'117'
p129
sg20
S'C0.110'
p130
sbsba(ischedule
Activity
p131
(dp132
g8
(lp133
S'14309255'
p134
aS'49219163'
p135
aS'50184318'
p136
aS'51650744'
p137
ag107
aS'66621166'
p138
aS'48198668'
p139
aS'46570285'
p140
ag121
aS'49631542'
p141
aS'13218321'
p142
aS'30658799'
p143
aS'1766560'
p144
aS'59111489'
p145
aS'36748818'
p146
aS'89180944'
p147
aS'11996292'
p148
aS'99283252'
p149
aS'75521763'
p150
ag86
aS'1181560'
p151
aS'78443067'
p152
aS'83266686'
p153
aS'11741347'
p154
aS'36527838'
p155
aS'41489515'
p156
aS'17222374'
p157
aS'58592894'
p158
aS'78243495'
p159
aS'3883025'
p160
ag59
aS'5517869'
p161
ag36
aS'68315599'
p162
ag105
aS'42171678'
p163
aS'58332004'
p164
aS'96082155'
p165
aS'75997788'
p166
aS'27916487'
p167
ag48
aS'63111000'
p168
aS'27241113'
p169
aS'78821918'
p170
aS'83415514'
p171
aS'13911001'
p172
aS'58699305'
p173
aS'70072978'
p174
aS'78544592'
p175
ag53
aS'47462856'
p176
ag46
aS'18144425'
p177
aS'77376714'
p178
asg18
I1000
sg20
S'Moderne Databases'
p179
sg22
g71
sg24
I0
sg26
(iread_data
Room
p180
(dp181
g18
S'41'
p182
sg20
S'A1.04'
p183
sbsba(ischedule
Activity
p184
(dp185
g8
(lp186
S'14671406'
p187
aS'27298319'
p188
aS'64554442'
p189
ag117
aS'8522855'
p190
aS'50143947'
p191
aS'36903574'
p192
aS'72895450'
p193
aS'88596522'
p194
aS'41585485'
p195
aS'1665980'
p196
aS'23652927'
p197
aS'82689818'
p198
ag39
aS'44828429'
p199
aS'64947290'
p200
asg18
S'25'
p201
sg20
S'Algoritmen en complexiteit'
p202
sg22
S'labs'
p203
sg24
S'1'
p204
sg26
(iread_data
Room
p205
(dp206
g18
S'22'
p207
sg20
S'A1.06'
p208
sbsba(ischedule
Activity
p209
(dp210
g8
(lp211
S'20830477'
p212
aS'98105190'
p213
aS'94930277'
p214
ag166
aS'76393508'
p215
aS'71839156'
p216
ag62
aS'4783858'
p217
aS'87210640'
p218
ag163
aS'4353500'
p219
aS'57467488'
p220
aS'58736785'
p221
aS'31897288'
p222
ag56
aS'83443653'
p223
ag150
ag113
aS'14138904'
p224
aS'66122625'
p225
aS'92977271'
p226
ag148
aS'59075181'
p227
aS'44901052'
p228
aS'53775014'
p229
aS'81218347'
p230
aS'48357272'
p231
aS'20331158'
p232
aS'19858730'
p233
aS'86807027'
p234
aS'14941752'
p235
aS'45660925'
p236
ag84
aS'97417002'
p237
aS'22323043'
p238
aS'79879876'
p239
ag38
ag83
aS'53107172'
p240
aS'61060652'
p241
aS'1696500'
p242
ag47
ag192
aS'97019450'
p243
asg18
I1000
sg20
S'Heuristieken 1'
p244
sg22
g71
sg24
I0
sg26
(iread_data
Room
p245
(dp246
g18
S'20'
p247
sg20
S'A1.08'
p248
sbsbaa(lp249
(ischedule
Activity
p250
(dp251
g8
(lp252
g43
aS'91250534'
p253
aS'14383795'
p254
aS'53585410'
p255
aS'5085194'
p256
ag47
aS'51472074'
p257
ag224
aS'44151631'
p258
ag196
aS'51673172'
p259
aS'11459236'
p260
aS'65675896'
p261
asg18
S'15'
p262
sg20
S'Compilerbouw practicum'
p263
sg22
g203
sg24
g25
sg26
(iread_data
Room
p264
(dp265
g18
g74
sg20
g75
sbsba(ischedule
Activity
p266
(dp267
g8
(lp268
S'51566595'
p269
aS'19337738'
p270
ag85
aS'37744525'
p271
ag51
ag225
ag120
aS'45414528'
p272
ag84
ag191
aS'87314964'
p273
ag17
asg18
S'10'
p274
sg20
S'Data Mining'
p275
sg22
g23
sg24
g25
sg26
(iread_data
Room
p276
(dp277
g18
g129
sg20
g130
sbsba(ischedule
Activity
p278
(dp279
g8
(lp280
S'86291592'
p281
aS'123355'
p282
aS'5590289'
p283
ag160
ag220
aS'56191333'
p284
aS'16912993'
p285
aS'72665524'
p286
aS'62736669'
p287
aS'21677389'
p288
aS'31247305'
p289
ag190
ag40
aS'25557516'
p290
asg18
S'20'
p291
sg20
S'Netwerken en systeembeveiliging'
p292
sg22
g203
sg24
S'4'
p293
sg26
(iread_data
Room
p294
(dp295
g18
g207
sg20
g208
sbsba(ischedule
Activity
p296
(dp297
g8
(lp298
g134
ag137
ag139
ag141
ag147
ag150
ag152
ag158
ag59
ag162
ag164
ag167
ag169
ag46
ag154
ag136
ag168
ag53
ag171
ag149
ag121
ag155
asg18
S'20'
p299
sg20
g179
sg22
g23
sg24
g204
sg26
(iread_data
Room
p300
(dp301
g18
S'60'
p302
sg20
S'C1.112'
p303
sbsba(ischedule
Activity
p304
(dp305
g8
(lp306
S'46052388'
p307
aS'29474737'
p308
ag198
aS'43027916'
p309
aS'37770881'
p310
ag16
ag242
aS'64393888'
p311
aS'76123484'
p312
aS'35330349'
p313
ag157
aS'96104167'
p314
ag240
aS'17575088'
p315
ag107
ag57
aS'34773179'
p316
asg18
S'20'
p317
sg20
S'Collectieve Intelligentie'
p318
sg22
g23
sg24
S'3'
p319
sg26
(iread_data
Room
p320
(dp321
g18
g247
sg20
g248
sbsba(ischedule
Activity
p322
(dp323
g8
(lp324
S'85236626'
p325
ag192
aS'2317551'
p326
ag200
aS'77896638'
p327
aS'90296821'
p328
aS'41153310'
p329
aS'26857113'
p330
aS'1048485'
p331
aS'73893840'
p332
aS'670011'
p333
aS'88519892'
p334
aS'15249775'
p335
aS'61443567'
p336
aS'63634350'
p337
aS'88597745'
p338
aS'47982619'
p339
aS'23983476'
p340
ag48
aS'58040377'
p341
asg18
S'20'
p342
sg20
S'Programmeren in Java 2'
p343
sg22
g203
sg24
S'6'
p344
sg26
(iread_data
Room
p345
(dp346
g18
g182
sg20
g183
sbsbaa(lp347
(ischedule
Activity
p348
(dp349
g8
(lp350
S'5976174'
p351
aS'72652638'
p352
ag325
aS'87602030'
p353
ag159
aS'34765676'
p354
aS'81022997'
p355
ag333
ag109
aS'7106649'
p356
ag34
aS'27925117'
p357
aS'5739011'
p358
ag335
ag269
ag336
aS'35315956'
p359
aS'48678993'
p360
ag122
aS'52304977'
p361
aS'82968410'
p362
aS'83869542'
p363
asg18
S'20'
p364
sg20
S'Heuristieken 2'
p365
sg22
g23
sg24
g204
sg26
(iread_data
Room
p366
(dp367
g18
g129
sg20
g130
sbsba(ischedule
Activity
p368
(dp369
g8
(lp370
S'13116738'
p371
asg18
S'10'
p372
sg20
g275
sg22
g203
sg24
g319
sg26
(iread_data
Room
p373
(dp374
g18
g247
sg20
g248
sbsba(ischedule
Activity
p375
(dp376
g8
(lp377
g312
ag44
aS'3474870'
p378
aS'43460038'
p379
ag193
aS'69459473'
p380
aS'76903244'
p381
ag336
aS'76648468'
p382
aS'27064249'
p383
aS'64228258'
p384
aS'20618153'
p385
ag159
ag116
aS'40434933'
p386
aS'72577292'
p387
aS'10698627'
p388
aS'2416751'
p389
aS'41790793'
p390
aS'6249823'
p391
aS'24891081'
p392
aS'28358060'
p393
aS'5615125'
p394
aS'14847953'
p395
ag214
ag147
aS'49908313'
p396
aS'66034145'
p397
ag109
aS'53512831'
p398
aS'39230359'
p399
aS'22288615'
p400
aS'16333449'
p401
aS'43902015'
p402
aS'1137946'
p403
aS'67073567'
p404
aS'17092717'
p405
aS'14303208'
p406
ag58
asg18
I1000
sg20
S'Webprogrammeren en databases'
p407
sg22
g71
sg24
I0
sg26
(iread_data
Room
p408
(dp409
g18
g182
sg20
g183
sbsba(ischedule
Activity
p410
(dp411
g8
(lp412
g213
ag166
ag216
ag217
ag163
ag220
ag222
ag223
ag225
ag228
ag230
ag232
ag234
ag236
ag237
ag239
ag83
ag241
ag47
ag243
ag231
ag240
ag62
ag113
ag218
ag38
asg18
S'25'
p413
sg20
g244
sg22
g23
sg24
g25
sg26
(iread_data
Room
p414
(dp415
g18
g302
sg20
g303
sbsba(ischedule
Activity
p416
(dp417
g8
(lp418
g136
ag138
ag149
ag151
ag154
ag160
ag36
ag168
ag171
ag176
ag165
ag145
ag59
ag121
asg18
S'20'
p419
sg20
g179
sg22
g203
sg24
g319
sg26
(iread_data
Room
p420
(dp421
g18
g29
sg20
g30
sbsba(ischedule
Activity
p422
(dp423
g8
(lp424
g235
aS'28618400'
p425
aS'13284244'
p426
aS'42778953'
p427
ag87
aS'88752563'
p428
aS'37419523'
p429
aS'60312776'
p430
aS'19214659'
p431
aS'21070547'
p432
aS'2550487'
p433
ag89
aS'89338938'
p434
ag193
ag52
ag281
aS'34691309'
p435
ag103
ag69
asg18
S'15'
p436
sg20
S'Project Numerical Recipes'
p437
sg22
g203
sg24
g204
sg26
(iread_data
Room
p438
(dp439
g18
g207
sg20
g208
sbsba(ischedule
Activity
p440
(dp441
g8
(lp442
g80
ag86
ag88
ag94
ag100
ag103
ag106
ag36
ag111
ag117
ag10
ag124
ag105
ag108
ag112
ag81
ag102
ag123
asg18
S'20'
p443
sg20
g126
sg22
g23
sg24
g25
sg26
(iread_data
Room
p444
(dp445
g18
g74
sg20
g75
sbsbaa(lp446
(ischedule
Activity
p447
(dp448
g8
(lp449
S'63955238'
p450
ag195
ag176
aS'34262212'
p451
aS'39659121'
p452
aS'69086548'
p453
aS'94467156'
p454
aS'41527759'
p455
ag14
ag337
ag289
aS'77240949'
p456
aS'38499176'
p457
aS'14398123'
p458
ag104
ag394
ag399
aS'64296965'
p459
aS'91196968'
p460
aS'76924297'
p461
ag192
aS'44940353'
p462
aS'18266644'
p463
aS'31633723'
p464
aS'34243356'
p465
aS'23391676'
p466
aS'23798155'
p467
aS'11915563'
p468
aS'56988998'
p469
ag141
aS'51186803'
p470
aS'74182182'
p471
ag230
aS'7492204'
p472
ag80
aS'99272880'
p473
aS'79858178'
p474
aS'97371272'
p475
ag56
aS'94955328'
p476
ag13
ag125
aS'51542218'
p477
aS'55474917'
p478
aS'28957789'
p479
aS'54310617'
p480
aS'24875739'
p481
aS'39919665'
p482
aS'47605891'
p483
aS'9731271'
p484
aS'37498675'
p485
ag79
ag227
ag190
aS'84110134'
p486
ag16
ag112
aS'77636749'
p487
ag187
ag243
aS'42115591'
p488
ag434
ag52
aS'79366078'
p489
ag140
aS'65003379'
p490
aS'32705005'
p491
aS'17823206'
p492
aS'63408522'
p493
ag61
aS'91139627'
p494
ag38
aS'72547110'
p495
aS'5368702'
p496
aS'58469172'
p497
aS'27187154'
p498
ag88
aS'10792879'
p499
aS'38329455'
p500
aS'82688900'
p501
ag164
aS'78735049'
p502
aS'10872825'
p503
ag232
asg18
I1000
sg20
S'Kansrekenen 2'
p504
sg22
g71
sg24
I0
sg26
(iread_data
Room
p505
(dp506
g18
g302
sg20
g303
sbsba(ischedule
Activity
p507
(dp508
g8
(lp509
S'47260040'
p510
ag101
aS'26406342'
p511
ag286
aS'1695839'
p512
aS'64418623'
p513
aS'41644639'
p514
aS'3407554'
p515
ag194
asg18
g262
sg20
g263
sg22
g203
sg24
g319
sg26
(iread_data
Room
p516
(dp517
g18
g247
sg20
g248
sbsba(ischedule
Activity
p518
(dp519
g8
(lp520
S'52311353'
p521
aS'68360259'
p522
ag39
ag460
aS'13996448'
p523
ag238
aS'97136582'
p524
aS'98780382'
p525
asg18
g274
sg20
g275
sg22
g23
sg24
g204
sg26
(iread_data
Room
p526
(dp527
g18
g207
sg20
g208
sbsba(ischedule
Activity
p528
(dp529
g8
(lp530
g240
aS'28357474'
p531
ag307
ag191
aS'22699561'
p532
ag281
ag480
aS'68601184'
p533
aS'33760909'
p534
aS'86000192'
p535
ag308
ag511
ag150
ag387
ag198
aS'48601268'
p536
aS'15902055'
p537
ag107
ag309
aS'62701040'
p538
ag161
ag66
ag310
aS'9332762'
p539
ag217
ag57
ag16
ag384
aS'13534377'
p540
ag316
ag242
ag427
ag315
aS'1075391'
p541
aS'51741554'
p542
ag89
ag136
ag430
ag311
aS'87758823'
p543
ag163
ag327
aS'23547619'
p544
aS'31416266'
p545
aS'25106480'
p546
ag39
ag312
ag196
ag456
aS'65960683'
p547
ag313
aS'57595888'
p548
ag336
aS'97135019'
p549
ag157
aS'29640619'
p550
aS'3233378'
p551
aS'45556081'
p552
ag314
aS'73980360'
p553
ag459
asg18
I1000
sg20
g318
sg22
g71
sg24
I0
sg26
(iread_data
Room
p554
(dp555
g18
g74
sg20
g75
sbsba(ischedule
Activity
p556
(dp557
g8
(lp558
g312
ag378
ag381
ag382
ag159
ag388
ag394
ag214
ag396
ag109
ag401
ag403
ag58
ag397
ag383
ag402
ag391
ag392
ag398
ag386
asg18
S'20'
p559
sg20
g407
sg22
g23
sg24
g204
sg26
(iread_data
Room
p560
(dp561
g18
g182
sg20
g183
sbsba(ischedule
Activity
p562
(dp563
g8
(lp564
g269
ag270
ag85
aS'25330192'
p565
aS'93023961'
p566
ag271
ag225
ag120
ag17
ag492
ag34
ag355
ag273
asg18
g372
sg20
g275
sg22
g203
sg24
g25
sg26
(iread_data
Room
p567
(dp568
g18
g129
sg20
g130
sbsba(ischedule
Activity
p569
(dp570
g8
(lp571
g164
aS'19958553'
p572
ag260
ag226
ag51
aS'75585647'
p573
ag340
ag371
aS'29718115'
p574
ag162
asg18
S'15'
p575
sg20
S'Informatie- en organsatieontwerp'
p576
sg22
g203
sg24
g25
sg26
(iread_data
Room
p577
(dp578
g18
g29
sg20
g30
sbsbaa(lp579
(ischedule
Activity
p580
(dp581
g8
(lp582
g379
aS'72683344'
p583
ag147
ag552
aS'58866007'
p584
aS'49683101'
p585
ag387
ag224
aS'34872117'
p586
aS'59289233'
p587
ag386
aS'10149535'
p588
ag357
ag425
ag153
aS'70015932'
p589
ag198
ag574
ag467
aS'13798030'
p590
ag232
asg18
I1000
sg20
S'Architectuur en computerorganisatie'
p591
sg22
g71
sg24
I0
sg26
g72
sba(ischedule
Activity
p592
(dp593
g8
(lp594
g40
ag47
ag49
ag55
ag57
ag60
ag63
ag17
ag67
ag65
ag52
asg18
S'20'
p595
sg20
g21
sg22
g203
sg24
g319
sg26
g373
sba(ischedule
Activity
p596
(dp597
g8
(lp598
g583
ag35
aS'92665222'
p599
ag115
ag395
aS'39429093'
p600
ag112
ag383
aS'40633534'
p601
ag234
ag544
aS'47477884'
p602
aS'1886996'
p603
asg18
S'10'
p604
sg20
S'Advanced Heuristics'
p605
sg22
g203
sg24
g25
sg26
(iread_data
Room
p606
(dp607
g18
g302
sg20
g303
sbsba(ischedule
Activity
p608
(dp609
g8
(lp610
g60
ag353
aS'75680261'
p611
aS'68409833'
p612
ag461
ag601
aS'82066165'
p613
aS'76661016'
p614
aS'55480737'
p615
ag458
asg18
S'15'
p616
sg20
S'Project Genetic Algorithms'
p617
sg22
g203
sg24
g25
sg26
(iread_data
Room
p618
(dp619
g18
g29
sg20
g30
sbsba(ischedule
Activity
p620
(dp621
g8
(lp622
g612
aS'72796858'
p623
aS'39459642'
p624
ag84
aS'70113753'
p625
asg18
S'10'
p626
sg20
S'Autonomous Agents 2'
p627
sg22
g203
sg24
g204
sg26
(iread_data
Room
p628
(dp629
g18
g182
sg20
g183
sbsba(ischedule
Activity
p630
(dp631
g8
g530
sg18
I1000
sg20
g318
sg22
g71
sg24
I0
sg26
(iread_data
Room
p632
(dp633
g18
g207
sg20
g208
sbsba(ischedule
Activity
p634
(dp635
g8
(lp636
S'7957843'
p637
ag599
ag326
ag585
aS'15911353'
p638
ag144
aS'75599734'
p639
aS'54772132'
p640
ag60
ag16
ag153
aS'8464817'
p641
ag624
aS'66701209'
p642
aS'94687383'
p643
aS'40791377'
p644
ag193
ag154
aS'79033175'
p645
aS'34110913'
p646
ag496
aS'12077419'
p647
ag468
ag310
aS'75664412'
p648
ag125
aS'65852230'
p649
ag117
ag586
ag91
aS'75759231'
p650
ag465
aS'5595824'
p651
ag143
aS'46989508'
p652
aS'48308205'
p653
aS'79167252'
p654
aS'44391517'
p655
ag54
ag281
ag515
ag623
aS'88636924'
p656
ag58
ag172
ag327
ag430
ag213
ag614
aS'80135353'
p657
ag428
ag426
ag499
ag162
ag427
aS'31194811'
p658
ag134
aS'81385263'
p659
aS'9067939'
p660
aS'43689934'
p661
aS'48503689'
p662
ag547
ag69
ag498
aS'88855695'
p663
aS'2079771'
p664
aS'76802764'
p665
aS'95631564'
p666
aS'95007221'
p667
asg18
I1000
sg20
S'Compilerbouw'
p668
sg22
g71
sg24
I0
sg26
(iread_data
Room
p669
(dp670
g18
g129
sg20
g130
sbsbaaa(lp671
(lp672
(ischedule
Activity
p673
(dp674
g8
(lp675
g378
ag193
ag382
ag384
ag159
ag386
ag390
ag392
ag394
ag214
ag396
ag399
ag403
ag405
ag58
ag385
ag389
ag44
ag395
ag406
ag398
ag397
ag336
ag401
ag381
ag147
asg18
S'20'
p676
sg20
g407
sg22
g203
sg24
g204
sg26
g72
sba(ischedule
Activity
p677
(dp678
g8
(lp679
g191
ag511
ag536
ag538
ag384
ag89
ag543
ag548
ag550
ag553
ag537
ag551
asg18
S'20'
p680
sg20
g318
sg22
g203
sg24
g293
sg26
(iread_data
Room
p681
(dp682
g18
g302
sg20
g303
sbsba(ischedule
Activity
p683
(dp684
g8
(lp685
g659
ag550
ag463
aS'64246605'
p686
ag198
aS'72586808'
p687
aS'59887191'
p688
ag637
ag192
ag116
ag86
ag549
ag457
ag228
ag37
ag355
ag542
aS'26207525'
p689
ag271
aS'53267490'
p690
asg18
g291
sg20
g292
sg22
g203
sg24
g204
sg26
(iread_data
Room
p691
(dp692
g18
g247
sg20
g248
sbsba(ischedule
Activity
p693
(dp694
g8
(lp695
g466
ag38
aS'23257088'
p696
ag537
aS'93566383'
p697
ag55
ag121
ag100
ag243
aS'54395877'
p698
ag533
ag497
aS'27582862'
p699
ag108
aS'4921119'
p700
ag39
ag641
asg18
g342
sg20
g343
sg22
g203
sg24
g319
sg26
(iread_data
Room
p701
(dp702
g18
g182
sg20
g183
sbsba(ischedule
Activity
p703
(dp704
g8
(lp705
g397
ag34
aS'3707829'
p706
ag659
ag461
aS'38179241'
p707
aS'81155296'
p708
aS'37701751'
p709
ag496
ag261
ag354
ag544
ag697
ag199
ag395
ag288
ag433
ag614
aS'28055464'
p710
ag431
aS'20374340'
p711
aS'4546613'
p712
ag111
aS'64768422'
p713
aS'69634191'
p714
asg18
I1000
sg20
S'Interactie-ontwerp'
p715
sg22
g71
sg24
I0
sg26
(iread_data
Room
p716
(dp717
g18
g29
sg20
g30
sbsba(ischedule
Activity
p718
(dp719
g8
(lp720
S'36508571'
p721
aS'52552718'
p722
ag228
ag612
ag625
aS'88627897'
p723
ag623
aS'62356458'
p724
ag188
ag113
aS'16097870'
p725
aS'62872965'
p726
ag468
ag15
ag161
ag624
aS'34806836'
p727
ag269
ag233
ag17
aS'61611295'
p728
ag84
asg18
I1000
sg20
g627
sg22
g71
sg24
I0
sg26
(iread_data
Room
p729
(dp730
g18
g207
sg20
g208
sbsba(ischedule
Activity
p731
(dp732
g8
(lp733
g191
ag533
ag511
ag538
ag539
ag384
ag427
ag89
ag543
ag545
ag196
ag548
ag550
ag553
ag456
ag537
asg18
g317
sg20
g318
sg22
g23
sg24
g293
sg26
(iread_data
Room
p734
(dp735
g18
g129
sg20
g130
sbsbaa(lp736
(ischedule
Activity
p737
(dp738
g8
g582
sg18
I1000
sg20
g591
sg22
g71
sg24
I0
sg26
g72
sba(ischedule
Activity
p739
(dp740
g8
(lp741
g34
ag39
ag44
ag50
ag53
ag56
ag58
ag64
ag68
ag13
ag43
ag38
ag16
ag69
ag35
ag12
ag62
asg18
g595
sg20
g21
sg22
g203
sg24
g204
sg26
(iread_data
Room
p742
(dp743
g18
g207
sg20
g208
sbsba(ischedule
Activity
p744
(dp745
g8
(lp746
g79
ag82
ag90
ag93
ag99
ag110
ag113
ag116
ag119
ag107
ag97
ag122
ag104
ag92
ag55
asg18
g443
sg20
g126
sg22
g23
sg24
g204
sg26
g408
sba(ischedule
Activity
p747
(dp748
g8
(lp749
g521
ag269
ag524
ag522
ag270
ag371
ag39
ag85
ag17
ag84
ag565
ag34
ag460
ag566
ag525
ag272
ag271
ag492
ag191
ag51
ag273
ag523
ag225
aS'87900893'
p750
ag238
ag120
ag355
asg18
I1000
sg20
g275
sg22
g71
sg24
I0
sg26
g366
sba(ischedule
Activity
p751
(dp752
g8
(lp753
g647
ag187
ag537
ag188
ag189
aS'46701583'
p754
ag190
ag191
ag192
aS'51509565'
p755
ag193
ag402
aS'26260141'
p756
ag194
ag195
ag196
ag197
aS'67817269'
p757
ag200
ag112
ag220
aS'19540225'
p758
ag199
ag255
asg18
S'25'
p759
sg20
g202
sg22
g23
sg24
g204
sg26
(iread_data
Room
p760
(dp761
g18
g29
sg20
g30
sbsba(ischedule
Activity
p762
(dp763
g8
(lp764
g138
ag143
ag146
ag157
ag160
ag36
ag163
ag166
ag174
ag178
ag175
ag148
asg18
g299
sg20
g179
sg22
g23
sg24
g319
sg26
(iread_data
Room
p765
(dp766
g18
g247
sg20
g248
sbsba(ischedule
Activity
p767
(dp768
g8
(lp769
S'73823548'
p770
ag653
aS'63939720'
p771
ag637
aS'63573738'
p772
ag471
aS'19662602'
p773
aS'12430748'
p774
ag43
aS'6939933'
p775
ag64
ag104
ag355
asg18
g436
sg20
g437
sg22
g203
sg24
g319
sg26
(iread_data
Room
p776
(dp777
g18
g302
sg20
g303
sbsbaa(lp778
(ischedule
Activity
p779
(dp780
g8
g749
sg18
I1000
sg20
g275
sg22
g71
sg24
I0
sg26
g505
sba(ischedule
Activity
p781
(dp782
g8
(lp783
g625
ag754
ag42
ag86
aS'63096281'
p784
ag662
ag388
aS'3678531'
p785
aS'39905995'
p786
ag433
aS'23215240'
p787
ag389
ag400
ag484
ag117
ag473
ag168
asg18
g342
sg20
g343
sg22
g203
sg24
g293
sg26
(iread_data
Room
p788
(dp789
g18
g182
sg20
g183
sbsba(ischedule
Activity
p790
(dp791
g8
(lp792
g521
ag522
ag39
ag84
ag460
ag272
ag191
ag523
ag750
ag524
ag525
ag238
ag51
asg18
g372
sg20
g275
sg22
g203
sg24
g204
sg26
(iread_data
Room
p793
(dp794
g18
g74
sg20
g75
sbsba(ischedule
Activity
p795
(dp796
g8
(lp797
g135
ag107
ag140
ag142
ag145
ag86
ag153
ag156
ag159
ag161
ag105
ag165
ag48
ag170
ag173
ag177
ag172
ag144
ag151
ag176
asg18
g299
sg20
g179
sg22
g23
sg24
g25
sg26
(iread_data
Room
p798
(dp799
g18
g247
sg20
g248
sbsba(ischedule
Activity
p800
(dp801
g8
(lp802
S'82872148'
p803
ag227
ag110
ag360
ag66
ag115
ag50
ag565
aS'70939718'
p804
aS'62363761'
p805
aS'56121590'
p806
aS'40343779'
p807
ag219
aS'72456780'
p808
ag648
ag458
ag425
ag465
asg18
g291
sg20
g292
sg22
g203
sg24
g319
sg26
(iread_data
Room
p809
(dp810
g18
g129
sg20
g130
sbsba(ischedule
Activity
p811
(dp812
g8
(lp813
g531
ag281
ag535
ag387
ag66
ag541
ag430
ag39
ag549
ag552
ag459
ag536
ag480
asg18
g317
sg20
g318
sg22
g23
sg24
g25
sg26
(iread_data
Room
p814
(dp815
g18
g29
sg20
g30
sbsba(ischedule
Activity
p816
(dp817
g8
(lp818
S'28943658'
p819
aS'73196865'
p820
aS'51593625'
p821
ag271
aS'88263855'
p822
ag602
ag624
aS'34900967'
p823
aS'44671041'
p824
aS'7386961'
p825
ag272
ag61
ag174
aS'10702778'
p826
ag655
ag451
aS'66433883'
p827
ag538
ag654
ag657
aS'37279234'
p828
asg18
g342
sg20
g343
sg22
g203
sg24
g25
sg26
(iread_data
Room
p829
(dp830
g18
g207
sg20
g208
sbsbaa(lp831
(ischedule
Activity
p832
(dp833
g8
(lp834
g13
ag166
ag82
ag425
ag286
aS'62613937'
p835
ag387
asg18
g604
sg20
g605
sg22
g203
sg24
g204
sg26
g366
sba(ischedule
Activity
p836
(dp837
g8
(lp838
g351
ag122
ag352
ag221
ag335
ag125
ag360
ag341
ag325
ag725
ag353
ag362
ag159
ag34
ag356
ag337
ag52
ag358
ag354
ag336
ag359
ag534
ag355
ag357
ag333
ag603
ag361
ag222
ag363
ag309
ag109
ag269
asg18
I1000
sg20
g365
sg22
g71
sg24
I0
sg26
(iread_data
Room
p839
(dp840
g18
g182
sg20
g183
sbsba(ischedule
Activity
p841
(dp842
g8
(lp843
S'14179347'
p844
ag360
ag454
ag259
ag380
ag124
aS'25994016'
p845
aS'74361881'
p846
ag190
ag170
asg18
g616
sg20
g617
sg22
g203
sg24
g319
sg26
(iread_data
Room
p847
(dp848
g18
g74
sg20
g75
sbsba(ischedule
Activity
p849
(dp850
g8
(lp851
g10
ag37
ag11
ag42
ag46
ag51
ag54
ag14
ag59
ag15
ag66
ag41
ag36
ag70
ag45
ag48
ag61
asg18
g595
sg20
g21
sg22
g203
sg24
g25
sg26
(iread_data
Room
p852
(dp853
g18
g207
sg20
g208
sbsba(ischedule
Activity
p854
(dp855
g8
(lp856
g187
aS'65408517'
p857
aS'58074656'
p858
ag546
ag44
ag113
ag464
aS'37830626'
p859
aS'31103066'
p860
ag91
ag430
ag803
ag191
ag69
ag14
ag807
ag612
ag550
ag238
ag271
ag824
ag101
ag454
ag159
aS'3727435'
p861
ag178
aS'45915482'
p862
aS'21095566'
p863
ag90
aS'9287708'
p864
aS'14072826'
p865
ag486
ag551
ag379
ag231
ag134
ag468
ag106
aS'62105897'
p866
aS'58565406'
p867
ag478
ag65
ag152
ag639
ag536
ag217
aS'83210352'
p868
ag47
ag329
ag351
ag331
ag821
ag289
ag455
ag756
ag434
ag712
ag43
ag666
ag724
ag63
ag15
ag589
ag241
ag45
ag488
ag149
aS'80709893'
p869
ag722
ag147
ag699
aS'73302736'
p870
aS'65318664'
p871
ag531
ag521
asg18
I1000
sg20
S'Software engineering'
p872
sg22
g71
sg24
I0
sg26
(iread_data
Room
p873
(dp874
g18
g302
sg20
g303
sbsba(ischedule
Activity
p875
(dp876
g8
(lp877
g484
ag82
aS'12170832'
p878
ag331
aS'19058315'
p879
ag34
ag640
aS'535689'
p880
aS'85284256'
p881
ag772
ag524
ag242
asg18
g291
sg20
g292
sg22
g203
sg24
g25
sg26
(iread_data
Room
p882
(dp883
g18
g29
sg20
g30
sbsba(ischedule
Activity
p884
(dp885
g8
(lp886
g240
ag532
ag150
ag217
ag315
ag136
ag163
ag456
ag336
ag459
ag427
ag545
ag552
asg18
g680
sg20
g318
sg22
g203
sg24
g204
sg26
(iread_data
Room
p887
(dp888
g18
g247
sg20
g248
sbsbaa(lp889
(ischedule
Activity
p890
(dp891
g8
(lp892
g585
ag144
ag640
ag16
ag642
ag644
ag154
ag646
ag647
ag125
ag117
ag91
ag143
ag653
ag655
ag327
ag213
ag657
ag426
ag162
ag658
ag659
ag661
ag547
ag498
ag666
ag649
ag193
ag134
ag623
ag60
ag637
ag624
asg18
S'40'
p893
sg20
g668
sg22
g23
sg24
g25
sg26
g72
sba(ischedule
Activity
p894
(dp895
g8
(lp896
g380
ag383
ag116
ag387
ag391
ag393
ag402
ag404
ag388
ag109
ag400
ag312
ag379
asg18
g676
sg20
g407
sg22
g203
sg24
g25
sg26
(iread_data
Room
p897
(dp898
g18
g302
sg20
g303
sbsba(ischedule
Activity
p899
(dp900
g8
(lp901
g36
ag39
ag41
ag44
ag45
ag48
ag50
ag53
ag56
ag61
ag64
ag65
ag68
ag70
ag52
ag38
ag69
ag51
ag46
ag59
ag57
asg18
g19
sg20
g21
sg22
g23
sg24
g204
sg26
(iread_data
Room
p902
(dp903
g18
g29
sg20
g30
sbsba(ischedule
Activity
p904
(dp905
g8
g449
sg18
I1000
sg20
g504
sg22
g71
sg24
I0
sg26
(iread_data
Room
p906
(dp907
g18
g129
sg20
g130
sbsba(ischedule
Activity
p908
(dp909
g8
g720
sg18
I1000
sg20
g627
sg22
g71
sg24
I0
sg26
(iread_data
Room
p910
(dp911
g18
g247
sg20
g248
sbsbaaa(lp912
(lp913
(ischedule
Activity
p914
(dp915
g8
(lp916
g858
ag44
ag430
ag191
ag14
ag612
ag238
ag824
ag454
ag861
ag862
ag90
ag865
ag231
ag468
ag866
ag478
ag536
ag868
ag331
ag289
ag756
ag712
ag666
ag63
ag589
ag45
ag722
ag699
ag871
ag488
ag870
ag271
ag551
ag863
ag351
ag43
ag859
asg18
S'40'
p917
sg20
g872
sg22
g203
sg24
g204
sg26
g366
sba(ischedule
Activity
p918
(dp919
g8
(lp920
g696
ag487
ag150
ag463
ag538
ag228
ag146
ag83
aS'8557857'
p921
aS'17496687'
p922
aS'32204977'
p923
asg18
g575
sg20
g576
sg22
g203
sg24
g204
sg26
g27
sba(ischedule
Activity
p924
(dp925
g8
(lp926
g44
ag379
ag380
ag336
ag385
ag116
ag387
ag389
ag393
ag395
ag147
ag400
ag404
ag406
ag405
ag193
ag399
ag390
ag384
asg18
g559
sg20
g407
sg22
g23
sg24
g25
sg26
(iread_data
Room
p927
(dp928
g18
g74
sg20
g75
sbsba(ischedule
Activity
p929
(dp930
g8
(lp931
g59
ag602
aS'12091019'
p932
ag363
ag709
aS'86180471'
p933
aS'25077484'
p934
aS'94686490'
p935
ag284
aS'15187217'
p936
ag405
ag312
ag700
aS'13132925'
p937
ag141
ag333
ag107
ag511
aS'59397895'
p938
aS'75005528'
p939
ag586
ag402
ag35
ag38
ag170
aS'5526560'
p940
ag550
ag100
aS'27123462'
p941
aS'58083680'
p942
ag269
aS'40141996'
p943
ag287
ag117
ag62
ag624
ag808
ag689
asg18
S'40'
p944
sg20
S'Databases 2'
p945
sg22
g23
sg24
g25
sg26
(iread_data
Room
p946
(dp947
g18
g302
sg20
g303
sbsba(ischedule
Activity
p948
(dp949
g8
(lp950
g42
ag286
ag62
ag337
ag67
ag171
ag357
ag756
aS'93361408'
p951
ag663
ag384
ag255
ag499
aS'75623387'
p952
aS'56544130'
p953
ag770
ag53
ag588
ag844
ag537
ag750
ag785
aS'82412626'
p954
ag484
aS'23658570'
p955
ag175
aS'11593163'
p956
ag614
ag502
ag725
ag61
ag712
aS'23565001'
p957
ag707
ag158
ag166
ag862
ag140
ag231
ag353
ag497
aS'22168693'
p958
ag48
aS'58253841'
p959
ag535
aS'72526473'
p960
ag217
aS'34173695'
p961
ag152
ag406
ag549
ag534
ag933
ag341
aS'23628642'
p962
ag542
ag54
ag932
aS'56348773'
p963
ag70
aS'47932106'
p964
aS'75446434'
p965
ag471
ag479
ag498
ag118
ag234
ag870
aS'61520025'
p966
ag828
aS'6709529'
p967
ag857
aS'53139134'
p968
aS'56872729'
p969
aS'79888156'
p970
ag188
aS'77306636'
p971
ag491
ag866
aS'80188025'
p972
ag383
ag654
ag775
aS'65978354'
p973
aS'31306819'
p974
aS'10609762'
p975
ag708
aS'55412918'
p976
ag65
ag428
ag573
ag805
aS'55530367'
p977
ag754
ag602
ag56
aS'59220392'
p978
aS'33672995'
p979
ag394
ag943
ag173
ag153
ag481
ag935
aS'19717077'
p980
ag804
asg18
I1000
sg20
S'Calculus 2'
p981
sg22
g71
sg24
I0
sg26
(iread_data
Room
p982
(dp983
g18
g182
sg20
g183
sbsba(ischedule
Activity
p984
(dp985
g8
(lp986
g371
ag34
ag492
ag750
ag355
ag566
ag565
asg18
g274
sg20
g275
sg22
g23
sg24
g319
sg26
(iread_data
Room
p987
(dp988
g18
g247
sg20
g248
sbsbaa(lp989
(ischedule
Activity
p990
(dp991
g8
(lp992
g221
ag125
ag725
ag337
ag603
ag222
ag309
ag52
ag534
ag341
asg18
g364
sg20
g365
sg22
g23
sg24
g25
sg26
g27
sba(ischedule
Activity
p993
(dp994
g8
g33
sg18
I1000
sg20
g21
sg22
g71
sg24
I0
sg26
(iread_data
Room
p995
(dp996
g18
g247
sg20
g248
sbsba(ischedule
Activity
p997
(dp998
g8
g377
sg18
I1000
sg20
g407
sg22
g71
sg24
I0
sg26
(iread_data
Room
p999
(dp1000
g18
g302
sg20
g303
sbsba(ischedule
Activity
p1001
(dp1002
g8
(lp1003
g254
ag774
ag94
aS'21192048'
p1004
ag162
ag453
aS'77264363'
p1005
ag36
ag148
ag124
ag84
ag588
ag391
ag134
ag544
ag228
ag511
ag238
ag386
ag356
aS'92496780'
p1006
ag487
ag653
aS'76487754'
p1007
ag475
ag647
aS'4697362'
p1008
ag923
ag867
ag53
ag434
ag539
ag648
aS'70336464'
p1009
ag150
ag339
aS'93041523'
p1010
ag658
asg18
I1000
sg20
S'Technology for games'
p1011
sg22
g71
sg24
I0
sg26
(iread_data
Room
p1012
(dp1013
g18
g207
sg20
g208
sbsba(ischedule
Activity
p1014
(dp1015
g8
(lp1016
g228
ag726
ag269
ag727
ag723
ag721
ag722
ag188
ag724
ag113
asg18
g626
sg20
g627
sg22
g203
sg24
g319
sg26
(iread_data
Room
p1017
(dp1018
g18
g74
sg20
g75
sbsba(ischedule
Activity
p1019
(dp1020
g8
(lp1021
g469
ag624
ag454
ag330
ag585
ag664
ag271
ag754
ag168
aS'67625383'
p1022
ag46
ag79
aS'33252501'
p1023
aS'90067329'
p1024
ag118
ag498
ag467
ag644
ag456
ag104
ag325
ag351
asg18
I1000
sg20
S'Machine Learning'
p1025
sg22
g71
sg24
I0
sg26
(iread_data
Room
p1026
(dp1027
g18
g182
sg20
g183
sbsbaa(lp1028
(ischedule
Activity
p1029
(dp1030
g8
(lp1031
g115
ag59
ag174
ag602
ag200
ag932
ag62
ag363
ag969
ag709
ag164
ag933
ag89
ag934
ag117
ag935
ag696
ag284
ag477
ag936
ag770
ag405
ag309
ag312
ag806
ag700
ag808
ag61
ag57
ag937
ag198
ag141
aS'54540997'
p1032
ag333
ag689
ag722
ag161
ag107
ag220
ag511
ag955
ag938
ag158
ag939
ag157
ag586
ag652
ag402
ag92
ag35
ag964
ag38
aS'4529208'
p1033
ag170
ag148
ag940
ag428
ag550
ag11
ag100
aS'91527663'
p1034
ag941
ag623
ag942
ag256
ag269
ag327
ag943
ag386
ag624
ag459
ag287
asg18
I1000
sg20
g945
sg22
g71
sg24
I0
sg26
g408
sba(ischedule
Activity
p1035
(dp1036
g8
g33
sg18
I1000
sg20
g21
sg22
g71
sg24
I0
sg26
g27
sba(ischedule
Activity
p1037
(dp1038
g8
g530
sg18
I1000
sg20
g318
sg22
g71
sg24
I0
sg26
(iread_data
Room
p1039
(dp1040
g18
g74
sg20
g75
sbsba(ischedule
Activity
p1041
(dp1042
g8
(lp1043
g228
ag723
ag188
ag726
ag161
ag269
ag728
ag15
ag625
ag727
ag113
ag84
ag233
asg18
S'10'
p1044
sg20
g627
sg22
g23
sg24
g319
sg26
(iread_data
Room
p1045
(dp1046
g18
g302
sg20
g303
sbsbaa(lp1047
(ischedule
Activity
p1048
(dp1049
g8
(lp1050
g35
ag40
ag43
ag47
ag49
ag55
ag60
ag63
ag67
ag54
ag66
ag58
ag34
ag42
ag37
ag62
asg18
g19
sg20
g21
sg22
g23
sg24
g319
sg26
(iread_data
Room
p1051
(dp1052
g18
g247
sg20
g248
sbsba(ischedule
Activity
p1053
(dp1054
g8
g636
sg18
I1000
sg20
g668
sg22
g71
sg24
I0
sg26
(iread_data
Room
p1055
(dp1056
g18
g29
sg20
g30
sbsba(ischedule
Activity
p1057
(dp1058
g8
(lp1059
g531
ag281
ag535
ag387
ag107
ag66
ag57
ag316
ag541
ag430
ag327
ag39
ag547
ag549
ag307
ag533
ag196
ag310
asg18
g680
sg20
g318
sg22
g203
sg24
g25
sg26
(iread_data
Room
p1060
(dp1061
g18
g129
sg20
g130
sbsba(ischedule
Activity
p1062
(dp1063
g8
(lp1064
g480
ag308
ag198
ag309
ag16
ag242
ag311
ag544
ag312
ag313
ag157
ag314
ag542
ag540
ag539
ag161
ag534
ag546
asg18
g680
sg20
g318
sg22
g203
sg24
g319
sg26
(iread_data
Room
p1065
(dp1066
g18
g207
sg20
g208
sbsba(ischedule
Activity
p1067
(dp1068
g8
(lp1069
g640
ag239
ag492
ag234
ag550
ag460
ag385
ag545
ag164
ag539
ag54
aS'64053722'
p1070
aS'12782624'
p1071
ag311
ag111
ag866
ag472
ag643
ag535
ag476
ag226
ag478
asg18
g342
sg20
g343
sg22
g203
sg24
g204
sg26
(iread_data
Room
p1072
(dp1073
g18
g182
sg20
g183
sbsba(ischedule
Activity
p1074
(dp1075
g8
(lp1076
g171
ag951
ag255
ag953
ag588
ag750
ag484
ag956
ag725
ag957
ag166
ag231
ag958
ag535
ag961
ag549
ag341
ag54
ag70
ag471
ag118
ag966
ag857
ag970
ag491
ag383
ag973
ag708
ag428
ag56
ag394
ag153
ag980
ag42
ag933
ag968
ag805
ag965
asg18
S'40'
p1077
sg20
g981
sg22
g23
sg24
g319
sg26
(iread_data
Room
p1078
(dp1079
g18
g302
sg20
g303
sbsba(ischedule
Activity
p1080
(dp1081
g8
(lp1082
S'5892092'
p1083
ag406
ag191
aS'42297781'
p1084
ag63
ag846
ag923
ag845
ag216
ag457
ag880
ag337
ag548
ag172
aS'55103073'
p1085
ag473
ag787
ag613
asg18
g262
sg20
g263
sg22
g203
sg24
g204
sg26
(iread_data
Room
p1086
(dp1087
g18
g74
sg20
g75
sbsbaa(lp1088
(ischedule
Activity
p1089
(dp1090
g8
(lp1091
g637
ag326
ag638
ag60
ag153
ag624
ag193
ag645
ag496
ag468
ag649
ag586
ag650
ag651
ag652
ag654
ag54
ag515
ag656
ag172
ag430
ag614
ag428
ag427
ag660
ag662
ag69
ag665
ag667
ag16
ag281
ag547
ag499
ag653
ag465
asg18
S'40'
p1092
sg20
g668
sg22
g203
sg24
g204
sg26
g373
sba(ischedule
Activity
p1093
(dp1094
g8
(lp1095
g340
ag455
ag178
ag863
ag354
ag12
ag378
ag807
ag269
ag112
ag101
ag158
ag827
ag757
ag706
ag659
ag402
ag255
ag754
ag351
ag220
ag756
ag537
ag755
ag647
ag1034
ag758
asg18
g201
sg20
g202
sg22
g203
sg24
g25
sg26
g408
sba(ischedule
Activity
p1096
(dp1097
g8
g1021
sg18
I1000
sg20
g1025
sg22
g71
sg24
I0
sg26
g742
sba(ischedule
Activity
p1098
(dp1099
g8
(lp1100
g105
ag91
ag546
ag149
aS'88737765'
p1101
ag642
ag110
ag754
ag357
ag514
ag310
ag940
ag959
ag316
ag934
ag933
asg18
g616
sg20
g617
sg22
g203
sg24
g204
sg26
g27
sba(ischedule
Activity
p1102
(dp1103
g8
(lp1104
g696
ag164
ag340
ag572
ag487
ag260
ag150
ag371
ag162
ag146
ag463
ag226
ag538
ag51
ag83
ag923
ag228
ag922
ag574
ag921
ag573
asg18
I1000
sg20
g576
sg22
g71
sg24
I0
sg26
(iread_data
Room
p1105
(dp1106
g18
g302
sg20
g303
sbsba(ischedule
Activity
p1107
(dp1108
g8
(lp1109
g36
ag124
ag134
ag238
ag487
ag539
ag339
ag658
ag391
ag453
ag588
ag648
ag1010
ag386
ag544
ag150
ag867
ag94
ag434
asg18
S'20'
p1110
sg20
g1011
sg22
g23
sg24
g25
sg26
(iread_data
Room
p1111
(dp1112
g18
g74
sg20
g75
sbsba(ischedule
Activity
p1113
(dp1114
g8
g705
sg18
I1000
sg20
g715
sg22
g71
sg24
I0
sg26
(iread_data
Room
p1115
(dp1116
g18
g129
sg20
g130
sbsbaaa(lp1117
(lp1118
(ischedule
Activity
p1119
(dp1120
g8
g1003
sg18
I1000
sg20
g1011
sg22
g71
sg24
I0
sg26
g72
sba(ischedule
Activity
p1121
(dp1122
g8
(lp1123
g135
ag107
ag140
ag148
ag86
ag153
ag156
ag159
ag161
ag105
ag48
ag170
ag173
ag53
ag177
ag158
ag155
ag143
ag167
ag137
ag178
ag141
ag166
asg18
g419
sg20
g179
sg22
g203
sg24
g25
sg26
g742
sba(ischedule
Activity
p1124
(dp1125
g8
(lp1126
g857
ag546
ag113
ag91
ag803
ag69
ag807
ag550
ag101
ag159
ag178
ag864
ag486
ag379
ag134
ag106
ag867
ag65
ag639
ag217
ag47
ag821
ag455
ag434
ag724
ag15
ag241
ag869
ag147
ag531
ag329
ag521
ag187
ag149
ag464
ag152
ag860
asg18
g917
sg20
g872
sg22
g203
sg24
g25
sg26
(iread_data
Room
p1127
(dp1128
g18
g302
sg20
g303
sbsba(ischedule
Activity
p1129
(dp1130
g8
(lp1131
g326
ag638
ag639
ag153
ag643
ag645
ag496
ag468
ag648
ag586
ag650
ag651
ag652
ag654
ag54
ag515
ag656
ag172
ag430
ag614
ag428
ag499
ag427
ag660
ag662
ag69
ag663
ag665
ag667
ag599
ag664
ag58
ag641
ag310
ag465
ag281
asg18
g893
sg20
g668
sg22
g23
sg24
g204
sg26
(iread_data
Room
p1132
(dp1133
g18
g29
sg20
g30
sbsba(ischedule
Activity
p1134
(dp1135
g8
(lp1136
g532
ag534
ag150
ag161
ag217
ag540
ag136
ag163
ag546
ag336
ag551
ag327
ag544
ag542
ag547
asg18
g317
sg20
g318
sg22
g23
sg24
g204
sg26
(iread_data
Room
p1137
(dp1138
g18
g182
sg20
g183
sbsba(ischedule
Activity
p1139
(dp1140
g8
(lp1141
g198
ag340
ag455
ag178
ag863
ag354
ag12
ag378
ag807
ag269
ag1034
ag39
ag101
ag158
ag827
ag706
ag659
ag351
ag117
asg18
g759
sg20
g202
sg22
g23
sg24
g25
sg26
(iread_data
Room
p1142
(dp1143
g18
g129
sg20
g130
sbsba(ischedule
Activity
p1144
(dp1145
g8
(lp1146
g724
ag722
ag725
ag624
ag721
ag468
asg18
g1044
sg20
g627
sg22
g23
sg24
g25
sg26
(iread_data
Room
p1147
(dp1148
g18
g247
sg20
g248
sbsbaa(lp1149
(ischedule
Activity
p1150
(dp1151
g8
(lp1152
g214
ag215
ag219
ag221
ag56
ag150
ag224
ag226
ag227
ag229
ag233
ag235
ag84
ag238
ag242
ag192
ag148
ag212
asg18
g413
sg20
g244
sg22
g23
sg24
g204
sg26
(iread_data
Room
p1153
(dp1154
g18
g247
sg20
g248
sbsba(ischedule
Activity
p1155
(dp1156
g8
(lp1157
g84
ag87
ag89
ag95
ag98
ag101
ag109
ag115
ag118
ag120
ag125
ag121
ag85
ag83
ag114
ag96
ag42
ag91
asg18
g443
sg20
g126
sg22
g23
sg24
g319
sg26
(iread_data
Room
p1158
(dp1159
g18
g129
sg20
g130
sbsba(ischedule
Activity
p1160
(dp1161
g8
(lp1162
g115
ag174
ag200
ag969
ag164
ag89
ag696
ag477
ag770
ag309
ag806
ag57
ag198
ag1032
ag161
ag220
ag955
ag158
ag157
ag652
ag92
ag964
ag1033
ag148
ag428
ag11
ag1034
ag623
ag256
ag327
ag386
ag459
ag61
ag722
asg18
g944
sg20
g945
sg22
g23
sg24
g204
sg26
(iread_data
Room
p1163
(dp1164
g18
g29
sg20
g30
sbsba(ischedule
Activity
p1165
(dp1166
g8
(lp1167
g286
ag67
ag756
ag384
ag952
ag53
ag537
ag954
ag175
ag502
ag712
ag158
ag140
ag497
ag959
ag217
ag406
ag542
ag963
ag498
ag870
ag967
ag971
ag972
ag775
ag65
ag602
ag979
ag173
ag935
ag976
ag828
ag62
ag977
ag534
ag932
asg18
g1077
sg20
g981
sg22
g23
sg24
g25
sg26
(iread_data
Room
p1168
(dp1169
g18
g182
sg20
g183
sbsba(ischedule
Activity
p1170
(dp1171
g8
(lp1172
g164
ag572
ag371
ag226
ag51
ag923
ag922
ag921
ag146
ag162
ag340
ag538
ag150
ag574
asg18
S'15'
p1173
sg20
g576
sg22
g23
sg24
g25
sg26
(iread_data
Room
p1174
(dp1175
g18
g207
sg20
g208
sbsba(ischedule
Activity
p1176
(dp1177
g8
(lp1178
g383
ag286
ag601
ag602
ag544
ag583
ag13
ag603
ag387
ag35
ag112
ag599
ag166
ag115
ag82
ag395
ag425
ag600
ag835
ag234
asg18
I1000
sg20
g605
sg22
g71
sg24
I0
sg26
(iread_data
Room
p1179
(dp1180
g18
g74
sg20
g75
sbsba(ischedule
Activity
p1181
(dp1182
g8
(lp1183
g858
ag44
ag464
ag860
ag430
ag14
ag612
ag238
ag824
ag454
ag861
ag862
ag90
ag865
ag551
ag231
ag866
ag478
ag152
ag868
ag329
ag289
ag712
ag666
ag63
ag589
ag45
ag149
ag871
ag521
ag147
ag722
ag864
ag351
ag863
ag134
asg18
S'40'
p1184
sg20
g872
sg22
g23
sg24
g204
sg26
(iread_data
Room
p1185
(dp1186
g18
g302
sg20
g303
sbsbaa(lp1187
(ischedule
Activity
p1188
(dp1189
g8
(lp1190
g111
aS'32595335'
p1191
ag488
ag457
aS'26172512'
p1192
aS'21311067'
p1193
ag216
ag465
ag700
ag57
ag976
ag155
aS'16011419'
p1194
ag868
ag957
ag545
ag612
ag721
ag401
ag939
ag584
ag56
ag327
ag427
ag521
ag726
ag230
ag653
ag476
ag67
ag478
ag241
ag471
ag725
ag697
aS'79937969'
p1195
ag659
ag588
ag333
ag543
aS'90743504'
p1196
ag869
ag935
ag161
aS'34588570'
p1197
ag124
aS'54074680'
p1198
ag378
ag460
ag313
aS'66570705'
p1199
ag969
aS'96118484'
p1200
aS'80998260'
p1201
asg18
I1000
sg20
S'Lineaire Algebra'
p1202
sg22
g71
sg24
I0
sg26
g505
sba(ischedule
Activity
p1203
(dp1204
g8
(lp1205
g467
ag113
ag870
ag687
ag459
ag124
ag465
ag488
ag243
aS'14637758'
p1206
ag81
ag957
ag166
ag110
aS'82854435'
p1207
ag725
aS'58480929'
p1208
aS'97838175'
p1209
ag651
ag94
ag360
ag109
aS'18477924'
p1210
ag955
aS'73350019'
p1211
ag90
ag309
ag223
ag953
ag477
ag256
ag808
ag53
aS'78822885'
p1212
ag972
ag521
ag700
ag231
ag64
ag98
ag463
ag1101
ag871
ag49
ag476
ag823
ag979
ag170
ag835
asg18
I1000
sg20
S'Analysemethoden en -technieken'
p1213
sg22
g71
sg24
I0
sg26
g72
sba(ischedule
Activity
p1214
(dp1215
g8
(lp1216
g599
ag585
ag144
ag640
ag641
ag642
ag644
ag154
ag646
ag647
ag310
ag125
ag117
ag91
ag655
ag623
ag58
ag327
ag213
ag657
ag426
ag658
ag659
ag661
ag498
ag664
ag666
ag663
ag639
ag143
ag162
ag648
ag134
ag643
asg18
g1092
sg20
g668
sg22
g203
sg24
g25
sg26
(iread_data
Room
p1217
(dp1218
g18
g29
sg20
g30
sbsba(ischedule
Activity
p1219
(dp1220
g8
(lp1221
g647
ag198
ag187
ag340
ag537
ag455
ag188
ag178
ag189
ag863
ag754
ag200
ag117
ag354
ag190
ag199
ag191
ag12
ag192
ag378
ag351
ag807
ag220
ag269
ag755
ag112
ag193
ag1034
ag402
ag39
ag255
ag101
ag756
ag758
ag194
ag158
ag195
ag827
ag659
ag757
ag196
ag706
ag197
asg18
I1000
sg20
g202
sg22
g71
sg24
I0
sg26
(iread_data
Room
p1222
(dp1223
g18
g129
sg20
g130
sbsba(ischedule
Activity
p1224
(dp1225
g8
g1104
sg18
I1000
sg20
g576
sg22
g71
sg24
I0
sg26
(iread_data
Room
p1226
(dp1227
g18
g247
sg20
g248
sbsba(ischedule
Activity
p1228
(dp1229
g8
(lp1230
g337
ag357
ag663
ag499
ag770
ag844
ag785
ag955
ag614
ag61
ag707
ag862
ag353
ag48
ag960
ag152
ag962
ag964
ag479
ag234
ag188
ag866
ag654
ag974
ag573
ag754
ag978
ag943
ag481
ag804
ag975
ag969
asg18
g1077
sg20
g981
sg22
g23
sg24
g204
sg26
(iread_data
Room
p1231
(dp1232
g18
g182
sg20
g183
sbsbaa(lp1233
(ischedule
Activity
p1234
(dp1235
g8
(lp1236
g623
ag17
ag612
asg18
g1044
sg20
g627
sg22
g23
sg24
g204
sg26
g373
sba(ischedule
Activity
p1237
(dp1238
g8
(lp1239
S'51791169'
p1240
ag212
ag881
ag281
ag498
ag955
ag457
ag171
ag195
ag454
ag98
ag523
ag255
asg18
g342
sg20
g343
sg22
g203
sg24
S'5'
p1241
sg26
g366
sba(ischedule
Activity
p1242
(dp1243
g8
g78
sg18
I1000
sg20
g126
sg22
g71
sg24
I0
sg26
g27
sba(ischedule
Activity
p1244
(dp1245
g8
(lp1246
g134
ag139
ag144
ag147
ag150
ag152
ag162
ag164
ag169
ag172
ag175
ag46
ag146
ag174
ag157
ag142
ag163
asg18
g419
sg20
g179
sg22
g203
sg24
g204
sg26
(iread_data
Room
p1247
(dp1248
g18
g74
sg20
g75
sbsba(ischedule
Activity
p1249
(dp1250
g8
(lp1251
g523
aS'90103047'
p1252
ag662
ag234
ag144
ag939
ag486
ag724
aS'40911986'
p1253
aS'81116418'
p1254
aS'32183908'
p1255
ag66
asg18
g436
sg20
g437
sg22
g203
sg24
g25
sg26
(iread_data
Room
p1256
(dp1257
g18
g207
sg20
g208
sbsba(ischedule
Activity
p1258
(dp1259
g8
(lp1260
g15
ag17
ag725
ag233
ag728
ag468
ag161
asg18
g626
sg20
g627
sg22
g203
sg24
g25
sg26
(iread_data
Room
p1261
(dp1262
g18
g182
sg20
g183
sbsba(ischedule
Activity
p1263
(dp1264
g8
(lp1265
g463
ag83
ag228
ag573
ag696
ag487
ag260
asg18
g1173
sg20
g576
sg22
g23
sg24
g204
sg26
(iread_data
Room
p1266
(dp1267
g18
g302
sg20
g303
sbsbaa(lp1268
(ischedule
Activity
p1269
(dp1270
g8
g1190
sg18
I1000
sg20
g1202
sg22
g71
sg24
I0
sg26
(iread_data
Room
p1271
(dp1272
g18
g302
sg20
g303
sbsba(ischedule
Activity
p1273
(dp1274
g8
(lp1275
g254
ag162
ag1005
ag148
ag84
ag511
ag1006
ag653
ag475
ag1008
ag53
ag774
ag1009
ag923
ag647
ag1007
ag1004
ag228
ag356
asg18
g1110
sg20
g1011
sg22
g23
sg24
g204
sg26
(iread_data
Room
p1276
(dp1277
g18
g74
sg20
g75
sbsba(ischedule
Activity
p1278
(dp1279
g8
(lp1280
g857
ag546
ag113
ag859
ag91
ag803
ag69
ag807
ag550
ag271
ag159
ag178
ag486
ag379
ag106
ag867
ag65
ag639
ag217
ag47
ag821
ag455
ag434
ag724
ag15
ag241
ag488
ag869
ag870
ag531
ag331
ag756
ag43
ag468
ag187
ag101
ag191
ag699
ag536
asg18
g1184
sg20
g872
sg22
g23
sg24
g25
sg26
(iread_data
Room
p1281
(dp1282
g18
g29
sg20
g30
sbsbaaa(lp1283
(lp1284
a(lp1285
a(lp1286
a(lp1287
a(lp1288
aasS'timeslot_dict'
p1289
(dp1290
I0
S'9:00-11:00'
p1291
sI1
S'11:00-13:00'
p1292
sI2
S'13:00-15:00'
p1293
sI3
S'15:00-17:00'
p1294
sI4
S'17:00-19:00'
p1295
ssS'day_dict'
p1296
(dp1297
I0
S'Monday'
p1298
sI1
S'Tuesday'
p1299
sI2
S'Wednesday'
p1300
sI3
S'Thursday'
p1301
sI4
S'Friday'
p1302
ssb.