(ischedule
Schedule
p0
(dp1
S'timetable'
p2
(lp3
(lp4
(lp5
(ischedule
Activity
p6
(dp7
S'participants'
p8
(lp9
S'55412918'
p10
aS'35330349'
p11
aS'5517869'
p12
aS'74182182'
p13
aS'81385263'
p14
aS'83210352'
p15
aS'23565001'
p16
aS'91196968'
p17
aS'80709893'
p18
aS'52311353'
p19
aS'14591033'
p20
aS'96118484'
p21
aS'36508571'
p22
aS'42778953'
p23
aS'58866007'
p24
aS'3474870'
p25
aS'94686490'
p26
aS'36527838'
p27
aS'42115591'
p28
aS'68409833'
p29
aS'61060652'
p30
aS'55474917'
p31
aS'670011'
p32
aS'90743504'
p33
aS'16097870'
p34
aS'16011419'
p35
aS'62872965'
p36
aS'80998260'
p37
aS'34588570'
p38
aS'77896638'
p39
aS'38499176'
p40
aS'79937969'
p41
aS'71839156'
p42
aS'31416266'
p43
aS'34243356'
p44
aS'16333449'
p45
aS'48308205'
p46
aS'32595335'
p47
aS'26172512'
p48
aS'94955328'
p49
aS'42196732'
p50
aS'79617364'
p51
aS'21311067'
p52
aS'41578612'
p53
aS'10149535'
p54
aS'54074680'
p55
aS'87758823'
p56
aS'56872729'
p57
aS'81218347'
p58
aS'75005528'
p59
aS'4921119'
p60
aS'66570705'
p61
aS'93566383'
p62
aS'37399898'
p63
asS'capacity'
p64
I1000
sS'name'
p65
S'Lineaire Algebra'
p66
sS'ttype'
p67
S'lectures'
p68
sS'group_id'
p69
I0
sS'room'
p70
(iread_data
Room
p71
(dp72
g64
S'60'
p73
sg65
S'C1.112'
p74
sbsba(ischedule
Activity
p75
(dp76
g8
(lp77
S'57086672'
p78
aS'58736785'
p79
aS'33760909'
p80
aS'63634350'
p81
aS'83869542'
p82
ag34
aS'48678993'
p83
aS'43027916'
p84
aS'7106649'
p85
aS'85236626'
p86
aS'5739011'
p87
aS'27925117'
p88
aS'72652638'
p89
aS'1886996'
p90
aS'35315956'
p91
aS'84524083'
p92
asg64
S'20'
p93
sg65
S'Heuristieken 2'
p94
sg67
S'tutorials'
p95
sg69
S'1'
p96
sg70
(iread_data
Room
p97
(dp98
g64
S'56'
p99
sg65
S'A1.10'
p100
sbsba(ischedule
Activity
p101
(dp102
g8
(lp103
S'1048485'
p104
aS'56121590'
p105
aS'62363761'
p106
aS'14398123'
p107
aS'86291592'
p108
aS'53267490'
p109
aS'81200278'
p110
aS'7957843'
p111
aS'36903574'
p112
aS'72665524'
p113
aS'70939718'
p114
aS'9731271'
p115
aS'1696500'
p116
aS'70844780'
p117
aS'97135019'
p118
aS'62736669'
p119
asg64
S'20'
p120
sg65
S'Netwerken en systeembeveiliging'
p121
sg67
S'labs'
p122
sg69
g96
sg70
(iread_data
Room
p123
(dp124
g64
S'48'
p125
sg65
S'B0.201'
p126
sbsba(ischedule
Activity
p127
(dp128
g8
(lp129
S'75997788'
p130
aS'15051051'
p131
aS'51650744'
p132
aS'59111489'
p133
aS'29526540'
p134
aS'75521763'
p135
aS'58592894'
p136
aS'78544592'
p137
aS'27241113'
p138
aS'49219163'
p139
aS'1181560'
p140
aS'96082155'
p141
aS'78243495'
p142
aS'1766560'
p143
aS'13218321'
p144
aS'11996292'
p145
aS'83415514'
p146
asg64
S'20'
p147
sg65
S'Moderne Databases'
p148
sg67
g95
sg69
S'3'
p149
sg70
(iread_data
Room
p150
(dp151
g64
S'22'
p152
sg65
S'A1.06'
p153
sbsba(ischedule
Activity
p154
(dp155
g8
(lp156
S'50143947'
p157
aS'21964491'
p158
aS'97136582'
p159
aS'74131924'
p160
aS'25330192'
p161
ag17
aS'51566595'
p162
aS'68360259'
p163
aS'37744525'
p164
asg64
S'10'
p165
sg65
S'Data Mining'
p166
sg67
g95
sg69
g96
sg70
(iread_data
Room
p167
(dp168
g64
S'41'
p169
sg65
S'A1.04'
p170
sbsba(ischedule
Activity
p171
(dp172
g8
(lp173
S'40791377'
p174
aS'49683101'
p175
aS'5976174'
p176
aS'38296757'
p177
aS'94467156'
p178
aS'23798155'
p179
aS'61518436'
p180
aS'46701583'
p181
aS'90067329'
p182
aS'67625383'
p183
aS'39459642'
p184
ag131
ag86
aS'77240949'
p185
ag164
aS'27187154'
p186
aS'33252501'
p187
aS'26857113'
p188
aS'56988998'
p189
aS'63111000'
p190
aS'3685034'
p191
aS'2079771'
p192
asg64
I1000
sg65
S'Machine Learning'
p193
sg67
g68
sg69
I0
sg70
(iread_data
Room
p194
(dp195
g64
S'117'
p196
sg65
S'C0.110'
p197
sbsba(ischedule
Activity
p198
(dp199
g8
(lp200
S'68315599'
p201
aS'62701040'
p202
aS'92977271'
p203
aS'13658563'
p204
aS'13116738'
p205
aS'36748818'
p206
aS'77636749'
p207
aS'44901052'
p208
aS'17496687'
p209
ag135
aS'70878567'
p210
aS'11459236'
p211
aS'32204977'
p212
aS'8557857'
p213
aS'23983476'
p214
aS'75585647'
p215
aS'29718115'
p216
aS'23257088'
p217
aS'58332004'
p218
aS'18266644'
p219
aS'19958553'
p220
asg64
I1000
sg65
S'Informatie- en organsatieontwerp'
p221
sg67
g68
sg69
I0
sg70
(iread_data
Room
p222
(dp223
g64
S'20'
p224
sg65
S'A1.08'
p225
sbsbaa(lp226
(ischedule
Activity
p227
(dp228
g8
(lp229
S'88737765'
p230
ag60
ag179
ag34
aS'72586808'
p231
aS'60661905'
p232
aS'62613937'
p233
aS'51542218'
p234
ag49
aS'13718298'
p235
ag84
aS'70193386'
p236
aS'80188025'
p237
aS'73350019'
p238
aS'64296965'
p239
aS'77831658'
p240
aS'58480929'
p241
aS'97838175'
p242
aS'18477924'
p243
ag28
aS'73302736'
p244
aS'34900967'
p245
aS'78821918'
p246
ag19
aS'23658570'
p247
aS'5595824'
p248
ag78
aS'22871048'
p249
ag219
aS'83443653'
p250
aS'36785409'
p251
aS'85335143'
p252
aS'14637758'
p253
aS'78822885'
p254
aS'87830198'
p255
aS'33672995'
p256
ag44
aS'97019450'
p257
ag83
ag53
aS'56544130'
p258
aS'56815156'
p259
ag130
ag16
aS'72456780'
p260
aS'5085194'
p261
aS'65318664'
p262
aS'82854435'
p263
aS'48357272'
p264
asg64
I1000
sg65
S'Analysemethoden en -technieken'
p265
sg67
g68
sg69
I0
sg70
g97
sba(ischedule
Activity
p266
(dp267
g8
(lp268
S'72577292'
p269
aS'57595888'
p270
aS'61443567'
p271
aS'46052388'
p272
aS'42171678'
p273
aS'24277163'
p274
aS'9332762'
p275
aS'4783858'
p276
ag80
aS'25106480'
p277
aS'15902055'
p278
ag157
ag116
aS'64228258'
p279
aS'76123484'
p280
aS'1075391'
p281
ag158
ag239
ag108
aS'82689818'
p282
aS'51741554'
p283
ag56
aS'60312776'
p284
aS'29474737'
p285
ag11
ag50
ag12
aS'7308727'
p286
aS'64393888'
p287
aS'3233378'
p288
aS'37770881'
p289
aS'53107172'
p290
aS'86000192'
p291
ag135
aS'48601268'
p292
ag118
aS'34773179'
p293
aS'13092455'
p294
aS'1665980'
p295
aS'73980360'
p296
ag185
aS'28357474'
p297
aS'26406342'
p298
aS'22699561'
p299
aS'29640619'
p300
aS'45556081'
p301
ag23
aS'17575088'
p302
ag202
ag84
aS'54310617'
p303
ag43
aS'13534377'
p304
aS'50184318'
p305
aS'23547619'
p306
aS'96104167'
p307
aS'17222374'
p308
ag39
aS'65960683'
p309
aS'58522654'
p310
aS'68601184'
p311
asg64
I1000
sg65
S'Collectieve Intelligentie'
p312
sg67
g68
sg69
I0
sg70
(iread_data
Room
p313
(dp314
g64
g125
sg65
g126
sbsba(ischedule
Activity
p315
(dp316
g8
(lp317
S'45915482'
p318
ag264
ag57
aS'59220392'
p319
aS'14303208'
p320
aS'22168693'
p321
ag181
aS'81155296'
p322
aS'56348773'
p323
aS'47932106'
p324
aS'77306636'
p325
ag215
aS'58253841'
p326
ag247
aS'86180471'
p327
aS'61520025'
p328
aS'24875739'
p329
aS'58699305'
p330
aS'79167252'
p331
aS'79888156'
p332
aS'75623387'
p333
aS'82412626'
p334
aS'6939933'
p335
aS'14816774'
p336
ag258
aS'73823548'
p337
aS'44868097'
p338
ag136
aS'76661016'
p339
aS'14179347'
p340
aS'55530367'
p341
ag177
ag20
aS'78443067'
p342
asg64
S'40'
p343
sg65
S'Calculus 2'
p344
sg67
g95
sg69
g96
sg70
(iread_data
Room
p345
(dp346
g64
g196
sg65
g197
sbsba(ischedule
Activity
p347
(dp348
g8
(lp349
S'11068043'
p350
aS'91250534'
p351
aS'53585410'
p352
aS'1695839'
p353
ag211
aS'14383795'
p354
aS'82066165'
p355
aS'41644639'
p356
aS'25994016'
p357
aS'55103073'
p358
aS'23215240'
p359
aS'64418623'
p360
aS'65675896'
p361
asg64
S'15'
p362
sg65
S'Compilerbouw practicum'
p363
sg67
g122
sg69
S'2'
p364
sg70
(iread_data
Room
p365
(dp366
g64
g152
sg65
g153
sbsba(ischedule
Activity
p367
(dp368
g8
(lp369
g157
ag159
ag160
ag161
ag17
ag162
ag163
ag164
asg64
S'10'
p370
sg65
g166
sg67
g122
sg69
g96
sg70
(iread_data
Room
p371
(dp372
g64
g73
sg65
g74
sbsba(ischedule
Activity
p373
(dp374
g8
(lp375
g214
aS'13996448'
p376
aS'58469172'
p377
ag81
ag115
ag40
aS'85284256'
p378
aS'64947290'
p379
aS'90296821'
p380
aS'23391676'
p381
ag43
aS'39905995'
p382
aS'10702778'
p383
aS'3678531'
p384
aS'73893840'
p385
aS'33776961'
p386
ag112
asg64
S'20'
p387
sg65
S'Programmeren in Java 2'
p388
sg67
g122
sg69
S'6'
p389
sg70
(iread_data
Room
p390
(dp391
g64
g224
sg65
g225
sbsbaa(lp392
(ischedule
Activity
p393
(dp394
g8
(lp395
g339
aS'98105190'
p396
ag108
aS'86988337'
p397
aS'9067939'
p398
aS'31194811'
p399
aS'66701209'
p400
aS'72796858'
p401
ag310
ag14
ag289
aS'46989508'
p402
aS'27950803'
p403
aS'94687383'
p404
aS'14309255'
p405
aS'3407554'
p406
aS'72895450'
p407
aS'88752563'
p408
aS'30658799'
p409
ag92
aS'75664412'
p410
ag175
aS'8464817'
p411
ag44
ag248
ag23
aS'34110913'
p412
aS'65852230'
p413
aS'34872117'
p414
aS'54772132'
p415
aS'2317551'
p416
aS'75759231'
p417
aS'76802764'
p418
aS'6723948'
p419
aS'13284244'
p420
aS'48503689'
p421
aS'13911001'
p422
aS'24613625'
p423
aS'80135353'
p424
ag201
aS'88855695'
p425
aS'92665222'
p426
aS'11741347'
p427
aS'53202517'
p428
ag331
aS'44391517'
p429
aS'88636924'
p430
ag46
aS'12077419'
p431
aS'79033175'
p432
ag184
ag143
ag284
aS'73236988'
p433
aS'10792879'
p434
ag174
aS'15911353'
p435
aS'5368702'
p436
aS'75599734'
p437
ag39
ag186
aS'95631564'
p438
aS'83266686'
p439
aS'43689934'
p440
ag192
ag309
aS'11915563'
p441
aS'95007221'
p442
ag111
asg64
I1000
sg65
S'Compilerbouw'
p443
sg67
g68
sg69
I0
sg70
(iread_data
Room
p444
(dp445
g64
g224
sg65
g225
sbsba(ischedule
Activity
p446
(dp447
g8
(lp448
S'52715680'
p449
ag204
aS'4709948'
p450
aS'22826928'
p451
aS'90474003'
p452
aS'96554914'
p453
aS'51415617'
p454
aS'42406214'
p455
ag386
ag92
aS'84449005'
p456
aS'68286356'
p457
ag251
aS'27370083'
p458
ag78
aS'77392404'
p459
aS'99453514'
p460
aS'99975346'
p461
aS'92778619'
p462
aS'32044893'
p463
ag117
aS'77960666'
p464
aS'6913074'
p465
aS'54569540'
p466
aS'20095994'
p467
aS'5298748'
p468
ag294
ag191
aS'78136904'
p469
ag232
ag403
ag397
ag249
ag53
aS'49922855'
p470
aS'59753700'
p471
ag236
ag255
aS'20239127'
p472
ag235
aS'60352393'
p473
aS'36213792'
p474
aS'27805666'
p475
ag177
ag180
aS'37110913'
p476
aS'43680781'
p477
ag274
aS'82390428'
p478
aS'51052738'
p479
ag63
asg64
I1000
sg65
S'Reflectie op de digitale cultuur'
p480
sg67
g68
sg69
I0
sg70
(iread_data
Room
p481
(dp482
g64
g169
sg65
g170
sbsba(ischedule
Activity
p483
(dp484
g8
(lp485
g272
ag276
ag157
ag281
ag282
ag285
ag286
ag290
ag118
ag296
ag299
ag302
ag43
ag307
ag310
ag269
ag279
asg64
S'20'
p486
sg65
g312
sg67
g95
sg69
S'4'
p487
sg70
(iread_data
Room
p488
(dp489
g64
g125
sg65
g126
sbsbaa(lp490
(ischedule
Activity
p491
(dp492
g8
(lp493
S'13798030'
p494
ag414
aS'89180944'
p495
aS'43460038'
p496
ag216
ag175
ag54
aS'40434933'
p497
aS'72683344'
p498
aS'70015932'
p499
ag269
aS'28618400'
p500
ag179
ag24
ag301
ag282
ag88
aS'59289233'
p501
aS'14138904'
p502
aS'20331158'
p503
ag439
asg64
I1000
sg65
S'Architectuur en computerorganisatie'
p504
sg67
g68
sg69
I0
sg70
g71
sba(ischedule
Activity
p505
(dp506
g8
(lp507
g78
aS'52304977'
p508
ag79
aS'31897288'
p509
ag80
ag162
ag81
aS'87602030'
p510
ag82
aS'82968410'
p511
ag34
ag271
ag83
aS'15249775'
p512
ag84
aS'58040377'
p513
ag85
aS'34765676'
p514
ag86
ag461
ag87
ag32
ag88
ag110
ag89
aS'81022997'
p515
ag90
aS'22731474'
p516
ag142
ag176
ag91
ag92
asg64
I1000
sg65
g94
sg67
g68
sg69
I0
sg70
g150
sba(ischedule
Activity
p517
(dp518
g8
(lp519
S'30195935'
p520
ag433
ag158
aS'96453361'
p521
ag310
ag160
ag423
ag336
aS'21029457'
p522
ag110
aS'54026378'
p523
ag20
aS'64600457'
p524
aS'247918'
p525
ag465
aS'33930505'
p526
ag240
aS'89985072'
p527
ag252
aS'33877725'
p528
ag428
aS'30050930'
p529
ag338
ag419
ag516
ag468
ag50
aS'28359697'
p530
aS'20883994'
p531
aS'3168419'
p532
aS'4568018'
p533
aS'56749879'
p534
ag477
ag134
ag451
ag210
ag131
ag286
aS'88176729'
p535
aS'66120270'
p536
aS'96054456'
p537
ag350
ag259
ag51
aS'59544049'
p538
asg64
I1000
sg65
S'Bioinformatica'
p539
sg67
g68
sg69
I0
sg70
(iread_data
Room
p540
(dp541
g64
g169
sg65
g170
sbsba(ischedule
Activity
p542
(dp543
g8
(lp544
g249
aS'45660925'
p545
ag476
ag42
aS'57467488'
p546
ag257
ag503
ag273
aS'19858730'
p547
ag204
ag79
aS'76393508'
p548
ag135
ag130
ag30
ag533
ag145
aS'94930277'
p549
ag116
ag112
ag208
aS'22323043'
p550
ag264
asg64
S'25'
p551
sg65
S'Heuristieken 1'
p552
sg67
g95
sg69
g96
sg70
(iread_data
Room
p553
(dp554
g64
g125
sg65
g126
sbsba(ischedule
Activity
p555
(dp556
g8
(lp557
g271
ag275
ag278
ag280
ag108
ag284
ag289
ag292
ag295
ag298
ag303
ag306
ag309
ag118
asg64
S'20'
p558
sg65
g312
sg67
g122
sg69
g149
sg70
(iread_data
Room
p559
(dp560
g64
g224
sg65
g225
sbsba(ischedule
Activity
p561
(dp562
g8
g9
sg64
I1000
sg65
g66
sg67
g68
sg69
I0
sg70
(iread_data
Room
p563
(dp564
g64
g196
sg65
g197
sbsbaa(lp565
(ischedule
Activity
p566
(dp567
g8
(lp568
S'62356458'
p569
ag160
ag476
ag401
ag162
aS'88627897'
p570
aS'27298319'
p571
asg64
S'10'
p572
sg65
S'Autonomous Agents 2'
p573
sg67
g95
sg69
g364
sg70
g71
sba(ischedule
Activity
p574
(dp575
g8
(lp576
g520
ag521
ag423
ag110
ag524
ag526
ag252
ag529
ag516
ag530
ag533
ag134
ag131
ag536
ag259
ag20
ag433
asg64
S'20'
p577
sg65
g539
sg67
g122
sg69
g96
sg70
g444
sba(ischedule
Activity
p578
(dp579
g8
(lp580
g201
ag203
ag205
ag207
ag209
ag210
ag212
ag214
ag216
ag218
ag220
asg64
S'15'
p581
sg65
g221
sg67
g95
sg69
g96
sg70
g97
sba(ischedule
Activity
p582
(dp583
g8
(lp584
S'76648468'
p585
aS'5615125'
p586
ag459
ag495
aS'67073567'
p587
aS'6249823'
p588
ag271
ag549
aS'14847953'
p589
aS'69459473'
p590
aS'53512831'
p591
ag428
aS'20618153'
p592
ag497
aS'41790793'
p593
aS'1137946'
p594
ag279
aS'39230359'
p595
ag528
aS'27064249'
p596
aS'66034145'
p597
ag25
ag280
ag496
aS'28358060'
p598
aS'43902015'
p599
ag78
aS'10698627'
p600
ag142
aS'76903244'
p601
ag269
aS'2416751'
p602
ag45
aS'49908313'
p603
aS'17092717'
p604
ag320
aS'22288615'
p605
aS'24891081'
p606
ag407
asg64
I1000
sg65
S'Webprogrammeren en databases'
p607
sg67
g68
sg69
I0
sg70
g150
sba(ischedule
Activity
p608
(dp609
g8
(lp610
g531
ag113
ag426
ag532
ag130
aS'40633534'
p611
ag233
aS'86807027'
p612
ag473
ag596
aS'47477884'
p613
ag306
asg64
S'10'
p614
sg65
S'Advanced Heuristics'
p615
sg67
g122
sg69
g96
sg70
(iread_data
Room
p616
(dp617
g64
g196
sg65
g197
sbsba(ischedule
Activity
p618
(dp619
g8
(lp620
g204
ag452
ag455
ag456
ag458
ag460
ag463
ag465
ag468
ag469
ag397
ag470
ag255
ag177
ag477
ag479
asg64
S'20'
p621
sg65
g480
sg67
g95
sg69
g364
sg70
(iread_data
Room
p622
(dp623
g64
g169
sg65
g170
sbsba(ischedule
Activity
p624
(dp625
g8
(lp626
g269
ag273
ag80
ag116
ag158
ag283
ag11
ag287
ag291
ag293
ag185
ag300
ag202
ag304
ag308
ag311
ag23
asg64
g558
sg65
g312
sg67
g122
sg69
g96
sg70
(iread_data
Room
p627
(dp628
g64
g125
sg65
g126
sbsbaaa(lp629
(lp630
(ischedule
Activity
p631
(dp632
g8
(lp633
g20
ag336
ag249
aS'14941752'
p634
ag545
ag509
ag476
aS'66122625'
p635
ag42
ag502
ag546
ag290
ag257
aS'97417002'
p636
ag503
aS'79879876'
p637
ag273
ag276
ag547
ag612
ag204
aS'53775014'
p638
ag79
ag250
ag548
ag58
ag135
aS'4353500'
p639
ag130
aS'20830477'
p640
ag30
aS'59075181'
p641
ag533
aS'87210640'
p642
ag145
ag550
ag549
ag396
ag116
ag534
ag112
ag264
ag208
ag203
asg64
I1000
sg65
g552
sg67
g68
sg69
I0
sg70
g71
sba(ischedule
Activity
p643
(dp644
g8
(lp645
g599
ag176
aS'64554442'
p646
aS'91527663'
p647
ag352
aS'3707829'
p648
ag431
ag162
ag469
ag157
aS'14671406'
p649
ag25
aS'88596522'
p650
aS'26260141'
p651
ag278
ag295
ag379
ag14
ag397
ag546
ag136
ag112
asg64
S'25'
p652
sg65
S'Algoritmen en complexiteit'
p653
sg67
g122
sg69
g96
sg70
g444
sba(ischedule
Activity
p654
(dp655
g8
(lp656
g146
ag178
ag247
ag605
ag419
aS'88263855'
p657
ag421
aS'7492204'
p658
aS'44671041'
p659
ag181
ag451
ag640
aS'27582862'
p660
ag164
ag592
aS'88519892'
p661
aS'66433883'
p662
aS'34262212'
p663
asg64
g387
sg65
g388
sg67
g122
sg69
g96
sg70
(iread_data
Room
p664
(dp665
g64
g169
sg65
g170
sbsba(ischedule
Activity
p666
(dp667
g8
g268
sg64
I1000
sg65
g312
sg67
g68
sg69
I0
sg70
(iread_data
Room
p668
(dp669
g64
g99
sg65
g100
sbsba(ischedule
Activity
p670
(dp671
g8
(lp672
g160
ag522
ag465
ag527
ag428
ag419
ag50
ag532
ag477
ag210
ag535
ag350
ag538
asg64
g577
sg65
g539
sg67
g122
sg69
g149
sg70
(iread_data
Room
p673
(dp674
g64
g152
sg65
g153
sbsba(ischedule
Activity
p675
(dp676
g8
(lp677
g201
ag203
ag207
ag209
ag210
ag212
ag214
ag216
ag218
ag220
ag206
asg64
S'15'
p678
sg65
g221
sg67
g122
sg69
g96
sg70
(iread_data
Room
p679
(dp680
g64
g125
sg65
g126
sbsba(ischedule
Activity
p681
(dp682
g8
(lp683
g19
aS'87314964'
p684
aS'17823206'
p685
ag110
aS'93023961'
p686
ag205
ag515
aS'19337738'
p687
asg64
g165
sg65
g166
sg67
g95
sg69
g149
sg70
(iread_data
Room
p688
(dp689
g64
g196
sg65
g197
sbsbaa(lp690
(ischedule
Activity
p691
(dp692
g8
(lp693
g36
ag441
aS'52552718'
p694
ag22
ag523
aS'70113753'
p695
ag547
ag208
asg64
S'10'
p696
sg65
g573
sg67
g122
sg69
g149
sg70
g444
sba(ischedule
Activity
p697
(dp698
g8
g519
sg64
I1000
sg65
g539
sg67
g68
sg69
I0
sg70
(iread_data
Room
p699
(dp700
g64
g196
sg65
g197
sbsba(ischedule
Activity
p701
(dp702
g8
(lp703
g396
ag397
ag399
ag401
ag14
ag402
ag404
ag406
ag408
ag92
ag175
ag44
ag23
ag413
ag415
ag417
ag421
ag423
ag201
ag426
ag428
ag429
ag46
ag432
ag143
ag174
ag436
ag39
ag438
ag440
ag309
ag442
asg64
S'40'
p704
sg65
g443
sg67
g122
sg69
g364
sg70
g97
sba(ischedule
Activity
p705
(dp706
g8
(lp707
S'70072978'
p708
aS'99272880'
p709
ag188
aS'2550487'
p710
ag202
ag411
ag416
ag637
aS'45414528'
p711
ag415
ag685
ag184
ag62
ag462
ag186
ag203
ag218
ag31
aS'47982619'
p712
asg64
g387
sg65
g388
sg67
g122
sg69
g364
sg70
g123
sba(ischedule
Activity
p713
(dp714
g8
(lp715
g449
ag81
ag212
ag502
ag261
ag40
ag527
aS'47260040'
p716
ag270
aS'74361881'
p717
ag157
aS'5892092'
p718
ag42
asg64
g362
sg65
g363
sg67
g122
sg69
g149
sg70
g150
sba(ischedule
Activity
p719
(dp720
g8
(lp721
g531
ag589
ag113
ag498
ag426
ag90
ag532
ag469
ag130
ag500
ag611
ag269
ag233
ag613
ag612
ag306
ag473
ag117
ag596
aS'39429093'
p722
asg64
I1000
sg65
g615
sg67
g68
sg69
I0
sg70
(iread_data
Room
p723
(dp724
g64
g73
sg65
g74
sbsba(ischedule
Activity
p725
(dp726
g8
(lp727
S'12091019'
p728
ag186
aS'4546613'
p729
ag118
ag586
ag88
aS'6709529'
p730
ag283
ag244
aS'19717077'
p731
ag114
ag439
ag522
ag384
aS'93361408'
p732
aS'28957789'
p733
ag26
aS'38179241'
p734
ag137
ag146
ag256
ag571
aS'53139134'
p735
aS'65408517'
p736
ag130
aS'72526473'
p737
aS'37279234'
p738
ag106
ag596
ag252
aS'46570285'
p739
aS'65978354'
p740
aS'87900893'
p741
ag51
aS'23628642'
p742
ag291
asg64
g343
sg65
g344
sg67
g95
sg69
g149
sg70
(iread_data
Room
p743
(dp744
g64
g169
sg65
g170
sbsbaa(lp745
(ischedule
Activity
p746
(dp747
g8
(lp748
g433
ag310
ag336
ag523
ag525
ag240
ag528
ag338
ag468
ag531
ag534
ag451
ag286
ag537
ag51
asg64
S'20'
p749
sg65
g539
sg67
g95
sg69
g364
sg70
g123
sba(ischedule
Activity
p750
(dp751
g8
(lp752
S'77376714'
p753
aS'18144425'
p754
ag246
ag495
aS'47462856'
p755
ag308
ag330
ag252
ag218
ag27
ag305
ag456
ag274
aS'41489515'
p756
aS'27916487'
p757
aS'3883025'
p758
ag342
ag405
ag201
asg64
g147
sg65
g148
sg67
g95
sg69
g364
sg70
g97
sba(ischedule
Activity
p759
(dp760
g8
(lp761
g158
ag160
ag522
ag20
ag465
ag527
ag428
ag419
ag50
ag532
ag477
ag210
ag535
ag350
ag538
asg64
g749
sg65
g539
sg67
g95
sg69
g149
sg70
(iread_data
Room
p762
(dp763
g64
g169
sg65
g170
sbsba(ischedule
Activity
p764
(dp765
g8
(lp766
g322
aS'76924297'
p767
aS'19214659'
p768
ag597
ag729
ag514
ag648
ag110
aS'44828429'
p769
ag734
ag710
aS'28055464'
p770
ag339
ag62
ag436
aS'20374340'
p771
ag306
aS'69634191'
p772
ag361
ag14
aS'64768422'
p773
aS'37701751'
p774
aS'21677389'
p775
ag63
ag589
asg64
I1000
sg65
S'Interactie-ontwerp'
p776
sg67
g68
sg69
I0
sg70
(iread_data
Room
p777
(dp778
g64
g152
sg65
g153
sbsba(ischedule
Activity
p779
(dp780
g8
(lp781
g34
ag569
ag36
aS'34806836'
p782
ag160
ag441
ag29
ag476
ag694
ag249
ag401
ag22
aS'61611295'
p783
ag162
ag523
ag184
ag570
ag695
ag208
ag571
ag547
ag12
asg64
I1000
sg65
g573
sg67
g68
sg69
I0
sg70
(iread_data
Room
p784
(dp785
g64
g224
sg65
g225
sbsba(ischedule
Activity
p786
(dp787
g8
(lp788
S'51472074'
p789
ag650
aS'42297781'
p790
ag113
ag533
aS'535689'
p791
ag320
ag422
ag295
ag298
ag709
ag406
aS'44151631'
p792
aS'51673172'
p793
asg64
g362
sg65
g363
sg67
g122
sg69
g96
sg70
(iread_data
Room
p794
(dp795
g64
g196
sg65
g197
sbsbaa(lp796
(ischedule
Activity
p797
(dp798
g8
(lp799
g105
ag452
ag217
ag247
ag274
ag537
aS'27123462'
p800
ag613
ag497
ag324
ag145
aS'58083680'
p801
ag308
ag599
ag708
ag546
ag397
aS'13132925'
p802
ag525
ag57
ag82
aS'4529208'
p803
ag280
ag162
ag60
ag694
ag59
ag298
ag136
aS'5526560'
p804
ag337
ag414
ag239
ag50
aS'56191333'
p805
ag260
asg64
S'40'
p806
sg65
S'Databases 2'
p807
sg67
g95
sg69
g96
sg70
g444
sba(ischedule
Activity
p808
(dp809
g8
(lp810
g157
ag460
ag19
ag158
ag711
ag684
ag159
ag476
ag685
ag160
ag376
ag635
ag161
ag210
ag110
ag17
ag471
ag686
ag162
ag550
ag205
ag163
ag741
ag515
ag164
aS'98780382'
p811
ag687
asg64
I1000
sg65
g166
sg67
g68
sg69
I0
sg70
g97
sba(ischedule
Activity
p812
(dp813
g8
g173
sg64
I1000
sg65
g193
sg67
g68
sg69
I0
sg70
g71
sba(ischedule
Activity
p814
(dp815
g8
(lp816
g255
ag590
ag356
ag339
ag277
ag327
ag357
ag355
ag456
ag326
aS'25077484'
p817
ag178
asg64
S'15'
p818
sg65
S'Project Genetic Algorithms'
p819
sg67
g122
sg69
g96
sg70
g123
sba(ischedule
Activity
p820
(dp821
g8
(lp822
S'99283252'
p823
ag230
ag53
ag510
ag400
ag289
ag88
aS'8522855'
p824
ag717
ag403
aS'55480737'
p825
ag246
asg64
g818
sg65
g819
sg67
g122
sg69
g149
sg70
g699
sba(ischedule
Activity
p826
(dp827
g8
(lp828
S'28943658'
p829
ag352
ag602
aS'62105897'
p830
aS'51791169'
p831
aS'63096281'
p832
ag39
ag534
ag311
ag404
aS'41585485'
p833
aS'7386961'
p834
ag300
ag465
aS'12782624'
p835
ag158
ag63
ag49
ag108
asg64
g387
sg65
g388
sg67
g122
sg69
g487
sg70
(iread_data
Room
p836
(dp837
g64
g169
sg65
g170
sbsba(ischedule
Activity
p838
(dp839
g8
(lp840
g36
ag441
ag22
ag523
ag695
ag547
asg64
g572
sg65
g573
sg67
g95
sg69
g149
sg70
(iread_data
Room
p841
(dp842
g64
g152
sg65
g153
sbsbaa(lp843
(ischedule
Activity
p844
(dp845
g8
(lp846
g271
ag275
ag278
ag280
ag108
ag284
ag12
ag289
ag292
ag295
ag298
ag23
ag303
ag306
ag309
asg64
g486
sg65
g312
sg67
g95
sg69
g149
sg70
g150
sba(ischedule
Activity
p847
(dp848
g8
(lp849
g105
ag184
ag452
ag327
ag217
aS'59397895'
p850
ag247
ag379
ag274
ag408
ag537
ag647
ag800
ag218
ag613
ag817
ag497
ag401
ag324
aS'54540997'
p851
ag145
aS'15187217'
p852
ag801
ag402
ag308
ag534
ag599
ag473
ag708
aS'49631542'
p853
ag546
ag119
ag397
ag234
ag802
aS'26207525'
p854
ag525
ag336
ag57
ag300
ag82
ag294
ag803
ag26
ag280
ag134
ag162
ag464
ag60
ag728
ag694
ag282
ag59
ag39
ag298
ag32
ag136
ag604
ag804
ag774
ag337
aS'40141996'
p855
ag414
ag532
ag239
ag12
ag50
ag84
ag805
ag261
ag260
ag246
asg64
I1000
sg65
g807
sg67
g68
sg69
I0
sg70
g444
sba(ischedule
Activity
p856
(dp857
g8
(lp858
g473
aS'82872148'
p859
ag450
ag164
ag415
ag40
ag14
aS'64246605'
p860
ag231
ag83
aS'31247305'
p861
ag775
aS'19058315'
p862
aS'16912993'
p863
ag208
ag44
asg64
g120
sg65
g121
sg67
g122
sg69
g487
sg70
g71
sba(ischedule
Activity
p864
(dp865
g8
(lp866
g405
ag527
ag338
aS'58565406'
p867
ag342
ag830
ag244
ag30
ag528
ag104
aS'9287708'
p868
ag569
ag249
ag277
ag649
ag441
aS'41527759'
p869
ag533
ag651
ag438
ag729
ag736
ag288
ag659
ag318
ag550
ag538
ag453
aS'31633723'
p870
aS'41153310'
p871
ag142
aS'21095566'
p872
ag235
ag403
ag297
ag496
ag164
ag823
ag276
asg64
S'40'
p873
sg65
S'Software engineering'
p874
sg67
g122
sg69
g364
sg70
(iread_data
Room
p875
(dp876
g64
g169
sg65
g170
sbsba(ischedule
Activity
p877
(dp878
g8
(lp879
g589
ag498
ag90
ag469
ag500
ag269
ag117
ag722
asg64
g614
sg65
g615
sg67
g122
sg69
g364
sg70
(iread_data
Room
p880
(dp881
g64
g125
sg65
g126
sbsba(ischedule
Activity
p882
(dp883
g8
g810
sg64
I1000
sg65
g166
sg67
g68
sg69
I0
sg70
(iread_data
Room
p884
(dp885
g64
g196
sg65
g197
sbsbaaa(lp886
(lp887
(ischedule
Activity
p888
(dp889
g8
(lp890
g508
ag509
ag162
ag510
ag511
ag271
ag512
ag513
ag514
ag461
ag32
ag110
ag515
ag516
ag176
ag142
asg64
g93
sg65
g94
sg67
g95
sg69
g364
sg70
g150
sba(ischedule
Activity
p891
(dp892
g8
g519
sg64
I1000
sg65
g539
sg67
g68
sg69
I0
sg70
g123
sba(ischedule
Activity
p893
(dp894
g8
g395
sg64
I1000
sg65
g443
sg67
g68
sg69
I0
sg70
g699
sba(ischedule
Activity
p895
(dp896
g8
(lp897
g208
aS'93041523'
p898
ag405
ag46
ag476
ag53
ag477
ag201
ag145
ag275
ag410
aS'70336464'
p899
aS'76487754'
p900
ag135
aS'4697362'
p901
aS'97371272'
p902
ag354
ag399
aS'69086548'
p903
asg64
S'20'
p904
sg65
S'Technology for games'
p905
sg67
g95
sg69
g96
sg70
(iread_data
Room
p906
(dp907
g64
g73
sg65
g74
sbsba(ischedule
Activity
p908
(dp909
g8
(lp910
g753
ag754
ag246
ag495
ag755
ag308
ag330
ag218
ag27
ag305
ag456
ag274
ag756
ag757
ag758
ag342
ag405
asg64
S'20'
p911
sg65
g148
sg67
g122
sg69
g364
sg70
(iread_data
Room
p912
(dp913
g64
g169
sg65
g170
sbsba(ischedule
Activity
p914
(dp915
g8
g493
sg64
I1000
sg65
g504
sg67
g68
sg69
I0
sg70
(iread_data
Room
p916
(dp917
g64
g99
sg65
g100
sbsba(ischedule
Activity
p918
(dp919
g8
(lp920
g460
ag711
ag476
ag376
ag210
ag471
ag550
ag741
ag811
ag205
asg64
g370
sg65
g166
sg67
g122
sg69
g364
sg70
(iread_data
Room
p921
(dp922
g64
g224
sg65
g225
sbsbaa(lp923
(ischedule
Activity
p924
(dp925
g8
g766
sg64
I1000
sg65
g776
sg67
g68
sg69
I0
sg70
g150
sba(ischedule
Activity
p926
(dp927
g8
(lp928
g81
ag237
ag279
ag115
ag513
ag612
ag352
ag613
aS'78735049'
p929
ag419
ag434
aS'11593163'
p930
ag377
ag276
ag510
ag408
aS'34173695'
p931
ag80
aS'31306819'
p932
ag651
ag425
aS'32705005'
p933
ag13
ag524
ag113
ag465
ag830
aS'10609762'
p934
ag855
ag10
ag54
ag537
ag16
aS'75446434'
p935
ag278
ag34
asg64
g343
sg65
g344
sg67
g95
sg69
g364
sg70
g444
sba(ischedule
Activity
p936
(dp937
g8
(lp938
g477
ag753
ag130
ag524
ag754
ag131
ag450
ag246
ag132
ag386
ag495
ag133
aS'48198668'
p939
ag755
ag134
ag12
ag308
ag201
ag206
ag330
ag135
ag823
ag252
ag136
ag853
ag218
ag137
ag439
ag27
ag138
ag427
ag305
ag139
ag708
ag456
ag140
ag273
ag274
ag141
aS'66621166'
p940
ag756
ag142
ag190
ag757
ag143
ag422
ag758
ag144
ag409
ag342
ag145
ag739
ag405
ag146
asg64
I1000
sg65
g148
sg67
g68
sg69
I0
sg70
(iread_data
Room
p941
(dp942
g64
g125
sg65
g126
sbsba(ischedule
Activity
p943
(dp944
g8
(lp945
g19
ag684
ag685
ag635
ag110
ag686
ag515
ag687
ag158
asg64
g370
sg65
g166
sg67
g122
sg69
g149
sg70
(iread_data
Room
p946
(dp947
g64
g196
sg65
g197
sbsba(ischedule
Activity
p948
(dp949
g8
(lp950
g824
ag526
ag410
ag805
ag536
aS'25557516'
p951
ag459
ag791
ag260
ag378
ag283
ag286
ag300
ag219
ag255
ag854
asg64
g120
sg65
g121
sg67
g122
sg69
g149
sg70
(iread_data
Room
p952
(dp953
g64
g169
sg65
g170
sbsba(ischedule
Activity
p954
(dp955
g8
g200
sg64
I1000
sg65
g221
sg67
g68
sg69
I0
sg70
(iread_data
Room
p956
(dp957
g64
g73
sg65
g74
sbsba(ischedule
Activity
p958
(dp959
g8
(lp960
g449
ag451
ag454
ag92
ag251
ag459
ag462
ag464
ag467
ag191
ag403
ag53
ag236
ag235
ag475
ag476
ag478
ag473
asg64
g621
sg65
g480
sg67
g95
sg69
g96
sg70
(iread_data
Room
p961
(dp962
g64
g99
sg65
g100
sbsbaa(lp963
(ischedule
Activity
p964
(dp965
g8
g268
sg64
I1000
sg65
g312
sg67
g68
sg69
I0
sg70
g875
sba(ischedule
Activity
p966
(dp967
g8
(lp968
S'40343779'
p969
ag214
ag869
ag872
ag753
ag833
ag769
ag824
ag407
aS'19540225'
p970
ag571
ag514
ag449
ag158
ag662
aS'23652927'
p971
ag181
ag282
ag521
aS'51509565'
p972
aS'67817269'
p973
asg64
S'25'
p974
sg65
g653
sg67
g95
sg69
g364
sg70
g123
sba(ischedule
Activity
p975
(dp976
g8
(lp977
g208
aS'77264363'
p978
ag898
ag85
ag405
ag431
ag46
ag251
ag476
ag712
ag53
ag867
ag477
aS'21192048'
p979
ag201
ag298
ag145
ag212
ag275
ag588
ag410
ag497
ag899
ag54
ag900
aS'89338938'
p980
ag252
ag207
ag135
ag550
ag901
aS'92496780'
p981
ag902
ag306
ag354
ag903
ag399
aS'12430748'
p982
asg64
I1000
sg65
g905
sg67
g68
sg69
I0
sg70
(iread_data
Room
p983
(dp984
g64
g196
sg65
g197
sbsba(ischedule
Activity
p985
(dp986
g8
(lp987
g599
ag176
ag646
ag647
ag352
ag648
ag431
ag162
ag469
ag157
ag649
ag25
ag650
ag651
ag278
ag295
ag379
ag14
ag397
ag546
ag136
ag112
asg64
g974
sg65
g653
sg67
g95
sg69
g96
sg70
(iread_data
Room
p988
(dp989
g64
g73
sg65
g74
sbsba(ischedule
Activity
p990
(dp991
g8
(lp992
g477
ag524
ag450
ag386
ag939
ag12
ag206
ag823
ag853
ag439
ag427
ag708
ag273
ag940
ag190
ag422
ag409
ag739
asg64
g147
sg65
g148
sg67
g95
sg69
g96
sg70
(iread_data
Room
p993
(dp994
g64
g99
sg65
g100
sbsbaa(lp995
(ischedule
Activity
p996
(dp997
g8
(lp998
S'14072826'
p999
aS'51593625'
p1000
ag437
ag523
ag15
aS'58074656'
p1001
ag969
ag29
aS'31103066'
p1002
ag292
ag660
ag449
ag18
ag350
ag980
ag176
ag535
ag19
ag753
aS'37830626'
p1003
aS'3727435'
p1004
ag861
ag284
ag178
ag495
ag262
ag300
ag28
ag694
ag499
ag157
ag859
ag433
aS'84110134'
p1005
ag31
ag264
asg64
g873
sg65
g874
sg67
g122
sg69
g96
sg70
g97
sba(ischedule
Activity
p1006
(dp1007
g8
(lp1008
g463
ag23
ag421
ag515
aS'34691309'
p1009
ag108
ag569
aS'40911986'
p1010
aS'32183908'
p1011
ag433
ag408
aS'63939720'
p1012
ag111
asg64
S'15'
p1013
sg65
S'Project Numerical Recipes'
p1014
sg67
g122
sg69
g96
sg70
(iread_data
Room
p1015
(dp1016
g64
g152
sg65
g153
sbsba(ischedule
Activity
p1017
(dp1018
g8
(lp1019
g477
ag524
ag450
ag386
ag939
ag12
ag206
ag823
ag853
ag439
ag427
ag708
ag273
ag940
ag190
ag422
ag409
ag739
ag252
asg64
g911
sg65
g148
sg67
g122
sg69
g96
sg70
(iread_data
Room
p1020
(dp1021
g64
g196
sg65
g197
sbsba(ischedule
Activity
p1022
(dp1023
g8
(lp1024
g202
ag204
ag208
ag135
ag211
ag213
ag215
ag217
ag219
ag205
asg64
g678
sg65
g221
sg67
g122
sg69
g364
sg70
(iread_data
Room
p1025
(dp1026
g64
g125
sg65
g126
sbsba(ischedule
Activity
p1027
(dp1028
g8
(lp1029
g336
ag634
ag509
ag635
ag502
ag290
ag636
ag637
ag276
ag612
ag638
ag250
ag58
ag639
ag640
ag641
ag642
ag396
ag534
ag203
ag20
asg64
g551
sg65
g552
sg67
g95
sg69
g364
sg70
(iread_data
Room
p1030
(dp1031
g64
g224
sg65
g225
sbsba(ischedule
Activity
p1032
(dp1033
g8
(lp1034
g405
ag527
ag338
ag867
ag342
ag830
ag244
ag30
ag528
ag104
ag868
ag569
ag249
ag277
ag649
ag441
ag869
ag533
ag651
ag438
ag729
ag736
ag288
ag659
ag318
ag550
ag538
ag453
ag870
ag871
ag872
ag235
ag403
ag297
ag496
ag164
asg64
S'40'
p1035
sg65
g874
sg67
g95
sg69
g364
sg70
(iread_data
Room
p1036
(dp1037
g64
g73
sg65
g74
sbsba(ischedule
Activity
p1038
(dp1039
g8
(lp1040
g130
ag131
ag132
ag133
ag134
ag201
ag135
ag136
ag137
ag138
ag139
ag140
ag141
ag142
ag143
ag144
ag145
ag146
asg64
g911
sg65
g148
sg67
g122
sg69
g149
sg70
(iread_data
Room
p1041
(dp1042
g64
g169
sg65
g170
sbsbaa(lp1043
(ischedule
Activity
p1044
(dp1045
g8
(lp1046
g613
ag424
aS'88597745'
p1047
ag537
ag600
ag695
ag232
ag524
ag257
ag291
aS'64053722'
p1048
aS'54395877'
p1049
ag32
ag1000
ag359
ag86
ag331
ag513
ag278
asg64
g387
sg65
g388
sg67
g122
sg69
S'5'
p1050
sg70
g71
sba(ischedule
Activity
p1051
(dp1052
g8
(lp1053
g202
ag204
ag206
ag208
ag135
ag211
ag213
ag215
ag217
ag219
asg64
g581
sg65
g221
sg67
g95
sg69
g364
sg70
g150
sba(ischedule
Activity
p1054
(dp1055
g8
(lp1056
g396
ag397
ag399
ag401
ag14
ag402
ag404
ag406
ag408
ag92
ag175
ag44
ag23
ag413
ag415
ag417
ag419
ag421
ag423
ag201
ag426
ag428
ag429
ag46
ag432
ag143
ag433
ag174
ag436
ag39
ag438
ag440
ag309
ag442
asg64
S'40'
p1057
sg65
g443
sg67
g95
sg69
g364
sg70
(iread_data
Room
p1058
(dp1059
g64
g125
sg65
g126
sbsba(ischedule
Activity
p1060
(dp1061
g8
(lp1062
g34
ag782
ag29
ag249
ag783
ag184
ag12
ag569
asg64
g696
sg65
g573
sg67
g122
sg69
g96
sg70
(iread_data
Room
p1063
(dp1064
g64
g169
sg65
g170
sbsba(ischedule
Activity
p1065
(dp1066
g8
(lp1067
g286
ag59
ag500
ag768
ag294
ag284
ag420
ag191
ag143
ag612
aS'90103047'
p1068
ag980
aS'21070547'
p1069
ag710
ag350
ag1005
asg64
g1013
sg65
g1014
sg67
g122
sg69
g149
sg70
(iread_data
Room
p1070
(dp1071
g64
g224
sg65
g225
sbsba(ischedule
Activity
p1072
(dp1073
g8
(lp1074
g339
ag108
ag398
ag400
ag310
ag289
ag403
ag405
ag407
ag409
ag410
ag411
ag248
ag412
ag414
ag416
ag418
ag420
ag422
ag424
ag425
ag427
ag331
ag430
ag431
ag184
ag284
ag434
ag435
ag437
ag186
ag439
ag192
ag441
ag111
asg64
g1057
sg65
g443
sg67
g95
sg69
g96
sg70
(iread_data
Room
p1075
(dp1076
g64
g196
sg65
g197
sbsba(ischedule
Activity
p1077
(dp1078
g8
(lp1079
g310
ag336
ag523
ag525
ag240
ag528
ag338
ag468
ag531
ag534
ag451
ag286
ag537
ag51
ag158
asg64
g577
sg65
g539
sg67
g122
sg69
g364
sg70
(iread_data
Room
p1080
(dp1081
g64
g99
sg65
g100
sbsbaaa(lp1082
(lp1083
(ischedule
Activity
p1084
(dp1085
g8
g781
sg64
I1000
sg65
g573
sg67
g68
sg69
I0
sg70
g97
sba(ischedule
Activity
p1086
(dp1087
g8
g448
sg64
I1000
sg65
g480
sg67
g68
sg69
I0
sg70
g444
sba(ischedule
Activity
p1088
(dp1089
g8
(lp1090
g767
ag586
ag685
ag310
ag180
ag853
aS'63955238'
p1091
ag377
ag869
ag658
aS'39659121'
p1092
ag207
ag218
ag824
ag44
ag239
ag861
ag58
ag663
ag595
ag189
aS'38329455'
p1093
ag92
ag933
ag179
ag534
aS'51186803'
p1094
ag31
ag107
ag186
ag902
ag115
ag537
aS'10872825'
p1095
ag709
ag81
ag1005
ag503
ag641
ag516
aS'65003379'
p1096
ag112
ag20
ag191
ag329
ag929
ag303
ag28
ag234
aS'79366078'
p1097
aS'72547110'
p1098
ag903
aS'47605891'
p1099
aS'37498675'
p1100
aS'79858178'
p1101
ag17
ag436
aS'63408522'
p1102
ag649
ag469
aS'44940353'
p1103
ag185
aS'82688900'
p1104
ag531
ag257
aS'91139627'
p1105
ag755
ag434
ag739
ag833
ag178
ag219
ag381
ag870
ag472
ag13
ag538
ag466
ag40
ag49
ag980
ag441
ag733
aS'39919665'
p1106
asg64
I1000
sg65
S'Kansrekenen 2'
p1107
sg67
g68
sg69
I0
sg70
g875
sba(ischedule
Activity
p1108
(dp1109
g8
(lp1110
g520
ag521
ag423
ag110
ag524
ag526
ag252
ag529
ag516
ag530
ag533
ag134
ag131
ag536
ag259
asg64
g749
sg65
g539
sg67
g95
sg69
g96
sg70
(iread_data
Room
p1111
(dp1112
g64
g196
sg65
g197
sbsba(ischedule
Activity
p1113
(dp1114
g8
(lp1115
g273
ag80
ag116
ag158
ag283
ag11
ag287
ag291
ag293
ag185
ag300
ag202
ag304
ag308
ag311
asg64
g486
sg65
g312
sg67
g95
sg69
g96
sg70
(iread_data
Room
p1116
(dp1117
g64
g152
sg65
g153
sbsba(ischedule
Activity
p1118
(dp1119
g8
(lp1120
g585
ag459
ag587
ag271
ag589
ag591
ag592
ag593
ag279
ag528
ag597
ag280
ag598
ag78
ag142
ag269
ag45
ag604
ag605
ag407
asg64
S'20'
p1121
sg65
g607
sg67
g95
sg69
g96
sg70
(iread_data
Room
p1122
(dp1123
g64
g73
sg65
g74
sbsba(ischedule
Activity
p1124
(dp1125
g8
(lp1126
g586
ag495
ag588
ag549
ag590
ag428
ag497
ag594
ag595
ag596
ag25
ag496
ag599
ag600
ag601
ag602
ag603
ag320
ag606
asg64
S'20'
p1127
sg65
g607
sg67
g122
sg69
g364
sg70
(iread_data
Room
p1128
(dp1129
g64
g125
sg65
g126
sbsbaa(lp1130
(ischedule
Activity
p1131
(dp1132
g8
(lp1133
g999
ag405
ag1000
ag527
ag437
ag338
ag523
ag867
ag15
ag342
ag1001
ag830
ag969
ag244
ag29
ag30
ag1002
ag528
ag292
ag104
ag660
ag868
ag449
ag569
ag18
ag249
ag350
ag277
ag276
ag649
ag980
ag441
ag176
ag869
ag535
ag533
ag19
ag651
ag753
ag438
ag1003
ag729
ag1004
ag736
ag861
ag288
ag284
ag659
ag178
ag318
ag495
ag550
ag262
ag538
ag823
ag453
ag300
ag870
ag28
ag871
ag694
ag142
ag499
ag872
ag157
ag235
ag859
ag403
ag433
ag297
ag1005
ag496
ag31
ag164
ag264
asg64
I1000
sg65
g874
sg67
g68
sg69
I0
sg70
g875
sba(ischedule
Activity
p1134
(dp1135
g8
(lp1136
g46
ag337
ag982
ag240
ag407
ag335
ag13
aS'81116418'
p1137
ag516
aS'63573738'
p1138
ag455
ag376
aS'37419523'
p1139
aS'19662602'
p1140
ag634
asg64
g1013
sg65
g1014
sg67
g122
sg69
g364
sg70
(iread_data
Room
p1141
(dp1142
g64
g196
sg65
g197
sbsba(ischedule
Activity
p1143
(dp1144
g8
(lp1145
g160
ag476
ag401
ag162
ag570
ag571
asg64
g696
sg65
g573
sg67
g122
sg69
g364
sg70
(iread_data
Room
p1146
(dp1147
g64
g73
sg65
g74
sbsba(ischedule
Activity
p1148
(dp1149
g8
g584
sg64
I1000
sg65
g607
sg67
g68
sg69
I0
sg70
(iread_data
Room
p1150
(dp1151
g64
g125
sg65
g126
sbsba(ischedule
Activity
p1152
(dp1153
g8
(lp1154
g29
ag793
ag340
ag611
ag181
ag804
ag293
ag83
ag423
ag107
ag767
aS'75680261'
p1155
asg64
g818
sg65
g819
sg67
g122
sg69
g364
sg70
(iread_data
Room
p1156
(dp1157
g64
g99
sg65
g100
sbsbaa(lp1158
(ischedule
Activity
p1159
(dp1160
g8
(lp1161
g270
ag274
ag277
ag279
ag239
ag56
ag50
ag288
ag135
ag294
ag297
ag301
ag84
ag305
ag39
asg64
g558
sg65
g312
sg67
g122
sg69
g364
sg70
g444
sba(ischedule
Activity
p1162
(dp1163
g8
(lp1164
g999
ag1000
ag437
ag523
ag15
ag1001
ag969
ag29
ag1002
ag292
ag660
ag449
ag18
ag350
ag276
ag980
ag176
ag535
ag19
ag753
ag1003
ag1004
ag861
ag284
ag178
ag495
ag262
ag823
ag300
ag28
ag694
ag499
ag157
ag859
ag433
ag1005
ag31
ag264
ag142
asg64
g1035
sg65
g874
sg67
g95
sg69
g96
sg70
g875
sba(ischedule
Activity
p1165
(dp1166
g8
(lp1167
g450
ag245
ag17
ag287
ag190
ag217
ag60
ag464
ag275
ag271
ag512
ag104
ag612
aS'73196865'
p1168
ag738
ag429
ag397
ag871
asg64
g387
sg65
g388
sg67
g122
sg69
g149
sg70
(iread_data
Room
p1169
(dp1170
g64
g125
sg65
g126
sbsba(ischedule
Activity
p1171
(dp1172
g8
(lp1173
g184
ag327
ag850
ag379
ag408
ag647
ag218
ag817
ag401
ag851
ag852
ag402
ag534
ag473
ag853
ag119
ag234
ag854
ag336
ag300
ag294
ag26
ag134
ag464
ag728
ag282
ag39
ag32
ag604
ag774
ag855
ag532
ag12
ag84
ag261
ag246
asg64
g806
sg65
g807
sg67
g95
sg69
g364
sg70
(iread_data
Room
p1174
(dp1175
g64
g152
sg65
g153
sbsba(ischedule
Activity
p1176
(dp1177
g8
(lp1178
g460
ag711
ag476
ag376
ag210
ag471
ag550
ag741
ag811
ag635
asg64
g165
sg65
g166
sg67
g95
sg69
g364
sg70
(iread_data
Room
p1179
(dp1180
g64
g196
sg65
g197
sbsba(ischedule
Activity
p1181
(dp1182
g8
(lp1183
g586
ag495
ag588
ag549
ag590
ag428
ag497
ag594
ag595
ag596
ag25
ag496
ag599
ag600
ag601
ag602
ag603
ag320
ag606
asg64
g1121
sg65
g607
sg67
g95
sg69
g364
sg70
(iread_data
Room
p1184
(dp1185
g64
g99
sg65
g100
sbsbaa(lp1186
(ischedule
Activity
p1187
(dp1188
g8
(lp1189
g978
ag85
ag431
ag251
ag712
ag867
ag979
ag298
ag212
ag588
ag497
ag54
ag980
ag207
ag550
ag981
ag306
ag982
ag252
asg64
g904
sg65
g905
sg67
g95
sg69
g364
sg70
g123
sba(ischedule
Activity
p1190
(dp1191
g8
(lp1192
g339
ag108
ag398
ag400
ag310
ag289
ag403
ag405
ag407
ag409
ag410
ag411
ag248
ag412
ag414
ag416
ag418
ag420
ag422
ag424
ag425
ag427
ag331
ag430
ag431
ag184
ag284
ag434
ag435
ag437
ag186
ag439
ag192
ag441
ag111
ag433
ag419
asg64
g704
sg65
g443
sg67
g122
sg69
g96
sg70
g444
sba(ischedule
Activity
p1193
(dp1194
g8
(lp1195
g599
ag969
ag176
ag214
ag646
ag869
ag647
ag872
ag352
ag753
ag648
ag833
ag431
ag769
ag162
ag824
ag469
ag407
ag157
ag970
ag649
ag571
ag25
ag514
ag650
ag449
ag651
ag158
ag278
ag662
ag295
ag971
ag379
ag181
ag14
ag282
ag397
ag521
ag546
ag972
ag136
ag973
ag112
asg64
I1000
sg65
g653
sg67
g68
sg69
I0
sg70
g875
sba(ischedule
Activity
p1196
(dp1197
g8
(lp1198
g34
ag782
ag29
ag249
ag783
ag184
ag208
ag12
ag694
asg64
g572
sg65
g573
sg67
g95
sg69
g96
sg70
(iread_data
Room
p1199
(dp1200
g64
g152
sg65
g153
sbsba(ischedule
Activity
p1201
(dp1202
g8
(lp1203
g585
ag459
ag587
ag271
ag589
ag591
ag592
ag593
ag279
ag528
ag597
ag280
ag598
ag78
ag142
ag269
ag45
ag604
ag605
ag407
asg64
g1127
sg65
g607
sg67
g122
sg69
g96
sg70
(iread_data
Room
p1204
(dp1205
g64
g99
sg65
g100
sbsba(ischedule
Activity
p1206
(dp1207
g8
g1090
sg64
I1000
sg65
g1107
sg67
g68
sg69
I0
sg70
(iread_data
Room
p1208
(dp1209
g64
g73
sg65
g74
sbsba(ischedule
Activity
p1210
(dp1211
g8
(lp1212
g270
ag274
ag277
ag239
ag56
ag50
ag288
ag135
ag294
ag297
ag301
ag84
ag305
ag39
asg64
g486
sg65
g312
sg67
g95
sg69
g364
sg70
(iread_data
Room
p1213
(dp1214
g64
g196
sg65
g197
sbsbaa(lp1215
(ischedule
Activity
p1216
(dp1217
g8
g977
sg64
I1000
sg65
g905
sg67
g68
sg69
I0
sg70
g150
sba(ischedule
Activity
p1218
(dp1219
g8
(lp1220
g318
ag81
ag728
ag264
ag237
ag186
ag57
ag279
ag729
ag319
ag115
ag118
ag320
ag513
ag586
ag321
ag612
ag88
ag181
ag352
ag730
ag322
ag613
ag283
ag323
ag929
ag244
ag324
ag419
ag731
ag325
ag434
ag114
ag215
ag930
ag439
ag326
ag377
ag522
ag247
ag276
ag384
ag327
ag510
ag732
ag328
ag408
ag733
ag329
ag931
ag26
ag330
ag80
ag734
ag34
ag932
ag137
ag331
ag651
ag146
ag332
ag425
ag256
ag333
ag933
ag571
ag334
ag13
ag735
ag335
ag524
ag736
ag336
ag113
ag130
ag291
ag465
ag737
ag258
ag830
ag738
ag337
ag934
ag106
ag338
ag855
ag596
ag136
ag342
ag252
ag339
ag10
ag739
ag340
ag54
ag740
ag341
ag537
ag741
ag278
ag16
ag51
ag177
ag935
ag742
ag20
asg64
I1000
sg65
g344
sg67
g68
sg69
I0
sg70
g123
sba(ischedule
Activity
p1221
(dp1222
g8
(lp1223
S'123355'
p1224
ag639
ag758
ag161
ag515
aS'59887191'
p1225
aS'5590289'
p1226
aS'12170832'
p1227
ag500
ag282
ag159
ag1138
ag969
ag546
ag641
ag520
asg64
g120
sg65
g121
sg67
g122
sg69
g364
sg70
(iread_data
Room
p1228
(dp1229
g64
g169
sg65
g170
sbsba(ischedule
Activity
p1230
(dp1231
g8
(lp1232
g272
ag276
ag157
ag281
ag282
ag285
ag286
ag290
ag296
ag299
ag302
ag43
ag307
ag310
ag12
asg64
g558
sg65
g312
sg67
g122
sg69
g487
sg70
(iread_data
Room
p1233
(dp1234
g64
g73
sg65
g74
sbsba(ischedule
Activity
p1235
(dp1236
g8
(lp1237
g969
ag214
ag869
ag872
ag753
ag833
ag769
ag824
ag407
ag970
ag571
ag514
ag449
ag158
ag662
ag971
ag181
ag282
ag521
ag972
ag973
asg64
g652
sg65
g653
sg67
g122
sg69
g364
sg70
(iread_data
Room
p1238
(dp1239
g64
g224
sg65
g225
sbsba(ischedule
Activity
p1240
(dp1241
g8
(lp1242
g450
ag453
ag386
ag457
ag78
ag461
ag117
ag466
ag294
ag232
ag249
ag471
ag472
ag474
ag180
ag274
ag63
asg64
g621
sg65
g480
sg67
g95
sg69
g149
sg70
(iread_data
Room
p1243
(dp1244
g64
g196
sg65
g197
sbsbaaa(lp1245
(lp1246
a(lp1247
a(lp1248
a(lp1249
a(lp1250
aasS'timeslot_dict'
p1251
(dp1252
I0
S'9:00-11:00'
p1253
sI1
S'11:00-13:00'
p1254
sI2
S'13:00-15:00'
p1255
sI3
S'15:00-17:00'
p1256
sI4
S'17:00-19:00'
p1257
ssS'day_dict'
p1258
(dp1259
I0
S'Monday'
p1260
sI1
S'Tuesday'
p1261
sI2
S'Wednesday'
p1262
sI3
S'Thursday'
p1263
sI4
S'Friday'
p1264
ssb.