(ischedule
Schedule
p0
(dp1
S'timetable'
p2
(lp3
(lp4
(lp5
(ischedule
Activity
p6
(dp7
S'participants'
p8
(lp9
S'65960683'
p10
aS'31416266'
p11
aS'25106480'
p12
aS'45556081'
p13
aS'64228258'
p14
aS'1696500'
p15
aS'82689818'
p16
aS'13092455'
p17
aS'86000192'
p18
aS'43027916'
p19
aS'57595888'
p20
aS'77240949'
p21
aS'7308727'
p22
aS'1075391'
p23
aS'54310617'
p24
aS'28357474'
p25
aS'24277163'
p26
aS'50184318'
p27
aS'13534377'
p28
aS'77896638'
p29
aS'72577292'
p30
aS'33760909'
p31
aS'53107172'
p32
aS'48601268'
p33
aS'97135019'
p34
aS'86291592'
p35
aS'29640619'
p36
aS'34773179'
p37
aS'64393888'
p38
aS'75521763'
p39
aS'96104167'
p40
aS'51741554'
p41
aS'5517869'
p42
aS'60312776'
p43
aS'58522654'
p44
aS'1665980'
p45
aS'23547619'
p46
aS'21964491'
p47
aS'22699561'
p48
aS'42778953'
p49
aS'42171678'
p50
aS'87758823'
p51
aS'17575088'
p52
aS'37770881'
p53
aS'3233378'
p54
aS'64296965'
p55
aS'76123484'
p56
aS'35330349'
p57
aS'73980360'
p58
aS'4783858'
p59
aS'61443567'
p60
aS'62701040'
p61
aS'9332762'
p62
aS'42196732'
p63
aS'46052388'
p64
aS'29474737'
p65
aS'17222374'
p66
aS'15902055'
p67
aS'50143947'
p68
aS'68601184'
p69
aS'26406342'
p70
asS'capacity'
p71
I1000
sS'name'
p72
S'Collectieve Intelligentie'
p73
sS'ttype'
p74
S'lectures'
p75
sS'group_id'
p76
I0
sS'room'
p77
(iread_data
Room
p78
(dp79
g71
S'117'
p80
sg72
S'C0.110'
p81
sbsba(ischedule
Activity
p82
(dp83
g8
(lp84
S'27925117'
p85
aS'7106649'
p86
aS'1886996'
p87
aS'35315956'
p88
ag31
aS'31897288'
p89
aS'15249775'
p90
aS'16097870'
p91
aS'81022997'
p92
aS'84524083'
p93
ag19
aS'5739011'
p94
aS'52304977'
p95
aS'83869542'
p96
aS'670011'
p97
aS'22731474'
p98
aS'57086672'
p99
aS'81200278'
p100
aS'58736785'
p101
aS'82968410'
p102
aS'85236626'
p103
aS'78243495'
p104
aS'72652638'
p105
aS'5976174'
p106
aS'58040377'
p107
aS'34765676'
p108
aS'48678993'
p109
aS'63634350'
p110
aS'87602030'
p111
aS'99975346'
p112
ag60
aS'51566595'
p113
asg71
I1000
sg72
S'Heuristieken 2'
p114
sg74
g75
sg76
I0
sg77
(iread_data
Room
p115
(dp116
g71
S'56'
p117
sg72
S'A1.10'
p118
sbsba(ischedule
Activity
p119
(dp120
g8
(lp121
g113
aS'13996448'
p122
ag47
aS'22323043'
p123
aS'97136582'
p124
asg71
S'10'
p125
sg72
S'Data Mining'
p126
sg74
S'labs'
p127
sg76
S'3'
p128
sg77
(iread_data
Room
p129
(dp130
g71
S'41'
p131
sg72
S'A1.04'
p132
sbsba(ischedule
Activity
p133
(dp134
g8
(lp135
S'66120270'
p136
aS'44901052'
p137
aS'72456780'
p138
aS'19058315'
p139
aS'59887191'
p140
aS'4353500'
p141
aS'25557516'
p142
aS'4709948'
p143
aS'7957843'
p144
aS'57467488'
p145
aS'31247305'
p146
ag36
aS'82872148'
p147
aS'87830198'
p148
aS'34243356'
p149
asg71
S'20'
p150
sg72
S'Netwerken en systeembeveiliging'
p151
sg74
g127
sg76
S'2'
p152
sg77
(iread_data
Room
p153
(dp154
g71
S'48'
p155
sg72
S'B0.201'
p156
sbsba(ischedule
Activity
p157
(dp158
g8
(lp159
S'60352393'
p160
aS'75997788'
p161
aS'3168419'
p162
ag30
aS'40633534'
p163
ag46
aS'28618400'
p164
aS'14847953'
p165
aS'72665524'
p166
aS'72683344'
p167
aS'20883994'
p168
aS'39429093'
p169
aS'47477884'
p170
ag87
aS'78136904'
p171
aS'92665222'
p172
aS'27064249'
p173
aS'86807027'
p174
aS'70844780'
p175
aS'62613937'
p176
asg71
I1000
sg72
S'Advanced Heuristics'
p177
sg74
g75
sg76
I0
sg77
(iread_data
Room
p178
(dp179
g71
S'20'
p180
sg72
S'A1.08'
p181
sbsba(ischedule
Activity
p182
(dp183
g8
(lp184
g50
ag27
ag39
aS'70072978'
p185
aS'11996292'
p186
aS'18144425'
p187
aS'66621166'
p188
ag26
aS'89180944'
p189
aS'1766560'
p190
aS'33776961'
p191
aS'78443067'
p192
aS'48198668'
p193
aS'96082155'
p194
aS'78821918'
p195
aS'43680781'
p196
aS'58332004'
p197
aS'27916487'
p198
asg71
S'20'
p199
sg72
S'Moderne Databases'
p200
sg74
S'tutorials'
p201
sg76
g128
sg77
(iread_data
Room
p202
(dp203
g71
S'60'
p204
sg72
S'C1.112'
p205
sbsba(ischedule
Activity
p206
(dp207
g8
(lp208
S'19958553'
p209
aS'17496687'
p210
aS'18266644'
p211
aS'68315599'
p212
aS'8557857'
p213
aS'70878567'
p214
ag197
aS'23257088'
p215
aS'29718115'
p216
aS'23983476'
p217
aS'13658563'
p218
aS'13116738'
p219
aS'36748818'
p220
aS'77636749'
p221
asg71
S'15'
p222
sg72
S'Informatie- en organsatieontwerp'
p223
sg74
g201
sg76
g152
sg77
(iread_data
Room
p224
(dp225
g71
S'22'
p226
sg72
S'A1.06'
p227
sbsbaa(lp228
(ischedule
Activity
p229
(dp230
g8
(lp231
g68
aS'66122625'
p232
ag214
aS'68360259'
p233
aS'74131924'
p234
ag124
ag92
ag100
asg71
S'10'
p235
sg72
g126
sg74
g201
sg76
S'1'
p236
sg77
(iread_data
Room
p237
(dp238
g71
g180
sg72
g181
sbsba(ischedule
Activity
p239
(dp240
g8
(lp241
S'6249823'
p242
ag14
ag165
aS'76903244'
p243
ag189
aS'43902015'
p244
aS'10698627'
p245
aS'16333449'
p246
aS'24891081'
p247
aS'72895450'
p248
ag30
aS'49908313'
p249
aS'22288615'
p250
aS'20618153'
p251
aS'41790793'
p252
aS'69459473'
p253
aS'2416751'
p254
aS'77392404'
p255
ag173
ag104
ag99
aS'67073567'
p256
aS'3474870'
p257
aS'5615125'
p258
ag60
aS'14303208'
p259
aS'53512831'
p260
ag56
aS'66034145'
p261
aS'28358060'
p262
aS'1137946'
p263
aS'94930277'
p264
aS'39230359'
p265
aS'17092717'
p266
aS'33877725'
p267
aS'40434933'
p268
aS'43460038'
p269
aS'76648468'
p270
aS'53202517'
p271
asg71
I1000
sg72
S'Webprogrammeren en databases'
p272
sg74
g75
sg76
I0
sg77
(iread_data
Room
p273
(dp274
g71
g204
sg72
g205
sbsba(ischedule
Activity
p275
(dp276
g8
(lp277
S'90067329'
p278
aS'15051051'
p279
ag21
aS'49683101'
p280
aS'63111000'
p281
aS'56988998'
p282
aS'26857113'
p283
aS'23798155'
p284
aS'33252501'
p285
aS'94467156'
p286
aS'61518436'
p287
aS'3685034'
p288
aS'37744525'
p289
ag106
aS'2079771'
p290
aS'38296757'
p291
aS'67625383'
p292
ag103
aS'40791377'
p293
aS'46701583'
p294
aS'39459642'
p295
aS'27187154'
p296
asg71
I1000
sg72
S'Machine Learning'
p297
sg74
g75
sg76
I0
sg77
(iread_data
Room
p298
(dp299
g71
g117
sg72
g118
sbsba(ischedule
Activity
p300
(dp301
g8
(lp302
g17
aS'54569540'
p303
aS'51052738'
p304
ag218
ag191
aS'37110913'
p305
aS'99453514'
p306
aS'49922855'
p307
ag143
ag175
aS'27370083'
p308
aS'27950803'
p309
aS'70193386'
p310
aS'59753700'
p311
ag171
ag148
ag112
ag160
asg71
S'20'
p312
sg72
S'Reflectie op de digitale cultuur'
p313
sg74
g201
sg76
g152
sg77
(iread_data
Room
p314
(dp315
g71
g155
sg72
g156
sbsba(ischedule
Activity
p316
(dp317
g8
(lp318
S'48503689'
p319
aS'2550487'
p320
aS'63573738'
p321
aS'40911986'
p322
ag164
aS'90103047'
p323
aS'73236988'
p324
ag122
aS'19214659'
p325
ag174
ag98
aS'63939720'
p326
aS'42406214'
p327
aS'32183908'
p328
ag43
asg71
S'15'
p329
sg72
S'Project Numerical Recipes'
p330
sg74
g127
sg76
g152
sg77
(iread_data
Room
p331
(dp332
g71
g226
sg72
g227
sbsba(ischedule
Activity
p333
(dp334
g8
(lp335
S'68409833'
p336
ag113
ag305
aS'61611295'
p337
aS'72796858'
p338
aS'62356458'
p339
aS'11915563'
p340
aS'70113753'
p341
ag234
ag91
aS'22871048'
p342
aS'54026378'
p343
aS'52552718'
p344
ag42
aS'19858730'
p345
ag295
aS'36508571'
p346
aS'62872965'
p347
aS'27298319'
p348
aS'88627897'
p349
aS'34806836'
p350
ag137
asg71
I1000
sg72
S'Autonomous Agents 2'
p351
sg74
g75
sg76
I0
sg77
(iread_data
Room
p352
(dp353
g71
g80
sg72
g81
sbsba(ischedule
Activity
p354
(dp355
g8
(lp356
S'81218347'
p357
aS'97019450'
p358
aS'4568018'
p359
ag264
ag161
ag59
ag101
ag39
aS'71839156'
p360
ag345
ag218
ag186
aS'92977271'
p361
aS'97417002'
p362
aS'56749879'
p363
aS'53775014'
p364
aS'20830477'
p365
ag174
aS'76393508'
p366
aS'14591033'
p367
asg71
S'25'
p368
sg72
S'Heuristieken 1'
p369
sg74
g201
sg76
g236
sg77
(iread_data
Room
p370
(dp371
g71
g131
sg72
g132
sbsbaa(lp372
(ischedule
Activity
p373
(dp374
g8
g9
sg71
I1000
sg72
g73
sg74
g75
sg76
I0
sg77
(iread_data
Room
p375
(dp376
g71
g155
sg72
g156
sbsba(ischedule
Activity
p377
(dp378
g8
(lp379
S'76661016'
p380
ag338
ag10
aS'75599734'
p381
ag340
aS'12077419'
p382
aS'48308205'
p383
aS'34872117'
p384
aS'83266686'
p385
ag35
ag290
aS'24613625'
p386
ag319
aS'88855695'
p387
aS'30658799'
p388
ag149
aS'94687383'
p389
aS'54772132'
p390
aS'88636924'
p391
ag190
aS'9067939'
p392
ag49
aS'10792879'
p393
aS'65852230'
p394
aS'3407554'
p395
aS'34110913'
p396
aS'13284244'
p397
ag29
aS'14309255'
p398
aS'11741347'
p399
ag172
aS'31194811'
p400
ag324
aS'15911353'
p401
aS'81385263'
p402
aS'75664412'
p403
ag43
ag53
ag44
aS'2317551'
p404
ag309
aS'76802764'
p405
aS'46989508'
p406
aS'13911001'
p407
aS'66701209'
p408
aS'44391517'
p409
aS'75759231'
p410
ag271
ag280
ag248
ag293
ag212
aS'79033175'
p411
aS'80135353'
p412
aS'95631564'
p413
aS'88752563'
p414
aS'95007221'
p415
aS'6723948'
p416
aS'86988337'
p417
ag144
ag295
aS'8464817'
p418
aS'79167252'
p419
aS'98105190'
p420
aS'5368702'
p421
aS'43689934'
p422
ag296
ag93
aS'5595824'
p423
asg71
I1000
sg72
S'Compilerbouw'
p424
sg74
g75
sg76
I0
sg77
(iread_data
Room
p425
(dp426
g71
g117
sg72
g118
sbsba(ischedule
Activity
p427
(dp428
g8
(lp429
g242
ag165
ag189
ag245
ag247
ag30
ag250
ag252
ag99
ag257
ag60
ag260
ag261
ag263
ag265
ag267
ag269
ag271
ag264
ag255
ag270
ag243
ag14
ag244
asg71
S'20'
p430
sg72
g272
sg74
g201
sg76
g236
sg77
(iread_data
Room
p431
(dp432
g71
g131
sg72
g132
sbsba(ischedule
Activity
p433
(dp434
g8
(lp435
g113
ag341
ag342
ag42
ag349
asg71
S'10'
p436
sg72
g351
sg74
g127
sg76
g152
sg77
(iread_data
Room
p437
(dp438
g71
g180
sg72
g181
sbsba(ischedule
Activity
p439
(dp440
g8
(lp441
g174
aS'80188025'
p442
aS'56872729'
p443
aS'73823548'
p444
ag173
ag385
ag419
ag393
aS'65408517'
p445
ag107
ag111
ag41
aS'75446434'
p446
aS'58469172'
p447
ag31
ag192
ag170
aS'44868097'
p448
aS'23658570'
p449
ag18
aS'93361408'
p450
aS'10149535'
p451
aS'65978354'
p452
aS'28957789'
p453
ag387
aS'58699305'
p454
aS'74182182'
p455
aS'75585647'
p456
aS'61520025'
p457
aS'12091019'
p458
aS'55530367'
p459
aS'22168693'
p460
aS'75623387'
p461
aS'79617364'
p462
aS'82412626'
p463
aS'31306819'
p464
aS'6709529'
p465
aS'47932106'
p466
aS'58592894'
p467
aS'10609762'
p468
aS'77306636'
p469
ag380
aS'14816774'
p470
aS'64600457'
p471
aS'4546613'
p472
aS'53139134'
p473
aS'55412918'
p474
aS'72526473'
p475
ag259
aS'14179347'
p476
ag14
ag110
ag367
ag59
ag166
aS'6939933'
p477
aS'85335143'
p478
aS'79888156'
p479
aS'21029457'
p480
aS'38179241'
p481
ag67
aS'3678531'
p482
aS'19717077'
p483
aS'78735049'
p484
aS'37279234'
p485
aS'83415514'
p486
aS'26260141'
p487
aS'34173695'
p488
aS'94686490'
p489
ag161
ag85
aS'24875739'
p490
aS'45915482'
p491
aS'56348773'
p492
aS'9731271'
p493
ag294
ag291
aS'33672995'
p494
aS'70939718'
p495
aS'62363761'
p496
aS'11593163'
p497
aS'46570285'
p498
ag258
ag416
aS'87900893'
p499
ag91
aS'23628642'
p500
ag414
aS'56544130'
p501
aS'62105897'
p502
aS'32705005'
p503
aS'86180471'
p504
ag348
ag296
aS'48357272'
p505
aS'96054456'
p506
aS'59220392'
p507
aS'78544592'
p508
aS'81155296'
p509
aS'53585410'
p510
aS'73302736'
p511
aS'23565001'
p512
aS'58253841'
p513
aS'6913074'
p514
aS'40141996'
p515
ag34
asg71
I1000
sg72
S'Calculus 2'
p516
sg74
g75
sg76
I0
sg77
(iread_data
Room
p517
(dp518
g71
g80
sg72
g81
sbsbaa(lp519
(ischedule
Activity
p520
(dp521
g8
g379
sg71
I1000
sg72
g424
sg74
g75
sg76
I0
sg77
g273
sba(ischedule
Activity
p522
(dp523
g8
(lp524
g161
ag30
ag46
ag165
ag167
ag87
ag176
ag160
ag166
asg71
S'10'
p525
sg72
g177
sg74
g127
sg76
g152
sg77
(iread_data
Room
p526
(dp527
g71
g226
sg72
g227
sbsba(ischedule
Activity
p528
(dp529
g8
(lp530
g219
ag221
ag215
ag218
ag217
ag216
asg71
S'15'
p531
sg72
g223
sg74
g127
sg76
g236
sg77
(iread_data
Room
p532
(dp533
g71
g117
sg72
g118
sbsba(ischedule
Activity
p534
(dp535
g8
(lp536
g361
ag137
ag39
aS'11459236'
p537
aS'32204977'
p538
ag456
ag61
asg71
g222
sg72
g223
sg74
g201
sg76
g236
sg77
(iread_data
Room
p539
(dp540
g71
g180
sg72
g181
sbsba(ischedule
Activity
p541
(dp542
g8
(lp543
g443
ag385
ag445
ag41
ag31
ag448
ag450
ag453
ag455
ag458
ag461
ag464
ag380
ag475
ag478
ag481
ag483
ag486
ag489
ag490
ag493
ag494
ag497
ag416
ag500
ag502
ag348
ag506
ag509
ag512
ag515
ag465
ag442
ag451
asg71
S'40'
p544
sg72
g516
sg74
g201
sg76
g128
sg77
(iread_data
Room
p545
(dp546
g71
g80
sg72
g81
sbsba(ischedule
Activity
p547
(dp548
g8
(lp549
S'36903574'
p550
aS'59075181'
p551
aS'87210640'
p552
ag50
ag470
aS'83443653'
p553
ag232
ag305
ag420
aS'79879876'
p554
ag15
aS'61060652'
p555
aS'45660925'
p556
ag32
ag342
ag137
ag89
ag123
ag145
aS'14138904'
p557
aS'14941752'
p558
aS'20331158'
p559
ag141
ag505
asg71
g368
sg72
g369
sg74
g201
sg76
g152
sg77
(iread_data
Room
p560
(dp561
g71
g131
sg72
g132
sbsba(ischedule
Activity
p562
(dp563
g8
(lp564
S'51593625'
p565
ag417
aS'64053722'
p566
aS'38499176'
p567
aS'39905995'
p568
aS'91196968'
p569
ag38
aS'37399898'
p570
ag29
ag294
aS'10702778'
p571
ag485
ag90
ag122
aS'60661905'
p572
ag482
ag11
asg71
S'20'
p573
sg72
S'Programmeren in Java 2'
p574
sg74
g127
sg76
g128
sg77
(iread_data
Room
p575
(dp576
g71
g155
sg72
g156
sbsbaa(lp577
(ischedule
Activity
p578
(dp579
g8
(lp580
S'5526560'
p581
ag266
ag515
aS'75005528'
p582
ag417
ag504
ag215
ag97
ag470
ag363
ag195
ag467
ag344
aS'77960666'
p583
ag160
ag26
ag66
ag506
aS'64947290'
p584
aS'59397895'
p585
ag17
ag295
aS'25077484'
p586
aS'13132925'
p587
aS'4529208'
p588
aS'37701751'
p589
aS'49631542'
p590
ag466
ag29
ag16
ag414
aS'51542218'
p591
ag63
asg71
S'40'
p592
sg72
S'Databases 2'
p593
sg74
g201
sg76
g152
sg77
g375
sba(ischedule
Activity
p594
(dp595
g8
(lp596
S'91250534'
p597
aS'64418623'
p598
aS'55103073'
p599
ag360
ag68
ag359
aS'5085194'
p600
aS'51673172'
p601
aS'11068043'
p602
aS'74361881'
p603
ag20
aS'99272880'
p604
aS'1695839'
p605
aS'5892092'
p606
ag537
asg71
S'15'
p607
sg72
S'Compilerbouw practicum'
p608
sg74
g127
sg76
g152
sg77
(iread_data
Room
p609
(dp610
g71
g180
sg72
g181
sbsba(ischedule
Activity
p611
(dp612
g8
(lp613
g108
ag171
aS'88596522'
p614
ag106
aS'64554442'
p615
aS'41585485'
p616
ag467
ag294
aS'67817269'
p617
ag487
ag584
ag217
aS'96453361'
p618
aS'40343779'
p619
ag47
aS'91527663'
p620
aS'14671406'
p621
aS'3707829'
p622
ag550
asg71
S'25'
p623
sg72
S'Algoritmen en complexiteit'
p624
sg74
g201
sg76
g152
sg77
(iread_data
Room
p625
(dp626
g71
g226
sg72
g227
sbsba(ischedule
Activity
p627
(dp628
g8
(lp629
S'59111489'
p630
ag407
ag50
ag498
aS'84449005'
p631
ag27
ag486
ag399
ag39
aS'49219163'
p632
ag198
ag185
aS'27241113'
p633
aS'47462856'
p634
ag186
ag281
aS'77376714'
p635
ag187
aS'51650744'
p636
ag104
ag188
ag508
ag590
ag26
aS'13218321'
p637
ag66
ag189
ag161
ag478
ag190
aS'41489515'
p638
aS'99283252'
p639
aS'3883025'
p640
ag467
ag385
ag191
ag212
aS'1181560'
p641
ag192
ag220
ag454
ag193
ag471
aS'36527838'
p642
ag194
ag143
ag388
ag195
ag398
ag279
ag196
ag42
aS'29526540'
p643
ag197
asg71
I1000
sg72
g200
sg74
g75
sg76
I0
sg77
g273
sba(ischedule
Activity
p644
(dp645
g8
g241
sg71
I1000
sg72
g272
sg74
g75
sg76
I0
sg77
(iread_data
Room
p646
(dp647
g71
g131
sg72
g132
sbsba(ischedule
Activity
p648
(dp649
g8
(lp650
g305
ag343
ag345
ag347
ag350
ag339
ag348
ag338
ag137
asg71
g436
sg72
g351
sg74
g127
sg76
g128
sg77
(iread_data
Room
p651
(dp652
g71
g117
sg72
g118
sbsbaaa(lp653
(lp654
(ischedule
Activity
p655
(dp656
g8
(lp657
g472
ag12
ag25
ag619
aS'42115591'
p658
ag487
ag555
ag359
ag639
ag602
ag36
ag33
ag146
aS'80709893'
p659
aS'96554914'
p660
ag621
ag192
ag54
ag445
aS'52311353'
p661
ag123
ag505
aS'89338938'
p662
aS'70015932'
p663
ag398
aS'31633723'
p664
aS'55474917'
p665
aS'83210352'
p666
ag286
aS'1048485'
p667
ag511
ag59
ag344
aS'41527759'
p668
ag189
ag502
aS'52715680'
p669
ag381
ag43
aS'41153310'
p670
ag339
asg71
S'40'
p671
sg72
S'Software engineering'
p672
sg74
g127
sg76
g236
sg77
g273
sba(ischedule
Activity
p673
(dp674
g8
(lp675
g417
ag68
ag382
ag248
aS'8522855'
p676
ag669
aS'19540225'
p677
ag668
ag635
ag16
aS'51509565'
p678
ag257
aS'23652927'
p679
ag45
ag67
ag348
aS'66433883'
p680
aS'44828429'
p681
ag113
aS'21095566'
p682
ag510
ag402
ag145
ag244
asg71
g623
sg72
g624
sg74
g201
sg76
g236
sg77
(iread_data
Room
p683
(dp684
g71
g155
sg72
g156
sbsba(ischedule
Activity
p685
(dp686
g8
(lp687
g630
ag632
ag281
ag636
ag508
ag637
ag161
ag638
ag467
ag212
ag220
ag471
ag143
ag398
ag42
ag186
asg71
S'20'
p688
sg72
g200
sg74
g127
sg76
g236
sg77
g609
sba(ischedule
Activity
p689
(dp690
g8
(lp691
g63
aS'30050930'
p692
aS'5298748'
p693
ag478
ag514
ag100
ag162
ag98
aS'59544049'
p694
ag196
ag602
aS'30195935'
p695
ag136
ag470
ag643
aS'28359697'
p696
aS'89985072'
p697
ag267
aS'88176729'
p698
ag214
ag279
ag448
aS'22826928'
p699
ag471
ag343
ag480
ag618
ag324
aS'77831658'
p700
ag271
ag22
ag386
ag506
aS'56815156'
p701
ag234
ag359
aS'33930505'
p702
ag416
ag44
aS'247918'
p703
ag47
ag367
ag462
ag363
ag168
asg71
I1000
sg72
S'Bioinformatica'
p704
sg74
g75
sg76
I0
sg77
(iread_data
Room
p705
(dp706
g71
g80
sg72
g81
sbsba(ischedule
Activity
p707
(dp708
g8
(lp709
g414
ag92
aS'21070547'
p710
ag700
ag17
aS'12430748'
p711
aS'32044893'
p712
ag477
ag662
ag444
ag190
aS'81116418'
p713
aS'19662602'
p714
ag397
asg71
g329
sg72
g330
sg74
g127
sg76
g128
sg77
(iread_data
Room
p715
(dp716
g71
g131
sg72
g132
sbsbaa(lp717
(ischedule
Activity
p718
(dp719
g8
(lp720
g86
ag88
ag89
ag94
ag96
ag98
ag100
ag102
ag104
ag106
ag108
ag110
ag112
ag113
ag99
ag19
asg71
S'20'
p721
sg72
g114
sg74
g201
sg76
g152
sg77
g609
sba(ischedule
Activity
p722
(dp723
g8
(lp724
S'31103066'
p725
ag336
ag342
aS'65318664'
p726
ag106
ag267
ag309
ag147
ag324
aS'58074656'
p727
ag694
aS'58565406'
p728
aS'14072826'
p729
aS'37830626'
p730
ag448
aS'27582862'
p731
ag269
ag698
ag289
ag340
ag413
ag343
aS'9287708'
p732
ag104
ag68
ag635
ag491
aS'3727435'
p733
aS'13718298'
p734
aS'44671041'
p735
ag565
ag697
aS'84110134'
p736
ag682
asg71
g671
sg72
g672
sg74
g127
sg76
g152
sg77
g425
sba(ischedule
Activity
p737
(dp738
g8
(lp739
g109
aS'76924297'
p740
ag676
ag294
ag504
ag111
aS'75680261'
p741
ag37
ag12
ag309
aS'88737765'
p742
aS'14398123'
p743
asg71
S'15'
p744
sg72
S'Project Genetic Algorithms'
p745
sg74
g127
sg76
g152
sg77
(iread_data
Room
p746
(dp747
g71
g226
sg72
g227
sbsba(ischedule
Activity
p748
(dp749
g8
(lp750
g173
ag393
ag111
ag447
ag170
ag18
ag452
ag454
ag457
ag460
ag466
ag471
ag476
ag367
ag477
ag480
ag482
ag485
ag488
ag85
ag492
ag291
ag496
ag91
ag501
ag504
ag505
ag508
ag511
ag514
ag59
ag459
asg71
g544
sg72
g516
sg74
g201
sg76
g152
sg77
(iread_data
Room
p751
(dp752
g71
g155
sg72
g156
sbsba(ischedule
Activity
p753
(dp754
g8
(lp755
g50
ag27
ag39
ag185
ag187
ag26
ag189
ag190
ag640
ag191
ag192
ag193
ag194
ag195
ag196
ag197
ag633
ag188
asg71
g688
sg72
g200
sg74
g127
sg76
g128
sg77
(iread_data
Room
p756
(dp757
g71
g131
sg72
g132
sbsba(ischedule
Activity
p758
(dp759
g8
(lp760
g209
ag456
ag538
ag210
ag61
ag212
ag213
ag214
ag197
ag361
ag211
ag39
ag137
ag537
ag220
asg71
g531
sg72
g223
sg74
g127
sg76
g152
sg77
(iread_data
Room
p761
(dp762
g71
g80
sg72
g81
sbsbaa(lp763
(ischedule
Activity
p764
(dp765
g8
(lp766
g338
ag381
ag382
ag35
ag386
ag387
ag149
ag390
ag190
ag49
ag394
ag29
ag399
ag400
ag401
ag403
ag53
ag404
ag405
ag407
ag409
ag271
ag248
ag212
ag412
ag414
ag144
ag418
ag420
ag93
ag44
ag293
asg71
S'40'
p767
sg72
g424
sg74
g127
sg76
g152
sg77
g273
sba(ischedule
Activity
p768
(dp769
g8
(lp770
g447
aS'88597745'
p771
ag215
ag616
ag97
aS'47982619'
p772
aS'88519892'
p773
ag320
ag583
aS'51791169'
p774
ag449
ag286
ag412
ag550
ag502
ag170
aS'85284256'
p775
ag62
ag251
asg71
g573
sg72
g574
sg74
g127
sg76
g236
sg77
(iread_data
Room
p776
(dp777
g71
g131
sg72
g132
sbsba(ischedule
Activity
p778
(dp779
g8
(lp780
g514
ag67
aS'34900967'
p781
ag174
ag60
ag69
ag217
aS'12782624'
p782
aS'34262212'
p783
ag510
ag680
aS'23391676'
p784
ag197
ag103
ag295
ag143
ag110
ag61
aS'45414528'
p785
ag419
aS'7492204'
p786
ag361
asg71
g573
sg72
g574
sg74
g127
sg76
g152
sg77
g625
sba(ischedule
Activity
p787
(dp788
g8
(lp789
g630
ag498
ag486
ag632
ag633
ag281
ag636
ag508
ag637
ag161
ag638
ag467
ag212
ag220
ag471
ag143
ag398
ag42
ag388
asg71
g199
sg72
g200
sg74
g201
sg76
g236
sg77
g609
sba(ischedule
Activity
p790
(dp791
g8
g691
sg71
I1000
sg72
g704
sg74
g75
sg76
I0
sg77
(iread_data
Room
p792
(dp793
g71
g117
sg72
g118
sbsba(ischedule
Activity
p794
(dp795
g8
(lp796
g51
aS'79937969'
p797
ag462
aS'26172512'
p798
ag29
aS'16011419'
p799
ag455
ag512
ag666
ag246
ag367
aS'4921119'
p800
ag42
aS'80998260'
p801
ag149
ag257
ag569
ag360
aS'41578612'
p802
ag57
aS'94955328'
p803
aS'32595335'
p804
aS'21311067'
p805
ag11
ag570
ag383
ag474
aS'54074680'
p806
ag451
ag336
aS'90743504'
p807
ag661
ag658
ag91
ag555
ag582
ag659
ag642
ag489
aS'58866007'
p808
aS'96118484'
p809
aS'93566383'
p810
ag346
aS'34588570'
p811
ag63
ag347
ag443
ag97
aS'66570705'
p812
ag49
ag665
ag567
ag357
ag402
asg71
I1000
sg72
S'Lineaire Algebra'
p813
sg74
g75
sg76
I0
sg77
(iread_data
Room
p814
(dp815
g71
g155
sg72
g156
sbsba(ischedule
Activity
p816
(dp817
g8
(lp818
g559
ag280
ag663
ag284
ag167
aS'13798030'
p819
aS'59289233'
p820
ag13
ag16
ag268
ag557
ag216
ag164
ag808
ag385
ag451
ag85
ag189
ag384
ag269
ag30
asg71
I1000
sg72
S'Architectuur en computerorganisatie'
p821
sg74
g75
sg76
I0
sg77
(iread_data
Room
p822
(dp823
g71
g80
sg72
g81
sbsbaa(lp824
(ischedule
Activity
p825
(dp826
g8
(lp827
S'82390428'
p828
ag17
ag583
aS'36785409'
p829
ag303
ag287
ag699
ag304
ag669
ag255
ag218
ag693
ag342
ag191
aS'92778619'
p830
ag514
ag305
ag112
ag572
ag306
aS'36213792'
p831
aS'68286356'
p832
ag307
ag288
ag734
ag143
ag570
ag631
ag175
aS'20095994'
p833
ag93
ag660
ag417
ag291
ag308
aS'20239127'
p834
aS'51415617'
p835
ag309
ag160
aS'90474003'
p836
ag310
aS'27805666'
p837
ag99
ag311
ag196
ag802
ag171
ag26
ag327
ag148
ag712
asg71
I1000
sg72
g313
sg74
g75
sg76
I0
sg77
(iread_data
Room
p838
(dp839
g71
g117
sg72
g118
sbsba(ischedule
Activity
p840
(dp841
g8
(lp842
g567
aS'14383795'
p843
ag395
ag538
ag669
aS'42297781'
p844
aS'44151631'
p845
ag45
ag697
asg71
g607
sg72
g608
sg74
g127
sg76
g128
sg77
g609
sba(ischedule
Activity
p846
(dp847
g8
g796
sg71
I1000
sg72
g813
sg74
g75
sg76
I0
sg77
(iread_data
Room
p848
(dp849
g71
g80
sg72
g81
sbsba(ischedule
Activity
p850
(dp851
g8
g335
sg71
I1000
sg72
g351
sg74
g75
sg76
I0
sg77
(iread_data
Room
p852
(dp853
g71
g155
sg72
g156
sbsba(ischedule
Activity
p854
(dp855
g8
(lp856
g242
ag165
ag247
ag30
ag252
ag173
ag257
ag60
ag261
ag263
ag265
ag267
ag271
ag258
ag56
ag264
asg71
S'20'
p857
sg72
g272
sg74
g127
sg76
g236
sg77
g625
sba(ischedule
Activity
p858
(dp859
g8
(lp860
g693
ag100
ag695
ag267
ag471
ag618
ag506
ag44
ag367
ag324
asg71
S'20'
p861
sg72
g704
sg74
g127
sg76
g128
sg77
(iread_data
Room
p862
(dp863
g71
g131
sg72
g132
sbsba(ischedule
Activity
p864
(dp865
g8
(lp866
g12
ag16
ag20
ag24
ag28
ag32
ag36
ag40
ag44
ag48
ag52
ag60
ag68
ag63
asg71
S'20'
p867
sg72
g73
sg74
g127
sg76
g128
sg77
(iread_data
Room
p868
(dp869
g71
g204
sg72
g205
sbsbaa(lp870
(ischedule
Activity
p871
(dp872
g8
(lp873
g472
ag12
ag25
ag619
ag658
ag487
ag555
ag359
ag639
ag602
ag682
ag36
ag146
ag659
ag660
ag621
ag192
ag445
ag661
ag123
ag505
ag662
ag663
ag398
ag664
ag665
ag286
ag667
ag511
ag59
ag344
ag668
ag189
ag502
ag669
ag413
ag68
ag267
asg71
S'40'
p874
sg72
g672
sg74
g201
sg76
g236
sg77
g425
sba(ischedule
Activity
p875
(dp876
g8
(lp877
g361
ag209
ag137
ag456
ag219
ag538
ag39
ag210
ag221
ag211
ag220
ag61
ag537
ag212
ag215
ag213
ag218
ag214
ag217
ag197
ag216
asg71
I1000
sg72
g223
sg74
g75
sg76
I0
sg77
g273
sba(ischedule
Activity
p878
(dp879
g8
(lp880
g404
ag390
ag735
ag35
ag731
aS'23215240'
p881
ag107
ag416
aS'63096281'
p882
ag245
aS'7386961'
p883
ag554
ag803
ag665
ag409
ag389
ag418
ag319
ag283
asg71
g573
sg72
g574
sg74
g127
sg76
S'5'
p884
sg77
(iread_data
Room
p885
(dp886
g71
g80
sg72
g81
sbsba(ischedule
Activity
p887
(dp888
g8
(lp889
g10
ag18
ag22
ag26
ag30
ag34
ag38
ag42
ag46
ag50
ag54
ag62
ag66
ag70
ag64
ag29
asg71
g867
sg72
g73
sg74
g127
sg76
g236
sg77
(iread_data
Room
p890
(dp891
g71
g226
sg72
g227
sbsba(ischedule
Activity
p892
(dp893
g8
(lp894
g253
ag476
ag195
ag603
ag408
ag802
ag53
aS'25994016'
p895
ag85
aS'41644639'
p896
aS'82066165'
p897
ag581
ag631
asg71
g744
sg72
g745
sg74
g127
sg76
g236
sg77
g609
sba(ischedule
Activity
p898
(dp899
g8
(lp900
g92
aS'25330192'
p901
aS'17823206'
p902
ag499
ag100
ag311
ag289
aS'19337738'
p903
ag305
asg71
g125
sg72
g126
sg74
g127
sg76
g152
sg77
(iread_data
Room
p904
(dp905
g71
g131
sg72
g132
sbsba(ischedule
Activity
p906
(dp907
g8
(lp908
g583
ag287
ag669
ag693
ag830
ag288
ag570
ag417
ag834
ag837
ag196
ag26
asg71
g312
sg72
g313
sg74
g201
sg76
g128
sg77
(iread_data
Room
p909
(dp910
g71
g155
sg72
g156
sbsbaaa(lp911
(lp912
(ischedule
Activity
p913
(dp914
g8
(lp915
g39
ag221
ag478
ag802
ag400
ag123
ag196
aS'92496780'
p916
ag70
ag398
ag305
aS'93041523'
p917
aS'76487754'
p918
aS'4697362'
p919
ag46
ag772
ag829
ag383
ag662
ag62
ag711
ag538
ag186
ag728
ag451
ag137
aS'21192048'
p920
ag86
ag403
ag382
ag242
ag212
ag268
aS'97371272'
p921
ag843
aS'77264363'
p922
aS'69086548'
p923
aS'70336464'
p924
asg71
I1000
sg72
S'Technology for games'
p925
sg74
g75
sg76
I0
sg77
(iread_data
Room
p926
(dp927
g71
g131
sg72
g132
sbsba(ischedule
Activity
p928
(dp929
g8
(lp930
g68
aS'87314964'
p931
aS'98780382'
p932
ag306
ag232
ag661
ag214
ag233
ag234
ag785
ag569
ag219
aS'93023961'
p933
asg71
g125
sg72
g126
sg74
g127
sg76
g236
sg77
(iread_data
Room
p934
(dp935
g71
g155
sg72
g156
sbsba(ischedule
Activity
p936
(dp937
g8
(lp938
S'62736669'
p939
ag403
ag166
ag124
ag402
ag175
aS'53267490'
p940
ag160
ag35
ag702
aS'64246605'
p941
ag743
ag550
ag496
ag695
ag619
aS'56121590'
p942
ag495
asg71
g150
sg72
g151
sg74
g127
sg76
g128
sg77
(iread_data
Room
p943
(dp944
g71
g226
sg72
g227
sbsba(ischedule
Activity
p945
(dp946
g8
(lp947
g602
ag248
ag455
ag288
ag736
ag383
ag582
ag339
aS'37419523'
p948
aS'34691309'
p949
ag35
ag558
ag144
ag49
ag22
asg71
g329
sg72
g330
sg74
g127
sg76
g236
sg77
(iread_data
Room
p950
(dp951
g71
g180
sg72
g181
sbsba(ischedule
Activity
p952
(dp953
g8
g827
sg71
I1000
sg72
g313
sg74
g75
sg76
I0
sg77
(iread_data
Room
p954
(dp955
g71
g80
sg72
g81
sbsba(ischedule
Activity
p956
(dp957
g8
(lp958
S'26207525'
p959
ag640
aS'5590289'
p960
aS'56191333'
p961
ag676
ag390
ag775
ag109
ag321
ag164
ag289
aS'21677389'
p962
aS'72586808'
p963
ag211
ag16
ag567
aS'16912993'
p964
asg71
g150
sg72
g151
sg74
g127
sg76
g236
sg77
(iread_data
Room
p965
(dp966
g71
g117
sg72
g118
sbsbaa(lp967
(ischedule
Activity
p968
(dp969
g8
(lp970
g12
ag16
ag20
ag24
ag28
ag32
ag36
ag40
ag44
ag48
ag52
ag56
ag60
ag64
ag68
ag62
asg71
S'20'
p971
sg72
g73
sg74
g201
sg76
g128
sg77
g425
sba(ischedule
Activity
p972
(dp973
g8
g818
sg71
I1000
sg72
g821
sg74
g75
sg76
I0
sg77
(iread_data
Room
p974
(dp975
g71
g131
sg72
g132
sbsba(ischedule
Activity
p976
(dp977
g8
(lp978
g63
ag478
ag162
ag196
ag136
ag696
ag698
ag448
ag343
ag22
ag701
ag702
ag703
ag462
ag168
ag692
ag279
asg71
g861
sg72
g704
sg74
g127
sg76
g236
sg77
(iread_data
Room
p979
(dp980
g71
g226
sg72
g227
sbsba(ischedule
Activity
p981
(dp982
g8
(lp983
g68
ag92
ag219
ag931
ag901
ag113
ag932
ag902
ag785
ag306
ag499
ag933
ag232
ag100
ag122
ag661
ag311
ag47
ag214
ag289
ag305
ag233
ag903
ag123
ag234
ag569
ag124
asg71
I1000
sg72
g126
sg74
g75
sg76
I0
sg77
g78
sba(ischedule
Activity
p984
(dp985
g8
(lp986
g699
aS'73196865'
p987
ag604
ag810
ag191
ag486
ag36
ag47
ag506
ag358
ag493
ag296
ag471
ag185
aS'88263855'
p988
ag18
asg71
g573
sg72
g574
sg74
g127
sg76
S'4'
p989
sg77
g609
sba(ischedule
Activity
p990
(dp991
g8
(lp992
g109
ag148
aS'97838175'
p993
ag700
ag505
ag803
ag161
ag149
ag802
aS'18477924'
p994
ag284
ag829
ag91
ag138
ag342
ag501
ag742
ag176
ag211
aS'14637758'
p995
ag591
ag358
ag442
ag963
ag734
ag701
ag55
ag310
ag800
ag600
aS'78822885'
p996
ag195
ag511
aS'73350019'
p997
ag726
ag99
ag494
ag553
ag572
ag512
ag449
ag658
aS'58480929'
p998
ag781
ag423
ag478
ag19
ag661
aS'82854435'
p999
asg71
I1000
sg72
S'Analysemethoden en -technieken'
p1000
sg74
g75
sg76
I0
sg77
(iread_data
Room
p1001
(dp1002
g71
g204
sg72
g205
sbsbaa(lp1003
(ischedule
Activity
p1004
(dp1005
g8
(lp1006
g802
ag123
ag916
ag398
ag917
ag919
ag772
ag383
ag728
ag137
ag86
ag382
ag921
ag924
ag305
ag922
ag918
asg71
S'20'
p1007
sg72
g925
sg74
g201
sg76
g152
sg77
g609
sba(ischedule
Activity
p1008
(dp1009
g8
(lp1010
g357
ag550
ag358
ag551
ag359
ag552
ag264
ag50
ag161
ag470
ag59
ag553
ag101
ag232
ag141
ag305
ag39
ag420
ag360
ag554
ag505
ag15
ag558
ag555
ag559
ag174
ag345
ag556
ag218
ag32
ag186
ag342
ag367
ag137
ag361
ag366
ag362
ag89
ag363
ag123
ag364
ag145
ag365
ag557
asg71
I1000
sg72
g369
sg74
g75
sg76
I0
sg77
g78
sba(ischedule
Activity
p1011
(dp1012
g8
g691
sg71
I1000
sg72
g704
sg74
g75
sg76
I0
sg77
g425
sba(ischedule
Activity
p1013
(dp1014
g8
(lp1015
g163
ag336
ag148
ag639
ag586
ag601
ag386
ag286
aS'55480737'
p1016
ag380
ag513
asg71
g744
sg72
g745
sg74
g127
sg76
g128
sg77
g375
sba(ischedule
Activity
p1017
(dp1018
g8
g277
sg71
I1000
sg72
g297
sg74
g75
sg76
I0
sg77
(iread_data
Room
p1019
(dp1020
g71
g226
sg72
g227
sbsbaa(lp1021
(ischedule
Activity
p1022
(dp1023
g8
(lp1024
g338
ag381
ag382
ag384
ag386
ag387
ag149
ag390
ag190
ag49
ag394
ag396
ag29
ag399
ag400
ag401
ag403
ag53
ag404
ag405
ag407
ag409
ag271
ag248
ag212
ag412
ag414
ag416
ag144
ag418
ag420
ag422
ag93
ag44
asg71
S'40'
p1025
sg72
g424
sg74
g201
sg76
g152
sg77
g375
sba(ischedule
Activity
p1026
(dp1027
g8
(lp1028
g381
ag725
ag336
ag342
ag726
ag106
ag309
ag147
ag324
ag727
ag694
ag728
ag729
ag730
ag448
ag731
ag269
ag698
ag289
ag340
ag343
ag732
ag43
ag104
ag339
ag635
ag491
ag670
ag733
ag734
ag735
ag565
ag697
ag736
ag33
ag54
ag666
asg71
g874
sg72
g672
sg74
g201
sg76
g152
sg77
(iread_data
Room
p1029
(dp1030
g71
g204
sg72
g205
sbsba(ischedule
Activity
p1031
(dp1032
g8
(lp1033
g246
ag248
ag249
ag251
ag253
ag104
ag256
ag258
ag259
ag56
ag262
ag266
ag268
ag173
ag254
asg71
g430
sg72
g272
sg74
g201
sg76
g152
sg77
g431
sba(ischedule
Activity
p1034
(dp1035
g8
(lp1036
g417
ag108
ag47
ag171
ag620
ag614
ag68
ag106
ag622
ag615
ag382
ag681
ag248
ag616
ag676
ag510
ag550
ag467
ag113
ag294
ag669
ag617
ag677
ag487
ag668
ag584
ag635
ag680
ag16
ag145
ag678
ag682
ag257
ag217
ag679
ag618
ag621
ag244
ag45
ag619
ag67
ag402
ag348
asg71
I1000
sg72
g624
sg74
g75
sg76
I0
sg77
g425
sba(ischedule
Activity
p1037
(dp1038
g8
(lp1039
g113
ag785
ag933
ag122
ag47
ag305
ag123
ag931
ag306
asg71
g235
sg72
g126
sg74
g201
sg76
g128
sg77
g78
sba(ischedule
Activity
p1040
(dp1041
g8
(lp1042
g10
ag14
ag18
ag22
ag26
ag30
ag34
ag38
ag42
ag46
ag50
ag54
ag58
ag66
ag70
ag55
asg71
g971
sg72
g73
sg74
g201
sg76
g236
sg77
(iread_data
Room
p1043
(dp1044
g71
g226
sg72
g227
sbsba(ischedule
Activity
p1045
(dp1046
g8
(lp1047
g162
ag163
ag164
ag168
ag170
ag171
ag173
ag175
ag174
ag169
ag172
asg71
g525
sg72
g177
sg74
g127
sg76
g236
sg77
(iread_data
Room
p1048
(dp1049
g71
g180
sg72
g181
sbsbaa(lp1050
(ischedule
Activity
p1051
(dp1052
g8
(lp1053
g11
ag15
ag19
ag23
ag27
ag31
ag35
ag39
ag43
ag47
ag51
ag55
ag59
ag67
ag57
ag58
asg71
g867
sg72
g73
sg74
g127
sg76
g152
sg77
g609
sba(ischedule
Activity
p1054
(dp1055
g8
(lp1056
g402
ag962
ag589
ag108
aS'28055464'
p1057
ag325
ag100
ag261
ag622
ag472
ag46
ag740
aS'64768422'
p1058
aS'65675896'
p1059
aS'20374340'
p1060
ag380
aS'69634191'
p1061
ag320
ag681
ag509
ag810
ag421
ag165
ag481
ag570
asg71
I1000
sg72
S'Interactie-ontwerp'
p1062
sg74
g75
sg76
I0
sg77
g273
sba(ischedule
Activity
p1063
(dp1064
g8
(lp1065
g250
aS'73893840'
p1066
ag363
ag584
aS'90296821'
p1067
ag902
ag800
aS'54395877'
p1068
ag289
aS'28943658'
p1069
ag341
ag254
ag670
ag365
ag667
ag830
ag281
asg71
g573
sg72
g574
sg74
g127
sg76
S'6'
p1070
sg77
(iread_data
Room
p1071
(dp1072
g71
g155
sg72
g156
sbsba(ischedule
Activity
p1073
(dp1074
g8
(lp1075
g921
ag665
aS'10872825'
p1076
ag923
ag658
aS'79366078'
p1077
ag616
aS'51186803'
p1078
ag743
ag340
ag286
aS'65003379'
p1079
aS'63955238'
p1080
ag296
ag21
ag604
ag551
ag98
ag490
ag211
ag621
ag503
ag303
ag146
ag357
ag149
aS'91139627'
p1081
aS'44940353'
p1082
aS'63408522'
p1083
ag363
ag110
ag664
ag265
ag591
aS'37498675'
p1084
ag367
ag740
ag506
aS'72547110'
p1085
ag358
ag550
ag834
ag676
ag786
ag421
ag736
ag282
ag447
ag221
ag662
ag493
ag498
ag55
ag694
ag484
ag668
ag171
ag453
aS'79858178'
p1086
ag634
ag197
ag559
ag784
aS'47605891'
p1087
ag24
ag93
ag44
ag567
ag287
aS'39919665'
p1088
ag455
ag168
ag569
ag902
aS'38329455'
p1089
ag803
ag284
ag288
ag783
ag258
aS'39659121'
p1090
ag393
ag590
aS'82688900'
p1091
asg71
I1000
sg72
S'Kansrekenen 2'
p1092
sg74
g75
sg76
I0
sg77
(iread_data
Room
p1093
(dp1094
g71
g80
sg72
g81
sbsba(ischedule
Activity
p1095
(dp1096
g8
(lp1097
g14
ag243
ag244
ag246
ag248
ag249
ag251
ag253
ag255
ag104
ag256
ag259
ag262
ag266
ag268
ag270
ag269
ag99
ag245
ag254
ag250
ag260
ag189
asg71
g857
sg72
g272
sg74
g127
sg76
g152
sg77
(iread_data
Room
p1098
(dp1099
g71
g226
sg72
g227
sbsba(ischedule
Activity
p1100
(dp1101
g8
(lp1102
g55
ag185
ag96
ag113
ag836
ag942
ag444
ag268
aS'58083680'
p1103
ag443
ag449
ag197
ag19
ag338
ag138
ag489
ag703
ag458
ag620
ag186
ag384
ag56
ag244
aS'15187217'
p1104
ag36
ag961
ag70
ag643
ag170
ag939
ag800
ag42
ag959
ag406
ag600
ag145
ag162
aS'27123462'
p1105
aS'54540997'
p1106
asg71
g592
sg72
g593
sg74
g201
sg76
g236
sg77
(iread_data
Room
p1107
(dp1108
g71
g117
sg72
g118
sbsba(ischedule
Activity
p1109
(dp1110
g8
(lp1111
g692
ag514
ag602
ag470
ag697
ag214
ag699
ag480
ag700
ag386
ag234
ag416
ag47
ag478
ag462
ag696
ag618
ag506
ag98
asg71
S'20'
p1112
sg72
g704
sg74
g201
sg76
g152
sg77
(iread_data
Room
p1113
(dp1114
g71
g131
sg72
g132
sbsbaaa(lp1115
(lp1116
(ischedule
Activity
p1117
(dp1118
g8
(lp1119
g305
ag234
ag343
ag345
ag347
ag350
ag336
ag42
ag342
ag338
ag339
asg71
S'10'
p1120
sg72
g351
sg74
g201
sg76
g128
sg77
g375
sba(ischedule
Activity
p1121
(dp1122
g8
(lp1123
g41
ag667
ag255
ag493
ag22
aS'123355'
p1124
ag100
aS'12170832'
p1125
ag34
ag15
ag551
aS'535689'
p1126
ag901
ag92
asg71
g150
sg72
g151
sg74
g127
sg76
g989
sg77
g431
sba(ischedule
Activity
p1127
(dp1128
g8
(lp1129
g380
ag10
ag340
ag383
ag385
ag290
ag319
ag388
ag389
ag391
ag392
ag393
ag395
ag397
ag398
ag172
ag324
ag402
ag43
ag309
ag406
ag408
ag410
ag280
ag411
ag413
ag415
ag417
ag295
ag419
ag421
ag296
ag423
ag422
ag416
ag384
ag396
asg71
g767
sg72
g424
sg74
g127
sg76
g236
sg77
g273
sba(ischedule
Activity
p1130
(dp1131
g8
g1075
sg71
I1000
sg72
g1092
sg74
g75
sg76
I0
sg77
g78
sba(ischedule
Activity
p1132
(dp1133
g8
(lp1134
g407
ag631
ag399
ag634
ag635
ag104
ag590
ag66
ag478
ag639
ag385
ag641
ag454
ag642
ag279
ag643
ag640
asg71
g199
sg72
g200
sg74
g201
sg76
g152
sg77
(iread_data
Room
p1135
(dp1136
g71
g180
sg72
g181
sbsba(ischedule
Activity
p1137
(dp1138
g8
(lp1139
g113
asg71
g1120
sg72
g351
sg74
g201
sg76
g152
sg77
g625
sba(ischedule
Activity
p1140
(dp1141
g8
(lp1142
g13
ag17
ag21
ag25
ag33
ag37
ag41
ag45
ag49
ag53
ag61
ag65
ag69
ag56
ag14
asg71
g867
sg72
g73
sg74
g127
sg76
g989
sg77
(iread_data
Room
p1143
(dp1144
g71
g117
sg72
g118
sbsbaa(lp1145
(ischedule
Activity
p1146
(dp1147
g8
(lp1148
g55
ag581
ag185
ag266
ag96
ag515
ag113
ag582
ag63
ag417
ag836
ag504
ag942
ag215
ag444
ag97
ag268
ag470
ag1103
ag363
ag443
ag195
ag449
ag467
ag197
ag600
ag19
ag344
ag338
ag583
ag138
ag160
ag489
ag26
ag703
ag162
ag458
ag1105
ag620
ag66
ag186
ag1106
ag384
ag506
ag56
ag584
ag244
ag585
ag1104
ag17
ag36
ag295
ag961
ag586
ag70
ag587
ag643
ag145
ag170
ag588
ag939
ag589
ag800
ag590
ag591
ag466
ag42
ag29
ag959
ag16
ag406
ag414
asg71
I1000
sg72
g593
sg74
g75
sg76
I0
sg77
g78
sba(ischedule
Activity
p1149
(dp1150
g8
g1056
sg71
I1000
sg72
g1062
sg74
g75
sg76
I0
sg77
g431
sba(ischedule
Activity
p1151
(dp1152
g8
g877
sg71
I1000
sg72
g223
sg74
g75
sg76
I0
sg77
g625
sba(ischedule
Activity
p1153
(dp1154
g8
(lp1155
g693
ag100
ag694
ag643
ag267
ag279
ag471
ag271
ag44
ag367
ag324
ag702
ag359
ag448
asg71
g1112
sg72
g704
sg74
g201
sg76
g128
sg77
g273
sbaa(lp1156
(ischedule
Activity
p1157
(dp1158
g8
(lp1159
g337
ag340
ag91
ag344
ag295
ag348
ag137
ag349
ag346
ag341
asg71
g1120
sg72
g351
sg74
g201
sg76
g236
sg77
(iread_data
Room
p1160
(dp1161
g71
g180
sg72
g181
sbsba(ischedule
Activity
p1162
(dp1163
g8
g983
sg71
I1000
sg72
g126
sg74
g75
sg76
I0
sg77
g273
sba(ischedule
Activity
p1164
(dp1165
g8
(lp1166
g108
ag171
ag106
ag615
ag681
ag616
ag510
ag467
ag294
ag617
ag584
ag217
ag244
ag619
ag402
ag45
asg71
S'25'
p1167
sg72
g624
sg74
g127
sg76
g152
sg77
(iread_data
Room
p1168
(dp1169
g71
g131
sg72
g132
sbsba(ischedule
Activity
p1170
(dp1171
g8
(lp1172
g39
ag478
ag400
ag196
ag70
ag46
ag829
ag662
ag711
ag186
ag451
ag920
ag403
ag242
ag268
ag843
ag923
ag62
ag538
ag221
ag212
asg71
g1007
sg72
g925
sg74
g201
sg76
g236
sg77
g625
sba(ischedule
Activity
p1173
(dp1174
g8
(lp1175
g472
ag381
ag12
ag725
ag25
ag336
ag619
ag342
ag658
ag726
ag487
ag106
ag555
ag267
ag359
ag309
ag639
ag147
ag602
ag324
ag682
ag727
ag36
ag694
ag33
ag728
ag146
ag729
ag659
ag730
ag660
ag448
ag621
ag731
ag192
ag269
ag54
ag698
ag445
ag289
ag661
ag340
ag123
ag413
ag505
ag343
ag662
ag732
ag663
ag43
ag398
ag104
ag664
ag68
ag665
ag339
ag666
ag635
ag286
ag491
ag667
ag670
ag511
ag733
ag59
ag734
ag344
ag735
ag668
ag565
ag189
ag697
ag502
ag736
ag669
asg71
I1000
sg72
g672
sg74
g75
sg76
I0
sg77
(iread_data
Room
p1176
(dp1177
g71
g117
sg72
g118
sbsba(ischedule
Activity
p1178
(dp1179
g8
(lp1180
g407
ag631
ag399
ag198
ag634
ag635
ag104
ag590
ag66
ag478
ag639
ag385
ag641
ag454
ag642
ag388
ag279
ag643
ag498
ag486
asg71
g688
sg72
g200
sg74
g127
sg76
g152
sg77
g78
sba(ischedule
Activity
p1181
(dp1182
g8
(lp1183
g11
ag19
ag23
ag27
ag31
ag35
ag43
ag47
ag51
ag59
ag63
ag67
asg71
g971
sg72
g73
sg74
g201
sg76
g152
sg77
(iread_data
Room
p1184
(dp1185
g71
g155
sg72
g156
sbsbaa(lp1186
(ischedule
Activity
p1187
(dp1188
g8
(lp1189
g380
ag10
ag340
ag383
ag385
ag290
ag319
ag388
ag389
ag391
ag392
ag393
ag395
ag397
ag398
ag172
ag324
ag402
ag43
ag309
ag406
ag408
ag410
ag280
ag293
ag411
ag413
ag415
ag417
ag295
ag419
ag421
ag296
ag423
ag35
asg71
g1025
sg72
g424
sg74
g201
sg76
g236
sg77
g78
sba(ischedule
Activity
p1190
(dp1191
g8
(lp1192
g901
ag902
ag499
ag311
ag289
ag903
ag569
ag219
ag661
ag932
asg71
g235
sg72
g126
sg74
g201
sg76
g152
sg77
g273
sba(ischedule
Activity
p1193
(dp1194
g8
(lp1195
g259
ag897
ag614
ag895
ag881
ag557
ag1059
ag896
ag70
aS'51472074'
p1196
ag407
ag166
ag110
ag510
aS'47260040'
p1197
ag1126
asg71
g607
sg72
g608
sg74
g127
sg76
g236
sg77
g625
sba(ischedule
Activity
p1198
(dp1199
g8
(lp1200
g514
ag98
ag602
ag470
ag697
ag214
ag699
ag480
ag700
ag386
ag234
ag416
ag47
ag363
ag359
ag271
ag694
ag643
asg71
g861
sg72
g704
sg74
g127
sg76
g152
sg77
(iread_data
Room
p1201
(dp1202
g71
g131
sg72
g132
sbsba(ischedule
Activity
p1203
(dp1204
g8
(lp1205
g13
ag17
ag21
ag25
ag29
ag33
ag37
ag41
ag45
ag49
ag53
ag57
ag61
ag65
ag69
ag39
ag15
asg71
g971
sg72
g73
sg74
g201
sg76
g989
sg77
g375
sba(ischedule
Activity
p1206
(dp1207
g8
(lp1208
g85
ag87
ag31
ag90
ag92
ag95
ag97
ag101
ag103
ag105
ag107
ag109
ag111
ag60
ag91
ag93
asg71
g721
sg72
g114
sg74
g201
sg76
g236
sg77
(iread_data
Room
p1209
(dp1210
g71
g117
sg72
g118
sbsbaa(lp1211
(ischedule
Activity
p1212
(dp1213
g8
g915
sg71
I1000
sg72
g925
sg74
g75
sg76
I0
sg77
g425
sba(ischedule
Activity
p1214
(dp1215
g8
(lp1216
g63
ag162
ag196
ag136
ag698
ag343
ag22
ag701
ag703
ag168
ag695
ag363
asg71
g1112
sg72
g704
sg74
g201
sg76
g236
sg77
g609
sba(ischedule
Activity
p1217
(dp1218
g8
(lp1219
g417
ag47
ag620
ag68
ag622
ag382
ag248
ag676
ag550
ag113
ag669
ag677
ag668
ag635
ag16
ag678
ag257
ag679
ag621
ag67
ag348
ag682
ag614
ag145
ag618
ag680
ag487
asg71
g1167
sg72
g624
sg74
g127
sg76
g236
sg77
g273
sba(ischedule
Activity
p1220
(dp1221
g8
g9
sg71
I1000
sg72
g73
sg74
g75
sg76
I0
sg77
(iread_data
Room
p1222
(dp1223
g71
g80
sg72
g81
sbsba(ischedule
Activity
p1224
(dp1225
g8
(lp1226
g336
ag337
ag340
ag91
ag344
ag295
ag346
ag234
asg71
g436
sg72
g351
sg74
g127
sg76
g236
sg77
g625
sba(ischedule
Activity
p1227
(dp1228
g8
(lp1229
g828
ag829
ag699
ag255
ag342
ag514
ag572
ag832
ag734
ag631
ag93
ag291
ag835
ag836
ag99
ag802
ag327
ag831
ag712
ag833
ag660
asg71
g312
sg72
g313
sg74
g201
sg76
g236
sg77
(iread_data
Room
p1230
(dp1231
g71
g131
sg72
g132
sbsba(ischedule
Activity
p1232
(dp1233
g8
(lp1234
g174
ag444
ag419
ag107
ag446
ag192
ag449
ag387
ag456
ag462
ag468
ag470
ag473
ag259
ag110
ag166
ag479
ag67
ag484
ag487
ag161
ag491
ag294
ag495
ag498
ag499
ag414
ag503
ag296
ag507
ag510
ag513
ag34
ag474
ag469
ag463
ag14
ag258
ag467
ag472
asg71
g544
sg72
g516
sg74
g201
sg76
g236
sg77
(iread_data
Room
p1235
(dp1236
g71
g155
sg72
g156
sbsbaaa(lp1237
(lp1238
a(lp1239
a(lp1240
a(lp1241
a(lp1242
aasS'timeslot_dict'
p1243
(dp1244
I0
S'9:00-11:00'
p1245
sI1
S'11:00-13:00'
p1246
sI2
S'13:00-15:00'
p1247
sI3
S'15:00-17:00'
p1248
sI4
S'17:00-19:00'
p1249
ssS'day_dict'
p1250
(dp1251
I0
S'Monday'
p1252
sI1
S'Tuesday'
p1253
sI2
S'Wednesday'
p1254
sI3
S'Thursday'
p1255
sI4
S'Friday'
p1256
ssb.