(ischedule
Schedule
p0
(dp1
S'timetable'
p2
(lp3
(lp4
(lp5
(ischedule
Activity
p6
(dp7
S'participants'
p8
(lp9
S'31897288'
p10
aS'81218347'
p11
aS'42171678'
p12
aS'79879876'
p13
aS'20331158'
p14
aS'98105190'
p15
aS'44901052'
p16
aS'19858730'
p17
aS'97417002'
p18
aS'56749879'
p19
aS'14138904'
p20
aS'59075181'
p21
aS'71839156'
p22
aS'11996292'
p23
aS'14591033'
p24
aS'57467488'
p25
aS'97019450'
p26
aS'86807027'
p27
aS'83443653'
p28
aS'53107172'
p29
aS'4353500'
p30
asS'capacity'
p31
S'25'
p32
sS'name'
p33
S'Heuristieken 1'
p34
sS'ttype'
p35
S'tutorials'
p36
sS'group_id'
p37
S'2'
p38
sS'room'
p39
(iread_data
Room
p40
(dp41
g31
S'22'
p42
sg33
S'A1.06'
p43
sbsba(ischedule
Activity
p44
(dp45
g8
(lp46
S'29526540'
p47
aS'5298748'
p48
aS'14816774'
p49
aS'44868097'
p50
aS'28359697'
p51
aS'58522654'
p52
aS'22826928'
p53
ag19
aS'4568018'
p54
aS'6913074'
p55
aS'54026378'
p56
aS'11068043'
p57
aS'85335143'
p58
aS'6723948'
p59
aS'64600457'
p60
asg31
S'20'
p61
sg33
S'Bioinformatica'
p62
sg35
S'labs'
p63
sg37
S'1'
p64
sg39
(iread_data
Room
p65
(dp66
g31
S'117'
p67
sg33
S'C0.110'
p68
sbsba(ischedule
Activity
p69
(dp70
g8
(lp71
S'21677389'
p72
aS'37701751'
p73
aS'64768422'
p74
aS'66034145'
p75
aS'65675896'
p76
aS'81200278'
p77
aS'20374340'
p78
aS'81155296'
p79
aS'3707829'
p80
aS'14847953'
p81
aS'37399898'
p82
aS'34765676'
p83
aS'19214659'
p84
aS'76924297'
p85
aS'23547619'
p86
aS'44828429'
p87
aS'4546613'
p88
aS'69634191'
p89
aS'93566383'
p90
aS'28055464'
p91
aS'5368702'
p92
aS'81385263'
p93
aS'2550487'
p94
aS'38179241'
p95
aS'76661016'
p96
asg31
I1000
sg33
S'Interactie-ontwerp'
p97
sg35
S'lectures'
p98
sg37
I0
sg39
(iread_data
Room
p99
(dp100
g31
S'48'
p101
sg33
S'B0.201'
p102
sbsba(ischedule
Activity
p103
(dp104
g8
(lp105
S'1137946'
p106
aS'49908313'
p107
aS'64228258'
p108
aS'33877725'
p109
aS'43902015'
p110
aS'72577292'
p111
aS'76648468'
p112
aS'5615125'
p113
aS'14303208'
p114
ag75
aS'43460038'
p115
aS'94930277'
p116
aS'2416751'
p117
aS'27064249'
p118
aS'6249823'
p119
aS'77392404'
p120
aS'89180944'
p121
aS'41790793'
p122
aS'22288615'
p123
aS'67073567'
p124
aS'3474870'
p125
aS'53202517'
p126
aS'72895450'
p127
aS'61443567'
p128
aS'76123484'
p129
aS'10698627'
p130
aS'76903244'
p131
aS'40434933'
p132
aS'17092717'
p133
ag81
aS'20618153'
p134
aS'57086672'
p135
aS'39230359'
p136
aS'24891081'
p137
aS'69459473'
p138
aS'16333449'
p139
aS'78243495'
p140
aS'53512831'
p141
aS'28358060'
p142
asg31
I1000
sg33
S'Webprogrammeren en databases'
p143
sg35
g98
sg37
I0
sg39
(iread_data
Room
p144
(dp145
g31
S'60'
p146
sg33
S'C1.112'
p147
sbsba(ischedule
Activity
p148
(dp149
g8
(lp150
S'46989508'
p151
aS'94687383'
p152
aS'34872117'
p153
aS'15911353'
p154
aS'88855695'
p155
aS'9067939'
p156
aS'44391517'
p157
aS'34110913'
p158
aS'2079771'
p159
aS'7957843'
p160
aS'88636924'
p161
aS'48503689'
p162
aS'86291592'
p163
aS'27187154'
p164
aS'86988337'
p165
aS'31194811'
p166
aS'2317551'
p167
aS'68315599'
p168
ag127
aS'60312776'
p169
aS'54772132'
p170
aS'13911001'
p171
aS'3407554'
p172
aS'79033175'
p173
ag93
aS'34243356'
p174
aS'65960683'
p175
aS'79167252'
p176
aS'1766560'
p177
aS'83266686'
p178
aS'12077419'
p179
aS'73236988'
p180
aS'66701209'
p181
aS'92665222'
p182
asg31
S'40'
p183
sg33
S'Compilerbouw'
p184
sg35
g63
sg37
g38
sg39
(iread_data
Room
p185
(dp186
g31
S'56'
p187
sg33
S'A1.10'
p188
sbsba(ischedule
Activity
p189
(dp190
g8
(lp191
S'51741554'
p192
aS'75521763'
p193
aS'13092455'
p194
aS'73980360'
p195
aS'24277163'
p196
aS'64296965'
p197
aS'28357474'
p198
aS'50143947'
p199
aS'34773179'
p200
aS'33760909'
p201
ag52
aS'50184318'
p202
asg31
S'20'
p203
sg33
S'Collectieve Intelligentie'
p204
sg35
g36
sg37
S'3'
p205
sg39
(iread_data
Room
p206
(dp207
g31
S'20'
p208
sg33
S'A1.08'
p209
sbsba(ischedule
Activity
p210
(dp211
g8
(lp212
S'14941752'
p213
aS'63939720'
p214
aS'13284244'
p215
ag163
aS'32044893'
p216
aS'81116418'
p217
aS'48308205'
p218
aS'7308727'
p219
asg31
S'15'
p220
sg33
S'Project Numerical Recipes'
p221
sg35
g63
sg37
g64
sg39
(iread_data
Room
p222
(dp223
g31
S'41'
p224
sg33
S'A1.04'
p225
sbsbaa(lp226
(ischedule
Activity
p227
(dp228
g8
(lp229
g29
aS'5517869'
p230
ag219
aS'25106480'
p231
aS'29474737'
p232
aS'57595888'
p233
aS'1075391'
p234
aS'31416266'
p235
aS'68601184'
p236
aS'9332762'
p237
aS'21964491'
p238
aS'3233378'
p239
aS'15902055'
p240
ag169
aS'4783858'
p241
aS'29640619'
p242
asg31
g203
sg33
g204
sg35
g36
sg37
S'4'
p243
sg39
g144
sba(ischedule
Activity
p244
(dp245
g8
(lp246
g153
aS'45556081'
p247
aS'28618400'
p248
aS'49683101'
p249
aS'23798155'
p250
ag178
aS'70015932'
p251
ag111
aS'13798030'
p252
ag20
ag115
aS'29718115'
p253
aS'27925117'
p254
aS'58866007'
p255
ag14
aS'72683344'
p256
ag121
aS'10149535'
p257
aS'59289233'
p258
ag132
aS'82689818'
p259
asg31
I1000
sg33
S'Architectuur en computerorganisatie'
p260
sg35
g98
sg37
I0
sg39
g185
sba(ischedule
Activity
p261
(dp262
g8
(lp263
g193
ag168
aS'62701040'
p264
aS'70878567'
p265
aS'11459236'
p266
aS'13658563'
p267
ag253
aS'58332004'
p268
aS'92977271'
p269
aS'17496687'
p270
aS'8557857'
p271
ag16
aS'75585647'
p272
asg31
S'15'
p273
sg33
S'Informatie- en organsatieontwerp'
p274
sg35
g63
sg37
g38
sg39
(iread_data
Room
p275
(dp276
g31
g101
sg33
g102
sbsba(ischedule
Activity
p277
(dp278
g8
(lp279
S'13116738'
p280
aS'37744525'
p281
ag265
aS'52311353'
p282
aS'59753700'
p283
aS'25330192'
p284
aS'93023961'
p285
aS'81022997'
p286
ag199
aS'74131924'
p287
aS'17823206'
p288
aS'91196968'
p289
aS'37110913'
p290
aS'66122625'
p291
aS'98780382'
p292
aS'87314964'
p293
aS'51566595'
p294
ag77
aS'19337738'
p295
ag238
aS'99453514'
p296
aS'87900893'
p297
aS'45414528'
p298
aS'97136582'
p299
aS'22323043'
p300
aS'13996448'
p301
aS'68360259'
p302
asg31
I1000
sg33
S'Data Mining'
p303
sg35
g98
sg37
I0
sg39
g65
sba(ischedule
Activity
p304
(dp305
g8
(lp306
g265
ag284
ag199
ag289
ag292
ag77
ag296
ag299
ag302
asg31
S'10'
p307
sg33
g303
sg35
g63
sg37
g205
sg39
(iread_data
Room
p308
(dp309
g31
g224
sg33
g225
sbsba(ischedule
Activity
p310
(dp311
g8
(lp312
S'37770881'
p313
aS'17575088'
p314
aS'17222374'
p315
ag163
aS'46052388'
p316
ag12
aS'54310617'
p317
aS'77896638'
p318
ag175
ag111
ag128
aS'48601268'
p319
aS'86000192'
p320
aS'42196732'
p321
aS'26406342'
p322
aS'87758823'
p323
asg31
g203
sg33
g204
sg35
g36
sg37
g38
sg39
(iread_data
Room
p324
(dp325
g31
g208
sg33
g209
sbsba(ischedule
Activity
p326
(dp327
g8
(lp328
S'62356458'
p329
ag248
aS'42778953'
p330
ag180
aS'22731474'
p331
ag160
aS'19662602'
p332
ag301
ag27
ag194
ag286
aS'89338938'
p333
ag94
ag84
aS'75005528'
p334
aS'88752563'
p335
ag57
aS'84110134'
p336
asg31
g220
sg33
g221
sg35
g63
sg37
g205
sg39
(iread_data
Room
p337
(dp338
g31
g42
sg33
g43
sbsbaa(lp339
(ischedule
Activity
p340
(dp341
g8
g246
sg31
I1000
sg33
g260
sg35
g98
sg37
I0
sg39
(iread_data
Room
p342
(dp343
g31
g224
sg33
g225
sbsba(ischedule
Activity
p344
(dp345
g8
(lp346
S'63111000'
p347
aS'58592894'
p348
ag315
ag178
aS'83415514'
p349
aS'14309255'
p350
aS'36527838'
p351
aS'78821918'
p352
ag171
aS'49219163'
p353
aS'66621166'
p354
ag60
ag196
aS'30658799'
p355
aS'1181560'
p356
ag230
ag12
aS'77376714'
p357
aS'51650744'
p358
asg31
S'20'
p359
sg33
S'Moderne Databases'
p360
sg35
g63
sg37
g64
sg39
g324
sba(ischedule
Activity
p361
(dp362
g8
(lp363
g168
ag272
ag264
ag265
ag267
ag253
ag268
ag269
aS'23983476'
p364
aS'77636749'
p365
ag16
ag193
asg31
S'15'
p366
sg33
g274
sg35
g36
sg37
g38
sg39
(iread_data
Room
p367
(dp368
g31
g101
sg33
g102
sbsba(ischedule
Activity
p369
(dp370
g8
(lp371
S'21095566'
p372
ag87
ag165
ag240
ag110
ag259
aS'52715680'
p373
ag83
aS'91527663'
p374
ag179
aS'8522855'
p375
aS'1665980'
p376
ag348
ag127
ag93
aS'51509565'
p377
aS'14671406'
p378
aS'66433883'
p379
aS'27298319'
p380
aS'64554442'
p381
aS'40343779'
p382
asg31
S'25'
p383
sg33
S'Algoritmen en complexiteit'
p384
sg35
g36
sg37
g64
sg39
(iread_data
Room
p385
(dp386
g31
g187
sg33
g188
sbsba(ischedule
Activity
p387
(dp388
g8
(lp389
S'36748818'
p390
aS'19958553'
p391
aS'23257088'
p392
aS'18266644'
p393
aS'32204977'
p394
ag280
ag271
ag266
ag270
asg31
g366
sg33
g274
sg35
g36
sg37
g64
sg39
(iread_data
Room
p395
(dp396
g31
g42
sg33
g43
sbsba(ischedule
Activity
p397
(dp398
g8
(lp399
S'82688900'
p400
ag365
aS'78136904'
p401
aS'41585485'
p402
aS'63634350'
p403
aS'47605891'
p404
ag288
ag21
ag268
ag174
aS'11915563'
p405
ag85
aS'91139627'
p406
aS'31247305'
p407
aS'94467156'
p408
aS'51542218'
p409
aS'32705005'
p410
aS'37498675'
p411
ag197
aS'59544049'
p412
aS'34262212'
p413
aS'46570285'
p414
aS'42115591'
p415
aS'20239127'
p416
ag250
aS'55474917'
p417
aS'97371272'
p418
aS'24875739'
p419
ag19
aS'65003379'
p420
ag11
aS'77240949'
p421
aS'9731271'
p422
aS'79366078'
p423
aS'54569540'
p424
aS'74182182'
p425
ag317
aS'20883994'
p426
aS'36903574'
p427
aS'38499176'
p428
aS'10872825'
p429
aS'69086548'
p430
aS'7492204'
p431
aS'99272880'
p432
aS'79858178'
p433
aS'14398123'
p434
ag289
ag375
aS'72547110'
p435
aS'94955328'
p436
aS'39659121'
p437
ag52
aS'44940353'
p438
ag164
ag136
aS'31633723'
p439
aS'47462856'
p440
ag393
aS'56988998'
p441
aS'58469172'
p442
aS'51186803'
p443
aS'28957789'
p444
aS'96054456'
p445
aS'49631542'
p446
aS'23391676'
p447
ag336
ag24
ag14
aS'63408522'
p448
aS'61518436'
p449
ag333
aS'84524083'
p450
aS'38329455'
p451
ag378
aS'41527759'
p452
aS'39919665'
p453
ag331
aS'78735049'
p454
ag92
aS'10792879'
p455
ag113
ag26
aS'63955238'
p456
aS'3685034'
p457
asg31
I1000
sg33
S'Kansrekenen 2'
p458
sg35
g98
sg37
I0
sg39
(iread_data
Room
p459
(dp460
g31
g67
sg33
g68
sbsbaa(lp461
(ischedule
Activity
p462
(dp463
g8
(lp464
g290
ag287
ag16
aS'68409833'
p465
aS'61611295'
p466
aS'36508571'
p467
asg31
S'10'
p468
sg33
S'Autonomous Agents 2'
p469
sg35
g63
sg37
g38
sg39
(iread_data
Room
p470
(dp471
g31
g42
sg33
g43
sbsba(ischedule
Activity
p472
(dp473
g8
(lp474
g96
ag151
aS'95631564'
p475
ag405
ag15
ag152
aS'40791377'
p476
ag153
ag181
ag154
ag350
ag155
ag330
ag156
ag318
aS'8464817'
p477
ag92
ag157
aS'75599734'
p478
ag158
ag455
ag159
aS'72796858'
p479
ag160
aS'65852230'
p480
ag161
ag218
ag162
aS'95007221'
p481
ag163
ag335
ag164
ag182
ag165
ag126
ag166
aS'5595824'
p482
ag167
ag249
ag168
ag313
ag127
ag215
ag169
aS'75759231'
p483
ag170
aS'24613625'
p484
ag171
aS'39459642'
p485
ag172
aS'11741347'
p486
ag173
ag355
ag93
aS'43689934'
p487
ag174
aS'80135353'
p488
ag175
aS'75664412'
p489
ag176
ag59
ag177
ag450
ag178
aS'27950803'
p490
ag179
ag52
ag180
aS'76802764'
p491
asg31
I1000
sg33
g184
sg35
g98
sg37
I0
sg39
g65
sba(ischedule
Activity
p492
(dp493
g8
(lp494
g298
aS'47477884'
p495
ag157
ag288
aS'70113753'
p496
ag94
aS'64393888'
p497
ag488
ag59
ag320
ag170
ag176
aS'64947290'
p498
ag82
aS'73893840'
p499
aS'670011'
p500
ag417
aS'3678531'
p501
asg31
S'20'
p502
sg33
S'Programmeren in Java 2'
p503
sg35
g63
sg37
g64
sg39
g144
sba(ischedule
Activity
p504
(dp505
g8
(lp506
g47
ag48
ag50
aS'30050930'
p507
ag52
ag19
aS'21029457'
p508
ag55
ag56
ag57
ag58
ag426
asg31
S'20'
p509
sg33
g62
sg35
g36
sg37
g64
sg39
(iread_data
Room
p510
(dp511
g31
g208
sg33
g209
sbsba(ischedule
Activity
p512
(dp513
g8
(lp514
g372
aS'96453361'
p515
ag87
aS'67817269'
p516
ag165
aS'46701583'
p517
ag240
aS'88596522'
p518
ag110
aS'19540225'
p519
ag259
ag402
ag427
ag364
ag80
ag294
ag373
ag380
ag83
aS'53585410'
p520
ag374
ag381
ag179
ag238
ag375
ag125
ag376
ag498
ag348
ag452
ag127
ag25
ag93
ag401
aS'26260141'
p521
aS'23652927'
p522
ag377
ag382
ag378
ag357
aS'5976174'
p523
ag199
ag379
asg31
I1000
sg33
g384
sg35
g98
sg37
I0
sg39
g275
sba(ischedule
Activity
p524
(dp525
g8
(lp526
S'45660925'
p527
ag10
aS'53775014'
p528
ag11
aS'48357272'
p529
ag12
ag30
ag13
aS'58736785'
p530
ag14
ag116
aS'76393508'
p531
ag291
ag15
aS'61060652'
p532
ag54
ag29
ag16
ag427
ag300
ag49
ag17
ag267
aS'20830477'
p533
ag241
ag18
aS'22871048'
p534
ag19
ag28
ag20
ag290
ag21
aS'75997788'
p535
ag22
ag27
ag23
ag213
aS'87210640'
p536
ag193
ag24
aS'1696500'
p537
ag25
ag269
ag26
asg31
I1000
sg33
g34
sg35
g98
sg37
I0
sg39
(iread_data
Room
p538
(dp539
g31
g224
sg33
g225
sbsba(ischedule
Activity
p540
(dp541
g8
(lp542
g242
ag130
aS'85236626'
p543
ag237
ag403
ag432
ag349
aS'37279234'
p544
ag447
ag238
ag408
aS'4921119'
p545
aS'7386961'
p546
aS'85284256'
p547
ag379
ag402
ag117
asg31
g502
sg33
g503
sg35
g63
sg37
g243
sg39
(iread_data
Room
p548
(dp549
g31
g187
sg33
g188
sbsbaa(lp550
(ischedule
Activity
p551
(dp552
g8
(lp553
S'42406214'
p554
ag283
aS'60661905'
p555
aS'92778619'
p556
aS'43680781'
p557
ag424
aS'13718298'
p558
ag120
aS'41578612'
p559
ag457
aS'70193386'
p560
aS'36785409'
p561
aS'27805666'
p562
aS'36213792'
p563
ag267
aS'87830198'
p564
ag194
aS'90474003'
p565
asg31
S'20'
p566
sg33
S'Reflectie op de digitale cultuur'
p567
sg35
g36
sg37
g205
sg39
(iread_data
Room
p568
(dp569
g31
g208
sg33
g209
sbsba(ischedule
Activity
p570
(dp571
g8
(lp572
S'40633534'
p573
ag86
ag248
ag182
ag27
aS'60352393'
p574
aS'70844780'
p575
ag118
aS'1886996'
p576
aS'39429093'
p577
ag256
asg31
S'10'
p578
sg33
S'Advanced Heuristics'
p579
sg35
g63
sg37
g64
sg39
g470
sba(ischedule
Activity
p580
(dp581
g8
(lp582
g347
ag23
aS'96082155'
p583
ag348
aS'3883025'
p584
ag121
ag315
aS'33776961'
p585
aS'78544592'
p586
ag178
aS'15051051'
p587
ag357
ag349
aS'70072978'
p588
ag58
ag350
ag390
ag140
ag351
ag202
aS'84449005'
p589
ag352
ag193
ag168
ag171
aS'99283252'
p590
aS'4709948'
p591
ag353
aS'58699305'
p592
ag557
ag354
ag440
ag446
aS'27241113'
p593
ag268
aS'78443067'
p594
ag60
aS'59111489'
p595
aS'27916487'
p596
ag414
aS'48198668'
p597
ag486
ag196
ag535
aS'18144425'
p598
ag355
ag47
ag358
ag356
aS'41489515'
p599
ag12
ag230
aS'13218321'
p600
ag177
asg31
I1000
sg33
g360
sg35
g98
sg37
I0
sg39
(iread_data
Room
p601
(dp602
g31
g146
sg33
g147
sbsba(ischedule
Activity
p603
(dp604
g8
(lp605
g106
ag110
ag112
ag114
ag115
ag117
ag119
ag123
ag125
ag127
ag129
ag133
ag134
ag136
ag138
ag142
ag124
ag132
ag135
ag122
ag130
asg31
S'20'
p606
sg33
g143
sg35
g63
sg37
g64
sg39
g275
sba(ischedule
Activity
p607
(dp608
g8
(lp609
g515
ag517
ag518
ag519
ag402
ag364
ag294
ag380
ag520
ag238
ag125
ag452
ag25
ag401
ag522
ag382
ag199
ag179
ag240
ag376
ag375
asg31
S'25'
p610
sg33
g384
sg35
g63
sg37
g38
sg39
g185
sba(ischedule
Activity
p611
(dp612
g8
(lp613
g265
ag284
ag289
ag292
ag77
ag296
ag302
ag301
ag290
ag281
asg31
S'10'
p614
sg33
g303
sg35
g36
sg37
g205
sg39
(iread_data
Room
p615
(dp616
g31
g224
sg33
g225
sbsba(ischedule
Activity
p617
(dp618
g8
g474
sg31
I1000
sg33
g184
sg35
g98
sg37
I0
sg39
(iread_data
Room
p619
(dp620
g31
g67
sg33
g68
sbsbaaa(lp621
(lp622
(ischedule
Activity
p623
(dp624
g8
(lp625
S'97135019'
p626
ag313
ag192
ag29
ag259
ag314
ag242
ag230
aS'43027916'
p627
ag315
ag193
ag219
ag129
ag163
ag194
ag231
ag376
ag316
ag195
ag232
aS'35330349'
p628
ag12
ag196
ag421
ag108
ag317
ag197
ag233
ag497
ag318
ag198
ag234
ag537
ag175
ag199
ag235
aS'22699561'
p629
ag111
ag200
ag236
ag323
ag128
ag264
ag237
ag247
ag319
ag201
ag238
ag86
ag241
ag322
ag239
aS'96104167'
p630
ag320
ag52
ag240
ag330
ag321
ag202
ag169
aS'13534377'
p631
asg31
I1000
sg33
g204
sg35
g98
sg37
I0
sg39
g185
sba(ischedule
Activity
p632
(dp633
g8
(lp634
g294
ag290
ag380
ag467
ag329
aS'16097870'
p635
aS'52552718'
p636
ag287
ag466
ag496
ag16
aS'62872965'
p637
ag56
ag534
ag485
ag479
aS'34806836'
p638
ag405
aS'88627897'
p639
ag465
ag17
ag230
asg31
I1000
sg33
g469
sg35
g98
sg37
I0
sg39
g275
sba(ischedule
Activity
p640
(dp641
g8
(lp642
g414
ag419
ag59
ag495
ag240
ag96
aS'10609762'
p643
ag241
aS'34173695'
p644
aS'58040377'
p645
ag444
aS'53139134'
p646
aS'47932106'
p647
aS'79617364'
p648
aS'23628642'
p649
aS'55412918'
p650
aS'61520025'
p651
ag192
ag508
aS'38296757'
p652
aS'82412626'
p653
ag594
ag58
ag79
ag55
aS'56348773'
p654
aS'73823548'
p655
aS'6709529'
p656
ag95
aS'79888156'
p657
aS'87602030'
p658
ag201
aS'6939933'
p659
ag254
ag410
aS'62363761'
p660
aS'72665524'
p661
aS'72526473'
p662
ag24
ag592
ag320
ag155
aS'86180471'
p663
aS'55530367'
p664
aS'94686490'
p665
aS'80188025'
p666
aS'75446434'
p667
ag335
aS'22168693'
p668
ag88
ag114
ag635
ag176
ag521
ag49
ag348
ag27
ag535
ag380
ag108
aS'56872729'
p669
aS'45915482'
p670
ag50
ag445
aS'56544130'
p671
ag297
ag626
ag164
aS'93361408'
p672
ag403
aS'73302736'
p673
aS'62105897'
p674
aS'19717077'
p675
aS'14179347'
p676
aS'23565001'
p677
ag425
aS'75623387'
p678
ag454
aS'12091019'
p679
ag349
aS'65408517'
p680
ag520
aS'23658570'
p681
ag257
aS'59220392'
p682
ag544
ag501
ag517
aS'77306636'
p683
ag272
ag529
ag586
aS'70939718'
p684
ag455
aS'40141996'
p685
aS'58253841'
p686
ag118
aS'65978354'
p687
ag442
ag60
ag422
aS'33672995'
p688
aS'31306819'
p689
aS'11593163'
p690
ag178
ag113
asg31
I1000
sg33
S'Calculus 2'
p691
sg35
g98
sg37
I0
sg39
g65
sba(ischedule
Activity
p692
(dp693
g8
(lp694
g591
ag534
aS'77960666'
p695
ag135
ag450
ag554
ag589
ag565
ag283
ag290
ag194
aS'49922855'
p696
aS'68286356'
p697
ag585
ag555
ag216
ag48
ag556
ag53
aS'99975346'
p698
ag557
ag574
aS'51052738'
p699
ag424
ag564
ag401
ag558
aS'82390428'
p700
ag373
ag120
ag416
aS'20095994'
p701
ag559
ag652
ag490
ag457
ag55
ag575
ag560
aS'27370083'
p702
ag82
ag561
ag296
aS'96554914'
p703
ag562
ag449
ag196
ag563
aS'51415617'
p704
ag165
ag267
asg31
I1000
sg33
g567
sg35
g98
sg37
I0
sg39
(iread_data
Room
p705
(dp706
g31
g146
sg33
g147
sbsbaa(lp707
(ischedule
Activity
p708
(dp709
g8
(lp710
g197
ag318
ag665
ag647
ag681
ag574
aS'3168419'
p711
ag47
aS'59397895'
p712
ag73
ag498
ag294
ag445
ag23
ag495
aS'83869542'
p713
ag151
ag334
ag352
ag153
aS'56191333'
p714
ag196
aS'27123462'
p715
ag315
ag409
ag321
ag242
aS'56121590'
p716
aS'58083680'
p717
ag485
ag268
ag679
ag565
ag230
aS'62736669'
p718
ag335
ag25
ag636
ag133
ag165
aS'4529208'
p719
ag392
ag322
aS'13132925'
p720
ag194
ag695
ag132
ag655
ag545
ag479
aS'26207525'
p721
ag259
ag627
aS'25077484'
p722
aS'54540997'
p723
ag500
ag348
aS'5085194'
p724
ag446
aS'15187217'
p725
aS'72456780'
p726
ag685
ag110
ag19
aS'247918'
p727
ag49
ag588
ag669
ag374
ag129
ag663
aS'5526560'
p728
asg31
I1000
sg33
S'Databases 2'
p729
sg35
g98
sg37
I0
sg39
g185
sba(ischedule
Activity
p730
(dp731
g8
(lp732
g58
ag193
aS'70336464'
p733
aS'7106649'
p734
aS'58565406'
p735
ag168
ag179
ag333
ag218
ag418
ag300
aS'76487754'
p736
ag561
ag86
ag350
ag557
ag394
ag23
ag290
ag257
ag237
ag559
aS'21192048'
p737
ag119
ag489
aS'4697362'
p738
ag16
ag322
aS'77264363'
p739
ag132
aS'92496780'
p740
ag166
aS'93041523'
p741
aS'47982619'
p742
aS'14383795'
p743
aS'12430748'
p744
ag430
ag365
asg31
I1000
sg33
S'Technology for games'
p745
sg35
g98
sg37
I0
sg39
(iread_data
Room
p746
(dp747
g31
g67
sg33
g68
sbsba(ischedule
Activity
p748
(dp749
g8
g634
sg31
I1000
sg33
g469
sg35
g98
sg37
I0
sg39
(iread_data
Room
p750
(dp751
g31
g101
sg33
g102
sbsba(ischedule
Activity
p752
(dp753
g8
(lp754
g107
ag109
ag111
ag113
ag75
ag116
ag118
ag120
ag126
ag128
ag81
ag137
ag139
ag141
ag108
ag131
ag121
ag140
asg31
g606
sg33
g143
sg35
g63
sg37
g38
sg39
(iread_data
Room
p755
(dp756
g31
g224
sg33
g225
sbsba(ischedule
Activity
p757
(dp758
g8
(lp759
g77
ag484
ag648
aS'33930505'
p760
ag219
aS'89985072'
p761
ag126
ag287
aS'30195935'
p762
ag24
aS'77831658'
p763
ag557
aS'66120270'
p764
ag412
ag238
ag109
ag508
ag711
ag507
asg31
g61
sg33
g62
sg35
g63
sg37
g205
sg39
(iread_data
Room
p765
(dp766
g31
g42
sg33
g43
sbsba(ischedule
Activity
p767
(dp768
g8
(lp769
S'73196865'
p770
ag264
ag163
ag269
ag123
aS'39905995'
p771
ag13
ag431
ag53
ag588
aS'28943658'
p772
ag60
ag555
ag55
ag90
asg31
g502
sg33
g503
sg35
g63
sg37
S'6'
p773
sg39
(iread_data
Room
p774
(dp775
g31
g146
sg33
g147
sbsba(ischedule
Activity
p776
(dp777
g8
(lp778
g373
aS'42297781'
p779
aS'55103073'
p780
aS'47260040'
p781
ag520
ag518
aS'1695839'
p782
aS'5892092'
p783
ag743
ag322
aS'82066165'
p784
ag403
ag171
ag20
aS'51472074'
p785
aS'91250534'
p786
asg31
S'15'
p787
sg33
S'Compilerbouw practicum'
p788
sg35
g63
sg37
g205
sg39
(iread_data
Room
p789
(dp790
g31
g208
sg33
g209
sbsbaa(lp791
(ischedule
Activity
p792
(dp793
g8
(lp794
g534
ag450
ag585
ag48
ag698
ag699
ag401
ag701
ag490
ag575
ag82
ag703
ag196
ag165
ag695
ag702
ag574
asg31
g566
sg33
g567
sg35
g36
sg37
g38
sg39
g144
sba(ischedule
Activity
p795
(dp796
g8
(lp797
g23
ag584
ag585
ag587
ag588
ag390
ag202
ag193
ag590
ag592
ag440
ag268
ag595
ag597
ag535
ag47
ag599
ag600
ag348
ag60
ag414
asg31
S'20'
p798
sg33
g360
sg35
g36
sg37
g38
sg39
(iread_data
Room
p799
(dp800
g31
g187
sg33
g188
sbsba(ischedule
Activity
p801
(dp802
g8
(lp803
g294
ag636
ag496
ag56
ag479
ag639
ag230
ag329
ag638
asg31
g468
sg33
g469
sg35
g63
sg37
g64
sg39
g65
sba(ischedule
Activity
p804
(dp805
g8
(lp806
g380
ag635
ag466
ag637
ag405
ag17
ag534
ag329
asg31
S'10'
p807
sg33
g469
sg35
g36
sg37
g205
sg39
(iread_data
Room
p808
(dp809
g31
g224
sg33
g225
sbsba(ischedule
Activity
p810
(dp811
g8
(lp812
g681
aS'64053722'
p813
ag301
ag27
aS'51791169'
p814
ag428
ag19
ag236
aS'63096281'
p815
ag533
aS'90296821'
p816
aS'88519892'
p817
aS'88263855'
p818
ag645
ag427
ag674
aS'41153310'
p819
ag442
ag364
aS'15249775'
p820
asg31
g502
sg33
g503
sg35
g63
sg37
S'5'
p821
sg39
g324
sbaa(lp822
(ischedule
Activity
p823
(dp824
g8
(lp825
g282
aS'26172512'
p826
ag665
ag257
aS'80709893'
p827
ag425
aS'80998260'
p828
ag235
ag415
ag417
ag532
aS'96118484'
p829
ag465
aS'54074680'
p830
ag255
aS'32595335'
p831
ag321
ag500
ag650
ag628
ag637
ag559
ag351
ag677
ag139
ag428
aS'83210352'
p832
aS'66570705'
p833
ag230
ag82
ag90
ag334
ag218
ag545
ag318
ag22
ag323
ag330
ag125
aS'21311067'
p834
ag289
ag467
aS'34588570'
p835
aS'79937969'
p836
ag11
ag93
ag635
ag24
ag669
aS'90743504'
p837
ag648
ag436
ag174
aS'16011419'
p838
asg31
I1000
sg33
S'Lineaire Algebra'
p839
sg35
g98
sg37
I0
sg39
g185
sba(ischedule
Activity
p840
(dp841
g8
(lp842
g107
ag109
ag111
ag113
ag75
ag116
ag118
ag122
ag124
ag126
ag128
ag130
ag132
ag81
ag137
ag139
ag140
asg31
S'20'
p843
sg33
g143
sg35
g36
sg37
g38
sg39
g65
sba(ischedule
Activity
p844
(dp845
g8
(lp846
g390
ag193
ag391
ag168
ag365
ag272
ag392
ag264
ag393
ag265
ag394
ag266
ag270
ag267
ag364
ag253
ag280
ag268
ag271
ag269
ag16
asg31
I1000
sg33
g274
sg35
g98
sg37
I0
sg39
(iread_data
Room
p847
(dp848
g31
g42
sg33
g43
sbsba(ischedule
Activity
p849
(dp850
g8
(lp851
g380
ag635
ag637
ag485
ag405
ag17
ag534
asg31
g468
sg33
g469
sg35
g63
sg37
g205
sg39
(iread_data
Room
p852
(dp853
g31
g101
sg33
g102
sbsba(ischedule
Activity
p854
(dp855
g8
(lp856
g283
ag286
ag288
ag291
ag294
ag238
ag199
ag293
asg31
g614
sg33
g303
sg35
g36
sg37
g38
sg39
(iread_data
Room
p857
(dp858
g31
g208
sg33
g209
sbsbaa(lp859
(ischedule
Activity
p860
(dp861
g8
(lp862
g686
ag200
aS'88737765'
p863
ag784
ag484
ag676
aS'74361881'
p864
ag254
ag490
ag663
ag375
asg31
S'15'
p865
sg33
S'Project Genetic Algorithms'
p866
sg35
g63
sg37
g205
sg39
(iread_data
Room
p867
(dp868
g31
g208
sg33
g209
sbsba(ischedule
Activity
p869
(dp870
g8
g625
sg31
I1000
sg33
g204
sg35
g98
sg37
I0
sg39
(iread_data
Room
p871
(dp872
g31
g146
sg33
g147
sbsba(ischedule
Activity
p873
(dp874
g8
(lp875
g290
ag287
asg31
g807
sg33
g469
sg35
g36
sg37
g38
sg39
(iread_data
Room
p876
(dp877
g31
g101
sg33
g102
sbsba(ischedule
Activity
p878
(dp879
g8
(lp880
g357
ag405
aS'31103066'
p881
aS'27582862'
p882
ag115
ag372
ag57
ag231
aS'88176729'
p883
ag239
ag529
ag319
ag558
ag54
ag417
ag827
aS'3727435'
p884
ag415
ag251
aS'58074656'
p885
ag242
ag180
aS'44671041'
p886
ag378
ag703
ag109
ag412
ag350
aS'1048485'
p887
ag670
ag198
ag199
ag281
aS'51593625'
p888
ag50
ag832
ag521
ag300
ag373
aS'65318664'
p889
ag735
ag169
ag819
ag241
ag490
ag329
aS'82872148'
p890
ag465
aS'14072826'
p891
ag407
ag88
ag532
ag282
ag761
ag439
ag534
ag408
ag452
ag636
aS'9287708'
p892
ag590
ag673
ag478
ag140
ag523
ag333
ag594
ag674
ag475
ag336
ag56
ag382
aS'37830626'
p893
ag121
ag680
asg31
I1000
sg33
S'Software engineering'
p894
sg35
g98
sg37
I0
sg39
g185
sba(ischedule
Activity
p895
(dp896
g8
g399
sg31
I1000
sg33
g458
sg35
g98
sg37
I0
sg39
(iread_data
Room
p897
(dp898
g31
g67
sg33
g68
sbsba(ischedule
Activity
p899
(dp900
g8
(lp901
g515
ag238
aS'56815156'
p902
ag59
ag180
ag265
ag587
ag109
ag321
ag711
ag60
ag331
ag727
ag49
ag53
asg31
g509
sg33
g62
sg35
g36
sg37
g38
sg39
(iread_data
Room
p903
(dp904
g31
g224
sg33
g225
sbsbaaa(lp905
(lp906
(ischedule
Activity
p907
(dp908
g8
g825
sg31
I1000
sg33
g839
sg35
g98
sg37
I0
sg39
g144
sba(ischedule
Activity
p909
(dp910
g8
(lp911
g419
ag240
ag241
ag648
ag651
ag652
ag58
ag654
ag95
ag201
ag410
ag662
ag320
ag664
ag667
ag88
ag176
ag348
ag380
ag670
ag671
ag164
ag673
ag676
ag678
ag349
ag681
ag544
ag683
ag586
ag685
ag687
ag422
ag690
ag455
ag155
ag644
ag592
asg31
S'40'
p912
sg33
g691
sg35
g36
sg37
g38
sg39
g615
sba(ischedule
Activity
p913
(dp914
g8
(lp915
g26
ag235
ag742
ag585
ag695
ag888
ag162
ag436
aS'10702778'
p916
aS'26857113'
p917
aS'54395877'
p918
ag887
ag167
aS'23215240'
p919
ag591
aS'34900967'
p920
aS'12782624'
p921
ag165
ag556
asg31
g502
sg33
g503
sg35
g63
sg37
g38
sg39
g324
sba(ischedule
Activity
p922
(dp923
g8
(lp924
g357
ag881
ag115
ag57
ag883
ag529
ag558
ag884
ag242
ag886
ag703
ag412
ag887
ag198
ag281
ag50
ag521
ag373
ag735
ag819
ag490
ag890
ag891
ag88
ag282
ag439
ag408
ag636
ag590
ag478
ag523
ag594
ag475
ag56
ag893
ag680
ag169
ag329
asg31
S'40'
p925
sg33
g894
sg35
g63
sg37
g64
sg39
g65
sba(ischedule
Activity
p926
(dp927
g8
(lp928
g81
ag495
ag711
ag661
aS'62613937'
p929
ag426
ag111
ag401
ag535
asg31
g578
sg33
g579
sg35
g63
sg37
g38
sg39
g470
sba(ischedule
Activity
p930
(dp931
g8
g279
sg31
I1000
sg33
g303
sg35
g98
sg37
I0
sg39
g185
sba(ischedule
Activity
p932
(dp933
g8
(lp934
S'25557516'
p935
ag684
ag434
ag537
ag242
ag219
ag575
ag716
ag30
ag422
ag764
aS'72586808'
p936
ag714
ag25
ag160
aS'64246605'
p937
aS'16912993'
p938
aS'63573738'
p939
ag564
asg31
S'20'
p940
sg33
S'Netwerken en systeembeveiliging'
p941
sg35
g63
sg37
g243
sg39
(iread_data
Room
p942
(dp943
g31
g101
sg33
g102
sbsbaa(lp944
(ischedule
Activity
p945
(dp946
g8
(lp947
g626
ag259
ag627
ag129
ag376
ag628
ag108
ag497
ag537
ag629
ag247
ag86
ag630
ag330
ag631
ag264
ag421
asg31
g203
sg33
g204
sg35
g36
sg37
g64
sg39
g470
sba(ischedule
Activity
p948
(dp949
g8
(lp950
g294
ag467
ag636
ag496
ag56
ag479
ag639
ag230
ag638
ag465
ag16
ag485
asg31
g807
sg33
g469
sg35
g36
sg37
g64
sg39
g324
sba(ischedule
Activity
p951
(dp952
g8
(lp953
g151
ag405
ag153
ag154
ag155
ag477
ag157
ag158
ag159
ag160
ag161
ag162
ag163
ag165
ag168
ag127
ag169
ag170
ag172
ag173
ag93
ag174
ag175
ag176
ag177
ag178
ag179
ag180
ag181
ag96
ag450
ag487
ag182
asg31
S'40'
p954
sg33
g184
sg35
g36
sg37
g38
sg39
(iread_data
Room
p955
(dp956
g31
g67
sg33
g68
sbsba(ischedule
Activity
p957
(dp958
g8
(lp959
g59
ag96
ag646
ag649
ag192
ag79
ag655
ag657
ag659
ag660
ag24
ag665
ag335
ag114
ag521
ag27
ag108
ag50
ag297
ag672
ag674
ag677
ag454
ag680
ag257
ag501
ag272
ag684
ag686
ag442
ag688
ag178
ag444
ag517
asg31
g912
sg33
g691
sg35
g36
sg37
g205
sg39
g185
sba(ischedule
Activity
p960
(dp961
g8
(lp962
g591
ag135
ag589
ag290
ag697
ag216
ag53
ag700
ag416
ag652
ag55
ag296
ag449
ag704
ag696
ag373
asg31
g566
sg33
g567
sg35
g36
sg37
g64
sg39
(iread_data
Room
p963
(dp964
g31
g224
sg33
g225
sbsba(ischedule
Activity
p965
(dp966
g8
g105
sg31
I1000
sg33
g143
sg35
g98
sg37
I0
sg39
g275
sba(ischedule
Activity
p967
(dp968
g8
(lp969
g313
ag314
ag163
ag316
ag12
ag318
ag175
ag111
ag128
ag319
ag241
ag320
ag321
ag322
ag237
asg31
S'20'
p970
sg33
g204
sg35
g63
sg37
g38
sg39
g144
sbaa(lp971
(ischedule
Activity
p972
(dp973
g8
(lp974
g93
ag382
ag299
ag718
ag120
aS'59887191'
p975
aS'12170832'
p976
ag428
ag281
ag574
aS'123355'
p977
ag407
ag259
ag375
ag427
aS'5590289'
p978
asg31
g940
sg33
g941
sg35
g63
sg37
g64
sg39
g615
sba(ischedule
Activity
p979
(dp980
g8
(lp981
g515
ag902
ag180
ag265
ag883
ag426
ag587
ag321
ag331
ag727
ag445
asg31
g61
sg33
g62
sg35
g63
sg37
g38
sg39
g470
sba(ischedule
Activity
p982
(dp983
g8
(lp984
g485
ag289
ag392
ag152
ag445
ag128
ag240
ag281
ag517
ag347
ag318
ag882
ag164
ag413
ag268
ag422
ag520
ag886
ag477
aS'88597745'
p985
ag134
asg31
g502
sg33
g503
sg35
g63
sg37
g205
sg39
g65
sba(ischedule
Activity
p986
(dp987
g8
(lp988
g573
ag81
ag86
ag495
ag248
ag711
ag182
ag256
ag535
ag576
ag577
ag661
ag401
ag118
ag27
ag929
ag574
ag426
ag575
ag111
asg31
I1000
sg33
g579
sg35
g98
sg37
I0
sg39
(iread_data
Room
p989
(dp990
g31
g187
sg33
g188
sbsba(ischedule
Activity
p991
(dp992
g8
(lp993
g465
aS'48678993'
p994
ag589
aS'25994016'
p995
ag564
ag590
ag658
ag722
ag408
ag352
ag138
aS'41644639'
p996
aS'75680261'
p997
asg31
g865
sg33
g866
sg35
g63
sg37
g38
sg39
(iread_data
Room
p998
(dp999
g31
g208
sg33
g209
sbsba(ischedule
Activity
p1000
(dp1001
g8
(lp1002
g627
ag820
aS'35315956'
p1003
ag77
ag698
ag994
ag135
ag530
ag635
ag201
ag403
ag523
ag294
ag645
aS'5739011'
p1004
ag286
ag500
ag140
asg31
S'20'
p1005
sg33
S'Heuristieken 2'
p1006
sg35
g36
sg37
g38
sg39
g275
sba(ischedule
Activity
p1007
(dp1008
g8
g732
sg31
I1000
sg33
g745
sg35
g98
sg37
I0
sg39
(iread_data
Room
p1009
(dp1010
g31
g146
sg33
g147
sbsbaa(lp1011
(ischedule
Activity
p1012
(dp1013
g8
(lp1014
g584
ag284
ag21
aS'19058315'
p1015
ag762
aS'535689'
p1016
ag721
ag660
ag286
ag890
ag192
ag489
ag760
ag393
ag547
asg31
g940
sg33
g941
sg35
g63
sg37
g38
sg39
(iread_data
Room
p1017
(dp1018
g31
g101
sg33
g102
sbsba(ischedule
Activity
p1019
(dp1020
g8
(lp1021
g162
ag177
ag169
aS'40911986'
p1022
ag554
aS'34691309'
p1023
ag939
ag127
ag744
ag457
ag425
ag655
aS'37419523'
p1024
ag659
ag763
aS'90103047'
p1025
aS'32183908'
p1026
aS'21070547'
p1027
asg31
g220
sg33
g221
sg35
g63
sg37
g38
sg39
g324
sba(ischedule
Activity
p1028
(dp1029
g8
(lp1030
g357
ag881
ag115
ag57
ag883
ag529
ag558
ag417
ag884
ag251
ag242
ag886
ag703
ag412
ag887
ag198
ag281
ag521
ag373
ag735
ag819
ag490
ag890
ag891
ag88
ag282
ag439
ag408
ag636
ag590
ag478
ag523
ag594
ag475
ag56
ag893
asg31
S'40'
p1031
sg33
g894
sg35
g36
sg37
g64
sg39
(iread_data
Room
p1032
(dp1033
g31
g146
sg33
g147
sbsba(ischedule
Activity
p1034
(dp1035
g8
g625
sg31
I1000
sg33
g204
sg35
g98
sg37
I0
sg39
g65
sba(ischedule
Activity
p1036
(dp1037
g8
(lp1038
g405
ag882
ag372
ag231
ag239
ag319
ag54
ag827
ag415
ag885
ag180
ag378
ag109
ag350
ag670
ag199
ag888
ag832
ag300
ag889
ag241
ag465
ag407
ag532
ag761
ag534
ag452
ag892
ag673
ag140
ag333
ag674
ag336
ag382
ag121
ag251
ag417
asg31
g925
sg33
g894
sg35
g63
sg37
g38
sg39
(iread_data
Room
p1039
(dp1040
g31
g187
sg33
g188
sbsba(ischedule
Activity
p1041
(dp1042
g8
(lp1043
g414
ag495
ag643
ag645
ag647
ag650
ag508
ag594
ag55
ag656
ag658
ag254
ag661
ag663
ag666
ag668
ag635
ag49
ag535
ag669
ag445
ag626
ag403
ag675
ag425
ag679
ag520
ag682
ag529
ag118
ag60
ag689
ag113
ag653
asg31
g912
sg33
g691
sg35
g36
sg37
g64
sg39
(iread_data
Room
p1044
(dp1045
g31
g224
sg33
g225
sbsbaa(lp1046
(ischedule
Activity
p1047
(dp1048
g8
(lp1049
g192
ag242
ag193
ag194
ag196
ag197
ag198
ag199
ag200
ag264
ag201
ag52
ag202
ag421
ag629
ag630
asg31
g970
sg33
g204
sg35
g63
sg37
g205
sg39
(iread_data
Room
p1050
(dp1051
g31
g146
sg33
g147
sbsba(ischedule
Activity
p1052
(dp1053
g8
(lp1054
g29
ag230
ag219
ag231
ag232
ag233
ag234
ag235
ag236
ag238
ag239
ag240
ag169
ag626
ag317
ag315
asg31
g970
sg33
g204
sg35
g63
sg37
g243
sg39
g324
sba(ischedule
Activity
p1055
(dp1056
g8
(lp1057
g58
ag735
ag179
ag218
ag300
ag561
ag350
ag394
ag290
ag237
ag737
ag489
ag739
ag740
ag741
ag743
ag430
ag559
ag744
ag365
ag418
ag166
ag742
ag23
asg31
S'20'
p1058
sg33
g745
sg35
g36
sg37
g64
sg39
g275
sba(ischedule
Activity
p1059
(dp1060
g8
(lp1061
g193
ag734
ag168
ag333
ag736
ag86
ag557
ag257
ag119
ag738
ag322
ag132
ag16
ag733
asg31
g1058
sg33
g745
sg35
g36
sg37
g38
sg39
g185
sba(ischedule
Activity
p1062
(dp1063
g8
g846
sg31
I1000
sg33
g274
sg35
g98
sg37
I0
sg39
g65
sba(ischedule
Activity
p1064
(dp1065
g8
(lp1066
g281
ag283
ag286
ag288
ag291
ag294
ag238
ag298
ag301
ag282
ag293
asg31
g307
sg33
g303
sg35
g63
sg37
g38
sg39
g615
sbaaa(lp1067
(lp1068
(ischedule
Activity
p1069
(dp1070
g8
(lp1071
g47
ag515
ag77
ag48
ag238
ag484
ag49
ag902
ag648
ag50
ag59
ag760
ag51
ag180
ag219
ag507
ag265
ag761
ag52
ag883
ag126
ag53
ag426
ag287
ag19
ag587
ag762
ag54
ag109
ag24
ag508
ag321
ag763
ag55
ag711
ag557
ag56
ag60
ag764
ag57
ag331
ag445
ag58
ag727
ag412
asg31
I1000
sg33
g62
sg35
g98
sg37
I0
sg39
g275
sba(ischedule
Activity
p1072
(dp1073
g8
(lp1074
g96
ag475
ag15
ag476
ag350
ag330
ag318
ag92
ag478
ag455
ag479
ag480
ag218
ag481
ag335
ag126
ag482
ag249
ag313
ag215
ag483
ag484
ag485
ag486
ag355
ag487
ag488
ag489
ag59
ag450
ag490
ag52
ag491
ag405
ag477
asg31
g183
sg33
g184
sg35
g63
sg37
g64
sg39
g144
sba(ischedule
Activity
p1075
(dp1076
g8
(lp1077
g390
ag391
ag365
ag392
ag393
ag394
ag364
ag280
asg31
g273
sg33
g274
sg35
g63
sg37
g64
sg39
(iread_data
Room
p1078
(dp1079
g31
g208
sg33
g209
sbsba(ischedule
Activity
p1080
(dp1081
g8
(lp1082
g432
ag76
ag761
aS'44151631'
p1083
ag864
ag724
ag266
ag199
ag57
ag22
ag661
ag996
asg31
g787
sg33
g788
sg35
g63
sg37
g64
sg39
g615
sba(ischedule
Activity
p1084
(dp1085
g8
(lp1086
g583
ag121
ag586
ag357
ag140
ag589
ag168
ag591
ag446
ag594
ag596
ag486
ag598
ag12
ag177
ag355
asg31
g798
sg33
g360
sg35
g36
sg37
g205
sg39
g185
sba(ischedule
Activity
p1087
(dp1088
g8
(lp1089
g23
ag584
ag585
ag587
ag588
ag390
ag202
ag193
ag590
ag592
ag440
ag268
ag595
ag597
ag535
ag47
ag599
ag600
ag414
ag121
asg31
g359
sg33
g360
sg35
g63
sg37
g38
sg39
g65
sba(ischedule
Activity
p1090
(dp1091
g8
(lp1092
g347
ag315
ag178
ag349
ag350
ag351
ag352
ag171
ag353
ag354
ag593
ag196
ag356
ag230
ag557
ag58
ag358
asg31
g798
sg33
g360
sg35
g36
sg37
g64
sg39
g470
sbaa(lp1093
(ischedule
Activity
p1094
(dp1095
g8
(lp1096
g645
aS'82968410'
p1097
ag450
ag627
ag83
ag820
ag576
ag1003
ag254
ag1004
ag543
ag77
ag10
ag698
ag658
ag994
ag734
ag135
ag500
aS'52304977'
p1098
ag286
ag530
ag140
ag713
ag294
ag635
aS'72652638'
p1099
ag201
ag128
ag403
ag331
ag523
asg31
I1000
sg33
g1006
sg35
g98
sg37
I0
sg39
g185
sba(ischedule
Activity
p1100
(dp1101
g8
(lp1102
g77
ag484
ag648
ag760
ag219
ag761
ag126
ag287
ag762
ag24
ag763
ag557
ag764
ag445
ag412
ag883
ag51
ag54
asg31
g509
sg33
g62
sg35
g36
sg37
g205
sg39
g615
sba(ischedule
Activity
p1103
(dp1104
g8
g694
sg31
I1000
sg33
g567
sg35
g98
sg37
I0
sg39
g65
sba(ischedule
Activity
p1105
(dp1106
g8
(lp1107
g372
ag87
ag165
ag110
ag259
ag427
ag80
ag373
ag83
ag374
ag348
ag127
ag93
ag521
ag377
ag378
ag523
ag379
ag516
ag498
ag357
ag381
asg31
g610
sg33
g384
sg35
g63
sg37
g64
sg39
(iread_data
Room
p1108
(dp1109
g31
g101
sg33
g102
sbsba(ischedule
Activity
p1110
(dp1111
g8
(lp1112
g434
ag231
ag313
ag85
ag728
ag96
ag517
aS'55480737'
p1113
ag559
aS'51673172'
p1114
ag573
ag181
asg31
g865
sg33
g866
sg35
g63
sg37
g64
sg39
g470
sba(ischedule
Activity
p1115
(dp1116
g8
(lp1117
g527
ag528
ag529
ag530
ag116
ag291
ag532
ag427
ag49
ag267
ag241
ag534
ag290
ag535
ag213
ag193
ag537
ag269
ag54
ag531
ag533
ag300
ag536
asg31
g32
sg33
g34
sg35
g36
sg37
g64
sg39
g144
sba(ischedule
Activity
p1118
(dp1119
g8
(lp1120
g408
ag485
ag652
ag543
ag517
ag347
ag250
ag476
ag159
aS'67625383'
p1121
ag164
ag281
aS'33252501'
p1122
ag587
ag523
ag249
ag421
ag449
ag457
aS'90067329'
p1123
ag441
ag917
asg31
I1000
sg33
S'Machine Learning'
p1124
sg35
g98
sg37
I0
sg39
(iread_data
Room
p1125
(dp1126
g31
g208
sg33
g209
sbsbaa(lp1127
(ischedule
Activity
p1128
(dp1129
g8
(lp1130
g197
ag665
ag681
ag711
ag712
ag498
ag495
ag151
ag352
ag409
ag242
ag717
ag268
ag565
ag718
ag133
ag719
ag322
ag194
ag132
ag545
ag721
ag627
ag723
ag348
ag446
ag726
ag110
ag727
ag588
ag374
ag663
ag720
ag153
ag669
asg31
S'40'
p1131
sg33
g729
sg35
g36
sg37
g64
sg39
(iread_data
Room
p1132
(dp1133
g31
g224
sg33
g225
sbsba(ischedule
Activity
p1134
(dp1135
g8
(lp1136
g428
ag394
ag1016
ag919
ag54
ag233
ag376
aS'64418623'
p1137
ag995
ag1114
ag114
ag172
asg31
g787
sg33
g788
sg35
g63
sg37
g38
sg39
g185
sba(ischedule
Activity
p1138
(dp1139
g8
(lp1140
g280
ag285
ag287
ag290
ag295
ag297
ag300
asg31
g307
sg33
g303
sg35
g63
sg37
g64
sg39
(iread_data
Room
p1141
(dp1142
g31
g42
sg33
g43
sbsba(ischedule
Activity
p1143
(dp1144
g8
(lp1145
g515
ag516
ag517
ag518
ag519
ag402
ag364
ag294
ag520
ag238
ag498
ag452
ag25
ag401
ag522
ag357
ag199
ag523
ag125
ag521
ag80
ag427
asg31
g383
sg33
g384
sg35
g36
sg37
g38
sg39
(iread_data
Room
p1146
(dp1147
g31
g67
sg33
g68
sbsba(ischedule
Activity
p1148
(dp1149
g8
(lp1150
g259
ag627
ag129
ag376
ag628
ag108
ag497
ag537
ag323
ag247
ag86
ag330
ag631
ag195
asg31
g970
sg33
g204
sg35
g63
sg37
g64
sg39
g324
sba(ischedule
Activity
p1151
(dp1152
g8
g1071
sg31
I1000
sg33
g62
sg35
g98
sg37
I0
sg39
(iread_data
Room
p1153
(dp1154
g31
g146
sg33
g147
sbsbaa(lp1155
(ischedule
Activity
p1156
(dp1157
g8
(lp1158
g887
ag170
aS'53267490'
p1159
ag994
ag248
ag726
ag16
ag72
ag626
ag77
ag591
ag174
ag163
ag661
asg31
g940
sg33
g941
sg35
g63
sg37
g205
sg39
(iread_data
Room
p1160
(dp1161
g31
g42
sg33
g43
sbsba(ischedule
Activity
p1162
(dp1163
g8
(lp1164
g475
ag15
ag476
ag350
ag330
ag318
ag92
ag478
ag455
ag479
ag480
ag218
ag481
ag335
ag126
ag482
ag249
ag313
ag215
ag483
ag484
ag485
ag486
ag355
ag488
ag489
ag59
ag490
ag52
ag491
ag156
ag167
ag166
ag152
ag171
ag164
asg31
g954
sg33
g184
sg35
g36
sg37
g64
sg39
g185
sba(ischedule
Activity
p1165
(dp1166
g8
g71
sg31
I1000
sg33
g97
sg35
g98
sg37
I0
sg39
g615
sba(ischedule
Activity
p1167
(dp1168
g8
(lp1169
g405
ag882
ag372
ag231
ag239
ag319
ag54
ag827
ag415
ag885
ag180
ag378
ag109
ag350
ag670
ag199
ag888
ag832
ag300
ag889
ag169
ag241
ag329
ag465
ag407
ag532
ag761
ag534
ag452
ag892
ag673
ag140
ag333
ag674
ag336
ag382
ag121
ag50
ag680
asg31
g1031
sg33
g894
sg35
g36
sg37
g38
sg39
g65
sba(ischedule
Activity
p1170
(dp1171
g8
(lp1172
g583
ag586
ag58
ag140
ag589
ag168
ag591
ag557
ag446
ag594
ag596
ag486
ag598
ag177
ag593
asg31
g359
sg33
g360
sg35
g63
sg37
g205
sg39
(iread_data
Room
p1173
(dp1174
g31
g208
sg33
g209
sbsba(ischedule
Activity
p1175
(dp1176
g8
(lp1177
g106
ag108
ag110
ag112
ag114
ag115
ag117
ag119
ag121
ag123
ag125
ag127
ag129
ag131
ag133
ag134
ag136
ag138
ag142
ag135
ag120
ag141
asg31
g843
sg33
g143
sg35
g36
sg37
g64
sg39
(iread_data
Room
p1178
(dp1179
g31
g101
sg33
g102
sbsba(ischedule
Activity
p1180
(dp1181
g8
(lp1182
g280
ag282
ag285
ag287
ag295
ag297
ag300
ag298
ag299
asg31
g614
sg33
g303
sg35
g36
sg37
g64
sg39
(iread_data
Room
p1183
(dp1184
g31
g146
sg33
g147
sbsbaa(lp1185
(ischedule
Activity
p1186
(dp1187
g8
g1071
sg31
I1000
sg33
g62
sg35
g98
sg37
I0
sg39
g65
sba(ischedule
Activity
p1188
(dp1189
g8
g1120
sg31
I1000
sg33
g1124
sg35
g98
sg37
I0
sg39
(iread_data
Room
p1190
(dp1191
g31
g42
sg33
g43
sbsba(ischedule
Activity
p1192
(dp1193
g8
(lp1194
g902
aS'14637758'
p1195
ag352
ag763
ag535
ag545
ag673
ag26
aS'18477924'
p1196
aS'58480929'
p1197
ag929
ag936
ag920
ag197
aS'78822885'
p1198
ag436
ag688
ag561
ag409
ag555
ag135
ag58
ag677
ag560
aS'73350019'
p1199
ag174
ag529
ag534
ag994
ag559
ag863
ag681
ag627
ag564
ag415
ag482
ag666
ag393
ag671
aS'97838175'
p1200
aS'82854435'
p1201
ag282
ag726
ag724
ag558
ag635
ag889
ag28
ag250
asg31
I1000
sg33
S'Analysemethoden en -technieken'
p1202
sg35
g98
sg37
I0
sg39
g185
sba(ischedule
Activity
p1203
(dp1204
g8
(lp1205
g450
ag83
ag576
ag543
ag10
ag658
ag734
ag1099
ag128
ag331
ag1097
ag1098
ag713
ag254
asg31
g1005
sg33
g1006
sg35
g36
sg37
g64
sg39
(iread_data
Room
p1206
(dp1207
g31
g146
sg33
g147
sbsba(ischedule
Activity
p1208
(dp1209
g8
(lp1210
g318
ag647
ag574
ag47
ag73
ag294
ag23
ag713
ag334
ag196
ag315
ag321
ag716
ag485
ag679
ag230
ag335
ag636
ag165
ag392
ag695
ag655
ag479
ag259
ag722
ag500
ag724
ag725
ag685
ag19
ag49
ag129
ag728
ag714
ag25
ag445
ag715
asg31
g1131
sg33
g729
sg35
g36
sg37
g38
sg39
(iread_data
Room
p1211
(dp1212
g31
g101
sg33
g102
sbsbaaa(lp1213
(lp1214
a(lp1215
a(lp1216
a(lp1217
a(lp1218
aasS'timeslot_dict'
p1219
(dp1220
I0
S'9:00-11:00'
p1221
sI1
S'11:00-13:00'
p1222
sI2
S'13:00-15:00'
p1223
sI3
S'15:00-17:00'
p1224
sI4
S'17:00-19:00'
p1225
ssS'day_dict'
p1226
(dp1227
I0
S'Monday'
p1228
sI1
S'Tuesday'
p1229
sI2
S'Wednesday'
p1230
sI3
S'Thursday'
p1231
sI4
S'Friday'
p1232
ssb.