(ischedule
Schedule
p0
(dp1
S'timetable'
p2
(lp3
(lp4
(lp5
(ischedule
Activity
p6
(dp7
S'participants'
p8
(lp9
S'64393888'
p10
aS'64228258'
p11
aS'61443567'
p12
aS'17222374'
p13
aS'87758823'
p14
aS'45556081'
p15
aS'86000192'
p16
aS'62701040'
p17
aS'50143947'
p18
aS'3233378'
p19
aS'75521763'
p20
aS'76123484'
p21
aS'58522654'
p22
aS'86291592'
p23
aS'5517869'
p24
aS'1696500'
p25
aS'34773179'
p26
aS'51741554'
p27
aS'17575088'
p28
aS'31416266'
p29
aS'29640619'
p30
aS'24277163'
p31
aS'4783858'
p32
aS'97135019'
p33
aS'7308727'
p34
aS'82689818'
p35
aS'26406342'
p36
aS'13092455'
p37
aS'35330349'
p38
aS'64296965'
p39
aS'77896638'
p40
aS'73980360'
p41
aS'72577292'
p42
aS'1075391'
p43
aS'53107172'
p44
aS'21964491'
p45
aS'46052388'
p46
aS'15902055'
p47
aS'23547619'
p48
aS'33760909'
p49
aS'43027916'
p50
aS'9332762'
p51
aS'54310617'
p52
aS'48601268'
p53
aS'42196732'
p54
aS'42778953'
p55
aS'22699561'
p56
aS'37770881'
p57
aS'68601184'
p58
aS'42171678'
p59
aS'57595888'
p60
aS'1665980'
p61
aS'29474737'
p62
aS'60312776'
p63
aS'65960683'
p64
aS'96104167'
p65
aS'13534377'
p66
aS'28357474'
p67
aS'50184318'
p68
aS'77240949'
p69
aS'25106480'
p70
asS'capacity'
p71
I1000
sS'name'
p72
S'Collectieve Intelligentie'
p73
sS'ttype'
p74
S'lectures'
p75
sS'group_id'
p76
I0
sS'room'
p77
(iread_data
Room
p78
(dp79
g71
S'117'
p80
sg72
S'C0.110'
p81
sbsba(ischedule
Activity
p82
(dp83
g8
(lp84
S'27950803'
p85
aS'68286356'
p86
aS'42406214'
p87
aS'61518436'
p88
ag31
ag37
aS'49922855'
p89
aS'90474003'
p90
aS'92778619'
p91
aS'99453514'
p92
aS'27805666'
p93
aS'37399898'
p94
aS'20239127'
p95
aS'27370083'
p96
aS'13718298'
p97
aS'87830198'
p98
aS'3685034'
p99
aS'4709948'
p100
aS'99975346'
p101
aS'22871048'
p102
aS'54569540'
p103
aS'36785409'
p104
aS'57086672'
p105
aS'33776961'
p106
aS'84524083'
p107
aS'77392404'
p108
aS'43680781'
p109
aS'41578612'
p110
aS'86988337'
p111
aS'52715680'
p112
aS'51052738'
p113
aS'13658563'
p114
aS'84449005'
p115
aS'38296757'
p116
aS'20095994'
p117
aS'70193386'
p118
aS'78136904'
p119
aS'77960666'
p120
aS'59753700'
p121
aS'96554914'
p122
aS'32044893'
p123
aS'70844780'
p124
aS'37110913'
p125
aS'60352393'
p126
aS'60661905'
p127
aS'22826928'
p128
aS'82390428'
p129
aS'36213792'
p130
aS'6913074'
p131
aS'51415617'
p132
aS'5298748'
p133
asg71
I1000
sg72
S'Reflectie op de digitale cultuur'
p134
sg74
g75
sg76
I0
sg77
(iread_data
Room
p135
(dp136
g71
S'56'
p137
sg72
S'A1.10'
p138
sbsba(ischedule
Activity
p139
(dp140
g8
(lp141
S'27298319'
p142
aS'53139134'
p143
aS'79167252'
p144
aS'47932106'
p145
aS'56544130'
p146
aS'65978354'
p147
aS'72526473'
p148
aS'14179347'
p149
aS'32705005'
p150
aS'11593163'
p151
aS'55530367'
p152
aS'58592894'
p153
aS'27925117'
p154
aS'27064249'
p155
aS'3678531'
p156
aS'87602030'
p157
aS'14591033'
p158
aS'37279234'
p159
aS'83266686'
p160
aS'58253841'
p161
aS'12091019'
p162
aS'76661016'
p163
aS'80188025'
p164
aS'38179241'
p165
aS'78443067'
p166
aS'88752563'
p167
aS'6723948'
p168
aS'34173695'
p169
aS'75997788'
p170
aS'86807027'
p171
aS'70939718'
p172
asg71
S'40'
p173
sg72
S'Calculus 2'
p174
sg74
S'tutorials'
p175
sg76
S'2'
p176
sg77
(iread_data
Room
p177
(dp178
g71
S'48'
p179
sg72
S'B0.201'
p180
sbsba(ischedule
Activity
p181
(dp182
g8
(lp183
S'51566595'
p184
aS'81200278'
p185
aS'81022997'
p186
aS'37744525'
p187
aS'25330192'
p188
asg71
S'10'
p189
sg72
S'Data Mining'
p190
sg74
g175
sg76
g176
sg77
(iread_data
Room
p191
(dp192
g71
S'22'
p193
sg72
S'A1.06'
p194
sbsba(ischedule
Activity
p195
(dp196
g8
(lp197
S'23628642'
p198
aS'6709529'
p199
aS'23658570'
p200
aS'94686490'
p201
aS'72665524'
p202
aS'27187154'
p203
aS'75585647'
p204
aS'14303208'
p205
aS'58040377'
p206
aS'46701583'
p207
aS'16097870'
p208
aS'62105897'
p209
aS'93361408'
p210
aS'65408517'
p211
aS'81155296'
p212
aS'6939933'
p213
aS'22168693'
p214
aS'61520025'
p215
aS'55412918'
p216
aS'40141996'
p217
aS'58699305'
p218
aS'62363761'
p219
aS'19717077'
p220
aS'86180471'
p221
aS'79888156'
p222
aS'78735049'
p223
aS'44868097'
p224
aS'47477884'
p225
aS'45915482'
p226
aS'58469172'
p227
aS'56348773'
p228
aS'26260141'
p229
aS'48357272'
p230
aS'59220392'
p231
aS'10149535'
p232
ag116
aS'88855695'
p233
asg71
g173
sg72
g174
sg74
g175
sg76
S'3'
p234
sg77
(iread_data
Room
p235
(dp236
g71
S'60'
p237
sg72
S'C1.112'
p238
sbsba(ischedule
Activity
p239
(dp240
g8
(lp241
S'4568018'
p242
aS'21029457'
p243
aS'79617364'
p244
asg71
S'20'
p245
sg72
S'Bioinformatica'
p246
sg74
S'labs'
p247
sg76
g176
sg77
(iread_data
Room
p248
(dp249
g71
S'41'
p250
sg72
S'A1.04'
p251
sbsba(ischedule
Activity
p252
(dp253
g8
(lp254
S'70878567'
p255
aS'13116738'
p256
aS'68315599'
p257
aS'77636749'
p258
aS'58332004'
p259
aS'8557857'
p260
aS'32204977'
p261
aS'36748818'
p262
asg71
S'15'
p263
sg72
S'Informatie- en organsatieontwerp'
p264
sg74
g247
sg76
S'1'
p265
sg77
(iread_data
Room
p266
(dp267
g71
S'20'
p268
sg72
S'A1.08'
p269
sbsbaa(lp270
(ischedule
Activity
p271
(dp272
g8
(lp273
S'51593625'
p274
aS'1048485'
p275
aS'27582862'
p276
aS'31103066'
p277
aS'33877725'
p278
aS'95631564'
p279
ag30
aS'82872148'
p280
aS'52552718'
p281
ag19
aS'58074656'
p282
aS'42115591'
p283
ag211
ag112
aS'59544049'
p284
aS'3727435'
p285
aS'89338938'
p286
aS'14671406'
p287
aS'83210352'
p288
ag242
aS'14072826'
p289
aS'5976174'
p290
aS'68409833'
p291
aS'54026378'
p292
aS'75599734'
p293
ag32
aS'41153310'
p294
ag102
ag70
aS'80709893'
p295
ag53
ag229
aS'31633723'
p296
aS'40343779'
p297
ag122
ag209
aS'78243495'
p298
ag85
ag166
aS'84110134'
p299
aS'99283252'
p300
aS'44671041'
p301
aS'73236988'
p302
aS'4546613'
p303
ag230
aS'73302736'
p304
aS'94467156'
p305
aS'14309255'
p306
ag224
aS'43460038'
p307
aS'70015932'
p308
aS'58565406'
p309
ag63
aS'41527759'
p310
aS'61060652'
p311
aS'89180944'
p312
aS'77376714'
p313
aS'11915563'
p314
ag67
aS'9287708'
p315
ag97
aS'22323043'
p316
aS'62356458'
p317
aS'31247305'
p318
aS'65318664'
p319
ag226
ag187
aS'37830626'
p320
aS'52311353'
p321
ag18
aS'21095566'
p322
aS'88176729'
p323
aS'89985072'
p324
aS'11068043'
p325
aS'55474917'
p326
asg71
I1000
sg72
S'Software engineering'
p327
sg74
g75
sg76
I0
sg77
(iread_data
Room
p328
(dp329
g71
g80
sg72
g81
sbsba(ischedule
Activity
p330
(dp331
g8
(lp332
S'96054456'
p333
aS'39459642'
p334
aS'51542218'
p335
ag39
aS'56749879'
p336
aS'49631542'
p337
ag31
ag184
aS'72796858'
p338
ag40
aS'3168419'
p339
ag90
aS'73823548'
p340
ag24
ag201
aS'25077484'
p341
aS'34872117'
p342
aS'72456780'
p343
aS'56872729'
p344
aS'13132925'
p345
ag259
ag153
aS'670011'
p346
ag35
ag200
ag54
ag50
ag37
ag217
aS'64947290'
p347
aS'43902015'
p348
ag13
aS'14816774'
p349
aS'58083680'
p350
ag126
aS'59397895'
p351
ag162
aS'29526540'
p352
ag225
aS'5085194'
p353
aS'5526560'
p354
aS'56191333'
p355
aS'40434933'
p356
aS'11996292'
p357
aS'46989508'
p358
ag221
aS'54540997'
p359
aS'247918'
p360
aS'57467488'
p361
aS'27123462'
p362
ag120
ag36
ag111
aS'70072978'
p363
aS'4529208'
p364
aS'26207525'
p365
aS'23257088'
p366
ag167
aS'75005528'
p367
asg71
S'40'
p368
sg72
S'Databases 2'
p369
sg74
g175
sg76
g176
sg77
(iread_data
Room
p370
(dp371
g71
g237
sg72
g238
sbsba(ischedule
Activity
p372
(dp373
g8
(lp374
S'5368702'
p375
ag212
aS'20374340'
p376
aS'28055464'
p377
aS'76924297'
p378
aS'21677389'
p379
ag303
aS'37701751'
p380
aS'64768422'
p381
aS'66034145'
p382
aS'93566383'
p383
ag185
ag165
aS'34765676'
p384
aS'69634191'
p385
ag163
ag94
aS'44828429'
p386
aS'19214659'
p387
aS'14847953'
p388
aS'81385263'
p389
aS'65675896'
p390
ag48
aS'3707829'
p391
aS'2550487'
p392
asg71
I1000
sg72
S'Interactie-ontwerp'
p393
sg74
g75
sg76
I0
sg77
(iread_data
Room
p394
(dp395
g71
g179
sg72
g180
sbsba(ischedule
Activity
p396
(dp397
g8
(lp398
S'44901052'
p399
asg71
S'10'
p400
sg72
S'Autonomous Agents 2'
p401
sg74
g175
sg76
g176
sg77
(iread_data
Room
p402
(dp403
g71
g137
sg72
g138
sbsba(ischedule
Activity
p404
(dp405
g8
(lp406
S'75680261'
p407
asg71
S'15'
p408
sg72
S'Project Genetic Algorithms'
p409
sg74
g247
sg76
g176
sg77
(iread_data
Room
p410
(dp411
g71
g268
sg72
g269
sbsba(ischedule
Activity
p412
(dp413
g8
(lp414
g45
ag55
ag34
ag44
ag42
ag22
ag16
ag38
ag66
ag64
ag17
ag68
asg71
S'20'
p415
sg72
g73
sg74
g247
sg76
g176
sg77
(iread_data
Room
p416
(dp417
g71
g193
sg72
g194
sbsbaa(lp418
(ischedule
Activity
p419
(dp420
g8
(lp421
g122
ag285
ag316
ag274
ag32
ag322
ag305
ag224
ag324
ag283
ag293
ag313
ag230
ag319
ag303
ag290
ag298
ag284
ag311
ag229
ag314
ag70
ag276
ag277
ag63
ag19
ag297
ag18
ag279
ag289
ag320
ag275
ag325
ag211
ag304
ag288
ag97
ag291
ag296
ag323
ag287
asg71
S'40'
p422
sg72
g327
sg74
g247
sg76
g265
sg77
(iread_data
Room
p423
(dp424
g71
g80
sg72
g81
sbsba(ischedule
Activity
p425
(dp426
g8
(lp427
g281
ag282
ag326
ag102
ag85
ag67
ag278
ag242
ag302
ag299
ag301
ag280
ag226
ag321
ag318
ag317
ag166
ag286
ag30
ag315
ag306
ag294
ag308
ag309
ag295
ag209
ag53
ag312
ag112
ag187
ag292
ag310
ag300
ag307
asg71
g422
sg72
g327
sg74
g247
sg76
g176
sg77
(iread_data
Room
p428
(dp429
g71
g237
sg72
g238
sbsba(ischedule
Activity
p430
(dp431
g8
(lp432
g202
aS'34243356'
p433
ag399
aS'18266644'
p434
aS'9731271'
p435
aS'62736669'
p436
aS'72586808'
p437
ag365
ag35
ag379
ag27
ag361
aS'5590289'
p438
aS'53267490'
p439
aS'36903574'
p440
ag219
ag172
aS'12170832'
p441
aS'54772132'
p442
ag185
ag100
asg71
S'20'
p443
sg72
S'Netwerken en systeembeveiliging'
p444
sg74
g247
sg76
g265
sg77
(iread_data
Room
p445
(dp446
g71
g193
sg72
g194
sbsba(ischedule
Activity
p447
(dp448
g8
(lp449
g69
ag43
ag39
ag51
ag22
ag66
ag49
ag59
ag31
ag55
asg71
S'20'
p450
sg72
g73
sg74
g175
sg76
g234
sg77
(iread_data
Room
p451
(dp452
g71
g250
sg72
g251
sbsba(ischedule
Activity
p453
(dp454
g8
(lp455
g109
ag133
ag88
ag93
ag130
ag113
ag90
ag117
ag126
asg71
S'20'
p456
sg72
g134
sg74
g175
sg76
g265
sg77
(iread_data
Room
p457
(dp458
g71
g268
sg72
g269
sbsba(ischedule
Activity
p459
(dp460
g8
(lp461
g45
aS'13996448'
p462
ag336
aS'94687383'
p463
aS'80135353'
p464
aS'22288615'
p465
ag206
ag23
ag334
aS'23215240'
p466
aS'92977271'
p467
ag227
aS'97019450'
p468
aS'63096281'
p469
ag58
aS'64600457'
p470
aS'12782624'
p471
aS'26857113'
p472
aS'8464817'
p473
aS'88519892'
p474
aS'23983476'
p475
ag106
ag12
aS'38499176'
p476
aS'79879876'
p477
ag363
ag91
aS'91196968'
p478
asg71
S'20'
p479
sg72
S'Programmeren in Java 2'
p480
sg74
g247
sg76
S'4'
p481
sg77
(iread_data
Room
p482
(dp483
g71
g179
sg72
g180
sbsba(ischedule
Activity
p484
(dp485
g8
(lp486
S'85335143'
p487
aS'15051051'
p488
aS'20883994'
p489
ag352
aS'22731474'
p490
ag339
asg71
S'20'
p491
sg72
g246
sg74
g175
sg76
g176
sg77
(iread_data
Room
p492
(dp493
g71
g137
sg72
g138
sbsbaa(lp494
(ischedule
Activity
p495
(dp496
g8
(lp497
g308
aS'20331158'
p498
ag154
aS'13798030'
p499
aS'23798155'
p500
aS'14138904'
p501
aS'59289233'
p502
ag307
ag312
ag42
ag232
aS'28618400'
p503
aS'58866007'
p504
aS'72683344'
p505
aS'49683101'
p506
aS'29718115'
p507
ag160
ag356
ag342
ag15
ag35
asg71
I1000
sg72
S'Architectuur en computerorganisatie'
p508
sg74
g75
sg76
I0
sg77
(iread_data
Room
p509
(dp510
g71
g193
sg72
g194
sbsba(ischedule
Activity
p511
(dp512
g8
(lp513
g114
ag311
aS'81218347'
p514
ag20
ag44
aS'71839156'
p515
ag399
ag158
aS'97417002'
p516
ag501
aS'98105190'
p517
aS'45660925'
p518
aS'53775014'
p519
aS'20830477'
p520
aS'4353500'
p521
ag59
aS'66122625'
p522
ag316
aS'83443653'
p523
ag171
aS'94930277'
p524
ag336
ag477
ag230
ag349
ag170
aS'58736785'
p525
ag361
aS'76393508'
p526
ag102
aS'59075181'
p527
ag440
aS'31897288'
p528
ag242
ag125
aS'87210640'
p529
aS'19858730'
p530
ag468
ag25
aS'14941752'
p531
ag32
ag467
ag357
ag498
asg71
I1000
sg72
S'Heuristieken 1'
p532
sg74
g75
sg76
I0
sg77
(iread_data
Room
p533
(dp534
g71
g137
sg72
g138
sbsba(ischedule
Activity
p535
(dp536
g8
(lp537
S'92665222'
p538
aS'75664412'
p539
aS'79033175'
p540
ag85
aS'11741347'
p541
ag389
ag22
ag64
ag55
ag163
aS'7957843'
p542
aS'65852230'
p543
aS'9067939'
p544
ag293
aS'13911001'
p545
aS'34110913'
p546
ag314
aS'48308205'
p547
ag57
ag257
aS'66701209'
p548
ag473
ag306
ag358
aS'76802764'
p549
aS'24613625'
p550
aS'12077419'
p551
asg71
S'40'
p552
sg72
S'Compilerbouw'
p553
sg74
g175
sg76
g265
sg77
(iread_data
Room
p554
(dp555
g71
g237
sg72
g238
sbsba(ischedule
Activity
p556
(dp557
g8
(lp558
S'1886996'
p559
aS'15249775'
p560
ag184
ag384
aS'85236626'
p561
ag101
aS'63634350'
p562
ag49
aS'35315956'
p563
ag105
ag12
aS'72652638'
p564
aS'5739011'
p565
ag154
ag290
aS'48678993'
p566
ag298
ag525
ag346
ag206
aS'7106649'
p567
ag157
ag107
aS'52304977'
p568
ag490
ag50
aS'83869542'
p569
ag185
ag528
aS'82968410'
p570
ag208
ag186
asg71
I1000
sg72
S'Heuristieken 2'
p571
sg74
g75
sg76
I0
sg77
(iread_data
Room
p572
(dp573
g71
g80
sg72
g81
sbsba(ischedule
Activity
p574
(dp575
g8
(lp576
g111
ag442
aS'54395877'
p577
aS'4921119'
p578
aS'88263855'
p579
aS'10702778'
p580
aS'64053722'
p581
aS'73196865'
p582
ag40
aS'90296821'
p583
aS'17823206'
p584
ag10
ag120
ag203
ag276
aS'83415514'
p585
aS'34262212'
p586
ag30
ag326
ag168
aS'2317551'
p587
ag209
aS'48503689'
p588
aS'20618153'
p589
ag383
ag131
ag225
aS'2416751'
p590
ag366
ag187
ag128
aS'94955328'
p591
aS'47982619'
p592
aS'51791169'
p593
ag200
aS'53585410'
p594
aS'7492204'
p595
ag435
aS'73893840'
p596
ag29
aS'34900967'
p597
ag94
ag275
asg71
g479
sg72
g480
sg74
g247
sg76
S'5'
p598
sg77
(iread_data
Room
p599
(dp600
g71
g179
sg72
g180
sbsba(ischedule
Activity
p601
(dp602
g8
(lp603
g334
aS'74131924'
p604
ag24
aS'61611295'
p605
aS'34806836'
p606
asg71
S'10'
p607
sg72
g401
sg74
g247
sg76
g176
sg77
(iread_data
Room
p608
(dp609
g71
g268
sg72
g269
sbsba(ischedule
Activity
p610
(dp611
g8
(lp612
S'88597745'
p613
ag305
ag16
asg71
g479
sg72
g480
sg74
g247
sg76
g265
sg77
(iread_data
Room
p614
(dp615
g71
g250
sg72
g251
sbsbaa(lp616
(ischedule
Activity
p617
(dp618
g8
(lp619
g548
aS'10792879'
p620
aS'3407554'
p621
ag163
aS'72895450'
p622
ag306
ag538
aS'1766560'
p623
ag40
ag551
ag463
aS'44391517'
p624
ag314
ag338
ag375
ag358
ag144
ag545
ag63
ag464
aS'95007221'
p625
ag55
ag587
ag433
ag540
aS'15911353'
p626
ag517
aS'13284244'
p627
aS'40791377'
p628
ag57
ag302
ag160
ag539
aS'2079771'
p629
ag544
ag588
ag85
aS'53202517'
p630
ag167
aS'88636924'
p631
ag279
ag233
aS'30658799'
p632
ag64
ag473
ag542
ag541
ag293
ag257
ag342
aS'31194811'
p633
ag107
ag203
ag549
ag543
ag22
aS'43689934'
p634
ag442
ag168
ag550
ag334
ag111
ag546
ag506
ag547
ag23
aS'75759231'
p635
ag389
aS'5595824'
p636
asg71
I1000
sg72
g553
sg74
g75
sg76
I0
sg77
(iread_data
Room
p637
(dp638
g71
g237
sg72
g238
sbsba(ischedule
Activity
p639
(dp640
g8
(lp641
g365
ag367
ag343
ag362
ag366
ag36
ag336
ag340
ag111
ag259
ag31
ag50
ag35
ag357
ag339
aS'56121590'
p642
ag360
ag353
ag356
ag90
ag348
ag30
ag346
ag184
ag344
ag24
ag54
ag363
ag364
ag40
ag347
aS'91527663'
p643
ag162
ag333
ag349
ag355
ag217
ag145
ag359
ag334
ag39
ag335
ag21
ag221
ag37
ag361
ag201
ag13
ag225
ag354
ag281
aS'15187217'
p644
ag338
ag358
ag153
aS'17092717'
p645
ag380
ag126
aS'78821918'
p646
ag351
ag120
ag352
ag569
ag341
ag337
ag200
ag345
ag167
ag350
ag342
ag436
ag578
asg71
I1000
sg72
g369
sg74
g75
sg76
I0
sg77
(iread_data
Room
p647
(dp648
g71
g80
sg72
g81
sbsba(ischedule
Activity
p649
(dp650
g8
(lp651
g42
ag388
ag155
ag124
aS'40633534'
p652
ag171
ag48
ag489
asg71
S'10'
p653
sg72
S'Advanced Heuristics'
p654
sg74
g247
sg76
g176
sg77
(iread_data
Room
p655
(dp656
g71
g193
sg72
g194
sbsba(ischedule
Activity
p657
(dp658
g8
(lp659
g110
ag125
ag20
ag109
ag487
ag104
ag551
aS'12430748'
p660
aS'92496780'
p661
ag261
ag316
aS'4697362'
p662
aS'76487754'
p663
asg71
S'20'
p664
sg72
S'Technology for games'
p665
sg74
g175
sg76
g176
sg77
(iread_data
Room
p666
(dp667
g71
g268
sg72
g269
sbsba(ischedule
Activity
p668
(dp669
g8
(lp670
g478
ag255
ag45
ag187
ag522
aS'87314964'
p671
ag92
ag188
aS'87900893'
p672
ag186
aS'97136582'
p673
asg71
S'10'
p674
sg72
g190
sg74
g247
sg76
g265
sg77
(iread_data
Room
p675
(dp676
g71
g137
sg72
g138
sbsba(ischedule
Activity
p677
(dp678
g8
(lp679
g209
ag224
ag226
ag303
ag166
ag229
ag211
ag32
ag304
ag230
ag280
ag318
ag282
ag298
ag283
ag305
ag288
ag242
ag102
ag325
ag309
ag312
ag70
ag320
ag326
ag290
ag310
ag278
ag284
ag307
ag313
ag322
ag321
ag295
asg71
S'40'
p680
sg72
g327
sg74
g175
sg76
g265
sg77
(iread_data
Room
p681
(dp682
g71
g179
sg72
g180
sbsbaaa(lp683
(lp684
(ischedule
Activity
p685
(dp686
g8
(lp687
g440
ag142
ag184
ag47
ag35
ag119
aS'8522855'
p688
aS'3474870'
p689
ag45
ag643
ag310
aS'64554442'
p690
ag18
aS'88596522'
p691
ag313
aS'66433883'
p692
ag391
ag622
ag61
aS'41585485'
p693
ag594
ag347
ag229
asg71
S'25'
p694
sg72
S'Algoritmen en complexiteit'
p695
sg74
g247
sg76
g176
sg77
(iread_data
Room
p696
(dp697
g71
g237
sg72
g238
sbsba(ischedule
Activity
p698
(dp699
g8
(lp700
g12
ag298
ag107
ag208
ag568
ag101
ag563
ag528
asg71
S'20'
p701
sg72
g571
sg74
g175
sg76
g265
sg77
(iread_data
Room
p702
(dp703
g71
g268
sg72
g269
sbsba(ischedule
Activity
p704
(dp705
g8
(lp706
S'21192048'
p707
ag660
aS'93041523'
p708
ag261
ag547
ag633
ag567
ag592
aS'14383795'
p709
ag309
ag110
aS'69086548'
p710
ag306
aS'77264363'
p711
ag48
ag257
ag36
ag357
aS'70336464'
p712
ag232
ag356
ag51
ag20
ag661
ag104
aS'6249823'
p713
ag487
ag286
ag662
ag399
aS'97371272'
p714
ag551
ag125
ag109
ag663
ag258
ag539
ag316
asg71
I1000
sg72
g665
sg74
g75
sg76
I0
sg77
(iread_data
Room
p715
(dp716
g71
g250
sg72
g251
sbsba(ischedule
Activity
p717
(dp718
g8
(lp719
g321
ag462
aS'19337738'
p720
aS'98780382'
p721
ag121
ag584
aS'68360259'
p722
ag256
ag185
ag604
asg71
g674
sg72
g190
sg74
g247
sg76
g234
sg77
(iread_data
Room
p723
(dp724
g71
g179
sg72
g180
sbsba(ischedule
Activity
p725
(dp726
g8
(lp727
g501
ag361
ag102
ag498
ag530
ag32
ag467
ag349
ag170
ag171
ag114
ag518
ag230
ag520
ag517
ag526
ag521
ag125
ag59
ag44
ag514
ag242
ag399
ag516
ag529
ag515
ag477
ag158
ag522
ag519
ag468
ag25
ag523
ag525
asg71
S'25'
p728
sg72
g532
sg74
g175
sg76
g176
sg77
(iread_data
Room
p729
(dp730
g71
g80
sg72
g81
sbsba(ischedule
Activity
p731
(dp732
g8
(lp733
g470
aS'30195935'
p734
ag292
aS'77831658'
p735
aS'96453361'
p736
ag22
ag302
ag360
ag333
asg71
g491
sg72
g246
sg74
g175
sg76
g234
sg77
(iread_data
Room
p737
(dp738
g71
g193
sg72
g194
sbsba(ischedule
Activity
p739
(dp740
g8
(lp741
g203
ag488
ag628
ag116
ag561
ag629
aS'67625383'
p742
aS'63111000'
p743
ag207
aS'33252501'
p744
ag506
ag69
ag99
aS'56988998'
p745
ag472
ag290
ag334
ag500
ag187
ag88
aS'90067329'
p746
ag305
asg71
I1000
sg72
S'Machine Learning'
p747
sg74
g75
sg76
I0
sg77
(iread_data
Room
p748
(dp749
g71
g137
sg72
g138
sbsbaa(lp750
(ischedule
Activity
p751
(dp752
g8
(lp753
g216
ag433
ag24
ag311
ag578
ag288
ag321
ag110
ag476
aS'74182182'
p754
aS'54074680'
p755
ag14
ag515
ag158
ag514
ag591
ag55
aS'66570705'
p756
aS'34588570'
p757
ag94
ag326
aS'16333449'
p758
aS'36527838'
p759
ag295
ag40
aS'80998260'
p760
ag29
ag547
ag344
aS'26172512'
p761
ag478
aS'32595335'
p762
aS'96118484'
p763
aS'21311067'
p764
ag283
aS'36508571'
p765
ag389
ag244
aS'23565001'
p766
aS'16011419'
p767
ag504
ag291
ag689
ag232
ag383
ag208
aS'90743504'
p768
ag38
ag201
aS'62872965'
p769
ag346
ag54
aS'79937969'
p770
ag367
asg71
I1000
sg72
S'Lineaire Algebra'
p771
sg74
g75
sg76
I0
sg77
(iread_data
Room
p772
(dp773
g71
g237
sg72
g238
sbsba(ischedule
Activity
p774
(dp775
g8
(lp776
g36
ag18
ag48
ag41
ag70
ag51
ag67
ag37
ag19
ag56
ag47
ag10
ag27
asg71
g415
sg72
g73
sg74
g247
sg76
g234
sg77
(iread_data
Room
p777
(dp778
g71
g268
sg72
g269
sbsba(ischedule
Activity
p779
(dp780
g8
(lp781
g736
ag302
ag224
ag255
ag242
ag109
ag45
ag34
ag470
ag133
ag360
ag131
aS'56815156'
p782
ag735
ag488
ag323
ag336
ag734
ag292
ag489
ag333
ag490
ag244
ag278
aS'30050930'
p783
ag324
ag630
aS'33930505'
p784
ag243
ag128
aS'66120270'
p785
ag339
ag325
ag185
ag487
ag349
ag284
ag352
aS'28359697'
p786
ag168
ag604
ag22
ag54
ag550
ag158
asg71
I1000
sg72
g246
sg74
g75
sg76
I0
sg77
(iread_data
Room
p787
(dp788
g71
g137
sg72
g138
sbsba(ischedule
Activity
p789
(dp790
g8
(lp791
S'5615125'
p792
ag758
aS'76903244'
p793
ag278
aS'28358060'
p794
aS'10698627'
p795
ag645
ag42
aS'39230359'
p796
aS'1137946'
p797
ag307
ag298
ag105
ag589
aS'53512831'
p798
ag630
ag713
aS'76648468'
p799
ag356
ag465
ag348
ag12
ag21
aS'24891081'
p800
ag388
ag108
aS'41790793'
p801
ag312
ag524
ag590
ag155
ag205
ag622
aS'69459473'
p802
aS'49908313'
p803
ag689
ag11
aS'67073567'
p804
ag382
asg71
I1000
sg72
S'Webprogrammeren en databases'
p805
sg74
g75
sg76
I0
sg77
(iread_data
Room
p806
(dp807
g71
g179
sg72
g180
sbsba(ischedule
Activity
p808
(dp809
g8
(lp810
g314
ag281
ag102
ag125
asg71
g400
sg72
g401
sg74
g175
sg76
g234
sg77
(iread_data
Room
p811
(dp812
g71
g250
sg72
g251
sbsba(ischedule
Activity
p813
(dp814
g8
(lp815
g467
ag17
aS'19958553'
p816
ag366
ag255
ag114
aS'17496687'
p817
ag258
ag260
ag434
ag507
ag259
aS'11459236'
p818
ag257
ag475
ag256
ag262
ag204
ag20
ag261
ag399
asg71
I1000
sg72
g264
sg74
g75
sg76
I0
sg77
(iread_data
Room
p819
(dp820
g71
g80
sg72
g81
sbsba(ischedule
Activity
p821
(dp822
g8
(lp823
g30
ag297
ag187
ag33
aS'16912993'
p824
ag188
ag343
ag542
aS'25557516'
p825
ag688
ag355
aS'123355'
p826
ag25
aS'14398123'
p827
ag275
ag124
aS'535689'
p828
ag503
ag280
ag527
aS'19058315'
p829
ag186
asg71
g443
sg72
g444
sg74
g247
sg76
g481
sg77
(iread_data
Room
p830
(dp831
g71
g193
sg72
g194
sbsbaa(lp832
(ischedule
Activity
p833
(dp834
g8
(lp835
g313
ag153
ag45
aS'19540225'
p836
ag384
aS'23652927'
p837
aS'51509565'
p838
ag690
ag322
ag391
ag47
aS'67817269'
p839
ag119
ag689
ag287
ag207
ag290
ag348
ag297
ag389
ag112
ag594
ag310
ag229
asg71
S'25'
p840
sg72
g695
sg74
g175
sg76
g265
sg77
(iread_data
Room
p841
(dp842
g71
g179
sg72
g180
sbsba(ischedule
Activity
p843
(dp844
g8
g706
sg71
I1000
sg72
g665
sg74
g75
sg76
I0
sg77
(iread_data
Room
p845
(dp846
g71
g237
sg72
g238
sbsba(ischedule
Activity
p847
(dp848
g8
(lp849
g646
ag433
ag208
ag230
ag164
ag566
aS'97838175'
p850
ag98
ag735
ag319
aS'58480929'
p851
ag636
aS'88737765'
p852
ag170
ag343
aS'73350019'
p853
ag487
ag97
ag434
ag127
ag766
ag102
aS'82854435'
p854
ag591
ag468
ag304
ag50
ag578
aS'78822885'
p855
ag597
ag353
ag283
ag335
ag105
aS'18477924'
p856
aS'33672995'
p857
ag118
ag523
aS'62613937'
p858
ag437
ag104
ag782
ag321
ag500
ag39
ag200
aS'14637758'
p859
ag110
ag146
asg71
I1000
sg72
S'Analysemethoden en -technieken'
p860
sg74
g75
sg76
I0
sg77
(iread_data
Room
p861
(dp862
g71
g80
sg72
g81
sbsba(ischedule
Activity
p863
(dp864
g8
(lp865
g24
ag31
ag60
ag46
ag25
ag26
ag53
ag13
asg71
g415
sg72
g73
sg74
g247
sg76
g265
sg77
(iread_data
Room
p866
(dp867
g71
g268
sg72
g269
sbsba(ischedule
Activity
p868
(dp869
g8
(lp870
g347
ag624
aS'28943658'
p871
ag171
aS'23391676'
p872
ag440
ag144
ag159
asg71
g479
sg72
g480
sg74
g247
sg76
g234
sg77
(iread_data
Room
p873
(dp874
g71
g193
sg72
g194
sbsba(ischedule
Activity
p875
(dp876
g8
(lp877
g754
ag622
ag325
ag340
ag392
ag503
aS'63939720'
p878
ag367
aS'21070547'
p879
ag186
aS'19662602'
p880
aS'90103047'
p881
ag213
ag627
ag167
ag462
ag387
ag588
ag299
ag623
aS'37419523'
p882
ag37
aS'40911986'
p883
asg71
S'15'
p884
sg72
S'Project Numerical Recipes'
p885
sg74
g247
sg76
g234
sg77
(iread_data
Room
p886
(dp887
g71
g250
sg72
g251
sbsba(ischedule
Activity
p888
(dp889
g8
(lp890
g218
asg71
S'20'
p891
sg72
S'Moderne Databases'
p892
sg74
g247
sg76
g234
sg77
(iread_data
Room
p893
(dp894
g71
g137
sg72
g138
sbsbaa(lp895
(ischedule
Activity
p896
(dp897
g8
(lp898
g620
ag433
ag107
ag22
ag375
ag314
ag203
ag334
ag63
ag442
ag632
ag338
ag542
ag40
ag293
ag625
ag233
ag544
ag167
ag111
ag85
ag540
ag23
ag464
ag539
ag633
ag57
ag631
ag538
ag623
ag543
ag621
ag588
ag389
ag541
ag517
ag587
ag624
ag545
ag634
ag342
ag302
ag64
ag279
ag144
ag628
ag168
ag358
ag636
ag163
ag549
ag635
ag55
ag627
ag547
asg71
S'40'
p899
sg72
g553
sg74
g247
sg76
g176
sg77
(iread_data
Room
p900
(dp901
g71
g237
sg72
g238
sbsba(ischedule
Activity
p902
(dp903
g8
(lp904
g278
ag42
ag298
ag12
ag312
ag630
ag11
ag21
ag622
ag356
ag155
ag802
ag348
ag205
ag524
ag465
ag590
ag589
ag792
ag803
ag800
ag801
ag713
ag382
ag105
ag796
ag798
ag799
ag388
ag794
ag108
ag793
ag307
ag795
asg71
S'20'
p905
sg72
g805
sg74
g247
sg76
g176
sg77
(iread_data
Room
p906
(dp907
g71
g137
sg72
g138
sbsba(ischedule
Activity
p908
(dp909
g8
(lp910
g673
ag45
ag672
ag671
ag721
ag522
ag720
ag321
ag256
ag316
aS'93023961'
p911
ag462
ag92
ag604
ag255
ag186
ag184
ag121
aS'45414528'
p912
ag584
ag18
ag187
ag185
ag478
ag722
ag188
ag125
asg71
I1000
sg72
g190
sg74
g75
sg76
I0
sg77
(iread_data
Room
p913
(dp914
g71
g250
sg72
g251
sbsba(ischedule
Activity
p915
(dp916
g8
(lp917
g17
ag114
ag204
ag20
ag399
ag507
ag818
ag816
ag467
ag817
ag475
ag366
ag434
asg71
g263
sg72
g264
sg74
g247
sg76
g176
sg77
(iread_data
Room
p918
(dp919
g71
g268
sg72
g269
sbsba(ischedule
Activity
p920
(dp921
g8
(lp922
g292
ag291
aS'70113753'
p923
asg71
g607
sg72
g401
sg74
g247
sg76
g265
sg77
(iread_data
Room
p924
(dp925
g71
g80
sg72
g81
sbsbaa(lp926
(ischedule
Activity
p927
(dp928
g8
g753
sg71
I1000
sg72
g771
sg74
g75
sg76
I0
sg77
(iread_data
Room
p929
(dp930
g71
g80
sg72
g81
sbsba(ischedule
Activity
p931
(dp932
g8
(lp933
g31
ag545
ag363
ag59
ag470
aS'66621166'
p934
ag115
ag100
ag306
aS'27241113'
p935
ag488
aS'27916487'
p936
ag337
ag13
ag541
ag106
aS'18144425'
p937
aS'51650744'
p938
ag352
ag357
aS'13218321'
p939
ag153
ag646
aS'47462856'
p940
ag300
aS'96082155'
p941
ag632
ag160
asg71
S'20'
p942
sg72
g892
sg74
g175
sg76
g234
sg77
(iread_data
Room
p943
(dp944
g71
g137
sg72
g138
sbsba(ischedule
Activity
p945
(dp946
g8
g815
sg71
I1000
sg72
g264
sg74
g75
sg76
I0
sg77
(iread_data
Room
p947
(dp948
g71
g179
sg72
g180
sbsba(ischedule
Activity
p949
(dp950
g8
(lp951
g184
ag125
ag316
ag912
ag18
ag911
asg71
g674
sg72
g190
sg74
g247
sg76
g176
sg77
(iread_data
Room
p952
(dp953
g71
g250
sg72
g251
sbsba(ischedule
Activity
p954
(dp955
g8
g791
sg71
I1000
sg72
g805
sg74
g75
sg76
I0
sg77
(iread_data
Room
p956
(dp957
g71
g237
sg72
g238
sbsba(ischedule
Activity
p958
(dp959
g8
(lp960
g339
ag538
ag126
ag225
aS'39429093'
p961
ag559
ag503
ag505
ag858
ag202
ag119
ag170
asg71
g653
sg72
g654
sg74
g247
sg76
g265
sg77
(iread_data
Room
p962
(dp963
g71
g193
sg72
g194
sbsba(ischedule
Activity
p964
(dp965
g8
(lp966
S'63573738'
p967
ag34
ag23
asg71
g884
sg72
g885
sg74
g247
sg76
g176
sg77
(iread_data
Room
p968
(dp969
g71
g268
sg72
g269
sbsbaaa(lp970
(lp971
(ischedule
Activity
p972
(dp973
g8
(lp974
g128
ag131
ag54
ag489
asg71
g245
sg72
g246
sg74
g247
sg76
g265
sg77
(iread_data
Room
p975
(dp976
g71
g179
sg72
g180
sbsba(ischedule
Activity
p977
(dp978
g8
(lp979
g290
ag567
ag184
ag525
ag50
ag561
ag562
ag564
ag565
ag105
ag490
ag566
ag186
ag157
ag49
ag384
ag569
ag346
ag570
ag560
ag185
ag206
ag559
ag154
asg71
g701
sg72
g571
sg74
g175
sg76
g176
sg77
(iread_data
Room
p980
(dp981
g71
g137
sg72
g138
sbsba(ischedule
Activity
p982
(dp983
g8
(lp984
g937
ag632
ag100
ag743
ag31
ag541
ag259
ag13
ag306
ag939
ag166
ag934
aS'1181560'
p985
ag623
ag585
ag106
ag935
aS'46570285'
p986
ag20
ag218
ag646
ag170
aS'78544592'
p987
aS'48198668'
p988
ag487
aS'49219163'
p989
ag941
ag938
ag257
ag545
ag160
ag352
ag59
ag470
ag936
ag759
ag488
aS'59111489'
p990
ag940
aS'41489515'
p991
aS'3883025'
p992
ag153
ag298
ag300
ag68
ag24
ag262
ag109
ag337
ag357
ag115
ag363
ag312
ag313
asg71
I1000
sg72
g892
sg74
g75
sg76
I0
sg77
(iread_data
Room
p993
(dp994
g71
g237
sg72
g238
sbsba(ischedule
Activity
p995
(dp996
g8
(lp997
g758
ag689
ag804
ag645
ag797
asg71
g905
sg72
g805
sg74
g247
sg76
g265
sg77
(iread_data
Room
p998
(dp999
g71
g193
sg72
g194
sbsba(ischedule
Activity
p1000
(dp1001
g8
g619
sg71
I1000
sg72
g553
sg74
g75
sg76
I0
sg77
(iread_data
Room
p1002
(dp1003
g71
g80
sg72
g81
sbsba(ischedule
Activity
p1004
(dp1005
g8
(lp1006
g278
ag42
ag12
ag21
ag11
ag382
ag796
ag356
ag800
ag713
ag798
ag794
ag799
ag348
ag524
ag465
asg71
S'20'
p1007
sg72
g805
sg74
g175
sg76
g176
sg77
(iread_data
Room
p1008
(dp1009
g71
g250
sg72
g251
sbsba(ischedule
Activity
p1010
(dp1011
g8
(lp1012
g125
ag45
ag721
ag18
ag584
ag673
ag256
ag316
ag321
ag255
ag478
ag604
ag522
ag671
asg71
g189
sg72
g190
sg74
g175
sg76
g265
sg77
(iread_data
Room
p1013
(dp1014
g71
g268
sg72
g269
sbsbaa(lp1015
(ischedule
Activity
p1016
(dp1017
g8
(lp1018
g284
ag595
aS'72547110'
p1019
ag333
ag796
ag584
aS'37498675'
p1020
ag299
aS'79858178'
p1021
aS'39919665'
p1022
ag620
ag286
ag283
ag314
ag478
ag433
ag227
ag827
ag287
aS'65003379'
p1023
ag500
ag296
ag527
ag259
aS'82688900'
p1024
ag476
ag498
aS'79366078'
p1025
ag591
ag986
ag872
aS'44940353'
p1026
ag326
aS'38329455'
p1027
aS'39659121'
p1028
ag103
ag223
ag203
ag688
ag792
aS'99272880'
p1029
ag562
ag490
aS'63408522'
p1030
ag39
ag119
ag337
aS'24875739'
p1031
ag693
aS'63955238'
p1032
ag335
ag310
ag22
ag586
ag107
aS'51186803'
p1033
ag336
ag440
ag378
ag710
ag52
ag754
aS'28957789'
p1034
ag489
ag514
ag258
ag95
ag745
ag305
ag318
aS'91139627'
p1035
ag434
ag714
aS'47605891'
p1036
ag88
ag468
ag435
ag940
ag99
ag150
ag375
aS'10872825'
p1037
ag69
ag158
asg71
I1000
sg72
S'Kansrekenen 2'
p1038
sg74
g75
sg76
I0
sg77
(iread_data
Room
p1039
(dp1040
g71
g80
sg72
g81
sbsba(ischedule
Activity
p1041
(dp1042
g8
(lp1043
g292
ag208
ag765
ag530
ag604
ag769
ag605
ag317
ag184
ag923
ag606
ag24
ag291
ag142
aS'88627897'
p1044
ag334
ag338
asg71
g400
sg72
g401
sg74
g175
sg76
g265
sg77
(iread_data
Room
p1045
(dp1046
g71
g250
sg72
g251
sbsba(ischedule
Activity
p1047
(dp1048
g8
(lp1049
g630
ag622
ag550
ag551
ag257
ag546
ag629
ag626
ag506
ag160
ag306
ag548
ag473
ag463
asg71
g899
sg72
g553
sg74
g247
sg76
g265
sg77
(iread_data
Room
p1050
(dp1051
g71
g268
sg72
g269
sbsba(ischedule
Activity
p1052
(dp1053
g8
(lp1054
g281
ag380
ag30
ag145
ag643
ag21
ag645
ag578
ag436
ag642
ag644
ag646
ag569
asg71
g368
sg72
g369
sg74
g175
sg76
g265
sg77
(iread_data
Room
p1055
(dp1056
g71
g137
sg72
g138
sbsba(ischedule
Activity
p1057
(dp1058
g8
(lp1059
g18
ag45
ag28
ag63
ag58
ag61
ag25
ag53
ag70
ag67
ag47
ag40
ag48
ag42
ag26
ag23
ag56
ag19
ag57
ag16
ag46
ag17
ag12
ag11
ag35
ag15
ag60
ag50
ag65
ag27
ag37
ag33
asg71
g450
sg72
g73
sg74
g175
sg76
g265
sg77
(iread_data
Room
p1060
(dp1061
g71
g179
sg72
g180
sbsbaa(lp1062
(ischedule
Activity
p1063
(dp1064
g8
(lp1065
g313
ag166
ag59
ag160
ag936
ag938
ag115
ag306
ag259
ag257
ag988
ag939
ag153
ag759
ag106
ag585
ag262
ag352
ag68
ag545
ag109
ag940
ag357
ag363
ag24
ag941
ag937
ag31
ag934
ag470
ag623
ag743
ag989
ag312
ag541
ag20
ag646
ag300
ag632
ag990
ag986
ag298
ag488
ag13
ag991
ag487
ag987
ag100
asg71
g891
sg72
g892
sg74
g247
sg76
g265
sg77
(iread_data
Room
p1066
(dp1067
g71
g237
sg72
g238
sbsba(ischedule
Activity
p1068
(dp1069
g8
(lp1070
g242
ag128
ag45
ag786
ag349
ag185
ag325
ag278
ag54
ag224
ag336
ag785
ag284
ag604
ag168
ag550
ag158
ag243
ag784
ag133
ag109
ag244
ag324
ag783
ag323
ag34
ag630
ag131
ag255
ag782
asg71
g491
sg72
g246
sg74
g175
sg76
g265
sg77
(iread_data
Room
p1071
(dp1072
g71
g80
sg72
g81
sbsba(ischedule
Activity
p1073
(dp1074
g8
(lp1075
g547
ag55
ag171
aS'34691309'
p1076
ag735
ag87
ag63
aS'32183908'
p1077
ag317
aS'81116418'
p1078
ag123
ag286
ag490
ag302
ag660
ag542
ag99
ag531
asg71
g884
sg72
g885
sg74
g247
sg76
g265
sg77
(iread_data
Room
p1079
(dp1080
g71
g268
sg72
g269
sbsba(ischedule
Activity
p1081
(dp1082
g8
(lp1083
g378
ag548
ag154
ag110
ag291
ag26
aS'41644639'
p1084
aS'74361881'
p1085
aS'55480737'
p1086
aS'25994016'
p1087
ag341
ag827
ag652
ag566
ag98
ag354
aS'51673172'
p1088
asg71
g408
sg72
g409
sg74
g247
sg76
g234
sg77
(iread_data
Room
p1089
(dp1090
g71
g193
sg72
g194
sbsba(ischedule
Activity
p1091
(dp1092
g8
(lp1093
g551
ag622
ag347
ag184
ag35
ag475
ag643
ag440
ag736
ag18
ag692
ag386
ag361
ag691
ag142
ag111
ag61
ag693
ag688
asg71
g840
sg72
g695
sg74
g175
sg76
g176
sg77
(iread_data
Room
p1094
(dp1095
g71
g137
sg72
g138
sbsba(ischedule
Activity
p1096
(dp1097
g8
(lp1098
g935
ag170
ag337
ag992
ag985
asg71
g891
sg72
g892
sg74
g247
sg76
g176
sg77
(iread_data
Room
p1099
(dp1100
g71
g179
sg72
g180
sbsbaa(lp1101
(ischedule
Activity
p1102
(dp1103
g8
(lp1104
g167
ag1031
aS'75623387'
p1105
ag333
ag16
ag147
ag163
aS'77306636'
p1106
ag161
ag149
ag304
ag198
aS'75446434'
p1107
ag231
ag145
ag152
ag33
ag160
ag169
ag219
ag226
ag222
ag220
ag204
ag230
ag217
ag487
ag218
ag200
ag153
ag142
ag203
ag229
ag27
ag209
ag754
ag155
ag131
ag207
aS'82412626'
p1108
ag199
ag168
ag1034
ag216
ag157
ag159
ag201
ag202
ag146
aS'10609762'
p1109
ag143
ag435
ag792
ag344
ag172
ag223
ag162
ag49
ag221
ag470
ag986
ag171
ag857
ag164
ag766
ag620
ag233
ag228
ag214
ag987
ag208
ag210
ag158
ag303
ag156
ag116
ag205
ag47
ag349
ag151
ag213
ag224
ag225
ag11
ag32
ag227
ag165
ag215
ag150
ag232
aS'31306819'
p1110
ag170
ag672
ag166
ag148
ag340
ag211
ag594
ag154
ag212
ag206
ag243
ag244
ag585
ag562
ag144
asg71
I1000
sg72
g174
sg74
g75
sg76
I0
sg77
(iread_data
Room
p1111
(dp1112
g71
g80
sg72
g81
sbsba(ischedule
Activity
p1113
(dp1114
g8
(lp1115
g187
ag314
ag85
ag63
ag279
ag306
ag302
ag30
ag285
ag281
ag293
ag287
ag291
ag319
ag311
ag286
ag308
ag53
ag112
ag18
ag274
ag276
ag315
ag292
ag317
ag67
ag97
ag122
ag323
ag277
ag289
ag301
ag297
ag299
ag300
ag324
ag316
ag19
ag275
ag294
ag296
asg71
g680
sg72
g327
sg74
g175
sg76
g176
sg77
(iread_data
Room
p1116
(dp1117
g71
g237
sg72
g238
sbsba(ischedule
Activity
p1118
(dp1119
g8
(lp1120
g476
ag992
ag318
ag784
ag521
ag108
ag34
ag98
ag389
ag967
aS'59887191'
p1121
ag673
aS'64246605'
p1122
ag23
ag566
ag642
ag785
ag734
aS'85284256'
p1123
asg71
g443
sg72
g444
sg74
g247
sg76
g176
sg77
(iread_data
Room
p1124
(dp1125
g71
g268
sg72
g269
sbsba(ischedule
Activity
p1126
(dp1127
g8
(lp1128
g20
ag399
ag507
ag475
ag434
ag256
ag817
ag366
ag818
ag816
ag262
ag467
ag255
ag259
ag258
asg71
S'15'
p1129
sg72
g264
sg74
g175
sg76
g265
sg77
(iread_data
Room
p1130
(dp1131
g71
g137
sg72
g138
sbsbaa(lp1132
(ischedule
Activity
p1133
(dp1134
g8
g9
sg71
I1000
sg72
g73
sg74
g75
sg76
I0
sg77
(iread_data
Room
p1135
(dp1136
g71
g237
sg72
g238
sbsba(ischedule
Activity
p1137
(dp1138
g8
g1018
sg71
I1000
sg72
g1038
sg74
g75
sg76
I0
sg77
(iread_data
Room
p1139
(dp1140
g71
g80
sg72
g81
sbsba(ischedule
Activity
p1141
(dp1142
g8
g374
sg71
I1000
sg72
g393
sg74
g75
sg76
I0
sg77
(iread_data
Room
p1143
(dp1144
g71
g250
sg72
g251
sbsba(ischedule
Activity
p1145
(dp1146
g8
(lp1147
g92
ag722
ag911
ag462
ag720
ag912
ag121
ag672
asg71
g189
sg72
g190
sg74
g175
sg76
g234
sg77
(iread_data
Room
p1148
(dp1149
g71
g179
sg72
g180
sbsba(ischedule
Activity
p1150
(dp1151
g8
(lp1152
g125
ag317
ag338
ag399
ag292
ag102
ag1044
ag24
ag291
ag530
ag314
ag184
ag605
ag142
ag334
ag923
ag606
ag765
ag769
ag281
ag208
ag604
asg71
I1000
sg72
g401
sg74
g75
sg76
I0
sg77
(iread_data
Room
p1153
(dp1154
g71
g193
sg72
g194
sbsba(ischedule
Activity
p1155
(dp1156
g8
(lp1157
g257
ag990
ag170
ag109
ag313
ag623
ag585
ag487
ag988
ag987
asg71
g942
sg72
g892
sg74
g175
sg76
g265
sg77
(iread_data
Room
p1158
(dp1159
g71
g137
sg72
g138
sbsba(ischedule
Activity
p1160
(dp1161
g8
(lp1162
g126
ag539
asg71
g443
sg72
g444
sg74
g247
sg76
g234
sg77
(iread_data
Room
p1163
(dp1164
g71
g268
sg72
g269
sbsbaaa(lp1165
(lp1166
(ischedule
Activity
p1167
(dp1168
g8
(lp1169
g27
ag49
ag47
ag16
ag11
ag32
ag131
ag33
ag672
ag620
ag304
ag1107
ag792
ag344
ag1034
ag987
ag303
ag470
ag333
ag857
ag435
ag585
ag562
ag349
ag766
ag754
ag1105
ag1031
ag1108
ag1109
ag986
ag244
ag1110
ag243
ag340
ag1106
ag487
ag594
asg71
g173
sg72
g174
sg74
g175
sg76
g265
sg77
(iread_data
Room
p1170
(dp1171
g71
g80
sg72
g81
sbsba(ischedule
Activity
p1172
(dp1173
g8
g1152
sg71
I1000
sg72
g401
sg74
g75
sg76
I0
sg77
(iread_data
Room
p1174
(dp1175
g71
g250
sg72
g251
sbsba(ischedule
Activity
p1176
(dp1177
g8
(lp1178
g361
ag551
ag287
ag153
ag384
ag837
ag348
ag112
ag736
ag838
ag475
ag839
ag290
ag322
ag297
ag836
ag111
ag386
ag389
ag207
asg71
g694
sg72
g695
sg74
g247
sg76
g265
sg77
(iread_data
Room
p1179
(dp1180
g71
g268
sg72
g269
sbsba(ischedule
Activity
p1181
(dp1182
g8
(lp1183
g204
ag17
ag257
ag114
ag261
ag260
asg71
g1129
sg72
g264
sg74
g175
sg76
g176
sg77
(iread_data
Room
p1184
(dp1185
g71
g179
sg72
g180
sbsba(ischedule
Activity
p1186
(dp1187
g8
g497
sg71
I1000
sg72
g508
sg74
g75
sg76
I0
sg77
(iread_data
Room
p1188
(dp1189
g71
g137
sg72
g138
sbsba(ischedule
Activity
p1190
(dp1191
g8
(lp1192
g357
ag316
ag440
ag20
ag528
ag531
ag336
ag311
ag527
ag524
asg71
g728
sg72
g532
sg74
g175
sg76
g265
sg77
(iread_data
Room
p1193
(dp1194
g71
g237
sg72
g238
sbsba(ischedule
Activity
p1195
(dp1196
g8
(lp1197
g115
ag646
ag300
ag550
ag207
ag688
ag305
aS'82066165'
p1198
ag157
ag852
ag802
ag70
ag161
ag149
ag163
ag57
ag221
ag85
asg71
g408
sg72
g409
sg74
g247
sg76
g265
sg77
(iread_data
Room
p1199
(dp1200
g71
g193
sg72
g194
sbsbaa(lp1201
(ischedule
Activity
p1202
(dp1203
g8
g910
sg71
I1000
sg72
g190
sg74
g75
sg76
I0
sg77
(iread_data
Room
p1204
(dp1205
g71
g250
sg72
g251
sbsba(ischedule
Activity
p1206
(dp1207
g8
(lp1208
g301
ag560
ag51
ag274
ag693
ag520
ag207
ag692
ag17
ag346
ag561
ag100
ag47
ag1123
ag333
ag127
aS'7386961'
p1209
ag392
ag259
ag743
ag562
asg71
g479
sg72
g480
sg74
g247
sg76
S'6'
p1210
sg77
(iread_data
Room
p1211
(dp1212
g71
g80
sg72
g81
sbsba(ischedule
Activity
p1213
(dp1214
g8
(lp1215
g339
ag202
ag225
ag559
ag538
ag119
ag858
ag42
ag170
ag126
ag171
ag388
ag505
ag961
ag503
ag155
ag489
ag48
ag652
ag124
asg71
I1000
sg72
g654
sg74
g75
sg76
I0
sg77
(iread_data
Room
p1216
(dp1217
g71
g179
sg72
g180
sbsba(ischedule
Activity
p1218
(dp1219
g8
(lp1220
g61
ag325
ag324
ag1087
ag112
ag261
ag1088
aS'5892092'
p1221
aS'55103073'
p1222
ag709
ag545
ag353
ag476
ag466
ag1198
aS'44151631'
p1223
ag1084
aS'51472074'
p1224
ag390
ag818
ag691
ag594
asg71
S'15'
p1225
sg72
S'Compilerbouw practicum'
p1226
sg74
g247
sg76
g265
sg77
(iread_data
Room
p1227
(dp1228
g71
g237
sg72
g238
sbsba(ischedule
Activity
p1229
(dp1230
g8
(lp1231
g24
ag36
ag64
ag14
ag41
ag52
ag29
ag20
ag44
ag54
ag34
ag30
ag10
ag13
ag68
ag32
ag21
ag62
asg71
g450
sg72
g73
sg74
g175
sg76
g481
sg77
(iread_data
Room
p1232
(dp1233
g71
g193
sg72
g194
sbsba(ischedule
Activity
p1234
(dp1235
g8
(lp1236
g160
ag342
ag107
ag442
ag111
ag506
ag517
ag40
ag203
ag334
ag587
ag168
ag588
ag279
ag63
ag463
ag631
ag338
ag636
ag626
ag375
ag302
ag628
ag635
ag620
ag621
ag627
ag167
ag630
ag144
ag464
ag433
ag629
ag23
ag233
ag623
ag622
ag634
ag632
ag625
ag624
ag633
asg71
g552
sg72
g553
sg74
g175
sg76
g176
sg77
(iread_data
Room
p1237
(dp1238
g71
g137
sg72
g138
sbsbaa(lp1239
(ischedule
Activity
p1240
(dp1241
g8
(lp1242
g470
ag22
ag168
ag255
ag45
ag352
ag224
ag278
ag109
ag487
ag292
ag604
ag133
ag185
ag735
ag158
ag333
ag339
ag324
ag323
ag786
ag490
ag488
ag734
ag34
ag302
ag325
ag284
ag784
ag785
ag782
ag360
ag630
ag349
ag550
ag783
ag336
ag736
asg71
g245
sg72
g246
sg74
g247
sg76
g234
sg77
(iread_data
Room
p1243
(dp1244
g71
g250
sg72
g251
sbsba(ischedule
Activity
p1245
(dp1246
g8
(lp1247
g18
ag36
ag1029
ag205
ag242
ag202
ag621
ag501
aS'1695839'
p1248
asg71
g1225
sg72
g1226
sg74
g247
sg76
g176
sg77
(iread_data
Room
p1249
(dp1250
g71
g237
sg72
g238
sbsba(ischedule
Activity
p1251
(dp1252
g8
(lp1253
g98
ag110
ag31
ag124
ag37
ag92
ag112
ag107
ag104
ag118
ag103
ag91
ag121
ag125
ag115
ag128
ag85
asg71
g456
sg72
g134
sg74
g175
sg76
g234
sg77
(iread_data
Room
p1254
(dp1255
g71
g80
sg72
g81
sbsba(ischedule
Activity
p1256
(dp1257
g8
(lp1258
g86
ag87
ag101
ag131
ag120
ag105
ag116
ag122
ag97
ag95
ag106
ag132
ag111
ag114
ag102
ag127
ag96
ag100
ag129
ag99
ag108
ag94
ag119
ag89
ag123
asg71
g456
sg72
g134
sg74
g175
sg76
g176
sg77
(iread_data
Room
p1259
(dp1260
g71
g179
sg72
g180
sbsba(ischedule
Activity
p1261
(dp1262
g8
(lp1263
g63
ag12
ag35
ag65
ag11
ag23
ag32
ag33
ag40
ag54
ag21
ag52
ag14
ag69
ag49
ag28
ag61
ag59
ag62
ag50
ag29
ag57
ag58
ag15
ag43
ag30
ag39
ag20
asg71
g415
sg72
g73
sg74
g247
sg76
g481
sg77
(iread_data
Room
p1264
(dp1265
g71
g137
sg72
g138
sbsba(ischedule
Activity
p1266
(dp1267
g8
(lp1268
g38
asg71
g450
sg72
g73
sg74
g175
sg76
g176
sg77
(iread_data
Room
p1269
(dp1270
g71
g268
sg72
g269
sbsbaa(lp1271
(ischedule
Activity
p1272
(dp1273
g8
g9
sg71
I1000
sg72
g73
sg74
g75
sg76
I0
sg77
(iread_data
Room
p1274
(dp1275
g71
g80
sg72
g81
sbsba(ischedule
Activity
p1276
(dp1277
g8
g781
sg71
I1000
sg72
g246
sg74
g75
sg76
I0
sg77
(iread_data
Room
p1278
(dp1279
g71
g137
sg72
g138
sbsba(ischedule
Activity
p1280
(dp1281
g8
g741
sg71
I1000
sg72
g747
sg74
g75
sg76
I0
sg77
(iread_data
Room
p1282
(dp1283
g71
g250
sg72
g251
sbsba(ischedule
Activity
p1284
(dp1285
g8
(lp1286
g622
ag298
ag312
ag793
ag105
ag307
ag792
ag795
ag108
ag155
ag589
ag801
ag803
ag689
ag630
ag590
ag758
ag205
ag797
ag804
ag802
ag645
ag388
asg71
g1007
sg72
g805
sg74
g175
sg76
g265
sg77
(iread_data
Room
p1287
(dp1288
g71
g237
sg72
g238
sbsba(ischedule
Activity
p1289
(dp1290
g8
(lp1291
g530
ag399
ag314
ag338
ag142
ag317
ag102
ag769
ag281
ag184
ag125
ag208
ag1044
ag765
asg71
g607
sg72
g401
sg74
g247
sg76
g234
sg77
(iread_data
Room
p1292
(dp1293
g71
g268
sg72
g269
sbsbaa(lp1294
(ischedule
Activity
p1295
(dp1296
g8
(lp1297
g689
ag18
ag389
ag839
ag622
ag35
ag119
ag112
ag692
ag838
ag45
ag440
ag384
ag310
ag688
ag153
ag643
ag61
ag47
ag322
ag313
ag142
ag229
ag184
ag297
ag837
ag348
ag287
ag594
ag551
ag347
ag386
ag290
ag691
ag475
ag693
ag111
ag736
ag361
ag836
ag690
ag207
ag391
asg71
I1000
sg72
g695
sg74
g75
sg76
I0
sg77
(iread_data
Room
p1298
(dp1299
g71
g179
sg72
g180
sbsba(ischedule
Activity
p1300
(dp1301
g8
(lp1302
g36
ag539
ag633
ag357
ag257
ag547
ag306
ag714
ag356
ag713
ag232
ag48
ag711
ag712
ag286
ag707
ag399
ag567
ag710
ag592
ag309
ag709
ag51
ag258
ag708
asg71
g664
sg72
g665
sg74
g175
sg76
g265
sg77
(iread_data
Room
p1303
(dp1304
g71
g80
sg72
g81
sbsba(ischedule
Activity
p1305
(dp1306
g8
g781
sg71
I1000
sg72
g246
sg74
g75
sg76
I0
sg77
(iread_data
Room
p1307
(dp1308
g71
g137
sg72
g138
sbsba(ischedule
Activity
p1309
(dp1310
g8
g84
sg71
I1000
sg72
g134
sg74
g75
sg76
I0
sg77
(iread_data
Room
p1311
(dp1312
g71
g237
sg72
g238
sbsba(ischedule
Activity
p1313
(dp1314
g8
(lp1315
g24
ag259
ag20
ag986
ag743
ag992
ag262
ag298
ag68
ag989
ag218
ag312
ag759
ag985
ag166
ag991
asg71
g942
sg72
g892
sg74
g175
sg76
g176
sg77
(iread_data
Room
p1316
(dp1317
g71
g268
sg72
g269
sbsba(ischedule
Activity
p1318
(dp1319
g8
(lp1320
S'47260040'
p1321
aS'42297781'
p1322
ag828
ag562
aS'64418623'
p1323
ag515
aS'91250534'
p1324
ag60
ag1085
asg71
g1225
sg72
g1226
sg74
g247
sg76
g234
sg77
(iread_data
Room
p1325
(dp1326
g71
g250
sg72
g251
sbsba(ischedule
Activity
p1327
(dp1328
g8
(lp1329
g912
ag923
ag1029
ag795
ag156
aS'39905995'
p1330
ag294
asg71
g479
sg72
g480
sg74
g247
sg76
g176
sg77
(iread_data
Room
p1331
(dp1332
g71
g193
sg72
g194
sbsbaaa(lp1333
(lp1334
a(lp1335
a(lp1336
a(lp1337
a(lp1338
aasS'timeslot_dict'
p1339
(dp1340
I0
S'9:00-11:00'
p1341
sI1
S'11:00-13:00'
p1342
sI2
S'13:00-15:00'
p1343
sI3
S'15:00-17:00'
p1344
sI4
S'17:00-19:00'
p1345
ssS'day_dict'
p1346
(dp1347
I0
S'Monday'
p1348
sI1
S'Tuesday'
p1349
sI2
S'Wednesday'
p1350
sI3
S'Thursday'
p1351
sI4
S'Friday'
p1352
ssb.