(ischedule
Schedule
p0
(dp1
S'timetable'
p2
(lp3
(lp4
(lp5
(ischedule
Activity
p6
(dp7
S'participants'
p8
(lp9
S'35330349'
p10
aS'61443567'
p11
aS'45556081'
p12
aS'77896638'
p13
aS'62701040'
p14
aS'48601268'
p15
aS'42171678'
p16
aS'54310617'
p17
aS'9332762'
p18
aS'37770881'
p19
aS'34773179'
p20
aS'97135019'
p21
aS'24277163'
p22
aS'53107172'
p23
aS'13092455'
p24
aS'51741554'
p25
aS'96104167'
p26
aS'29474737'
p27
aS'82689818'
p28
aS'46052388'
p29
aS'76123484'
p30
aS'5517869'
p31
aS'50184318'
p32
aS'77240949'
p33
aS'60312776'
p34
aS'21964491'
p35
aS'75521763'
p36
aS'42778953'
p37
aS'3233378'
p38
aS'87758823'
p39
aS'65960683'
p40
aS'58522654'
p41
aS'4783858'
p42
aS'22699561'
p43
aS'17222374'
p44
aS'57595888'
p45
aS'1665980'
p46
aS'73980360'
p47
aS'43027916'
p48
aS'64393888'
p49
aS'29640619'
p50
aS'23547619'
p51
aS'15902055'
p52
aS'72577292'
p53
aS'28357474'
p54
aS'64228258'
p55
aS'31416266'
p56
aS'17575088'
p57
aS'1075391'
p58
aS'25106480'
p59
aS'1696500'
p60
aS'13534377'
p61
aS'7308727'
p62
aS'42196732'
p63
aS'68601184'
p64
aS'86291592'
p65
aS'26406342'
p66
aS'86000192'
p67
aS'50143947'
p68
aS'64296965'
p69
aS'33760909'
p70
asS'capacity'
p71
I1000
sS'group'
p72
NsS'room'
p73
(iread_data
Room
p74
(dp75
g71
S'117'
p76
sS'name'
p77
S'C0.110'
p78
sbsS'ttype'
p79
S'lectures'
p80
sS'group_id'
p81
I0
sg77
S'Collectieve Intelligentie'
p82
sba(ischedule
Activity
p83
(dp84
g8
(lp85
S'37399898'
p86
aS'38179241'
p87
aS'81200278'
p88
aS'76924297'
p89
aS'2550487'
p90
aS'65675896'
p91
aS'44828429'
p92
aS'69634191'
p93
aS'34765676'
p94
aS'19214659'
p95
aS'81385263'
p96
aS'4546613'
p97
aS'21677389'
p98
aS'28055464'
p99
ag51
aS'93566383'
p100
aS'5368702'
p101
aS'66034145'
p102
aS'81155296'
p103
aS'37701751'
p104
aS'20374340'
p105
aS'14847953'
p106
aS'76661016'
p107
aS'3707829'
p108
aS'64768422'
p109
asg71
I1000
sg72
Nsg73
(iread_data
Room
p110
(dp111
g71
S'48'
p112
sg77
S'B0.201'
p113
sbsg79
g80
sg81
I0
sg77
S'Interactie-ontwerp'
p114
sba(ischedule
Activity
p115
(dp116
g8
(lp117
S'52552718'
p118
aS'51566595'
p119
aS'11915563'
p120
aS'72796858'
p121
aS'62872965'
p122
aS'19858730'
p123
aS'34806836'
p124
aS'61611295'
p125
aS'36508571'
p126
aS'68409833'
p127
aS'22871048'
p128
asg71
S'10'
p129
sg72
(ischedule
Group
p130
(dp131
g8
g117
sg77
S'Autonomous Agents 21'
p132
sbsg73
(iread_data
Room
p133
(dp134
g71
S'20'
p135
sg77
S'A1.08'
p136
sbsg79
S'labs'
p137
sg81
S'1'
p138
sg77
S'Autonomous Agents 2'
p139
sba(ischedule
Activity
p140
(dp141
g8
(lp142
S'14816774'
p143
ag63
aS'89985072'
p144
aS'21029457'
p145
aS'79617364'
p146
aS'3168419'
p147
aS'96054456'
p148
aS'22731474'
p149
aS'56815156'
p150
aS'88176729'
p151
ag88
aS'28359697'
p152
aS'73236988'
p153
aS'59544049'
p154
aS'64600457'
p155
aS'43680781'
p156
aS'30050930'
p157
aS'22826928'
p158
aS'6723948'
p159
aS'24613625'
p160
aS'247918'
p161
aS'29526540'
p162
aS'44868097'
p163
ag35
aS'74131924'
p164
aS'85335143'
p165
aS'54026378'
p166
aS'33877725'
p167
aS'11068043'
p168
aS'56749879'
p169
aS'53202517'
p170
aS'14591033'
p171
aS'5298748'
p172
ag62
aS'66120270'
p173
aS'6913074'
p174
aS'33930505'
p175
aS'30195935'
p176
aS'70878567'
p177
aS'20883994'
p178
aS'96453361'
p179
aS'4568018'
p180
ag41
aS'77831658'
p181
aS'15051051'
p182
asg71
I1000
sg72
Nsg73
(iread_data
Room
p183
(dp184
g71
S'60'
p185
sg77
S'C1.112'
p186
sbsg79
g80
sg81
I0
sg77
S'Bioinformatica'
p187
sba(ischedule
Activity
p188
(dp189
g8
(lp190
S'38296757'
p191
aS'94467156'
p192
aS'26857113'
p193
aS'63111000'
p194
aS'40791377'
p195
aS'67625383'
p196
aS'90067329'
p197
aS'5976174'
p198
aS'3685034'
p199
aS'37744525'
p200
aS'27187154'
p201
aS'56988998'
p202
aS'33252501'
p203
aS'23798155'
p204
aS'39459642'
p205
aS'46701583'
p206
ag33
aS'85236626'
p207
aS'49683101'
p208
aS'61518436'
p209
ag182
aS'2079771'
p210
asg71
I1000
sg72
Nsg73
(iread_data
Room
p211
(dp212
g71
S'56'
p213
sg77
S'A1.10'
p214
sbsg79
g80
sg81
I0
sg77
S'Machine Learning'
p215
sba(ischedule
Activity
p216
(dp217
g8
(lp218
S'36785409'
p219
ag51
aS'75664412'
p220
aS'76487754'
p221
aS'68315599'
p222
ag156
aS'77636749'
p223
aS'37110913'
p224
aS'4697362'
p225
aS'40434933'
p226
aS'58565406'
p227
aS'32204977'
p228
aS'10149535'
p229
aS'14383795'
p230
aS'77264363'
p231
aS'22323043'
p232
aS'12430748'
p233
aS'92496780'
p234
aS'14309255'
p235
aS'12077419'
p236
aS'7106649'
p237
aS'11996292'
p238
aS'89338938'
p239
aS'47982619'
p240
aS'69086548'
p241
ag66
aS'70336464'
p242
aS'41578612'
p243
ag165
aS'97371272'
p244
aS'93041523'
p245
ag18
ag36
aS'21192048'
p246
aS'31194811'
p247
aS'6249823'
p248
aS'44901052'
p249
aS'48308205'
p250
asg71
I1000
sg72
Nsg73
(iread_data
Room
p251
(dp252
g71
S'41'
p253
sg77
S'A1.04'
p254
sbsg79
g80
sg81
I0
sg77
S'Technology for games'
p255
sba(ischedule
Activity
p256
(dp257
g8
(lp258
S'46570285'
p259
asg71
S'20'
p260
sg72
(ischedule
Group
p261
(dp262
g8
g258
sg77
S'Moderne Databases2'
p263
sbsg73
(iread_data
Room
p264
(dp265
g71
S'22'
p266
sg77
S'A1.06'
p267
sbsg79
g137
sg81
S'2'
p268
sg77
S'Moderne Databases'
p269
sbaa(lp270
(ischedule
Activity
p271
(dp272
g8
(lp273
g36
ag222
aS'58592894'
p274
ag16
aS'36527838'
p275
aS'27916487'
p276
aS'3883025'
p277
aS'58699305'
p278
aS'48198668'
p279
aS'78243495'
p280
aS'30658799'
p281
aS'70072978'
p282
aS'89180944'
p283
aS'58332004'
p284
aS'11741347'
p285
ag155
aS'83415514'
p286
ag235
aS'49631542'
p287
aS'83266686'
p288
aS'78443067'
p289
aS'75997788'
p290
aS'66621166'
p291
aS'27241113'
p292
ag31
aS'13911001'
p293
ag182
ag22
aS'96082155'
p294
aS'13218321'
p295
ag162
ag194
aS'84449005'
p296
aS'33776961'
p297
aS'59111489'
p298
aS'78544592'
p299
aS'1181560'
p300
aS'18144425'
p301
ag44
aS'47462856'
p302
ag238
aS'41489515'
p303
ag259
aS'49219163'
p304
aS'78821918'
p305
aS'4709948'
p306
ag165
aS'1766560'
p307
aS'99283252'
p308
ag32
aS'77376714'
p309
aS'36748818'
p310
aS'51650744'
p311
ag156
asg71
I1000
sg72
Nsg73
(iread_data
Room
p312
(dp313
g71
g185
sg77
g186
sbsg79
g80
sg81
I0
sg77
g269
sba(ischedule
Activity
p314
(dp315
g8
(lp316
S'87900893'
p317
aS'87314964'
p318
ag164
aS'99453514'
p319
ag200
aS'93023961'
p320
aS'19337738'
p321
aS'66122625'
p322
aS'45414528'
p323
aS'97136582'
p324
ag88
ag232
aS'98780382'
p325
aS'25330192'
p326
aS'59753700'
p327
aS'13996448'
p328
aS'91196968'
p329
aS'81022997'
p330
ag68
ag177
aS'17823206'
p331
aS'13116738'
p332
ag224
aS'68360259'
p333
ag35
aS'52311353'
p334
ag119
asg71
I1000
sg72
Nsg73
(iread_data
Room
p335
(dp336
g71
S'117'
p337
sg77
S'C0.110'
p338
sbsg79
g80
sg81
I0
sg77
S'Data Mining'
p339
sba(ischedule
Activity
p340
(dp341
g8
(lp342
g226
ag148
ag69
aS'27123462'
p343
ag161
aS'25077484'
p344
aS'72456780'
p345
aS'5526560'
p346
ag30
ag48
aS'88752563'
p347
aS'59397895'
p348
aS'60352393'
p349
aS'13132925'
p350
aS'83869542'
p351
aS'56872729'
p352
ag13
aS'4921119'
p353
aS'56191333'
p354
ag147
ag104
ag284
aS'47932106'
p355
aS'23658570'
p356
ag169
aS'64947290'
p357
ag143
aS'91527663'
p358
ag118
aS'34872117'
p359
ag121
ag205
aS'26207525'
p360
aS'17092717'
p361
aS'56121590'
p362
aS'670011'
p363
asg71
S'40'
p364
sg72
(ischedule
Group
p365
(dp366
g8
g342
sg77
S'Databases 21'
p367
sbsg73
(iread_data
Room
p368
(dp369
g71
g112
sg77
g113
sbsg79
S'tutorials'
p370
sg81
g138
sg77
S'Databases 2'
p371
sbaa(lp372
(ischedule
Activity
p373
(dp374
g8
g218
sg71
I1000
sg72
Nsg73
(iread_data
Room
p375
(dp376
g71
g253
sg77
g254
sbsg79
g80
sg81
I0
sg77
g255
sba(ischedule
Activity
p377
(dp378
g8
(lp379
S'60661905'
p380
aS'2317551'
p381
aS'22288615'
p382
ag363
aS'27582862'
p383
ag65
ag306
ag158
aS'85284256'
p384
aS'23391676'
p385
aS'28943658'
p386
ag193
aS'9731271'
p387
aS'92778619'
p388
aS'37279234'
p389
ag11
ag100
aS'34262212'
p390
ag159
aS'63096281'
p391
aS'23257088'
p392
aS'39905995'
p393
aS'86807027'
p394
aS'94687383'
p395
ag201
aS'63634350'
p396
aS'20618153'
p397
aS'2416751'
p398
aS'79167252'
p399
aS'41585485'
p400
ag329
ag194
aS'23215240'
p401
aS'73196865'
p402
aS'10698627'
p403
aS'73893840'
p404
aS'20830477'
p405
ag50
asg71
S'20'
p406
sg72
(ischedule
Group
p407
(dp408
g8
g379
sg77
S'Programmeren in Java 23'
p409
sbsg73
(iread_data
Room
p410
(dp411
g71
g112
sg77
g113
sbsg79
g137
sg81
S'3'
p412
sg77
S'Programmeren in Java 2'
p413
sba(ischedule
Activity
p414
(dp415
g8
(lp416
g56
aS'64053722'
p417
aS'92977271'
p418
ag297
aS'86988337'
p419
ag205
aS'97019450'
p420
ag155
aS'58469172'
p421
ag240
ag356
ag67
aS'10702778'
p422
ag169
aS'7492204'
p423
aS'79879876'
p424
ag286
aS'8464817'
p425
ag52
ag206
aS'58040377'
p426
ag49
aS'38499176'
p427
aS'66433883'
p428
aS'23983476'
p429
aS'88597745'
p430
aS'70113753'
p431
aS'88519892'
p432
aS'7386961'
p433
ag192
ag86
ag353
ag14
aS'36903574'
p434
aS'80135353'
p435
asg71
g406
sg72
(ischedule
Group
p436
(dp437
g8
g416
sg77
S'Programmeren in Java 24'
p438
sbsg73
(iread_data
Room
p439
(dp440
g71
g213
sg77
g214
sbsg79
g137
sg81
S'4'
p441
sg77
g413
sba(ischedule
Activity
p442
(dp443
g8
(lp444
g24
ag349
aS'20095994'
p445
aS'27370083'
p446
aS'57086672'
p447
aS'54569540'
p448
asg71
S'20'
p449
sg72
(ischedule
Group
p450
(dp451
g8
g444
sg77
S'Reflectie op de digitale cultuur2'
p452
sbsg73
(iread_data
Room
p453
(dp454
g71
g185
sg77
g186
sbsg79
g370
sg81
g268
sg77
S'Reflectie op de digitale cultuur'
p455
sba(ischedule
Activity
p456
(dp457
g8
(lp458
S'72895450'
p459
aS'27298319'
p460
ag274
ag35
ag309
ag28
asg71
S'25'
p461
sg72
(ischedule
Group
p462
(dp463
g8
g458
sg77
S'Algoritmen en complexiteit1'
p464
sbsg73
(iread_data
Room
p465
(dp466
g71
g337
sg77
g338
sbsg79
g370
sg81
g138
sg77
S'Algoritmen en complexiteit'
p467
sba(ischedule
Activity
p468
(dp469
g8
(lp470
g362
aS'72665524'
p471
aS'70844780'
p472
aS'53267490'
p473
aS'77392404'
p474
ag277
aS'34243356'
p475
aS'64246605'
p476
asg71
S'20'
p477
sg72
(ischedule
Group
p478
(dp479
g8
g470
sg77
S'Netwerken en systeembeveiliging2'
p480
sbsg73
(iread_data
Room
p481
(dp482
g71
g266
sg77
g267
sbsg79
g137
sg81
g268
sg77
S'Netwerken en systeembeveiliging'
p483
sba(ischedule
Activity
p484
(dp485
g8
(lp486
S'94955328'
p487
ag323
aS'51791169'
p488
aS'47477884'
p489
aS'12782624'
p490
ag13
ag357
aS'90296821'
p491
ag328
aS'44671041'
p492
aS'54772132'
p493
ag200
aS'1048485'
p494
aS'53585410'
p495
aS'48503689'
p496
ag207
aS'3678531'
p497
aS'77960666'
p498
aS'55474917'
p499
asg71
g406
sg72
(ischedule
Group
p500
(dp501
g8
g486
sg77
S'Programmeren in Java 26'
p502
sbsg73
(iread_data
Room
p503
(dp504
g71
g135
sg77
g136
sbsg79
g137
sg81
S'6'
p505
sg77
g413
sbaa(lp506
(ischedule
Activity
p507
(dp508
g8
(lp509
S'16333449'
p510
ag11
aS'39230359'
p511
ag474
aS'43460038'
p512
ag447
ag403
ag248
ag53
aS'5615125'
p513
aS'49908313'
p514
ag167
ag382
aS'76648468'
p515
aS'43902015'
p516
aS'14303208'
p517
ag170
ag397
aS'28358060'
p518
ag459
ag280
aS'24891081'
p519
ag106
aS'53512831'
p520
ag102
aS'76903244'
p521
ag283
aS'69459473'
p522
aS'1137946'
p523
aS'94930277'
p524
ag398
aS'41790793'
p525
ag361
ag30
aS'3474870'
p526
ag55
aS'27064249'
p527
ag226
aS'67073567'
p528
asg71
I1000
sg72
Nsg73
(iread_data
Room
p529
(dp530
g71
g185
sg77
g186
sbsg79
g80
sg81
I0
sg77
S'Webprogrammeren en databases'
p531
sba(ischedule
Activity
p532
(dp533
g8
(lp534
g228
ag249
aS'75585647'
p535
ag332
aS'18266644'
p536
ag284
aS'13658563'
p537
ag14
aS'29718115'
p538
ag223
aS'8557857'
p539
ag392
ag429
aS'19958553'
p540
aS'17496687'
p541
ag222
ag36
ag310
aS'11459236'
p542
ag177
ag418
asg71
I1000
sg72
Nsg73
(iread_data
Room
p543
(dp544
g71
g253
sg77
g254
sbsg79
g80
sg81
I0
sg77
S'Informatie- en organsatieontwerp'
p545
sba(ischedule
Activity
p546
(dp547
g8
(lp548
S'62736669'
p549
aS'59075181'
p550
aS'87830198'
p551
aS'62363761'
p552
ag345
ag220
aS'28618400'
p553
ag28
aS'40343779'
p554
ag494
aS'19058315'
p555
aS'5590289'
p556
aS'59887191'
p557
ag360
ag306
ag62
ag173
ag60
aS'57467488'
p558
aS'72586808'
p559
ag200
ag65
ag326
aS'70939718'
p560
aS'31247305'
p561
ag98
ag175
ag25
aS'25557516'
p562
ag324
aS'16912993'
p563
ag176
asg71
g477
sg72
(ischedule
Group
p564
(dp565
g8
g548
sg77
S'Netwerken en systeembeveiliging1'
p566
sbsg73
(iread_data
Room
p567
(dp568
g71
g112
sg77
g113
sbsg79
g137
sg81
g138
sg77
g483
sba(ischedule
Activity
p569
(dp570
g8
(lp571
S'55412918'
p572
ag475
ag329
ag63
ag13
aS'94686490'
p573
aS'80998260'
p574
ag171
aS'83210352'
p575
aS'34588570'
p576
ag146
ag10
ag100
aS'81218347'
p577
ag499
ag56
aS'90743504'
p578
aS'96118484'
p579
aS'79937969'
p580
ag427
ag37
ag86
ag526
aS'75005528'
p581
ag243
aS'16097870'
p582
ag510
ag487
ag126
aS'80709893'
p583
aS'54074680'
p584
ag39
ag96
aS'32595335'
p585
ag353
aS'71839156'
p586
ag250
ag275
ag31
ag122
ag352
aS'21311067'
p587
ag229
aS'61060652'
p588
aS'42115591'
p589
aS'58866007'
p590
aS'23565001'
p591
aS'26172512'
p592
ag334
ag127
aS'66570705'
p593
aS'74182182'
p594
ag363
aS'16011419'
p595
asg71
I1000
sg72
Nsg73
(iread_data
Room
p596
(dp597
g71
g213
sg77
g214
sbsg79
g80
sg81
I0
sg77
S'Lineaire Algebra'
p598
sba(ischedule
Activity
p599
(dp600
g8
(lp601
g64
asg71
g406
sg72
(ischedule
Group
p602
(dp603
g8
g601
sg77
S'Programmeren in Java 21'
p604
sbsg73
(iread_data
Room
p605
(dp606
g71
g135
sg77
g136
sbsg79
g137
sg81
g138
sg77
g413
sbaa(lp607
(ischedule
Activity
p608
(dp609
g8
(lp610
g198
ag236
ag206
ag358
ag558
ag357
ag419
aS'88596522'
p611
ag52
ag495
ag428
ag429
ag179
ag434
ag92
aS'14671406'
p612
aS'23652927'
p613
ag400
aS'52715680'
p614
ag554
ag68
aS'67817269'
p615
ag46
ag94
aS'21095566'
p616
aS'64554442'
p617
aS'51509565'
p618
ag119
ag526
aS'78136904'
p619
aS'19540225'
p620
aS'8522855'
p621
aS'26260141'
p622
ag516
ag108
aS'41527759'
p623
ag96
asg71
S'25'
p624
sg72
(ischedule
Group
p625
(dp626
g8
g610
sg77
S'Algoritmen en complexiteit2'
p627
sbsg73
(iread_data
Room
p628
(dp629
g71
S'60'
p630
sg77
S'C1.112'
p631
sbsg79
g137
sg81
g268
sg77
g467
sba(ischedule
Activity
p632
(dp633
g8
(lp634
g517
ag55
aS'73302736'
p635
aS'75623387'
p636
ag201
aS'56348773'
p637
aS'53139134'
p638
ag513
aS'32705005'
p639
ag191
aS'77306636'
p640
ag42
aS'55530367'
p641
ag497
ag552
ag489
ag471
aS'10792879'
p642
aS'56544130'
p643
aS'78735049'
p644
aS'40141996'
p645
aS'6939933'
p646
ag145
ag171
ag290
ag286
ag387
ag143
aS'14179347'
p647
aS'24875739'
p648
ag355
ag356
ag25
aS'62105897'
p649
ag97
aS'19717077'
p650
ag560
ag229
ag103
asg71
S'40'
p651
sg72
(ischedule
Group
p652
(dp653
g8
g634
sg77
S'Calculus 21'
p654
sbsg73
(iread_data
Room
p655
(dp656
g71
S'41'
p657
sg77
S'A1.04'
p658
sbsg79
g370
sg81
g138
sg77
S'Calculus 2'
p659
sba(ischedule
Activity
p660
(dp661
g8
(lp662
g126
ag127
ag460
ag582
ag31
ag431
ag166
ag118
ag164
ag124
ag249
aS'88627897'
p663
ag205
aS'62356458'
p664
ag125
ag119
ag123
ag120
ag121
ag128
ag224
ag122
asg71
I1000
sg72
Nsg73
(iread_data
Room
p665
(dp666
g71
S'22'
p667
sg77
S'A1.06'
p668
sbsg79
g80
sg81
I0
sg77
g139
sba(ischedule
Activity
p669
(dp670
g8
(lp671
g208
ag12
ag512
aS'59289233'
p672
ag590
ag359
ag283
ag288
ag226
ag229
aS'72683344'
p673
aS'27925117'
p674
ag53
aS'20331158'
p675
aS'70015932'
p676
ag204
ag538
ag28
aS'14138904'
p677
aS'13798030'
p678
ag553
asg71
I1000
sg72
Nsg73
(iread_data
Room
p679
(dp680
g71
g213
sg77
g214
sbsg79
g80
sg81
I0
sg77
S'Architectuur en computerorganisatie'
p681
sba(ischedule
Activity
p682
(dp683
g8
(lp684
g35
ag170
ag161
ag160
ag162
asg71
S'20'
p685
sg72
(ischedule
Group
p686
(dp687
g8
g684
sg77
S'Bioinformatica3'
p688
sbsg73
(iread_data
Room
p689
(dp690
g71
g112
sg77
g113
sbsg79
g370
sg81
g412
sg77
g187
sba(ischedule
Activity
p691
(dp692
g8
(lp693
g44
ag65
ag14
ag24
ag58
ag47
ag54
ag36
ag64
ag26
ag49
ag56
ag66
asg71
S'20'
p694
sg72
(ischedule
Group
p695
(dp696
g8
g693
sg77
S'Collectieve Intelligentie4'
p697
sbsg73
(iread_data
Room
p698
(dp699
g71
g135
sg77
g136
sbsg79
g370
sg81
g441
sg77
g82
sba(ischedule
Activity
p700
(dp701
g8
(lp702
g232
ag36
ag165
ag230
ag66
ag234
ag225
ag239
ag156
ag224
ag220
ag248
ag18
ag227
ag235
ag226
ag247
ag237
ag223
ag246
ag233
ag243
ag249
ag244
ag231
ag51
ag229
ag241
ag245
ag242
ag219
ag228
ag240
asg71
S'20'
p703
sg72
(ischedule
Group
p704
(dp705
g8
g702
sg77
S'Technology for games1'
p706
sbsg73
(iread_data
Room
p707
(dp708
g71
g337
sg77
g338
sbsg79
g370
sg81
g138
sg77
g255
sbaaa(lp709
(lp710
(ischedule
Activity
p711
(dp712
g8
(lp713
g487
ag621
ag387
ag331
ag209
aS'72547110'
p714
aS'91139627'
p715
ag475
ag287
ag284
ag396
ag199
ag33
ag169
ag204
aS'28957789'
p716
ag619
ag69
ag639
ag423
ag675
aS'44940353'
p717
aS'39919665'
p718
ag302
ag178
ag623
ag148
ag594
aS'79858178'
p719
ag644
ag244
aS'37498675'
p720
ag154
aS'14398123'
p721
ag192
ag561
aS'65003379'
p722
aS'84110134'
p723
ag120
aS'84524083'
p724
aS'51186803'
p725
aS'99272880'
p726
ag390
ag427
ag513
aS'63955238'
p727
ag201
ag589
ag241
ag448
aS'79366078'
p728
ag17
ag223
ag239
ag41
ag642
ag499
aS'31633723'
p729
aS'63408522'
p730
ag421
ag259
aS'51542218'
p731
ag420
aS'20239127'
p732
ag400
aS'10872825'
p733
ag385
ag511
aS'38329455'
p734
ag536
ag89
ag612
ag202
ag171
aS'39659121'
p735
ag329
ag550
ag101
aS'47605891'
p736
ag577
aS'82688900'
p737
ag434
ag648
ag149
asg71
I1000
sg72
Nsg73
(iread_data
Room
p738
(dp739
g71
g76
sg77
g78
sbsg79
g80
sg81
I0
sg77
S'Kansrekenen 2'
p740
sba(ischedule
Activity
p741
(dp742
g8
(lp743
g305
ag162
ag22
ag274
ag24
ag558
ag282
ag419
ag238
ag392
ag44
ag287
aS'86180471'
p744
aS'73823548'
p745
aS'90474003'
p746
aS'54540997'
p747
aS'12091019'
p748
ag516
ag489
ag66
ag50
aS'58083680'
p749
ag31
ag645
ag549
ag28
ag573
ag731
ag581
aS'4529208'
p750
aS'15187217'
p751
ag119
ag498
ag63
aS'5085194'
p752
aS'46989508'
p753
asg71
g364
sg72
(ischedule
Group
p754
(dp755
g8
g743
sg77
S'Databases 22'
p756
sbsg73
(iread_data
Room
p757
(dp758
g71
g253
sg77
g254
sbsg79
g370
sg81
g268
sg77
g371
sba(ischedule
Activity
p759
(dp760
g8
(lp761
g459
ag447
ag526
ag510
ag170
ag102
ag167
ag518
ag398
ag524
ag474
ag382
ag525
ag280
ag527
ag403
ag520
ag528
ag397
ag226
ag30
ag283
ag514
ag516
asg71
S'20'
p762
sg72
(ischedule
Group
p763
(dp764
g8
g761
sg77
S'Webprogrammeren en databases2'
p765
sbsg73
(iread_data
Room
p766
(dp767
g71
g112
sg77
g113
sbsg79
g370
sg81
g268
sg77
g531
sba(ischedule
Activity
p768
(dp769
g8
(lp770
g431
ag224
asg71
S'10'
p771
sg72
(ischedule
Group
p772
(dp773
g8
g770
sg77
S'Autonomous Agents 23'
p774
sbsg73
(iread_data
Room
p775
(dp776
g71
g266
sg77
g267
sbsg79
g370
sg81
g412
sg77
g139
sba(ischedule
Activity
p777
(dp778
g8
(lp779
g166
ag582
ag249
ag460
ag664
ag31
ag164
ag205
ag663
asg71
g771
sg72
(ischedule
Group
p780
(dp781
g8
g779
sg77
S'Autonomous Agents 22'
p782
sbsg73
(iread_data
Room
p783
(dp784
g71
g135
sg77
g136
sbsg79
g370
sg81
g268
sg77
g139
sba(ischedule
Activity
p785
(dp786
g8
(lp787
g224
ag177
ag332
ag200
ag232
ag319
ag334
ag35
ag328
ag322
ag329
ag333
ag325
ag320
ag68
ag321
ag324
ag327
ag330
asg71
S'10'
p788
sg72
(ischedule
Group
p789
(dp790
g8
g787
sg77
S'Data Mining2'
p791
sbsg73
(iread_data
Room
p792
(dp793
g71
g213
sg77
g214
sbsg79
g370
sg81
g268
sg77
g339
sba(ischedule
Activity
p794
(dp795
g8
(lp796
g164
ag88
ag323
ag119
asg71
g788
sg72
(ischedule
Group
p797
(dp798
g8
g796
sg77
S'Data Mining3'
p799
sbsg73
(iread_data
Room
p800
(dp801
g71
g185
sg77
g186
sbsg79
g370
sg81
g412
sg77
g339
sbaa(lp802
(ischedule
Activity
p803
(dp804
g8
g142
sg71
I1000
sg72
Nsg73
(iread_data
Room
p805
(dp806
g71
g337
sg77
g338
sbsg79
g80
sg81
I0
sg77
g187
sba(ischedule
Activity
p807
(dp808
g8
(lp809
g243
aS'27950803'
p810
aS'41644639'
p811
ag127
ag551
ag305
aS'75680261'
p812
ag308
aS'66701209'
p813
ag721
aS'74361881'
p814
ag20
aS'48678993'
p815
ag647
aS'82066165'
p816
ag346
ag89
aS'88737765'
p817
ag344
aS'25994016'
p818
aS'51673172'
p819
aS'58253841'
p820
ag522
ag160
ag296
aS'55480737'
p821
aS'87602030'
p822
ag19
ag107
ag192
ag206
asg71
S'15'
p823
sg72
(ischedule
Group
p824
(dp825
g8
g809
sg77
S'Project Genetic Algorithms1'
p826
sbsg73
(iread_data
Room
p827
(dp828
g71
g112
sg77
g113
sbsg79
g137
sg81
g138
sg77
S'Project Genetic Algorithms'
p829
sba(ischedule
Activity
p830
(dp831
g8
g671
sg71
I1000
sg72
Nsg73
(iread_data
Room
p832
(dp833
g71
g253
sg77
g254
sbsg79
g80
sg81
I0
sg77
g681
sba(ischedule
Activity
p834
(dp835
g8
(lp836
S'41153310'
p837
aS'88263855'
p838
ag726
ag282
ag331
aS'51593625'
p839
ag649
asg71
g406
sg72
(ischedule
Group
p840
(dp841
g8
g836
sg77
S'Programmeren in Java 22'
p842
sbsg73
(iread_data
Room
p843
(dp844
g71
g213
sg77
g214
sbsg79
g137
sg81
g268
sg77
g413
sba(ischedule
Activity
p845
(dp846
g8
g693
sg71
S'20'
p847
sg72
g695
sg73
(iread_data
Room
p848
(dp849
g71
g266
sg77
g267
sbsg79
g137
sg81
g441
sg77
g82
sba(ischedule
Activity
p850
(dp851
g8
g770
sg71
g129
sg72
g772
sg73
(iread_data
Room
p852
(dp853
g71
g135
sg77
g136
sbsg79
g137
sg81
g412
sg77
g139
sba(ischedule
Activity
p854
(dp855
g8
(lp856
g55
ag67
ag21
ag42
ag38
ag23
ag59
ag25
ag27
ag70
ag10
ag15
ag45
ag43
ag12
ag61
ag13
ag34
ag30
asg71
g694
sg72
(ischedule
Group
p857
(dp858
g8
g856
sg77
S'Collectieve Intelligentie1'
p859
sbsg73
(iread_data
Room
p860
(dp861
g71
g185
sg77
g186
sbsg79
g370
sg81
g138
sg77
g82
sbaa(lp862
(ischedule
Activity
p863
(dp864
g8
(lp865
g235
ag280
ag279
ag283
ag290
ag182
ag286
ag302
ag308
ag304
ag278
ag311
ag305
ag287
ag288
asg71
S'20'
p866
sg72
(ischedule
Group
p867
(dp868
g8
g865
sg77
S'Moderne Databases3'
p869
sbsg73
(iread_data
Room
p870
(dp871
g71
g135
sg77
g136
sbsg79
g370
sg81
g412
sg77
g269
sba(ischedule
Activity
p872
(dp873
g8
g9
sg71
I1000
sg72
Nsg73
(iread_data
Room
p874
(dp875
g71
g337
sg77
g338
sbsg79
g80
sg81
I0
sg77
g82
sba(ischedule
Activity
p876
(dp877
g8
(lp878
g744
aS'40633534'
p879
asg71
g823
sg72
(ischedule
Group
p880
(dp881
g8
g878
sg77
S'Project Genetic Algorithms2'
p882
sbsg73
(iread_data
Room
p883
(dp884
g71
g253
sg77
g254
sbsg79
g137
sg81
g268
sg77
g829
sba(ischedule
Activity
p885
(dp886
g8
(lp887
g387
ag536
ag493
aS'4353500'
p888
ag384
aS'63573738'
p889
asg71
g477
sg72
(ischedule
Group
p890
(dp891
g8
g887
sg77
S'Netwerken en systeembeveiliging4'
p892
sbsg73
(iread_data
Room
p893
(dp894
g71
g266
sg77
g267
sbsg79
g137
sg81
g441
sg77
g483
sba(ischedule
Activity
p895
(dp896
g8
(lp897
S'68286356'
p898
ag472
aS'27805666'
p899
aS'96554914'
p900
ag191
ag219
ag319
aS'36213792'
p901
ag419
ag380
ag388
ag224
aS'42406214'
p902
ag296
ag156
ag619
ag810
ag243
ag172
ag724
ag614
ag86
ag474
ag209
ag297
aS'13718298'
p903
ag327
aS'70193386'
p904
ag551
ag732
aS'51415617'
p905
ag158
ag746
ag174
aS'49922855'
p906
aS'82390428'
p907
aS'99975346'
p908
ag128
aS'51052738'
p909
ag199
ag537
ag498
aS'32044893'
p910
asg71
g449
sg72
(ischedule
Group
p911
(dp912
g8
g897
sg77
S'Reflectie op de digitale cultuur1'
p913
sbsg73
(iread_data
Room
p914
(dp915
g71
g185
sg77
g186
sbsg79
g370
sg81
g138
sg77
g455
sba(ischedule
Activity
p916
(dp917
g8
(lp918
g155
ag165
ag153
ag179
ag149
ag145
ag41
ag147
ag168
ag174
ag157
ag178
ag166
ag146
ag151
ag144
ag175
ag167
ag159
ag148
ag62
ag158
ag176
ag88
ag152
ag177
ag181
ag163
asg71
g685
sg72
(ischedule
Group
p919
(dp920
g8
g918
sg77
S'Bioinformatica2'
p921
sbsg73
(iread_data
Room
p922
(dp923
g71
g213
sg77
g214
sbsg79
g370
sg81
g268
sg77
g187
sbaa(lp924
(ischedule
Activity
p925
(dp926
g8
(lp927
g120
ag13
ag34
ag222
ag37
ag41
ag419
ag724
aS'75599734'
p928
aS'95631564'
p929
ag201
ag475
aS'76802764'
p930
ag195
ag220
ag810
ag281
ag40
ag813
aS'9067939'
p931
aS'44391517'
p932
ag425
ag395
ag153
aS'92665222'
p933
ag235
aS'98105190'
p934
ag121
ag208
ag381
ag496
ag642
aS'65852230'
p935
ag101
aS'95007221'
p936
ag293
aS'15911353'
p937
ag285
ag753
ag205
ag347
ag250
ag307
ag210
ag96
aS'3407554'
p938
ag435
asg71
S'40'
p939
sg72
(ischedule
Group
p940
(dp941
g8
g927
sg77
S'Compilerbouw2'
p942
sbsg73
(iread_data
Room
p943
(dp944
g71
g337
sg77
g338
sbsg79
g137
sg81
g268
sg77
S'Compilerbouw'
p945
sba(ischedule
Activity
p946
(dp947
g8
g142
sg71
I1000
sg72
Nsg73
(iread_data
Room
p948
(dp949
g71
g112
sg77
g113
sbsg79
g80
sg81
I0
sg77
g187
sba(ischedule
Activity
p950
(dp951
g8
(lp952
g586
ag811
ag752
ag542
ag427
ag819
ag818
ag677
ag471
ag614
ag46
ag726
aS'5892092'
p953
ag611
ag401
aS'55103073'
p954
aS'51472074'
p955
ag495
ag68
asg71
S'15'
p956
sg72
(ischedule
Group
p957
(dp958
g8
g952
sg77
S'Compilerbouw practicum2'
p959
sbsg73
(iread_data
Room
p960
(dp961
g71
g185
sg77
g186
sbsg79
g137
sg81
g268
sg77
S'Compilerbouw practicum'
p962
sba(ischedule
Activity
p963
(dp964
g8
(lp965
g582
ag70
ag48
ag94
aS'35315956'
p966
aS'52304977'
p967
ag280
aS'58736785'
p968
ag815
ag908
asg71
S'20'
p969
sg72
(ischedule
Group
p970
(dp971
g8
g965
sg77
S'Heuristieken 21'
p972
sbsg73
(iread_data
Room
p973
(dp974
g71
g253
sg77
g254
sbsg79
g370
sg81
g138
sg77
S'Heuristieken 2'
p975
sba(ischedule
Activity
p976
(dp977
g8
(lp978
g517
ag228
ag814
ag938
aS'1695839'
p979
asg71
g956
sg72
(ischedule
Group
p980
(dp981
g8
g978
sg77
S'Compilerbouw practicum3'
p982
sbsg73
(iread_data
Room
p983
(dp984
g71
g213
sg77
g214
sbsg79
g137
sg81
g412
sg77
g962
sbaa(lp985
(ischedule
Activity
p986
(dp987
g8
(lp988
S'14941752'
p989
ag290
ag232
ag588
ag524
ag143
ag434
ag934
ag968
aS'48357272'
p990
ag60
ag42
ag677
ag550
ag586
ag418
ag238
ag224
aS'76393508'
p991
ag394
ag16
ag675
ag23
ag577
aS'87210640'
p992
ag322
ag249
ag537
aS'31897288'
p993
ag888
ag180
aS'45660925'
p994
aS'53775014'
p995
ag171
ag128
aS'97417002'
p996
ag123
ag36
ag558
ag424
ag405
ag420
aS'83443653'
p997
ag169
asg71
I1000
sg72
Nsg73
(iread_data
Room
p998
(dp999
g71
S'56'
p1000
sg77
S'A1.10'
p1001
sbsg79
g80
sg81
I0
sg77
S'Heuristieken 1'
p1002
sba(ischedule
Activity
p1003
(dp1004
g8
(lp1005
g362
ag143
ag353
ag731
ag44
ag347
ag392
ag274
ag745
ag645
ag104
ag558
ag226
ag346
ag48
ag162
ag749
ag63
ag363
ag31
ag753
ag348
ag30
ag747
ag751
ag118
ag356
ag752
ag119
ag357
ag161
ag581
ag351
ag359
ag148
ag349
ag305
ag549
ag66
ag22
ag744
ag360
ag746
ag343
ag361
ag419
ag748
ag238
ag287
ag282
ag50
ag489
ag205
ag354
ag352
ag498
ag350
ag355
ag345
ag169
ag69
ag24
ag147
ag516
ag750
ag13
ag284
ag358
ag344
ag121
ag28
ag573
asg71
I1000
sg72
Nsg73
(iread_data
Room
p1006
(dp1007
g71
g76
sg77
g78
sbsg79
g80
sg81
I0
sg77
g371
sba(ischedule
Activity
p1008
(dp1009
g8
(lp1010
g236
ag250
ag221
ag222
ag238
asg71
g703
sg72
(ischedule
Group
p1011
(dp1012
g8
g1010
sg77
S'Technology for games2'
p1013
sbsg73
(iread_data
Room
p1014
(dp1015
g71
g112
sg77
g113
sbsg79
g370
sg81
g268
sg77
g255
sba(ischedule
Activity
p1016
(dp1017
g8
g190
sg71
I1000
sg72
Nsg73
(iread_data
Room
p1018
(dp1019
g71
g266
sg77
g267
sbsg79
g80
sg81
I0
sg77
g215
sba(ischedule
Activity
p1020
(dp1021
g8
(lp1022
g317
ag318
ag326
ag331
asg71
g788
sg72
(ischedule
Group
p1023
(dp1024
g8
g1022
sg77
S'Data Mining1'
p1025
sbsg73
(iread_data
Room
p1026
(dp1027
g71
g253
sg77
g254
sbsg79
g370
sg81
g138
sg77
g339
sba(ischedule
Activity
p1028
(dp1029
g8
g918
sg71
S'20'
p1030
sg72
g919
sg73
(iread_data
Room
p1031
(dp1032
g71
g185
sg77
g186
sbsg79
g137
sg81
g268
sg77
g187
sba(ischedule
Activity
p1033
(dp1034
g8
g458
sg71
g624
sg72
g462
sg73
(iread_data
Room
p1035
(dp1036
g71
g135
sg77
g136
sbsg79
g137
sg81
g138
sg77
g467
sbaaa(lp1037
(lp1038
(ischedule
Activity
p1039
(dp1040
g8
(lp1041
g86
ag732
ag905
ag296
ag810
ag306
ag446
ag191
ag551
ag174
ag419
ag746
ag448
ag901
ag899
ag224
ag903
ag128
ag537
ag243
ag172
ag909
ag910
ag908
ag906
ag199
ag724
ag472
ag349
ag447
ag319
ag907
ag327
ag388
ag898
ag297
ag900
ag22
ag24
ag474
ag445
ag219
ag619
ag902
ag498
ag614
ag158
ag380
ag209
ag156
ag904
asg71
I1000
sg72
Nsg73
(iread_data
Room
p1042
(dp1043
g71
g76
sg77
g78
sbsg79
g80
sg81
I0
sg77
g455
sba(ischedule
Activity
p1044
(dp1045
g8
g571
sg71
I1000
sg72
Nsg73
(iread_data
Room
p1046
(dp1047
g71
g630
sg77
g631
sbsg79
g80
sg81
I0
sg77
g598
sba(ischedule
Activity
p1048
(dp1049
g8
(lp1050
g36
ag14
ag177
ag223
ag249
ag228
ag538
ag310
ag539
ag537
ag541
ag542
ag540
ag535
ag392
ag222
ag284
ag332
ag418
asg71
S'15'
p1051
sg72
(ischedule
Group
p1052
(dp1053
g8
g1050
sg77
S'Informatie- en organsatieontwerp1'
p1054
sbsg73
(iread_data
Room
p1055
(dp1056
g71
g135
sg77
g136
sbsg79
g137
sg81
g138
sg77
g545
sba(ischedule
Activity
p1057
(dp1058
g8
(lp1059
g513
ag511
ag361
ag523
ag106
ag512
ag517
ag521
ag55
ag522
ag11
ag519
ag53
ag248
ag515
asg71
S'20'
p1060
sg72
(ischedule
Group
p1061
(dp1062
g8
g1059
sg77
S'Webprogrammeren en databases1'
p1063
sbsg73
(iread_data
Room
p1064
(dp1065
g71
g266
sg77
g267
sbsg79
g137
sg81
g138
sg77
g531
sba(ischedule
Activity
p1066
(dp1067
g8
(lp1068
g434
ag52
ag459
ag617
ag616
ag612
ag619
ag108
ag429
ag68
ag526
ag94
ag357
ag119
ag96
ag622
ag28
ag618
ag623
ag615
ag554
ag46
ag516
ag206
ag611
ag35
ag428
ag198
ag613
ag558
ag614
ag400
ag179
ag620
ag495
ag309
ag92
ag419
ag460
ag274
ag358
ag236
ag621
asg71
I1000
sg72
Nsg73
(iread_data
Room
p1069
(dp1070
g71
g112
sg77
g113
sbsg79
g80
sg81
I0
sg77
g467
sba(ischedule
Activity
p1071
(dp1072
g8
(lp1073
g144
ag180
ag293
ag168
ag66
ag396
ag816
aS'91250534'
p1074
aS'64418623'
p1075
aS'44151631'
p1076
aS'42297781'
p1077
ag45
aS'535689'
p1078
ag230
ag91
aS'47260040'
p1079
asg71
g956
sg72
(ischedule
Group
p1080
(dp1081
g8
g1073
sg77
S'Compilerbouw practicum1'
p1082
sbsg73
(iread_data
Room
p1083
(dp1084
g71
g213
sg77
g214
sbsg79
g137
sg81
g138
sg77
g962
sbaa(lp1085
(ischedule
Activity
p1086
(dp1087
g8
(lp1088
g471
ag744
ag646
aS'33672995'
p1089
aS'88855695'
p1090
ag317
ag820
ag290
ag146
ag52
ag289
ag639
ag288
ag394
ag42
ag355
ag535
ag745
ag622
ag641
ag206
ag497
ag25
aS'11593163'
p1091
aS'6709529'
p1092
ag21
ag229
ag552
ag87
ag67
aS'45915482'
p1093
ag299
ag638
ag347
ag97
ag274
ag637
ag495
aS'75446434'
p1094
ag399
ag640
ag649
ag426
ag716
ag645
aS'61520025'
p1095
ag421
ag489
ag642
aS'82412626'
p1096
ag165
ag278
ag396
ag155
ag356
ag460
aS'22168693'
p1097
aS'93361408'
p1098
ag650
aS'34173695'
p1099
ag648
ag572
ag286
ag635
ag517
ag594
ag259
ag990
ag582
aS'59220392'
p1100
ag527
ag560
ag644
ag643
ag103
ag748
ag389
ag55
ag145
ag636
aS'80188025'
p1101
ag573
aS'79888156'
p1102
ag163
ag191
ag674
aS'10609762'
p1103
ag201
ag591
ag352
aS'72526473'
p1104
ag174
ag171
ag387
ag159
ag143
ag647
ag822
aS'65978354'
p1105
ag70
aS'23628642'
p1106
ag107
ag148
aS'31306819'
p1107
aS'65408517'
p1108
ag513
asg71
I1000
sg72
Nsg73
(iread_data
Room
p1109
(dp1110
g71
g76
sg77
g78
sbsg79
g80
sg81
I0
sg77
g659
sba(ischedule
Activity
p1111
(dp1112
g8
g534
sg71
I1000
sg72
Nsg73
(iread_data
Room
p1113
(dp1114
g71
g112
sg77
g113
sbsg79
g80
sg81
I0
sg77
g545
sba(ischedule
Activity
p1115
(dp1116
g8
(lp1117
g53
ag35
ag41
ag20
ag63
ag40
ag51
ag31
ag37
ag11
ag39
ag68
ag48
ag33
ag57
ag29
ag17
ag52
ag18
ag32
ag16
ag69
ag60
asg71
g694
sg72
(ischedule
Group
p1118
(dp1119
g8
g1117
sg77
S'Collectieve Intelligentie3'
p1120
sbsg73
(iread_data
Room
p1121
(dp1122
g71
g213
sg77
g214
sbsg79
g370
sg81
g412
sg77
g82
sba(ischedule
Activity
p1123
(dp1124
g8
g117
sg71
g771
sg72
g130
sg73
(iread_data
Room
p1125
(dp1126
g71
g185
sg77
g186
sbsg79
g370
sg81
g138
sg77
g139
sba(ischedule
Activity
p1127
(dp1128
g8
(lp1129
g22
ag62
ag46
ag50
ag28
ag19
asg71
g694
sg72
(ischedule
Group
p1130
(dp1131
g8
g1129
sg77
S'Collectieve Intelligentie2'
p1132
sbsg73
(iread_data
Room
p1133
(dp1134
g71
g253
sg77
g254
sbsg79
g370
sg81
g268
sg77
g82
sba(ischedule
Activity
p1135
(dp1136
g8
g779
sg71
g129
sg72
g780
sg73
(iread_data
Room
p1137
(dp1138
g71
g135
sg77
g136
sbsg79
g137
sg81
g268
sg77
g139
sbaa(lp1139
(ischedule
Activity
p1140
(dp1141
g8
(lp1142
g447
ag990
ag345
ag551
ag1089
aS'58480929'
p1143
ag475
ag731
aS'82854435'
p1144
aS'18477924'
p1145
ag635
ag165
ag589
aS'97838175'
p1146
ag380
ag356
ag903
ag305
ag290
ag582
ag353
aS'78822885'
p1147
ag181
ag204
ag243
ag128
ag219
ag334
aS'34900967'
p1148
ag69
ag752
ag420
ag997
aS'5595824'
p1149
ag487
ag817
ag591
aS'65318664'
p1150
ag48
aS'62613937'
p1151
aS'14637758'
p1152
ag815
ag643
ag559
ag150
ag904
aS'73350019'
p1153
ag536
ag1101
asg71
I1000
sg72
Nsg73
(iread_data
Room
p1154
(dp1155
g71
g185
sg77
g186
sbsg79
g80
sg81
I0
sg77
S'Analysemethoden en -technieken'
p1156
sba(ischedule
Activity
p1157
(dp1158
g8
g610
sg71
g461
sg72
g625
sg73
(iread_data
Room
p1159
(dp1160
g71
g253
sg77
g254
sbsg79
g370
sg81
g268
sg77
g467
sba(ischedule
Activity
p1161
(dp1162
g8
(lp1163
g723
ag90
ag664
ag239
ag24
ag459
ag902
aS'21070547'
p1164
ag168
ag910
aS'37419523'
p1165
ag199
ag250
ag307
ag62
ag330
aS'32183908'
p1166
aS'81116418'
p1167
asg71
S'15'
p1168
sg72
(ischedule
Group
p1169
(dp1170
g8
g1163
sg77
S'Project Numerical Recipes3'
p1171
sbsg73
(iread_data
Room
p1172
(dp1173
g71
g112
sg77
g113
sbsg79
g137
sg81
g412
sg77
S'Project Numerical Recipes'
p1174
sba(ischedule
Activity
p1175
(dp1176
g8
(lp1177
g16
ag31
ag32
ag22
ag282
ag277
ag296
ag162
ag44
ag285
ag156
ag36
ag303
ag284
ag310
ag274
ag289
ag155
ag309
ag276
ag194
ag292
ag295
ag222
ag306
ag165
ag294
ag275
ag299
ag307
ag293
ag300
ag297
ag291
ag301
ag298
ag281
ag238
asg71
g866
sg72
(ischedule
Group
p1178
(dp1179
g8
g1177
sg77
S'Moderne Databases1'
p1180
sbsg73
(iread_data
Room
p1181
(dp1182
g71
g213
sg77
g214
sbsg79
g370
sg81
g138
sg77
g269
sba(ischedule
Activity
p1183
(dp1184
g8
(lp1185
g95
ag745
ag153
ag496
ag181
ag989
aS'90103047'
p1186
aS'63939720'
p1187
ag149
aS'13284244'
p1188
ag394
aS'34691309'
p1189
ag581
ag553
aS'19662602'
p1190
aS'7957843'
p1191
ag328
ag34
ag594
ag889
aS'40911986'
p1192
asg71
g1168
sg72
(ischedule
Group
p1193
(dp1194
g8
g1185
sg77
S'Project Numerical Recipes2'
p1195
sbsg73
(iread_data
Room
p1196
(dp1197
g71
g337
sg77
g338
sbsg79
g137
sg81
g268
sg77
g1174
sba(ischedule
Activity
p1198
(dp1199
g8
g684
sg71
g1030
sg72
g686
sg73
(iread_data
Room
p1200
(dp1201
g71
g135
sg77
g136
sbsg79
g137
sg81
g412
sg77
g187
sba(ischedule
Activity
p1202
(dp1203
g8
(lp1204
g233
ag347
ag65
ag646
ag37
asg71
g1168
sg72
(ischedule
Group
p1205
(dp1206
g8
g1204
sg77
S'Project Numerical Recipes1'
p1207
sbsg73
(iread_data
Room
p1208
(dp1209
g71
g266
sg77
g267
sbsg79
g137
sg81
g138
sg77
g1174
sbaa(lp1210
(ischedule
Activity
p1211
(dp1212
g8
g713
sg71
I1000
sg72
Nsg73
(iread_data
Room
p1213
(dp1214
g71
g76
sg77
g78
sbsg79
g80
sg81
I0
sg77
g740
sba(ischedule
Activity
p1215
(dp1216
g8
(lp1217
g290
ag51
ag106
aS'1886996'
p1218
ag349
ag1151
ag53
ag394
ag471
ag933
ag673
aS'39429093'
p1219
ag879
ag472
ag489
ag147
ag619
asg71
S'10'
p1220
sg72
(ischedule
Group
p1221
(dp1222
g8
g1217
sg77
S'Advanced Heuristics2'
p1223
sbsg73
(iread_data
Room
p1224
(dp1225
g71
g266
sg77
g267
sbsg79
g137
sg81
g268
sg77
S'Advanced Heuristics'
p1226
sba(ischedule
Activity
p1227
(dp1228
g8
(lp1229
g170
ag107
ag160
ag399
aS'88636924'
p1230
ag1090
ag19
aS'75759231'
p1231
ag359
ag288
ag159
ag459
ag493
ag1188
aS'79033175'
p1232
aS'34110913'
p1233
ag1149
ag247
aS'43689934'
p1234
ag236
ag65
ag1191
asg71
g939
sg72
(ischedule
Group
p1235
(dp1236
g8
g1229
sg77
S'Compilerbouw1'
p1237
sbsg73
(iread_data
Room
p1238
(dp1239
g71
g112
sg77
g113
sbsg79
g137
sg81
g138
sg77
g945
sba(ischedule
Activity
p1240
(dp1241
g8
g316
sg71
I1000
sg72
Nsg73
(iread_data
Room
p1242
(dp1243
g71
g253
sg77
g254
sbsg79
g80
sg81
I0
sg77
g339
sba(ischedule
Activity
p1244
(dp1245
g8
g1177
sg71
g260
sg72
g1178
sg73
(iread_data
Room
p1246
(dp1247
g71
g185
sg77
g186
sbsg79
g137
sg81
g138
sg77
g269
sba(ischedule
Activity
p1248
(dp1249
g8
g856
sg71
g847
sg72
g857
sg73
(iread_data
Room
p1250
(dp1251
g71
g213
sg77
g214
sbsg79
g137
sg81
g138
sg77
g82
sbaa(lp1252
(ischedule
Activity
p1253
(dp1254
g8
g927
sg71
S'40'
p1255
sg72
g940
sg73
(iread_data
Room
p1256
(dp1257
g71
g630
sg77
g631
sbsg79
g370
sg81
g268
sg77
g945
sba(ischedule
Activity
p1258
(dp1259
g8
(lp1260
g745
ag299
ag107
ag399
ag744
ag716
ag70
ag389
ag1099
ag822
ag1097
ag421
ag1105
ag572
ag622
ag67
ag582
asg71
g651
sg72
(ischedule
Group
p1261
(dp1262
g8
g1260
sg77
S'Calculus 23'
p1263
sbsg73
(iread_data
Room
p1264
(dp1265
g71
g76
sg77
g78
sbsg79
g370
sg81
g412
sg77
g659
sba(ischedule
Activity
p1266
(dp1267
g8
g509
sg71
I1000
sg72
Nsg73
(iread_data
Room
p1268
(dp1269
g71
S'48'
p1270
sg77
S'B0.201'
p1271
sbsg79
g80
sg81
I0
sg77
g531
sba(ischedule
Activity
p1272
(dp1273
g8
g787
sg71
S'10'
p1274
sg72
g789
sg73
(iread_data
Room
p1275
(dp1276
g71
g667
sg77
g668
sbsg79
g137
sg81
g268
sg77
g339
sba(ischedule
Activity
p1277
(dp1278
g8
(lp1279
g52
ag165
ag163
ag460
ag1094
ag1095
ag87
ag289
ag1090
ag1102
ag1107
ag1108
ag1093
ag21
ag394
ag1089
ag495
ag159
ag352
ag535
ag1098
ag1100
ag274
ag146
ag288
ag573
ag527
ag1091
ag317
ag1103
ag1092
ag1096
ag259
ag1104
ag155
ag591
ag820
ag206
ag347
ag748
ag174
ag278
ag148
ag1106
ag674
ag1101
ag594
ag396
ag990
ag426
asg71
g651
sg72
(ischedule
Group
p1280
(dp1281
g8
g1279
sg77
S'Calculus 22'
p1282
sbsg73
(iread_data
Room
p1283
(dp1284
g71
g213
sg77
g214
sbsg79
g370
sg81
g268
sg77
g659
sba(ischedule
Activity
p1285
(dp1286
g8
(lp1287
g171
ag63
ag150
ag156
ag182
ag169
ag164
ag180
ag143
ag172
ag154
ag173
asg71
g1030
sg72
(ischedule
Group
p1288
(dp1289
g8
g1287
sg77
S'Bioinformatica1'
p1290
sbsg73
(iread_data
Room
p1291
(dp1292
g71
g135
sg77
g136
sbsg79
g137
sg81
g138
sg77
g187
sba(ischedule
Activity
p1293
(dp1294
g8
g1129
sg71
g847
sg72
g1130
sg73
(iread_data
Room
p1295
(dp1296
g71
g253
sg77
g254
sbsg79
g137
sg81
g268
sg77
g82
sbaaa(lp1297
(lp1298
(ischedule
Activity
p1299
(dp1300
g8
(lp1301
g395
ag399
ag250
ag493
ag222
ag65
ag810
ag459
ag359
ag1191
ag159
ag19
ag642
ag1232
ag1230
ag153
ag929
ag419
ag933
ag937
ag41
ag235
ag1234
ag496
ag931
ag936
ag96
ag107
ag195
ag40
ag34
ag935
ag1188
ag121
ag220
ag813
ag160
ag928
ag1233
ag934
ag13
ag37
ag1149
ag247
ag475
ag293
ag435
ag381
ag120
ag170
ag753
ag210
ag281
ag724
ag1090
ag288
ag938
ag1231
ag236
ag307
ag932
ag101
ag930
ag208
ag285
ag205
ag201
ag425
ag347
asg71
I1000
sg72
Nsg73
(iread_data
Room
p1302
(dp1303
g71
g76
sg77
g78
sbsg79
g80
sg81
I0
sg77
g945
sba(ischedule
Activity
p1304
(dp1305
g8
(lp1306
g168
ag97
ag494
ag232
ag929
ag54
ag235
ag512
ag928
ag50
ag144
ag38
ag163
ag499
ag810
ag554
aS'9287708'
p1307
ag622
ag154
ag583
ag309
ag588
ag676
ag167
ag492
ag68
ag283
aS'37830626'
p1308
aS'14072826'
p1309
aS'3727435'
p1310
ag151
ag200
ag561
ag723
ag903
ag839
ag280
ag227
ag383
ag1108
asg71
S'40'
p1311
sg72
(ischedule
Group
p1312
(dp1313
g8
g1306
sg77
S'Software engineering1'
p1314
sbsg73
(iread_data
Room
p1315
(dp1316
g71
g185
sg77
g186
sbsg79
g370
sg81
g138
sg77
S'Software engineering'
p1317
sba(ischedule
Activity
p1318
(dp1319
g8
(lp1320
g900
aS'58074656'
p1321
ag612
ag837
ag589
ag59
ag42
ag664
ag239
ag649
ag153
ag990
ag334
ag623
ag180
ag575
ag198
ag729
ag192
ag635
ag308
ag1150
ag127
ag166
ag616
ag128
ag1093
ag34
ag289
ag118
aS'82872148'
p1322
aS'31103066'
p1323
ag614
ag15
ag120
asg71
S'40'
p1324
sg72
(ischedule
Group
p1325
(dp1326
g8
g1320
sg77
S'Software engineering2'
p1327
sbsg73
(iread_data
Room
p1328
(dp1329
g71
g213
sg77
g214
sbsg79
g137
sg81
g268
sg77
g1317
sba(ischedule
Activity
p1330
(dp1331
g8
(lp1332
S'5739011'
p1333
ag968
ag967
ag149
aS'15249775'
p1334
ag363
ag237
ag966
ag198
ag582
ag724
ag48
ag396
aS'72652638'
p1335
ag426
ag447
ag88
ag11
ag908
ag822
ag94
ag207
ag280
ag70
ag993
ag815
ag119
ag1218
ag351
ag330
ag674
aS'82968410'
p1336
asg71
I1000
sg72
Nsg73
(iread_data
Room
p1337
(dp1338
g71
g112
sg77
g113
sbsg79
g80
sg81
I0
sg77
g975
sba(ischedule
Activity
p1339
(dp1340
g8
g1022
sg71
g1274
sg72
g1023
sg73
(iread_data
Room
p1341
(dp1342
g71
g253
sg77
g254
sbsg79
g137
sg81
g138
sg77
g339
sba(ischedule
Activity
p1343
(dp1344
g8
(lp1345
g489
ag472
ag673
ag553
ag879
ag106
ag53
ag933
ag349
ag619
ag1218
ag51
ag1219
ag394
ag290
ag471
ag1151
ag147
ag527
ag178
asg71
I1000
sg72
Nsg73
(iread_data
Room
p1346
(dp1347
g71
g266
sg77
g267
sbsg79
g80
sg81
I0
sg77
g1226
sba(ischedule
Activity
p1348
(dp1349
g8
(lp1350
g429
ag536
asg71
S'15'
p1351
sg72
(ischedule
Group
p1352
(dp1353
g8
g1350
sg77
S'Informatie- en organsatieontwerp2'
p1354
sbsg73
(iread_data
Room
p1355
(dp1356
g71
g135
sg77
g136
sbsg79
g370
sg81
g268
sg77
g545
sbaa(lp1357
(ischedule
Activity
p1358
(dp1359
g8
g1301
sg71
I1000
sg72
Nsg73
(iread_data
Room
p1360
(dp1361
g71
g76
sg77
g78
sbsg79
g80
sg81
I0
sg77
g945
sba(ischedule
Activity
p1362
(dp1363
g8
g761
sg71
g1060
sg72
g763
sg73
(iread_data
Room
p1364
(dp1365
g71
g213
sg77
g214
sbsg79
g137
sg81
g268
sg77
g531
sba(ischedule
Activity
p1366
(dp1367
g8
(lp1368
g60
ag995
ag169
ag550
ag394
ag322
ag405
ag934
ag16
ag968
ag171
ag993
asg71
S'25'
p1369
sg72
(ischedule
Group
p1370
(dp1371
g8
g1368
sg77
S'Heuristieken 11'
p1372
sbsg73
(iread_data
Room
p1373
(dp1374
g71
g135
sg77
g136
sbsg79
g370
sg81
g138
sg77
g1002
sba(ischedule
Activity
p1375
(dp1376
g8
(lp1377
g990
ag180
ag675
ag143
ag249
ag992
ag42
ag238
ag991
ag434
ag232
ag420
ag558
ag677
ag997
ag537
ag418
ag36
ag586
ag994
ag588
ag290
ag888
ag23
ag224
ag123
ag524
ag424
ag996
ag577
ag128
ag989
asg71
g1369
sg72
(ischedule
Group
p1378
(dp1379
g8
g1377
sg77
S'Heuristieken 12'
p1380
sbsg73
(iread_data
Room
p1381
(dp1382
g71
g253
sg77
g254
sbsg79
g370
sg81
g268
sg77
g1002
sba(ischedule
Activity
p1383
(dp1384
g8
g1059
sg71
g762
sg72
g1061
sg73
(iread_data
Room
p1385
(dp1386
g71
g266
sg77
g267
sbsg79
g370
sg81
g138
sg77
g531
sba(ischedule
Activity
p1387
(dp1388
g8
(lp1389
g621
ag674
ag59
asg71
g823
sg72
(ischedule
Group
p1390
(dp1391
g8
g1389
sg77
S'Project Genetic Algorithms3'
p1392
sbsg73
(iread_data
Room
p1393
(dp1394
g71
g112
sg77
g113
sbsg79
g137
sg81
g412
sg77
g829
sba(ischedule
Activity
p1395
(dp1396
g8
(lp1397
g148
ag932
ag18
ag1334
ag284
ag174
aS'54395877'
p1398
ag1148
ag35
ag90
asg71
g406
sg72
(ischedule
Group
p1399
(dp1400
g8
g1397
sg77
S'Programmeren in Java 25'
p1401
sbsg73
(iread_data
Room
p1402
(dp1403
g71
g185
sg77
g186
sbsg79
g137
sg81
S'5'
p1404
sg77
g413
sbaa(lp1405
(ischedule
Activity
p1406
(dp1407
g8
g1320
sg71
g1311
sg72
g1325
sg73
(iread_data
Room
p1408
(dp1409
g71
g112
sg77
g113
sbsg79
g370
sg81
g268
sg77
g1317
sba(ischedule
Activity
p1410
(dp1411
g8
g1306
sg71
g1324
sg72
g1312
sg73
(iread_data
Room
p1412
(dp1413
g71
g185
sg77
g186
sbsg79
g137
sg81
g138
sg77
g1317
sba(ischedule
Activity
p1414
(dp1415
g8
(lp1416
g306
ag22
asg71
g449
sg72
(ischedule
Group
p1417
(dp1418
g8
g1416
sg77
S'Reflectie op de digitale cultuur3'
p1419
sbsg73
(iread_data
Room
p1420
(dp1421
g71
g213
sg77
g214
sbsg79
g370
sg81
g412
sg77
g455
sba(ischedule
Activity
p1422
(dp1423
g8
g1287
sg71
g685
sg72
g1288
sg73
(iread_data
Room
p1424
(dp1425
g71
g135
sg77
g136
sbsg79
g370
sg81
g138
sg77
g187
sba(ischedule
Activity
p1426
(dp1427
g8
(lp1428
g434
ag427
ag349
ag621
ag249
aS'12170832'
p1429
ag330
ag1322
ag815
ag21
ag96
ag1191
ag1078
aS'123355'
p1430
ag721
ag354
ag50
ag88
asg71
g477
sg72
(ischedule
Group
p1431
(dp1432
g8
g1428
sg77
S'Netwerken en systeembeveiliging3'
p1433
sbsg73
(iread_data
Room
p1434
(dp1435
g71
g337
sg77
g338
sbsg79
g137
sg81
g412
sg77
g483
sbaa(lp1436
(ischedule
Activity
p1437
(dp1438
g8
g9
sg71
I1000
sg72
Nsg73
(iread_data
Room
p1439
(dp1440
g71
g185
sg77
g186
sbsg79
g80
sg81
I0
sg77
g82
sba(ischedule
Activity
p1441
(dp1442
g8
g85
sg71
I1000
sg72
Nsg73
(iread_data
Room
p1443
(dp1444
g71
g337
sg77
g338
sbsg79
g80
sg81
I0
sg77
g114
sba(ischedule
Activity
p1445
(dp1446
g8
g865
sg71
g260
sg72
g867
sg73
(iread_data
Room
p1447
(dp1448
g71
g112
sg77
g113
sbsg79
g137
sg81
g412
sg77
g269
sba(ischedule
Activity
p1449
(dp1450
g8
(lp1451
g724
ag119
ag149
ag351
ag1333
ag1218
ag674
ag993
ag11
ag822
ag1336
ag237
ag1335
ag88
ag396
ag198
ag363
ag447
ag207
ag1334
ag330
ag426
asg71
g969
sg72
(ischedule
Group
p1452
(dp1453
g8
g1451
sg77
S'Heuristieken 22'
p1454
sbsg73
(iread_data
Room
p1455
(dp1456
g71
g253
sg77
g254
sbsg79
g370
sg81
g268
sg77
g975
sba(ischedule
Activity
p1457
(dp1458
g8
g662
sg71
I1000
sg72
Nsg73
(iread_data
Room
p1459
(dp1460
g71
g266
sg77
g267
sbsg79
g80
sg81
I0
sg77
g139
sba(ischedule
Activity
p1461
(dp1462
g8
(lp1463
g178
ag527
ag553
asg71
g1220
sg72
(ischedule
Group
p1464
(dp1465
g8
g1463
sg77
S'Advanced Heuristics1'
p1466
sbsg73
(iread_data
Room
p1467
(dp1468
g71
g213
sg77
g214
sbsg79
g137
sg81
g138
sg77
g1226
sba(ischedule
Activity
p1469
(dp1470
g8
g258
sg71
g866
sg72
g261
sg73
(iread_data
Room
p1471
(dp1472
g71
g135
sg77
g136
sbsg79
g370
sg81
g268
sg77
g269
sbaa(lp1473
(ischedule
Activity
p1474
(dp1475
g8
(lp1476
g575
ag492
ag180
ag900
ag128
ag383
ag512
ag1308
ag38
ag34
ag554
ag1108
ag118
ag163
ag42
ag167
ag623
ag153
ag664
ag1309
ag97
ag1310
ag68
ag676
ag309
ag289
ag232
ag1150
ag166
ag154
ag200
ag127
ag1321
ag283
ag151
ag1323
ag499
ag308
ag929
ag227
ag928
ag837
ag239
ag15
ag59
ag334
ag612
ag561
ag839
ag1322
ag120
ag54
ag588
ag723
ag1093
ag614
ag144
ag198
ag729
ag903
ag810
ag622
ag635
ag50
ag990
ag235
ag1307
ag649
ag280
ag589
ag192
ag616
ag168
ag494
ag583
asg71
I1000
sg72
Nsg73
(iread_data
Room
p1477
(dp1478
g71
g76
sg77
g78
sbsg79
g80
sg81
I0
sg77
g1317
sba(ischedule
Activity
p1479
(dp1480
g8
g1041
sg71
I1000
sg72
Nsg73
(iread_data
Room
p1481
(dp1482
g71
g1000
sg77
g1001
sbsg79
g80
sg81
I0
sg77
g455
sba(ischedule
Activity
p1483
(dp1484
g8
g1229
sg71
g1255
sg72
g1235
sg73
(iread_data
Room
p1485
(dp1486
g71
g667
sg77
g668
sbsg79
g370
sg81
g138
sg77
g945
sba(ischedule
Activity
p1487
(dp1488
g8
g1050
sg71
g1351
sg72
g1052
sg73
(iread_data
Room
p1489
(dp1490
g71
S'20'
p1491
sg77
S'A1.08'
p1492
sbsg79
g370
sg81
g138
sg77
g545
sba(ischedule
Activity
p1493
(dp1494
g8
g1350
sg71
g1051
sg72
g1352
sg73
(iread_data
Room
p1495
(dp1496
g71
g253
sg77
g254
sbsg79
g137
sg81
g268
sg77
g545
sba(ischedule
Activity
p1497
(dp1498
g8
g1117
sg71
g847
sg72
g1118
sg73
(iread_data
Room
p1499
(dp1500
g71
g185
sg77
g186
sbsg79
g137
sg81
g412
sg77
g82
sba(ischedule
Activity
p1501
(dp1502
g8
g796
sg71
g1274
sg72
g797
sg73
(iread_data
Room
p1503
(dp1504
g71
g112
sg77
g113
sbsg79
g137
sg81
g412
sg77
g339
sbaaa(lp1505
(lp1506
a(lp1507
a(lp1508
a(lp1509
a(lp1510
aasS'timeslot_dict'
p1511
(dp1512
I0
S'9:00-11:00'
p1513
sI1
S'11:00-13:00'
p1514
sI2
S'13:00-15:00'
p1515
sI3
S'15:00-17:00'
p1516
sI4
S'17:00-19:00'
p1517
ssS'day_dict'
p1518
(dp1519
I0
S'Monday'
p1520
sI1
S'Tuesday'
p1521
sI2
S'Wednesday'
p1522
sI3
S'Thursday'
p1523
sI4
S'Friday'
p1524
ssb.