(ischedule
Schedule
p0
(dp1
S'timetable'
p2
(lp3
(lp4
(lp5
(ischedule
Activity
p6
(dp7
S'participants'
p8
(lp9
S'36508571'
p10
aS'37110913'
p11
aS'16097870'
p12
aS'44901052'
p13
aS'72796858'
p14
aS'68409833'
p15
aS'88627897'
p16
asS'capacity'
p17
S'10'
p18
sS'name'
p19
S'Autonomous Agents 2'
p20
sS'ttype'
p21
S'labs'
p22
sS'group_id'
p23
S'1'
p24
sS'room'
p25
(iread_data
Room
p26
(dp27
g17
S'20'
p28
sg19
S'A1.08'
p29
sbsba(ischedule
Activity
p30
(dp31
g8
(lp32
S'87210640'
p33
aS'76393508'
p34
aS'53107172'
p35
aS'75997788'
p36
aS'56749879'
p37
aS'83443653'
p38
aS'22871048'
p39
aS'66122625'
p40
aS'13658563'
p41
aS'61060652'
p42
aS'36903574'
p43
aS'71839156'
p44
aS'11996292'
p45
aS'14941752'
p46
aS'81218347'
p47
aS'22323043'
p48
aS'45660925'
p49
aS'1696500'
p50
aS'4783858'
p51
aS'53775014'
p52
aS'14816774'
p53
aS'14591033'
p54
aS'97417002'
p55
aS'19858730'
p56
aS'4568018'
p57
aS'48357272'
p58
aS'86807027'
p59
aS'79879876'
p60
aS'57467488'
p61
aS'59075181'
p62
aS'20830477'
p63
aS'58736785'
p64
ag13
aS'75521763'
p65
aS'42171678'
p66
aS'92977271'
p67
aS'94930277'
p68
aS'98105190'
p69
aS'31897288'
p70
ag11
aS'14138904'
p71
aS'4353500'
p72
aS'97019450'
p73
aS'20331158'
p74
asg17
I1000
sg19
S'Heuristieken 1'
p75
sg21
S'lectures'
p76
sg23
I0
sg25
(iread_data
Room
p77
(dp78
g17
S'60'
p79
sg19
S'C1.112'
p80
sbsba(ischedule
Activity
p81
(dp82
g8
(lp83
S'15902055'
p84
aS'8522855'
p85
aS'51509565'
p86
aS'82689818'
p87
aS'34765676'
p88
aS'96453361'
p89
aS'64554442'
p90
aS'21964491'
p91
aS'19540225'
p92
aS'91527663'
p93
ag43
aS'1665980'
p94
aS'3707829'
p95
aS'14671406'
p96
aS'53585410'
p97
aS'21095566'
p98
aS'72895450'
p99
aS'44828429'
p100
aS'51566595'
p101
aS'41527759'
p102
aS'66433883'
p103
aS'88596522'
p104
asg17
S'25'
p105
sg19
S'Algoritmen en complexiteit'
p106
sg21
g22
sg23
g24
sg25
(iread_data
Room
p107
(dp108
g17
S'48'
p109
sg19
S'B0.201'
p110
sbsba(ischedule
Activity
p111
(dp112
g8
(lp113
S'14179347'
p114
aS'48678993'
p115
aS'69459473'
p116
aS'25106480'
p117
aS'87602030'
p118
aS'84449005'
p119
aS'87830198'
p120
aS'34773179'
p121
aS'46701583'
p122
aS'86180471'
p123
aS'27950803'
p124
aS'14398123'
p125
asg17
S'15'
p126
sg19
S'Project Genetic Algorithms'
p127
sg21
g22
sg23
S'3'
p128
sg25
(iread_data
Room
p129
(dp130
g17
S'117'
p131
sg19
S'C0.110'
p132
sbsba(ischedule
Activity
p133
(dp134
g8
(lp135
S'61443567'
p136
aS'24277163'
p137
aS'54310617'
p138
aS'33760909'
p139
aS'31416266'
p140
aS'3233378'
p141
aS'50143947'
p142
aS'77896638'
p143
ag51
aS'13092455'
p144
ag94
aS'22699561'
p145
aS'46052388'
p146
aS'87758823'
p147
aS'64393888'
p148
aS'17575088'
p149
asg17
S'20'
p150
sg19
S'Collectieve Intelligentie'
p151
sg21
g22
sg23
g24
sg25
(iread_data
Room
p152
(dp153
g17
S'41'
p154
sg19
S'A1.04'
p155
sbsba(ischedule
Activity
p156
(dp157
g8
(lp158
S'83266686'
p159
aS'68315599'
p160
aS'77376714'
p161
aS'27241113'
p162
aS'59111489'
p163
aS'47462856'
p164
aS'85335143'
p165
aS'14309255'
p166
aS'11741347'
p167
ag65
aS'36527838'
p168
aS'58332004'
p169
aS'83415514'
p170
aS'36748818'
p171
aS'43680781'
p172
asg17
S'20'
p173
sg19
S'Moderne Databases'
p174
sg21
S'tutorials'
p175
sg23
g24
sg25
(iread_data
Room
p176
(dp177
g17
S'22'
p178
sg19
S'A1.06'
p179
sbsba(ischedule
Activity
p180
(dp181
g8
(lp182
S'78443067'
p183
aS'29526540'
p184
aS'1766560'
p185
aS'78243495'
p186
aS'13911001'
p187
aS'41489515'
p188
aS'70072978'
p189
ag36
ag66
aS'58699305'
p190
aS'96082155'
p191
aS'15051051'
p192
aS'5517869'
p193
aS'64600457'
p194
aS'17222374'
p195
aS'33776961'
p196
aS'18144425'
p197
ag137
asg17
g173
sg19
g174
sg21
g175
sg23
S'2'
p198
sg25
(iread_data
Room
p199
(dp200
g17
S'56'
p201
sg19
S'A1.10'
p202
sbsbaa(lp203
(ischedule
Activity
p204
(dp205
g8
(lp206
S'86000192'
p207
aS'50184318'
p208
aS'43027916'
p209
aS'86291592'
p210
aS'57595888'
p211
ag145
aS'37770881'
p212
ag147
ag66
ag146
ag87
aS'23547619'
p213
aS'58522654'
p214
asg17
S'20'
p215
sg19
g151
sg21
g175
sg23
g198
sg25
(iread_data
Room
p216
(dp217
g17
g28
sg19
g29
sbsba(ischedule
Activity
p218
(dp219
g8
(lp220
S'89338938'
p221
aS'10149535'
p222
aS'12077419'
p223
aS'40434933'
p224
aS'41578612'
p225
aS'97371272'
p226
ag13
aS'14383795'
p227
aS'31194811'
p228
ag48
aS'58565406'
p229
aS'92496780'
p230
aS'7106649'
p231
aS'70336464'
p232
ag166
aS'6249823'
p233
aS'77636749'
p234
ag160
aS'36785409'
p235
aS'4697362'
p236
ag45
aS'47982619'
p237
aS'12430748'
p238
ag65
aS'77264363'
p239
asg17
S'20'
p240
sg19
S'Technology for games'
p241
sg21
g175
sg23
g198
sg25
g107
sba(ischedule
Activity
p242
(dp243
g8
(lp244
S'87314964'
p245
aS'91196968'
p246
aS'59753700'
p247
ag91
aS'81022997'
p248
aS'45414528'
p249
aS'13116738'
p250
aS'19337738'
p251
ag11
aS'97136582'
p252
asg17
S'10'
p253
sg19
S'Data Mining'
p254
sg21
g175
sg23
g24
sg25
(iread_data
Room
p255
(dp256
g17
g154
sg19
g155
sbsba(ischedule
Activity
p257
(dp258
g8
(lp259
S'68360259'
p260
aS'81200278'
p261
ag101
aS'17823206'
p262
aS'13996448'
p263
aS'25330192'
p264
asg17
S'10'
p265
sg19
g254
sg21
g22
sg23
g128
sg25
(iread_data
Room
p266
(dp267
g17
g201
sg19
g202
sbsba(ischedule
Activity
p268
(dp269
g8
(lp270
S'29474737'
p271
ag193
aS'42778953'
p272
aS'72577292'
p273
ag148
aS'29640619'
p274
ag50
ag195
aS'13534377'
p275
ag91
ag149
aS'1075391'
p276
aS'68601184'
p277
aS'26406342'
p278
asg17
g215
sg19
g151
sg21
g175
sg23
g128
sg25
(iread_data
Room
p279
(dp280
g17
g79
sg19
g80
sbsba(ischedule
Activity
p281
(dp282
g8
(lp283
S'77240949'
p284
ag136
ag137
ag139
aS'76123484'
p285
ag117
ag140
aS'9332762'
p286
ag143
ag144
aS'51741554'
p287
aS'96104167'
p288
asg17
g215
sg19
g151
sg21
g175
sg23
g24
sg25
(iread_data
Room
p289
(dp290
g17
g131
sg19
g132
sbsba(ischedule
Activity
p291
(dp292
g8
(lp293
S'54772132'
p294
aS'64053722'
p295
aS'41585485'
p296
ag60
ag136
aS'51593625'
p297
aS'23391676'
p298
aS'38499176'
p299
aS'88597745'
p300
aS'55474917'
p301
aS'62701040'
p302
ag67
ag194
aS'34900967'
p303
aS'54395877'
p304
aS'73893840'
p305
aS'94467156'
p306
aS'22826928'
p307
asg17
S'20'
p308
sg19
S'Programmeren in Java 2'
p309
sg21
g22
sg23
g24
sg25
(iread_data
Room
p310
(dp311
g17
g178
sg19
g179
sbsbaa(lp312
(ischedule
Activity
p313
(dp314
g8
(lp315
g143
aS'34872117'
p316
aS'13284244'
p317
aS'94687383'
p318
aS'34243356'
p319
ag272
aS'6723948'
p320
aS'81385263'
p321
aS'65960683'
p322
ag167
aS'65852230'
p323
aS'76802764'
p324
aS'3407554'
p325
ag228
ag214
aS'2317551'
p326
aS'86988337'
p327
aS'76661016'
p328
aS'5368702'
p329
ag212
aS'75759231'
p330
aS'40791377'
p331
aS'92665222'
p332
aS'30658799'
p333
ag124
aS'2079771'
p334
ag210
aS'5595824'
p335
aS'88855695'
p336
aS'15911353'
p337
aS'80135353'
p338
aS'48308205'
p339
aS'60312776'
p340
aS'39459642'
p341
aS'66701209'
p342
ag99
ag69
ag294
aS'43689934'
p343
aS'75664412'
p344
aS'7957843'
p345
aS'10792879'
p346
aS'48503689'
p347
aS'34110913'
p348
aS'88636924'
p349
aS'44391517'
p350
aS'79167252'
p351
aS'73236988'
p352
ag187
ag159
ag185
aS'24613625'
p353
aS'95007221'
p354
aS'88752563'
p355
aS'27187154'
p356
aS'53202517'
p357
aS'8464817'
p358
aS'9067939'
p359
aS'75599734'
p360
aS'79033175'
p361
aS'84524083'
p362
aS'95631564'
p363
aS'11915563'
p364
ag223
aS'49683101'
p365
ag14
ag166
ag160
aS'46989508'
p366
asg17
I1000
sg19
S'Compilerbouw'
p367
sg21
g76
sg23
I0
sg25
g279
sba(ischedule
Activity
p368
(dp369
g8
(lp370
S'53512831'
p371
aS'49908313'
p372
ag186
aS'77392404'
p373
aS'14847953'
p374
aS'76648468'
p375
ag99
aS'16333449'
p376
aS'24891081'
p377
aS'17092717'
p378
ag116
ag273
aS'76903244'
p379
aS'20618153'
p380
aS'1137946'
p381
asg17
S'20'
p382
sg19
S'Webprogrammeren en databases'
p383
sg21
g22
sg23
g24
sg25
(iread_data
Room
p384
(dp385
g17
g201
sg19
g202
sbsba(ischedule
Activity
p386
(dp387
g8
(lp388
S'31306819'
p389
aS'9731271'
p390
ag59
aS'74182182'
p391
aS'65408517'
p392
aS'23565001'
p393
aS'46570285'
p394
aS'55412918'
p395
aS'53139134'
p396
ag194
aS'72526473'
p397
aS'38296757'
p398
aS'87900893'
p399
ag84
aS'27064249'
p400
ag183
aS'19717077'
p401
aS'75623387'
p402
ag97
aS'21029457'
p403
aS'63634350'
p404
aS'27298319'
p405
aS'96054456'
p406
aS'56872729'
p407
aS'75585647'
p408
ag355
aS'26260141'
p409
ag12
aS'58040377'
p410
aS'93361408'
p411
aS'10609762'
p412
aS'56348773'
p413
aS'59220392'
p414
aS'34173695'
p415
asg17
S'40'
p416
sg19
S'Calculus 2'
p417
sg21
g175
sg23
g128
sg25
(iread_data
Room
p418
(dp419
g17
g154
sg19
g155
sbsba(ischedule
Activity
p420
(dp421
g8
(lp422
S'18266644'
p423
ag408
ag169
aS'29718115'
p424
ag171
aS'23257088'
p425
ag250
aS'32204977'
p426
ag234
ag13
asg17
S'15'
p427
sg19
S'Informatie- en organsatieontwerp'
p428
sg21
g175
sg23
g198
sg25
(iread_data
Room
p429
(dp430
g17
g28
sg19
g29
sbsba(ischedule
Activity
p431
(dp432
g8
(lp433
S'11459236'
p434
aS'65675896'
p435
aS'52715680'
p436
aS'41644639'
p437
ag44
aS'23215240'
p438
ag142
aS'89985072'
p439
ag71
aS'64418623'
p440
aS'5892092'
p441
asg17
S'15'
p442
sg19
S'Compilerbouw practicum'
p443
sg21
g22
sg23
g24
sg25
(iread_data
Room
p444
(dp445
g17
g109
sg19
g110
sbsba(ischedule
Activity
p446
(dp447
g8
(lp448
S'13718298'
p449
aS'36213792'
p450
ag144
aS'92778619'
p451
ag373
aS'32044893'
p452
aS'3685034'
p453
ag124
aS'57086672'
p454
ag235
ag11
ag119
ag247
aS'82390428'
p455
aS'68286356'
p456
aS'20095994'
p457
asg17
S'20'
p458
sg19
S'Reflectie op de digitale cultuur'
p459
sg21
g175
sg23
g198
sg25
(iread_data
Room
p460
(dp461
g17
g131
sg19
g132
sbsba(ischedule
Activity
p462
(dp463
g8
(lp464
S'247918'
p465
ag37
aS'28359697'
p466
aS'66120270'
p467
ag353
aS'5298748'
p468
aS'42196732'
p469
ag53
ag91
aS'56815156'
p470
aS'44868097'
p471
aS'70878567'
p472
ag172
aS'33930505'
p473
aS'77831658'
p474
aS'6913074'
p475
aS'59544049'
p476
aS'7308727'
p477
ag54
aS'30195935'
p478
asg17
S'20'
p479
sg19
S'Bioinformatica'
p480
sg21
g22
sg23
g128
sg25
(iread_data
Room
p481
(dp482
g17
g178
sg19
g179
sbsbaa(lp483
(ischedule
Activity
p484
(dp485
g8
(lp486
g44
ag147
aS'21311067'
p487
aS'96118484'
p488
ag225
ag143
ag272
aS'80998260'
p489
ag222
ag407
ag391
aS'66570705'
p490
aS'94686490'
p491
ag321
aS'83210352'
p492
aS'79937969'
p493
aS'3474870'
p494
aS'75005528'
p495
aS'93566383'
p496
ag246
ag193
ag12
aS'90743504'
p497
ag301
aS'80709893'
p498
aS'37399898'
p499
ag376
ag54
aS'32595335'
p500
ag42
ag393
ag319
ag168
aS'34588570'
p501
ag339
aS'54074680'
p502
ag469
aS'26172512'
p503
ag47
ag15
aS'4921119'
p504
aS'670011'
p505
aS'94955328'
p506
aS'35330349'
p507
aS'62872965'
p508
aS'16011419'
p509
ag299
ag140
ag10
ag395
aS'79617364'
p510
aS'42115591'
p511
aS'58866007'
p512
aS'52311353'
p513
asg17
I1000
sg19
S'Lineaire Algebra'
p514
sg21
g76
sg23
I0
sg25
(iread_data
Room
p515
(dp516
g17
g131
sg19
g132
sbsba(ischedule
Activity
p517
(dp518
g8
(lp519
g434
ag302
aS'8557857'
p520
ag41
ag472
aS'23983476'
p521
ag160
aS'19958553'
p522
aS'17496687'
p523
ag65
ag67
asg17
g427
sg19
g428
sg21
g175
sg23
g24
sg25
(iread_data
Room
p524
(dp525
g17
g201
sg19
g202
sbsba(ischedule
Activity
p526
(dp527
g8
(lp528
g423
asg17
S'15'
p529
sg19
g428
sg21
g22
sg23
g198
sg25
(iread_data
Room
p530
(dp531
g17
g28
sg19
g29
sbsba(ischedule
Activity
p532
(dp533
g8
(lp534
g166
ag42
aS'62105897'
p535
aS'62356458'
p536
aS'88176729'
p537
ag471
aS'37744525'
p538
ag117
aS'3727435'
p539
ag124
aS'14072826'
p540
ag57
aS'33877725'
p541
aS'40343779'
p542
ag96
aS'31247305'
p543
ag58
ag186
aS'89180944'
p544
aS'96554914'
p545
ag301
aS'9287708'
p546
aS'31103066'
p547
ag183
aS'99283252'
p548
aS'11068043'
p549
aS'43460038'
p550
ag392
aS'28357474'
p551
ag340
aS'41153310'
p552
aS'48601268'
p553
ag98
ag161
aS'45915482'
p554
aS'1048485'
p555
ag229
aS'44671041'
p556
aS'4546613'
p557
ag439
ag297
ag513
ag102
ag306
aS'70015932'
p558
asg17
S'40'
p559
sg19
S'Software engineering'
p560
sg21
g175
sg23
g198
sg25
g279
sba(ischedule
Activity
p561
(dp562
g8
(lp563
g56
ag364
ag39
aS'74131924'
p564
ag193
ag405
ag341
asg17
g18
sg19
g20
sg21
g22
sg23
g198
sg25
g310
sba(ischedule
Activity
p565
(dp566
g8
(lp567
g143
ag319
ag320
ag322
ag214
ag327
ag329
ag330
ag332
ag210
ag336
ag340
ag342
ag69
ag349
ag356
ag362
ag365
ag166
ag366
ag167
ag294
ag334
ag272
ag359
ag324
ag326
ag317
ag333
ag357
ag344
ag212
ag321
ag354
asg17
S'40'
p568
sg19
g367
sg21
g175
sg23
g24
sg25
(iread_data
Room
p569
(dp570
g17
g154
sg19
g155
sbsba(ischedule
Activity
p571
(dp572
g8
(lp573
S'4529208'
p574
ag37
aS'25077484'
p575
ag465
ag195
ag209
aS'47932106'
p576
aS'51542218'
p577
aS'64947290'
p578
aS'60352393'
p579
ag366
aS'56121590'
p580
aS'40141996'
p581
ag14
ag425
ag184
aS'64296965'
p582
aS'52552718'
p583
aS'43902015'
p584
ag169
ag61
ag491
ag407
aS'26207525'
p585
ag193
ag87
aS'3168419'
p586
ag144
aS'58083680'
p587
ag137
aS'23658570'
p588
aS'54540997'
p589
ag224
aS'73823548'
p590
ag101
ag93
aS'49631542'
p591
aS'47477884'
p592
ag278
aS'83869542'
p593
aS'78821918'
p594
asg17
S'40'
p595
sg19
S'Databases 2'
p596
sg21
g175
sg23
g198
sg25
(iread_data
Room
p597
(dp598
g17
g109
sg19
g110
sbsbaa(lp599
(ischedule
Activity
p600
(dp601
g8
(lp602
g221
ag409
ag274
ag511
ag51
ag498
ag48
ag436
aS'31633723'
p603
aS'84110134'
p604
ag583
aS'54026378'
p605
aS'27582862'
p606
ag15
ag39
ag476
ag364
ag142
aS'82872148'
p607
aS'37830626'
p608
ag492
ag360
ag352
ag363
ag141
aS'58074656'
p609
aS'65318664'
p610
aS'5976174'
p611
ag449
aS'73302736'
p612
asg17
g559
sg19
g560
sg21
g175
sg23
g24
sg25
g152
sba(ischedule
Activity
p613
(dp614
g8
(lp615
S'44151631'
p616
aS'72665524'
p617
aS'51472074'
p618
aS'82066165'
p619
aS'91250534'
p620
aS'51673172'
p621
ag57
ag104
ag325
aS'42297781'
p622
ag549
aS'1695839'
p623
asg17
g442
sg19
g443
sg21
g22
sg23
g128
sg25
(iread_data
Room
p624
(dp625
g17
g28
sg19
g29
sbsba(ischedule
Activity
p626
(dp627
g8
(lp628
S'22288615'
p629
aS'41790793'
p630
ag371
ag381
aS'67073567'
p631
aS'66034145'
p632
ag372
ag273
ag186
ag454
aS'5615125'
p633
ag357
ag373
aS'14303208'
p634
ag494
ag224
ag380
ag285
ag374
ag541
aS'39230359'
p635
aS'28358060'
p636
aS'2416751'
p637
ag233
ag375
ag550
ag99
ag68
aS'64228258'
p638
ag400
ag376
ag379
ag377
ag544
aS'10698627'
p639
ag584
ag378
ag136
ag116
asg17
I1000
sg19
g383
sg21
g76
sg23
I0
sg25
(iread_data
Room
p640
(dp641
g17
g79
sg19
g80
sbsba(ischedule
Activity
p642
(dp643
g8
(lp644
g245
ag399
ag564
ag513
ag246
ag247
ag91
ag248
ag472
ag251
aS'99453514'
p645
ag142
ag250
ag40
ag538
asg17
g265
sg19
g254
sg21
g22
sg23
g24
sg25
g129
sba(ischedule
Activity
p646
(dp647
g8
(lp648
g317
aS'21070547'
p649
ag391
ag59
ag477
aS'81116418'
p650
ag355
aS'34691309'
p651
ag347
aS'32183908'
p652
ag248
ag144
aS'37419523'
p653
ag339
ag495
aS'19214659'
p654
asg17
S'15'
p655
sg19
S'Project Numerical Recipes'
p656
sg21
g22
sg23
g128
sg25
(iread_data
Room
p657
(dp658
g17
g109
sg19
g110
sbsba(ischedule
Activity
p659
(dp660
g8
(lp661
S'72683344'
p662
aS'45556081'
p663
ag159
ag273
ag222
ag71
ag558
ag544
ag512
aS'59289233'
p664
ag87
ag424
aS'27925117'
p665
ag550
ag74
aS'23798155'
p666
ag224
aS'28618400'
p667
ag365
aS'13798030'
p668
ag316
asg17
I1000
sg19
S'Architectuur en computerorganisatie'
p669
sg21
g76
sg23
I0
sg25
g199
sba(ischedule
Activity
p670
(dp671
g8
(lp672
g341
aS'39905995'
p673
ag274
ag404
aS'7386961'
p674
ag207
ag73
aS'60661905'
p675
ag170
ag210
ag326
ag148
aS'85284256'
p676
ag263
ag521
ag318
aS'90296821'
p677
ag356
asg17
g308
sg19
g309
sg21
g22
sg23
S'5'
p678
sg25
(iread_data
Room
p679
(dp680
g17
g178
sg19
g179
sbsbaaa(lp681
(lp682
(ischedule
Activity
p683
(dp684
g8
(lp685
S'15249775'
p686
aS'85236626'
p687
ag115
ag505
aS'35315956'
p688
ag404
ag362
ag70
aS'1886996'
p689
ag593
ag209
aS'99975346'
p690
ag248
ag64
ag611
ag261
ag101
aS'72652638'
p691
aS'52304977'
p692
ag139
ag454
ag118
ag410
ag231
ag665
aS'82968410'
p693
aS'22731474'
p694
ag88
ag186
ag12
aS'5739011'
p695
ag136
asg17
I1000
sg19
S'Heuristieken 2'
p696
sg21
g76
sg23
I0
sg25
(iread_data
Room
p697
(dp698
g17
g154
sg19
g155
sbsba(ischedule
Activity
p699
(dp700
g8
(lp701
S'27805666'
p702
ag137
ag436
aS'51415617'
p703
aS'20239127'
p704
ag645
ag690
ag449
aS'61518436'
p705
ag468
ag450
ag457
aS'70193386'
p706
aS'4709948'
p707
ag362
ag11
ag144
aS'42406214'
p708
ag225
ag451
aS'78136904'
p709
ag327
ag373
aS'54569540'
p710
ag120
ag452
ag398
aS'77960666'
p711
ag39
ag579
aS'51052738'
p712
ag453
ag172
aS'49922855'
p713
aS'90474003'
p714
ag247
ag119
ag196
ag455
aS'70844780'
p715
ag545
aS'27370083'
p716
ag235
ag124
ag675
ag456
ag454
ag475
ag499
ag307
ag41
asg17
I1000
sg19
g459
sg21
g76
sg23
I0
sg25
(iread_data
Room
p717
(dp718
g17
g79
sg19
g80
sbsba(ischedule
Activity
p719
(dp720
g8
(lp721
g425
ag423
ag234
ag408
ag67
ag160
ag434
ag65
ag250
ag472
ag523
ag424
ag302
ag522
ag426
ag521
ag520
ag169
ag171
ag41
ag13
asg17
I1000
sg19
g428
sg21
g76
sg23
I0
sg25
(iread_data
Room
p722
(dp723
g17
g201
sg19
g202
sbsba(ischedule
Activity
p724
(dp725
g8
(lp726
g630
ag454
ag357
ag634
ag224
ag285
ag541
ag636
ag550
ag68
ag400
ag544
ag136
ag631
ag637
ag584
ag494
ag633
ag635
ag639
ag632
ag638
ag233
ag629
asg17
g382
sg19
g383
sg21
g22
sg23
g198
sg25
g107
sba(ischedule
Activity
p727
(dp728
g8
(lp729
g687
ag189
ag140
aS'12782624'
p730
aS'37279234'
p731
ag499
ag84
ag406
ag475
ag438
ag496
ag63
ag555
aS'34262212'
p732
aS'99272880'
p733
ag338
aS'2550487'
p734
asg17
g308
sg19
g309
sg21
g22
sg23
g198
sg25
(iread_data
Room
p735
(dp736
g17
g178
sg19
g179
sbsba(ischedule
Activity
p737
(dp738
g8
(lp739
g473
ag321
aS'56191333'
p740
ag252
ag274
ag345
ag617
ag319
ag390
aS'535689'
p741
aS'25557516'
p742
ag344
aS'62363761'
p743
asg17
S'20'
p744
sg19
S'Netwerken en systeembeveiliging'
p745
sg21
g22
sg23
g24
sg25
g129
sbaa(lp746
(ischedule
Activity
p747
(dp748
g8
(lp749
g84
aS'58592894'
p750
ag85
ag321
ag61
ag405
ag86
ag100
ag87
ag409
ag88
aS'23652927'
p751
ag89
ag99
ag161
ag103
ag90
ag709
ag91
ag101
ag92
ag494
ag93
ag122
ag43
ag296
ag611
ag142
ag94
ag521
ag95
aS'67817269'
p752
ag96
ag584
ag97
ag223
ag327
ag436
ag98
ag542
ag102
ag578
ag104
asg17
I1000
sg19
g106
sg21
g76
sg23
I0
sg25
(iread_data
Room
p753
(dp754
g17
g201
sg19
g202
sbsba(ischedule
Activity
p755
(dp756
g8
(lp757
g221
ag166
ag409
ag42
ag274
ag535
ag229
ag536
ag511
ag352
ag51
ag611
ag498
ag537
ag48
ag471
ag557
ag538
ag436
ag439
ag603
ag117
ag556
ag539
ag604
ag124
ag583
ag540
ag554
ag57
ag605
ag541
ag606
ag542
ag15
ag96
ag449
ag543
ag558
ag363
ag555
ag58
ag39
ag186
ag513
ag544
ag102
ag545
ag306
ag610
ag612
ag301
ag609
ag546
ag476
ag547
ag364
ag183
ag297
ag548
ag142
ag549
ag607
ag550
ag161
ag392
ag608
ag551
ag141
ag340
ag492
ag552
ag360
ag553
ag98
asg17
I1000
sg19
g560
sg21
g76
sg23
I0
sg25
(iread_data
Room
p758
(dp759
g17
g131
sg19
g132
sbsba(ischedule
Activity
p760
(dp761
g8
(lp762
g165
ag11
ag344
ag278
ag426
aS'93041523'
p763
ag213
aS'21192048'
p764
ag286
aS'69086548'
p765
ag339
ag172
aS'76487754'
p766
asg17
g240
sg19
g241
sg21
g175
sg23
g24
sg25
(iread_data
Room
p767
(dp768
g17
g154
sg19
g155
sbsba(ischedule
Activity
p769
(dp770
g8
(lp771
g750
ag665
ag346
ag612
aS'97135019'
p772
ag54
ag491
ag743
aS'28957789'
p773
aS'12091019'
p774
ag139
aS'24875739'
p775
ag122
ag592
aS'58253841'
p776
ag328
aS'78544592'
p777
ag118
aS'78735049'
p778
ag510
ag581
ag471
aS'77306636'
p779
aS'81155296'
p780
ag170
aS'22168693'
p781
aS'11593163'
p782
aS'70939718'
p783
ag475
ag320
aS'80188025'
p784
aS'82412626'
p785
ag159
aS'33672995'
p786
aS'23628642'
p787
ag222
aS'58469172'
p788
ag190
aS'79888156'
p789
ag36
asg17
g416
sg19
g417
sg21
g175
sg23
g24
sg25
(iread_data
Room
p790
(dp791
g17
g109
sg19
g110
sbsba(ischedule
Activity
p792
(dp793
g8
g628
sg17
I1000
sg19
g383
sg21
g76
sg23
I0
sg25
(iread_data
Room
p794
(dp795
g17
g79
sg19
g80
sbsba(ischedule
Activity
p796
(dp797
g8
(lp798
g564
ag37
ag694
ag586
ag192
ag353
ag469
ag53
ag165
ag478
ag477
ag184
ag474
ag470
asg17
S'20'
p799
sg19
g480
sg21
g175
sg23
g128
sg25
(iread_data
Room
p800
(dp801
g17
g28
sg19
g29
sbsbaa(lp802
(ischedule
Activity
p803
(dp804
g8
(lp805
g84
ag85
ag61
ag87
ag88
ag161
ag90
ag91
ag43
ag94
ag95
ag96
ag327
ag98
ag102
ag584
ag521
ag750
ag104
ag89
ag409
ag494
ag101
ag223
asg17
S'25'
p806
sg19
g106
sg21
g175
sg23
g24
sg25
g152
sba(ischedule
Activity
p807
(dp808
g8
(lp809
g610
ag235
ag319
ag675
ag449
ag120
ag73
ag786
ag209
ag12
ag594
aS'88737765'
p810
ag303
ag612
ag588
ag470
ag474
ag39
ag511
ag225
aS'72586808'
p811
ag393
aS'82854435'
p812
aS'97838175'
p813
ag423
ag582
ag58
aS'58480929'
p814
aS'78822885'
p815
aS'56544130'
p816
ag506
ag115
aS'72456780'
p817
ag706
ag784
aS'62613937'
p818
aS'18477924'
p819
ag36
aS'5085194'
p820
ag513
ag504
aS'73350019'
p821
ag666
ag165
ag38
ag454
aS'14637758'
p822
ag335
ag577
asg17
I1000
sg19
S'Analysemethoden en -technieken'
p823
sg21
g76
sg23
I0
sg25
(iread_data
Room
p824
(dp825
g17
g201
sg19
g202
sbsba(ischedule
Activity
p826
(dp827
g8
(lp828
g284
ag507
ag271
ag278
ag136
ag207
ag213
ag87
ag137
ag322
ag193
ag340
ag138
ag276
ag272
ag477
ag139
ag277
ag273
ag35
ag121
ag208
ag148
ag146
ag285
ag209
ag274
ag65
ag117
ag210
ag50
ag638
ag140
ag211
ag149
ag663
ag141
ag145
ag195
ag582
ag286
ag212
ag275
ag772
ag142
ag287
ag469
ag553
ag143
ag551
ag288
ag84
ag51
ag147
ag91
ag302
ag144
ag66
ag214
aS'73980360'
p829
ag94
asg17
I1000
sg19
g151
sg21
g76
sg23
I0
sg25
g129
sba(ischedule
Activity
p830
(dp831
g8
(lp832
g472
ag406
ag564
ag605
ag478
ag465
ag474
ag471
ag37
ag403
ag537
ag694
ag473
ag439
ag466
aS'20883994'
p833
ag57
ag467
ag184
ag320
ag586
ag476
ag194
ag192
ag352
ag261
ag541
ag549
aS'30050930'
p834
ag353
ag89
ag307
ag468
ag172
ag475
ag510
ag470
ag357
ag214
ag477
ag91
ag469
ag54
ag165
ag53
asg17
I1000
sg19
g480
sg21
g76
sg23
I0
sg25
(iread_data
Room
p835
(dp836
g17
g109
sg19
g110
sbsbaa(lp837
(ischedule
Activity
p838
(dp839
g8
(lp840
g331
ag666
ag687
aS'56988998'
p841
aS'90067329'
p842
ag192
ag306
ag538
ag284
ag365
ag611
ag122
aS'63111000'
p843
ag356
ag334
ag398
ag705
aS'67625383'
p844
ag341
aS'33252501'
p845
ag453
aS'26857113'
p846
asg17
I1000
sg19
S'Machine Learning'
p847
sg21
g76
sg23
I0
sg25
(iread_data
Room
p848
(dp849
g17
g131
sg19
g132
sbsba(ischedule
Activity
p850
(dp851
g8
(lp852
g352
ag46
ag99
aS'40911986'
p853
ag210
ag238
ag263
aS'6939933'
p854
ag345
ag221
ag452
asg17
g655
sg19
g656
sg21
g22
sg23
g198
sg25
g152
sba(ischedule
Activity
p855
(dp856
g8
g832
sg17
I1000
sg19
g480
sg21
g76
sg23
I0
sg25
(iread_data
Room
p857
(dp858
g17
g79
sg19
g80
sbsba(ischedule
Activity
p859
(dp860
g8
(lp861
g36
ag44
ag50
ag52
ag65
ag67
ag69
ag74
ag43
ag47
ag13
ag73
ag39
ag64
ag56
asg17
S'25'
p862
sg19
g75
sg21
g175
sg23
g198
sg25
(iread_data
Room
p863
(dp864
g17
g178
sg19
g179
sbsba(ischedule
Activity
p865
(dp866
g8
(lp867
S'28943658'
p868
ag535
ag538
ag350
ag347
aS'3678531'
p869
ag578
ag505
ag103
ag97
ag410
ag504
ag629
ag425
ag506
ag686
ag707
aS'70113753'
p870
asg17
g308
sg19
g309
sg21
g22
sg23
S'6'
p871
sg25
(iread_data
Room
p872
(dp873
g17
g201
sg19
g202
sbsba(ischedule
Activity
p874
(dp875
g8
(lp876
g245
ag264
ag260
ag399
ag11
ag142
ag564
ag263
ag472
ag513
ag262
ag261
ag246
ag645
ag40
ag247
aS'98780382'
p877
ag48
ag91
aS'93023961'
p878
ag250
ag248
ag249
ag101
ag252
ag251
ag538
asg17
I1000
sg19
g254
sg21
g76
sg23
I0
sg25
(iread_data
Room
p879
(dp880
g17
g109
sg19
g110
sbsbaa(lp881
(ischedule
Activity
p882
(dp883
g8
g721
sg17
I1000
sg19
g428
sg21
g76
sg23
I0
sg25
(iread_data
Room
p884
(dp885
g17
g154
sg19
g155
sbsba(ischedule
Activity
p886
(dp887
g8
(lp888
g750
ag356
ag190
ag665
ag336
ag389
ag346
ag165
ag159
ag612
aS'65978354'
p889
ag390
ag557
aS'55530367'
p890
ag59
ag772
ag588
ag391
ag54
ag58
ag392
ag491
ag787
ag393
aS'75446434'
p891
ag634
ag394
ag743
ag53
ag207
ag773
ag854
ag395
ag774
aS'38179241'
p892
ag396
ag139
ag287
ag194
ag775
ag576
ag397
ag122
aS'61520025'
p893
ag398
ag592
ag731
ag399
ag413
aS'6709529'
p894
ag84
ag776
ag869
ag400
ag328
ag351
ag183
ag777
ag114
ag401
ag118
ag123
ag402
ag778
ag785
ag97
ag510
ag51
ag403
ag581
ag786
ag404
ag471
ag617
ag405
ag779
ag414
ag406
ag411
ag788
aS'32705005'
p895
ag780
ag789
ag407
ag170
ag36
ag408
ag781
ag554
ag222
ag782
ag816
ag355
ag783
ag535
ag409
ag633
ag412
ag12
ag475
ag590
ag415
ag320
ag638
ag410
ag784
asg17
I1000
sg19
g417
sg21
g76
sg23
I0
sg25
(iread_data
Room
p896
(dp897
g17
g131
sg19
g132
sbsba(ischedule
Activity
p898
(dp899
g8
(lp900
g11
ag877
ag878
ag252
ag48
ag249
asg17
g265
sg19
g254
sg21
g22
sg23
g198
sg25
(iread_data
Room
p901
(dp902
g17
g109
sg19
g110
sbsba(ischedule
Activity
p903
(dp904
g8
(lp905
S'19662602'
p906
ag536
ag453
ag474
ag340
ag694
ag590
ag708
ag549
ag604
aS'63939720'
p907
aS'63573738'
p908
aS'90103047'
p909
ag667
ag734
ag272
ag185
asg17
g655
sg19
g656
sg21
g22
sg23
g24
sg25
g530
sba(ischedule
Activity
p910
(dp911
g8
(lp912
g621
aS'75680261'
p913
ag548
ag575
ag776
aS'76924297'
p914
ag15
ag85
ag810
aS'55480737'
p915
aS'40633534'
p916
asg17
g126
sg19
g127
sg21
g22
sg23
g198
sg25
(iread_data
Room
p917
(dp918
g17
g178
sg19
g179
sbsbaaa(lp919
(lp920
(ischedule
Activity
p921
(dp922
g8
g486
sg17
I1000
sg19
g514
sg21
g76
sg23
I0
sg25
(iread_data
Room
p923
(dp924
g17
g201
sg19
g202
sbsba(ischedule
Activity
p925
(dp926
g8
(lp927
g707
ag777
ag394
ag333
aS'49219163'
p928
ag843
aS'27916487'
p929
ag45
ag208
ag594
aS'66621166'
p930
aS'48198668'
p931
aS'3883025'
p932
ag591
ag119
aS'13218321'
p933
aS'51650744'
p934
ag544
ag548
ag750
aS'1181560'
p935
asg17
g173
sg19
g174
sg21
g175
sg23
g128
sg25
(iread_data
Room
p936
(dp937
g17
g178
sg19
g179
sbsba(ischedule
Activity
p938
(dp939
g8
g840
sg17
I1000
sg19
g847
sg21
g76
sg23
I0
sg25
(iread_data
Room
p940
(dp941
g17
g109
sg19
g110
sbsba(ischedule
Activity
p942
(dp943
g8
(lp944
g316
ag318
ag228
ag328
ag331
ag335
ag337
ag339
ag341
ag99
ag346
ag348
ag350
ag352
ag159
ag353
ag355
ag361
ag363
ag223
ag14
ag160
ag360
ag124
ag347
ag343
ag185
ag338
ag351
ag323
ag358
ag187
ag364
ag345
ag325
asg17
g568
sg19
g367
sg21
g175
sg23
g198
sg25
(iread_data
Room
p945
(dp946
g17
g79
sg19
g80
sbsba(ischedule
Activity
p947
(dp948
g8
(lp949
g629
ag372
ag186
ag633
ag635
ag99
ag378
ag638
ag630
ag224
ag400
ag632
ag233
ag373
ag637
ag454
asg17
S'20'
p950
sg19
g383
sg21
g175
sg23
g24
sg25
(iread_data
Room
p951
(dp952
g17
g28
sg19
g29
sbsba(ischedule
Activity
p953
(dp954
g8
g832
sg17
I1000
sg19
g480
sg21
g76
sg23
I0
sg25
(iread_data
Room
p955
(dp956
g17
g131
sg19
g132
sbsba(ischedule
Activity
p957
(dp958
g8
(lp959
g278
ag87
ag340
ag477
ag35
ag65
ag638
ag663
ag582
ag772
ag553
ag84
ag302
ag829
ag276
ag195
ag322
ag117
ag277
ag286
ag285
ag50
asg17
g150
sg19
g151
sg21
g22
sg23
S'4'
p960
sg25
(iread_data
Room
p961
(dp962
g17
g154
sg19
g155
sbsbaa(lp963
(ischedule
Activity
p964
(dp965
g8
(lp966
g10
ag56
ag13
ag11
ag341
aS'61611295'
p967
ag12
ag364
ag583
aS'34806836'
p968
ag101
ag14
ag508
ag39
ag605
ag193
ag15
ag405
ag536
ag564
ag16
ag870
asg17
I1000
sg19
g20
sg21
g76
sg23
I0
sg25
(iread_data
Room
p969
(dp970
g17
g154
sg19
g155
sbsba(ischedule
Activity
p971
(dp972
g8
(lp973
g406
ag471
ag537
ag439
ag57
ag320
ag194
ag261
ag834
ag307
ag475
ag357
ag89
ag476
ag214
ag833
ag466
ag549
ag465
ag541
ag473
ag352
asg17
g799
sg19
g480
sg21
g175
sg23
g198
sg25
g199
sba(ischedule
Activity
p974
(dp975
g8
(lp976
g606
ag59
ag358
ag143
ag592
ag327
ag37
ag788
aS'73196865'
p977
ag286
aS'88263855'
p978
ag320
ag390
ag351
ag122
ag451
aS'51791169'
p979
ag380
aS'88519892'
p980
asg17
g308
sg19
g309
sg21
g22
sg23
g960
sg25
(iread_data
Room
p981
(dp982
g17
g28
sg19
g29
sbsba(ischedule
Activity
p983
(dp984
g8
(lp985
g425
ag234
ag67
ag434
ag250
ag523
ag302
ag520
ag171
ag13
ag41
ag424
ag169
ag472
ag521
ag160
ag522
ag65
ag408
ag426
asg17
g529
sg19
g428
sg21
g22
sg23
g24
sg25
(iread_data
Room
p986
(dp987
g17
g109
sg19
g110
sbsba(ischedule
Activity
p988
(dp989
g8
(lp990
g212
ag353
ag665
aS'74361881'
p991
ag328
ag437
ag306
ag619
aS'25994016'
p992
ag225
aS'5526560'
p993
ag594
ag342
asg17
g126
sg19
g127
sg21
g22
sg23
g24
sg25
g279
sba(ischedule
Activity
p994
(dp995
g8
(lp996
g676
ag811
ag423
aS'5590289'
p997
ag467
aS'19058315'
p998
aS'62736669'
p999
ag707
aS'64246605'
p1000
ag579
ag555
ag538
ag715
ag62
ag543
ag772
asg17
g744
sg19
g745
sg21
g22
sg23
g960
sg25
g310
sba(ischedule
Activity
p1001
(dp1002
g8
(lp1003
g356
ag336
ag165
ag890
ag588
ag58
ag634
ag53
ag854
ag892
ag287
ag576
ag893
ag731
ag894
ag869
ag351
ag114
ag123
ag51
ag617
ag554
ag816
ag535
ag590
ag638
ag207
ag891
ag895
ag889
ag557
ag633
asg17
g416
sg19
g417
sg21
g175
sg23
g198
sg25
g129
sbaa(lp1004
(ischedule
Activity
p1005
(dp1006
g8
(lp1007
g165
ag221
ag11
ag222
ag236
ag237
ag344
ag223
ag172
ag224
ag160
ag225
ag234
ag226
ag233
ag238
ag278
ag13
ag426
ag239
ag232
ag227
ag235
ag65
ag763
ag339
ag213
ag766
ag231
ag228
ag166
ag765
ag764
ag48
ag45
ag286
ag230
ag229
asg17
I1000
sg19
g241
sg21
g76
sg23
I0
sg25
g129
sba(ischedule
Activity
p1008
(dp1009
g8
(lp1010
g605
ag403
ag833
ag184
ag352
ag549
ag89
ag406
ag192
ag510
ag586
ag694
ag564
asg17
g479
sg19
g480
sg21
g22
sg23
g24
sg25
(iread_data
Room
p1011
(dp1012
g17
g28
sg19
g29
sbsba(ischedule
Activity
p1013
(dp1014
g8
(lp1015
g536
ag352
ag611
ag537
ag471
ag538
ag117
ag542
ag543
ag544
ag545
ag610
ag301
ag546
ag183
ag548
ag549
ag392
ag551
ag552
ag553
ag608
ag364
ag142
ag229
ag161
ag556
ag449
ag409
ag554
ag539
ag498
ag51
ag48
asg17
S'40'
p1016
sg19
g560
sg21
g22
sg23
g198
sg25
(iread_data
Room
p1017
(dp1018
g17
g201
sg19
g202
sbsba(ischedule
Activity
p1019
(dp1020
g8
(lp1021
g908
ag120
ag43
ag607
ag264
ag477
ag87
ag13
ag85
ag50
ag294
aS'12170832'
p1022
ag287
ag248
ag261
asg17
g744
sg19
g745
sg21
g22
sg23
g198
sg25
(iread_data
Room
p1023
(dp1024
g17
g178
sg19
g179
sbsba(ischedule
Activity
p1025
(dp1026
g8
(lp1027
g645
ag705
ag362
ag709
ag398
ag579
ag172
ag475
ag41
ag196
ag710
ag137
ag703
ag707
ag675
ag690
ag704
ag708
asg17
g458
sg19
g459
sg21
g175
sg23
g128
sg25
(iread_data
Room
p1028
(dp1029
g17
g79
sg19
g80
sbsba(ischedule
Activity
p1030
(dp1031
g8
(lp1032
g341
ag101
ag16
ag14
asg17
S'10'
p1033
sg19
g20
sg21
g175
sg23
g198
sg25
(iread_data
Room
p1034
(dp1035
g17
g154
sg19
g155
sbsba(ischedule
Activity
p1036
(dp1037
g8
(lp1038
g221
ag274
ag511
ag557
ag436
ag603
ag604
ag605
ag606
ag558
ag555
ag39
ag513
ag102
ag306
ag612
ag609
ag476
ag297
ag607
ag141
ag492
ag360
ag98
ag535
ag58
ag186
ag550
ag124
ag96
ag583
ag439
ag42
ag547
ag363
ag166
ag540
ag340
ag15
ag57
ag541
asg17
g1016
sg19
g560
sg21
g22
sg23
g24
sg25
(iread_data
Room
p1039
(dp1040
g17
g109
sg19
g110
sbsbaa(lp1041
(ischedule
Activity
p1042
(dp1043
g8
(lp1044
g340
ag477
ag35
ag65
ag638
ag663
ag582
ag772
ag553
ag84
ag302
ag829
ag138
ag507
ag551
ag121
ag141
ag142
ag94
ag322
ag51
ag469
asg17
g215
sg19
g151
sg21
g175
sg23
g960
sg25
g310
sba(ischedule
Activity
p1045
(dp1046
g8
(lp1047
g10
ag11
ag12
ag968
ag508
ag536
ag364
ag193
ag605
ag13
ag15
ag56
ag405
ag564
asg17
g1033
sg19
g20
sg21
g175
sg23
g24
sg25
g152
sba(ischedule
Activity
p1048
(dp1049
g8
(lp1050
g505
ag70
ag593
ag261
ag139
ag693
ag88
ag136
ag694
ag665
ag209
ag410
ag101
ag404
ag691
ag688
ag695
ag362
asg17
S'20'
p1051
sg19
g696
sg21
g175
sg23
g198
sg25
(iread_data
Room
p1052
(dp1053
g17
g28
sg19
g29
sbsba(ischedule
Activity
p1054
(dp1055
g8
(lp1056
g542
ag783
ag125
ag115
ag817
aS'21677389'
p1057
aS'123355'
p1058
aS'53267490'
p1059
ag580
ag61
ag72
ag585
ag210
ag478
ag299
aS'16912993'
p1060
ag373
ag667
aS'59887191'
p1061
ag932
asg17
g744
sg19
g745
sg21
g22
sg23
g128
sg25
g129
sba(ischedule
Activity
p1062
(dp1063
g8
(lp1064
g318
ag272
ag321
ag167
ag324
ag228
ag212
ag331
ag333
ag337
ag339
ag341
ag294
ag346
ag348
ag350
ag352
ag159
ag353
ag355
ag359
ag14
ag160
ag349
ag343
ag351
ag344
ag328
ag332
ag223
ag317
ag330
ag354
ag342
ag69
ag338
ag166
asg17
S'40'
p1065
sg19
g367
sg21
g22
sg23
g198
sg25
g199
sba(ischedule
Activity
p1066
(dp1067
g8
(lp1068
g273
ag357
ag285
ag541
ag636
ag68
ag379
ag544
ag584
ag136
ag494
ag377
ag380
ag550
ag631
ag116
ag375
ag374
ag381
ag376
ag639
ag371
ag634
asg17
g950
sg19
g383
sg21
g175
sg23
g198
sg25
g279
sba(ischedule
Activity
p1069
(dp1070
g8
(lp1071
g689
ag59
ag916
aS'39429093'
p1072
asg17
S'10'
p1073
sg19
S'Advanced Heuristics'
p1074
sg21
g22
sg23
g24
sg25
(iread_data
Room
p1075
(dp1076
g17
g109
sg19
g110
sbsbaa(lp1077
(ischedule
Activity
p1078
(dp1079
g8
(lp1080
g271
ag213
ag193
ag272
ag273
ag274
ag275
ag469
ag288
ag91
ag214
ag284
ag121
asg17
g150
sg19
g151
sg21
g22
sg23
g128
sg25
(iread_data
Room
p1081
(dp1082
g17
g28
sg19
g29
sbsba(ischedule
Activity
p1083
(dp1084
g8
(lp1085
g143
ag319
ag320
ag322
ag323
ag325
ag214
ag327
ag329
ag124
ag210
ag340
ag345
ag347
ag187
ag185
ag356
ag358
ag362
ag364
ag366
ag316
ag360
ag326
ag361
ag334
ag99
ag335
ag365
ag357
ag336
ag363
asg17
g1065
sg19
g367
sg21
g22
sg23
g24
sg25
g152
sba(ischedule
Activity
p1086
(dp1087
g8
g701
sg17
I1000
sg19
g459
sg21
g76
sg23
I0
sg25
(iread_data
Room
p1088
(dp1089
g17
g79
sg19
g80
sbsba(ischedule
Activity
p1090
(dp1091
g8
(lp1092
g967
ag605
ag536
ag101
ag583
ag508
ag870
ag968
asg17
g18
sg19
g20
sg21
g22
sg23
g128
sg25
(iread_data
Room
p1093
(dp1094
g17
g131
sg19
g132
sbsba(ischedule
Activity
p1095
(dp1096
g8
(lp1097
g94
ag211
ag278
ag404
ag991
ag187
ag992
ag733
ag426
aS'55103073'
p1098
ag97
ag820
ag299
ag741
aS'47260040'
p1099
ag634
ag227
asg17
g442
sg19
g443
sg21
g22
sg23
g198
sg25
(iread_data
Room
p1100
(dp1101
g17
g178
sg19
g179
sbsba(ischedule
Activity
p1102
(dp1103
g8
(lp1104
g159
ag750
ag194
ag160
ag591
ag168
ag548
ag169
ag707
ag161
ag183
ag934
ag162
ag119
ag170
ag935
ag184
ag777
ag163
ag185
ag394
ag933
ag186
ag333
ag164
ag187
ag928
ag165
ag188
ag843
ag166
ag189
ag929
ag167
ag172
ag45
ag195
ag36
ag208
ag544
ag137
ag197
ag65
ag196
ag594
ag932
ag191
ag171
ag193
ag66
ag930
ag192
ag190
ag931
asg17
I1000
sg19
g174
sg21
g76
sg23
I0
sg25
g199
sba(ischedule
Activity
p1105
(dp1106
g8
(lp1107
g33
ag35
ag37
ag41
ag45
ag49
ag51
ag53
ag57
ag59
ag61
ag63
ag66
ag70
ag62
ag54
ag58
ag40
ag11
ag34
ag38
ag42
ag48
ag46
ag72
ag55
ag68
ag60
ag71
asg17
g862
sg19
g75
sg21
g175
sg23
g24
sg25
g107
sbaaa(lp1108
(lp1109
(ischedule
Activity
p1110
(dp1111
g8
(lp1112
g967
ag583
ag870
ag39
asg17
g1033
sg19
g20
sg21
g175
sg23
g128
sg25
g152
sba(ischedule
Activity
p1113
(dp1114
g8
(lp1115
g100
aS'20374340'
p1116
ag557
ag499
ag780
ag654
ag213
ag632
aS'28055464'
p1117
aS'64768422'
p1118
ag914
ag374
ag496
ag892
aS'37701751'
p1119
ag329
ag328
ag1057
ag435
ag734
ag261
aS'69634191'
p1120
ag321
ag88
ag95
asg17
I1000
sg19
S'Interactie-ontwerp'
p1121
sg21
g76
sg23
I0
sg25
(iread_data
Room
p1122
(dp1123
g17
g109
sg19
g110
sbsba(ischedule
Activity
p1124
(dp1125
g8
g828
sg17
I1000
sg19
g151
sg21
g76
sg23
I0
sg25
(iread_data
Room
p1126
(dp1127
g17
g131
sg19
g132
sbsba(ischedule
Activity
p1128
(dp1129
g8
g876
sg17
I1000
sg19
g254
sg21
g76
sg23
I0
sg25
(iread_data
Room
p1130
(dp1131
g17
g79
sg19
g80
sbsba(ischedule
Activity
p1132
(dp1133
g8
(lp1134
g833
ag709
ag1072
ag689
ag59
ag662
ag617
ag579
ag667
ag36
ag213
ag332
ag273
ag818
ag592
ag400
ag916
ag374
ag586
ag715
asg17
I1000
sg19
g1074
sg21
g76
sg23
I0
sg25
(iread_data
Room
p1135
(dp1136
g17
g28
sg19
g29
sbsba(ischedule
Activity
p1137
(dp1138
g8
(lp1139
g750
ag321
ag405
ag751
ag709
ag122
ag296
ag142
ag521
ag752
ag223
ag542
ag578
ag611
ag161
ag436
ag584
ag327
ag409
ag494
ag61
asg17
g105
sg19
g106
sg21
g22
sg23
g198
sg25
g199
sbaa(lp1140
(ischedule
Activity
p1141
(dp1142
g8
(lp1143
g341
ag574
ag714
ag37
ag588
ag575
ag586
ag465
ag285
ag587
ag406
ag740
ag593
ag195
ag504
ag209
ag594
ag576
ag1119
ag999
ag278
ag577
ag591
ag378
ag143
ag495
ag993
ag578
ag327
ag579
ag592
ag366
ag590
aS'59397895'
p1144
ag189
ag580
ag123
ag581
aS'15187217'
p1145
ag14
ag274
ag425
ag53
ag316
ag505
ag184
ag144
aS'27123462'
p1146
ag750
ag582
ag93
ag583
ag469
ag584
ag711
ag169
ag101
ag45
ag589
ag61
ag774
ag817
ag355
ag491
ag137
ag407
ag87
ag585
aS'13132925'
p1147
ag193
ag224
ag820
asg17
I1000
sg19
g596
sg21
g76
sg23
I0
sg25
(iread_data
Room
p1148
(dp1149
g17
g131
sg19
g132
sbsba(ischedule
Activity
p1150
(dp1151
g8
(lp1152
g472
ag605
ag172
ag54
ag467
ag91
ag510
ag468
ag403
asg17
g799
sg19
g480
sg21
g175
sg23
g24
sg25
(iread_data
Room
p1153
(dp1154
g17
g178
sg19
g179
sbsba(ischedule
Activity
p1155
(dp1156
g8
(lp1157
g686
ag115
ag689
ag248
ag692
ag454
ag64
ag687
ag118
ag231
ag12
ag611
ag690
ag186
asg17
g1051
sg19
g696
sg21
g175
sg23
g24
sg25
(iread_data
Room
p1158
(dp1159
g17
g154
sg19
g155
sbsba(ischedule
Activity
p1160
(dp1161
g8
g315
sg17
I1000
sg19
g367
sg21
g76
sg23
I0
sg25
(iread_data
Room
p1162
(dp1163
g17
g79
sg19
g80
sbsba(ischedule
Activity
p1164
(dp1165
g8
(lp1166
g537
ag439
ag57
ag320
ag194
ag261
ag834
ag307
ag165
ag541
ag357
ag214
asg17
g479
sg19
g480
sg21
g22
sg23
g198
sg25
(iread_data
Room
p1167
(dp1168
g17
g109
sg19
g110
sbsbaa(lp1169
(ischedule
Activity
p1170
(dp1171
g8
g661
sg17
I1000
sg19
g669
sg21
g76
sg23
I0
sg25
g279
sba(ischedule
Activity
p1172
(dp1173
g8
(lp1174
g321
ag405
ag100
ag751
ag99
ag103
ag709
ag122
ag296
ag142
ag542
ag578
ag93
ag97
ag611
ag752
ag92
ag86
ag436
asg17
g806
sg19
g106
sg21
g175
sg23
g198
sg25
(iread_data
Room
p1175
(dp1176
g17
g178
sg19
g179
sbsba(ischedule
Activity
p1177
(dp1178
g8
(lp1179
g702
ag468
ag706
ag225
ag327
ag711
ag712
ag713
ag715
ag499
ag716
ag39
ag714
ag545
ag120
ag436
ag307
asg17
g458
sg19
g459
sg21
g175
sg23
g24
sg25
(iread_data
Room
p1180
(dp1181
g17
g154
sg19
g155
sbsba(ischedule
Activity
p1182
(dp1183
g8
(lp1184
g732
ag138
ag633
ag765
ag733
ag603
ag476
ag296
ag391
ag62
ag301
ag710
ag262
ag543
aS'72547110'
p1185
ag125
aS'7492204'
p1186
ag453
ag604
ag169
ag364
ag74
ag356
ag775
ag788
ag778
ag694
ag102
ag85
aS'37498675'
p1187
ag37
aS'65003379'
p1188
ag54
ag404
ag221
ag423
ag394
ag591
ag406
ag164
ag43
ag914
ag511
ag773
ag709
aS'79366078'
p1189
aS'38329455'
p1190
ag284
ag73
ag214
ag704
ag329
ag582
aS'79858178'
p1191
ag299
ag705
ag47
aS'39919665'
p1192
aS'51186803'
p1193
ag577
aS'47605891'
p1194
ag635
ag298
ag841
ag234
ag306
aS'82688900'
p1195
ag96
aS'39659121'
p1196
ag346
ag246
ag390
ag895
aS'63408522'
p1197
ag833
ag362
ag226
ag666
aS'10872825'
p1198
ag506
aS'44940353'
p1199
ag319
aS'63955238'
p1200
aS'91139627'
p1201
asg17
I1000
sg19
S'Kansrekenen 2'
p1202
sg21
g76
sg23
I0
sg25
(iread_data
Room
p1203
(dp1204
g17
g131
sg19
g132
sbsba(ischedule
Activity
p1205
(dp1206
g8
(lp1207
g707
ag333
ag843
ag929
ag45
ag208
ag594
ag930
ag548
ag192
ag196
asg17
S'20'
p1208
sg19
g174
sg21
g22
sg23
g128
sg25
g530
sba(ischedule
Activity
p1209
(dp1210
g8
(lp1211
g169
ag183
ag119
ag184
ag185
ag186
ag188
ag189
ag172
ag36
ag137
ag66
ag190
ag934
ag171
ag191
ag193
ag194
ag160
ag197
ag170
ag750
ag591
ag928
asg17
g1208
sg19
g174
sg21
g22
sg23
g198
sg25
(iread_data
Room
p1212
(dp1213
g17
g109
sg19
g110
sbsbaa(lp1214
(ischedule
Activity
p1215
(dp1216
g8
g1184
sg17
I1000
sg19
g1202
sg21
g76
sg23
I0
sg25
(iread_data
Room
p1217
(dp1218
g17
g131
sg19
g132
sbsba(ischedule
Activity
p1219
(dp1220
g8
g1007
sg17
I1000
sg19
g241
sg21
g76
sg23
I0
sg25
(iread_data
Room
p1221
(dp1222
g17
g109
sg19
g110
sbsba(ischedule
Activity
p1223
(dp1224
g8
g1115
sg17
I1000
sg19
g1121
sg21
g76
sg23
I0
sg25
(iread_data
Room
p1225
(dp1226
g17
g154
sg19
g155
sbsba(ischedule
Activity
p1227
(dp1228
g8
g828
sg17
I1000
sg19
g151
sg21
g76
sg23
I0
sg25
g199
sba(ischedule
Activity
p1229
(dp1230
g8
(lp1231
g263
ag262
ag513
ag877
ag101
ag399
ag260
ag564
ag472
ag878
asg17
g253
sg19
g254
sg21
g175
sg23
g198
sg25
(iread_data
Room
p1232
(dp1233
g17
g28
sg19
g29
sbsbaa(lp1234
(ischedule
Activity
p1235
(dp1236
g8
(lp1237
g637
aS'63096281'
p1238
ag246
ag91
ag277
ag262
ag237
aS'10702778'
p1239
ag249
ag169
ag711
ag1186
ag196
ag588
ag43
ag843
ag639
ag556
ag846
ag552
asg17
g308
sg19
g309
sg21
g22
sg23
g128
sg25
g199
sba(ischedule
Activity
p1240
(dp1241
g8
(lp1242
g142
ag261
ag40
ag48
ag538
ag264
ag645
asg17
g253
sg19
g254
sg21
g175
sg23
g128
sg25
(iread_data
Room
p1243
(dp1244
g17
g178
sg19
g179
sbsba(ischedule
Activity
p1245
(dp1246
g8
(lp1247
g579
ag36
ag332
ag400
ag715
ag374
ag667
ag213
ag273
ag662
ag833
ag617
ag586
ag818
ag592
ag709
asg17
g1073
sg19
g1074
sg21
g22
sg23
g198
sg25
(iread_data
Room
p1248
(dp1249
g17
g79
sg19
g80
sbsba(ischedule
Activity
p1250
(dp1251
g8
g966
sg17
I1000
sg19
g20
sg21
g76
sg23
I0
sg25
(iread_data
Room
p1252
(dp1253
g17
g154
sg19
g155
sbsba(ischedule
Activity
p1254
(dp1255
g8
(lp1256
g159
ag161
ag162
ag163
ag164
ag165
ag166
ag167
ag195
ag544
ag65
ag932
ag394
ag933
ag931
ag777
ag187
ag935
ag168
asg17
g1208
sg19
g174
sg21
g22
sg23
g24
sg25
(iread_data
Room
p1257
(dp1258
g17
g109
sg19
g110
sbsba(ischedule
Activity
p1259
(dp1260
g8
(lp1261
g507
ag207
ag208
ag209
ag210
ag211
ag212
ag287
ag551
ag66
asg17
g150
sg19
g151
sg21
g22
sg23
g198
sg25
g530
sba(ischedule
Activity
p1262
(dp1263
g8
(lp1264
g341
ag714
ag285
ag406
ag504
ag1119
ag143
ag993
ag327
ag189
ag123
ag1145
ag274
ag53
ag505
ag750
ag469
ag711
ag774
ag355
ag1147
ag378
ag45
ag999
ag1144
ag817
ag1146
ag495
ag316
ag820
ag740
asg17
g595
sg19
g596
sg21
g175
sg23
g24
sg25
(iread_data
Room
p1265
(dp1266
g17
g131
sg19
g132
sbsbaaa(lp1267
(lp1268
a(lp1269
a(lp1270
a(lp1271
a(lp1272
aasS'timeslot_dict'
p1273
(dp1274
I0
S'9:00-11:00'
p1275
sI1
S'11:00-13:00'
p1276
sI2
S'13:00-15:00'
p1277
sI3
S'15:00-17:00'
p1278
sI4
S'17:00-19:00'
p1279
ssS'day_dict'
p1280
(dp1281
I0
S'Monday'
p1282
sI1
S'Tuesday'
p1283
sI2
S'Wednesday'
p1284
sI3
S'Thursday'
p1285
sI4
S'Friday'
p1286
ssb.