(ischedule
Schedule
p0
(dp1
S'timetable'
p2
(lp3
(lp4
(lp5
(ischedule
Activity
p6
(dp7
S'participants'
p8
(lp9
S'40141996'
p10
aS'23257088'
p11
aS'34872117'
p12
aS'56872729'
p13
aS'29640619'
p14
aS'88752563'
p15
aS'15187217'
p16
aS'37701751'
p17
aS'43027916'
p18
aS'11996292'
p19
aS'96054456'
p20
aS'247918'
p21
aS'60352393'
p22
aS'26207525'
p23
aS'42196732'
p24
aS'91527663'
p25
aS'670011'
p26
aS'86988337'
p27
aS'5526560'
p28
aS'4529208'
p29
aS'72456780'
p30
aS'39459642'
p31
aS'59397895'
p32
aS'77960666'
p33
aS'17092717'
p34
aS'24277163'
p35
aS'5085194'
p36
aS'5517869'
p37
aS'86180471'
p38
aS'46989508'
p39
aS'75005528'
p40
aS'56191333'
p41
aS'3168419'
p42
aS'14816774'
p43
aS'57467488'
p44
aS'58083680'
p45
aS'58332004'
p46
aS'43902015'
p47
aS'51542218'
p48
aS'64947290'
p49
aS'49631542'
p50
aS'70072978'
p51
aS'76123484'
p52
aS'64296965'
p53
aS'52552718'
p54
aS'94686490'
p55
aS'13092455'
p56
aS'13132925'
p57
aS'73823548'
p58
aS'62736669'
p59
aS'17222374'
p60
aS'4921119'
p61
aS'26406342'
p62
aS'23658570'
p63
aS'47932106'
p64
aS'72796858'
p65
aS'25077484'
p66
aS'47477884'
p67
aS'82689818'
p68
aS'40434933'
p69
aS'27123462'
p70
aS'51566595'
p71
aS'58592894'
p72
aS'54540997'
p73
aS'12091019'
p74
aS'90474003'
p75
aS'78821918'
p76
aS'29526540'
p77
aS'83869542'
p78
aS'56121590'
p79
aS'77896638'
p80
aS'56749879'
p81
asS'capacity'
p82
I1000
sS'group'
p83
NsS'room'
p84
(iread_data
Room
p85
(dp86
g82
S'117'
p87
sS'name'
p88
S'C0.110'
p89
sbsS'ttype'
p90
S'lectures'
p91
sS'group_id'
p92
I0
sg88
S'Databases 2'
p93
sba(ischedule
Activity
p94
(dp95
g8
(lp96
S'76661016'
p97
aS'5368702'
p98
aS'72895450'
p99
aS'11915563'
p100
aS'10792879'
p101
aS'27187154'
p102
aS'84524083'
p103
aS'95631564'
p104
aS'54772132'
p105
aS'5595824'
p106
aS'15911353'
p107
aS'8464817'
p108
aS'34243356'
p109
aS'13284244'
p110
aS'66701209'
p111
aS'44391517'
p112
aS'79033175'
p113
aS'9067939'
p114
asg82
S'40'
p115
sg83
(ischedule
Group
p116
(dp117
g8
g96
sg88
S'Compilerbouw2'
p118
sbsg84
(iread_data
Room
p119
(dp120
g82
S'22'
p121
sg88
S'A1.06'
p122
sbsg90
S'tutorials'
p123
sg92
S'2'
p124
sg88
S'Compilerbouw'
p125
sba(ischedule
Activity
p126
(dp127
g8
(lp128
g24
aS'4568018'
p129
aS'64600457'
p130
aS'66120270'
p131
aS'59544049'
p132
aS'21029457'
p133
aS'70878567'
p134
aS'54026378'
p135
aS'53202517'
p136
aS'85335143'
p137
aS'22731474'
p138
aS'79617364'
p139
ag77
aS'58522654'
p140
ag20
aS'20883994'
p141
aS'6723948'
p142
aS'96453361'
p143
aS'11068043'
p144
aS'22826928'
p145
aS'56815156'
p146
aS'81200278'
p147
aS'43680781'
p148
aS'28359697'
p149
aS'15051051'
p150
ag43
aS'30050930'
p151
aS'6913074'
p152
aS'24613625'
p153
aS'77831658'
p154
aS'14591033'
p155
aS'73236988'
p156
aS'33877725'
p157
aS'7308727'
p158
aS'33930505'
p159
aS'74131924'
p160
ag21
aS'88176729'
p161
ag81
aS'89985072'
p162
aS'21964491'
p163
aS'5298748'
p164
aS'44868097'
p165
ag42
aS'30195935'
p166
asg82
I1000
sg83
Nsg84
(iread_data
Room
p167
(dp168
g82
S'48'
p169
sg88
S'B0.201'
p170
sbsg90
g91
sg92
I0
sg88
S'Bioinformatica'
p171
sba(ischedule
Activity
p172
(dp173
g8
(lp174
S'17823206'
p175
aS'91196968'
p176
aS'19337738'
p177
aS'37744525'
p178
aS'45414528'
p179
aS'99453514'
p180
aS'98780382'
p181
asg82
S'10'
p182
sg83
(ischedule
Group
p183
(dp184
g8
g174
sg88
S'Data Mining1'
p185
sbsg84
(iread_data
Room
p186
(dp187
g82
S'20'
p188
sg88
S'A1.08'
p189
sbsg90
S'labs'
p190
sg92
S'1'
p191
sg88
S'Data Mining'
p192
sba(ischedule
Activity
p193
(dp194
g8
(lp195
S'16097870'
p196
aS'51741554'
p197
aS'4546613'
p198
asg82
S'40'
p199
sg83
(ischedule
Group
p200
(dp201
g8
g195
sg88
S'Calculus 23'
p202
sbsg84
(iread_data
Room
p203
(dp204
g82
S'56'
p205
sg88
S'A1.10'
p206
sbsg90
g123
sg92
S'3'
p207
sg88
S'Calculus 2'
p208
sba(ischedule
Activity
p209
(dp210
g8
(lp211
S'75521763'
p212
aS'41578612'
p213
aS'77636749'
p214
aS'32204977'
p215
aS'68315599'
p216
aS'44901052'
p217
aS'37110913'
p218
aS'36785409'
p219
aS'14309255'
p220
aS'10149535'
p221
aS'31194811'
p222
aS'7106649'
p223
aS'97371272'
p224
aS'9332762'
p225
aS'76487754'
p226
aS'21192048'
p227
aS'75664412'
p228
aS'23547619'
p229
ag148
ag62
aS'92496780'
p230
aS'48308205'
p231
aS'70336464'
p232
aS'58565406'
p233
aS'69086548'
p234
aS'47982619'
p235
aS'14383795'
p236
aS'77264363'
p237
aS'4697362'
p238
asg82
S'20'
p239
sg83
(ischedule
Group
p240
(dp241
g8
g211
sg88
S'Technology for games1'
p242
sbsg84
(iread_data
Room
p243
(dp244
g82
S'41'
p245
sg88
S'A1.04'
p246
sbsg90
g123
sg92
g191
sg88
S'Technology for games'
p247
sba(ischedule
Activity
p248
(dp249
g8
(lp250
g12
aS'72577292'
p251
ag69
aS'14138904'
p252
aS'13798030'
p253
aS'45556081'
p254
aS'59289233'
p255
ag68
aS'83266686'
p256
aS'27925117'
p257
aS'43460038'
p258
aS'29718115'
p259
aS'89180944'
p260
aS'28618400'
p261
aS'20331158'
p262
ag221
aS'49683101'
p263
aS'58866007'
p264
aS'70015932'
p265
aS'23798155'
p266
aS'72683344'
p267
asg82
I1000
sg83
Nsg84
(iread_data
Room
p268
(dp269
g82
S'60'
p270
sg88
S'C1.112'
p271
sbsg90
g91
sg92
I0
sg88
S'Architectuur en computerorganisatie'
p272
sbaa(lp273
(ischedule
Activity
p274
(dp275
g8
(lp276
S'64228258'
p277
ag225
ag62
aS'34773179'
p278
ag52
aS'57595888'
p279
aS'54310617'
p280
ag56
aS'61443567'
p281
aS'25106480'
p282
aS'42171678'
p283
aS'1075391'
p284
aS'1665980'
p285
ag53
ag35
ag68
aS'15902055'
p286
ag18
aS'50143947'
p287
ag158
aS'96104167'
p288
aS'37770881'
p289
aS'50184318'
p290
ag254
ag212
aS'29474737'
p291
aS'35330349'
p292
ag37
aS'46052388'
p293
aS'62701040'
p294
ag80
aS'17575088'
p295
aS'42778953'
p296
aS'53107172'
p297
aS'65960683'
p298
ag60
aS'86000192'
p299
aS'77240949'
p300
aS'87758823'
p301
aS'68601184'
p302
ag229
ag24
ag14
ag251
ag197
ag140
aS'86291592'
p303
aS'31416266'
p304
aS'22699561'
p305
aS'3233378'
p306
aS'33760909'
p307
ag163
aS'28357474'
p308
aS'4783858'
p309
aS'13534377'
p310
aS'1696500'
p311
aS'73980360'
p312
aS'97135019'
p313
aS'48601268'
p314
aS'60312776'
p315
aS'64393888'
p316
asg82
I1000
sg83
Nsg84
(iread_data
Room
p317
(dp318
g82
g87
sg88
g89
sbsg90
g91
sg92
I0
sg88
S'Collectieve Intelligentie'
p319
sba(ischedule
Activity
p320
(dp321
g8
(lp322
S'67625383'
p323
aS'2079771'
p324
aS'3685034'
p325
aS'5976174'
p326
aS'26857113'
p327
ag300
ag31
aS'38296757'
p328
ag150
ag178
aS'85236626'
p329
ag266
ag263
aS'94467156'
p330
aS'61518436'
p331
aS'40791377'
p332
ag102
aS'56988998'
p333
aS'33252501'
p334
aS'46701583'
p335
aS'90067329'
p336
aS'63111000'
p337
asg82
I1000
sg83
Nsg84
(iread_data
Room
p338
(dp339
g82
g169
sg88
g170
sbsg90
g91
sg92
I0
sg88
S'Machine Learning'
p340
sba(ischedule
Activity
p341
(dp342
g8
(lp343
S'36508571'
p344
aS'70113753'
p345
aS'62872965'
p346
ag37
aS'19858730'
p347
ag217
aS'34806836'
p348
ag135
ag160
aS'61611295'
p349
aS'88627897'
p350
ag65
ag196
aS'62356458'
p351
ag54
ag100
aS'68409833'
p352
ag71
aS'27298319'
p353
aS'22871048'
p354
ag218
ag31
asg82
I1000
sg83
Nsg84
(iread_data
Room
p355
(dp356
g82
g270
sg88
g271
sbsg90
g91
sg92
I0
sg88
S'Autonomous Agents 2'
p357
sba(ischedule
Activity
p358
(dp359
g8
(lp360
g134
aS'13658563'
p361
ag216
aS'13116738'
p362
aS'18266644'
p363
aS'23983476'
p364
ag46
aS'8557857'
p365
ag215
ag11
asg82
S'15'
p366
sg83
(ischedule
Group
p367
(dp368
g8
g360
sg88
S'Informatie- en organisatieontwerp1'
p369
sbsg84
(iread_data
Room
p370
(dp371
g82
S'22'
p372
sg88
S'A1.06'
p373
sbsg90
g190
sg92
g191
sg88
S'Informatie- en organisatieontwerp'
p374
sba(ischedule
Activity
p375
(dp376
g8
(lp377
S'66034145'
p378
aS'21677389'
p379
aS'37399898'
p380
aS'81385263'
p381
ag229
aS'64768422'
p382
aS'44828429'
p383
ag198
aS'69634191'
p384
aS'38179241'
p385
aS'3707829'
p386
ag98
aS'14847953'
p387
aS'19214659'
p388
aS'2550487'
p389
aS'81155296'
p390
aS'76924297'
p391
aS'28055464'
p392
ag97
aS'93566383'
p393
aS'20374340'
p394
ag17
aS'34765676'
p395
ag147
aS'65675896'
p396
asg82
I1000
sg83
Nsg84
(iread_data
Room
p397
(dp398
g82
S'41'
p399
sg88
S'A1.04'
p400
sbsg90
g91
sg92
I0
sg88
S'Interactie-ontwerp'
p401
sbaa(lp402
(ischedule
Activity
p403
(dp404
g8
g276
sg82
I1000
sg83
Nsg84
(iread_data
Room
p405
(dp406
g82
g87
sg88
g89
sbsg90
g91
sg92
I0
sg88
g319
sba(ischedule
Activity
p407
(dp408
g8
(lp409
S'20618153'
p410
ag142
aS'4709948'
p411
ag145
ag105
aS'85284256'
p412
aS'99272880'
p413
ag130
aS'27582862'
p414
aS'80135353'
p415
ag63
aS'97019450'
p416
aS'2416751'
p417
aS'22288615'
p418
ag112
aS'2317551'
p419
ag345
ag31
ag49
ag61
ag364
aS'34900967'
p420
aS'58469172'
p421
aS'79167252'
p422
ag152
aS'37279234'
p423
aS'7492204'
p424
ag329
ag11
ag330
ag51
aS'33776961'
p425
aS'23215240'
p426
ag178
aS'51593625'
p427
aS'94955328'
p428
aS'92778619'
p429
aS'20830477'
p430
asg82
S'20'
p431
sg83
(ischedule
Group
p432
(dp433
g8
g409
sg88
S'Programmeren in Java 24'
p434
sbsg84
(iread_data
Room
p435
(dp436
g82
g245
sg88
g246
sbsg90
g190
sg92
S'4'
p437
sg88
S'Programmeren in Java 2'
p438
sba(ischedule
Activity
p439
(dp440
g8
(lp441
g220
aS'93041523'
p442
ag238
ag233
ag137
ag236
ag234
ag231
ag228
ag215
ag226
aS'12077419'
p443
aS'89338938'
p444
ag148
ag218
ag214
ag232
ag222
ag224
ag69
ag229
ag213
ag19
ag230
ag219
ag216
ag227
ag235
aS'6249823'
p445
ag237
aS'12430748'
p446
ag223
ag225
ag62
ag221
aS'22323043'
p447
ag212
ag217
asg82
I1000
sg83
Nsg84
(iread_data
Room
p448
(dp449
g82
g205
sg88
g206
sbsg90
g91
sg92
I0
sg88
g247
sba(ischedule
Activity
p450
(dp451
g8
(lp452
S'52715680'
p453
aS'78136904'
p454
aS'49922855'
p455
ag27
ag361
ag103
aS'20239127'
p456
aS'77392404'
p457
aS'57086672'
p458
ag328
aS'54569540'
p459
ag22
aS'20095994'
p460
ag354
asg82
S'20'
p461
sg83
(ischedule
Group
p462
(dp463
g8
g452
sg88
S'Reflectie op de digitale cultuur2'
p464
sbsg84
(iread_data
Room
p465
(dp466
g82
g270
sg88
g271
sbsg90
g123
sg92
g124
sg88
S'Reflectie op de digitale cultuur'
p467
sba(ischedule
Activity
p468
(dp469
g8
(lp470
g38
ag257
aS'27950803'
p471
aS'87602030'
p472
ag391
ag28
aS'74361881'
p473
aS'25994016'
p474
asg82
S'15'
p475
sg83
(ischedule
Group
p476
(dp477
g8
g470
sg88
S'Project Genetic Algorithms1'
p478
sbsg84
(iread_data
Room
p479
(dp480
g82
g372
sg88
g373
sbsg90
g190
sg92
g191
sg88
S'Project Genetic Algorithms'
p481
sba(ischedule
Activity
p482
(dp483
g8
(lp484
S'59887191'
p485
aS'97838175'
p486
aS'37804282'
p487
aS'24167153'
p488
ag362
aS'36527838'
p489
ag149
asg82
S'15'
p490
sg83
(ischedule
Group
p491
(dp492
g8
g484
sg88
S'Zoeken sturen en bewegen3'
p493
sbsg84
(iread_data
Room
p494
(dp495
g82
S'48'
p496
sg88
S'B0.201'
p497
sbsg90
g190
sg92
g207
sg88
S'Zoeken sturen en bewegen'
p498
sba(ischedule
Activity
p499
(dp500
g8
(lp501
S'63634350'
p502
aS'51472074'
p503
asg82
S'15'
p504
sg83
(ischedule
Group
p505
(dp506
g8
g501
sg88
S'Compilerbouw practicum2'
p507
sbsg84
(iread_data
Room
p508
(dp509
g82
S'20'
p510
sg88
S'A1.08'
p511
sbsg90
g190
sg92
g124
sg88
S'Compilerbouw practicum'
p512
sbaa(lp513
(ischedule
Activity
p514
(dp515
g8
(lp516
g24
ag286
ag60
ag285
ag158
ag197
ag288
ag294
ag307
ag290
ag316
ag295
ag229
ag283
ag296
ag314
ag297
ag312
ag279
ag18
ag299
ag309
ag302
ag287
ag292
ag80
asg82
S'20'
p517
sg83
(ischedule
Group
p518
(dp519
g8
g516
sg88
S'Collectieve Intelligentie1'
p520
sbsg84
(iread_data
Room
p521
(dp522
g82
g205
sg88
g206
sbsg90
g123
sg92
g191
sg88
g319
sba(ischedule
Activity
p523
(dp524
g8
g250
sg82
I1000
sg83
Nsg84
(iread_data
Room
p525
(dp526
g82
g121
sg88
g122
sbsg90
g91
sg92
I0
sg88
g272
sba(ischedule
Activity
p527
(dp528
g8
(lp529
g163
ag134
ag157
ag132
ag139
ag153
ag21
ag147
ag142
ag42
ag140
ag165
ag130
ag166
ag77
ag131
ag133
ag141
asg82
S'20'
p530
sg83
(ischedule
Group
p531
(dp532
g8
g529
sg88
S'Bioinformatica1'
p533
sbsg84
(iread_data
Room
p534
(dp535
g82
g169
sg88
g170
sbsg90
g123
sg92
g191
sg88
g171
sba(ischedule
Activity
p536
(dp537
g8
(lp538
g136
ag144
ag162
ag160
ag135
ag43
ag161
ag156
ag143
ag149
ag20
asg82
g530
sg83
(ischedule
Group
p539
(dp540
g8
g538
sg88
S'Bioinformatica2'
p541
sbsg84
(iread_data
Room
p542
(dp543
g82
g188
sg88
g189
sbsg90
g123
sg92
g124
sg88
g171
sba(ischedule
Activity
p544
(dp545
g8
(lp546
g277
ag303
ag282
ag212
ag52
ag313
ag310
ag37
ag62
ag315
ag305
ag304
ag308
ag225
asg82
g517
sg83
(ischedule
Group
p547
(dp548
g8
g546
sg88
S'Collectieve Intelligentie2'
p549
sbsg84
(iread_data
Room
p550
(dp551
g82
g245
sg88
g246
sbsg90
g123
sg92
g124
sg88
g319
sba(ischedule
Activity
p552
(dp553
g8
(lp554
S'96554914'
p555
ag456
aS'82390428'
p556
ag361
ag145
ag33
aS'27805666'
p557
ag27
ag325
ag218
aS'70193386'
p558
ag213
ag22
aS'84449005'
p559
ag75
ag331
aS'36213792'
p560
ag453
aS'60661905'
p561
ag380
ag328
ag164
aS'13718298'
p562
ag152
ag460
ag56
ag103
ag219
ag425
ag148
aS'51052738'
p563
ag457
ag455
ag429
ag471
aS'59753700'
p564
aS'99975346'
p565
aS'27370083'
p566
ag35
ag354
aS'87830198'
p567
aS'42406214'
p568
aS'68286356'
p569
ag454
ag180
ag458
aS'51415617'
p570
aS'32044893'
p571
ag411
ag459
aS'70844780'
p572
asg82
I1000
sg83
Nsg84
(iread_data
Room
p573
(dp574
g82
g270
sg88
g271
sbsg90
g91
sg92
I0
sg88
g467
sba(ischedule
Activity
p575
(dp576
g8
(lp577
g353
ag65
ag196
ag345
ag217
ag100
ag347
ag346
asg82
S'10'
p578
sg83
(ischedule
Group
p579
(dp580
g8
g577
sg88
S'Autonomous Agents 23'
p581
sbsg84
(iread_data
Room
p582
(dp583
g82
g87
sg88
g89
sbsg90
g123
sg92
g207
sg88
g357
sbaa(lp584
(ischedule
Activity
p585
(dp586
g8
(lp587
g67
ag261
aS'72665524'
p588
aS'86807027'
p589
aS'62613937'
p590
ag251
ag454
ag22
aS'92665222'
p591
aS'75997788'
p592
ag572
aS'40633534'
p593
aS'27064249'
p594
ag387
asg82
S'10'
p595
sg83
(ischedule
Group
p596
(dp597
g8
g587
sg88
S'Advanced Heuristics1'
p598
sbsg84
(iread_data
Room
p599
(dp600
g82
g87
sg88
g89
sbsg90
g190
sg92
g191
sg88
S'Advanced Heuristics'
p601
sba(ischedule
Activity
p602
(dp603
g8
(lp604
g489
aS'48198668'
p605
aS'13218321'
p606
ag150
ag256
aS'78443067'
p607
aS'77376714'
p608
aS'1181560'
p609
ag148
aS'27241113'
p610
aS'1766560'
p611
ag72
ag77
ag290
aS'58699305'
p612
aS'46570285'
p613
aS'83415514'
p614
ag60
ag46
ag337
ag220
ag411
ag216
ag50
ag76
aS'51650744'
p615
aS'30658799'
p616
ag283
ag37
aS'11741347'
p617
aS'59111489'
p618
aS'96082155'
p619
ag559
ag51
ag35
aS'47462856'
p620
ag130
aS'99283252'
p621
ag425
ag19
aS'27916487'
p622
aS'78243495'
p623
aS'36748818'
p624
aS'66621166'
p625
aS'78544592'
p626
ag212
aS'13911001'
p627
aS'3883025'
p628
ag592
ag137
aS'49219163'
p629
ag260
aS'41489515'
p630
aS'18144425'
p631
asg82
I1000
sg83
Nsg84
(iread_data
Room
p632
(dp633
g82
g205
sg88
g206
sbsg90
g91
sg92
I0
sg88
S'Moderne Databases'
p634
sba(ischedule
Activity
p635
(dp636
g8
(lp637
g178
aS'52311353'
p638
ag198
ag156
ag315
ag287
ag144
ag129
ag447
aS'31247305'
p639
ag414
aS'44671041'
p640
ag265
aS'9287708'
p641
aS'42115591'
p642
aS'14671406'
p643
ag444
aS'14072826'
p644
aS'41153310'
p645
aS'65318664'
p646
ag165
aS'80709893'
p647
ag562
ag314
ag330
aS'37830626'
p648
ag471
aS'31633723'
p649
ag282
aS'40343779'
p650
aS'83210352'
p651
aS'31103066'
p652
ag258
aS'48357272'
p653
ag161
aS'75599734'
p654
aS'61060652'
p655
ag104
aS'82872148'
p656
asg82
S'40'
p657
sg83
(ischedule
Group
p658
(dp659
g8
g637
sg88
S'Software engineering1'
p660
sbsg84
(iread_data
Room
p661
(dp662
g82
g496
sg88
g497
sbsg90
g123
sg92
g191
sg88
S'Software engineering'
p663
sba(ischedule
Activity
p664
(dp665
g8
g343
sg82
I1000
sg83
Nsg84
(iread_data
Room
p666
(dp667
g82
S'60'
p668
sg88
S'C1.112'
p669
sbsg90
g91
sg92
I0
sg88
g357
sba(ischedule
Activity
p670
(dp671
g8
(lp672
g163
ag44
aS'36903574'
p673
ag285
aS'88596522'
p674
ag383
aS'23652927'
p675
aS'26260141'
p676
ag381
ag286
ag326
ag395
ag47
aS'21095566'
p677
ag443
aS'19540225'
p678
aS'41585485'
p679
ag335
aS'64554442'
p680
aS'41527759'
p681
ag364
asg82
S'25'
p682
sg83
(ischedule
Group
p683
(dp684
g8
g672
sg88
S'Algoritmen en complexiteit2'
p685
sbsg84
(iread_data
Room
p686
(dp687
g82
g372
sg88
g373
sbsg90
g190
sg92
g124
sg88
S'Algoritmen en complexiteit'
p688
sba(ischedule
Activity
p689
(dp690
g8
(lp691
g267
aS'39429093'
p692
ag42
ag229
ag141
aS'1886996'
p693
asg82
g595
sg83
(ischedule
Group
p694
(dp695
g8
g691
sg88
S'Advanced Heuristics2'
p696
sbsg84
(iread_data
Room
p697
(dp698
g82
g399
sg88
g400
sbsg90
g190
sg92
g124
sg88
g601
sba(ischedule
Activity
p699
(dp700
g8
(lp701
g566
ag331
asg82
g461
sg83
(ischedule
Group
p702
(dp703
g8
g701
sg88
S'Reflectie op de digitale cultuur3'
p704
sbsg84
(iread_data
Room
p705
(dp706
g82
g510
sg88
g511
sbsg90
g123
sg92
g207
sg88
g467
sbaaa(lp707
(lp708
(ischedule
Activity
p709
(dp710
g8
(lp711
S'3474870'
p712
ag27
ag395
ag643
ag386
ag353
ag71
aS'66433883'
p713
ag443
ag287
ag143
aS'67817269'
p714
ag679
ag678
ag99
ag676
aS'53585410'
p715
aS'8522855'
p716
ag335
ag677
ag681
ag44
aS'51509565'
p717
ag286
ag326
ag608
ag454
ag47
ag285
ag674
ag650
ag453
ag163
ag675
ag680
ag381
ag68
ag364
ag72
ag49
ag673
ag383
ag25
asg82
I1000
sg83
Nsg84
(iread_data
Room
p718
(dp719
g82
g270
sg88
g271
sbsg90
g91
sg92
I0
sg88
g688
sba(ischedule
Activity
p720
(dp721
g8
(lp722
S'87900893'
p723
ag67
aS'65978354'
p724
aS'58253841'
p725
ag257
ag15
aS'70939718'
p726
aS'82412626'
p727
ag38
ag63
ag130
ag64
ag313
aS'56544130'
p728
ag101
ag472
ag592
aS'58040377'
p729
ag43
ag155
aS'24875739'
p730
ag502
ag277
ag594
ag13
ag589
ag385
ag10
aS'72526473'
p731
aS'59220392'
p732
aS'33672995'
p733
ag221
aS'6939933'
p734
ag139
ag328
aS'61520025'
p735
aS'55530367'
p736
ag626
aS'75623387'
p737
ag612
aS'79888156'
p738
ag97
aS'62363761'
p739
aS'23565001'
p740
aS'3678531'
p741
ag307
ag165
ag102
ag133
aS'10609762'
p742
aS'74182182'
p743
aS'14303208'
p744
aS'34173695'
p745
aS'55412918'
p746
ag421
aS'75446434'
p747
ag390
aS'31306819'
p748
aS'19717077'
p749
aS'53139134'
p750
aS'14179347'
p751
ag653
aS'45915482'
p752
ag20
aS'65408517'
p753
ag588
aS'5615125'
p754
ag309
ag299
aS'11593163'
p755
aS'80188025'
p756
aS'6709529'
p757
ag423
aS'23628642'
p758
asg82
g199
sg83
(ischedule
Group
p759
(dp760
g8
g722
sg88
S'Calculus 21'
p761
sbsg84
(iread_data
Room
p762
(dp763
g82
g87
sg88
g89
sbsg90
g123
sg92
g191
sg88
g208
sba(ischedule
Activity
p764
(dp765
g8
(lp766
g216
ag365
ag134
ag46
ag362
ag212
ag217
aS'17496687'
p767
aS'92977271'
p768
ag11
ag361
ag214
ag364
aS'11459236'
p769
ag259
aS'75585647'
p770
ag215
aS'19958553'
p771
ag363
ag624
ag294
asg82
I1000
sg83
Nsg84
(iread_data
Room
p772
(dp773
g82
g245
sg88
g246
sbsg90
g91
sg92
I0
sg88
g374
sba(ischedule
Activity
p774
(dp775
g8
(lp776
g621
ag623
ag607
ag260
ag220
ag608
ag615
ag60
ag256
ag51
ag609
ag627
ag630
ag622
ag625
ag283
ag489
ag50
ag290
asg82
S'20'
p777
sg83
(ischedule
Group
p778
(dp779
g8
g776
sg88
S'Moderne Databases2'
p780
sbsg84
(iread_data
Room
p781
(dp782
g82
g121
sg88
g122
sbsg90
g190
sg92
g124
sg88
g634
sba(ischedule
Activity
p783
(dp784
g8
(lp785
g69
ag19
ag137
ag444
ag447
ag446
ag442
ag445
ag443
asg82
g239
sg83
(ischedule
Group
p786
(dp787
g8
g785
sg88
S'Technology for games2'
p788
sbsg84
(iread_data
Room
p789
(dp790
g82
g188
sg88
g189
sbsg90
g123
sg92
g124
sg88
g247
sba(ischedule
Activity
p791
(dp792
g8
(lp793
g145
ag213
ag218
ag148
ag219
ag411
ag429
ag56
ag325
ag164
ag572
ag565
ag152
ag561
ag380
ag556
ag425
ag567
ag558
ag33
ag560
ag569
ag557
ag568
ag562
ag563
ag35
ag571
ag559
ag75
ag564
ag180
ag555
ag570
ag471
asg82
g461
sg83
(ischedule
Group
p794
(dp795
g8
g793
sg88
S'Reflectie op de digitale cultuur1'
p796
sbsg84
(iread_data
Room
p797
(dp798
g82
g205
sg88
g206
sbsg90
g123
sg92
g191
sg88
g467
sba(ischedule
Activity
p799
(dp800
g8
(lp801
g350
asg82
g578
sg83
(ischedule
Group
p802
(dp803
g8
g801
sg88
S'Autonomous Agents 21'
p804
sbsg84
(iread_data
Room
p805
(dp806
g82
g169
sg88
g170
sbsg90
g123
sg92
g191
sg88
g357
sbaa(lp807
(ischedule
Activity
p808
(dp809
g8
(lp810
g472
ag78
ag257
ag103
aS'15249775'
p811
ag71
aS'81022997'
p812
aS'5739011'
p813
ag147
ag223
ag326
aS'31897288'
p814
ag458
aS'35315956'
p815
ag18
ag502
ag329
ag729
ag26
ag623
aS'82968410'
p816
ag138
ag281
aS'72652638'
p817
aS'52304977'
p818
aS'58736785'
p819
ag196
ag565
ag307
ag693
aS'48678993'
p820
ag395
asg82
I1000
sg83
Nsg84
(iread_data
Room
p821
(dp822
g82
g169
sg88
g170
sbsg90
g91
sg92
I0
sg88
S'Heuristieken 2'
p823
sba(ischedule
Activity
p824
(dp825
g8
(lp826
g22
ag42
ag387
ag591
ag572
ag692
ag251
ag267
ag261
ag454
ag693
ag593
ag590
ag592
ag67
ag141
ag229
ag588
ag594
ag589
asg82
I1000
sg83
Nsg84
(iread_data
Room
p827
(dp828
g82
g188
sg88
g189
sbsg90
g91
sg92
I0
sg88
g601
sba(ischedule
Activity
p829
(dp830
g8
(lp831
g72
ag137
ag152
ag335
ag74
ag256
ag58
ag286
ag676
aS'88855695'
p832
ag353
aS'9731271'
p833
aS'28957789'
p834
ag614
ag55
aS'22168693'
p835
ag142
aS'56348773'
p836
aS'77306636'
p837
aS'62105897'
p838
aS'32705005'
p839
ag422
ag770
aS'73302736'
p840
ag613
ag715
aS'78735049'
p841
aS'93361408'
p842
ag607
asg82
g199
sg83
(ischedule
Group
p843
(dp844
g8
g831
sg88
S'Calculus 22'
p845
sbsg84
(iread_data
Room
p846
(dp847
g82
g270
sg88
g271
sbsg90
g123
sg92
g124
sg88
g208
sba(ischedule
Activity
p848
(dp849
g8
(lp850
S'68360259'
p851
aS'97136582'
p852
aS'87314964'
p853
ag447
ag287
ag175
ag178
ag638
aS'25330192'
p854
aS'66122625'
p855
ag160
aS'13996448'
p856
ag723
ag181
ag218
ag134
ag163
ag147
ag176
ag180
ag812
aS'93023961'
p857
ag564
ag179
ag177
ag362
ag71
asg82
I1000
sg83
Nsg84
(iread_data
Room
p858
(dp859
g82
g205
sg88
g206
sbsg90
g91
sg92
I0
sg88
g192
sba(ischedule
Activity
p860
(dp861
g8
(lp862
g278
ag289
ag352
ag567
ag213
ag559
aS'55480737'
p863
ag66
ag97
aS'88737765'
p864
ag153
ag76
ag111
aS'82066165'
p865
aS'14398123'
p866
aS'41644639'
p867
aS'69459473'
p868
aS'75680261'
p869
aS'51673172'
p870
asg82
g475
sg83
(ischedule
Group
p871
(dp872
g8
g862
sg88
S'Project Genetic Algorithms3'
p873
sbsg84
(iread_data
Room
p874
(dp875
g82
g87
sg88
g89
sbsg90
g190
sg92
g207
sg88
g481
sba(ischedule
Activity
p876
(dp877
g8
(lp878
g156
ag315
ag444
aS'90103047'
p879
ag389
aS'48503689'
p880
ag99
ag56
aS'84110134'
p881
ag351
aS'21070547'
p882
ag144
ag296
ag611
ag446
ag40
ag568
aS'32183908'
p883
ag571
ag231
asg82
S'15'
p884
sg83
(ischedule
Group
p885
(dp886
g8
g878
sg88
S'Project Numerical Recipes3'
p887
sbsg84
(iread_data
Room
p888
(dp889
g82
g245
sg88
g246
sbsg90
g190
sg92
g207
sg88
S'Project Numerical Recipes'
p890
sba(ischedule
Activity
p891
(dp892
g8
(lp893
g453
ag413
ag252
aS'1695839'
p894
ag473
aS'91250534'
p895
ag162
asg82
g504
sg83
(ischedule
Group
p896
(dp897
g8
g893
sg88
S'Compilerbouw practicum1'
p898
sbsg84
(iread_data
Room
p899
(dp900
g82
g372
sg88
g373
sbsg90
g190
sg92
g191
sg88
g512
sbaa(lp901
(ischedule
Activity
p902
(dp903
g8
g128
sg82
I1000
sg83
Nsg84
(iread_data
Room
p904
(dp905
g82
g205
sg88
g206
sbsg90
g91
sg92
I0
sg88
g171
sba(ischedule
Activity
p906
(dp907
g8
(lp908
g558
aS'82854435'
p909
ag638
ag53
ag48
ag642
ag840
ag420
ag196
ag106
ag458
ag213
aS'14637758'
p910
ag428
ag561
ag76
ag63
aS'83443653'
p911
ag740
ag354
ag820
ag363
ag562
aS'18477924'
p912
aS'73350019'
p913
ag219
ag61
ag30
ag592
ag416
ag109
ag36
ag567
ag864
ag486
aS'58480929'
p914
ag146
ag728
ag653
ag154
ag733
aS'78822885'
p915
ag646
ag590
aS'72586808'
p916
ag756
ag266
ag137
ag18
asg82
I1000
sg83
Nsg84
(iread_data
Room
p917
(dp918
g82
g270
sg88
g271
sbsg90
g91
sg92
I0
sg88
S'Analysemethoden en -technieken'
p919
sba(ischedule
Activity
p920
(dp921
g8
g672
sg82
S'25'
p922
sg83
g683
sg84
(iread_data
Room
p923
(dp924
g82
S'117'
p925
sg88
S'C0.110'
p926
sbsg90
g123
sg92
g124
sg88
g688
sba(ischedule
Activity
p927
(dp928
g8
g776
sg82
S'20'
p929
sg83
g778
sg84
(iread_data
Room
p930
(dp931
g82
g510
sg88
g511
sbsg90
g123
sg92
g124
sg88
g634
sba(ischedule
Activity
p932
(dp933
g8
(lp934
g454
ag72
ag353
ag71
ag287
ag608
ag643
ag143
ag27
ag650
ag25
ag386
ag99
ag49
ag715
ag453
ag716
ag712
ag68
ag717
ag714
ag713
asg82
g682
sg83
(ischedule
Group
p935
(dp936
g8
g934
sg88
S'Algoritmen en complexiteit1'
p937
sbsg84
(iread_data
Room
p938
(dp939
g82
g399
sg88
g400
sbsg90
g190
sg92
g191
sg88
g688
sbaa(lp940
(ischedule
Activity
p941
(dp942
g8
(lp943
g737
ag20
ag749
ag753
ag221
ag613
ag715
ag745
ag730
ag130
ag736
ag74
ag740
ag838
ag592
ag313
ag10
ag155
ag723
ag328
ag833
ag732
ag196
ag198
ag727
ag102
ag839
ag738
ag728
ag724
ag750
ag309
ag746
ag256
ag757
ag614
ag385
ag63
ag729
ag752
ag421
ag277
ag612
ag842
ag58
ag15
ag13
ag739
ag422
ag626
ag165
ag335
ag390
ag747
ag139
ag286
ag594
ag758
ag725
ag755
ag676
ag834
ag751
ag840
ag756
ag43
ag744
ag607
ag502
ag152
ag64
ag97
ag742
ag38
ag731
ag72
ag472
ag726
ag137
ag733
ag748
ag588
ag653
ag837
ag133
ag754
ag257
ag589
ag743
ag734
ag101
ag55
ag735
ag770
ag142
ag197
ag836
ag423
ag741
ag307
ag353
ag67
ag299
ag841
ag835
ag832
asg82
I1000
sg83
Nsg84
(iread_data
Room
p944
(dp945
g82
g87
sg88
g89
sbsg90
g91
sg92
I0
sg88
g208
sba(ischedule
Activity
p946
(dp947
g8
(lp948
g163
ag140
ag53
ag56
ag254
ag251
ag293
ag298
ag280
ag301
ag289
ag300
ag68
ag291
asg82
S'20'
p949
sg83
(ischedule
Group
p950
(dp951
g8
g948
sg88
S'Collectieve Intelligentie4'
p952
sbsg84
(iread_data
Room
p953
(dp954
g82
g245
sg88
g246
sbsg90
g190
sg92
g437
sg88
g319
sba(ischedule
Activity
p955
(dp956
g8
(lp957
g218
ag71
ag354
ag160
ag37
ag352
ag31
ag348
ag349
ag344
ag135
ag54
ag351
asg82
g578
sg83
(ischedule
Group
p958
(dp959
g8
g957
sg88
S'Autonomous Agents 22'
p960
sbsg84
(iread_data
Room
p961
(dp962
g82
g169
sg88
g170
sbsg90
g123
sg92
g124
sg88
g357
sba(ischedule
Activity
p963
(dp964
g8
(lp965
g11
ag27
ag39
ag46
ag80
ag24
ag12
ag81
ag52
ag23
ag73
ag76
ag26
ag50
ag70
ag31
ag57
asg82
S'40'
p966
sg83
(ischedule
Group
p967
(dp968
g8
g965
sg88
S'Databases 22'
p969
sbsg84
(iread_data
Room
p970
(dp971
g82
g121
sg88
g122
sbsg90
g123
sg92
g124
sg88
g93
sba(ischedule
Activity
p972
(dp973
g8
(lp974
g411
ag22
aS'38499176'
p975
ag639
aS'12170832'
p976
ag303
ag147
ag852
ag457
ag178
ag228
ag656
ag650
ag572
ag158
ag628
aS'7957843'
p977
ag716
ag109
ag41
aS'1048485'
p978
aS'53267490'
p979
ag217
aS'16912993'
p980
aS'4353500'
p981
ag68
ag866
ag79
aS'535689'
p982
ag820
ag59
asg82
S'20'
p983
sg83
(ischedule
Group
p984
(dp985
g8
g974
sg88
S'Netwerken en systeembeveiliging1'
p986
sbsg84
(iread_data
Room
p987
(dp988
g82
g205
sg88
g206
sbsg90
g190
sg92
g191
sg88
S'Netwerken en systeembeveiliging'
p989
sba(ischedule
Activity
p990
(dp991
g8
(lp992
g35
ag14
ag281
ag284
ag311
ag278
ag306
asg82
g517
sg83
(ischedule
Group
p993
(dp994
g8
g992
sg88
S'Collectieve Intelligentie3'
p995
sbsg84
(iread_data
Room
p996
(dp997
g82
g510
sg88
g511
sbsg90
g123
sg92
g207
sg88
g319
sbaa(lp998
(ischedule
Activity
p999
(dp1000
g8
(lp1001
g212
ag294
ag217
ag624
ag259
ag771
ag767
ag769
ag770
ag214
ag768
asg82
S'15'
p1002
sg83
(ischedule
Group
p1003
(dp1004
g8
g1001
sg88
S'Informatie- en organisatieontwerp2'
p1005
sbsg84
(iread_data
Room
p1006
(dp1007
g82
g188
sg88
g189
sbsg90
g123
sg92
g124
sg88
g374
sba(ischedule
Activity
p1008
(dp1009
g8
g377
sg82
I1000
sg83
Nsg84
(iread_data
Room
p1010
(dp1011
g82
g169
sg88
g170
sbsg90
g91
sg92
I0
sg88
g401
sba(ischedule
Activity
p1012
(dp1013
g8
(lp1014
g54
ag135
ag352
ag354
ag608
ag621
ag623
ag220
ag607
ag351
ag260
ag100
ag326
aS'55474917'
p1015
ag752
ag676
ag306
ag753
ag677
ag881
ag681
ag14
ag309
ag427
ag453
aS'3727435'
p1016
ag233
aS'58074656'
p1017
ag132
ag162
ag157
ag978
ag838
ag308
ag555
ag840
asg82
S'40'
p1018
sg83
(ischedule
Group
p1019
(dp1020
g8
g1014
sg88
S'Software engineering2'
p1021
sbsg84
(iread_data
Room
p1022
(dp1023
g82
g270
sg88
g271
sbsg90
g190
sg92
g124
sg88
g663
sba(ischedule
Activity
p1024
(dp1025
g8
(lp1026
g52
ag281
ag277
ag754
aS'39230359'
p1027
ag712
aS'16333449'
p1028
ag251
ag868
aS'94930277'
p1029
aS'76648468'
p1030
aS'53512831'
p1031
ag417
aS'28358060'
p1032
aS'41790793'
p1033
aS'10698627'
p1034
ag445
ag458
aS'24891081'
p1035
ag387
aS'49908313'
p1036
ag410
ag99
ag594
ag69
aS'76903244'
p1037
ag34
asg82
S'20'
p1038
sg83
(ischedule
Group
p1039
(dp1040
g8
g1026
sg88
S'Webprogrammeren en databases1'
p1041
sbsg84
(iread_data
Room
p1042
(dp1043
g82
g245
sg88
g246
sbsg90
g123
sg92
g191
sg88
S'Webprogrammeren en databases'
p1044
sba(ischedule
Activity
p1045
(dp1046
g8
(lp1047
g80
ag142
ag15
ag12
ag65
ag140
ag39
ag31
ag153
ag156
ag315
ag298
ag296
ag231
ag289
ag443
ag216
ag303
ag263
ag591
aS'95007221'
p1048
aS'34110913'
p1049
ag415
ag381
ag222
ag256
aS'88636924'
p1050
ag136
ag324
ag419
aS'98105190'
p1051
ag228
ag977
aS'65852230'
p1052
ag422
aS'76802764'
p1053
ag332
aS'75759231'
p1054
ag627
ag27
ag611
ag832
ag616
aS'43689934'
p1055
ag880
aS'3407554'
p1056
ag220
ag617
ag471
ag654
aS'94687383'
p1057
asg82
S'40'
p1058
sg83
(ischedule
Group
p1059
(dp1060
g8
g1047
sg88
S'Compilerbouw1'
p1061
sbsg84
(iread_data
Room
p1062
(dp1063
g82
g87
sg88
g89
sbsg90
g190
sg92
g191
sg88
g125
sba(ischedule
Activity
p1064
(dp1065
g8
(lp1066
g148
ag145
ag164
ag24
ag152
ag155
ag158
ag138
ag137
ag129
ag154
ag150
ag81
ag146
ag159
ag151
asg82
S'20'
p1067
sg83
(ischedule
Group
p1068
(dp1069
g8
g1066
sg88
S'Bioinformatica3'
p1070
sbsg84
(iread_data
Room
p1071
(dp1072
g82
g121
sg88
g122
sbsg90
g190
sg92
g207
sg88
g171
sba(ischedule
Activity
p1073
(dp1074
g8
g850
sg82
I1000
sg83
Nsg84
(iread_data
Room
p1075
(dp1076
g82
g205
sg88
g206
sbsg90
g91
sg92
I0
sg88
g192
sbaaa(lp1077
(lp1078
(ischedule
Activity
p1079
(dp1080
g8
(lp1081
g103
ag363
ag833
ag502
aS'47605891'
p1082
ag866
ag416
ag681
ag834
ag444
aS'44940353'
p1083
ag421
ag155
ag140
aS'37498675'
p1084
aS'63955238'
p1085
ag679
ag141
ag262
ag881
ag620
ag454
ag53
ag81
ag138
ag743
ag214
ag716
ag1027
aS'72547110'
p1086
ag266
aS'79858178'
p1087
ag224
aS'39919665'
p1088
ag100
ag50
ag649
ag428
ag102
ag101
ag754
ag331
ag613
aS'34262212'
p1089
aS'82688900'
p1090
ag98
aS'81218347'
p1091
ag391
ag234
ag673
ag46
ag176
ag975
ag1015
ag839
ag175
ag730
ag841
ag330
ag424
ag333
aS'51186803'
p1092
aS'38329455'
p1093
ag643
aS'65003379'
p1094
ag132
ag459
ag642
ag456
aS'39659121'
p1095
aS'59075181'
p1096
aS'23391676'
p1097
ag280
ag413
ag325
ag20
ag300
ag109
aS'91139627'
p1098
aS'63408522'
p1099
aS'10872825'
p1100
aS'79366078'
p1101
ag48
ag639
asg82
I1000
sg83
Nsg84
(iread_data
Room
p1102
(dp1103
g82
g87
sg88
g89
sbsg90
g91
sg92
I0
sg88
S'Kansrekenen 2'
p1104
sba(ischedule
Activity
p1105
(dp1106
g8
g1047
sg82
g115
sg83
g1059
sg84
(iread_data
Room
p1107
(dp1108
g82
g270
sg88
g271
sbsg90
g123
sg92
g191
sg88
g125
sba(ischedule
Activity
p1109
(dp1110
g8
g992
sg82
g949
sg83
g993
sg84
(iread_data
Room
p1111
(dp1112
g82
g121
sg88
g122
sbsg90
g190
sg92
g207
sg88
g319
sba(ischedule
Activity
p1113
(dp1114
g8
(lp1115
g638
ag851
ag163
ag723
ag852
ag857
ag812
ag287
ag854
ag856
ag855
ag447
ag853
ag147
asg82
g182
sg83
(ischedule
Group
p1116
(dp1117
g8
g1115
sg88
S'Data Mining2'
p1118
sbsg84
(iread_data
Room
p1119
(dp1120
g82
g188
sg88
g189
sbsg90
g190
sg92
g124
sg88
g192
sba(ischedule
Activity
p1121
(dp1122
g8
(lp1123
g157
ag623
ag258
ag47
aS'1137946'
p1124
ag260
ag457
ag418
ag136
ag378
ag744
aS'67073567'
p1125
asg82
S'20'
p1126
sg83
(ischedule
Group
p1127
(dp1128
g8
g1123
sg88
S'Webprogrammeren en databases2'
p1129
sbsg84
(iread_data
Room
p1130
(dp1131
g82
S'56'
p1132
sg88
S'A1.10'
p1133
sbsg90
g190
sg92
g124
sg88
g1044
sba(ischedule
Activity
p1134
(dp1135
g8
g957
sg82
S'10'
p1136
sg83
g958
sg84
(iread_data
Room
p1137
(dp1138
g82
g496
sg88
g497
sbsg90
g190
sg92
g124
sg88
g357
sba(ischedule
Activity
p1139
(dp1140
g8
g546
sg82
g949
sg83
g547
sg84
(iread_data
Room
p1141
(dp1142
g82
g399
sg88
g400
sbsg90
g190
sg92
g124
sg88
g319
sbaa(lp1143
(ischedule
Activity
p1144
(dp1145
g8
(lp1146
g231
ag1051
ag616
ag31
ag256
ag101
ag111
ag99
ag109
ag106
ag108
ag324
ag80
ag97
ag156
ag1054
ag263
ag216
ag114
ag1057
ag113
ag298
ag142
ag1055
ag381
ag98
ag103
ag1056
ag303
ag296
ag112
ag220
ag289
ag977
ag591
ag332
ag1052
ag443
ag136
ag1048
ag15
ag104
ag12
ag222
ag415
ag102
ag65
ag419
ag140
ag422
ag27
ag315
ag880
ag1049
ag471
ag110
ag100
ag1053
ag617
ag654
ag39
ag832
ag627
ag107
ag611
ag105
ag1050
ag153
ag228
asg82
I1000
sg83
Nsg84
(iread_data
Room
p1147
(dp1148
g82
g87
sg88
g89
sbsg90
g91
sg92
I0
sg88
g125
sba(ischedule
Activity
p1149
(dp1150
g8
(lp1151
S'71839156'
p1152
ag347
aS'53775014'
p1153
ag911
ag297
ag655
ag283
ag416
ag311
aS'14941752'
p1154
ag814
ag430
ag1029
ag1096
ag81
ag447
ag592
ag653
ag855
ag673
ag212
aS'79879876'
p1155
ag768
aS'97417002'
p1156
ag309
aS'76393508'
p1157
ag155
ag354
ag217
aS'45660925'
p1158
ag19
ag218
ag819
ag262
ag129
ag1091
ag1051
ag252
ag589
ag44
ag43
aS'87210640'
p1159
ag361
ag981
asg82
I1000
sg83
Nsg84
(iread_data
Room
p1160
(dp1161
g82
g270
sg88
g271
sbsg90
g91
sg92
I0
sg88
S'Heuristieken 1'
p1162
sba(ischedule
Activity
p1163
(dp1164
g8
(lp1165
g387
ag99
ag1035
ag712
ag457
ag1030
ag52
ag410
ag281
ag1124
ag744
ag418
ag1033
ag868
ag34
ag1031
ag277
ag1027
ag260
ag157
ag1029
ag458
ag417
ag258
ag378
ag1032
ag1037
ag251
ag1034
ag1036
ag594
ag623
ag69
ag47
ag754
ag136
ag1125
ag1028
ag445
asg82
I1000
sg83
Nsg84
(iread_data
Room
p1166
(dp1167
g82
g496
sg88
g497
sbsg90
g91
sg92
I0
sg88
g1044
sba(ischedule
Activity
p1168
(dp1169
g8
(lp1170
g978
aS'88597745'
p1171
ag337
ag833
aS'73893840'
p1172
ag335
aS'39905995'
p1173
ag729
ag713
ag294
ag838
aS'63096281'
p1174
aS'64053722'
p1175
ag327
ag645
ag175
ag163
asg82
g431
sg83
(ischedule
Group
p1176
(dp1177
g8
g1170
sg88
S'Programmeren in Java 25'
p1178
sbsg84
(iread_data
Room
p1179
(dp1180
g82
g399
sg88
g400
sbsg90
g190
sg92
S'5'
p1181
sg88
g438
sba(ischedule
Activity
p1182
(dp1183
g8
(lp1184
g14
ag679
aS'73196865'
p1185
aS'88263855'
p1186
aS'51791169'
p1187
asg82
g431
sg83
(ischedule
Group
p1188
(dp1189
g8
g1184
sg88
S'Programmeren in Java 22'
p1190
sbsg84
(iread_data
Room
p1191
(dp1192
g82
g372
sg88
g373
sbsg90
g190
sg92
g124
sg88
g438
sbaa(lp1193
(ischedule
Activity
p1194
(dp1195
g8
(lp1196
S'88519892'
p1197
ag302
ag102
ag1015
ag27
ag856
aS'28943658'
p1198
ag46
aS'12782624'
p1199
ag303
ag389
ag176
ag561
ag1155
ag67
ag304
ag26
ag33
ag380
ag715
ag975
ag299
ag393
ag1097
ag741
ag811
aS'10702778'
p1200
ag1034
aS'90296821'
p1201
ag1057
ag880
aS'7386961'
p1202
ag281
ag81
ag80
ag768
ag235
asg82
g431
sg83
(ischedule
Group
p1203
(dp1204
g8
g1196
sg88
S'Programmeren in Java 23'
p1205
sbsg84
(iread_data
Room
p1206
(dp1207
g82
g245
sg88
g246
sbsg90
g190
sg92
g207
sg88
g438
sba(ischedule
Activity
p1208
(dp1209
g8
(lp1210
g673
ag854
ag812
ag1096
ag916
ag381
ag105
aS'19058315'
p1211
ag197
ag131
ag363
ag833
ag14
ag159
ag261
aS'123355'
p1212
ag726
ag379
asg82
g983
sg83
(ischedule
Group
p1213
(dp1214
g8
g1210
sg88
S'Netwerken en systeembeveiliging3'
p1215
sbsg84
(iread_data
Room
p1216
(dp1217
g82
g188
sg88
g189
sbsg90
g190
sg92
g207
sg88
g989
sba(ischedule
Activity
p1218
(dp1219
g8
g637
sg82
g1018
sg83
g658
sg84
(iread_data
Room
p1220
(dp1221
g82
g169
sg88
g170
sbsg90
g190
sg92
g191
sg88
g663
sba(ischedule
Activity
p1222
(dp1223
g8
(lp1224
g502
ag108
ag179
ag614
asg82
g431
sg83
(ischedule
Group
p1225
(dp1226
g8
g1224
sg88
S'Programmeren in Java 26'
p1227
sbsg84
(iread_data
Room
p1228
(dp1229
g82
g121
sg88
g122
sbsg90
g190
sg92
S'6'
p1230
sg88
g438
sba(ischedule
Activity
p1231
(dp1232
g8
(lp1233
g216
ag564
ag732
ag75
ag283
ag752
ag361
ag22
ag834
ag146
ag429
aS'57701414'
p1234
ag150
ag143
ag350
ag229
ag867
ag353
aS'13210212'
p1235
ag386
ag725
ag1085
ag1171
ag52
ag142
aS'57419039'
p1236
asg82
g490
sg83
(ischedule
Group
p1237
(dp1238
g8
g1233
sg88
S'Zoeken sturen en bewegen2'
p1239
sbsg84
(iread_data
Room
p1240
(dp1241
g82
g87
sg88
g89
sbsg90
g190
sg92
g124
sg88
g498
sba(ischedule
Activity
p1242
(dp1243
g8
(lp1244
S'25557516'
p1245
ag313
ag567
ag166
aS'5590289'
p1246
ag739
asg82
g983
sg83
(ischedule
Group
p1247
(dp1248
g8
g1244
sg88
S'Netwerken en systeembeveiliging2'
p1249
sbsg84
(iread_data
Room
p1250
(dp1251
g82
g668
sg88
g669
sbsg90
g190
sg92
g124
sg88
g989
sbaa(lp1252
(ischedule
Activity
p1253
(dp1254
g8
g1081
sg82
I1000
sg83
Nsg84
(iread_data
Room
p1255
(dp1256
g82
g87
sg88
g89
sbsg90
g91
sg92
I0
sg88
g1104
sba(ischedule
Activity
p1257
(dp1258
g8
g1165
sg82
I1000
sg83
Nsg84
(iread_data
Room
p1259
(dp1260
g82
g169
sg88
g170
sbsg90
g91
sg92
I0
sg88
g1044
sba(ischedule
Activity
p1261
(dp1262
g8
g801
sg82
g1136
sg83
g802
sg84
(iread_data
Room
p1263
(dp1264
g82
g372
sg88
g373
sbsg90
g190
sg92
g191
sg88
g357
sba(ischedule
Activity
p1265
(dp1266
g8
g516
sg82
g949
sg83
g518
sg84
(iread_data
Room
p1267
(dp1268
g82
g399
sg88
g400
sbsg90
g190
sg92
g191
sg88
g319
sba(ischedule
Activity
p1269
(dp1270
g8
(lp1271
g71
ag218
ag134
ag160
ag362
ag564
asg82
S'10'
p1272
sg83
(ischedule
Group
p1273
(dp1274
g8
g1271
sg88
S'Data Mining3'
p1275
sbsg84
(iread_data
Room
p1276
(dp1277
g82
g1132
sg88
g1133
sbsg90
g123
sg92
g207
sg88
g192
sba(ischedule
Activity
p1278
(dp1279
g8
(lp1280
g856
ag261
ag589
ag1154
ag812
aS'19662602'
p1281
aS'63573738'
p1282
asg82
g884
sg83
(ischedule
Group
p1283
(dp1284
g8
g1280
sg88
S'Project Numerical Recipes1'
p1285
sbsg84
(iread_data
Room
p1286
(dp1287
g82
g510
sg88
g511
sbsg90
g190
sg92
g191
sg88
g890
sbaa(lp1288
(ischedule
Activity
p1289
(dp1290
g8
(lp1291
g18
ag307
ag623
ag196
ag281
ag103
ag818
ag472
ag26
ag78
ag813
ag693
ag820
ag817
asg82
S'20'
p1292
sg83
(ischedule
Group
p1293
(dp1294
g8
g1291
sg88
S'Heuristieken 21'
p1295
sbsg84
(iread_data
Room
p1296
(dp1297
g82
g169
sg88
g170
sbsg90
g123
sg92
g191
sg88
g823
sba(ischedule
Activity
p1298
(dp1299
g8
(lp1300
g1096
ag447
ag155
ag44
ag297
ag1091
ag262
ag911
ag311
ag1051
ag217
ag19
ag430
ag252
ag673
ag814
ag354
ag592
ag43
ag655
ag981
ag212
ag309
ag416
ag1157
ag81
ag1155
ag1154
ag819
ag589
ag1153
ag1156
ag1158
ag768
ag1029
ag347
ag218
ag1152
ag855
asg82
S'25'
p1301
sg83
(ischedule
Group
p1302
(dp1303
g8
g1300
sg88
S'Heuristieken 11'
p1304
sbsg84
(iread_data
Room
p1305
(dp1306
g82
g245
sg88
g246
sbsg90
g123
sg92
g191
sg88
g1162
sba(ischedule
Activity
p1307
(dp1308
g8
g934
sg82
g922
sg83
g935
sg84
(iread_data
Room
p1309
(dp1310
g82
g121
sg88
g122
sbsg90
g123
sg92
g191
sg88
g688
sba(ischedule
Activity
p1311
(dp1312
g8
g322
sg82
I1000
sg83
Nsg84
(iread_data
Room
p1313
(dp1314
g82
g205
sg88
g206
sbsg90
g91
sg92
I0
sg88
g340
sba(ischedule
Activity
p1315
(dp1316
g8
g441
sg82
I1000
sg83
Nsg84
(iread_data
Room
p1317
(dp1318
g82
g87
sg88
g89
sbsg90
g91
sg92
I0
sg88
g247
sba(ischedule
Activity
p1319
(dp1320
g8
g529
sg82
g1067
sg83
g531
sg84
(iread_data
Room
p1321
(dp1322
g82
g270
sg88
g271
sbsg90
g190
sg92
g191
sg88
g171
sba(ischedule
Activity
p1323
(dp1324
g8
(lp1325
g653
ag1159
ag129
ag283
ag361
asg82
g1301
sg83
(ischedule
Group
p1326
(dp1327
g8
g1325
sg88
S'Heuristieken 12'
p1328
sbsg84
(iread_data
Room
p1329
(dp1330
g82
g188
sg88
g189
sbsg90
g123
sg92
g124
sg88
g1162
sbaaa(lp1331
(lp1332
(ischedule
Activity
p1333
(dp1334
g8
(lp1335
g453
ag639
ag220
ag655
ag260
ag282
ag178
ag677
ag414
ag54
ag427
ag653
ag640
ag135
ag643
ag161
ag351
ag129
ag645
ag471
ag162
ag641
ag287
ag156
ag315
ag647
ag144
ag644
ag656
ag306
ag308
ag752
ag646
ag651
ag1017
ag642
ag638
ag838
ag978
ag1015
ag623
ag555
ag652
ag132
ag314
ag100
ag258
ag309
ag233
ag14
ag330
ag753
ag157
ag607
ag881
ag444
ag104
ag352
ag447
ag562
ag265
ag354
ag326
ag676
ag654
ag840
ag198
ag649
ag650
ag608
ag681
ag1016
ag165
ag621
ag648
asg82
I1000
sg83
Nsg84
g944
sg90
g91
sg92
I0
sg88
g663
sba(ischedule
Activity
p1336
(dp1337
g8
(lp1338
g130
ag77
ag610
ag624
ag592
ag559
ag611
ag19
ag616
ag612
ag613
ag150
ag614
ag425
ag619
ag76
ag411
ag617
ag35
ag148
ag37
ag72
asg82
g777
sg83
(ischedule
Group
p1339
(dp1340
g8
g1338
sg88
S'Moderne Databases1'
p1341
sbsg84
(iread_data
Room
p1342
(dp1343
g82
g121
sg88
g122
sbsg90
g190
sg92
g191
sg88
g634
sba(ischedule
Activity
p1344
(dp1345
g8
g1026
sg82
g1126
sg83
g1039
sg84
(iread_data
Room
p1346
(dp1347
g82
g245
sg88
g246
sbsg90
g190
sg92
g191
sg88
g1044
sba(ischedule
Activity
p1348
(dp1349
g8
g577
sg82
g1136
sg83
g579
sg84
(iread_data
Room
p1350
(dp1351
g82
g188
sg88
g189
sbsg90
g190
sg92
g207
sg88
g357
sba(ischedule
Activity
p1352
(dp1353
g8
g1271
sg82
g182
sg83
g1273
sg84
(iread_data
Room
p1354
(dp1355
g82
g205
sg88
g206
sbsg90
g190
sg92
g207
sg88
g192
sba(ischedule
Activity
p1356
(dp1357
g8
(lp1358
g626
ag46
ag629
ag606
ag631
ag620
ag605
ag337
ag618
ag216
ag137
ag212
ag628
asg82
g929
sg83
(ischedule
Group
p1359
(dp1360
g8
g1358
sg88
S'Moderne Databases3'
p1361
sbsg84
(iread_data
Room
p1362
(dp1363
g82
g169
sg88
g170
sbsg90
g123
sg92
g207
sg88
g634
sba(ischedule
Activity
p1364
(dp1365
g8
g948
sg82
g517
sg83
g950
sg84
(iread_data
Room
p1366
(dp1367
g82
g270
sg88
g271
sbsg90
g123
sg92
g437
sg88
g319
sbaa(lp1368
(ischedule
Activity
p1369
(dp1370
g8
g554
sg82
I1000
sg83
Nsg84
(iread_data
Room
p1371
(dp1372
g82
g87
sg88
g89
sbsg90
g91
sg92
I0
sg88
g467
sba(ischedule
Activity
p1373
(dp1374
g8
g128
sg82
I1000
sg83
Nsg84
(iread_data
Room
p1375
(dp1376
g82
g169
sg88
g170
sbsg90
g91
sg92
I0
sg88
g171
sba(ischedule
Activity
p1377
(dp1378
g8
(lp1379
g1091
ag975
ag24
ag80
ag647
aS'90743504'
p1380
ag740
ag292
ag155
ag638
aS'80998260'
p1381
ag743
ag196
ag109
aS'26172512'
p1382
ag40
ag176
ag344
ag1015
ag428
aS'96118484'
p1383
aS'66570705'
p1384
ag213
ag304
ag1152
ag296
ag301
ag642
ag55
aS'54074680'
p1385
aS'32595335'
p1386
ag352
ag231
ag37
aS'34588570'
p1387
ag380
ag655
ag489
aS'21311067'
p1388
ag393
ag712
ag1028
ag13
ag746
aS'16011419'
p1389
ag651
ag264
ag221
ag139
aS'79937969'
p1390
ag26
ag346
ag61
ag381
asg82
I1000
sg83
Nsg84
(iread_data
Room
p1391
(dp1392
g82
g270
sg88
g271
sbsg90
g91
sg92
I0
sg88
S'Lineaire Algebra'
p1393
sba(ischedule
Activity
p1394
(dp1395
g8
(lp1396
g23
ag485
ag412
ag1282
ag30
ag311
ag588
aS'64246605'
p1397
ag44
asg82
g983
sg83
(ischedule
Group
p1398
(dp1399
g8
g1396
sg88
S'Netwerken en systeembeveiliging4'
p1400
sbsg84
(iread_data
Room
p1401
(dp1402
g82
g372
sg88
g373
sbsg90
g190
sg92
g437
sg88
g989
sba(ischedule
Activity
p1403
(dp1404
g8
g1001
sg82
g366
sg83
g1003
sg84
(iread_data
Room
p1405
(dp1406
g82
g399
sg88
g400
sbsg90
g190
sg92
g124
sg88
g374
sba(ischedule
Activity
p1407
(dp1408
g8
(lp1409
g621
ag725
ag820
ag751
ag282
ag330
ag335
ag593
ag716
asg82
g475
sg83
(ischedule
Group
p1410
(dp1411
g8
g1409
sg88
S'Project Genetic Algorithms2'
p1412
sbsg84
(iread_data
Room
p1413
(dp1414
g82
g1132
sg88
g1133
sbsg90
g190
sg92
g124
sg88
g481
sbaa(lp1415
(ischedule
Activity
p1416
(dp1417
g8
(lp1418
g62
ag744
ag129
ag279
ag715
aS'42297781'
p1419
ag588
ag982
ag236
aS'64418623'
p1420
ag36
ag474
aS'55103073'
p1421
ag674
ag215
ag287
ag769
ag396
ag426
aS'44151631'
p1422
ag975
ag144
ag627
aS'47260040'
p1423
ag865
ag870
ag1056
ag1152
ag285
aS'5892092'
p1424
ag867
asg82
g504
sg83
(ischedule
Group
p1425
(dp1426
g8
g1418
sg88
S'Compilerbouw practicum3'
p1427
sbsg84
(iread_data
Room
p1428
(dp1429
g82
g270
sg88
g271
sbsg90
g190
sg92
g207
sg88
g512
sba(ischedule
Activity
p1430
(dp1431
g8
g1014
sg82
g657
sg83
g1019
sg84
(iread_data
Room
p1432
(dp1433
g82
g245
sg88
g246
sbsg90
g123
sg92
g124
sg88
g663
sba(ischedule
Activity
p1434
(dp1435
g8
g1338
sg82
g929
sg83
g1339
sg84
(iread_data
Room
p1436
(dp1437
g82
g169
sg88
g170
sbsg90
g123
sg92
g191
sg88
g634
sba(ischedule
Activity
p1438
(dp1439
g8
g1358
sg82
g777
sg83
g1359
sg84
(iread_data
Room
p1440
(dp1441
g82
g205
sg88
g206
sbsg90
g190
sg92
g207
sg88
g634
sba(ischedule
Activity
p1442
(dp1443
g8
(lp1444
g58
ag138
ag303
ag154
ag158
ag15
aS'34691309'
p1445
ag388
ag734
ag110
aS'40911986'
p1446
ag977
aS'37419523'
p1447
ag325
ag743
aS'63939720'
p1448
aS'81116418'
p1449
asg82
g884
sg83
(ischedule
Group
p1450
(dp1451
g8
g1444
sg88
S'Project Numerical Recipes2'
p1452
sbsg84
(iread_data
Room
p1453
(dp1454
g82
g87
sg88
g89
sbsg90
g190
sg92
g124
sg88
g890
sba(ischedule
Activity
p1455
(dp1456
g8
(lp1457
g316
ag673
ag1089
aS'54395877'
p1458
ag286
ag589
ag20
ag225
ag640
asg82
g431
sg83
(ischedule
Group
p1459
(dp1460
g8
g1457
sg88
S'Programmeren in Java 21'
p1461
sbsg84
(iread_data
Room
p1462
(dp1463
g82
g188
sg88
g189
sbsg90
g190
sg92
g191
sg88
g438
sba(ischedule
Activity
p1464
(dp1465
g8
(lp1466
g380
ag112
aS'33946407'
p1467
ag136
ag301
ag114
ag29
aS'82233873'
p1468
ag313
asg82
g490
sg83
(ischedule
Group
p1469
(dp1470
g8
g1466
sg88
S'Zoeken sturen en bewegen1'
p1471
sbsg84
(iread_data
Room
p1472
(dp1473
g82
g121
sg88
g122
sbsg90
g190
sg92
g191
sg88
g498
sbaa(lp1474
(ischedule
Activity
p1475
(dp1476
g8
g1146
sg82
I1000
sg83
Nsg84
(iread_data
Room
p1477
(dp1478
g82
g87
sg88
g89
sbsg90
g91
sg92
I0
sg88
g125
sba(ischedule
Activity
p1479
(dp1480
g8
(lp1481
g10
ag20
ag38
ag54
ag56
ag58
ag64
ag72
ag67
ag63
ag43
ag13
ag35
ag37
ag68
ag71
ag55
ag62
ag28
ag77
ag44
ag22
ag40
ag41
ag53
ag25
ag61
ag45
ag29
ag19
ag75
ag18
ag21
ag32
ag47
ag16
ag15
ag17
ag59
ag14
ag69
ag33
ag60
ag78
ag36
ag65
ag51
ag74
ag42
ag79
ag30
ag66
ag48
ag49
ag34
asg82
g966
sg83
(ischedule
Group
p1482
(dp1483
g8
g1481
sg88
S'Databases 21'
p1484
sbsg84
(iread_data
Room
p1485
(dp1486
g82
g205
sg88
g206
sbsg90
g123
sg92
g191
sg88
g93
sba(ischedule
Activity
p1487
(dp1488
g8
g1066
sg82
g530
sg83
g1068
sg84
(iread_data
Room
p1489
(dp1490
g82
g169
sg88
g170
sbsg90
g123
sg92
g207
sg88
g171
sba(ischedule
Activity
p1491
(dp1492
g8
g1115
sg82
g1272
sg83
g1116
sg84
(iread_data
Room
p1493
(dp1494
g82
g121
sg88
g122
sbsg90
g123
sg92
g124
sg88
g192
sba(ischedule
Activity
p1495
(dp1496
g8
g766
sg82
I1000
sg83
Nsg84
(iread_data
Room
p1497
(dp1498
g82
g399
sg88
g400
sbsg90
g91
sg92
I0
sg88
g374
sba(ischedule
Activity
p1499
(dp1500
g8
g174
sg82
g1272
sg83
g183
sg84
(iread_data
Room
p1501
(dp1502
g82
g510
sg88
g511
sbsg90
g123
sg92
g191
sg88
g192
sbaa(lp1503
(ischedule
Activity
p1504
(dp1505
g8
(lp1506
g223
ag147
ag71
ag819
ag814
ag329
ag326
ag395
ag138
ag811
ag502
ag257
ag812
ag816
ag729
ag458
ag565
ag815
asg82
g1292
sg83
(ischedule
Group
p1507
(dp1508
g8
g1506
sg88
S'Heuristieken 22'
p1509
sbsg84
(iread_data
Room
p1510
(dp1511
g82
g121
sg88
g122
sbsg90
g123
sg92
g124
sg88
g823
sba(ischedule
Activity
p1512
(dp1513
g8
g276
sg82
I1000
sg83
Nsg84
g944
sg90
g91
sg92
I0
sg88
g319
sba(ischedule
Activity
p1514
(dp1515
g8
g1379
sg82
I1000
sg83
Nsg84
(iread_data
Room
p1516
(dp1517
g82
g205
sg88
g206
sbsg90
g91
sg92
I0
sg88
g1393
sba(ischedule
Activity
p1518
(dp1519
g8
g538
sg82
g1067
sg83
g539
sg84
(iread_data
Room
p1520
(dp1521
g82
g270
sg88
g271
sbsg90
g190
sg92
g124
sg88
g171
sba(ischedule
Activity
p1522
(dp1523
g8
g96
sg82
g1058
sg83
g116
sg84
(iread_data
Room
p1524
(dp1525
g82
g245
sg88
g246
sbsg90
g190
sg92
g124
sg88
g125
sba(ischedule
Activity
p1526
(dp1527
g8
g1123
sg82
g1038
sg83
g1127
sg84
(iread_data
Room
p1528
(dp1529
g82
g169
sg88
g170
sbsg90
g123
sg92
g124
sg88
g1044
sba(ischedule
Activity
p1530
(dp1531
g8
g360
sg82
g1002
sg83
g367
sg84
(iread_data
Room
p1532
(dp1533
g82
g188
sg88
g189
sbsg90
g123
sg92
g191
sg88
g374
sbaaa(lp1534
(lp1535
a(lp1536
a(lp1537
a(lp1538
a(lp1539
aasS'timeslot_dict'
p1540
(dp1541
I0
S'9:00-11:00'
p1542
sI1
S'11:00-13:00'
p1543
sI2
S'13:00-15:00'
p1544
sI3
S'15:00-17:00'
p1545
sI4
S'17:00-19:00'
p1546
ssS'day_dict'
p1547
(dp1548
I0
S'Monday'
p1549
sI1
S'Tuesday'
p1550
sI2
S'Wednesday'
p1551
sI3
S'Thursday'
p1552
sI4
S'Friday'
p1553
ssb.