(ischedule
Schedule
p0
(dp1
S'timetable'
p2
(lp3
(lp4
(lp5
(ischedule
Activity
p6
(dp7
S'participants'
p8
(lp9
S'36785409'
p10
aS'23547619'
p11
aS'75664412'
p12
aS'76487754'
p13
aS'68315599'
p14
aS'43680781'
p15
aS'77636749'
p16
aS'37110913'
p17
aS'4697362'
p18
aS'40434933'
p19
aS'58565406'
p20
aS'32204977'
p21
aS'10149535'
p22
aS'14383795'
p23
aS'77264363'
p24
aS'22323043'
p25
aS'12430748'
p26
aS'92496780'
p27
aS'14309255'
p28
aS'12077419'
p29
aS'7106649'
p30
aS'11996292'
p31
aS'89338938'
p32
aS'47982619'
p33
aS'69086548'
p34
aS'26406342'
p35
aS'70336464'
p36
aS'41578612'
p37
aS'85335143'
p38
aS'97371272'
p39
aS'93041523'
p40
aS'9332762'
p41
aS'75521763'
p42
aS'21192048'
p43
aS'31194811'
p44
aS'6249823'
p45
aS'44901052'
p46
aS'48308205'
p47
asS'capacity'
p48
I1000
sS'group'
p49
NsS'room'
p50
(iread_data
Room
p51
(dp52
g48
S'41'
p53
sS'name'
p54
S'A1.04'
p55
sbsS'ttype'
p56
S'lectures'
p57
sS'group_id'
p58
I0
sg54
S'Technology for games'
p59
sba(ischedule
Activity
p60
(dp61
g8
(lp62
S'24891081'
p63
aS'14303208'
p64
aS'53512831'
p65
aS'57086672'
p66
aS'76648468'
p67
aS'89180944'
p68
aS'69459473'
p69
aS'3474870'
p70
aS'1137946'
p71
aS'53202517'
p72
aS'72577292'
p73
aS'16333449'
p74
aS'33877725'
p75
aS'77392404'
p76
aS'76123484'
p77
aS'43902015'
p78
aS'22288615'
p79
aS'78243495'
p80
aS'72895450'
p81
aS'66034145'
p82
aS'67073567'
p83
aS'64228258'
p84
aS'61443567'
p85
asg48
S'20'
p86
sg49
(ischedule
Group
p87
(dp88
g8
g62
sg54
S'Webprogrammeren en databases2'
p89
sbsg50
(iread_data
Room
p90
(dp91
g48
S'22'
p92
sg54
S'A1.06'
p93
sbsg56
S'tutorials'
p94
sg58
S'2'
p95
sg54
S'Webprogrammeren en databases'
p96
sba(ischedule
Activity
p97
(dp98
g8
(lp99
S'55412918'
p100
aS'34243356'
p101
aS'91196968'
p102
aS'42196732'
p103
aS'77896638'
p104
aS'94686490'
p105
aS'80998260'
p106
aS'14591033'
p107
aS'83210352'
p108
aS'34588570'
p109
aS'79617364'
p110
aS'35330349'
p111
aS'93566383'
p112
aS'81218347'
p113
aS'55474917'
p114
aS'31416266'
p115
aS'90743504'
p116
aS'96118484'
p117
aS'79937969'
p118
aS'38499176'
p119
aS'42778953'
p120
aS'37399898'
p121
ag70
aS'75005528'
p122
ag37
aS'16097870'
p123
ag74
aS'94955328'
p124
aS'36508571'
p125
aS'80709893'
p126
aS'54074680'
p127
aS'87758823'
p128
aS'81385263'
p129
aS'32595335'
p130
aS'4921119'
p131
aS'71839156'
p132
ag47
aS'36527838'
p133
aS'5517869'
p134
aS'62872965'
p135
aS'56872729'
p136
aS'21311067'
p137
ag22
aS'61060652'
p138
aS'42115591'
p139
aS'58866007'
p140
aS'23565001'
p141
aS'26172512'
p142
aS'52311353'
p143
aS'68409833'
p144
aS'66570705'
p145
aS'74182182'
p146
aS'670011'
p147
aS'16011419'
p148
asg48
I1000
sg49
Nsg50
(iread_data
Room
p149
(dp150
g48
S'117'
p151
sg54
S'C0.110'
p152
sbsg56
g57
sg58
I0
sg54
S'Lineaire Algebra'
p153
sba(ischedule
Activity
p154
(dp155
g8
(lp156
S'29526540'
p157
aS'72796858'
p158
aS'90474003'
p159
aS'29640619'
p160
aS'57467488'
p161
aS'58332004'
p162
aS'56749879'
p163
aS'25077484'
p164
aS'64296965'
p165
aS'73823548'
p166
aS'5526560'
p167
aS'96054456'
p168
aS'78821918'
p169
aS'5085194'
p170
aS'72456780'
p171
aS'77960666'
p172
aS'15187217'
p173
aS'14816774'
p174
aS'64947290'
p175
aS'49631542'
p176
aS'62736669'
p177
aS'83869542'
p178
aS'17222374'
p179
ag105
ag136
aS'26207525'
p180
aS'37701751'
p181
aS'60352393'
p182
ag134
aS'56191333'
p183
aS'46989508'
p184
aS'82689818'
p185
aS'88752563'
p186
aS'40141996'
p187
aS'27123462'
p188
aS'4529208'
p189
aS'56121590'
p190
asg48
S'40'
p191
sg49
(ischedule
Group
p192
(dp193
g8
g156
sg54
S'Databases 21'
p194
sbsg50
(iread_data
Room
p195
(dp196
g48
S'56'
p197
sg54
S'A1.10'
p198
sbsg56
g94
sg58
S'1'
p199
sg54
S'Databases 2'
p200
sba(ischedule
Activity
p201
(dp202
g8
(lp203
g10
aS'3685034'
p204
aS'51415617'
p205
aS'27950803'
p206
aS'13658563'
p207
aS'42406214'
p208
aS'38296757'
p209
ag159
aS'99975346'
p210
aS'6913074'
p211
aS'4709948'
p212
asg48
S'20'
p213
sg49
(ischedule
Group
p214
(dp215
g8
g203
sg54
S'Reflectie op de digitale cultuur1'
p216
sbsg50
(iread_data
Room
p217
(dp218
g48
S'48'
p219
sg54
S'B0.201'
p220
sbsg56
g94
sg58
g199
sg54
S'Reflectie op de digitale cultuur'
p221
sba(ischedule
Activity
p222
(dp223
g8
(lp224
S'27298319'
p225
aS'88627897'
p226
aS'62356458'
p227
aS'52552718'
p228
aS'39459642'
p229
asg48
S'10'
p230
sg49
(ischedule
Group
p231
(dp232
g8
g224
sg54
S'Autonomous Agents 23'
p233
sbsg50
(iread_data
Room
p234
(dp235
g48
S'20'
p236
sg54
S'A1.08'
p237
sbsg56
S'labs'
p238
sg58
S'3'
p239
sg54
S'Autonomous Agents 2'
p240
sba(ischedule
Activity
p241
(dp242
g8
(lp243
S'36748818'
p244
aS'23983476'
p245
aS'13116738'
p246
ag14
ag16
aS'8557857'
p247
ag42
aS'19958553'
p248
aS'29718115'
p249
aS'23257088'
p250
aS'75585647'
p251
aS'17496687'
p252
ag162
ag21
ag207
aS'70878567'
p253
aS'18266644'
p254
ag46
aS'62701040'
p255
aS'92977271'
p256
asg48
S'15'
p257
sg49
(ischedule
Group
p258
(dp259
g8
g243
sg54
S'Informatie- en organsatieontwerp2'
p260
sbsg50
(iread_data
Room
p261
(dp262
g48
S'60'
p263
sg54
S'C1.112'
p264
sbsg56
g94
sg58
g95
sg54
S'Informatie- en organsatieontwerp'
p265
sbaa(lp266
(ischedule
Activity
p267
(dp268
g8
(lp269
S'15249775'
p270
aS'51566595'
p271
aS'31897288'
p272
ag147
aS'34765676'
p273
aS'82968410'
p274
ag80
aS'35315956'
p275
aS'63634350'
p276
aS'58736785'
p277
aS'52304977'
p278
aS'33760909'
p279
aS'81022997'
p280
ag30
aS'22731474'
p281
ag178
aS'87602030'
p282
aS'85236626'
p283
aS'5976174'
p284
aS'1886996'
p285
aS'58040377'
p286
asg48
S'20'
p287
sg49
(ischedule
Group
p288
(dp289
g8
g269
sg54
S'Heuristieken 22'
p290
sbsg50
(iread_data
Room
p291
(dp292
g48
g53
sg54
g55
sbsg56
g94
sg58
g95
sg54
S'Heuristieken 2'
p293
sba(ischedule
Activity
p294
(dp295
g8
(lp296
S'94687383'
p297
aS'79167252'
p298
ag47
aS'54772132'
p299
ag14
aS'86291592'
p300
ag206
ag81
aS'34872117'
p301
aS'7957843'
p302
aS'6723948'
p303
aS'37770881'
p304
aS'10792879'
p305
aS'79033175'
p306
aS'88636924'
p307
aS'73236988'
p308
aS'95631564'
p309
aS'86988337'
p310
aS'92665222'
p311
aS'15911353'
p312
aS'58522654'
p313
ag28
aS'43689934'
p314
aS'48503689'
p315
aS'9067939'
p316
aS'95007221'
p317
ag129
aS'76661016'
p318
aS'40791377'
p319
aS'65960683'
p320
aS'60312776'
p321
aS'65852230'
p322
aS'13284244'
p323
ag158
ag12
aS'66701209'
p324
aS'24613625'
p325
aS'75599734'
p326
aS'34110913'
p327
aS'98105190'
p328
ag104
ag120
aS'5595824'
p329
ag44
ag101
aS'13911001'
p330
aS'80135353'
p331
aS'2317551'
p332
aS'11915563'
p333
ag72
ag184
aS'2079771'
p334
aS'30658799'
p335
aS'84524083'
p336
aS'88855695'
p337
aS'83266686'
p338
aS'3407554'
p339
aS'75759231'
p340
ag29
aS'1766560'
p341
aS'44391517'
p342
aS'5368702'
p343
aS'76802764'
p344
aS'49683101'
p345
aS'11741347'
p346
ag229
aS'27187154'
p347
aS'8464817'
p348
ag186
asg48
I1000
sg49
Nsg50
(iread_data
Room
p349
(dp350
g48
g263
sg54
g264
sbsg56
g57
sg58
I0
sg54
S'Compilerbouw'
p351
sba(ischedule
Activity
p352
(dp353
g8
(lp354
S'25106480'
p355
aS'50143947'
p356
aS'31103066'
p357
aS'78443067'
p358
ag309
ag108
aS'58074656'
p359
aS'14671406'
p360
aS'45915482'
p361
aS'4568018'
p362
aS'1048485'
p363
aS'3727435'
p364
ag160
ag80
ag326
aS'21095566'
p365
aS'22871048'
p366
ag114
aS'41153310'
p367
aS'26260141'
p368
ag143
aS'37830626'
p369
asg48
S'40'
p370
sg49
(ischedule
Group
p371
(dp372
g8
g354
sg54
S'Software engineering2'
p373
sbsg50
(iread_data
Room
p374
(dp375
g48
g236
sg54
g237
sbsg56
g238
sg58
g95
sg54
S'Software engineering'
p376
sba(ischedule
Activity
p377
(dp378
g8
(lp379
g345
aS'45556081'
p380
aS'43460038'
p381
aS'59289233'
p382
ag140
ag301
ag68
ag338
ag19
ag22
aS'72683344'
p383
aS'27925117'
p384
ag73
aS'20331158'
p385
aS'70015932'
p386
aS'23798155'
p387
ag249
ag185
aS'14138904'
p388
aS'13798030'
p389
aS'28618400'
p390
asg48
I1000
sg49
Nsg50
(iread_data
Room
p391
(dp392
g48
g151
sg54
g152
sbsg56
g57
sg58
I0
sg54
S'Architectuur en computerorganisatie'
p393
sba(ischedule
Activity
p394
(dp395
g8
(lp396
g128
aS'13534377'
p397
ag255
aS'28357474'
p398
ag380
aS'21964491'
p399
aS'34773179'
p400
aS'4783858'
p401
aS'42171678'
p402
ag134
ag111
aS'68601184'
p403
ag179
ag103
aS'29474737'
p404
asg48
S'20'
p405
sg49
(ischedule
Group
p406
(dp407
g8
g396
sg54
S'Collectieve Intelligentie3'
p408
sbsg50
(iread_data
Room
p409
(dp410
g48
g92
sg54
g93
sbsg56
g238
sg58
g239
sg54
S'Collectieve Intelligentie'
p411
sba(ischedule
Activity
p412
(dp413
g8
(lp414
g80
ag38
ag42
aS'51650744'
p415
asg48
S'20'
p416
sg49
(ischedule
Group
p417
(dp418
g8
g414
sg54
S'Moderne Databases3'
p419
sbsg50
(iread_data
Room
p420
(dp421
g48
g219
sg54
g220
sbsg56
g94
sg58
g239
sg54
S'Moderne Databases'
p422
sba(ischedule
Activity
p423
(dp424
g8
(lp425
g356
ag362
aS'11459236'
p426
ag23
ag21
aS'23215240'
p427
ag64
aS'41644639'
p428
aS'55103073'
p429
ag119
aS'57595888'
p430
aS'1695839'
p431
aS'535689'
p432
ag330
aS'51472074'
p433
aS'72665524'
p434
aS'51673172'
p435
aS'89985072'
p436
asg48
S'15'
p437
sg49
(ischedule
Group
p438
(dp439
g8
g425
sg54
S'Compilerbouw practicum2'
p440
sbsg50
(iread_data
Room
p441
(dp442
g48
g197
sg54
g198
sbsg56
g238
sg58
g95
sg54
S'Compilerbouw practicum'
p443
sbaa(lp444
(ischedule
Activity
p445
(dp446
g8
(lp447
S'49219163'
p448
ag335
aS'63111000'
p449
ag244
aS'75997788'
p450
aS'70072978'
p451
aS'58592894'
p452
ag402
ag15
ag212
ag346
aS'50184318'
p453
aS'84449005'
p454
ag28
aS'99283252'
p455
aS'27241113'
p456
ag330
aS'1181560'
p457
ag341
asg48
S'20'
p458
sg49
(ischedule
Group
p459
(dp460
g8
g447
sg54
S'Moderne Databases1'
p461
sbsg50
(iread_data
Room
p462
(dp463
g48
g92
sg54
g93
sbsg56
g238
sg58
g199
sg54
g422
sba(ischedule
Activity
p464
(dp465
g8
(lp466
g170
ag276
aS'99272880'
p467
aS'42297781'
p468
aS'91250534'
p469
aS'11068043'
p470
aS'5892092'
p471
aS'74361881'
p472
ag35
aS'53585410'
p473
ag132
aS'44151631'
p474
aS'25994016'
p475
ag339
aS'52715680'
p476
aS'82066165'
p477
aS'47260040'
p478
asg48
g437
sg49
(ischedule
Group
p479
(dp480
g8
g466
sg54
S'Compilerbouw practicum3'
p481
sbsg50
(iread_data
Room
p482
(dp483
g48
g151
sg54
g152
sbsg56
g238
sg58
g239
sg54
g443
sba(ischedule
Activity
p484
(dp485
g8
(lp486
S'66621166'
p487
ag338
aS'47462856'
p488
ag179
aS'59111489'
p489
aS'78544592'
p490
aS'77376714'
p491
aS'96082155'
p492
aS'3883025'
p493
aS'15051051'
p494
ag176
aS'24277163'
p495
ag14
aS'33776961'
p496
aS'18144425'
p497
aS'58699305'
p498
aS'27916487'
p499
aS'13218321'
p500
ag31
aS'64600457'
p501
ag68
aS'48198668'
p502
ag162
ag134
ag169
aS'83415514'
p503
aS'46570285'
p504
ag133
aS'41489515'
p505
ag157
ag358
asg48
g458
sg49
(ischedule
Group
p506
(dp507
g8
g486
sg54
S'Moderne Databases2'
p508
sbsg50
(iread_data
Room
p509
(dp510
g48
g53
sg54
g55
sbsg56
g238
sg58
g95
sg54
g422
sba(ischedule
Activity
p511
(dp512
g8
(lp513
S'96453361'
p514
ag163
aS'21029457'
p515
ag325
ag168
aS'59544049'
p516
aS'56815156'
p517
aS'20883994'
p518
ag313
aS'66120270'
p519
ag110
asg48
S'20'
p520
sg49
(ischedule
Group
p521
(dp522
g8
g513
sg54
S'Bioinformatica1'
p523
sbsg50
(iread_data
Room
p524
(dp525
g48
g236
sg54
g237
sbsg56
g94
sg58
g199
sg54
S'Bioinformatica'
p526
sba(ischedule
Activity
p527
(dp528
g8
(lp529
S'48678993'
p530
aS'94467156'
p531
aS'88737765'
p532
ag206
ag428
ag355
ag164
aS'55480737'
p533
ag384
asg48
S'15'
p534
sg49
(ischedule
Group
p535
(dp536
g8
g529
sg54
S'Project Genetic Algorithms2'
p537
sbsg50
(iread_data
Room
p538
(dp539
g48
g263
sg54
g264
sbsg56
g238
sg58
g95
sg54
S'Project Genetic Algorithms'
p540
sba(ischedule
Activity
p541
(dp542
g8
(lp543
S'97136582'
p544
ag182
aS'70844780'
p545
aS'25330192'
p546
ag190
aS'9731271'
p547
ag46
aS'30195935'
p548
ag119
aS'21677389'
p549
ag185
ag129
ag161
aS'12170832'
p550
asg48
S'20'
p551
sg49
(ischedule
Group
p552
(dp553
g8
g543
sg54
S'Netwerken en systeembeveiliging1'
p554
sbsg50
(iread_data
Room
p555
(dp556
g48
g197
sg54
g198
sbsg56
g238
sg58
g199
sg54
S'Netwerken en systeembeveiliging'
p557
sba(ischedule
Activity
p558
(dp559
g8
(lp560
S'64418623'
p561
aS'65675896'
p562
aS'88596522'
p563
aS'1665980'
p564
ag388
asg48
g437
sg49
(ischedule
Group
p565
(dp566
g8
g560
sg54
S'Compilerbouw practicum1'
p567
sbsg50
(iread_data
Room
p568
(dp569
g48
g219
sg54
g220
sbsg56
g238
sg58
g199
sg54
g443
sbaa(lp570
(ischedule
Activity
p571
(dp572
g8
(lp573
g108
aS'44671041'
p574
ag362
aS'96554914'
p575
ag366
aS'27582862'
p576
ag381
ag369
aS'3233378'
p577
ag321
aS'40343779'
p578
aS'65408517'
p579
ag228
aS'44868097'
p580
ag401
ag75
aS'41527759'
p581
ag308
ag227
aS'14072826'
p582
aS'4546613'
p583
ag364
ag356
ag386
ag491
ag358
ag25
aS'65318664'
p584
aS'54026378'
p585
ag516
aS'37744525'
p586
ag144
ag359
ag68
aS'88176729'
p587
ag357
ag114
ag455
ag309
ag20
ag326
ag367
ag32
aS'48601268'
p588
ag355
ag143
ag360
aS'31247305'
p589
aS'51593625'
p590
aS'82872148'
p591
ag333
ag398
ag138
aS'84110134'
p592
ag361
ag476
ag436
ag284
aS'31633723'
p593
aS'13718298'
p594
ag206
ag368
aS'73302736'
p595
ag160
aS'48357272'
p596
ag28
aS'9287708'
p597
aS'62105897'
p598
ag80
ag139
ag531
ag365
ag470
ag363
ag126
asg48
I1000
sg49
Nsg50
(iread_data
Room
p599
(dp600
g48
g151
sg54
g152
sbsg56
g57
sg58
I0
sg54
g376
sba(ischedule
Activity
p601
(dp602
g8
g243
sg48
S'15'
p603
sg49
g258
sg50
(iread_data
Room
p604
(dp605
g48
g236
sg54
g237
sbsg56
g238
sg58
g95
sg54
g265
sba(ischedule
Activity
p606
(dp607
g8
(lp608
g74
ag85
aS'39230359'
p609
ag76
ag381
ag66
aS'10698627'
p610
ag45
ag73
aS'5615125'
p611
aS'49908313'
p612
ag75
ag79
ag67
ag78
ag64
ag72
aS'20618153'
p613
aS'28358060'
p614
ag81
ag80
ag63
aS'14847953'
p615
ag65
ag82
aS'76903244'
p616
ag68
ag69
ag71
aS'94930277'
p617
aS'2416751'
p618
aS'41790793'
p619
aS'17092717'
p620
ag77
ag70
ag84
aS'27064249'
p621
ag19
ag83
asg48
I1000
sg49
Nsg50
(iread_data
Room
p622
(dp623
g48
g219
sg54
g220
sbsg56
g57
sg58
I0
sg54
g96
sba(ischedule
Activity
p624
(dp625
g8
(lp626
g123
ag585
asg48
g230
sg49
(ischedule
Group
p627
(dp628
g8
g626
sg54
S'Autonomous Agents 22'
p629
sbsg50
(iread_data
Room
p630
(dp631
g48
g53
sg54
g55
sbsg56
g238
sg58
g95
sg54
g240
sba(ischedule
Activity
p632
(dp633
g8
g513
sg48
S'20'
p634
sg49
g521
sg50
(iread_data
Room
p635
(dp636
g48
g92
sg54
g93
sbsg56
g238
sg58
g199
sg54
g526
sba(ischedule
Activity
p637
(dp638
g8
(lp639
g311
aS'62613937'
p640
asg48
S'10'
p641
sg49
(ischedule
Group
p642
(dp643
g8
g639
sg54
S'Advanced Heuristics1'
p644
sbsg50
(iread_data
Room
p645
(dp646
g48
g263
sg54
g264
sbsg56
g238
sg58
g199
sg54
S'Advanced Heuristics'
p647
sbaa(lp648
(ischedule
Activity
p649
(dp650
g8
(lp651
g310
ag12
ag307
ag120
ag298
ag29
ag229
ag308
ag297
ag303
ag345
ag315
ag129
ag309
ag344
ag186
ag329
ag300
ag324
ag311
ag313
ag312
ag317
ag72
ag323
ag320
ag341
ag335
ag158
ag81
ag304
ag336
ag206
ag343
ag326
ag318
ag327
ag340
ag104
ag14
ag334
ag306
ag316
ag346
ag348
ag332
ag325
ag299
ag331
ag321
ag347
ag339
ag328
ag342
ag101
asg48
S'40'
p652
sg49
(ischedule
Group
p653
(dp654
g8
g651
sg54
S'Compilerbouw2'
p655
sbsg50
(iread_data
Room
p656
(dp657
g48
g151
sg54
g152
sbsg56
g94
sg58
g95
sg54
g351
sba(ischedule
Activity
p658
(dp659
g8
(lp660
g81
ag564
aS'36903574'
p661
aS'41585485'
p662
ag78
ag284
aS'15902055'
p663
ag491
ag175
ag473
ag514
ag70
aS'44828429'
p664
aS'46701583'
p665
ag476
aS'3707829'
p666
ag578
ag271
ag225
ag273
aS'67817269'
p667
ag185
aS'19540225'
p668
aS'66433883'
p669
ag563
ag356
ag245
aS'91527663'
p670
asg48
S'25'
p671
sg49
(ischedule
Group
p672
(dp673
g8
g660
sg54
S'Algoritmen en complexiteit1'
p674
sbsg50
(iread_data
Room
p675
(dp676
g48
g53
sg54
g55
sbsg56
g238
sg58
g199
sg54
S'Algoritmen en complexiteit'
p677
sba(ischedule
Activity
p678
(dp679
g8
(lp680
g190
ag174
ag131
aS'51542218'
p681
ag179
ag186
ag250
ag452
ag166
ag187
ag181
ag161
ag19
ag167
aS'43027916'
p682
ag157
aS'58083680'
p683
ag103
ag147
ag134
ag184
aS'59397895'
p684
ag77
aS'54540997'
p685
ag173
ag228
aS'23658570'
p686
ag170
ag271
ag175
aS'247918'
p687
ag122
ag178
ag301
ag168
ag182
ag169
ag177
ag35
ag495
aS'86180471'
p688
ag180
ag159
ag188
ag620
ag310
aS'12091019'
p689
ag31
ag176
ag451
ag160
aS'47477884'
p690
ag229
ag183
ag136
ag172
aS'13132925'
p691
aS'47932106'
p692
ag171
ag163
ag165
aS'13092455'
p693
aS'3168419'
p694
ag78
ag189
ag104
ag162
ag670
ag164
ag158
ag185
ag105
asg48
I1000
sg49
Nsg50
(iread_data
Room
p695
(dp696
g48
g263
sg54
g264
sbsg56
g57
sg58
I0
sg54
g200
sba(ischedule
Activity
p697
(dp698
g8
(lp699
g246
aS'13996448'
p700
ag253
asg48
S'10'
p701
sg49
(ischedule
Group
p702
(dp703
g8
g699
sg54
S'Data Mining3'
p704
sbsg50
(iread_data
Room
p705
(dp706
g48
g92
sg54
g93
sbsg56
g94
sg58
g239
sg54
S'Data Mining'
p707
sba(ischedule
Activity
p708
(dp709
g8
g608
sg48
I1000
sg49
Nsg50
(iread_data
Room
p710
(dp711
g48
g197
sg54
g198
sbsg56
g57
sg58
I0
sg54
g96
sba(ischedule
Activity
p712
(dp713
g8
g396
sg48
S'20'
p714
sg49
g406
sg50
(iread_data
Room
p715
(dp716
g48
g219
sg54
g220
sbsg56
g94
sg58
g239
sg54
g411
sba(ischedule
Activity
p717
(dp718
g8
(lp719
g25
aS'99453514'
p720
aS'74131924'
p721
aS'66122625'
p722
aS'98780382'
p723
aS'19337738'
p724
aS'87900893'
p725
ag280
aS'59753700'
p726
ag271
ag102
ag586
aS'17823206'
p727
aS'45414528'
p728
aS'93023961'
p729
asg48
S'10'
p730
sg49
(ischedule
Group
p731
(dp732
g8
g719
sg54
S'Data Mining1'
p733
sbsg50
(iread_data
Room
p734
(dp735
g48
g236
sg54
g237
sbsg56
g238
sg58
g199
sg54
g707
sbaaa(lp736
(lp737
(ischedule
Activity
p738
(dp739
g8
(lp740
g582
ag595
ag598
ag381
ag596
ag578
ag25
ag583
ag68
ag227
ag75
ag588
ag574
ag333
ag579
ag590
ag139
ag593
ag20
ag592
ag401
ag587
ag308
ag126
ag228
ag584
ag138
ag516
ag284
ag436
ag32
ag398
ag470
ag491
ag531
ag575
ag28
ag589
ag321
ag144
ag585
ag206
ag594
ag577
ag597
ag476
ag455
ag591
ag581
ag576
ag586
ag580
ag386
asg48
g370
sg49
(ischedule
Group
p741
(dp742
g8
g740
sg54
S'Software engineering1'
p743
sbsg50
(iread_data
Room
p744
(dp745
g48
g219
sg54
g220
sbsg56
g238
sg58
g199
sg54
g376
sba(ischedule
Activity
p746
(dp747
g8
g699
sg48
g730
sg49
g702
sg50
(iread_data
Room
p748
(dp749
g48
g53
sg54
g55
sbsg56
g238
sg58
g239
sg54
g707
sba(ischedule
Activity
p750
(dp751
g8
(lp752
S'78735049'
p753
ag187
aS'75446434'
p754
ag501
aS'97135019'
p755
ag347
ag305
aS'32705005'
p756
asg48
S'40'
p757
sg49
(ischedule
Group
p758
(dp759
g8
g752
sg54
S'Calculus 22'
p760
sbsg50
(iread_data
Room
p761
(dp762
g48
g151
sg54
g152
sbsg56
g94
sg58
g95
sg54
S'Calculus 2'
p763
sba(ischedule
Activity
p764
(dp765
g8
(lp766
S'34806836'
p767
aS'61611295'
p768
ag46
ag144
ag17
ag366
ag134
ag158
ag271
ag135
ag333
aS'19858730'
p769
ag721
aS'70113753'
p770
ag125
asg48
S'10'
p771
sg49
(ischedule
Group
p772
(dp773
g8
g766
sg54
S'Autonomous Agents 21'
p774
sbsg50
(iread_data
Room
p775
(dp776
g48
g236
sg54
g237
sbsg56
g94
sg58
g199
sg54
g240
sba(ischedule
Activity
p777
(dp778
g8
(lp779
g336
ag384
aS'72652638'
p780
ag210
ag66
ag123
ag85
aS'81200278'
p781
ag682
aS'5739011'
p782
ag530
asg48
g287
sg49
(ischedule
Group
p783
(dp784
g8
g779
sg54
S'Heuristieken 21'
p785
sbsg50
(iread_data
Room
p786
(dp787
g48
g92
sg54
g93
sbsg56
g94
sg58
g199
sg54
g293
sba(ischedule
Activity
p788
(dp789
g8
(lp790
g111
ag85
ag380
ag104
ag255
ag588
ag402
aS'54310617'
p791
ag41
ag304
ag400
ag755
ag495
aS'53107172'
p792
ag693
aS'51741554'
p793
aS'96104167'
p794
ag404
ag185
aS'46052388'
p795
ag77
ag134
ag453
aS'77240949'
p796
ag321
ag399
ag42
ag120
ag577
ag128
ag320
ag313
ag401
aS'22699561'
p797
ag179
ag430
ag564
aS'73980360'
p798
ag682
aS'64393888'
p799
ag160
ag11
ag663
ag73
ag398
ag84
ag115
aS'17575088'
p800
aS'1075391'
p801
ag355
aS'1696500'
p802
ag397
aS'7308727'
p803
ag103
ag403
ag300
ag35
aS'86000192'
p804
ag356
ag165
ag279
asg48
I1000
sg49
Nsg50
(iread_data
Room
p805
(dp806
g48
g197
sg54
g198
sbsg56
g57
sg58
I0
sg54
g411
sba(ischedule
Activity
p807
(dp808
g8
(lp809
g690
ag545
ag383
ag390
aS'40633534'
p810
ag615
ag73
ag311
ag182
aS'78136904'
p811
ag285
ag11
aS'39429093'
p812
aS'86807027'
p813
ag450
ag434
ag640
ag694
ag621
ag518
asg48
I1000
sg49
Nsg50
(iread_data
Room
p814
(dp815
g48
g263
sg54
g264
sbsg56
g57
sg58
I0
sg54
g647
sbaa(lp816
(ischedule
Activity
p817
(dp818
g8
(lp819
g17
aS'68360259'
p820
ag781
ag399
ag544
ag356
aS'87314964'
p821
ag546
ag143
asg48
g730
sg49
(ischedule
Group
p822
(dp823
g8
g819
sg54
S'Data Mining2'
p824
sbsg50
(iread_data
Room
p825
(dp826
g48
g236
sg54
g237
sbsg56
g238
sg58
g95
sg54
g707
sba(ischedule
Activity
p827
(dp828
g8
(lp829
g42
ag14
ag452
ag402
ag133
ag499
ag493
ag498
ag502
ag80
ag335
ag451
ag68
ag162
ag346
ag501
ag503
ag28
ag176
ag338
ag358
ag450
ag487
ag456
ag134
ag330
ag494
ag495
ag492
ag500
ag157
ag449
ag454
ag496
ag489
ag490
ag457
ag497
ag179
ag488
ag31
ag505
ag504
ag448
ag169
ag212
ag38
ag341
ag455
ag453
ag491
ag244
ag415
ag15
asg48
I1000
sg49
Nsg50
(iread_data
Room
p830
(dp831
g48
g263
sg54
g264
sbsg56
g57
sg58
I0
sg54
g422
sba(ischedule
Activity
p832
(dp833
g8
(lp834
g121
aS'38179241'
p835
ag781
aS'76924297'
p836
aS'2550487'
p837
ag562
ag664
aS'69634191'
p838
ag273
aS'19214659'
p839
ag129
ag583
ag549
aS'28055464'
p840
ag11
ag112
ag343
ag82
aS'81155296'
p841
ag181
aS'20374340'
p842
ag615
ag318
ag666
aS'64768422'
p843
asg48
I1000
sg49
Nsg50
(iread_data
Room
p844
(dp845
g48
g53
sg54
g55
sbsg56
g57
sg58
I0
sg54
S'Interactie-ontwerp'
p846
sba(ischedule
Activity
p847
(dp848
g8
(lp849
g121
aS'20239127'
p850
ag205
ag454
ag206
ag212
aS'27370083'
p851
ag209
aS'87830198'
p852
ag211
ag310
ag159
aS'54569540'
p853
aS'36213792'
p854
aS'27805666'
p855
ag17
ag594
ag366
ag207
ag37
aS'5298748'
p856
aS'51052738'
p857
aS'32044893'
p858
ag210
aS'49922855'
p859
ag204
ag336
ag545
ag182
ag66
ag720
aS'82390428'
p860
ag726
aS'92778619'
p861
aS'68286356'
p862
ag496
ag575
ag495
ag693
ag76
aS'20095994'
p863
ag10
ag811
ag208
ag172
ag476
aS'22826928'
p864
aS'60661905'
p865
aS'61518436'
p866
ag15
aS'70193386'
p867
asg48
I1000
sg49
Nsg50
(iread_data
Room
p868
(dp869
g48
g151
sg54
g152
sbsg56
g57
sg58
I0
sg54
g221
sba(ischedule
Activity
p870
(dp871
g8
(lp872
g125
ag144
ag225
ag123
ag134
ag770
ag585
ag228
ag721
ag767
ag46
ag226
ag229
ag227
ag768
ag271
ag769
ag333
ag158
ag366
ag17
ag135
asg48
I1000
sg49
Nsg50
(iread_data
Room
p873
(dp874
g48
g219
sg54
g220
sbsg56
g57
sg58
I0
sg54
g240
sba(ischedule
Activity
p875
(dp876
g8
(lp877
g41
ag120
ag798
ag115
ag803
ag791
ag300
ag160
ag185
ag279
ag77
ag792
ag35
ag693
ag800
ag799
ag85
ag313
ag797
ag795
ag320
ag356
ag321
ag73
ag796
ag165
ag577
ag495
ag564
asg48
g714
sg49
(ischedule
Group
p878
(dp879
g8
g877
sg54
S'Collectieve Intelligentie2'
p880
sbsg50
(iread_data
Room
p881
(dp882
g48
g197
sg54
g198
sbsg56
g94
sg58
g95
sg54
g411
sbaa(lp883
(ischedule
Activity
p884
(dp885
g8
(lp886
g147
ag175
ag467
aS'63096281'
p887
ag669
ag297
ag163
aS'10702778'
p888
ag245
aS'79879876'
p889
ag427
ag124
ag700
aS'88597745'
p890
ag119
aS'28943658'
p891
ag399
aS'51791169'
p892
ag501
ag270
ag256
aS'85284256'
p893
ag33
ag403
ag663
aS'54395877'
p894
ag112
ag613
ag115
aS'39905995'
p895
aS'7386961'
p896
ag590
ag347
ag503
asg48
S'20'
p897
sg49
(ischedule
Group
p898
(dp899
g8
g886
sg54
S'Programmeren in Java 22'
p900
sbsg50
(iread_data
Room
p901
(dp902
g48
g197
sg54
g198
sbsg56
g238
sg58
g95
sg54
S'Programmeren in Java 2'
p903
sba(ischedule
Activity
p904
(dp905
g8
g62
sg48
S'20'
p906
sg49
g87
sg50
(iread_data
Room
p907
(dp908
g48
g219
sg54
g220
sbsg56
g238
sg58
g95
sg54
g96
sba(ischedule
Activity
p909
(dp910
g8
g9
sg48
I1000
sg49
Nsg50
(iread_data
Room
p911
(dp912
g48
g151
sg54
g152
sbsg56
g57
sg58
I0
sg54
g59
sba(ischedule
Activity
p913
(dp914
g8
(lp915
g426
asg48
g603
sg49
(ischedule
Group
p916
(dp917
g8
g915
sg54
S'Informatie- en organsatieontwerp1'
p918
sbsg50
(iread_data
Room
p919
(dp920
g48
g236
sg54
g237
sbsg56
g238
sg58
g199
sg54
g265
sba(ischedule
Activity
p921
(dp922
g8
(lp923
S'64246605'
p924
aS'123355'
p925
ag390
ag893
ag519
ag212
aS'63573738'
p926
aS'4353500'
p927
ag586
aS'70939718'
p928
aS'16912993'
p929
ag589
aS'59887191'
p930
ag183
asg48
g551
sg49
(ischedule
Group
p931
(dp932
g8
g923
sg54
S'Netwerken en systeembeveiliging2'
p933
sbsg50
(iread_data
Room
p934
(dp935
g48
g92
sg54
g93
sbsg56
g238
sg58
g95
sg54
g557
sba(ischedule
Activity
p936
(dp937
g8
g740
sg48
S'40'
p938
sg49
g741
sg50
(iread_data
Room
p939
(dp940
g48
g263
sg54
g264
sbsg56
g94
sg58
g199
sg54
g376
sba(ischedule
Activity
p941
(dp942
g8
(lp943
g169
aS'75680261'
p944
aS'8522855'
p945
ag144
ag688
ag400
ag475
ag282
ag37
ag167
aS'58253841'
p946
ag836
ag852
ag665
ag318
ag435
ag324
asg48
g534
sg49
(ischedule
Group
p947
(dp948
g8
g943
sg54
S'Project Genetic Algorithms3'
p949
sbsg50
(iread_data
Room
p950
(dp951
g48
g53
sg54
g55
sbsg56
g238
sg58
g239
sg54
g540
sbaa(lp952
(ischedule
Activity
p953
(dp954
g8
g790
sg48
I1000
sg49
Nsg50
(iread_data
Room
p955
(dp956
g48
g263
sg54
g264
sbsg56
g57
sg58
I0
sg54
g411
sba(ischedule
Activity
p957
(dp958
g8
g486
sg48
g416
sg49
g506
sg50
(iread_data
Room
p959
(dp960
g48
g219
sg54
g220
sbsg56
g94
sg58
g95
sg54
g422
sba(ischedule
Activity
p961
(dp962
g8
(lp963
g725
ag821
ag721
ag720
ag586
ag729
ag724
ag722
ag728
ag544
ag781
ag25
ag723
ag546
ag726
ag700
ag102
ag280
ag356
ag253
ag727
ag246
ag17
ag820
ag399
ag143
ag271
asg48
I1000
sg49
Nsg50
(iread_data
Room
p964
(dp965
g48
g53
sg54
g55
sbsg56
g57
sg58
I0
sg54
g707
sba(ischedule
Activity
p966
(dp967
g8
(lp968
g615
ag518
ag434
ag621
ag450
ag813
ag11
ag285
ag545
ag73
ag390
ag694
ag182
ag690
ag810
ag812
ag383
ag811
asg48
g641
sg49
(ischedule
Group
p969
(dp970
g8
g968
sg54
S'Advanced Heuristics2'
p971
sbsg50
(iread_data
Room
p972
(dp973
g48
g151
sg54
g152
sbsg56
g238
sg58
g95
sg54
g647
sba(ischedule
Activity
p974
(dp975
g8
g915
sg48
g257
sg49
g916
sg50
(iread_data
Room
p976
(dp977
g48
g92
sg54
g93
sbsg56
g94
sg58
g199
sg54
g265
sbaa(lp978
(ischedule
Activity
p979
(dp980
g8
(lp981
S'14941752'
p982
ag450
ag25
ag138
ag617
ag174
ag661
ag328
ag277
ag596
ag802
ag401
ag388
aS'59075181'
p983
ag132
ag256
ag31
ag17
aS'76393508'
p984
ag813
ag402
ag385
ag792
ag113
aS'87210640'
p985
ag722
ag46
ag207
ag272
ag927
ag362
aS'45660925'
p986
aS'53775014'
p987
ag107
ag366
aS'97417002'
p988
ag769
ag42
ag161
ag889
aS'20830477'
p989
aS'97019450'
p990
aS'83443653'
p991
ag163
asg48
I1000
sg49
Nsg50
(iread_data
Room
p992
(dp993
g48
g92
sg54
g93
sbsg56
g57
sg58
I0
sg54
S'Heuristieken 1'
p994
sba(ischedule
Activity
p995
(dp996
g8
(lp997
g853
ag858
ag495
ag575
asg48
g213
sg49
(ischedule
Group
p998
(dp999
g8
g997
sg54
S'Reflectie op de digitale cultuur2'
p1000
sbsg50
(iread_data
Room
p1001
(dp1002
g48
g263
sg54
g264
sbsg56
g94
sg58
g95
sg54
g221
sba(ischedule
Activity
p1003
(dp1004
g8
(lp1005
g21
ag46
ag251
ag246
ag254
ag162
ag207
ag255
ag249
ag16
ag247
ag250
ag245
ag248
ag252
ag14
ag42
ag244
ag426
ag253
ag256
asg48
I1000
sg49
Nsg50
(iread_data
Room
p1006
(dp1007
g48
g53
sg54
g55
sbsg56
g57
sg58
I0
sg54
g265
sba(ischedule
Activity
p1008
(dp1009
g8
(lp1010
g15
ag362
ag72
ag308
aS'33930505'
p1011
aS'77831658'
p1012
ag281
ag174
ag103
ag548
aS'30050930'
p1013
ag494
asg48
g520
sg49
(ischedule
Group
p1014
(dp1015
g8
g1010
sg54
S'Bioinformatica2'
p1016
sbsg50
(iread_data
Room
p1017
(dp1018
g48
g236
sg54
g237
sbsg56
g94
sg58
g95
sg54
g526
sba(ischedule
Activity
p1019
(dp1020
g8
(lp1021
g801
ag104
ag84
ag794
ag355
ag42
ag11
ag304
ag804
ag453
ag588
ag755
ag663
ag682
ag793
asg48
g405
sg49
(ischedule
Group
p1022
(dp1023
g8
g1021
sg54
S'Collectieve Intelligentie4'
p1024
sbsg50
(iread_data
Room
p1025
(dp1026
g48
g219
sg54
g220
sbsg56
g238
sg58
S'4'
p1027
sg54
g411
sba(ischedule
Activity
p1028
(dp1029
g8
(lp1030
g16
ag27
ag34
ag37
ag29
ag30
ag33
ag14
ag26
ag42
ag28
ag10
ag19
ag38
ag12
ag24
ag13
ag41
ag32
ag36
ag20
ag40
ag31
ag35
ag44
asg48
S'20'
p1031
sg49
(ischedule
Group
p1032
(dp1033
g8
g1030
sg54
S'Technology for games1'
p1034
sbsg50
(iread_data
Room
p1035
(dp1036
g48
g151
sg54
g152
sbsg56
g94
sg58
g199
sg54
g59
sba(ischedule
Activity
p1037
(dp1038
g8
g354
sg48
g938
sg49
g371
sg50
(iread_data
Room
p1039
(dp1040
g48
g197
sg54
g198
sbsg56
g94
sg58
g95
sg54
g376
sbaaa(lp1041
(lp1042
(ischedule
Activity
p1043
(dp1044
g8
(lp1045
S'65978354'
p1046
ag692
aS'14179347'
p1047
ag401
ag473
ag368
ag282
ag503
ag286
aS'56348773'
p1048
ag361
aS'19717077'
p1049
aS'6939933'
p1050
aS'82412626'
p1051
aS'75623387'
p1052
aS'23628642'
p1053
aS'77306636'
p1054
ag136
aS'59220392'
p1055
ag22
ag663
aS'11593163'
p1056
ag251
ag174
ag690
ag168
ag209
ag689
ag946
ag211
ag596
ag434
aS'3678531'
p1057
ag611
ag105
ag490
ag841
aS'58469172'
p1058
aS'6709529'
p1059
ag358
ag579
ag835
ag686
ag298
aS'53139134'
p1060
ag166
ag504
ag318
ag665
ag279
aS'31306819'
p1061
ag141
aS'34173695'
p1062
ag621
aS'33672995'
p1063
ag452
aS'28957789'
p1064
ag688
ag498
ag186
ag547
ag107
ag38
aS'79888156'
p1065
ag725
aS'55530367'
p1066
ag146
aS'24875739'
p1067
aS'61520025'
p1068
ag793
aS'10609762'
p1069
ag515
asg48
g757
sg49
(ischedule
Group
p1070
(dp1071
g8
g1045
sg54
S'Calculus 23'
p1072
sbsg50
(iread_data
Room
p1073
(dp1074
g48
g151
sg54
g152
sbsg56
g94
sg58
g239
sg54
g763
sba(ischedule
Activity
p1075
(dp1076
g8
(lp1077
S'37279234'
p1078
ag110
ag384
ag100
ag450
aS'56544130'
p1079
ag84
ag303
ag225
ag123
aS'93361408'
p1080
ag804
ag583
aS'62363761'
p1081
ag580
aS'80188025'
p1082
aS'22168693'
p1083
ag598
ag595
ag337
ag338
ag64
aS'72526473'
p1084
ag928
ag276
ag813
asg48
g757
sg49
(ischedule
Group
p1085
(dp1086
g8
g1077
sg54
S'Calculus 21'
p1087
sbsg50
(iread_data
Room
p1088
(dp1089
g48
g53
sg54
g55
sbsg56
g94
sg58
g199
sg54
g763
sba(ischedule
Activity
p1090
(dp1091
g8
(lp1092
S'19058315'
p1093
ag180
ag363
ag254
aS'14398123'
p1094
ag755
aS'72586808'
p1095
ag852
ag945
ag160
ag578
ag591
ag171
ag434
ag1011
ag781
ag432
asg48
g551
sg49
(ischedule
Group
p1096
(dp1097
g8
g1092
sg54
S'Netwerken en systeembeveiliging3'
p1098
sbsg50
(iread_data
Room
p1099
(dp1100
g48
g236
sg54
g237
sbsg56
g238
sg58
g239
sg54
g557
sba(ischedule
Activity
p1101
(dp1102
g8
g651
sg48
S'40'
p1103
sg49
g653
sg50
(iread_data
Room
p1104
(dp1105
g48
g197
sg54
g198
sbsg56
g238
sg58
g95
sg54
g351
sba(ischedule
Activity
p1106
(dp1107
g8
(lp1108
g596
ag983
ag163
ag617
ag277
ag813
ag990
ag385
ag25
ag722
ag366
ag792
ag107
ag132
ag388
ag402
ag986
ag987
ag450
ag256
ag174
ag927
ag982
ag31
asg48
S'25'
p1109
sg49
(ischedule
Group
p1110
(dp1111
g8
g1108
sg54
S'Heuristieken 11'
p1112
sbsg50
(iread_data
Room
p1113
(dp1114
g48
g263
sg54
g264
sbsg56
g94
sg58
g199
sg54
g994
sba(ischedule
Activity
p1115
(dp1116
g8
(lp1117
g207
ag984
ag989
ag988
ag328
ag17
ag362
ag138
ag161
ag401
ag889
ag769
ag113
ag272
ag802
ag42
ag46
ag991
ag985
ag661
asg48
g1109
sg49
(ischedule
Group
p1118
(dp1119
g8
g1117
sg54
S'Heuristieken 12'
p1120
sbsg50
(iread_data
Room
p1121
(dp1122
g48
g92
sg54
g93
sbsg56
g94
sg58
g95
sg54
g994
sbaa(lp1123
(ischedule
Activity
p1124
(dp1125
g8
(lp1126
g124
ag945
ag547
ag727
ag866
aS'72547110'
p1127
aS'91139627'
p1128
ag101
ag176
ag162
ag276
ag204
ag796
ag163
ag387
ag1064
ag811
ag165
ag756
aS'7492204'
p1129
ag385
aS'44940353'
p1130
aS'39919665'
p1131
ag488
ag518
ag581
ag168
ag146
aS'79858178'
p1132
ag753
ag39
aS'37498675'
p1133
ag516
ag1094
ag531
ag589
aS'65003379'
p1134
ag592
ag333
ag336
aS'51186803'
p1135
ag467
aS'34262212'
p1136
ag119
ag611
aS'63955238'
p1137
ag347
ag139
ag34
ag853
aS'79366078'
p1138
ag791
ag16
ag32
ag313
ag305
ag114
ag593
aS'63408522'
p1139
ag1058
ag504
ag681
ag990
ag850
ag662
aS'10872825'
p1140
aS'23391676'
p1141
ag609
aS'38329455'
p1142
ag254
ag836
ag360
aS'56988998'
p1143
ag107
aS'39659121'
p1144
ag102
ag983
ag343
aS'47605891'
p1145
ag113
aS'82688900'
p1146
ag661
ag1067
ag281
asg48
I1000
sg49
Nsg50
(iread_data
Room
p1147
(dp1148
g48
g151
sg54
g152
sbsg56
g57
sg58
I0
sg54
S'Kansrekenen 2'
p1149
sba(ischedule
Activity
p1150
(dp1151
g8
(lp1152
g690
ag686
ag35
ag451
ag31
ag104
ag682
ag684
ag310
ag693
ag122
ag271
ag250
ag103
ag495
ag670
ag19
ag687
ag452
ag147
ag228
ag131
ag681
ag301
ag229
ag689
ag685
ag694
ag683
ag620
ag77
ag688
ag691
ag692
ag78
asg48
g191
sg49
(ischedule
Group
p1153
(dp1154
g8
g1152
sg54
S'Databases 22'
p1155
sbsg50
(iread_data
Room
p1156
(dp1157
g48
g219
sg54
g220
sbsg56
g94
sg58
g95
sg54
g200
sba(ischedule
Activity
p1158
(dp1159
g8
(lp1160
g341
aS'40911986'
p1161
ag32
aS'90103047'
p1162
aS'19662602'
p1163
ag300
ag122
aS'34691309'
p1164
ag837
ag208
aS'32183908'
p1165
asg48
S'15'
p1166
sg49
(ischedule
Group
p1167
(dp1168
g8
g1160
sg54
S'Project Numerical Recipes1'
p1169
sbsg50
(iread_data
Room
p1170
(dp1171
g48
g236
sg54
g237
sbsg56
g238
sg58
g199
sg54
S'Project Numerical Recipes'
p1172
sba(ischedule
Activity
p1173
(dp1174
g8
g963
sg48
I1000
sg49
Nsg50
(iread_data
Room
p1175
(dp1176
g48
g53
sg54
g55
sbsg56
g57
sg58
I0
sg54
g707
sba(ischedule
Activity
p1177
(dp1178
g8
(lp1179
g308
asg48
g1166
sg49
(ischedule
Group
p1180
(dp1181
g8
g1179
sg54
S'Project Numerical Recipes3'
p1182
sbsg50
(iread_data
Room
p1183
(dp1184
g48
g263
sg54
g264
sbsg56
g238
sg58
g239
sg54
g1172
sba(ischedule
Activity
p1185
(dp1186
g8
(lp1187
g802
ag430
asg48
g405
sg49
(ischedule
Group
p1188
(dp1189
g8
g1187
sg54
S'Collectieve Intelligentie1'
p1190
sbsg50
(iread_data
Room
p1191
(dp1192
g48
g92
sg54
g93
sbsg56
g238
sg58
g199
sg54
g411
sbaa(lp1193
(ischedule
Activity
p1194
(dp1195
g8
(lp1196
g174
ag103
ag436
ag515
ag110
ag694
ag168
ag281
ag517
ag587
ag781
aS'28359697'
p1197
ag308
ag516
ag501
ag15
ag1013
ag864
ag303
ag325
ag687
ag157
ag580
ag399
ag721
ag38
ag585
ag75
ag470
ag163
ag72
ag107
ag856
ag803
ag519
ag211
ag1011
ag548
ag253
ag518
ag514
ag362
ag313
ag1012
ag494
asg48
I1000
sg49
Nsg50
(iread_data
Room
p1198
(dp1199
g48
g219
sg54
g220
sbsg56
g57
sg58
I0
sg54
g526
sba(ischedule
Activity
p1200
(dp1201
g8
(lp1202
g615
ag617
ag611
ag45
ag19
ag620
ag609
ag616
ag618
ag614
ag621
ag610
ag612
ag381
ag619
ag613
asg48
g906
sg49
(ischedule
Group
p1203
(dp1204
g8
g1202
sg54
S'Webprogrammeren en databases1'
p1205
sbsg50
(iread_data
Room
p1206
(dp1207
g48
g236
sg54
g237
sbsg56
g238
sg58
g199
sg54
g96
sba(ischedule
Activity
p1208
(dp1209
g8
(lp1210
g365
ag811
aS'64554442'
p1211
ag161
ag452
ag581
ag368
ag360
ag129
ag29
ag945
aS'23652927'
p1212
aS'51509565'
p1213
ag310
ag399
asg48
g671
sg49
(ischedule
Group
p1214
(dp1215
g8
g1210
sg54
S'Algoritmen en complexiteit2'
p1216
sbsg50
(iread_data
Room
p1217
(dp1218
g48
g53
sg54
g55
sbsg56
g238
sg58
g95
sg54
g677
sba(ischedule
Activity
p1219
(dp1220
g8
(lp1221
g168
ag770
ag300
ag331
ag363
ag212
ag576
ag1141
asg48
g897
sg49
(ischedule
Group
p1222
(dp1223
g8
g1221
sg54
S'Programmeren in Java 25'
p1224
sbsg50
(iread_data
Room
p1225
(dp1226
g48
g263
sg54
g264
sbsg56
g238
sg58
S'5'
p1227
sg54
g903
sba(ischedule
Activity
p1228
(dp1229
g8
(lp1230
g286
ag574
ag310
ag610
ag1078
ag104
ag449
ag102
ag451
ag229
aS'88519892'
p1231
aS'88263855'
p1232
ag728
aS'12782624'
p1233
ag250
ag662
ag1136
ag283
asg48
g897
sg49
(ischedule
Group
p1234
(dp1235
g8
g1230
sg54
S'Programmeren in Java 21'
p1236
sbsg50
(iread_data
Room
p1237
(dp1238
g48
g197
sg54
g198
sbsg56
g238
sg58
g199
sg54
g903
sba(ischedule
Activity
p1239
(dp1240
g8
g660
sg48
S'25'
p1241
sg49
g672
sg50
(iread_data
Room
p1242
(dp1243
g48
g151
sg54
g152
sbsg56
g94
sg58
g199
sg54
g677
sba(ischedule
Activity
p1244
(dp1245
g8
(lp1246
g348
ag864
ag804
ag114
ag1129
ag618
aS'90296821'
p1247
ag131
ag85
ag342
ag861
ag661
ag332
aS'26857113'
p1248
ag79
ag813
asg48
g897
sg49
(ischedule
Group
p1249
(dp1250
g8
g1246
sg54
S'Programmeren in Java 23'
p1251
sbsg50
(iread_data
Room
p1252
(dp1253
g48
g92
sg54
g93
sbsg56
g238
sg58
g239
sg54
g903
sbaa(lp1254
(ischedule
Activity
p1255
(dp1256
g8
(lp1257
g434
ag688
ag1050
ag1063
ag337
ag725
ag946
ag450
ag110
ag663
ag358
ag756
ag338
ag813
ag401
ag692
ag251
ag166
ag368
ag1066
ag665
ag1057
ag793
ag1056
ag1059
ag755
ag22
ag1081
ag835
ag804
ag361
ag490
ag1060
ag186
ag583
ag452
ag1048
ag473
ag754
ag298
ag1054
ag598
ag286
ag1064
ag187
ag1068
ag1058
ag690
ag305
ag1051
ag38
ag498
ag276
ag501
ag686
ag225
ag1083
ag1080
ag1049
ag1062
ag1067
ag100
ag503
ag595
ag64
ag146
ag504
ag596
ag123
ag1055
ag621
ag928
ag753
ag1079
ag841
ag689
ag1078
ag84
ag515
ag1052
ag1082
ag105
ag1065
ag580
ag209
ag384
ag1069
ag347
ag141
ag136
ag1084
ag211
ag107
ag547
ag303
ag174
ag1047
ag282
ag1046
ag279
ag1053
ag318
ag168
ag1061
ag579
ag611
asg48
I1000
sg49
Nsg50
(iread_data
Room
p1258
(dp1259
g48
g151
sg54
g152
sbsg56
g57
sg58
I0
sg54
g763
sba(ischedule
Activity
p1260
(dp1261
g8
g877
sg48
g405
sg49
g878
sg50
(iread_data
Room
p1262
(dp1263
g48
g263
sg54
g264
sbsg56
g238
sg58
g95
sg54
g411
sba(ischedule
Activity
p1264
(dp1265
g8
g766
sg48
g230
sg49
g772
sg50
(iread_data
Room
p1266
(dp1267
g48
g92
sg54
g93
sbsg56
g238
sg58
g199
sg54
g240
sba(ischedule
Activity
p1268
(dp1269
g8
(lp1270
g209
ag531
ag1248
ag449
ag319
aS'67625383'
p1271
aS'90067329'
p1272
ag284
ag204
ag586
ag347
ag1143
aS'33252501'
p1273
ag387
ag229
ag665
ag796
ag283
ag345
ag866
ag494
ag334
asg48
I1000
sg49
Nsg50
(iread_data
Room
p1274
(dp1275
g48
g197
sg54
g198
sbsg56
g57
sg58
I0
sg54
S'Machine Learning'
p1276
sba(ischedule
Activity
p1277
(dp1278
g8
(lp1279
g157
ag864
ag721
ag107
ag587
ag585
ag580
ag399
ag75
ag436
ag38
ag253
ag694
ag803
ag501
ag856
ag303
ag211
ag687
ag470
ag1197
ag781
asg48
g634
sg49
(ischedule
Group
p1280
(dp1281
g8
g1279
sg54
S'Bioinformatica3'
p1282
sbsg50
(iread_data
Room
p1283
(dp1284
g48
g236
sg54
g237
sbsg56
g238
sg58
g239
sg54
g526
sba(ischedule
Activity
p1285
(dp1286
g8
g1010
sg48
g634
sg49
g1014
sg50
(iread_data
Room
p1287
(dp1288
g48
g219
sg54
g220
sbsg56
g238
sg58
g95
sg54
g526
sbaa(lp1289
(ischedule
Activity
p1290
(dp1291
g8
g1126
sg48
I1000
sg49
Nsg50
(iread_data
Room
p1292
(dp1293
g48
g151
sg54
g152
sbsg56
g57
sg58
I0
sg54
g1149
sba(ischedule
Activity
p1294
(dp1295
g8
(lp1296
g782
ag277
ag278
ag281
ag270
ag147
ag30
ag275
ag284
ag123
ag336
ag682
ag276
ag780
ag286
ag66
ag781
ag85
ag210
ag282
ag273
ag283
ag80
ag279
ag272
ag530
ag271
ag285
ag178
ag280
ag384
ag274
asg48
I1000
sg49
Nsg50
(iread_data
Room
p1297
(dp1298
g48
g219
sg54
g220
sbsg56
g57
sg58
I0
sg54
g293
sba(ischedule
Activity
p1299
(dp1300
g8
g834
sg48
I1000
sg49
Nsg50
(iread_data
Room
p1301
(dp1302
g48
g197
sg54
g198
sbsg56
g57
sg58
I0
sg54
g846
sba(ischedule
Activity
p1303
(dp1304
g8
g1210
sg48
g1241
sg49
g1214
sg50
(iread_data
Room
p1305
(dp1306
g48
g92
sg54
g93
sbsg56
g94
sg58
g95
sg54
g677
sba(ischedule
Activity
p1307
(dp1308
g8
(lp1309
g15
ag17
ag25
ag21
ag11
ag18
ag46
ag45
ag43
ag23
ag39
ag22
ag47
asg48
g1031
sg49
(ischedule
Group
p1310
(dp1311
g8
g1309
sg54
S'Technology for games2'
p1312
sbsg50
(iread_data
Room
p1313
(dp1314
g48
g236
sg54
g237
sbsg56
g94
sg58
g95
sg54
g59
sba(ischedule
Activity
p1315
(dp1316
g8
g1279
sg48
g520
sg49
g1280
sg50
(iread_data
Room
p1317
(dp1318
g48
g263
sg54
g264
sbsg56
g94
sg58
g239
sg54
g526
sba(ischedule
Activity
p1319
(dp1320
g8
g447
sg48
g416
sg49
g459
sg50
(iread_data
Room
p1321
(dp1322
g48
g53
sg54
g55
sbsg56
g94
sg58
g199
sg54
g422
sbaaa(lp1323
(lp1324
(ischedule
Activity
p1325
(dp1326
g8
g1021
sg48
g714
sg49
g1022
sg50
(iread_data
Room
p1327
(dp1328
g48
g92
sg54
g93
sbsg56
g94
sg58
g1027
sg54
g411
sba(ischedule
Activity
p1329
(dp1330
g8
g1196
sg48
I1000
sg49
Nsg50
(iread_data
Room
p1331
(dp1332
g48
g263
sg54
g264
sbsg56
g57
sg58
I0
sg54
g526
sba(ischedule
Activity
p1333
(dp1334
g8
(lp1335
g337
ag322
ag333
ag338
ag184
ag301
ag319
ag47
ag28
ag330
ag305
ag314
ag302
ag44
asg48
g652
sg49
(ischedule
Group
p1336
(dp1337
g8
g1335
sg54
S'Compilerbouw1'
p1338
sbsg50
(iread_data
Room
p1339
(dp1340
g48
g197
sg54
g198
sbsg56
g94
sg58
g199
sg54
g351
sba(ischedule
Activity
p1341
(dp1342
g8
(lp1343
g661
ag663
ag81
ag1211
ag365
ag360
ag811
ag666
ag245
ag356
ag70
ag273
ag175
ag271
ag129
ag368
ag185
ag1213
ag581
ag667
ag578
ag564
ag78
ag665
ag563
ag399
ag669
ag284
ag1212
ag161
ag476
ag662
ag514
ag668
ag473
ag491
ag664
ag310
ag225
ag452
ag670
ag29
ag945
asg48
I1000
sg49
Nsg50
(iread_data
Room
p1344
(dp1345
g48
g219
sg54
g220
sbsg56
g57
sg58
I0
sg54
g677
sba(ischedule
Activity
p1346
(dp1347
g8
g719
sg48
g701
sg49
g731
sg50
(iread_data
Room
p1348
(dp1349
g48
g53
sg54
g55
sbsg56
g94
sg58
g199
sg54
g707
sba(ischedule
Activity
p1350
(dp1351
g8
g626
sg48
g771
sg49
g627
sg50
(iread_data
Room
p1352
(dp1353
g48
g236
sg54
g237
sbsg56
g94
sg58
g95
sg54
g240
sba(ischedule
Activity
p1354
(dp1355
g8
g1270
sg48
I1000
sg49
Nsg50
(iread_data
Room
p1356
(dp1357
g48
g151
sg54
g152
sbsg56
g57
sg58
I0
sg54
g1276
sbaa(lp1358
(ischedule
Activity
p1359
(dp1360
g8
(lp1361
g66
ag596
ag171
ag852
ag1063
aS'58480929'
p1362
ag101
ag681
aS'82854435'
p1363
aS'18477924'
p1364
ag595
ag38
ag139
aS'97838175'
p1365
ag865
ag686
ag594
ag169
ag450
ag123
ag131
aS'78822885'
p1366
ag1012
ag387
ag37
ag366
ag10
ag143
aS'34900967'
p1367
ag165
ag170
ag990
ag991
ag329
ag124
ag532
ag141
ag584
ag682
ag640
aS'14637758'
p1368
ag530
ag1079
ag1095
ag517
ag867
aS'73350019'
p1369
ag254
ag1082
asg48
I1000
sg49
Nsg50
(iread_data
Room
p1370
(dp1371
g48
g219
sg54
g220
sbsg56
g57
sg58
I0
sg54
S'Analysemethoden en -technieken'
p1372
sba(ischedule
Activity
p1373
(dp1374
g8
g1196
sg48
I1000
sg49
Nsg50
(iread_data
Room
p1375
(dp1376
g48
g263
sg54
g264
sbsg56
g57
sg58
I0
sg54
g526
sba(ischedule
Activity
p1377
(dp1378
g8
g1005
sg48
I1000
sg49
Nsg50
(iread_data
Room
p1379
(dp1380
g48
g92
sg54
g93
sbsg56
g57
sg58
I0
sg54
g265
sba(ischedule
Activity
p1381
(dp1382
g8
g1202
sg48
g86
sg49
g1203
sg50
(iread_data
Room
p1383
(dp1384
g48
g151
sg54
g152
sbsg56
g94
sg58
g199
sg54
g96
sba(ischedule
Activity
p1385
(dp1386
g8
(lp1387
S'73893840'
p1388
ag298
ag727
ag299
asg48
g897
sg49
(ischedule
Group
p1389
(dp1390
g8
g1387
sg54
S'Programmeren in Java 26'
p1391
sbsg50
(iread_data
Room
p1392
(dp1393
g48
g236
sg54
g237
sbsg56
g238
sg58
S'6'
p1394
sg54
g903
sba(ischedule
Activity
p1395
(dp1396
g8
g1187
sg48
g714
sg49
g1188
sg50
(iread_data
Room
p1397
(dp1398
g48
g53
sg54
g55
sbsg56
g94
sg58
g199
sg54
g411
sbaa(lp1399
(ischedule
Activity
p1400
(dp1401
g8
g790
sg48
I1000
sg49
Nsg50
(iread_data
Room
p1402
(dp1403
g48
g197
sg54
g198
sbsg56
g57
sg58
I0
sg54
g411
sba(ischedule
Activity
p1404
(dp1405
g8
g414
sg48
g458
sg49
g417
sg50
(iread_data
Room
p1406
(dp1407
g48
g236
sg54
g237
sbsg56
g238
sg58
g239
sg54
g422
sba(ischedule
Activity
p1408
(dp1409
g8
(lp1410
g700
ag982
ag1050
ag281
ag315
ag470
ag321
ag280
ag26
ag693
aS'63939720'
p1411
aS'37419523'
p1412
ag120
ag204
ag926
ag146
ag803
ag390
ag592
ag186
ag858
aS'21070547'
p1413
ag323
ag839
ag81
ag813
ag47
ag227
ag302
ag1012
ag166
aS'81116418'
p1414
asg48
g1166
sg49
(ischedule
Group
p1415
(dp1416
g8
g1410
sg54
S'Project Numerical Recipes2'
p1417
sbsg50
(iread_data
Room
p1418
(dp1419
g48
g219
sg54
g220
sbsg56
g238
sg58
g95
sg54
g1172
sba(ischedule
Activity
p1420
(dp1421
g8
g1335
sg48
g1103
sg49
g1336
sg50
(iread_data
Room
p1422
(dp1423
g48
g151
sg54
g152
sbsg56
g238
sg58
g199
sg54
g351
sba(ischedule
Activity
p1424
(dp1425
g8
(lp1426
g66
ag850
ag476
ag856
ag726
ag864
ag861
ag851
ag811
ag76
ag852
ag866
ag121
ag17
ag182
ag15
ag863
ag867
ag693
ag336
ag854
ag859
ag594
ag172
ag37
ag496
ag366
ag310
ag862
ag855
ag857
ag454
ag720
ag860
ag865
ag545
asg48
g213
sg49
(ischedule
Group
p1427
(dp1428
g8
g1426
sg54
S'Reflectie op de digitale cultuur3'
p1429
sbsg50
(iread_data
Room
p1430
(dp1431
g48
g53
sg54
g55
sbsg56
g94
sg58
g239
sg54
g221
sbaa(lp1432
(ischedule
Activity
p1433
(dp1434
g8
g849
sg48
I1000
sg49
Nsg50
(iread_data
Room
p1435
(dp1436
g48
g151
sg54
g152
sbsg56
g57
sg58
I0
sg54
g221
sba(ischedule
Activity
p1437
(dp1438
g8
g296
sg48
I1000
sg49
Nsg50
(iread_data
Room
p1439
(dp1440
g48
g197
sg54
g198
sbsg56
g57
sg58
I0
sg54
g351
sba(ischedule
Activity
p1441
(dp1442
g8
g224
sg48
g771
sg49
g231
sg50
(iread_data
Room
p1443
(dp1444
g48
g92
sg54
g93
sbsg56
g94
sg58
g239
sg54
g240
sbaa(lp1445
(ischedule
Activity
p1446
(dp1447
g8
g99
sg48
I1000
sg49
Nsg50
(iread_data
Room
p1448
(dp1449
g48
g197
sg54
g198
sbsg56
g57
sg58
I0
sg54
g153
sba(ischedule
Activity
p1450
(dp1451
g8
(lp1452
g865
ag990
ag496
ag598
ag473
ag315
aS'73196865'
p1453
ag276
ag547
ag172
ag989
ag162
ag211
ag1058
ag160
ag121
aS'64053722'
p1454
ag686
ag690
ag531
ag303
ag586
ag41
ag665
ag1367
ag837
ag367
ag255
ag1057
ag799
asg48
g897
sg49
(ischedule
Group
p1455
(dp1456
g8
g1452
sg54
S'Programmeren in Java 24'
p1457
sbsg50
(iread_data
Room
p1458
(dp1459
g48
g53
sg54
g55
sbsg56
g238
sg58
g1027
sg54
g903
sba(ischedule
Activity
p1460
(dp1461
g8
g819
sg48
g701
sg49
g822
sg50
(iread_data
Room
p1462
(dp1463
g48
g219
sg54
g220
sbsg56
g94
sg58
g95
sg54
g707
sba(ischedule
Activity
p1464
(dp1465
g8
g872
sg48
I1000
sg49
Nsg50
(iread_data
Room
p1466
(dp1467
g48
g236
sg54
g237
sbsg56
g57
sg58
I0
sg54
g240
sba(ischedule
Activity
p1468
(dp1469
g8
g379
sg48
I1000
sg49
Nsg50
(iread_data
Room
p1470
(dp1471
g48
g92
sg54
g93
sbsg56
g57
sg58
I0
sg54
g393
sba(ischedule
Activity
p1472
(dp1473
g8
(lp1474
S'5590289'
p1475
aS'25557516'
p1476
ag76
ag300
ag983
ag493
ag802
ag793
ag530
ag101
ag12
aS'53267490'
p1477
ag299
ag803
ag302
ag177
ag661
ag280
ag1081
asg48
g551
sg49
(ischedule
Group
p1478
(dp1479
g8
g1474
sg54
S'Netwerken en systeembeveiliging4'
p1480
sbsg50
(iread_data
Room
p1481
(dp1482
g48
g263
sg54
g264
sbsg56
g238
sg58
g1027
sg54
g557
sba(ischedule
Activity
p1483
(dp1484
g8
(lp1485
g69
ag810
ag304
ag454
ag477
ag325
ag1094
ag472
ag455
ag1047
asg48
g534
sg49
(ischedule
Group
p1486
(dp1487
g8
g1485
sg54
S'Project Genetic Algorithms1'
p1488
sbsg50
(iread_data
Room
p1489
(dp1490
g48
g151
sg54
g152
sbsg56
g238
sg58
g199
sg54
g540
sbaaa(lp1491
(lp1492
a(lp1493
a(lp1494
a(lp1495
a(lp1496
aasS'timeslot_dict'
p1497
(dp1498
I0
S'9:00-11:00'
p1499
sI1
S'11:00-13:00'
p1500
sI2
S'13:00-15:00'
p1501
sI3
S'15:00-17:00'
p1502
sI4
S'17:00-19:00'
p1503
ssS'day_dict'
p1504
(dp1505
I0
S'Monday'
p1506
sI1
S'Tuesday'
p1507
sI2
S'Wednesday'
p1508
sI3
S'Thursday'
p1509
sI4
S'Friday'
p1510
ssb.