(ischedule
Schedule
p0
(dp1
S'timetable'
p2
(lp3
(lp4
(lp5
(ischedule
Activity
p6
(dp7
S'participants'
p8
(lp9
S'43680781'
p10
aS'6723948'
p11
aS'54026378'
p12
aS'14591033'
p13
aS'7308727'
p14
aS'56749879'
p15
aS'22826928'
p16
aS'33930505'
p17
aS'42196732'
p18
aS'30195935'
p19
aS'64600457'
p20
aS'85335143'
p21
aS'247918'
p22
aS'59544049'
p23
aS'22731474'
p24
asS'capacity'
p25
S'20'
p26
sS'group'
p27
(ischedule
Group
p28
(dp29
g8
g9
sS'name'
p30
S'Bioinformatica2'
p31
sbsS'room'
p32
(iread_data
Room
p33
(dp34
g25
S'117'
p35
sg30
S'C0.110'
p36
sbsS'ttype'
p37
S'tutorials'
p38
sS'group_id'
p39
S'2'
p40
sg30
S'Bioinformatica'
p41
sba(ischedule
Activity
p42
(dp43
g8
(lp44
S'45414528'
p45
aS'15249775'
p46
aS'63096281'
p47
aS'63111000'
p48
aS'94687383'
p49
aS'91196968'
p50
aS'70072978'
p51
aS'93566383'
p52
aS'670011'
p53
aS'61443567'
p54
ag15
aS'17823206'
p55
aS'88519892'
p56
aS'4709948'
p57
aS'60661905'
p58
aS'1048485'
p59
aS'92778619'
p60
aS'66433883'
p61
aS'85236626'
p62
asg25
S'20'
p63
sg27
(ischedule
Group
p64
(dp65
g8
g44
sg30
S'Programmeren in Java 22'
p66
sbsg32
(iread_data
Room
p67
(dp68
g25
S'56'
p69
sg30
S'A1.10'
p70
sbsg37
S'labs'
p71
sg39
g40
sg30
S'Programmeren in Java 2'
p72
sba(ischedule
Activity
p73
(dp74
g8
(lp75
S'42171678'
p76
aS'17222374'
p77
aS'18144425'
p78
aS'78243495'
p79
aS'24277163'
p80
ag48
ag57
aS'66621166'
p81
aS'3883025'
p82
aS'41489515'
p83
aS'27241113'
p84
ag51
aS'99283252'
p85
aS'33776961'
p86
aS'14309255'
p87
aS'11741347'
p88
aS'36527838'
p89
aS'48198668'
p90
asg25
S'20'
p91
sg27
(ischedule
Group
p92
(dp93
g8
g75
sg30
S'Moderne Databases2'
p94
sbsg32
(iread_data
Room
p95
(dp96
g25
S'20'
p97
sg30
S'A1.08'
p98
sbsg37
g71
sg39
g40
sg30
S'Moderne Databases'
p99
sba(ischedule
Activity
p100
(dp101
g8
(lp102
S'40434933'
p103
aS'26406342'
p104
aS'93041523'
p105
aS'36785409'
p106
aS'23547619'
p107
ag10
aS'77264363'
p108
aS'4697362'
p109
aS'58565406'
p110
aS'69086548'
p111
aS'70336464'
p112
ag87
aS'12077419'
p113
aS'41578612'
p114
aS'92496780'
p115
aS'68315599'
p116
aS'22323043'
p117
aS'75521763'
p118
aS'6249823'
p119
aS'14383795'
p120
aS'97371272'
p121
aS'77636749'
p122
aS'48308205'
p123
aS'7106649'
p124
aS'32204977'
p125
aS'75664412'
p126
aS'10149535'
p127
aS'44901052'
p128
ag21
aS'9332762'
p129
aS'31194811'
p130
aS'47982619'
p131
aS'11996292'
p132
aS'21192048'
p133
aS'89338938'
p134
aS'37110913'
p135
aS'76487754'
p136
aS'12430748'
p137
asg25
I1000
sg27
Nsg32
(iread_data3
Room
p138
(dp139
g25
S'48'
p140
sg30
S'B0.201'
p141
sbsg37
S'lectures'
p142
sg39
S'1'
p143
sg30
S'Technology for games'
p144
sba(ischedule
Activity
p145
(dp146
g8
(lp147
S'23215240'
p148
aS'6913074'
p149
aS'41153310'
p150
aS'55474917'
p151
aS'96054456'
p152
aS'48503689'
p153
aS'7386961'
p154
aS'41585485'
p155
aS'26857113'
p156
aS'38499176'
p157
aS'37744525'
p158
aS'62105897'
p159
aS'99272880'
p160
aS'58040377'
p161
aS'86000192'
p162
aS'37399898'
p163
aS'36903574'
p164
aS'34900967'
p165
asg25
g63
sg27
(ischedule
Group
p166
(dp167
g8
g147
sg30
S'Programmeren in Java 23'
p168
sbsg32
(iread_data3
Room
p169
(dp170
g25
S'22'
p171
sg30
S'A1.06'
p172
sbsg37
g71
sg39
S'3'
p173
sg30
g72
sba(ischedule
Activity
p174
(dp175
g8
(lp176
S'66120270'
p177
ag157
aS'34243356'
p178
aS'26207525'
p179
aS'97135019'
p180
aS'85284256'
p181
aS'70939718'
p182
aS'72586808'
p183
aS'63573738'
p184
aS'56121590'
p185
ag19
aS'64246605'
p186
aS'4353500'
p187
aS'53267490'
p188
aS'9731271'
p189
aS'70844780'
p190
asg25
S'20'
p191
sg27
(ischedule
Group
p192
(dp193
g8
g176
sg30
S'Netwerken en systeembeveiliging2'
p194
sbsg32
(iread_data3
Room
p195
(dp196
g25
S'41'
p197
sg30
S'A1.04'
p198
sbsg37
g71
sg39
g40
sg30
S'Netwerken en systeembeveiliging'
p199
sba(ischedule
Activity
p200
(dp201
g8
(lp202
S'36748818'
p203
aS'8557857'
p204
aS'58332004'
p205
aS'23257088'
p206
aS'23983476'
p207
aS'11459236'
p208
aS'19958553'
p209
aS'18266644'
p210
aS'75585647'
p211
aS'17496687'
p212
asg25
S'15'
p213
sg27
(ischedule
Group
p214
(dp215
g8
g202
sg30
S'Informatie- en organsatieontwerp2'
p216
sbsg32
(iread_data3
Room
p217
(dp218
g25
S'60'
p219
sg30
S'C1.112'
p220
sbsg37
g71
sg39
g40
sg30
S'Informatie- en organsatieontwerp'
p221
sbaa(lp222
(ischedule
Activity
p223
(dp224
g8
(lp225
S'27187154'
p226
aS'58469172'
p227
aS'15902055'
p228
ag182
aS'81155296'
p229
aS'23628642'
p230
aS'27064249'
p231
ag149
aS'93361408'
p232
aS'73302736'
p233
aS'88752563'
p234
aS'34173695'
p235
aS'76661016'
p236
aS'40141996'
p237
aS'53585410'
p238
aS'28957789'
p239
aS'16097870'
p240
aS'4546613'
p241
aS'61520025'
p242
aS'73823548'
p243
ag11
aS'26260141'
p244
aS'79617364'
p245
aS'78735049'
p246
aS'87602030'
p247
aS'55412918'
p248
aS'78544592'
p249
aS'80188025'
p250
aS'87900893'
p251
aS'32705005'
p252
aS'48357272'
p253
aS'12091019'
p254
aS'47477884'
p255
aS'23658570'
p256
ag211
asg25
S'40'
p257
sg27
(ischedule
Group
p258
(dp259
g8
g225
sg30
S'Calculus 22'
p260
sbsg32
(iread_data3
Room
p261
(dp262
g25
g140
sg30
g141
sbsg37
g38
sg39
g40
sg30
S'Calculus 2'
p263
sba(ischedule
Activity
p264
(dp265
g8
(lp266
S'84449005'
p267
ag116
aS'83266686'
p268
ag249
aS'58592894'
p269
aS'77376714'
p270
aS'30658799'
p271
ag20
aS'58699305'
p272
aS'1766560'
p273
aS'13218321'
p274
aS'89180944'
p275
ag10
aS'83415514'
p276
aS'47462856'
p277
ag203
aS'51650744'
p278
aS'78443067'
p279
asg25
g91
sg27
(ischedule
Group
p280
(dp281
g8
g266
sg30
S'Moderne Databases1'
p282
sbsg32
(iread_data3
Room
p283
(dp284
g25
S'20'
p285
sg30
S'A1.08'
p286
sbsg37
g71
sg39
g143
sg30
g99
sba(ischedule
Activity
p287
(dp288
g8
(lp289
S'21095566'
p290
aS'1665980'
p291
aS'50143947'
p292
aS'57467488'
p293
aS'81385263'
p294
aS'19540225'
p295
aS'27298319'
p296
aS'91527663'
p297
aS'3707829'
p298
aS'21964491'
p299
aS'67817269'
p300
aS'8522855'
p301
ag155
aS'41527759'
p302
ag207
aS'46701583'
p303
aS'96453361'
p304
aS'23652927'
p305
ag244
aS'14671406'
p306
aS'3474870'
p307
aS'64947290'
p308
asg25
S'25'
p309
sg27
(ischedule
Group
p310
(dp311
g8
g289
sg30
S'Algoritmen en complexiteit1'
p312
sbsg32
(iread_data3
Room
p313
(dp314
g25
S'117'
p315
sg30
S'C0.110'
p316
sbsg37
g71
sg39
g143
sg30
S'Algoritmen en complexiteit'
p317
sba(ischedule
Activity
p318
(dp319
g8
g75
sg25
S'20'
p320
sg27
g92
sg32
(iread_data3
Room
p321
(dp322
g25
g171
sg30
g172
sbsg37
g38
sg39
g40
sg30
g99
sba(ischedule
Activity
p323
(dp324
g8
(lp325
S'25330192'
p326
ag45
ag117
ag292
aS'97136582'
p327
aS'99453514'
p328
aS'87314964'
p329
aS'52311353'
p330
ag55
aS'66122625'
p331
aS'81200278'
p332
ag299
ag135
aS'13996448'
p333
aS'74131924'
p334
aS'93023961'
p335
aS'13116738'
p336
aS'19337738'
p337
aS'70878567'
p338
aS'51566595'
p339
aS'68360259'
p340
aS'59753700'
p341
aS'98780382'
p342
ag251
ag50
ag158
aS'81022997'
p343
asg25
I1000
sg27
Nsg32
(iread_data3
Room
p344
(dp345
g25
g219
sg30
g220
sbsg37
g142
sg39
g143
sg30
S'Data Mining'
p346
sba(ischedule
Activity
p347
(dp348
g8
(lp349
S'62701040'
p350
ag203
aS'92977271'
p351
ag204
ag118
ag205
aS'29718115'
p352
ag206
ag338
ag207
ag128
ag208
ag116
ag209
ag336
ag210
ag122
ag211
ag125
ag212
aS'13658563'
p353
asg25
I1000
sg27
Nsg32
(iread_data3
Room
p354
(dp355
g25
S'56'
p356
sg30
S'A1.10'
p357
sbsg37
g142
sg39
g143
sg30
g221
sbaa(lp358
(ischedule
Activity
p359
(dp360
g8
(lp361
S'52552718'
p362
aS'88627897'
p363
ag334
aS'70113753'
p364
aS'36508571'
p365
aS'61611295'
p366
ag128
asg25
S'10'
p367
sg27
(ischedule
Group
p368
(dp369
g8
g361
sg30
S'Autonomous Agents 23'
p370
sbsg32
g95
sg37
g71
sg39
g173
sg30
S'Autonomous Agents 2'
p371
sba(ischedule
Activity
p372
(dp373
g8
(lp374
S'28359697'
p375
ag10
aS'89985072'
p376
ag304
ag11
ag245
aS'77831658'
p377
ag12
aS'30050930'
p378
aS'33877725'
p379
ag13
ag152
aS'21029457'
p380
ag14
aS'24613625'
p381
ag332
ag15
aS'58522654'
p382
aS'53202517'
p383
ag16
aS'3168419'
p384
ag334
ag17
ag299
aS'20883994'
p385
ag18
aS'14816774'
p386
aS'11068043'
p387
ag19
aS'4568018'
p388
aS'73236988'
p389
ag20
aS'56815156'
p390
aS'29526540'
p391
ag21
aS'44868097'
p392
aS'15051051'
p393
ag22
ag149
ag338
ag23
aS'5298748'
p394
ag177
ag24
aS'88176729'
p395
asg25
I1000
sg27
Nsg32
g33
sg37
g142
sg39
g40
sg30
g41
sba(ischedule
Activity
p396
(dp397
g8
(lp398
S'75599734'
p399
aS'95007221'
p400
ag234
aS'60312776'
p401
aS'13284244'
p402
aS'84524083'
p403
aS'2079771'
p404
aS'8464817'
p405
aS'10792879'
p406
ag383
aS'3407554'
p407
ag130
aS'75759231'
p408
aS'34872117'
p409
ag178
aS'43689934'
p410
aS'65852230'
p411
aS'65960683'
p412
aS'72796858'
p413
ag271
aS'77896638'
p414
ag87
aS'79033175'
p415
aS'86988337'
p416
aS'27950803'
p417
aS'39459642'
p418
aS'9067939'
p419
aS'46989508'
p420
aS'13911001'
p421
ag11
aS'88636924'
p422
aS'66701209'
p423
aS'49683101'
p424
ag273
aS'72895450'
p425
asg25
S'40'
p426
sg27
(ischedule
Group
p427
(dp428
g8
g398
sg30
S'Compilerbouw1'
p429
sbsg32
(iread_data
Room
p430
(dp431
g25
S'48'
p432
sg30
S'B0.201'
p433
sbsg37
g71
sg39
g143
sg30
S'Compilerbouw'
p434
sba(ischedule
Activity
p435
(dp436
g8
(lp437
S'72577292'
p438
ag231
aS'86807027'
p439
aS'72683344'
p440
aS'62613937'
p441
ag385
aS'78136904'
p442
ag384
ag255
ag107
aS'28618400'
p443
aS'75997788'
p444
aS'40633534'
p445
ag190
aS'60352393'
p446
aS'72665524'
p447
aS'14847953'
p448
aS'39429093'
p449
aS'1886996'
p450
aS'92665222'
p451
asg25
I1000
sg27
Nsg32
(iread_data
Room
p452
(dp453
g25
S'41'
p454
sg30
S'A1.04'
p455
sbsg37
g142
sg39
g143
sg30
S'Advanced Heuristics'
p456
sba(ischedule
Activity
p457
(dp458
g8
(lp459
g326
ag292
ag329
ag331
ag135
ag335
ag338
ag341
ag50
asg25
S'10'
p460
sg27
(ischedule
Group
p461
(dp462
g8
g459
sg30
S'Data Mining1'
p463
sbsg32
(iread_data
Room
p464
(dp465
g25
S'22'
p466
sg30
S'A1.06'
p467
sbsg37
g38
sg39
g143
sg30
g346
sba(ischedule
Activity
p468
(dp469
g8
g325
sg25
I1000
sg27
Nsg32
g67
sg37
g142
sg39
g40
sg30
g346
sba(ischedule
Activity
p470
(dp471
g8
(lp472
S'43902015'
p473
ag119
aS'20618153'
p474
ag438
aS'67073567'
p475
ag448
aS'43460038'
p476
ag54
aS'10698627'
p477
aS'2416751'
p478
aS'64228258'
p479
aS'76648468'
p480
aS'16333449'
p481
aS'53512831'
p482
aS'28358060'
p483
aS'49908313'
p484
aS'22288615'
p485
aS'77392404'
p486
ag425
aS'76123484'
p487
ag379
aS'39230359'
p488
ag307
aS'14303208'
p489
aS'76903244'
p490
aS'94930277'
p491
ag79
aS'69459473'
p492
ag103
aS'5615125'
p493
ag231
aS'66034145'
p494
aS'57086672'
p495
ag383
aS'1137946'
p496
aS'41790793'
p497
ag275
aS'24891081'
p498
aS'17092717'
p499
asg25
I1000
sg27
Nsg32
(iread_data
Room
p500
(dp501
g25
S'60'
p502
sg30
S'C1.112'
p503
sbsg37
g142
sg39
g143
sg30
S'Webprogrammeren en databases'
p504
sbaa(lp505
(ischedule
Activity
p506
(dp507
g8
(lp508
g180
aS'48601268'
p509
aS'29474737'
p510
aS'96104167'
p511
ag350
ag80
aS'77240949'
p512
aS'13534377'
p513
aS'53107172'
p514
aS'37770881'
p515
ag18
aS'25106480'
p516
aS'13092455'
p517
aS'4783858'
p518
ag438
asg25
S'20'
p519
sg27
(ischedule
Group
p520
(dp521
g8
g508
sg30
S'Collectieve Intelligentie3'
p522
sbsg32
g500
sg37
g71
sg39
g173
sg30
S'Collectieve Intelligentie'
p523
sba(ischedule
Activity
p524
(dp525
g8
(lp526
S'62356458'
p527
aS'22871048'
p528
ag362
aS'68409833'
p529
ag339
ag363
aS'5517869'
p530
ag12
ag334
ag296
ag240
ag364
aS'34806836'
p531
ag135
ag365
aS'19858730'
p532
aS'11915563'
p533
ag366
ag418
ag413
ag128
aS'62872965'
p534
asg25
I1000
sg27
Nsg32
g33
sg37
g142
sg39
g143
sg30
g371
sba(ischedule
Activity
p535
(dp536
g8
(lp537
g253
ag270
ag509
aS'37830626'
p538
ag134
aS'31247305'
p539
aS'65318664'
p540
ag529
aS'9287708'
p541
ag516
ag290
aS'61060652'
p542
ag401
ag110
aS'40343779'
p543
aS'13718298'
p544
ag87
aS'83210352'
p545
aS'70015932'
p546
aS'82872148'
p547
aS'65408517'
p548
ag392
aS'44671041'
p549
ag159
ag417
ag476
aS'58074656'
p550
ag12
ag395
aS'80709893'
p551
aS'31103066'
p552
aS'31633723'
p553
ag233
ag279
ag306
ag389
aS'3727435'
p554
asg25
S'40'
p555
sg27
(ischedule
Group
p556
(dp557
g8
g537
sg30
S'Software engineering2'
p558
sbsg32
g67
sg37
g71
sg39
g40
sg30
S'Software engineering'
p559
sba(ischedule
Activity
p560
(dp561
g8
(lp562
S'23798155'
p563
ag303
aS'38296757'
p564
aS'3685034'
p565
ag158
ag404
aS'33252501'
p566
ag62
ag48
ag156
aS'67625383'
p567
aS'90067329'
p568
ag226
aS'94467156'
p569
ag512
aS'61518436'
p570
aS'40791377'
p571
ag424
aS'56988998'
p572
aS'5976174'
p573
ag418
ag393
asg25
I1000
sg27
Nsg32
g95
sg37
g142
sg39
g143
sg30
S'Machine Learning'
p574
sba(ischedule
Activity
p575
(dp576
g8
g9
sg25
S'20'
p577
sg27
g28
sg32
(iread_data3
Room
p578
(dp579
g25
g171
sg30
g172
sbsg37
g71
sg39
g40
sg30
g41
sba(ischedule
Activity
p580
(dp581
g8
g459
sg25
S'10'
p582
sg27
g461
sg32
(iread_data3
Room
p583
(dp584
g25
g197
sg30
g198
sbsg37
g71
sg39
g143
sg30
g346
sba(ischedule
Activity
p585
(dp586
g8
(lp587
g79
ag495
aS'52304977'
p588
aS'35315956'
p589
aS'27925117'
p590
aS'33760909'
p591
ag339
ag24
aS'48678993'
p592
aS'72652638'
p593
ag247
ag403
aS'99975346'
p594
ag332
ag240
aS'63634350'
p595
ag62
ag450
aS'34765676'
p596
aS'83869542'
p597
ag124
ag161
ag343
ag54
aS'58736785'
p598
ag573
aS'43027916'
p599
ag53
aS'82968410'
p600
ag46
aS'5739011'
p601
aS'31897288'
p602
asg25
I1000
sg27
Nsg32
(iread_data3
Room
p603
(dp604
g25
g140
sg30
g141
sbsg37
g142
sg39
g143
sg30
S'Heuristieken 2'
p605
sbaa(lp606
(ischedule
Activity
p607
(dp608
g8
(lp609
S'81218347'
p610
aS'96118484'
p611
ag178
ag248
ag542
aS'80998260'
p612
aS'74182182'
p613
ag481
aS'87758823'
p614
ag330
ag114
aS'4921119'
p615
aS'58866007'
p616
ag18
ag52
ag240
ag414
ag163
aS'90743504'
p617
aS'16011419'
p618
ag529
ag551
aS'23565001'
p619
aS'75005528'
p620
aS'35330349'
p621
ag13
ag157
ag530
aS'56872729'
p622
aS'94686490'
p623
aS'66570705'
p624
aS'71839156'
p625
ag294
aS'42115591'
p626
aS'21311067'
p627
aS'79937969'
p628
aS'94955328'
p629
aS'32595335'
p630
ag127
ag534
aS'42778953'
p631
ag307
aS'54074680'
p632
aS'34588570'
p633
ag50
aS'31416266'
p634
ag245
ag151
ag89
ag365
ag123
ag53
aS'26172512'
p635
ag545
asg25
I1000
sg27
Nsg32
g464
sg37
g142
sg39
g143
sg30
S'Lineaire Algebra'
p636
sba(ischedule
Activity
p637
(dp638
g8
(lp639
S'59397895'
p640
ag51
ag269
ag152
ag243
aS'5526560'
p641
aS'64296965'
p642
ag308
ag254
ag499
ag255
aS'25077484'
p643
ag409
ag234
ag384
ag77
aS'77960666'
p644
ag517
ag446
ag473
ag104
aS'56191333'
p645
aS'86180471'
p646
ag18
ag15
ag413
ag530
ag362
ag622
aS'27123462'
p647
ag103
ag623
aS'5085194'
p648
ag80
ag53
ag418
ag615
ag339
aS'54540997'
p649
ag293
aS'37701751'
p650
ag420
ag297
aS'4529208'
p651
aS'47932106'
p652
ag599
aS'29640619'
p653
aS'72456780'
p654
aS'51542218'
p655
ag620
ag132
aS'13132925'
p656
ag386
ag414
ag185
aS'82689818'
p657
ag391
ag205
aS'15187217'
p658
ag237
aS'49631542'
p659
aS'78821918'
p660
ag206
ag22
ag256
ag416
aS'90474003'
p661
ag179
ag597
aS'58083680'
p662
aS'62736669'
p663
ag487
asg25
I1000
sg27
Nsg32
g430
sg37
g142
sg39
g143
sg30
S'Databases 2'
p664
sba(ischedule
Activity
p665
(dp666
g8
g102
sg25
I1000
sg27
Nsg32
g452
sg37
g142
sg39
g40
sg30
g144
sba(ischedule
Activity
p667
(dp668
g8
(lp669
g495
ag589
ag591
ag24
ag593
ag403
ag332
ag595
ag450
ag597
ag161
ag54
ag573
ag53
ag46
ag602
asg25
S'20'
p670
sg27
(ischedule
Group
p671
(dp672
g8
g669
sg30
S'Heuristieken 22'
p673
sbsg32
g500
sg37
g38
sg39
g40
sg30
g605
sba(ischedule
Activity
p674
(dp675
g8
g374
sg25
I1000
sg27
Nsg32
g67
sg37
g142
sg39
g173
sg30
g41
sba(ischedule
Activity
p676
(dp677
g8
(lp678
g375
ag304
ag377
ag379
ag380
ag332
ag383
ag334
ag385
ag387
ag389
ag391
ag393
ag338
ag177
asg25
g577
sg27
(ischedule
Group
p679
(dp680
g8
g678
sg30
S'Bioinformatica1'
p681
sbsg32
g33
sg37
g71
sg39
g143
sg30
g41
sba(ischedule
Activity
p682
(dp683
g8
(lp684
g417
aS'74361881'
p685
ag247
ag592
aS'14398123'
p686
ag236
ag445
aS'25994016'
p687
ag303
ag569
ag643
ag85
asg25
S'15'
p688
sg27
(ischedule
Group
p689
(dp690
g8
g684
sg30
S'Project Genetic Algorithms2'
p691
sbsg32
(iread_data3
Room
p692
(dp693
g25
g285
sg30
g286
sbsg37
g71
sg39
g40
sg30
S'Project Genetic Algorithms'
p694
sbaaa(lp695
(lp696
(ischedule
Activity
p697
(dp698
g8
(lp699
g650
aS'2550487'
p700
ag448
ag596
aS'44828429'
p701
aS'5368702'
p702
aS'28055464'
p703
aS'65675896'
p704
aS'21677389'
p705
aS'76924297'
p706
aS'38179241'
p707
ag107
ag236
aS'19214659'
p708
ag52
ag163
ag229
aS'20374340'
p709
ag494
ag294
aS'69634191'
p710
ag332
ag298
ag241
aS'64768422'
p711
asg25
I1000
sg27
Nsg32
g33
sg37
g142
sg39
g40
sg30
S'Interactie-ontwerp'
p712
sba(ischedule
Activity
p713
(dp714
g8
(lp715
g231
ag440
ag385
ag384
ag107
ag444
ag190
ag447
ag449
ag451
asg25
S'10'
p716
sg27
(ischedule
Group
p717
(dp718
g8
g715
sg30
S'Advanced Heuristics2'
p719
sbsg32
g464
sg37
g71
sg39
g40
sg30
g456
sba(ischedule
Activity
p720
(dp721
g8
g562
sg25
I1000
sg27
Nsg32
(iread_data3
Room
p722
(dp723
g25
g285
sg30
g286
sbsg37
g142
sg39
g40
sg30
g574
sba(ischedule
Activity
p724
(dp725
g8
(lp726
g350
ag351
ag118
ag352
ag338
ag128
ag116
ag336
ag122
ag125
ag353
asg25
S'15'
p727
sg27
(ischedule
Group
p728
(dp729
g8
g726
sg30
S'Informatie- en organsatieontwerp1'
p730
sbsg32
(iread_data3
Room
p731
(dp732
g25
g197
sg30
g198
sbsg37
g38
sg39
g143
sg30
g221
sba(ischedule
Activity
p733
(dp734
g8
g508
sg25
S'20'
p735
sg27
g520
sg32
(iread_data3
Room
p736
(dp737
g25
g219
sg30
g220
sbsg37
g38
sg39
g173
sg30
g523
sbaa(lp738
(ischedule
Activity
p739
(dp740
g8
(lp741
g640
ag269
ag243
ag642
ag254
ag255
ag409
ag384
ag644
ag446
ag104
ag646
ag15
ag530
ag622
ag103
ag648
ag53
ag615
ag649
ag650
ag297
ag652
ag653
ag655
ag132
ag386
ag185
ag391
ag658
ag659
ag206
ag256
ag661
ag597
ag663
asg25
S'40'
p742
sg27
(ischedule
Group
p743
(dp744
g8
g741
sg30
S'Databases 21'
p745
sbsg32
g452
sg37
g38
sg39
g143
sg30
g664
sba(ischedule
Activity
p746
(dp747
g8
g699
sg25
I1000
sg27
Nsg32
g33
sg37
g142
sg39
g143
sg30
g712
sba(ischedule
Activity
p748
(dp749
g8
(lp750
S'20830477'
p751
aS'28943658'
p752
ag131
aS'44391517'
p753
ag416
ag485
aS'7492204'
p754
ag308
aS'73893840'
p755
ag644
aS'86291592'
p756
aS'68601184'
p757
aS'79167252'
p758
aS'12782624'
p759
aS'88263855'
p760
ag205
ag478
aS'27582862'
p761
asg25
g63
sg27
(ischedule
Group
p762
(dp763
g8
g750
sg30
S'Programmeren in Java 24'
p764
sbsg32
g430
sg37
g71
sg39
S'4'
p765
sg30
g72
sba(ischedule
Activity
p766
(dp767
g8
(lp768
S'82688900'
p769
ag205
aS'39659121'
p770
ag565
ag642
ag442
ag122
ag754
ag23
ag306
ag151
ag403
ag226
aS'59075181'
p771
ag563
ag385
aS'24875739'
p772
ag302
aS'51186803'
p773
ag569
ag134
ag15
aS'97019450'
p774
ag610
aS'63408522'
p775
ag155
ag539
aS'54569540'
p776
ag121
aS'34262212'
p777
ag178
aS'47605891'
p778
ag493
aS'44940353'
p779
aS'20239127'
p780
ag157
ag533
ag277
ag512
aS'63955238'
p781
ag227
ag572
aS'23391676'
p782
ag301
ag702
aS'65003379'
p783
ag55
ag706
aS'38329455'
p784
ag382
ag629
ag686
ag189
ag13
ag488
aS'37498675'
p785
aS'20331158'
p786
ag406
aS'91139627'
p787
ag595
ag246
ag50
ag152
ag111
aS'72547110'
p788
ag210
ag655
aS'54310617'
p789
ag659
aS'39919665'
p790
ag24
aS'10872825'
p791
aS'79858178'
p792
ag570
aS'84110134'
p793
ag626
ag239
ag252
ag613
ag553
aS'46570285'
p794
ag164
aS'79366078'
p795
ag160
asg25
I1000
sg27
Nsg32
(iread_data3
Room
p796
(dp797
g25
g219
sg30
g220
sbsg37
g142
sg39
g143
sg30
S'Kansrekenen 2'
p798
sbaa(lp799
(ischedule
Activity
p800
(dp801
g8
(lp802
g54
ag228
ag107
aS'34773179'
p803
ag642
aS'57595888'
p804
ag614
ag756
ag401
ag657
ag530
ag77
ag291
ag479
ag382
aS'28357474'
p805
asg25
g735
sg27
(ischedule
Group
p806
(dp807
g8
g802
sg30
S'Collectieve Intelligentie1'
p808
sbsg32
g500
sg37
g38
sg39
g143
sg30
g523
sba(ischedule
Activity
p809
(dp810
g8
(lp811
g527
ag529
ag530
ag296
ag531
ag532
ag418
ag534
asg25
S'10'
p812
sg27
(ischedule
Group
p813
(dp814
g8
g811
sg30
S'Autonomous Agents 21'
p815
sbsg32
g430
sg37
g38
sg39
g143
sg30
g371
sba(ischedule
Activity
p816
(dp817
g8
(lp818
g439
ag293
ag253
ag331
ag388
ag444
ag353
aS'98105190'
p819
aS'76393508'
p820
aS'97417002'
p821
ag786
ag532
aS'1696500'
p822
ag351
ag771
ag518
aS'53775014'
p823
ag610
ag598
aS'45660925'
p824
ag132
aS'14941752'
p825
ag187
ag135
ag625
ag751
ag386
ag117
aS'14138904'
p826
ag514
ag15
ag542
ag164
ag13
ag76
aS'83443653'
p827
ag602
aS'87210640'
p828
ag774
ag118
aS'79879876'
p829
ag491
ag128
ag528
asg25
I1000
sg27
Nsg32
g33
sg37
g142
sg39
g143
sg30
S'Heuristieken 1'
p830
sba(ischedule
Activity
p831
(dp832
g8
g678
sg25
g26
sg27
g679
sg32
g464
sg37
g38
sg39
g143
sg30
g41
sba(ischedule
Activity
p833
(dp834
g8
g609
sg25
I1000
sg27
Nsg32
(iread_data3
Room
p835
(dp836
g25
g356
sg30
g357
sbsg37
g142
sg39
g40
sg30
g636
sba(ischedule
Activity
p837
(dp838
g8
(lp839
S'19058315'
p840
ag654
ag446
aS'51741554'
p841
ag57
aS'62363761'
p842
ag326
aS'59887191'
p843
aS'25557516'
p844
ag443
ag686
aS'12170832'
p845
ag294
ag756
aS'535689'
p846
aS'7957843'
p847
asg25
g191
sg27
(ischedule
Group
p848
(dp849
g8
g839
sg30
S'Netwerken en systeembeveiliging4'
p850
sbsg32
(iread_data3
Room
p851
(dp852
g25
g197
sg30
g198
sbsg37
g71
sg39
g765
sg30
g199
sbaa(lp853
(ischedule
Activity
p854
(dp855
g8
g811
sg25
g367
sg27
g813
sg32
g95
sg37
g71
sg39
g143
sg30
g371
sba(ischedule
Activity
p856
(dp857
g8
(lp858
g104
ag106
ag10
ag109
ag111
ag87
ag114
ag116
ag118
ag120
ag122
ag124
ag126
ag128
ag129
ag131
ag133
ag135
ag137
asg25
S'20'
p859
sg27
(ischedule
Group
p860
(dp861
g8
g858
sg30
S'Technology for games2'
p862
sbsg32
g67
sg37
g38
sg39
g40
sg30
g144
sba(ischedule
Activity
p863
(dp864
g8
g374
sg25
I1000
sg27
Nsg32
g464
sg37
g142
sg39
g143
sg30
g41
sba(ischedule
Activity
p865
(dp866
g8
(lp867
g399
ag533
ag400
ag113
ag234
ag753
ag401
ag268
ag402
aS'5595824'
p868
ag403
ag49
ag404
ag847
ag405
ag116
ag406
ag571
ag383
ag451
ag407
aS'95631564'
p869
ag130
aS'88855695'
p870
ag408
aS'2317551'
p871
ag409
ag294
ag178
ag88
ag410
ag126
ag411
ag515
ag412
ag382
ag413
ag236
ag271
ag758
ag414
aS'34110913'
p872
ag87
ag756
ag415
aS'76802764'
p873
ag416
ag381
ag417
ag702
ag418
aS'80135353'
p874
ag419
ag631
ag420
ag123
ag421
aS'15911353'
p875
ag11
ag153
ag422
ag226
ag423
ag389
ag424
ag819
ag273
aS'54772132'
p876
ag425
asg25
I1000
sg27
Nsg32
g452
sg37
g142
sg39
g40
sg30
g434
sba(ischedule
Activity
p877
(dp878
g8
(lp879
g189
ag226
ag564
ag279
ag227
aS'82412626'
p880
ag380
ag228
ag623
ag758
ag182
aS'10609762'
p881
ag162
ag229
ag493
ag518
ag230
ag152
aS'37279234'
p882
ag231
ag161
ag707
ag149
ag622
ag303
ag232
aS'56544130'
p883
ag794
ag233
ag406
ag772
ag234
ag613
ag479
ag235
aS'75446434'
p884
aS'56348773'
p885
ag236
aS'19717077'
p886
aS'65978354'
p887
ag237
ag20
ag392
ag238
ag13
ag842
ag239
aS'3678531'
p888
aS'59220392'
p889
ag240
ag180
ag276
ag241
ag439
aS'31306819'
p890
ag242
ag444
aS'33672995'
p891
ag243
aS'72526473'
p892
ag595
ag11
aS'79888156'
p893
aS'14179347'
p894
ag244
ag127
ag619
ag245
aS'77306636'
p895
aS'53139134'
p896
ag246
aS'75623387'
p897
ag269
ag247
ag386
ag590
ag248
ag646
aS'45915482'
p898
ag249
aS'6709529'
p899
ag272
ag250
aS'6939933'
p900
ag652
ag251
ag268
aS'22168693'
p901
ag252
ag591
ag489
ag253
ag548
ag21
ag254
aS'11593163'
p902
ag296
ag255
aS'58253841'
p903
ag159
ag256
ag447
aS'55530367'
p904
ag211
ag841
ag870
asg25
I1000
sg27
Nsg32
g33
sg37
g142
sg39
g143
sg30
g263
sba(ischedule
Activity
p905
(dp906
g8
(lp907
g103
ag105
ag107
ag108
ag110
ag112
ag113
ag115
ag117
ag119
ag121
ag123
ag125
ag127
ag21
ag130
ag132
ag134
ag136
asg25
g859
sg27
(ischedule
Group
p908
(dp909
g8
g907
sg30
S'Technology for games1'
p910
sbsg32
(iread_data3
Room
p911
(dp912
g25
g219
sg30
g220
sbsg37
g38
sg39
g143
sg30
g144
sbaa(lp913
(ischedule
Activity
p914
(dp915
g8
(lp916
g376
ag245
ag378
ag152
ag381
ag382
ag384
ag299
ag386
ag388
ag390
ag392
ag149
ag394
ag395
asg25
g577
sg27
(ischedule
Group
p917
(dp918
g8
g916
sg30
S'Bioinformatica3'
p919
sbsg32
g452
sg37
g71
sg39
g173
sg30
g41
sba(ischedule
Activity
p920
(dp921
g8
(lp922
g533
ag113
ag753
ag268
ag868
ag49
ag847
ag116
ag571
ag451
ag869
ag870
ag871
ag294
ag88
ag126
ag515
ag382
ag236
ag758
ag872
ag756
ag873
ag381
ag702
ag874
ag631
ag123
ag875
ag153
ag226
ag389
ag819
ag876
asg25
S'40'
p923
sg27
(ischedule
Group
p924
(dp925
g8
g922
sg30
S'Compilerbouw2'
p926
sbsg32
g464
sg37
g38
sg39
g40
sg30
g434
sba(ischedule
Activity
p927
(dp928
g8
(lp929
g290
ag442
ag291
ag596
ag292
aS'52715680'
p930
ag293
aS'64554442'
p931
ag294
ag473
ag295
ag269
ag296
ag164
ag297
ag228
ag298
ag339
ag299
ag113
ag300
ag573
ag301
aS'88596522'
p932
ag155
ag701
ag302
ag657
ag207
aS'51509565'
p933
ag303
ag543
ag304
ag425
ag305
ag238
ag244
ag416
ag306
ag61
ag307
ag270
ag308
asg25
I1000
sg27
Nsg32
g67
sg37
g142
sg39
g143
sg30
g317
sba(ischedule
Activity
p934
(dp935
g8
(lp936
g826
aS'82066165'
p937
ag120
ag447
ag238
ag489
aS'51673172'
p938
ag387
ag208
ag932
aS'41644639'
p939
ag148
ag687
aS'44151631'
p940
asg25
S'15'
p941
sg27
(ischedule
Group
p942
(dp943
g8
g936
sg30
S'Compilerbouw practicum1'
p944
sbsg32
(iread_data3
Room
p945
(dp946
g25
g315
sg30
g316
sbsg37
g71
sg39
g143
sg30
S'Compilerbouw practicum'
p947
sba(ischedule
Activity
p948
(dp949
g8
(lp950
g826
aS'59289233'
p951
ag103
ag616
ag440
ag268
aS'13798030'
p952
ag127
ag424
ag352
ag409
ag438
ag657
aS'45556081'
p953
ag786
ag590
ag443
ag476
ag275
ag546
ag563
asg25
I1000
sg27
Nsg32
(iread_data3
Room
p954
(dp955
g25
g219
sg30
g220
sbsg37
g142
sg39
g143
sg30
S'Architectuur en computerorganisatie'
p956
sbaaa(lp957
(lp958
(ischedule
Activity
p959
(dp960
g8
(lp961
g54
aS'73980360'
p962
ag180
ag118
ag228
ag621
ag509
ag299
ag107
ag822
ag510
ag631
ag803
aS'22699561'
p963
ag511
aS'1075391'
p964
ag642
aS'50184318'
p965
ag350
ag591
ag804
ag634
ag80
ag841
ag614
ag789
ag512
ag414
ag756
ag162
ag513
ag292
ag401
ag129
ag514
aS'3233378'
p966
ag657
ag953
ag515
ag757
ag530
ag76
ag18
aS'46052388'
p967
ag77
aS'64393888'
p968
ag516
ag487
ag291
ag104
ag517
ag14
ag479
ag599
ag518
ag653
ag382
ag412
ag438
aS'17575088'
p969
ag805
asg25
I1000
sg27
Nsg32
g464
sg37
g142
sg39
g40
sg30
g523
sba(ischedule
Activity
p970
(dp971
g8
g802
sg25
g519
sg27
g806
sg32
g95
sg37
g71
sg39
g143
sg30
g523
sba(ischedule
Activity
p972
(dp973
g8
(lp974
g51
ag152
ag641
ag308
ag499
ag643
ag234
ag77
ag517
ag473
ag645
ag18
ag413
ag362
ag647
ag623
ag80
ag418
ag339
ag293
ag420
ag651
ag599
ag654
ag620
ag656
ag414
ag657
ag205
ag237
ag660
ag22
ag416
ag179
ag662
ag487
asg25
g742
sg27
(ischedule
Group
p975
(dp976
g8
g974
sg30
S'Databases 22'
p977
sbsg32
g430
sg37
g38
sg39
g40
sg30
g664
sba(ischedule
Activity
p978
(dp979
g8
(lp980
g477
ag888
ag549
ag299
ag777
ag405
ag238
ag615
ag876
aS'88597745'
p981
ag629
ag255
aS'51593625'
p982
ag700
ag351
ag782
ag774
ag86
asg25
g63
sg27
(ischedule
Group
p983
(dp984
g8
g980
sg30
S'Programmeren in Java 25'
p985
sbsg32
g33
sg37
g71
sg39
S'5'
p986
sg30
g72
sba(ischedule
Activity
p987
(dp988
g8
g726
sg25
g213
sg27
g728
sg32
g452
sg37
g71
sg39
g143
sg30
g221
sba(ischedule
Activity
p989
(dp990
g8
(lp991
g644
ag86
aS'20095994'
p992
aS'42406214'
p993
aS'27805666'
p994
aS'27370083'
p995
aS'68286356'
p996
ag564
ag544
aS'51415617'
p997
ag776
ag486
ag528
ag328
aS'49922855'
p998
aS'96554914'
p999
ag780
aS'32044893'
p1000
ag190
ag60
ag442
aS'51052738'
p1001
ag16
ag106
ag80
ag149
ag517
ag57
ag403
aS'36213792'
p1002
ag10
ag570
ag416
ag930
aS'82390428'
p1003
ag114
ag267
ag58
ag353
ag565
ag495
ag446
ag661
ag163
aS'87830198'
p1004
ag135
ag594
ag394
aS'70193386'
p1005
ag341
ag417
asg25
I1000
sg27
Nsg32
g67
sg37
g142
sg39
g143
sg30
S'Reflectie op de digitale cultuur'
p1006
sba(ischedule
Activity
p1007
(dp1008
g8
(lp1009
g79
ag588
ag590
ag339
ag592
ag247
ag594
ag240
ag62
ag596
ag124
ag343
ag598
ag599
ag600
ag601
asg25
g670
sg27
(ischedule
Group
p1010
(dp1011
g8
g1009
sg30
S'Heuristieken 21'
p1012
sbsg32
(iread_data3
Room
p1013
(dp1014
g25
g219
sg30
g220
sbsg37
g38
sg39
g143
sg30
g605
sbaa(lp1015
(ischedule
Activity
p1016
(dp1017
g8
g961
sg25
I1000
sg27
Nsg32
g95
sg37
g142
sg39
g173
sg30
g523
sba(ischedule
Activity
p1018
(dp1019
g8
(lp1020
g962
ag621
ag822
ag963
ag965
ag634
ag789
ag162
ag129
ag953
ag76
ag968
ag104
ag599
ag412
asg25
g519
sg27
(ischedule
Group
p1021
(dp1022
g8
g1020
sg30
S'Collectieve Intelligentie2'
p1023
sbsg32
g500
sg37
g71
sg39
g40
sg30
g523
sba(ischedule
Activity
p1024
(dp1025
g8
(lp1026
g528
ag339
ag12
ag240
ag135
ag533
ag413
asg25
g367
sg27
(ischedule
Group
p1027
(dp1028
g8
g1026
sg30
S'Autonomous Agents 22'
p1029
sbsg32
g33
sg37
g71
sg39
g40
sg30
g371
sba(ischedule
Activity
p1030
(dp1031
g8
(lp1032
g293
ag331
ag444
ag819
ag821
ag532
ag351
ag518
ag610
ag824
ag825
ag135
ag751
ag117
ag514
ag542
ag13
ag827
ag828
ag118
ag491
ag528
asg25
S'25'
p1033
sg27
(ischedule
Group
p1034
(dp1035
g8
g1032
sg30
S'Heuristieken 12'
p1036
sbsg32
g430
sg37
g38
sg39
g40
sg30
g830
sba(ischedule
Activity
p1037
(dp1038
g8
g991
sg25
I1000
sg27
Nsg32
g452
sg37
g142
sg39
g40
sg30
g1006
sba(ischedule
Activity
p1039
(dp1040
g8
(lp1041
g45
ag327
ag330
ag332
ag333
ag336
ag339
ag342
ag158
asg25
g582
sg27
(ischedule
Group
p1042
(dp1043
g8
g1041
sg30
S'Data Mining2'
p1044
sbsg32
g67
sg37
g71
sg39
g40
sg30
g346
sbaa(lp1045
(ischedule
Activity
p1046
(dp1047
g8
g1041
sg25
g460
sg27
g1042
sg32
g452
sg37
g38
sg39
g40
sg30
g346
sba(ischedule
Activity
p1048
(dp1049
g8
(lp1050
g421
ag104
aS'51472074'
p1051
ag846
ag157
ag291
ag388
ag376
ag804
ag292
ag125
aS'5892092'
p1052
ag930
asg25
g941
sg27
(ischedule
Group
p1053
(dp1054
g8
g1050
sg30
S'Compilerbouw practicum3'
p1055
sbsg32
g430
sg37
g71
sg39
g173
sg30
g947
sba(ischedule
Activity
p1056
(dp1057
g8
g266
sg25
g320
sg27
g280
sg32
g500
sg37
g38
sg39
g143
sg30
g99
sba(ischedule
Activity
p1058
(dp1059
g8
(lp1060
g119
ag438
ag448
ag54
ag478
ag480
ag482
ag484
ag486
ag487
ag488
ag489
ag491
ag492
ag493
ag494
ag383
ag497
ag498
asg25
S'20'
p1061
sg27
(ischedule
Group
p1062
(dp1063
g8
g1060
sg30
S'Webprogrammeren en databases2'
p1064
sbsg32
g67
sg37
g38
sg39
g40
sg30
g504
sba(ischedule
Activity
p1065
(dp1066
g8
g1060
sg25
S'20'
p1067
sg27
g1062
sg32
g464
sg37
g71
sg39
g40
sg30
g504
sba(ischedule
Activity
p1068
(dp1069
g8
(lp1070
S'73350019'
p1071
aS'14637758'
p1072
ag660
ag233
aS'97838175'
p1073
ag390
ag619
ag250
ag1004
ag377
ag183
ag1005
ag256
ag629
ag178
ag441
ag58
ag528
ag165
ag330
ag592
ag444
ag253
aS'18477924'
p1074
ag210
ag883
ag240
ag642
ag544
ag106
ag891
ag655
aS'88737765'
p1075
ag563
aS'78822885'
p1076
ag540
ag648
ag114
ag21
ag868
ag827
ag615
ag626
ag495
aS'58480929'
p1077
ag599
ag774
aS'82854435'
p1078
ag654
asg25
I1000
sg27
Nsg32
g33
sg37
g142
sg39
g143
sg30
S'Analysemethoden en -technieken'
p1079
sba(ischedule
Activity
p1080
(dp1081
g8
(lp1082
g123
ag402
aS'21070547'
p1083
aS'90103047'
p1084
ag333
ag708
aS'19662602'
p1085
ag14
aS'32183908'
p1086
aS'63939720'
p1087
ag184
ag631
ag389
ag439
asg25
S'15'
p1088
sg27
(ischedule
Group
p1089
(dp1090
g8
g1082
sg30
S'Project Numerical Recipes3'
p1091
sbsg32
(iread_data3
Room
p1092
(dp1093
g25
g285
sg30
g286
sbsg37
g71
sg39
g173
sg30
S'Project Numerical Recipes'
p1094
sbaa(lp1095
(ischedule
Activity
p1096
(dp1097
g8
(lp1098
g439
ag253
ag388
ag353
ag820
ag786
ag822
ag771
ag823
ag598
ag132
ag187
ag625
ag386
ag826
ag15
ag164
ag76
ag602
ag774
ag829
ag128
asg25
g1033
sg27
(ischedule
Group
p1099
(dp1100
g8
g1098
sg30
S'Heuristieken 11'
p1101
sbsg32
g95
sg37
g38
sg39
g143
sg30
g830
sba(ischedule
Activity
p1102
(dp1103
g8
g922
sg25
g426
sg27
g924
sg32
g464
sg37
g71
sg39
g40
sg30
g434
sba(ischedule
Activity
p1104
(dp1105
g8
(lp1106
g189
ag279
ag380
ag758
ag162
ag518
ag882
ag707
ag303
ag794
ag772
ag479
ag885
ag887
ag392
ag842
ag889
ag276
ag890
ag891
ag595
ag894
ag619
ag896
ag269
ag590
ag898
ag272
ag652
ag901
ag489
ag21
ag296
ag159
ag904
ag870
asg25
g257
sg27
(ischedule
Group
p1107
(dp1108
g8
g1106
sg30
S'Calculus 21'
p1109
sbsg32
g33
sg37
g38
sg39
g143
sg30
g263
sba(ischedule
Activity
p1110
(dp1111
g8
(lp1112
g387
ag626
ag930
ag869
ag573
ag898
ag533
ag302
ag388
ag518
ag379
ag805
ag150
ag569
ag241
ag653
ag399
ag23
ag376
ag85
ag999
ag761
ag79
ag244
ag528
ag793
ag982
ag59
ag966
ag158
ag117
ag151
aS'14072826'
p1113
ag292
ag275
ag362
ag330
ag527
asg25
S'40'
p1114
sg27
(ischedule
Group
p1115
(dp1116
g8
g1112
sg30
S'Software engineering1'
p1117
sbsg32
g452
sg37
g38
sg39
g143
sg30
g559
sba(ischedule
Activity
p1118
(dp1119
g8
g202
sg25
g727
sg27
g214
sg32
g430
sg37
g38
sg39
g40
sg30
g221
sbaa(lp1120
(ischedule
Activity
p1121
(dp1122
g8
(lp1123
g128
ag1004
aS'5590289'
p1124
ag301
aS'16912993'
p1125
ag705
ag327
ag592
ag657
ag876
ag343
ag164
ag82
ag771
ag126
ag539
asg25
g191
sg27
(ischedule
Group
p1126
(dp1127
g8
g1123
sg30
S'Netwerken en systeembeveiliging3'
p1128
sbsg32
g67
sg37
g71
sg39
g173
sg30
g199
sba(ischedule
Activity
p1129
(dp1130
g8
(lp1131
g421
ag118
ag205
ag393
aS'59111489'
p1132
aS'49219163'
p1133
ag659
aS'27916487'
p1134
ag965
ag660
ag794
aS'96082155'
p1135
ag21
ag444
ag132
ag391
ag530
aS'1181560'
p1136
asg25
g91
sg27
(ischedule
Group
p1137
(dp1138
g8
g1131
sg30
S'Moderne Databases3'
p1139
sbsg32
g500
sg37
g71
sg39
g173
sg30
g99
sba(ischedule
Activity
p1140
(dp1141
g8
g916
sg25
g26
sg27
g917
sg32
(iread_data3
Room
p1142
(dp1143
g25
g140
sg30
g141
sbsg37
g38
sg39
g173
sg30
g41
sba(ischedule
Activity
p1144
(dp1145
g8
g398
sg25
g923
sg27
g427
sg32
(iread_data3
Room
p1146
(dp1147
g25
g315
sg30
g316
sbsg37
g38
sg39
g143
sg30
g434
sba(ischedule
Activity
p1148
(dp1149
g8
(lp1150
g118
ag299
ag631
ag964
ag591
ag841
ag414
ag292
ag966
ag757
ag967
ag487
ag14
ag653
ag969
asg25
g519
sg27
(ischedule
Group
p1151
(dp1152
g8
g1150
sg30
S'Collectieve Intelligentie4'
p1153
sbsg32
(iread_data3
Room
p1154
(dp1155
g25
g197
sg30
g198
sbsg37
g71
sg39
g765
sg30
g523
sbaaa(lp1156
(lp1157
(ischedule
Activity
p1158
(dp1159
g8
(lp1160
g547
ag653
ag645
aS'123355'
p1161
ag14
ag822
ag210
ag486
ag543
ag332
ag663
ag293
ag447
ag17
ag59
ag158
asg25
g191
sg27
(ischedule
Group
p1162
(dp1163
g8
g1160
sg30
S'Netwerken en systeembeveiliging1'
p1164
sbsg32
g67
sg37
g71
sg39
g143
sg30
g199
sba(ischedule
Activity
p1165
(dp1166
g8
(lp1167
g644
ag993
ag996
ag997
ag528
ag999
ag190
ag1001
ag80
ag57
ag10
ag930
ag267
ag565
ag661
ag135
ag1005
asg25
S'20'
p1168
sg27
(ischedule
Group
p1169
(dp1170
g8
g1167
sg30
S'Reflectie op de digitale cultuur1'
p1171
sbsg32
g452
sg37
g38
sg39
g143
sg30
g1006
sba(ischedule
Activity
p1172
(dp1173
g8
(lp1174
g992
ag995
ag544
ag486
ag998
ag1000
ag442
ag106
ag517
ag1002
ag416
ag114
ag353
ag446
ag1004
ag394
ag417
asg25
g1168
sg27
(ischedule
Group
p1175
(dp1176
g8
g1174
sg30
S'Reflectie op de digitale cultuur3'
p1177
sbsg32
g430
sg37
g38
sg39
g173
sg30
g1006
sba(ischedule
Activity
p1178
(dp1179
g8
g1131
sg25
g320
sg27
g1137
sg32
g500
sg37
g38
sg39
g173
sg30
g99
sba(ischedule
Activity
p1180
(dp1181
g8
g472
sg25
I1000
sg27
Nsg32
(iread_data3
Room
p1182
(dp1183
g25
g285
sg30
g286
sbsg37
g142
sg39
g40
sg30
g504
sba(ischedule
Activity
p1184
(dp1185
g8
g867
sg25
I1000
sg27
Nsg32
(iread_data3
Room
p1186
(dp1187
g25
g315
sg30
g316
sbsg37
g142
sg39
g143
sg30
g434
sba(ischedule
Activity
p1188
(dp1189
g8
(lp1190
g117
ag328
ag55
ag299
ag334
ag337
ag340
ag251
ag343
asg25
g460
sg27
(ischedule
Group
p1191
(dp1192
g8
g1190
sg30
S'Data Mining3'
p1193
sbsg32
(iread_data3
Room
p1194
(dp1195
g25
g171
sg30
g172
sbsg37
g38
sg39
g173
sg30
g346
sbaa(lp1196
(ischedule
Activity
p1197
(dp1198
g8
g1020
sg25
g735
sg27
g1021
sg32
g67
sg37
g38
sg39
g40
sg30
g523
sba(ischedule
Activity
p1199
(dp1200
g8
(lp1201
g847
ag527
ag900
ag24
ag234
ag137
aS'81116418'
p1202
ag756
ag700
ag825
ag443
ag387
ag620
ag425
ag377
asg25
g1088
sg27
(ischedule
Group
p1203
(dp1204
g8
g1201
sg30
S'Project Numerical Recipes2'
p1205
sbsg32
g452
sg37
g71
sg39
g40
sg30
g1094
sba(ischedule
Activity
p1206
(dp1207
g8
(lp1208
g189
ag569
aS'54395877'
p1209
ag829
ag439
ag276
ag350
ag207
ag11
ag595
ag226
ag364
ag414
ag228
aS'51791169'
p1210
aS'10702778'
p1211
aS'39905995'
p1212
ag653
asg25
g63
sg27
(ischedule
Group
p1213
(dp1214
g8
g1208
sg30
S'Programmeren in Java 26'
p1215
sbsg32
g500
sg37
g71
sg39
S'6'
p1216
sg30
g72
sba(ischedule
Activity
p1217
(dp1218
g8
g1190
sg25
g582
sg27
g1191
sg32
(iread_data3
Room
p1219
(dp1220
g25
g140
sg30
g141
sbsg37
g71
sg39
g173
sg30
g346
sba(ischedule
Activity
p1221
(dp1222
g8
(lp1223
g387
ag253
ag626
ag270
ag930
ag509
ag869
ag538
ag573
ag134
ag898
ag539
ag533
ag540
ag302
ag529
ag388
ag541
ag518
ag516
ag379
ag290
ag805
ag542
ag150
ag401
ag569
ag110
ag241
ag543
ag653
ag544
ag399
ag87
ag23
ag545
ag376
ag546
ag85
ag547
ag999
ag548
ag761
ag392
ag79
ag549
ag244
ag159
ag528
ag417
ag793
ag476
ag982
ag550
ag59
ag12
ag966
ag395
ag158
ag551
ag117
ag552
ag151
ag553
ag1113
ag233
ag292
ag279
ag275
ag306
ag362
ag389
ag330
ag554
ag527
asg25
I1000
sg27
Nsg32
(iread_data3
Room
p1224
(dp1225
g25
g315
sg30
g316
sbsg37
g142
sg39
g143
sg30
g559
sba(ischedule
Activity
p1226
(dp1227
g8
(lp1228
g442
ag596
ag930
ag931
ag473
ag269
ag164
ag228
ag339
ag113
ag573
ag932
ag701
ag657
ag933
ag543
ag425
ag238
ag416
ag61
ag270
asg25
S'25'
p1229
sg27
(ischedule
Group
p1230
(dp1231
g8
g1228
sg30
S'Algoritmen en complexiteit2'
p1232
sbsg32
(iread_data3
Room
p1233
(dp1234
g25
g171
sg30
g172
sbsg37
g38
sg39
g40
sg30
g317
sba(ischedule
Activity
p1235
(dp1236
g8
(lp1237
g1075
aS'75680261'
p1238
ag903
aS'55480737'
p1239
ag381
ag939
ag706
ag492
ag267
ag660
ag529
ag646
asg25
g688
sg27
(ischedule
Group
p1240
(dp1241
g8
g1237
sg30
S'Project Genetic Algorithms1'
p1242
sbsg32
(iread_data3
Room
p1243
(dp1244
g25
g285
sg30
g286
sbsg37
g71
sg39
g143
sg30
g694
sbaa(lp1245
(ischedule
Activity
p1246
(dp1247
g8
g950
sg25
I1000
sg27
Nsg32
g33
sg37
g142
sg39
g40
sg30
g956
sba(ischedule
Activity
p1248
(dp1249
g8
g537
sg25
g1114
sg27
g556
sg32
g67
sg37
g38
sg39
g40
sg30
g559
sba(ischedule
Activity
p1250
(dp1251
g8
g1112
sg25
g555
sg27
g1115
sg32
g452
sg37
g71
sg39
g143
sg30
g559
sba(ischedule
Activity
p1252
(dp1253
g8
(lp1254
g1004
ag641
ag937
ag515
ag590
ag423
ag938
ag894
ag516
ag114
ag803
ag301
asg25
g688
sg27
(ischedule
Group
p1255
(dp1256
g8
g1254
sg30
S'Project Genetic Algorithms3'
p1257
sbsg32
g500
sg37
g71
sg39
g173
sg30
g694
sba(ischedule
Activity
p1258
(dp1259
g8
g361
sg25
g812
sg27
g368
sg32
(iread_data3
Room
p1260
(dp1261
g25
g285
sg30
g286
sbsg37
g38
sg39
g173
sg30
g371
sba(ischedule
Activity
p1262
(dp1263
g8
g1228
sg25
g309
sg27
g1230
sg32
(iread_data3
Room
p1264
(dp1265
g25
g171
sg30
g172
sbsg37
g71
sg39
g40
sg30
g317
sba(ischedule
Activity
p1266
(dp1267
g8
(lp1268
S'91250534'
p1269
ag625
ag407
ag648
ag704
aS'55103073'
p1270
ag685
aS'42297781'
p1271
aS'47260040'
p1272
aS'64418623'
p1273
ag595
ag160
aS'1695839'
p1274
asg25
g941
sg27
(ischedule
Group
p1275
(dp1276
g8
g1268
sg30
S'Compilerbouw practicum2'
p1277
sbsg32
(iread_data3
Room
p1278
(dp1279
g25
g140
sg30
g141
sbsg37
g71
sg39
g40
sg30
g947
sbaa(lp1280
(ischedule
Activity
p1281
(dp1282
g8
g961
sg25
I1000
sg27
Nsg32
g67
sg37
g142
sg39
g143
sg30
g523
sba(ischedule
Activity
p1283
(dp1284
g8
g526
sg25
I1000
sg27
Nsg32
g430
sg37
g142
sg39
g40
sg30
g371
sba(ischedule
Activity
p1285
(dp1286
g8
(lp1287
g343
ag793
aS'34691309'
p1288
ag565
ag993
aS'37419523'
p1289
ag1000
aS'40911986'
p1290
ag517
ag243
ag613
ag134
ag153
ag401
ag273
asg25
g1088
sg27
(ischedule
Group
p1291
(dp1292
g8
g1287
sg30
S'Project Numerical Recipes1'
p1293
sbsg32
g500
sg37
g71
sg39
g143
sg30
g1094
sba(ischedule
Activity
p1294
(dp1295
g8
(lp1296
S'90296821'
p1297
ag968
ag16
ag874
ag256
ag474
ag871
aS'64053722'
p1298
ag129
ag418
ag333
ag303
ag634
ag206
ag882
ag20
aS'73196865'
p1299
ag181
ag227
asg25
g63
sg27
(ischedule
Group
p1300
(dp1301
g8
g1296
sg30
S'Programmeren in Java 21'
p1302
sbsg32
g95
sg37
g71
sg39
g143
sg30
g72
sba(ischedule
Activity
p1303
(dp1304
g8
(lp1305
g86
ag994
ag564
ag776
ag328
ag780
ag60
ag16
ag149
ag403
ag570
ag1003
ag58
ag495
ag163
ag594
ag341
asg25
g1168
sg27
(ischedule
Group
p1306
(dp1307
g8
g1305
sg30
S'Reflectie op de digitale cultuur2'
p1308
sbsg32
g452
sg37
g38
sg39
g40
sg30
g1006
sba(ischedule
Activity
p1309
(dp1310
g8
g768
sg25
I1000
sg27
Nsg32
g33
sg37
g142
sg39
g40
sg30
g798
sba(ischedule
Activity
p1311
(dp1312
g8
(lp1313
g267
ag76
ag421
ag116
ag77
ag118
ag268
ag78
ag205
ag249
ag79
ag393
ag269
ag80
ag1132
ag270
ag48
ag1133
ag271
ag57
ag659
ag20
ag81
ag1134
ag272
ag82
ag965
ag273
ag83
ag660
ag274
ag84
ag794
ag275
ag51
ag1135
ag10
ag85
ag21
ag276
ag86
ag444
ag277
ag87
ag132
ag203
ag88
ag391
ag278
ag89
ag530
ag279
ag90
ag1136
asg25
I1000
sg27
Nsg32
g464
sg37
g142
sg39
g143
sg30
g99
sbaa(lp1314
(ischedule
Activity
p1315
(dp1316
g8
(lp1317
g564
ag880
ag623
ag881
ag493
ag152
ag161
ag622
ag883
ag406
ag613
ag884
ag886
ag20
ag13
ag888
ag180
ag439
ag444
ag892
ag893
ag127
ag895
ag897
ag386
ag646
ag899
ag900
ag268
ag591
ag548
ag902
ag903
ag447
ag841
asg25
g257
sg27
(ischedule
Group
p1318
(dp1319
g8
g1317
sg30
S'Calculus 23'
p1320
sbsg32
g430
sg37
g38
sg39
g173
sg30
g263
sba(ischedule
Activity
p1321
(dp1322
g8
g349
sg25
I1000
sg27
Nsg32
g464
sg37
g142
sg39
g40
sg30
g221
sba(ischedule
Activity
p1323
(dp1324
g8
(lp1325
g438
ag439
ag441
ag442
ag255
ag443
ag445
ag446
ag448
ag450
asg25
g716
sg27
(ischedule
Group
p1326
(dp1327
g8
g1325
sg30
S'Advanced Heuristics1'
p1328
sbsg32
g452
sg37
g71
sg39
g143
sg30
g456
sba(ischedule
Activity
p1329
(dp1330
g8
(lp1331
g473
ag474
ag475
ag476
ag477
ag479
ag481
ag483
ag485
ag425
ag379
ag307
ag490
ag79
ag103
ag231
ag495
ag496
ag275
ag499
asg25
g1061
sg27
(ischedule
Group
p1332
(dp1333
g8
g1331
sg30
S'Webprogrammeren en databases1'
p1334
sbsg32
g67
sg37
g38
sg39
g143
sg30
g504
sba(ischedule
Activity
p1335
(dp1336
g8
g1331
sg25
g1067
sg27
g1332
sg32
g95
sg37
g71
sg39
g143
sg30
g504
sba(ischedule
Activity
p1337
(dp1338
g8
g289
sg25
g1229
sg27
g310
sg32
g500
sg37
g38
sg39
g143
sg30
g317
sba(ischedule
Activity
p1339
(dp1340
g8
g1026
sg25
g812
sg27
g1027
sg32
(iread_data3
Room
p1341
(dp1342
g25
g315
sg30
g316
sbsg37
g38
sg39
g40
sg30
g371
sbaaa(lp1343
(lp1344
a(lp1345
a(lp1346
(ischedule
Activity
p1347
(dp1348
g8
g1150
sg25
g735
sg27
g1151
sg32
(iread_data3
Room
p1349
(dp1350
g25
g315
sg30
g316
sbsg37
g38
sg39
g765
sg30
g523
sbaa(lp1351
a(lp1352
aasS'timeslot_dict'
p1353
(dp1354
I0
S'9:00-11:00'
p1355
sI1
S'11:00-13:00'
p1356
sI2
S'13:00-15:00'
p1357
sI3
S'15:00-17:00'
p1358
sI4
S'17:00-19:00'
p1359
ssS'day_dict'
p1360
(dp1361
I0
S'Monday'
p1362
sI1
S'Tuesday'
p1363
sI2
S'Wednesday'
p1364
sI3
S'Thursday'
p1365
sI4
S'Friday'
p1366
ssb.