(ischedule
Schedule
p0
(dp1
S'timetable'
p2
(lp3
(lp4
(lp5
(ischedule
Activity
p6
(dp7
S'participants'
p8
(lp9
S'11459236'
p10
aS'8557857'
p11
aS'19958553'
p12
aS'62701040'
p13
aS'75521763'
p14
aS'23257088'
p15
aS'18266644'
p16
aS'29718115'
p17
aS'13658563'
p18
aS'44901052'
p19
aS'75585647'
p20
aS'68315599'
p21
aS'77636749'
p22
aS'36748818'
p23
aS'92977271'
p24
aS'70878567'
p25
aS'32204977'
p26
aS'23983476'
p27
aS'58332004'
p28
aS'13116738'
p29
aS'17496687'
p30
asS'capacity'
p31
I1000
sS'name'
p32
S'Informatie- en organsatieontwerp'
p33
sS'ttype'
p34
S'lectures'
p35
sS'group_id'
p36
I0
sS'room'
p37
(iread_data
Room
p38
(dp39
g31
S'60'
p40
sg32
S'C1.112'
p41
sbsba(ischedule
Activity
p42
(dp43
g8
(lp44
S'67073567'
p45
aS'57086672'
p46
aS'40434933'
p47
aS'78243495'
p48
aS'2416751'
p49
aS'41790793'
p50
aS'53202517'
p51
aS'1137946'
p52
aS'69459473'
p53
aS'24891081'
p54
aS'17092717'
p55
aS'61443567'
p56
aS'77392404'
p57
aS'53512831'
p58
aS'27064249'
p59
aS'5615125'
p60
aS'16333449'
p61
aS'72895450'
p62
aS'64228258'
p63
asg31
S'20'
p64
sg32
S'Webprogrammeren en databases'
p65
sg34
S'labs'
p66
sg36
S'1'
p67
sg37
(iread_data
Room
p68
(dp69
g31
S'41'
p70
sg32
S'A1.04'
p71
sbsba(ischedule
Activity
p72
(dp73
g8
(lp74
S'26406342'
p75
aS'65960683'
p76
aS'7308727'
p77
aS'57595888'
p78
aS'48601268'
p79
aS'17222374'
p80
aS'22699561'
p81
aS'34773179'
p82
aS'25106480'
p83
aS'76123484'
p84
ag13
aS'31416266'
p85
aS'50143947'
p86
aS'64393888'
p87
aS'29640619'
p88
aS'53107172'
p89
aS'77896638'
p90
aS'28357474'
p91
aS'86000192'
p92
aS'3233378'
p93
aS'17575088'
p94
aS'73980360'
p95
ag63
aS'50184318'
p96
aS'24277163'
p97
aS'37770881'
p98
aS'51741554'
p99
aS'42778953'
p100
ag56
aS'1075391'
p101
aS'35330349'
p102
aS'5517869'
p103
aS'1696500'
p104
aS'13534377'
p105
aS'29474737'
p106
aS'45556081'
p107
aS'77240949'
p108
aS'86291592'
p109
aS'97135019'
p110
aS'87758823'
p111
aS'4783858'
p112
aS'54310617'
p113
aS'42171678'
p114
aS'43027916'
p115
ag14
aS'9332762'
p116
aS'96104167'
p117
aS'21964491'
p118
aS'15902055'
p119
aS'23547619'
p120
aS'33760909'
p121
aS'58522654'
p122
aS'42196732'
p123
aS'46052388'
p124
aS'72577292'
p125
aS'68601184'
p126
aS'82689818'
p127
aS'60312776'
p128
aS'64296965'
p129
aS'1665980'
p130
aS'13092455'
p131
asg31
I1000
sg32
S'Collectieve Intelligentie'
p132
sg34
g35
sg36
I0
sg37
(iread_data
Room
p133
(dp134
g31
S'48'
p135
sg32
S'B0.201'
p136
sbsba(ischedule
Activity
p137
(dp138
g8
(lp139
S'52715680'
p140
aS'99272880'
p141
ag10
aS'72665524'
p142
aS'88596522'
p143
aS'41644639'
p144
aS'51472074'
p145
aS'14383795'
p146
aS'4568018'
p147
aS'44151631'
p148
aS'51673172'
p149
asg31
S'15'
p150
sg32
S'Compilerbouw practicum'
p151
sg34
g66
sg36
S'2'
p152
sg37
(iread_data
Room
p153
(dp154
g31
S'117'
p155
sg32
S'C0.110'
p156
sbsba(ischedule
Activity
p157
(dp158
g8
(lp159
S'19858730'
p160
aS'88627897'
p161
aS'16097870'
p162
aS'37110913'
p163
aS'51566595'
p164
aS'61611295'
p165
aS'74131924'
p166
aS'54026378'
p167
aS'27298319'
p168
aS'70113753'
p169
asg31
S'10'
p170
sg32
S'Autonomous Agents 2'
p171
sg34
S'tutorials'
p172
sg36
g152
sg37
(iread_data
Room
p173
(dp174
g31
S'22'
p175
sg32
S'A1.06'
p176
sbsbaa(lp177
(ischedule
Activity
p178
(dp179
g8
(lp180
S'65318664'
p181
aS'88176729'
p182
aS'27582862'
p183
aS'83210352'
p184
aS'31103066'
p185
aS'4546613'
p186
aS'13718298'
p187
aS'80709893'
p188
aS'58074656'
p189
aS'1048485'
p190
ag88
ag91
aS'21095566'
p191
aS'99283252'
p192
aS'27950803'
p193
ag93
aS'14072826'
p194
ag112
aS'41153310'
p195
aS'73302736'
p196
aS'84110134'
p197
aS'52552718'
p198
aS'62105897'
p199
aS'70015932'
p200
aS'48357272'
p201
aS'31247305'
p202
aS'73236988'
p203
aS'96554914'
p204
aS'14309255'
p205
ag79
aS'22871048'
p206
ag128
aS'40343779'
p207
aS'75599734'
p208
aS'37744525'
p209
aS'9287708'
p210
aS'82872148'
p211
aS'43460038'
p212
asg31
S'40'
p213
sg32
S'Software engineering'
p214
sg34
g172
sg36
g152
sg37
g38
sba(ischedule
Activity
p215
(dp216
g8
(lp217
S'87602030'
p218
aS'75680261'
p219
aS'82066165'
p220
aS'74361881'
p221
aS'88737765'
p222
aS'76661016'
p223
ag53
aS'84449005'
p224
aS'5526560'
p225
asg31
S'15'
p226
sg32
S'Project Genetic Algorithms'
p227
sg34
g66
sg36
S'3'
p228
sg37
(iread_data
Room
p229
(dp230
g31
S'56'
p231
sg32
S'A1.10'
p232
sbsba(ischedule
Activity
p233
(dp234
g8
(lp235
S'33930505'
p236
ag118
aS'21029457'
p237
aS'20883994'
p238
aS'96054456'
p239
aS'247918'
p240
aS'5298748'
p241
aS'33877725'
p242
aS'11068043'
p243
aS'96453361'
p244
aS'56749879'
p245
aS'43680781'
p246
aS'22826928'
p247
asg31
S'20'
p248
sg32
S'Bioinformatica'
p249
sg34
g66
sg36
g228
sg37
(iread_data
Room
p250
(dp251
g31
g70
sg32
g71
sbsba(ischedule
Activity
p252
(dp253
g8
(lp254
g10
ag16
ag20
ag28
ag30
ag11
ag23
ag25
ag15
ag27
ag19
ag26
ag21
ag17
ag13
asg31
S'15'
p255
sg32
g33
sg34
g66
sg36
g67
sg37
(iread_data
Room
p256
(dp257
g31
g135
sg32
g136
sbsba(ischedule
Activity
p258
(dp259
g8
(lp260
g125
aS'14303208'
p261
aS'76648468'
p262
aS'43902015'
p263
ag60
aS'22288615'
p264
aS'89180944'
p265
ag63
aS'20618153'
p266
aS'10698627'
p267
ag57
aS'28358060'
p268
ag51
ag61
ag55
aS'49908313'
p269
ag45
asg31
S'20'
p270
sg32
g65
sg34
g172
sg36
g152
sg37
(iread_data
Room
p271
(dp272
g31
g155
sg32
g156
sbsba(ischedule
Activity
p273
(dp274
g8
(lp275
S'63408522'
p276
aS'41585485'
p277
aS'97371272'
p278
aS'84524083'
p279
aS'27187154'
p280
aS'74182182'
p281
aS'69086548'
p282
aS'94955328'
p283
aS'55474917'
p284
aS'56988998'
p285
ag108
aS'78735049'
p286
aS'8522855'
p287
ag28
aS'28957789'
p288
aS'9731271'
p289
aS'47462856'
p290
ag141
ag16
aS'39659121'
p291
aS'97019450'
p292
aS'3685034'
p293
aS'72547110'
p294
aS'31633723'
p295
ag197
aS'78136904'
p296
ag113
ag122
ag22
aS'38329455'
p297
aS'32705005'
p298
aS'59075181'
p299
aS'34262212'
p300
ag129
aS'38499176'
p301
aS'76924297'
p302
aS'51542218'
p303
aS'14591033'
p304
aS'49631542'
p305
aS'59544049'
p306
aS'10872825'
p307
aS'41527759'
p308
aS'36903574'
p309
ag245
aS'23391676'
p310
aS'20331158'
p311
aS'7492204'
p312
aS'20239127'
p313
ag238
aS'91196968'
p314
aS'37498675'
p315
aS'81218347'
p316
ag202
aS'54569540'
p317
aS'39230359'
p318
ag239
aS'14398123'
p319
aS'23798155'
p320
aS'94467156'
p321
aS'14671406'
p322
aS'11915563'
p323
aS'79366078'
p324
aS'22731474'
p325
aS'42115591'
p326
aS'47605891'
p327
aS'24875739'
p328
ag60
aS'82688900'
p329
aS'79858178'
p330
aS'63955238'
p331
aS'91139627'
p332
aS'46570285'
p333
aS'34243356'
p334
aS'58469172'
p335
aS'51186803'
p336
aS'89338938'
p337
aS'5368702'
p338
aS'44940353'
p339
aS'39919665'
p340
aS'63634350'
p341
aS'61518436'
p342
aS'10792879'
p343
aS'65003379'
p344
aS'17823206'
p345
asg31
I1000
sg32
S'Kansrekenen 2'
p346
sg34
g35
sg36
I0
sg37
(iread_data
Room
p347
(dp348
g31
g175
sg32
g176
sbsba(ischedule
Activity
p349
(dp350
g8
(lp351
S'63111000'
p352
aS'39459642'
p353
aS'15051051'
p354
aS'40791377'
p355
ag321
ag108
aS'85236626'
p356
aS'90067329'
p357
ag320
aS'5976174'
p358
aS'49683101'
p359
ag342
aS'67625383'
p360
ag285
aS'46701583'
p361
aS'33252501'
p362
ag280
ag209
aS'2079771'
p363
ag293
aS'26857113'
p364
aS'38296757'
p365
asg31
I1000
sg32
S'Machine Learning'
p366
sg34
g35
sg36
I0
sg37
(iread_data
Room
p367
(dp368
g31
S'20'
p369
sg32
S'A1.08'
p370
sbsbaa(lp371
(ischedule
Activity
p372
(dp373
g8
(lp374
S'79617364'
p375
aS'93566383'
p376
ag102
aS'80998260'
p377
aS'96118484'
p378
aS'3474870'
p379
ag284
aS'37399898'
p380
ag100
aS'94686490'
p381
ag304
aS'23565001'
p382
aS'16011419'
p383
aS'56872729'
p384
ag334
ag85
aS'10149535'
p385
ag281
aS'79937969'
p386
ag326
aS'66570705'
p387
aS'4921119'
p388
aS'75005528'
p389
ag314
aS'62872965'
p390
aS'61060652'
p391
aS'670011'
p392
ag103
aS'58866007'
p393
aS'21311067'
p394
aS'36527838'
p395
aS'90743504'
p396
aS'26172512'
p397
ag301
aS'81385263'
p398
ag316
aS'41578612'
p399
aS'54074680'
p400
aS'48308205'
p401
ag184
ag90
aS'55412918'
p402
aS'34588570'
p403
ag188
ag283
aS'52311353'
p404
aS'71839156'
p405
aS'68409833'
p406
aS'32595335'
p407
ag111
ag162
ag61
ag123
aS'36508571'
p408
asg31
I1000
sg32
S'Lineaire Algebra'
p409
sg34
g35
sg36
I0
sg37
g38
sba(ischedule
Activity
p410
(dp411
g8
(lp412
g45
ag125
ag46
ag261
ag47
aS'66034145'
p413
ag48
ag262
ag269
ag242
ag49
aS'76903244'
p414
ag50
ag263
ag58
ag212
ag51
aS'94930277'
p415
ag52
ag60
ag318
ag59
ag53
ag264
aS'6249823'
p416
ag62
ag84
ag265
ag379
ag63
ag54
ag266
ag55
ag267
ag56
ag57
ag61
ag268
aS'14847953'
p417
asg31
I1000
sg32
g65
sg34
g35
sg36
I0
sg37
(iread_data
Room
p418
(dp419
g31
g231
sg32
g232
sbsba(ischedule
Activity
p420
(dp421
g8
g9
sg31
I1000
sg32
g33
sg34
g35
sg36
I0
sg37
(iread_data
Room
p422
(dp423
g31
g135
sg32
g136
sbsba(ischedule
Activity
p424
(dp425
g8
(lp426
S'33776961'
p427
ag21
ag80
aS'83266686'
p428
aS'27241113'
p429
aS'83415514'
p430
ag114
ag205
aS'29526540'
p431
ag290
ag97
ag305
aS'30658799'
p432
aS'48198668'
p433
aS'77376714'
p434
aS'41489515'
p435
aS'70072978'
p436
ag48
ag14
aS'78443067'
p437
aS'3883025'
p438
aS'1766560'
p439
aS'27916487'
p440
ag354
aS'64600457'
p441
aS'78821918'
p442
aS'1181560'
p443
aS'58592894'
p444
aS'11996292'
p445
ag352
aS'66621166'
p446
ag28
aS'4709948'
p447
aS'18144425'
p448
aS'59111489'
p449
aS'75997788'
p450
aS'49219163'
p451
aS'85335143'
p452
ag395
ag265
aS'51650744'
p453
ag96
ag192
aS'11741347'
p454
aS'58699305'
p455
aS'13218321'
p456
aS'13911001'
p457
ag224
aS'96082155'
p458
ag333
ag23
ag246
aS'78544592'
p459
ag103
asg31
I1000
sg32
S'Moderne Databases'
p460
sg34
g35
sg36
I0
sg37
(iread_data
Room
p461
(dp462
g31
g155
sg32
g156
sbsba(ischedule
Activity
p463
(dp464
g8
(lp465
S'98780382'
p466
ag164
aS'25330192'
p467
aS'45414528'
p468
ag29
aS'93023961'
p469
aS'68360259'
p470
ag209
aS'19337738'
p471
aS'22323043'
p472
aS'66122625'
p473
ag86
ag345
asg31
S'10'
p474
sg32
S'Data Mining'
p475
sg34
g172
sg36
g67
sg37
(iread_data
Room
p476
(dp477
g31
g369
sg32
g370
sbsba(ischedule
Activity
p478
(dp479
g8
(lp480
S'59753700'
p481
asg31
g474
sg32
g475
sg34
g172
sg36
g228
sg37
(iread_data
Room
p482
(dp483
g31
g175
sg32
g176
sbsbaa(lp484
(ischedule
Activity
p485
(dp486
g8
(lp487
g76
ag80
ag84
ag87
ag91
ag95
ag98
ag101
ag109
ag116
ag120
ag128
ag104
ag113
ag92
ag79
ag85
asg31
S'20'
p488
sg32
g132
sg34
g172
sg36
g152
sg37
g38
sba(ischedule
Activity
p489
(dp490
g8
(lp491
g300
ag169
aS'3678531'
p492
ag312
ag392
ag353
ag49
ag283
aS'79167252'
p493
aS'88597745'
p494
aS'86807027'
p495
aS'23215240'
p496
aS'77960666'
p497
aS'63096281'
p498
ag345
ag199
aS'90296821'
p499
asg31
S'20'
p500
sg32
S'Programmeren in Java 2'
p501
sg34
g66
sg36
S'4'
p502
sg37
g229
sba(ischedule
Activity
p503
(dp504
g8
(lp505
S'57467488'
p506
ag118
ag309
aS'51509565'
p507
ag164
ag62
ag263
aS'66433883'
p508
ag140
ag119
aS'64554442'
p509
aS'34765676'
p510
ag143
ag191
aS'91527663'
p511
ag130
aS'12077419'
p512
ag444
ag358
ag308
asg31
S'25'
p513
sg32
S'Algoritmen en complexiteit'
p514
sg34
g66
sg36
g152
sg37
(iread_data
Room
p515
(dp516
g31
g369
sg32
g370
sbsba(ischedule
Activity
p517
(dp518
g8
(lp519
g186
ag338
aS'81200278'
p520
aS'20374340'
p521
ag417
ag398
aS'3707829'
p522
aS'28055464'
p523
aS'44828429'
p524
ag120
aS'69634191'
p525
ag302
aS'37701751'
p526
aS'38179241'
p527
aS'21677389'
p528
ag376
aS'65675896'
p529
aS'81155296'
p530
ag380
ag223
aS'64768422'
p531
ag413
aS'2550487'
p532
ag510
aS'19214659'
p533
asg31
I1000
sg32
S'Interactie-ontwerp'
p534
sg34
g35
sg36
I0
sg37
(iread_data
Room
p535
(dp536
g31
g135
sg32
g136
sbsba(ischedule
Activity
p537
(dp538
g8
(lp539
g14
ag292
ag163
aS'76393508'
p540
ag206
ag506
ag415
aS'83443653'
p541
ag114
ag201
ag147
ag311
ag245
ag304
ag405
aS'97417002'
p542
ag445
ag495
ag450
aS'98105190'
p543
ag309
ag391
aS'58736785'
p544
aS'14941752'
p545
asg31
S'25'
p546
sg32
S'Heuristieken 1'
p547
sg34
g172
sg36
g67
sg37
(iread_data
Room
p548
(dp549
g31
g155
sg32
g156
sbsba(ischedule
Activity
p550
(dp551
g8
(lp552
g19
ag25
ag27
ag24
ag30
ag17
ag18
ag21
ag12
ag16
asg31
S'15'
p553
sg32
g33
sg34
g172
sg36
g152
sg37
(iread_data
Room
p554
(dp555
g31
g70
sg32
g71
sbsba(ischedule
Activity
p556
(dp557
g8
(lp558
g197
aS'88752563'
p559
aS'63573738'
p560
aS'12430748'
p561
aS'77831658'
p562
asg31
S'15'
p563
sg32
S'Project Numerical Recipes'
p564
sg34
g66
sg36
g152
sg37
(iread_data
Room
p565
(dp566
g31
g175
sg32
g176
sbsbaa(lp567
(ischedule
Activity
p568
(dp569
g8
(lp570
g353
ag160
aS'62356458'
p571
ag19
ag161
ag169
ag103
ag162
ag406
ag166
ag163
aS'34806836'
p572
ag206
ag164
aS'72796858'
p573
ag167
ag323
ag168
ag408
ag165
ag198
ag390
asg31
I1000
sg32
g171
sg34
g35
sg36
I0
sg37
(iread_data
Room
p574
(dp575
g31
g155
sg32
g156
sbsba(ischedule
Activity
p576
(dp577
g8
(lp578
S'75664412'
p579
aS'19058315'
p580
aS'85284256'
p581
aS'59887191'
p582
aS'87830198'
p583
ag506
ag528
aS'535689'
p584
ag438
aS'72456780'
p585
ag109
aS'56191333'
p586
aS'66120270'
p587
ag309
aS'5590289'
p588
asg31
S'20'
p589
sg32
S'Netwerken en systeembeveiliging'
p590
sg34
g66
sg36
g152
sg37
(iread_data
Room
p591
(dp592
g31
g70
sg32
g71
sbsba(ischedule
Activity
p593
(dp594
g8
g74
sg31
I1000
sg32
g132
sg34
g35
sg36
I0
sg37
(iread_data
Room
p595
(dp596
g31
g175
sg32
g176
sbsba(ischedule
Activity
p597
(dp598
g8
(lp599
S'24613625'
p600
ag203
ag236
ag562
ag237
ag238
ag241
ag242
ag243
ag441
ag325
ag167
aS'89985072'
p601
asg31
S'20'
p602
sg32
g249
sg34
g172
sg36
g228
sg37
(iread_data
Room
p603
(dp604
g31
g40
sg32
g41
sbsba(ischedule
Activity
p605
(dp606
g8
(lp607
S'75759231'
p608
ag208
ag338
ag579
ag355
aS'13284244'
p609
ag454
ag343
ag600
ag109
aS'3407554'
p610
ag223
aS'31194811'
p611
ag334
aS'43689934'
p612
ag122
aS'65852230'
p613
ag401
ag205
aS'15911353'
p614
ag432
ag428
ag323
aS'6723948'
p615
ag543
aS'88636924'
p616
ag439
aS'66701209'
p617
ag62
ag457
ag128
aS'5595824'
p618
ag90
ag51
ag559
aS'92665222'
p619
aS'79033175'
p620
aS'80135353'
p621
aS'88855695'
p622
aS'86988337'
p623
aS'48503689'
p624
aS'8464817'
p625
asg31
S'40'
p626
sg32
S'Compilerbouw'
p627
sg34
g66
sg36
g152
sg37
(iread_data
Room
p628
(dp629
g31
g231
sg32
g232
sbsba(ischedule
Activity
p630
(dp631
g8
(lp632
g466
ag25
ag471
ag164
ag29
ag473
aS'99453514'
p633
ag163
ag481
ag467
aS'87314964'
p634
ag86
ag520
aS'97136582'
p635
ag118
ag166
ag404
aS'81022997'
p636
aS'13996448'
p637
ag469
ag470
aS'87900893'
p638
ag345
ag209
ag468
ag314
ag472
asg31
I1000
sg32
g475
sg34
g35
sg36
I0
sg37
(iread_data
Room
p639
(dp640
g31
g135
sg32
g136
sbsba(ischedule
Activity
p641
(dp642
g8
(lp643
g506
ag507
aS'67817269'
p644
ag263
ag119
ag509
ag398
ag510
ag86
ag143
ag191
ag127
ag168
ag308
ag511
ag524
ag27
ag444
ag434
aS'26260141'
p645
ag277
ag244
asg31
S'25'
p646
sg32
g514
sg34
g172
sg36
g152
sg37
(iread_data
Room
p647
(dp648
g31
g369
sg32
g370
sbsbaaa(lp649
(lp650
(ischedule
Activity
p651
(dp652
g8
(lp653
g77
ag81
ag13
ag102
ag110
ag114
ag117
ag125
ag129
ag115
asg31
g488
sg32
g132
sg34
g172
sg36
g228
sg37
(iread_data
Room
p654
(dp655
g31
g175
sg32
g176
sbsba(ischedule
Activity
p656
(dp657
g8
(lp658
g10
ag14
ag20
ag22
ag26
ag28
ag23
ag29
ag15
ag13
ag11
asg31
g553
sg32
g33
sg34
g172
sg36
g67
sg37
(iread_data
Room
p659
(dp660
g31
g135
sg32
g136
sbsba(ischedule
Activity
p661
(dp662
g8
(lp663
S'90474003'
p664
aS'27805666'
p665
ag380
ag206
ag204
aS'92778619'
p666
ag131
ag97
ag163
ag187
ag224
aS'60661905'
p667
ag497
ag365
ag293
aS'6913074'
p668
ag583
aS'70193386'
p669
ag57
aS'51415617'
p670
aS'42406214'
p671
ag279
ag342
aS'99975346'
p672
aS'36785409'
p673
ag623
aS'68286356'
p674
ag18
ag399
ag313
aS'20095994'
p675
ag246
aS'82390428'
p676
ag447
ag481
ag46
ag633
aS'32044893'
p677
ag140
ag427
ag193
ag296
aS'36213792'
p678
aS'70844780'
p679
aS'60352393'
p680
aS'49922855'
p681
aS'51052738'
p682
ag247
aS'27370083'
p683
ag241
ag317
asg31
I1000
sg32
S'Reflectie op de digitale cultuur'
p684
sg34
g35
sg36
I0
sg37
g38
sba(ischedule
Activity
p685
(dp686
g8
(lp687
g404
ag181
ag322
ag182
ag242
ag183
ag147
ag184
ag323
ag185
ag209
ag358
ag265
ag326
ag83
ag186
aS'37830626'
p688
ag187
aS'95631564'
p689
ag188
ag571
ag189
aS'51593625'
p690
ag190
aS'58565406'
p691
ag88
ag167
ag91
ag284
ag191
aS'44671041'
p692
ag192
aS'3727435'
p693
ag337
ag210
ag193
ag48
ag93
ag437
ag194
ag391
aS'65408517'
p694
ag243
ag112
ag321
ag195
ag434
ag196
aS'44868097'
p695
ag197
ag601
ag198
aS'45915482'
p696
ag295
ag308
ag199
ag208
ag200
ag645
ag201
ag406
ag202
ag140
ag203
ag306
ag204
ag472
ag205
ag207
ag79
ag211
ag206
ag212
ag128
ag86
asg31
I1000
sg32
g214
sg34
g35
sg36
I0
sg37
(iread_data
Room
p697
(dp698
g31
g155
sg32
g156
sbsba(ischedule
Activity
p699
(dp700
g8
(lp701
g203
ag363
aS'2317551'
p702
ag512
ag193
aS'54772132'
p703
aS'44391517'
p704
aS'95007221'
p705
ag98
ag353
ag280
ag359
ag100
ag76
ag689
ag21
aS'34110913'
p706
aS'76802764'
p707
aS'94687383'
p708
ag279
ag573
aS'46989508'
p709
aS'34872117'
p710
aS'7957843'
p711
ag493
aS'9067939'
p712
ag398
asg31
g626
sg32
g627
sg34
g66
sg36
g67
sg37
(iread_data
Room
p713
(dp714
g31
g369
sg32
g370
sbsba(ischedule
Activity
p715
(dp716
g8
(lp717
g325
ag122
ag600
ag304
ag244
ag203
ag25
ag167
ag236
ag182
ag354
ag118
aS'30050930'
p718
ag615
aS'28359697'
p719
ag166
ag601
ag562
ag452
ag306
ag237
ag587
ag245
ag247
ag520
aS'14816774'
p720
ag238
ag246
ag147
ag239
aS'3168419'
p721
aS'30195935'
p722
ag240
ag441
ag77
ag241
aS'56815156'
p723
ag123
ag242
ag695
ag431
ag243
ag375
ag51
ag668
asg31
I1000
sg32
g249
sg34
g35
sg36
I0
sg37
(iread_data
Room
p724
(dp725
g31
g70
sg32
g71
sbsba(ischedule
Activity
p726
(dp727
g8
g412
sg31
I1000
sg32
g65
sg34
g35
sg36
I0
sg37
(iread_data
Room
p728
(dp729
g31
g231
sg32
g232
sbsbaa(lp730
(ischedule
Activity
p731
(dp732
g8
(lp733
g341
ag672
aS'83869542'
p734
ag48
ag358
ag164
ag46
aS'82968410'
p735
ag279
ag544
ag325
aS'52304977'
p736
aS'58040377'
p737
aS'48678993'
p738
aS'35315956'
p739
ag356
ag162
ag121
ag392
ag520
aS'5739011'
p740
ag218
aS'7106649'
p741
aS'72652638'
p742
ag56
ag115
aS'31897288'
p743
ag510
ag636
aS'1886996'
p744
aS'15249775'
p745
aS'27925117'
p746
asg31
I1000
sg32
S'Heuristieken 2'
p747
sg34
g35
sg36
I0
sg37
(iread_data
Room
p748
(dp749
g31
g155
sg32
g156
sbsba(ischedule
Activity
p750
(dp751
g8
(lp752
g522
ag512
aS'23652927'
p753
ag207
ag130
ag322
ag287
aS'64947290'
p754
ag358
ag361
aS'19540225'
p755
ag296
ag623
ag379
ag309
ag140
ag508
ag62
ag118
aS'53585410'
p756
ag164
asg31
g646
sg32
g514
sg34
g172
sg36
g67
sg37
(iread_data
Room
p757
(dp758
g31
g369
sg32
g370
sbsba(ischedule
Activity
p759
(dp760
g8
(lp761
S'56121590'
p762
ag55
ag84
ag47
ag734
ag90
ag680
ag225
ag388
aS'73823548'
p763
ag381
aS'26207525'
p764
ag129
ag198
ag585
ag709
ag103
aS'27123462'
p765
ag80
ag353
ag586
ag127
aS'40141996'
p766
aS'23658570'
p767
ag240
aS'25077484'
p768
ag239
ag623
ag115
ag97
ag436
ag442
ag664
aS'59397895'
p769
ag303
ag431
ag384
ag131
asg31
S'40'
p770
sg32
S'Databases 2'
p771
sg34
g172
sg36
g67
sg37
(iread_data
Room
p772
(dp773
g31
g70
sg32
g71
sbsba(ischedule
Activity
p774
(dp775
g8
g632
sg31
I1000
sg32
g475
sg34
g35
sg36
I0
sg37
(iread_data
Room
p776
(dp777
g31
g175
sg32
g176
sbsba(ischedule
Activity
p778
(dp779
g8
(lp780
g167
ag601
ag720
ag722
ag77
ag123
ag431
ag719
ag452
ag668
ag600
ag306
ag562
ag51
ag147
asg31
g248
sg32
g249
sg34
g66
sg36
g152
sg37
(iread_data
Room
p781
(dp782
g31
g40
sg32
g41
sbsbaa(lp783
(ischedule
Activity
p784
(dp785
g8
(lp786
g608
ag208
ag493
ag338
ag579
ag355
ag609
ag454
ag600
ag109
ag223
ag611
ag712
ag334
ag612
ag613
ag401
ag205
ag624
ag428
ag323
ag615
ag710
ag543
ag616
ag617
ag706
ag705
ag193
ag610
ag203
asg31
S'40'
p787
sg32
g627
sg34
g172
sg36
g152
sg37
(iread_data
Room
p788
(dp789
g31
g155
sg32
g156
sbsba(ischedule
Activity
p790
(dp791
g8
(lp792
g14
ag89
ag292
ag160
aS'45660925'
p793
ag316
aS'4353500'
p794
ag18
ag163
aS'53775014'
p795
ag540
ag112
ag206
aS'20830477'
p796
ag506
ag309
ag415
ag391
ag473
aS'79879876'
p797
ag720
ag24
ag541
ag299
ag114
ag543
ag201
ag545
ag147
aS'14138904'
p798
ag311
aS'87210640'
p799
ag245
ag544
ag304
ag495
ag405
ag472
ag542
ag743
ag445
ag19
ag450
ag104
asg31
I1000
sg32
g547
sg34
g35
sg36
I0
sg37
(iread_data
Room
p800
(dp801
g31
g70
sg32
g71
sbsba(ischedule
Activity
p802
(dp803
g8
(lp804
g444
ag506
ag522
ag118
ag512
ag309
ag753
ag507
ag207
ag164
ag130
ag62
ag524
ag644
ag756
ag263
ag27
ag508
ag322
ag140
ag434
ag119
ag287
ag509
ag244
ag398
ag754
ag510
ag358
ag86
ag361
ag143
ag755
ag191
ag296
ag127
ag645
ag168
ag277
ag308
ag623
ag511
ag379
asg31
I1000
sg32
g514
sg34
g35
sg36
I0
sg37
(iread_data
Room
p805
(dp806
g31
g231
sg32
g232
sbsbaa(lp807
(ischedule
Activity
p808
(dp809
g8
(lp810
g341
ag358
ag279
ag325
ag737
ag739
ag740
ag741
ag56
ag636
ag745
ag510
ag672
ag738
ag392
ag736
ag48
ag734
asg31
S'20'
p811
sg32
g747
sg34
g172
sg36
g67
sg37
g757
sba(ischedule
Activity
p812
(dp813
g8
(lp814
g26
ag512
ag246
ag611
ag445
ag452
aS'76487754'
p815
aS'70336464'
p816
aS'92496780'
p817
ag146
ag401
ag205
aS'47982619'
p818
asg31
S'20'
p819
sg32
S'Technology for games'
p820
sg34
g172
sg36
g152
sg37
(iread_data
Room
p821
(dp822
g31
g135
sg32
g136
sbsba(ischedule
Activity
p823
(dp824
g8
(lp825
g427
ag428
ag290
ag432
ag14
ag439
ag441
ag446
ag448
ag451
ag192
ag456
ag458
ag450
asg31
S'20'
p826
sg32
g460
sg34
g66
sg36
g67
sg37
(iread_data
Room
p827
(dp828
g31
g40
sg32
g41
sbsba(ischedule
Activity
p829
(dp830
g8
(lp831
g666
ag667
ag293
ag46
ag140
ag680
ag317
ag131
ag668
ag57
ag447
ag675
ag187
asg31
S'20'
p832
sg32
g684
sg34
g172
sg36
g228
sg37
(iread_data
Room
p833
(dp834
g31
g175
sg32
g176
sbsba(ischedule
Activity
p835
(dp836
g8
(lp837
g77
ag81
ag13
ag88
ag92
ag102
ag106
ag114
ag117
ag121
ag125
ag113
ag112
ag80
asg31
S'20'
p838
sg32
g132
sg34
g66
sg36
g228
sg37
(iread_data
Room
p839
(dp840
g31
g155
sg32
g156
sbsba(ischedule
Activity
p841
(dp842
g8
g570
sg31
I1000
sg32
g171
sg34
g35
sg36
I0
sg37
(iread_data
Room
p843
(dp844
g31
g70
sg32
g71
sbsba(ischedule
Activity
p845
(dp846
g8
(lp847
g78
ag82
ag85
ag89
ag96
ag100
ag107
ag111
ag118
ag122
ag126
ag130
ag14
ag97
ag110
asg31
g838
sg32
g132
sg34
g66
sg36
g502
sg37
(iread_data
Room
p848
(dp849
g31
g231
sg32
g232
sbsbaa(lp850
(ischedule
Activity
p851
(dp852
g8
(lp853
g125
ag107
ag428
ag311
ag17
ag746
ag385
ag798
aS'59289233'
p854
ag710
ag47
ag359
ag265
aS'13798030'
p855
ag127
ag212
aS'28618400'
p856
ag200
ag320
aS'72683344'
p857
ag393
asg31
I1000
sg32
S'Architectuur en computerorganisatie'
p858
sg34
g35
sg36
I0
sg37
g68
sba(ischedule
Activity
p859
(dp860
g8
(lp861
g289
aS'70939718'
p862
ag430
ag615
aS'14179347'
p863
ag384
ag638
ag298
aS'61520025'
p864
ag645
ag428
aS'72526473'
p865
ag280
aS'58253841'
p866
ag142
aS'59220392'
p867
aS'23628642'
p868
ag333
ag437
aS'11593163'
p869
ag767
ag288
ag746
ag223
aS'75623387'
p870
ag281
ag763
ag530
ag20
ag201
ag375
aS'6709529'
p871
ag622
ag196
ag720
ag441
asg31
S'40'
p872
sg32
S'Calculus 2'
p873
sg34
g172
sg36
g152
sg37
g748
sba(ischedule
Activity
p874
(dp875
g8
(lp876
g665
ag204
ag97
ag365
ag583
ag670
ag342
ag623
ag399
ag246
ag481
ag677
ag193
ag679
ag296
ag671
ag672
ag163
asg31
g832
sg32
g684
sg34
g172
sg36
g152
sg37
g38
sba(ischedule
Activity
p877
(dp878
g8
(lp879
g97
ag436
ag437
ag440
ag28
ag449
ag453
ag457
ag459
ag224
ag435
asg31
S'20'
p880
sg32
g460
sg34
g172
sg36
g152
sg37
(iread_data
Room
p881
(dp882
g31
g231
sg32
g232
sbsba(ischedule
Activity
p883
(dp884
g8
(lp885
S'12782624'
p886
ag380
ag314
ag292
ag668
ag767
ag508
aS'73893840'
p887
ag532
ag468
aS'28943658'
p888
ag621
ag745
ag427
aS'73196865'
p889
ag85
asg31
g500
sg32
g501
sg34
g66
sg36
g67
sg37
(iread_data
Room
p890
(dp891
g31
g135
sg32
g136
sbsba(ischedule
Activity
p892
(dp893
g8
(lp894
g75
ag83
ag86
ag90
ag94
ag97
ag108
ag14
ag119
ag123
ag127
ag105
ag88
ag99
ag63
ag96
ag112
asg31
g488
sg32
g132
sg34
g172
sg36
g67
sg37
(iread_data
Room
p895
(dp896
g31
g175
sg32
g176
sbsba(ischedule
Activity
p897
(dp898
g8
(lp899
g609
ag325
aS'21070547'
p900
ag711
ag637
ag677
ag109
ag281
ag100
aS'81116418'
p901
ag62
ag337
ag545
ag77
ag243
aS'34691309'
p902
aS'63939720'
p903
ag624
asg31
g563
sg32
g564
sg34
g66
sg36
g67
sg37
(iread_data
Room
p904
(dp905
g31
g369
sg32
g370
sbsbaaa(lp906
(lp907
(ischedule
Activity
p908
(dp909
g8
(lp910
g427
ag428
ag114
ag290
ag432
ag14
ag439
ag441
ag444
ag446
ag448
ag451
ag265
ag456
ag458
ag246
ag333
ag452
ag205
ag395
ag454
ag433
ag429
ag305
asg31
g880
sg32
g460
sg34
g172
sg36
g67
sg37
g229
sba(ischedule
Activity
p911
(dp912
g8
(lp913
g207
ag190
ag703
aS'25557516'
p914
aS'62736669'
p915
ag99
aS'62363761'
p916
ag299
ag862
ag334
aS'123355'
p917
ag57
ag711
ag209
asg31
g589
sg32
g590
sg34
g66
sg36
g228
sg37
(iread_data
Room
p918
(dp919
g31
g155
sg32
g156
sbsba(ischedule
Activity
p920
(dp921
g8
(lp922
g46
ag47
ag48
ag49
ag50
ag58
ag52
ag318
ag53
ag416
ag84
ag379
ag54
ag56
ag417
ag212
ag415
ag413
ag59
ag414
ag62
ag242
asg31
g270
sg32
g65
sg34
g172
sg36
g67
sg37
(iread_data
Room
p923
(dp924
g31
g175
sg32
g176
sbsba(ischedule
Activity
p925
(dp926
g8
(lp927
g417
ag856
ag59
aS'62613937'
p928
ag744
aS'40633534'
p929
ag679
ag680
ag296
aS'39429093'
p930
ag142
ag857
ag619
ag721
ag495
ag450
aS'47477884'
p931
ag120
ag238
ag125
asg31
I1000
sg32
S'Advanced Heuristics'
p932
sg34
g35
sg36
I0
sg37
(iread_data
Room
p933
(dp934
g31
g369
sg32
g370
sbsba(ischedule
Activity
p935
(dp936
g8
(lp937
g218
ag450
ag696
ag121
aS'86180471'
p938
aS'53139134'
p939
ag304
ag492
ag495
ag341
aS'47932106'
p940
aS'93361408'
p941
ag110
aS'6939933'
p942
aS'31306819'
p943
ag381
ag237
aS'80188025'
p944
ag559
aS'10609762'
p945
ag162
ag112
ag92
ag444
ag737
ag695
ag385
ag59
ag402
aS'79888156'
p946
ag455
ag459
aS'82412626'
p947
ag99
ag493
ag199
asg31
g872
sg32
g873
sg34
g172
sg36
g67
sg37
(iread_data
Room
p948
(dp949
g31
g70
sg32
g71
sbsbaa(lp950
(ischedule
Activity
p951
(dp952
g8
(lp953
g735
ag544
ag356
ag121
ag520
ag218
ag115
ag744
ag746
ag742
ag46
ag743
ag162
ag164
asg31
g811
sg32
g747
sg34
g172
sg36
g152
sg37
g748
sba(ischedule
Activity
p954
(dp955
g8
(lp956
g59
ag619
ag495
ag931
ag238
ag125
ag450
ag857
ag856
asg31
S'10'
p957
sg32
g932
sg34
g66
sg36
g67
sg37
g659
sba(ischedule
Activity
p958
(dp959
g8
(lp960
g561
ag47
aS'4697362'
p961
ag205
ag146
ag416
aS'77264363'
p962
ag385
ag14
ag26
ag579
ag75
ag817
ag512
ag120
ag163
ag19
ag246
ag399
ag611
aS'93041523'
p963
ag445
ag741
ag452
ag818
ag691
ag116
ag815
ag278
ag816
ag22
ag401
ag282
ag673
ag472
ag337
aS'21192048'
p964
ag21
asg31
I1000
sg32
g820
sg34
g35
sg36
I0
sg37
(iread_data
Room
p965
(dp966
g31
g70
sg32
g71
sbsba(ischedule
Activity
p967
(dp968
g8
(lp969
g720
ag392
ag559
ag497
ag445
ag88
ag15
ag915
aS'4529208'
p970
aS'12091019'
p971
ag526
ag123
ag444
ag245
ag710
ag389
aS'54540997'
p972
ag938
aS'13132925'
p973
ag573
ag511
ag75
ag506
ag263
aS'58083680'
p974
ag754
ag721
aS'15187217'
p975
ag931
ag164
ag940
ag305
ag28
aS'5085194'
p976
asg31
g770
sg32
g771
sg34
g172
sg36
g152
sg37
(iread_data
Room
p977
(dp978
g31
g40
sg32
g41
sbsba(ischedule
Activity
p979
(dp980
g8
(lp981
g756
aS'5892092'
p982
ag220
aS'25994016'
p983
ag130
aS'42297781'
p984
ag261
ag584
ag457
ag405
ag86
aS'55103073'
p985
ag75
ag301
ag78
asg31
g150
sg32
g151
sg34
g66
sg36
g67
sg37
(iread_data
Room
p986
(dp987
g31
g369
sg32
g370
sbsba(ischedule
Activity
p988
(dp989
g8
(lp990
g239
ag118
aS'51791169'
p991
ag690
ag581
ag756
ag280
ag361
ag24
ag289
ag116
ag195
ag90
aS'7386961'
p992
ag667
ag796
ag737
asg31
g500
sg32
g501
sg34
g66
sg36
g228
sg37
(iread_data
Room
p993
(dp994
g31
g175
sg32
g176
sbsba(ischedule
Activity
p995
(dp996
g8
(lp997
g664
ag206
ag497
ag279
ag673
ag18
ag633
ag427
ag678
ag681
ag683
ag669
ag224
ag247
ag676
ag313
ag241
ag682
ag674
ag380
asg31
g832
sg32
g684
sg34
g172
sg36
g67
sg37
(iread_data
Room
p998
(dp999
g31
g231
sg32
g232
sbsbaa(lp1000
(ischedule
Activity
p1001
(dp1002
g8
(lp1003
g78
ag82
ag89
ag93
ag100
ag103
ag107
ag111
ag118
ag122
ag126
ag130
ag56
ag131
ag124
ag106
ag121
asg31
g488
sg32
g132
sg34
g172
sg36
g502
sg37
g654
sba(ischedule
Activity
p1004
(dp1005
g8
(lp1006
g404
ag322
ag242
ag147
ag323
ag265
ag83
ag688
ag689
ag571
ag690
ag691
ag167
ag284
ag692
ag693
ag48
ag437
ag391
ag243
ag321
ag434
ag695
ag601
ag696
ag308
ag645
ag406
ag140
ag306
ag472
ag86
ag326
ag358
ag295
ag337
ag694
asg31
g213
sg32
g214
sg34
g172
sg36
g67
sg37
g68
sba(ischedule
Activity
p1007
(dp1008
g8
(lp1009
g80
ag430
ag431
ag434
ag48
ag438
ag354
ag443
ag352
ag447
ag450
ag96
ag455
ag23
ag103
ag192
ag442
ag445
ag21
asg31
g880
sg32
g460
sg34
g172
sg36
g228
sg37
g38
sba(ischedule
Activity
p1010
(dp1011
g8
(lp1012
g163
ag323
ag353
ag169
ag408
ag206
asg31
S'10'
p1013
sg32
g171
sg34
g66
sg36
g152
sg37
(iread_data
Room
p1014
(dp1015
g31
g369
sg32
g370
sbsba(ischedule
Activity
p1016
(dp1017
g8
g717
sg31
I1000
sg32
g249
sg34
g35
sg36
I0
sg37
(iread_data
Room
p1018
(dp1019
g31
g135
sg32
g136
sbsba(ischedule
Activity
p1020
(dp1021
g8
(lp1022
g363
ag457
ag702
ag512
ag623
ag703
ag704
ag621
ag98
ag353
ag619
ag622
ag280
ag359
ag100
ag398
ag618
ag128
ag76
ag689
ag21
ag620
ag559
ag707
ag625
ag708
ag279
ag573
ag51
ag90
ag709
ag614
ag439
ag122
ag432
ag711
ag62
ag343
asg31
g787
sg32
g627
sg34
g172
sg36
g67
sg37
(iread_data
Room
p1023
(dp1024
g31
g155
sg32
g156
sbsba(ischedule
Activity
p1025
(dp1026
g8
(lp1027
g75
ag79
ag83
ag86
ag90
ag94
ag56
ag104
ag108
ag119
ag123
ag127
ag131
ag63
ag93
ag103
asg31
g838
sg32
g132
sg34
g66
sg36
g67
sg37
(iread_data
Room
p1028
(dp1029
g31
g231
sg32
g232
sbsbaa(lp1030
(ischedule
Activity
p1031
(dp1032
g8
(lp1033
g466
ag164
ag633
ag638
ag468
ag469
ag634
ag635
ag520
ag25
ag404
asg31
S'10'
p1034
sg32
g475
sg34
g66
sg36
g67
sg37
g654
sba(ischedule
Activity
p1035
(dp1036
g8
(lp1037
g319
ag144
ag82
ag583
ag617
ag287
ag361
ag983
ag193
ag399
ag321
aS'55480737'
p1038
ag149
ag866
asg31
g226
sg32
g227
sg34
g66
sg36
g67
sg37
(iread_data
Room
p1039
(dp1040
g31
g135
sg32
g136
sbsba(ischedule
Activity
p1041
(dp1042
g8
(lp1043
g314
ag636
asg31
g1034
sg32
g475
sg34
g66
sg36
g152
sg37
(iread_data
Room
p1044
(dp1045
g31
g369
sg32
g370
sbsba(ischedule
Activity
p1046
(dp1047
g8
(lp1048
g471
ag473
ag481
ag86
ag470
ag209
ag472
ag163
ag29
ag345
ag166
ag467
ag118
ag637
asg31
g1034
sg32
g475
sg34
g66
sg36
g228
sg37
(iread_data
Room
p1049
(dp1050
g31
g70
sg32
g71
sbsba(ischedule
Activity
p1051
(dp1052
g8
g717
sg31
I1000
sg32
g249
sg34
g35
sg36
I0
sg37
(iread_data
Room
p1053
(dp1054
g31
g40
sg32
g41
sbsba(ischedule
Activity
p1055
(dp1056
g8
(lp1057
g203
ag608
ag363
ag208
ag457
ag493
ag702
ag338
ag512
ag579
ag193
ag355
ag623
ag609
ag703
ag454
ag704
ag343
ag621
ag600
ag705
ag109
ag98
ag610
ag353
ag223
ag619
ag611
ag622
ag712
ag280
ag334
ag359
ag612
ag100
ag122
ag398
ag613
ag618
ag401
ag128
ag205
ag76
ag624
ag689
ag614
ag21
ag432
ag620
ag428
ag559
ag323
ag706
ag615
ag707
ag710
ag625
ag711
ag708
ag543
ag279
ag616
ag573
ag439
ag51
ag617
ag90
ag62
ag709
asg31
I1000
sg32
g627
sg34
g35
sg36
I0
sg37
(iread_data
Room
p1058
(dp1059
g31
g155
sg32
g156
sbsbaa(lp1060
(ischedule
Activity
p1061
(dp1062
g8
(lp1063
g110
ag794
aS'53267490'
p1064
ag447
ag211
aS'12170832'
p1065
ag301
ag762
ag202
ag236
ag738
ag560
ag104
ag16
ag764
ag287
aS'64246605'
p1066
asg31
g589
sg32
g590
sg34
g66
sg36
g502
sg37
g654
sba(ischedule
Activity
p1067
(dp1068
g8
(lp1069
g286
ag63
aS'65978354'
p1070
ag343
ag328
ag382
aS'33672995'
p1071
ag60
ag239
ag168
aS'55530367'
p1072
ag971
ag694
ag766
ag119
aS'56544130'
p1073
aS'77306636'
p1074
ag916
ag365
ag186
ag261
ag668
ag756
ag452
ag931
ag361
aS'34173695'
p1075
aS'37279234'
p1076
ag527
ag335
aS'19717077'
p1077
aS'56348773'
p1078
aS'75446434'
p1079
aS'22168693'
p1080
asg31
g872
sg32
g873
sg34
g172
sg36
g228
sg37
(iread_data
Room
p1081
(dp1082
g31
g70
sg32
g71
sbsba(ischedule
Activity
p1083
(dp1084
g8
(lp1085
g14
ag12
ag29
ag24
ag18
ag22
asg31
g255
sg32
g33
sg34
g66
sg36
g152
sg37
(iread_data
Room
p1086
(dp1087
g31
g231
sg32
g232
sbsba(ischedule
Activity
p1088
(dp1089
g8
(lp1090
g76
ag84
ag87
ag91
ag95
ag98
ag101
ag105
ag109
ag116
ag120
ag124
ag128
ag129
ag115
ag99
asg31
g838
sg32
g132
sg34
g66
sg36
g152
sg37
(iread_data
Room
p1091
(dp1092
g31
g369
sg32
g370
sbsba(ischedule
Activity
p1093
(dp1094
g8
(lp1095
g762
ag720
ag55
ag392
ag84
ag559
ag47
ag497
ag734
ag445
ag90
ag131
ag680
ag88
ag225
ag15
ag388
ag915
ag763
ag970
ag381
ag971
ag764
ag526
ag129
ag123
ag198
ag444
ag585
ag303
ag709
ag245
ag103
ag710
ag765
ag384
ag80
ag431
ag353
ag389
ag976
ag972
ag586
ag938
ag127
ag973
ag766
ag573
ag767
ag511
ag240
ag75
ag768
ag506
ag239
ag263
ag623
ag974
ag115
ag754
ag28
ag721
ag97
ag975
ag436
ag931
ag442
ag164
ag664
ag940
ag769
ag305
asg31
I1000
sg32
g771
sg34
g35
sg36
I0
sg37
(iread_data
Room
p1096
(dp1097
g31
g135
sg32
g136
sbsba(ischedule
Activity
p1098
(dp1099
g8
(lp1100
g325
ag304
ag25
ag182
ag718
ag166
ag587
ag520
ag721
ag441
ag723
ag695
ag375
ag203
ag354
ag122
ag615
asg31
g248
sg32
g249
sg34
g66
sg36
g67
sg37
(iread_data
Room
p1101
(dp1102
g31
g40
sg32
g41
sbsba(ischedule
Activity
p1103
(dp1104
g8
(lp1105
g122
ag244
ag354
ag306
ag245
ag720
ag147
ag722
ag77
ag123
ag431
ag51
ag247
ag375
ag668
asg31
g602
sg32
g249
sg34
g172
sg36
g152
sg37
(iread_data
Room
p1106
(dp1107
g31
g155
sg32
g156
sbsbaaa(lp1108
(lp1109
(ischedule
Activity
p1110
(dp1111
g8
(lp1112
g571
ag573
ag168
ag198
ag167
ag19
ag390
ag164
ag103
ag165
ag162
asg31
g1013
sg32
g171
sg34
g66
sg36
g228
sg37
(iread_data
Room
p1113
(dp1114
g31
g135
sg32
g136
sbsba(ischedule
Activity
p1115
(dp1116
g8
g275
sg31
I1000
sg32
g346
sg34
g35
sg36
I0
sg37
(iread_data
Room
p1117
(dp1118
g31
g70
sg32
g71
sbsba(ischedule
Activity
p1119
(dp1120
g8
g519
sg31
I1000
sg32
g534
sg34
g35
sg36
I0
sg37
(iread_data
Room
p1121
(dp1122
g31
g155
sg32
g156
sbsba(ischedule
Activity
p1123
(dp1124
g8
(lp1125
g83
ag768
ag600
ag738
ag192
ag302
ag98
ag406
ag863
ag746
ag929
ag442
ag938
asg31
g226
sg32
g227
sg34
g66
sg36
g152
sg37
(iread_data
Room
p1126
(dp1127
g31
g231
sg32
g232
sbsba(ischedule
Activity
p1128
(dp1129
g8
(lp1130
g27
ag436
ag264
ag364
ag441
ag335
ag13
ag624
ag126
ag430
ag92
ag708
ag1076
ag818
aS'88263855'
p1131
ag309
asg31
g500
sg32
g501
sg34
g66
sg36
S'6'
p1132
sg37
(iread_data
Room
p1133
(dp1134
g31
g40
sg32
g41
sbsba(ischedule
Activity
p1135
(dp1136
g8
(lp1137
g25
ag163
ag634
ag635
ag404
ag314
ag118
ag520
ag633
ag636
ag638
ag166
ag637
asg31
g474
sg32
g475
sg34
g172
sg36
g152
sg37
(iread_data
Room
p1138
(dp1139
g31
g369
sg32
g370
sbsba(ischedule
Activity
p1140
(dp1141
g8
(lp1142
g190
ag615
ag141
ag704
ag623
ag209
ag87
aS'54395877'
p1143
ag376
ag692
ag88
ag183
ag245
aS'34900967'
p1144
ag754
ag666
ag388
ag702
asg31
g500
sg32
g501
sg34
g66
sg36
g152
sg37
(iread_data
Room
p1145
(dp1146
g31
g175
sg32
g176
sbsbaa(lp1147
(ischedule
Activity
p1148
(dp1149
g8
(lp1150
g561
ag961
ag962
ag14
ag579
ag120
ag19
ag399
ag963
ag741
ag116
ag22
ag282
ag472
ag964
ag385
ag163
ag691
ag337
ag75
ag673
ag278
ag21
ag47
ag416
asg31
g819
sg32
g820
sg34
g172
sg36
g67
sg37
g748
sba(ischedule
Activity
p1151
(dp1152
g8
(lp1153
g304
ag25
ag182
ag718
ag166
ag452
ag587
ag520
ag246
ag721
ag723
ag695
ag719
ag118
ag239
ag615
ag240
asg31
g602
sg32
g249
sg34
g172
sg36
g67
sg37
g654
sba(ischedule
Activity
p1154
(dp1155
g8
(lp1156
g404
ag322
ag242
ag147
ag323
ag265
ag83
ag688
ag689
ag571
ag690
ag691
ag167
ag692
ag693
ag210
ag48
ag437
ag391
ag243
ag321
ag434
ag695
ag601
ag308
ag208
ag645
ag406
ag306
ag472
ag207
ag211
ag212
ag86
ag196
ag198
ag295
ag88
ag337
ag192
ag93
ag202
asg31
S'40'
p1157
sg32
g214
sg34
g66
sg36
g67
sg37
g38
sba(ischedule
Activity
p1158
(dp1159
g8
(lp1160
g671
aS'19662602'
p1161
ag942
ag203
ag532
ag636
aS'40911986'
p1162
ag389
ag131
aS'37419523'
p1163
ag128
ag401
ag571
ag856
ag533
aS'32183908'
p1164
ag763
aS'90103047'
p1165
ag495
ag293
ag439
asg31
g563
sg32
g564
sg34
g66
sg36
g228
sg37
(iread_data
Room
p1166
(dp1167
g31
g70
sg32
g71
sbsba(ischedule
Activity
p1168
(dp1169
g8
(lp1170
g166
ag406
ag161
ag160
ag572
asg31
g1013
sg32
g171
sg34
g66
sg36
g67
sg37
(iread_data
Room
p1171
(dp1172
g31
g135
sg32
g136
sbsba(ischedule
Activity
p1173
(dp1174
g8
(lp1175
g21
ag429
ag205
ag433
ag436
ag437
ag440
ag442
ag445
ag28
ag449
ag452
ag453
ag457
ag333
ag459
ag265
ag435
ag444
ag80
ag443
ag447
asg31
g826
sg32
g460
sg34
g66
sg36
g152
sg37
(iread_data
Room
p1176
(dp1177
g31
g231
sg32
g232
sbsbaa(lp1178
(ischedule
Activity
p1179
(dp1180
g8
(lp1181
g572
ag19
ag198
asg31
g170
sg32
g171
sg34
g172
sg36
g228
sg37
(iread_data
Room
p1182
(dp1183
g31
g135
sg32
g136
sbsba(ischedule
Activity
p1184
(dp1185
g8
g853
sg31
I1000
sg32
g858
sg34
g35
sg36
I0
sg37
(iread_data
Room
p1186
(dp1187
g31
g231
sg32
g232
sbsba(ischedule
Activity
p1188
(dp1189
g8
(lp1190
g856
ag520
aS'16912993'
p1191
ag467
ag19
ag88
ag289
ag680
ag636
ag398
ag319
ag635
ag127
ag142
ag77
ag722
ag679
aS'72586808'
p1192
asg31
g589
sg32
g590
sg34
g66
sg36
g67
sg37
(iread_data
Room
p1193
(dp1194
g31
g155
sg32
g156
sbsba(ischedule
Activity
p1195
(dp1196
g8
(lp1197
g301
ag625
ag352
ag310
aS'10702778'
p1198
ag247
ag637
ag284
aS'39905995'
p1199
ag931
ag266
ag703
ag447
ag321
ag277
aS'64053722'
p1200
ag15
ag341
ag797
ag356
ag119
ag267
aS'88519892'
p1201
ag109
ag56
ag28
asg31
g500
sg32
g501
sg34
g66
sg36
S'5'
p1202
sg37
(iread_data
Room
p1203
(dp1204
g31
g40
sg32
g41
sbsba(ischedule
Activity
p1205
(dp1206
g8
g960
sg31
I1000
sg32
g820
sg34
g35
sg36
I0
sg37
(iread_data
Room
p1207
(dp1208
g31
g70
sg32
g71
sbsba(ischedule
Activity
p1209
(dp1210
g8
(lp1211
g353
ag103
ag206
ag408
ag390
ag573
ag571
ag406
ag323
asg31
g170
sg32
g171
sg34
g172
sg36
g67
sg37
(iread_data
Room
p1212
(dp1213
g31
g369
sg32
g370
sbsba(ischedule
Activity
p1214
(dp1215
g8
g663
sg31
I1000
sg32
g684
sg34
g35
sg36
I0
sg37
(iread_data
Room
p1216
(dp1217
g31
g175
sg32
g176
sbsbaa(lp1218
(ischedule
Activity
p1219
(dp1220
g8
g1057
sg31
I1000
sg32
g627
sg34
g35
sg36
I0
sg37
g68
sba(ischedule
Activity
p1221
(dp1222
g8
(lp1223
g928
ag680
ag930
ag721
ag120
ag744
ag296
ag679
ag929
ag142
ag417
asg31
g957
sg32
g932
sg34
g66
sg36
g152
sg37
(iread_data
Room
p1224
(dp1225
g31
g155
sg32
g156
sbsba(ischedule
Activity
p1226
(dp1227
g8
(lp1228
g181
ag182
ag183
ag184
ag185
ag358
ag326
ag186
ag187
ag188
ag189
ag190
ag91
ag191
ag193
ag194
ag694
ag112
ag195
ag197
ag199
ag200
ag201
ag203
ag204
ag205
ag79
ag206
ag128
ag209
ag140
ag284
ag696
asg31
g1157
sg32
g214
sg34
g66
sg36
g152
sg37
(iread_data
Room
p1229
(dp1230
g31
g175
sg32
g176
sbsba(ischedule
Activity
p1231
(dp1232
g8
(lp1233
g669
ag115
ag583
ag450
ag1144
ag767
ag187
ag206
ag334
ag129
ag585
ag1192
ag382
ag196
ag292
aS'78822885'
p1234
ag723
ag399
ag618
ag1073
ag16
ag320
ag303
aS'18477924'
p1235
ag944
ag541
aS'14637758'
p1236
ag738
ag976
ag46
ag201
ag442
aS'82854435'
p1237
ag562
ag452
ag162
aS'97838175'
p1238
ag404
ag673
ag667
ag1071
ag181
ag283
ag326
aS'58480929'
p1239
ag388
aS'73350019'
p1240
ag222
ag928
asg31
I1000
sg32
S'Analysemethoden en -technieken'
p1241
sg34
g35
sg36
I0
sg37
(iread_data
Room
p1242
(dp1243
g31
g135
sg32
g136
sbsba(ischedule
Activity
p1244
(dp1245
g8
(lp1246
g430
ag431
ag434
ag48
ag438
ag354
ag352
ag395
ag96
ag455
ag224
ag103
ag454
ag114
ag97
ag305
ag246
ag23
asg31
g826
sg32
g460
sg34
g66
sg36
g228
sg37
(iread_data
Room
p1247
(dp1248
g31
g40
sg32
g41
sbsba(ischedule
Activity
p1249
(dp1250
g8
(lp1251
g522
ag753
ag207
ag27
ag322
ag434
ag287
ag754
ag755
ag296
ag645
ag277
ag623
ag379
ag756
ag127
ag644
ag244
ag524
ag168
ag86
ag398
ag361
asg31
g513
sg32
g514
sg34
g66
sg36
g67
sg37
(iread_data
Room
p1252
(dp1253
g31
g231
sg32
g232
sbsbaa(lp1254
(ischedule
Activity
p1255
(dp1256
g8
g351
sg31
I1000
sg32
g366
sg34
g35
sg36
I0
sg37
(iread_data
Room
p1257
(dp1258
g31
g40
sg32
g41
sbsba(ischedule
Activity
p1259
(dp1260
g8
(lp1261
g125
ag261
ag413
ag262
ag242
ag414
ag263
ag212
ag415
ag264
ag265
ag266
ag267
ag268
ag318
ag379
ag84
ag417
ag269
ag416
asg31
g64
sg32
g65
sg34
g66
sg36
g152
sg37
(iread_data
Room
p1262
(dp1263
g31
g369
sg32
g370
sbsba(ischedule
Activity
p1264
(dp1265
g8
g74
sg31
I1000
sg32
g132
sg34
g35
sg36
I0
sg37
(iread_data
Room
p1266
(dp1267
g31
g231
sg32
g232
sbsba(ischedule
Activity
p1268
(dp1269
g8
(lp1270
g89
ag160
ag316
ag18
ag795
ag112
ag796
ag797
ag299
ag798
ag799
ag472
ag743
ag19
ag104
ag473
ag720
ag794
ag24
ag793
asg31
g546
sg32
g547
sg34
g172
sg36
g152
sg37
(iread_data
Room
p1271
(dp1272
g31
g135
sg32
g136
sbsba(ischedule
Activity
p1273
(dp1274
g8
(lp1275
g341
ag221
aS'1695839'
p1276
ag976
ag529
ag601
ag610
aS'64418623'
p1277
aS'47260040'
p1278
ag26
ag496
ag243
ag798
aS'91250534'
p1279
asg31
g150
sg32
g151
sg34
g66
sg36
g228
sg37
(iread_data
Room
p1280
(dp1281
g31
g175
sg32
g176
sbsba(ischedule
Activity
p1282
(dp1283
g8
g374
sg31
I1000
sg32
g409
sg34
g35
sg36
I0
sg37
(iread_data
Room
p1284
(dp1285
g31
g155
sg32
g156
sbsbaaa(lp1286
(lp1287
a(lp1288
(ischedule
Activity
p1289
(dp1290
g8
(lp1291
g218
ag289
ag286
ag450
ag862
ag63
ag696
ag430
ag1070
ag121
ag615
ag343
ag871
ag863
ag328
ag938
ag384
ag382
ag939
ag638
ag1071
ag304
ag298
ag196
ag492
ag455
ag60
ag495
ag864
ag947
ag341
ag99
ag239
ag940
ag1079
ag375
ag941
ag645
ag168
ag110
ag428
ag1072
ag942
ag865
ag971
ag943
ag280
ag694
ag335
ag866
ag766
ag381
ag142
ag622
ag237
ag867
ag119
ag944
ag493
ag1073
ag559
ag868
ag459
ag945
ag333
ag1074
ag162
ag437
ag916
ag112
ag869
ag365
ag92
ag767
ag186
ag444
ag288
ag261
ag737
ag746
ag668
ag1078
ag223
ag199
ag695
ag870
ag756
ag385
ag281
ag452
ag720
ag763
ag931
ag1080
ag530
ag361
ag441
ag20
ag1075
ag59
ag201
ag1076
ag402
ag1077
ag527
ag946
asg31
I1000
sg32
g873
sg34
g35
sg36
I0
sg37
(iread_data
Room
p1292
(dp1293
g31
g155
sg32
g156
sbsbaa(lp1294
a(lp1295
a(lp1296
aasS'timeslot_dict'
p1297
(dp1298
I0
S'9:00-11:00'
p1299
sI1
S'11:00-13:00'
p1300
sI2
S'13:00-15:00'
p1301
sI3
S'15:00-17:00'
p1302
sI4
S'17:00-19:00'
p1303
ssS'day_dict'
p1304
(dp1305
I0
S'Monday'
p1306
sI1
S'Tuesday'
p1307
sI2
S'Wednesday'
p1308
sI3
S'Thursday'
p1309
sI4
S'Friday'
p1310
ssb.