(ischedule
Schedule
p0
(dp1
S'timetable'
p2
(lp3
(lp4
(lp5
(ischedule
Activity
p6
(dp7
S'participants'
p8
(lp9
S'72456780'
p10
aS'33930505'
p11
aS'44901052'
p12
aS'72586808'
p13
aS'97135019'
p14
aS'535689'
p15
aS'57467488'
p16
aS'82689818'
p17
aS'31247305'
p18
aS'3883025'
p19
aS'97136582'
p20
aS'77392404'
p21
aS'28618400'
p22
aS'81022997'
p23
aS'29640619'
p24
aS'66120270'
p25
asS'capacity'
p26
S'20'
p27
sS'group'
p28
(ischedule
Group
p29
(dp30
g8
g9
sS'name'
p31
S'Netwerken en systeembeveiliging3'
p32
sbsS'room'
p33
(iread_data
Room
p34
(dp35
g26
S'22'
p36
sg31
S'A1.06'
p37
sbsS'ttype'
p38
S'labs'
p39
sS'group_id'
p40
S'3'
p41
sg31
S'Netwerken en systeembeveiliging'
p42
sba(ischedule
Activity
p43
(dp44
g8
(lp45
S'86807027'
p46
aS'13996448'
p47
aS'73236988'
p48
aS'12430748'
p49
aS'19662602'
p50
aS'2550487'
p51
aS'81116418'
p52
aS'3685034'
p53
aS'63939720'
p54
aS'42778953'
p55
aS'89338938'
p56
aS'40911986'
p57
aS'88752563'
p58
aS'74182182'
p59
aS'60312776'
p60
asg26
S'15'
p61
sg28
(ischedule
Group
p62
(dp63
g8
g45
sg31
S'Project Numerical Recipes1'
p64
sbsg33
(iread_data
Room
p65
(dp66
g26
S'41'
p67
sg31
S'A1.04'
p68
sbsg38
g39
sg40
S'1'
p69
sg31
S'Project Numerical Recipes'
p70
sba(ischedule
Activity
p71
(dp72
g8
(lp73
S'69634191'
p74
aS'20374340'
p75
aS'4546613'
p76
aS'34765676'
p77
aS'81200278'
p78
aS'28055464'
p79
aS'3707829'
p80
aS'65675896'
p81
aS'37701751'
p82
aS'14847953'
p83
aS'23547619'
p84
aS'66034145'
p85
aS'5368702'
p86
aS'64768422'
p87
aS'93566383'
p88
aS'76924297'
p89
aS'19214659'
p90
aS'44828429'
p91
aS'76661016'
p92
ag51
aS'81155296'
p93
aS'81385263'
p94
aS'37399898'
p95
aS'21677389'
p96
aS'38179241'
p97
asg26
I1000
sg28
Nsg33
(iread_data
Room
p98
(dp99
g26
S'56'
p100
sg31
S'A1.10'
p101
sbsg38
S'lectures'
p102
sg40
S'2'
p103
sg31
S'Interactie-ontwerp'
p104
sba(ischedule
Activity
p105
(dp106
g8
(lp107
S'58332004'
p108
aS'62701040'
p109
aS'68315599'
p110
aS'18266644'
p111
aS'70878567'
p112
aS'75585647'
p113
aS'77636749'
p114
aS'11459236'
p115
aS'19958553'
p116
aS'13658563'
p117
aS'13116738'
p118
ag12
aS'92977271'
p119
aS'23257088'
p120
aS'17496687'
p121
aS'29718115'
p122
aS'32204977'
p123
aS'23983476'
p124
aS'75521763'
p125
aS'8557857'
p126
aS'36748818'
p127
asg26
I1000
sg28
Nsg33
(iread_data
Room
p128
(dp129
g26
S'117'
p130
sg31
S'C0.110'
p131
sbsg38
g102
sg40
g103
sg31
S'Informatie- en organsatieontwerp'
p132
sba(ischedule
Activity
p133
(dp134
g8
(lp135
g15
aS'51673172'
p136
ag123
aS'63634350'
p137
aS'41644639'
p138
aS'52715680'
p139
aS'51472074'
p140
aS'50143947'
p141
aS'38499176'
p142
aS'3407554'
p143
aS'14383795'
p144
aS'64418623'
p145
aS'88596522'
p146
asg26
S'15'
p147
sg28
(ischedule
Group
p148
(dp149
g8
g135
sg31
S'Compilerbouw practicum3'
p150
sbsg33
(iread_data
Room
p151
(dp152
g26
S'60'
p153
sg31
S'C1.112'
p154
sbsg38
g39
sg40
g41
sg31
S'Compilerbouw practicum'
p155
sba(ischedule
Activity
p156
(dp157
g8
(lp158
S'13092455'
p159
aS'52552718'
p160
aS'70072978'
p161
aS'64947290'
p162
aS'17222374'
p163
aS'25077484'
p164
aS'24277163'
p165
aS'47477884'
p166
aS'90474003'
p167
aS'56749879'
p168
aS'83869542'
p169
ag16
aS'17092717'
p170
aS'29526540'
p171
aS'75005528'
p172
aS'43027916'
p173
aS'56121590'
p174
aS'86988337'
p175
aS'91527663'
p176
aS'49631542'
p177
aS'43902015'
p178
aS'40434933'
p179
ag10
aS'40141996'
p180
aS'670011'
p181
ag120
aS'23658570'
p182
aS'77896638'
p183
aS'27123462'
p184
aS'77960666'
p185
aS'51542218'
p186
aS'47932106'
p187
ag17
aS'11996292'
p188
ag82
aS'4921119'
p189
aS'72796858'
p190
aS'26207525'
p191
aS'34872117'
p192
aS'5526560'
p193
aS'15187217'
p194
aS'247918'
p195
aS'51566595'
p196
aS'60352393'
p197
aS'14816774'
p198
aS'76123484'
p199
aS'94686490'
p200
aS'59397895'
p201
aS'39459642'
p202
aS'54540997'
p203
aS'5517869'
p204
aS'46989508'
p205
aS'73823548'
p206
aS'42196732'
p207
aS'5085194'
p208
aS'56191333'
p209
ag108
ag58
aS'58083680'
p210
aS'64296965'
p211
aS'26406342'
p212
aS'3168419'
p213
aS'4529208'
p214
aS'96054456'
p215
ag24
aS'86180471'
p216
aS'13132925'
p217
aS'56872729'
p218
aS'12091019'
p219
aS'62736669'
p220
aS'78821918'
p221
aS'58592894'
p222
asg26
I1000
sg28
Nsg33
(iread_data3
Room
p223
(dp224
g26
S'48'
p225
sg31
S'B0.201'
p226
sbsg38
g102
sg40
g69
sg31
S'Databases 2'
p227
sbaa(lp228
(ischedule
Activity
p229
(dp230
g8
(lp231
S'72895450'
p232
ag139
ag17
aS'14671406'
p233
aS'66433883'
p234
ag91
aS'12077419'
p235
ag196
aS'23652927'
p236
ag222
aS'5976174'
p237
ag175
aS'46701583'
p238
aS'53585410'
p239
ag124
aS'27298319'
p240
aS'21964491'
p241
aS'1665980'
p242
ag146
ag162
ag16
asg26
S'25'
p243
sg28
(ischedule
Group
p244
(dp245
g8
g231
sg31
S'Algoritmen en complexiteit2'
p246
sbsg33
g65
sg38
S'tutorials'
p247
sg40
g103
sg31
S'Algoritmen en complexiteit'
p248
sba(ischedule
Activity
p249
(dp250
g8
(lp251
g241
aS'37744525'
p252
aS'37110913'
p253
aS'74131924'
p254
ag23
aS'91196968'
p255
aS'19337738'
p256
ag196
ag78
aS'98780382'
p257
aS'22323043'
p258
ag20
aS'45414528'
p259
ag141
aS'25330192'
p260
ag112
aS'87314964'
p261
ag118
aS'87900893'
p262
aS'17823206'
p263
aS'93023961'
p264
aS'66122625'
p265
aS'99453514'
p266
aS'68360259'
p267
aS'52311353'
p268
aS'59753700'
p269
ag47
asg26
I1000
sg28
Nsg33
(iread_data3
Room
p270
(dp271
g26
S'20'
p272
sg31
S'A1.08'
p273
sbsg38
g102
sg40
g69
sg31
S'Data Mining'
p274
sba(ischedule
Activity
p275
(dp276
g8
(lp277
g58
aS'84524083'
p278
aS'88636924'
p279
aS'15911353'
p280
aS'10792879'
p281
aS'83266686'
p282
aS'53202517'
p283
aS'11741347'
p284
ag232
aS'37770881'
p285
ag202
aS'34243356'
p286
ag175
aS'27187154'
p287
aS'76802764'
p288
aS'79033175'
p289
ag190
aS'88855695'
p290
aS'80135353'
p291
aS'40791377'
p292
ag60
aS'92665222'
p293
aS'48503689'
p294
ag192
aS'11915563'
p295
aS'30658799'
p296
aS'43689934'
p297
aS'94687383'
p298
aS'95631564'
p299
aS'5595824'
p300
ag55
aS'44391517'
p301
aS'54772132'
p302
aS'9067939'
p303
ag110
asg26
S'40'
p304
sg28
(ischedule
Group
p305
(dp306
g8
g277
sg31
S'Compilerbouw1'
p307
sbsg33
(iread_data3
Room
p308
(dp309
g26
S'117'
p310
sg31
S'C0.110'
p311
sbsg38
g39
sg40
g69
sg31
S'Compilerbouw'
p312
sba(ischedule
Activity
p313
(dp314
g8
(lp315
S'62363761'
p316
aS'9731271'
p317
aS'82872148'
p318
aS'4709948'
p319
aS'72665524'
p320
ag260
aS'19058315'
p321
ag286
aS'5590289'
p322
aS'1696500'
p323
aS'16912993'
p324
aS'70939718'
p325
ag111
aS'87830198'
p326
aS'53267490'
p327
aS'8522855'
p328
asg26
g27
sg28
(ischedule
Group
p329
(dp330
g8
g315
sg31
S'Netwerken en systeembeveiliging4'
p331
sbsg33
(iread_data3
Room
p332
(dp333
g26
S'22'
p334
sg31
S'A1.06'
p335
sbsg38
g39
sg40
S'4'
p336
sg31
g42
sba(ischedule
Activity
p337
(dp338
g8
(lp339
S'72577292'
p340
ag165
ag159
aS'77240949'
p341
ag285
ag163
aS'86291592'
p342
ag109
aS'87758823'
p343
ag141
aS'13534377'
p344
aS'34773179'
p345
ag17
aS'7308727'
p346
ag199
aS'9332762'
p347
ag55
ag211
ag323
aS'28357474'
p348
aS'29474737'
p349
aS'65960683'
p350
ag183
ag207
aS'51741554'
p351
aS'86000192'
p352
aS'25106480'
p353
ag60
aS'46052388'
p354
aS'64228258'
p355
ag125
aS'45556081'
p356
ag84
aS'1075391'
p357
aS'68601184'
p358
aS'35330349'
p359
ag204
ag14
aS'58522654'
p360
aS'42171678'
p361
aS'61443567'
p362
aS'17575088'
p363
aS'64393888'
p364
aS'3233378'
p365
aS'31416266'
p366
aS'96104167'
p367
ag212
aS'48601268'
p368
aS'73980360'
p369
ag242
aS'54310617'
p370
aS'50184318'
p371
ag241
aS'57595888'
p372
aS'53107172'
p373
aS'33760909'
p374
aS'22699561'
p375
aS'15902055'
p376
ag173
ag24
aS'4783858'
p377
asg26
I1000
sg28
Nsg33
(iread_data3
Room
p378
(dp379
g26
S'60'
p380
sg31
S'C1.112'
p381
sbsg38
g102
sg40
g41
sg31
S'Collectieve Intelligentie'
p382
sba(ischedule
Activity
p383
(dp384
g8
(lp385
g159
ag161
ag163
ag165
ag167
ag169
ag170
ag172
ag174
ag176
ag178
ag10
ag181
ag182
ag184
ag186
ag17
ag82
ag190
ag192
ag194
ag196
ag198
ag200
ag202
ag204
ag206
ag208
ag108
ag210
ag212
ag214
ag24
ag217
ag219
ag221
asg26
S'40'
p386
sg28
(ischedule
Group
p387
(dp388
g8
g385
sg31
S'Databases 21'
p389
sbsg33
(iread_data3
Room
p390
(dp391
g26
S'56'
p392
sg31
S'A1.10'
p393
sbsg38
g247
sg40
g69
sg31
g227
sbaa(lp394
(ischedule
Activity
p395
(dp396
g8
(lp397
S'99975346'
p398
ag137
aS'58736785'
p399
aS'7106649'
p400
aS'16097870'
p401
aS'48678993'
p402
ag374
aS'5739011'
p403
aS'85236626'
p404
aS'31897288'
p405
aS'1886996'
p406
aS'52304977'
p407
ag169
ag278
ag23
aS'15249775'
p408
aS'82968410'
p409
aS'87602030'
p410
ag77
aS'22731474'
p411
aS'27925117'
p412
ag196
aS'58040377'
p413
aS'72652638'
p414
ag362
ag181
ag173
aS'35315956'
p415
aS'78243495'
p416
ag237
ag78
aS'57086672'
p417
asg26
I1000
sg28
Nsg33
(iread_data
Room
p418
(dp419
g26
S'20'
p420
sg31
S'A1.08'
p421
sbsg38
g102
sg40
g69
sg31
S'Heuristieken 2'
p422
sba(ischedule
Activity
p423
(dp424
g8
(lp425
S'88176729'
p426
ag207
aS'33877725'
p427
aS'30195935'
p428
aS'22826928'
p429
aS'24613625'
p430
ag112
ag215
aS'44868097'
p431
ag213
aS'11068043'
p432
aS'85335143'
p433
aS'64600457'
p434
aS'20883994'
p435
ag171
asg26
S'20'
p436
sg28
(ischedule
Group
p437
(dp438
g8
g425
sg31
S'Bioinformatica1'
p439
sbsg33
(iread_data
Room
p440
(dp441
g26
S'48'
p442
sg31
S'B0.201'
p443
sbsg38
g39
sg40
g69
sg31
S'Bioinformatica'
p444
sba(ischedule
Activity
p445
(dp446
g8
(lp447
S'48308205'
p448
ag90
aS'32044893'
p449
aS'21070547'
p450
ag22
ag172
ag294
aS'37419523'
p451
aS'6939933'
p452
ag206
ag159
aS'62356458'
p453
aS'77831658'
p454
aS'63573738'
p455
asg26
g61
sg28
(ischedule
Group
p456
(dp457
g8
g447
sg31
S'Project Numerical Recipes3'
p458
sbsg33
g151
sg38
g39
sg40
g41
sg31
g70
sba(ischedule
Activity
p459
(dp460
g8
(lp461
S'41527759'
p462
ag24
aS'65318664'
p463
aS'77376714'
p464
aS'99283252'
p465
ag160
aS'51593625'
p466
aS'54026378'
p467
aS'48357272'
p468
ag453
ag377
aS'22871048'
p469
ag427
ag431
ag258
aS'83210352'
p470
ag318
aS'89985072'
p471
aS'14072826'
p472
ag76
aS'1048485'
p473
aS'4568018'
p474
aS'68409833'
p475
aS'58074656'
p476
ag60
aS'43460038'
p477
aS'75599734'
p478
ag233
aS'14309255'
p479
aS'78443067'
p480
ag365
aS'44671041'
p481
aS'94467156'
p482
aS'45915482'
p483
aS'80709893'
p484
aS'42115591'
p485
aS'27582862'
p486
asg26
S'40'
p487
sg28
(ischedule
Group
p488
(dp489
g8
g461
sg31
S'Software engineering2'
p490
sbsg33
g65
sg38
g39
sg40
g103
sg31
S'Software engineering'
p491
sba(ischedule
Activity
p492
(dp493
g8
(lp494
g296
ag161
ag110
aS'1181560'
p495
aS'36527838'
p496
aS'96082155'
p497
aS'58699305'
p498
aS'51650744'
p499
aS'43680781'
p500
ag163
ag433
aS'33776961'
p501
aS'89180944'
p502
aS'78544592'
p503
aS'66621166'
p504
aS'48198668'
p505
ag127
aS'1766560'
p506
asg26
S'20'
p507
sg28
(ischedule
Group
p508
(dp509
g8
g494
sg31
S'Moderne Databases3'
p510
sbsg33
g34
sg38
g39
sg40
g41
sg31
S'Moderne Databases'
p511
sba(ischedule
Activity
p512
(dp513
g8
(lp514
S'6249823'
p515
aS'76487754'
p516
aS'36785409'
p517
aS'69086548'
p518
ag212
aS'4697362'
p519
ag258
ag114
ag448
ag179
ag400
ag125
ag433
ag188
aS'31194811'
p520
ag235
ag56
aS'21192048'
p521
ag49
ag253
aS'58565406'
p522
aS'10149535'
p523
ag110
aS'93041523'
p524
aS'47982619'
p525
aS'75664412'
p526
ag500
aS'97371272'
p527
ag144
ag347
ag479
ag12
aS'77264363'
p528
aS'92496780'
p529
aS'70336464'
p530
aS'41578612'
p531
ag123
ag84
asg26
I1000
sg28
Nsg33
(iread_data3
Room
p532
(dp533
g26
g392
sg31
g393
sbsg38
g102
sg40
g103
sg31
S'Technology for games'
p534
sba(ischedule
Activity
p535
(dp536
g8
(lp537
g165
ag21
ag197
aS'20239127'
p538
aS'5298748'
p539
ag117
aS'78136904'
p540
aS'70193386'
p541
ag517
aS'92778619'
p542
aS'6913074'
p543
ag53
ag167
aS'51052738'
p544
aS'20095994'
p545
ag269
aS'27950803'
p546
asg26
S'20'
p547
sg28
(ischedule
Group
p548
(dp549
g8
g537
sg31
S'Reflectie op de digitale cultuur3'
p550
sbsg33
(iread_data3
Room
p551
(dp552
g26
g310
sg31
g311
sbsg38
g247
sg40
g41
sg31
S'Reflectie op de digitale cultuur'
p553
sbaa(lp554
(ischedule
Activity
p555
(dp556
g8
(lp557
g159
ag342
ag344
ag199
ag323
ag183
ag353
ag125
ag358
ag360
ag364
ag212
ag370
ag373
ag173
asg26
S'20'
p558
sg28
(ischedule
Group
p559
(dp560
g8
g557
sg31
S'Collectieve Intelligentie3'
p561
sbsg33
g418
sg38
g247
sg40
g41
sg31
g382
sba(ischedule
Activity
p562
(dp563
g8
(lp564
S'13798030'
p565
aS'72683344'
p566
ag356
ag477
ag502
ag22
aS'20331158'
p567
ag282
aS'23798155'
p568
ag17
aS'59289233'
p569
aS'14138904'
p570
aS'58866007'
p571
ag412
ag179
aS'49683101'
p572
aS'70015932'
p573
ag340
ag523
ag122
ag192
asg26
I1000
sg28
Nsg33
g98
sg38
g102
sg40
g69
sg31
S'Architectuur en computerorganisatie'
p574
sba(ischedule
Activity
p575
(dp576
g8
g425
sg26
S'20'
p577
sg28
g437
sg33
g34
sg38
g247
sg40
g69
sg31
g444
sba(ischedule
Activity
p578
(dp579
g8
(lp580
S'41585485'
p581
aS'28943658'
p582
aS'41153310'
p583
aS'26857113'
p584
aS'20830477'
p585
aS'94955328'
p586
ag291
aS'63111000'
p587
aS'79167252'
p588
aS'34900967'
p589
aS'23215240'
p590
ag404
aS'22288615'
p591
ag182
aS'88263855'
p592
aS'39905995'
p593
aS'64053722'
p594
ag185
aS'97019450'
p595
asg26
S'20'
p596
sg28
(ischedule
Group
p597
(dp598
g8
g580
sg31
S'Programmeren in Java 21'
p599
sbsg33
g65
sg38
g39
sg40
g69
sg31
S'Programmeren in Java 2'
p600
sba(ischedule
Activity
p601
(dp602
g8
(lp603
g241
ag254
ag256
ag257
ag259
ag112
ag262
ag265
ag268
asg26
S'10'
p604
sg28
(ischedule
Group
p605
(dp606
g8
g603
sg31
S'Data Mining1'
p607
sbsg33
g440
sg38
g247
sg40
g69
sg31
g274
sba(ischedule
Activity
p608
(dp609
g8
(lp610
g240
ag453
ag401
aS'36508571'
p611
ag467
aS'88627897'
p612
ag475
ag190
asg26
S'10'
p613
sg28
(ischedule
Group
p614
(dp615
g8
g610
sg31
S'Autonomous Agents 21'
p616
sbsg33
(iread_data3
Room
p617
(dp618
g26
g310
sg31
g311
sbsg38
g39
sg40
g69
sg31
S'Autonomous Agents 2'
p619
sba(ischedule
Activity
p620
(dp621
g8
(lp622
g253
ag255
ag78
ag20
ag260
ag118
ag264
ag267
ag47
asg26
S'10'
p623
sg28
(ischedule
Group
p624
(dp625
g8
g622
sg31
S'Data Mining3'
p626
sbsg33
(iread_data3
Room
p627
(dp628
g26
g380
sg31
g381
sbsg38
g39
sg40
g41
sg31
g274
sbaa(lp629
(ischedule
Activity
p630
(dp631
g8
g339
sg26
I1000
sg28
Nsg33
g418
sg38
g102
sg40
g103
sg31
g382
sba(ischedule
Activity
p632
(dp633
g8
(lp634
S'79617364'
p635
ag95
ag181
aS'55412918'
p636
ag172
aS'23565001'
p637
ag55
aS'66570705'
p638
ag484
ag200
ag531
ag470
ag189
ag207
ag359
aS'54074680'
p639
ag255
aS'26172512'
p640
ag496
aS'32595335'
p641
ag268
aS'16333449'
p642
ag448
ag485
aS'14591033'
p643
ag523
ag59
aS'16011419'
p644
ag611
ag183
ag142
ag94
ag401
aS'80998260'
p645
aS'55474917'
p646
ag571
ag475
ag204
aS'3474870'
p647
ag343
ag586
aS'90743504'
p648
aS'81218347'
p649
ag286
aS'34588570'
p650
aS'62872965'
p651
ag218
ag88
aS'61060652'
p652
aS'71839156'
p653
aS'79937969'
p654
aS'21311067'
p655
ag366
aS'96118484'
p656
asg26
I1000
sg28
Nsg33
g34
sg38
g102
sg40
g103
sg31
S'Lineaire Algebra'
p657
sba(ischedule
Activity
p658
(dp659
g8
(lp660
g108
ag110
ag112
ag114
ag116
ag118
ag119
ag121
ag123
ag125
ag127
asg26
S'15'
p661
sg28
(ischedule
Group
p662
(dp663
g8
g660
sg31
S'Informatie- en organsatieontwerp1'
p664
sbsg33
g440
sg38
g247
sg40
g69
sg31
g132
sba(ischedule
Activity
p665
(dp666
g8
g107
sg26
I1000
sg28
Nsg33
g128
sg38
g102
sg40
g69
sg31
g132
sba(ischedule
Activity
p667
(dp668
g8
(lp669
S'83415514'
p670
ag416
ag296
ag465
ag479
ag161
aS'47462856'
p671
ag464
ag110
aS'59111489'
p672
ag204
ag495
ag19
ag371
ag496
ag165
ag434
ag497
aS'49219163'
p673
ag108
ag498
aS'84449005'
p674
aS'18144425'
p675
ag499
aS'13218321'
p676
ag284
ag500
ag125
ag587
ag163
aS'41489515'
p677
aS'27916487'
p678
ag433
aS'46570285'
p679
ag282
ag501
ag361
ag177
ag502
ag188
ag222
ag503
ag221
aS'13911001'
p680
ag504
aS'27241113'
p681
ag319
ag505
aS'15051051'
p682
aS'75997788'
p683
ag127
ag480
ag171
ag506
asg26
I1000
sg28
Nsg33
g151
sg38
g102
sg40
g69
sg31
g511
sba(ischedule
Activity
p684
(dp685
g8
(lp686
g531
ag353
ag89
aS'58253841'
p687
aS'74361881'
p688
ag136
ag238
ag138
ag482
ag328
ag465
aS'14398123'
p689
asg26
S'15'
p690
sg28
(ischedule
Group
p691
(dp692
g8
g686
sg31
S'Project Genetic Algorithms3'
p693
sbsg33
(iread_data3
Room
p694
(dp695
g26
S'41'
p696
sg31
S'A1.04'
p697
sbsg38
g39
sg40
g41
sg31
S'Project Genetic Algorithms'
p698
sbaaa(lp699
(lp700
(ischedule
Activity
p701
(dp702
g8
(lp703
g340
ag285
ag343
ag17
ag55
ag349
ag351
ag354
ag84
ag204
ag362
ag366
ag369
ag241
ag375
ag377
asg26
S'20'
p704
sg28
(ischedule
Group
p705
(dp706
g8
g703
sg31
S'Collectieve Intelligentie1'
p707
sbsg33
g418
sg38
g39
sg40
g69
sg31
g382
sba(ischedule
Activity
p708
(dp709
g8
(lp710
g46
aS'31306819'
p711
aS'65978354'
p712
ag637
aS'5615125'
p713
aS'82412626'
p714
ag352
ag200
ag97
ag374
ag198
ag282
aS'79888156'
p715
aS'56348773'
p716
aS'72526473'
p717
ag412
aS'73302736'
p718
ag410
ag679
ag355
ag670
aS'32705005'
p719
aS'6723948'
p720
aS'28957789'
p721
ag636
ag643
aS'58469172'
p722
ag113
ag325
aS'10609762'
p723
ag377
aS'11593163'
p724
aS'93361408'
p725
ag434
ag218
aS'24875739'
p726
asg26
S'40'
p727
sg28
(ischedule
Group
p728
(dp729
g8
g710
sg31
S'Calculus 21'
p730
sbsg33
g65
sg38
g247
sg40
g69
sg31
S'Calculus 2'
p731
sba(ischedule
Activity
p732
(dp733
g8
(lp734
g401
aS'53139134'
p735
ag635
ag92
ag290
aS'22168693'
p736
aS'77306636'
p737
aS'21029457'
p738
aS'34173695'
p739
ag431
ag687
aS'27064249'
p740
ag413
aS'26260141'
p741
ag281
ag433
ag93
ag683
aS'80188025'
p742
ag452
ag317
aS'62105897'
p743
ag206
ag238
ag316
ag58
aS'19717077'
p744
ag222
ag543
ag588
aS'59220392'
p745
aS'37279234'
p746
aS'14179347'
p747
ag187
ag287
asg26
g727
sg28
(ischedule
Group
p748
(dp749
g8
g734
sg31
S'Calculus 23'
p750
sbsg33
g128
sg38
g247
sg40
g41
sg31
g731
sba(ischedule
Activity
p751
(dp752
g8
(lp753
g429
ag469
ag319
ag175
aS'49922855'
p754
aS'70844780'
p755
ag501
ag449
ag531
aS'42406214'
p756
ag95
ag500
ag278
aS'61518436'
p757
aS'54569540'
p758
aS'51415617'
p759
ag266
asg26
g547
sg28
(ischedule
Group
p760
(dp761
g8
g753
sg31
S'Reflectie op de digitale cultuur2'
p762
sbsg33
g98
sg38
g247
sg40
g103
sg31
g553
sba(ischedule
Activity
p763
(dp764
g8
g622
sg26
g604
sg28
g624
sg33
g151
sg38
g247
sg40
g41
sg31
g274
sba(ischedule
Activity
p765
(dp766
g8
(lp767
g462
aS'64554442'
p768
ag741
ag94
ag178
aS'96453361'
p769
ag176
ag376
ag328
ag77
ag647
ag141
aS'67817269'
p770
ag581
aS'21095566'
p771
aS'51509565'
p772
aS'36903574'
p773
aS'19540225'
p774
aS'40343779'
p775
ag464
ag80
ag540
asg26
g243
sg28
(ischedule
Group
p776
(dp777
g8
g767
sg31
S'Algoritmen en complexiteit1'
p778
sbsg33
g440
sg38
g247
sg40
g69
sg31
g248
sbaa(lp779
(ischedule
Activity
p780
(dp781
g8
(lp782
g341
ag109
ag345
ag347
ag348
ag207
ag60
ag356
ag359
ag361
ag365
ag368
ag371
ag374
ag24
asg26
g558
sg28
(ischedule
Group
p783
(dp784
g8
g782
sg31
S'Collectieve Intelligentie4'
p785
sbsg33
g65
sg38
g247
sg40
g336
sg31
g382
sba(ischedule
Activity
p786
(dp787
g8
(lp788
g240
ag204
ag295
ag453
ag196
ag651
ag401
aS'34806836'
p789
ag253
ag611
ag469
ag202
ag467
ag160
aS'70113753'
p790
ag612
aS'61611295'
p791
aS'19858730'
p792
ag475
ag254
ag12
ag190
asg26
I1000
sg28
Nsg33
g418
sg38
g102
sg40
g69
sg31
g619
sba(ischedule
Activity
p793
(dp794
g8
(lp795
g56
aS'13718298'
p796
ag141
ag353
aS'96554914'
p797
aS'31103066'
p798
ag48
ag252
ag573
ag522
ag268
aS'65408517'
p799
ag237
aS'9287708'
p800
ag718
ag583
aS'37830626'
p801
ag139
ag432
ag646
ag426
aS'84110134'
p802
ag502
aS'31633723'
p803
ag546
ag299
ag18
ag741
ag348
ag771
ag295
aS'3727435'
p804
ag743
aS'59544049'
p805
ag652
ag368
ag775
ag416
asg26
S'40'
p806
sg28
(ischedule
Group
p807
(dp808
g8
g795
sg31
S'Software engineering1'
p809
sbsg33
g440
sg38
g247
sg40
g69
sg31
g491
sba(ischedule
Activity
p810
(dp811
g8
(lp812
g109
ag111
ag113
ag115
ag117
ag12
ag120
ag122
ag124
ag126
asg26
S'15'
p813
sg28
(ischedule
Group
p814
(dp815
g8
g812
sg31
S'Informatie- en organsatieontwerp2'
p816
sbsg33
g128
sg38
g39
sg40
g103
sg31
g132
sba(ischedule
Activity
p817
(dp818
g8
(lp819
g139
ag429
ag165
ag185
ag469
ag21
aS'60661905'
p820
ag319
ag197
aS'27805666'
p821
ag175
ag538
ag326
ag754
ag539
ag796
ag755
ag117
aS'27370083'
p822
ag501
ag540
aS'38296757'
p823
ag449
ag541
ag797
ag531
ag517
ag417
ag756
ag542
ag674
ag95
ag543
ag159
ag500
ag53
aS'82390428'
p824
ag278
ag167
aS'36213792'
p825
ag757
ag544
aS'68286356'
p826
ag758
ag545
ag398
ag759
ag269
ag253
ag266
ag546
asg26
I1000
sg28
Nsg33
g98
sg38
g102
sg40
g69
sg31
g553
sba(ischedule
Activity
p827
(dp828
g8
(lp829
g346
ag198
ag254
ag411
ag543
ag168
ag720
ag682
ag643
ag195
ag11
aS'30050930'
p830
ag467
ag539
aS'28359697'
p831
asg26
g577
sg28
(ischedule
Group
p832
(dp833
g8
g829
sg31
S'Bioinformatica2'
p834
sbsg33
(iread_data3
Room
p835
(dp836
g26
g334
sg31
g335
sbsg38
g247
sg40
g103
sg31
g444
sba(ischedule
Activity
p837
(dp838
g8
g251
sg26
I1000
sg28
Nsg33
(iread_data3
Room
p839
(dp840
g26
g380
sg31
g381
sbsg38
g102
sg40
g103
sg31
g274
sbaa(lp841
(ischedule
Activity
p842
(dp843
g8
(lp844
g295
ag651
ag253
ag202
ag790
ag792
ag12
asg26
S'10'
p845
sg28
(ischedule
Group
p846
(dp847
g8
g844
sg31
S'Autonomous Agents 23'
p848
sbsg33
g34
sg38
g247
sg40
g41
sg31
g619
sba(ischedule
Activity
p849
(dp850
g8
(lp851
g426
ag346
ag241
ag207
ag198
aS'56815156'
p852
ag427
ag254
ag283
ag428
ag411
ag454
ag429
ag543
ag769
ag430
ag168
ag805
ag112
ag720
ag48
ag215
ag682
ag474
ag431
ag643
ag738
ag213
ag195
ag635
ag432
ag11
ag471
ag433
ag830
ag78
ag434
ag467
ag500
ag435
ag539
ag25
ag171
ag831
ag360
asg26
I1000
sg28
Nsg33
g151
sg38
g102
sg40
g41
sg31
g444
sba(ischedule
Activity
p853
(dp854
g8
(lp855
g799
aS'56544130'
p856
aS'33672995'
p857
ag320
ag76
aS'6709529'
p858
ag180
aS'23628642'
p859
ag215
aS'75623387'
p860
aS'14303208'
p861
ag503
ag468
ag351
ag166
ag480
ag219
ag523
aS'61520025'
p862
ag182
aS'75446434'
p863
ag483
ag239
ag216
aS'55530367'
p864
ag262
ag376
ag823
ag240
ag498
aS'3678531'
p865
ag59
aS'78735049'
p866
ag14
ag137
asg26
g727
sg28
(ischedule
Group
p867
(dp868
g8
g855
sg31
S'Calculus 22'
p869
sbsg33
g440
sg38
g247
sg40
g103
sg31
g731
sba(ischedule
Activity
p870
(dp871
g8
(lp872
g320
ag293
ag84
ag213
ag406
aS'39429093'
p873
ag566
ag166
ag683
ag540
asg26
S'10'
p874
sg28
(ischedule
Group
p875
(dp876
g8
g872
sg31
S'Advanced Heuristics1'
p877
sbsg33
g98
sg38
g39
sg40
g69
sg31
S'Advanced Heuristics'
p878
sba(ischedule
Activity
p879
(dp880
g8
g603
sg26
g623
sg28
g605
sg33
g418
sg38
g39
sg40
g69
sg31
g274
sba(ischedule
Activity
p881
(dp882
g8
(lp883
g861
ag680
aS'99272880'
p884
ag242
ag372
aS'25994016'
p885
aS'55103073'
p886
ag115
ag239
aS'1695839'
p887
aS'82066165'
p888
aS'5892092'
p889
aS'42297781'
p890
asg26
g147
sg28
(ischedule
Group
p891
(dp892
g8
g883
sg31
S'Compilerbouw practicum2'
p893
sbsg33
g128
sg38
g39
sg40
g103
sg31
g155
sba(ischedule
Activity
p894
(dp895
g8
(lp896
g85
ag179
ag283
ag340
ag355
ag642
ag647
ag21
ag199
aS'41790793'
p897
ag178
aS'69459473'
p898
aS'49908313'
p899
aS'76648468'
p900
ag740
aS'53512831'
p901
aS'10698627'
p902
ag477
ag83
ag591
ag170
ag502
ag861
ag362
ag416
aS'24891081'
p903
aS'2416751'
p904
ag515
aS'39230359'
p905
ag427
ag232
aS'76903244'
p906
aS'67073567'
p907
ag713
aS'28358060'
p908
aS'20618153'
p909
aS'94930277'
p910
ag417
aS'1137946'
p911
asg26
I1000
sg28
Nsg33
g65
sg38
g102
sg40
g69
sg31
S'Webprogrammeren en databases'
p912
sbaa(lp913
(ischedule
Activity
p914
(dp915
g8
g73
sg26
I1000
sg28
Nsg33
g418
sg38
g102
sg40
g69
sg31
g104
sba(ischedule
Activity
p916
(dp917
g8
g819
sg26
I1000
sg28
Nsg33
g440
sg38
g102
sg40
g103
sg31
g553
sba(ischedule
Activity
p918
(dp919
g8
(lp920
S'40633534'
p921
ag740
ag22
ag83
aS'62613937'
p922
ag340
ag755
ag46
ag435
ag197
asg26
g874
sg28
(ischedule
Group
p923
(dp924
g8
g920
sg31
S'Advanced Heuristics2'
p925
sbsg33
g151
sg38
g39
sg40
g103
sg31
g878
sba(ischedule
Activity
p926
(dp927
g8
(lp928
g320
ag81
ag653
ag208
ag432
ag471
ag474
ag212
ag688
aS'91250534'
p929
ag570
aS'47260040'
p930
ag590
aS'44151631'
p931
asg26
g147
sg28
(ischedule
Group
p932
(dp933
g8
g928
sg31
S'Compilerbouw practicum1'
p934
sbsg33
g98
sg38
g39
sg40
g69
sg31
g155
sba(ischedule
Activity
p935
(dp936
g8
(lp937
g481
ag137
ag413
ag124
ag720
aS'7386961'
p938
aS'51791169'
p939
ag884
ag317
ag234
ag162
ag24
ag202
ag108
ag473
ag161
aS'88597745'
p940
ag166
ag352
asg26
g596
sg28
(ischedule
Group
p941
(dp942
g8
g937
sg31
S'Programmeren in Java 22'
p943
sbsg33
(iread_data3
Room
p944
(dp945
g26
g310
sg31
g311
sbsg38
g39
sg40
g103
sg31
g600
sba(ischedule
Activity
p946
(dp947
g8
g564
sg26
I1000
sg28
Nsg33
(iread_data3
Room
p948
(dp949
g26
g334
sg31
g335
sbsg38
g102
sg40
g103
sg31
g574
sbaa(lp950
(ischedule
Activity
p951
(dp952
g8
(lp953
g117
ag125
ag595
ag361
aS'53775014'
p954
ag258
ag585
ag198
ag469
aS'83443653'
p955
ag683
ag652
ag653
aS'97417002'
p956
ag910
ag373
ag253
aS'45660925'
p957
ag792
ag46
ag643
ag649
asg26
S'25'
p958
sg28
(ischedule
Group
p959
(dp960
g8
g953
sg31
S'Heuristieken 12'
p961
sbsg33
g98
sg38
g247
sg40
g103
sg31
S'Heuristieken 1'
p962
sba(ischedule
Activity
p963
(dp964
g8
g829
sg26
g436
sg28
g832
sg33
g128
sg38
g39
sg40
g103
sg31
g444
sba(ischedule
Activity
p965
(dp966
g8
(lp967
g746
ag347
ag46
ag909
ag302
ag408
ag119
ag342
ag670
ag287
ag376
ag542
aS'54395877'
p968
ag95
ag168
ag120
aS'63096281'
p969
ag88
asg26
g596
sg28
(ischedule
Group
p970
(dp971
g8
g967
sg31
S'Programmeren in Java 26'
p972
sbsg33
g440
sg38
g39
sg40
S'6'
p973
sg31
g600
sba(ischedule
Activity
p974
(dp975
g8
(lp976
g56
ag462
ag796
ag24
ag141
ag463
ag353
ag464
ag797
ag465
ag798
ag160
ag48
ag466
ag252
ag467
ag573
ag468
ag522
ag453
ag268
ag377
ag799
ag469
ag237
ag427
ag800
ag431
ag718
ag258
ag583
ag470
ag801
ag318
ag139
ag471
ag432
ag472
ag646
ag76
ag426
ag473
ag802
ag474
ag502
ag475
ag803
ag476
ag546
ag60
ag299
ag477
ag18
ag478
ag741
ag233
ag348
ag479
ag771
ag480
ag295
ag365
ag804
ag481
ag743
ag482
ag805
ag483
ag652
ag484
ag368
ag485
ag775
ag486
ag416
asg26
I1000
sg28
Nsg33
g34
sg38
g102
sg40
g69
sg31
g491
sba(ischedule
Activity
p977
(dp978
g8
(lp979
g515
ag517
ag212
ag258
ag448
ag400
ag433
ag520
ag56
ag49
ag522
ag110
ag525
ag500
ag144
ag479
ag528
ag530
ag123
asg26
S'20'
p980
sg28
(ischedule
Group
p981
(dp982
g8
g979
sg31
S'Technology for games1'
p983
sbsg33
(iread_data3
Room
p984
(dp985
g26
g272
sg31
g273
sbsg38
g247
sg40
g69
sg31
g534
sba(ischedule
Activity
p986
(dp987
g8
(lp988
g416
ag479
ag464
ag204
ag371
ag434
ag108
ag675
ag284
ag587
ag678
ag282
ag177
ag222
ag680
ag319
ag683
ag171
asg26
S'20'
p989
sg28
(ischedule
Group
p990
(dp991
g8
g988
sg31
S'Moderne Databases2'
p992
sbsg33
(iread_data3
Room
p993
(dp994
g26
g696
sg31
g697
sbsg38
g247
sg40
g103
sg31
g511
sba(ischedule
Activity
p995
(dp996
g8
g277
sg26
S'40'
p997
sg28
g305
sg33
(iread_data3
Room
p998
(dp999
g26
g380
sg31
g381
sbsg38
g247
sg40
g69
sg31
g312
sbaaa(lp1000
(lp1001
(ischedule
Activity
p1002
(dp1003
g8
g514
sg26
I1000
sg28
Nsg33
g440
sg38
g102
sg40
g69
sg31
g534
sba(ischedule
Activity
p1004
(dp1005
g8
g851
sg26
I1000
sg28
Nsg33
g418
sg38
g102
sg40
g69
sg31
g444
sba(ischedule
Activity
p1006
(dp1007
g8
(lp1008
g287
ag802
ag278
ag435
ag263
ag281
ag114
ag671
aS'79366078'
p1009
ag286
ag803
ag649
aS'10872825'
p1010
ag86
ag233
ag295
ag328
aS'72547110'
p1011
ag586
ag581
ag646
ag884
ag341
aS'56988998'
p1012
ag567
ag317
ag722
ag59
ag108
ag482
ag518
ag773
ag679
aS'38329455'
p1013
ag177
ag186
ag595
ag485
ag568
ag168
ag689
ag462
ag411
ag215
ag527
aS'34262212'
p1014
ag805
aS'37498675'
p1015
ag142
ag719
aS'63955238'
p1016
ag18
ag721
ag758
aS'59075181'
p1017
ag643
aS'82688900'
p1018
aS'44940353'
p1019
aS'39919665'
p1020
ag137
ag726
ag905
ag111
ag713
aS'39659121'
p1021
ag255
ag538
aS'91139627'
p1022
ag360
ag56
ag211
aS'51186803'
p1023
aS'65003379'
p1024
aS'47605891'
p1025
ag89
ag866
ag757
ag53
ag370
ag540
aS'7492204'
p1026
aS'63408522'
p1027
aS'79858178'
p1028
aS'23391676'
p1029
asg26
I1000
sg28
Nsg33
(iread_data3
Room
p1030
(dp1031
g26
g310
sg31
g311
sbsg38
g102
sg40
g103
sg31
S'Kansrekenen 2'
p1032
sba(ischedule
Activity
p1033
(dp1034
g8
g557
sg26
g704
sg28
g559
sg33
(iread_data3
Room
p1035
(dp1036
g26
g696
sg31
g697
sbsg38
g39
sg40
g41
sg31
g382
sba(ischedule
Activity
p1037
(dp1038
g8
g494
sg26
g989
sg28
g508
sg33
(iread_data3
Room
p1039
(dp1040
g26
g334
sg31
g335
sbsg38
g247
sg40
g41
sg31
g511
sbaa(lp1041
(ischedule
Activity
p1042
(dp1043
g8
g610
sg26
g845
sg28
g614
sg33
g98
sg38
g247
sg40
g69
sg31
g619
sba(ischedule
Activity
p1044
(dp1045
g8
(lp1046
g398
ag399
ag401
ag374
ag404
ag406
ag169
ag23
ag409
ag77
ag412
ag413
ag362
ag173
ag416
ag78
asg26
S'20'
p1047
sg28
(ischedule
Group
p1048
(dp1049
g8
g1046
sg31
S'Heuristieken 21'
p1050
sbsg33
g128
sg38
g247
sg40
g69
sg31
g422
sba(ischedule
Activity
p1051
(dp1052
g8
(lp1053
g137
ag400
ag402
ag403
ag405
ag407
ag278
ag408
ag410
ag411
ag196
ag414
ag181
ag415
ag237
ag417
asg26
g1047
sg28
(ischedule
Group
p1054
(dp1055
g8
g1053
sg31
S'Heuristieken 22'
p1056
sbsg33
g65
sg38
g247
sg40
g103
sg31
g422
sba(ischedule
Activity
p1057
(dp1058
g8
g660
sg26
g813
sg28
g662
sg33
g34
sg38
g39
sg40
g69
sg31
g132
sba(ischedule
Activity
p1059
(dp1060
g8
(lp1061
g670
ag465
ag671
ag672
ag19
ag165
ag673
ag674
ag676
ag125
ag677
ag679
ag361
ag188
ag221
ag681
ag682
ag480
asg26
g507
sg28
(ischedule
Group
p1062
(dp1063
g8
g1061
sg31
S'Moderne Databases1'
p1064
sbsg33
g440
sg38
g39
sg40
g69
sg31
g511
sbaa(lp1065
(ischedule
Activity
p1066
(dp1067
g8
(lp1068
g241
ag852
ag283
ag454
ag769
ag805
ag48
ag474
ag738
ag635
ag471
ag78
ag500
ag25
ag360
asg26
g577
sg28
(ischedule
Group
p1069
(dp1070
g8
g1068
sg31
S'Bioinformatica3'
p1071
sbsg33
g98
sg38
g247
sg40
g41
sg31
g444
sba(ischedule
Activity
p1072
(dp1073
g8
g1061
sg26
g989
sg28
g1062
sg33
g128
sg38
g247
sg40
g69
sg31
g511
sba(ischedule
Activity
p1074
(dp1075
g8
(lp1076
g179
ag340
ag642
ag21
ag897
ag898
ag900
ag901
ag477
ag591
ag502
ag362
ag903
ag515
ag427
ag906
ag713
ag909
ag417
asg26
S'20'
p1077
sg28
(ischedule
Group
p1078
(dp1079
g8
g1076
sg31
S'Webprogrammeren en databases2'
p1080
sbsg33
g151
sg38
g247
sg40
g103
sg31
g912
sba(ischedule
Activity
p1081
(dp1082
g8
g782
sg26
g704
sg28
g783
sg33
(iread_data3
Room
p1083
(dp1084
g26
g225
sg31
g226
sbsg38
g39
sg40
g336
sg31
g382
sba(ischedule
Activity
p1085
(dp1086
g8
(lp1087
S'75680261'
p1088
aS'55480737'
p1089
ag430
ag747
ag193
ag326
ag885
ag92
aS'66701209'
p1090
ag410
ag345
ag285
asg26
g690
sg28
(ischedule
Group
p1091
(dp1092
g8
g1087
sg31
S'Project Genetic Algorithms2'
p1093
sbsg33
(iread_data3
Room
p1094
(dp1095
g26
g696
sg31
g697
sbsg38
g39
sg40
g103
sg31
g698
sba(ischedule
Activity
p1096
(dp1097
g8
(lp1098
g165
ag163
ag141
ag346
ag211
ag350
ag352
ag355
ag357
ag14
ag363
ag367
ag242
ag372
ag376
asg26
g704
sg28
(ischedule
Group
p1099
(dp1100
g8
g1098
sg31
S'Collectieve Intelligentie2'
p1101
sbsg33
(iread_data3
Room
p1102
(dp1103
g26
g334
sg31
g335
sbsg38
g39
sg40
g103
sg31
g382
sbaa(lp1104
(ischedule
Activity
p1105
(dp1106
g8
(lp1107
S'4353500'
p1108
aS'98105190'
p1109
aS'76393508'
p1110
aS'14941752'
p1111
ag323
ag377
ag1017
ag399
aS'87210640'
p1112
ag474
ag119
ag16
ag468
ag12
ag168
ag265
ag773
ag405
ag567
ag188
aS'79879876'
p1113
ag570
asg26
g958
sg28
(ischedule
Group
p1114
(dp1115
g8
g1107
sg31
S'Heuristieken 11'
p1116
sbsg33
g128
sg38
g247
sg40
g69
sg31
g962
sba(ischedule
Activity
p1117
(dp1118
g8
(lp1119
g58
aS'8464817'
p1120
ag278
ag92
ag279
ag235
ag280
aS'13284244'
p1121
ag281
ag342
ag282
aS'75759231'
p1122
ag283
aS'65852230'
p1123
ag284
ag360
ag232
aS'95007221'
p1124
ag285
ag430
ag202
ag720
ag286
aS'7957843'
p1125
ag175
ag520
ag287
ag94
ag288
ag526
ag289
ag479
ag190
ag1090
ag290
aS'2317551'
p1126
ag291
ag506
ag292
ag448
ag60
ag350
ag293
ag588
ag294
ag680
ag192
aS'34110913'
p1127
ag295
ag143
ag296
ag183
ag297
ag205
ag298
ag478
ag299
ag86
ag300
ag48
ag55
aS'2079771'
p1128
ag301
ag1109
ag302
ag546
ag303
ag572
ag110
asg26
I1000
sg28
Nsg33
g440
sg38
g102
sg40
g69
sg31
g312
sba(ischedule
Activity
p1129
(dp1130
g8
g988
sg26
g507
sg28
g990
sg33
g98
sg38
g39
sg40
g103
sg31
g511
sba(ischedule
Activity
p1131
(dp1132
g8
(lp1133
g85
ag283
ag355
ag647
ag199
ag178
ag899
ag740
ag902
ag83
ag170
ag861
ag416
ag904
ag905
ag232
ag907
ag908
ag910
ag911
asg26
g1077
sg28
(ischedule
Group
p1134
(dp1135
g8
g1133
sg31
S'Webprogrammeren en databases1'
p1136
sbsg33
g418
sg38
g247
sg40
g69
sg31
g912
sba(ischedule
Activity
p1137
(dp1138
g8
(lp1139
g485
ag857
aS'78822885'
p1140
ag286
ag796
ag468
ag13
ag683
aS'88737765'
p1141
ag531
ag586
ag401
ag173
ag856
ag402
ag589
ag326
ag568
ag10
aS'14637758'
p1142
ag221
aS'97838175'
p1143
ag469
ag955
ag433
ag595
ag189
ag268
ag541
ag742
aS'58480929'
p1144
ag718
ag454
ag417
ag820
ag111
ag922
aS'82854435'
p1145
ag211
ag517
aS'18477924'
p1146
ag637
ag300
ag182
ag463
aS'73350019'
p1147
ag186
ag208
ag852
asg26
I1000
sg28
Nsg33
g34
sg38
g102
sg40
g69
sg31
S'Analysemethoden en -technieken'
p1148
sba(ischedule
Activity
p1149
(dp1150
g8
g1076
sg26
S'20'
p1151
sg28
g1078
sg33
(iread_data3
Room
p1152
(dp1153
g26
g696
sg31
g697
sbsg38
g39
sg40
g103
sg31
g912
sba(ischedule
Activity
p1154
(dp1155
g8
(lp1156
g204
ag196
ag789
ag469
ag160
ag791
ag254
asg26
g613
sg28
(ischedule
Group
p1157
(dp1158
g8
g1156
sg31
S'Autonomous Agents 22'
p1159
sbsg33
(iread_data3
Room
p1160
(dp1161
g26
g380
sg31
g381
sbsg38
g39
sg40
g103
sg31
g619
sbaa(lp1162
(ischedule
Activity
p1163
(dp1164
g8
(lp1165
g473
ag197
ag402
ag142
ag252
ag526
ag209
ag1125
ag775
ag428
ag302
ag191
ag94
ag755
ag346
ag351
asg26
g27
sg28
(ischedule
Group
p1166
(dp1167
g8
g1165
sg31
S'Netwerken en systeembeveiliging1'
p1168
sbsg33
g128
sg38
g39
sg40
g69
sg31
g42
sba(ischedule
Activity
p1169
(dp1170
g8
(lp1171
g78
ag773
aS'85284256'
p1172
aS'59887191'
p1173
aS'25557516'
p1174
ag174
ag1108
ag689
ag342
aS'123355'
p1175
aS'12170832'
p1176
ag455
ag1017
aS'64246605'
p1177
ag96
ag220
asg26
g27
sg28
(ischedule
Group
p1178
(dp1179
g8
g1171
sg31
S'Netwerken en systeembeveiliging2'
p1180
sbsg33
g418
sg38
g39
sg40
g103
sg31
g42
sba(ischedule
Activity
p1181
(dp1182
g8
(lp1183
g189
ag109
ag47
ag902
ag1014
ag743
aS'10702778'
p1184
ag1029
aS'12782624'
p1185
ag215
ag486
ag263
aS'73196865'
p1186
ag525
ag466
ag1026
ag51
ag319
asg26
g596
sg28
(ischedule
Group
p1187
(dp1188
g8
g1183
sg31
S'Programmeren in Java 23'
p1189
sbsg33
g440
sg38
g39
sg40
g41
sg31
g600
sba(ischedule
Activity
p1190
(dp1191
g8
(lp1192
g252
ag23
ag196
ag258
ag141
ag261
ag263
ag266
ag269
asg26
g623
sg28
(ischedule
Group
p1193
(dp1194
g8
g1192
sg31
S'Data Mining2'
p1195
sbsg33
g151
sg38
g39
sg40
g103
sg31
g274
sba(ischedule
Activity
p1196
(dp1197
g8
(lp1198
g1108
ag117
ag1109
ag125
ag1110
ag595
ag1111
ag361
ag323
ag954
ag377
ag258
ag1017
ag585
ag399
ag198
ag1112
ag469
ag474
ag955
ag119
ag683
ag16
ag652
ag468
ag653
ag12
ag956
ag168
ag910
ag265
ag373
ag773
ag253
ag405
ag957
ag567
ag792
ag188
ag46
ag1113
ag643
ag570
ag649
asg26
I1000
sg28
Nsg33
(iread_data3
Room
p1199
(dp1200
g26
g334
sg31
g335
sbsg38
g102
sg40
g69
sg31
g962
sba(ischedule
Activity
p1201
(dp1202
g8
(lp1203
g46
ag799
ag401
ag711
ag856
ag735
ag712
ag857
ag635
ag637
ag320
ag92
ag713
ag76
ag290
ag714
ag858
ag736
ag352
ag180
ag737
ag200
ag859
ag738
ag97
ag215
ag739
ag374
ag860
ag431
ag198
ag861
ag687
ag282
ag503
ag740
ag715
ag468
ag413
ag716
ag351
ag741
ag717
ag166
ag281
ag412
ag480
ag433
ag718
ag219
ag93
ag410
ag523
ag683
ag679
ag862
ag742
ag355
ag182
ag452
ag670
ag863
ag317
ag719
ag483
ag743
ag720
ag239
ag206
ag721
ag216
ag238
ag636
ag864
ag316
ag643
ag262
ag58
ag722
ag376
ag744
ag113
ag823
ag222
ag325
ag240
ag543
ag723
ag498
ag588
ag377
ag865
ag745
ag724
ag59
ag746
ag725
ag866
ag747
ag434
ag14
ag187
ag218
ag137
ag287
ag726
asg26
I1000
sg28
Nsg33
(iread_data3
Room
p1204
(dp1205
g26
g392
sg31
g393
sbsg38
g102
sg40
g69
sg31
g731
sbaaa(lp1206
(lp1207
(ischedule
Activity
p1208
(dp1209
g8
g1156
sg26
g845
sg28
g1157
sg33
g65
sg38
g247
sg40
g103
sg31
g619
sba(ischedule
Activity
p1210
(dp1211
g8
(lp1212
g160
ag162
ag164
ag166
ag168
ag16
ag171
ag173
ag175
ag177
ag179
ag180
ag120
ag183
ag185
ag187
ag188
ag189
ag191
ag193
ag195
ag197
ag199
ag201
ag203
ag205
ag207
ag209
ag58
ag211
ag213
ag215
ag216
ag218
ag220
ag222
asg26
g386
sg28
(ischedule
Group
p1213
(dp1214
g8
g1212
sg31
S'Databases 22'
p1215
sbsg33
g151
sg38
g247
sg40
g103
sg31
g227
sba(ischedule
Activity
p1216
(dp1217
g8
g795
sg26
g487
sg28
g807
sg33
g128
sg38
g39
sg40
g69
sg31
g491
sba(ischedule
Activity
p1218
(dp1219
g8
g1192
sg26
g604
sg28
g1193
sg33
g418
sg38
g247
sg40
g103
sg31
g274
sba(ischedule
Activity
p1220
(dp1221
g8
g1133
sg26
g1151
sg28
g1134
sg33
g98
sg38
g39
sg40
g69
sg31
g912
sba(ischedule
Activity
p1222
(dp1223
g8
(lp1224
g462
ag232
ag768
ag139
ag741
ag17
ag94
ag233
ag178
ag234
ag769
ag91
ag176
ag235
ag376
ag196
ag328
ag236
ag77
ag222
ag647
ag237
ag141
ag175
ag770
ag238
ag581
ag239
ag771
ag124
ag772
ag240
ag773
ag241
ag774
ag242
ag775
ag146
ag464
ag162
ag80
ag16
ag540
asg26
I1000
sg28
Nsg33
g34
sg38
g102
sg40
g69
sg31
g248
sba(ischedule
Activity
p1225
(dp1226
g8
g231
sg26
S'25'
p1227
sg28
g244
sg33
g440
sg38
g39
sg40
g103
sg31
g248
sbaa(lp1228
(ischedule
Activity
p1229
(dp1230
g8
(lp1231
g506
ag411
aS'34691309'
p1232
ag1111
ag432
ag1121
ag232
ag342
ag1125
ag802
aS'90103047'
p1233
ag23
ag346
ag756
aS'32183908'
p1234
asg26
g61
sg28
(ischedule
Group
p1235
(dp1236
g8
g1231
sg31
S'Project Numerical Recipes2'
p1237
sbsg33
g98
sg38
g39
sg40
g103
sg31
g70
sba(ischedule
Activity
p1238
(dp1239
g8
(lp1240
g175
ag238
ag543
ag239
aS'73893840'
p1241
ag820
ag252
ag434
ag1126
ag366
ag482
ag646
ag364
ag1113
ag501
ag241
ag904
ag294
asg26
g596
sg28
(ischedule
Group
p1242
(dp1243
g8
g1240
sg31
S'Programmeren in Java 24'
p1244
sbsg33
g151
sg38
g39
sg40
g336
sg31
g600
sba(ischedule
Activity
p1245
(dp1246
g8
g461
sg26
g806
sg28
g488
sg33
(iread_data3
Room
p1247
(dp1248
g26
g310
sg31
g311
sbsg38
g247
sg40
g103
sg31
g491
sba(ischedule
Activity
p1249
(dp1250
g8
(lp1251
g320
ag921
ag293
ag740
ag84
ag22
ag213
ag83
ag406
ag922
ag873
ag340
ag566
ag755
ag166
ag46
ag683
ag435
ag540
ag197
asg26
I1000
sg28
Nsg33
(iread_data3
Room
p1252
(dp1253
g26
g225
sg31
g226
sbsg38
g102
sg40
g69
sg31
g878
sba(ischedule
Activity
p1254
(dp1255
g8
g844
sg26
g613
sg28
g846
sg33
(iread_data3
Room
p1256
(dp1257
g26
g272
sg31
g273
sbsg38
g39
sg40
g41
sg31
g619
sbaa(lp1258
(ischedule
Activity
p1259
(dp1260
g8
g703
sg26
g558
sg28
g705
sg33
g151
sg38
g247
sg40
g69
sg31
g382
sba(ischedule
Activity
p1261
(dp1262
g8
g339
sg26
I1000
sg28
Nsg33
g440
sg38
g102
sg40
g69
sg31
g382
sba(ischedule
Activity
p1263
(dp1264
g8
(lp1265
g516
ag518
ag519
ag114
ag179
ag125
ag188
ag235
ag521
ag253
ag523
ag524
ag526
ag527
ag347
ag12
ag529
ag531
ag84
asg26
g980
sg28
(ischedule
Group
p1266
(dp1267
g8
g1265
sg31
S'Technology for games2'
p1268
sbsg33
g98
sg38
g247
sg40
g103
sg31
g534
sba(ischedule
Activity
p1269
(dp1270
g8
g1068
sg26
g436
sg28
g1069
sg33
g128
sg38
g39
sg40
g41
sg31
g444
sba(ischedule
Activity
p1271
(dp1272
g8
g1119
sg26
I1000
sg28
Nsg33
g65
sg38
g102
sg40
g103
sg31
g312
sbaa(lp1273
(ischedule
Activity
p1274
(dp1275
g8
g634
sg26
I1000
sg28
Nsg33
g34
sg38
g102
sg40
g69
sg31
g657
sba(ischedule
Activity
p1276
(dp1277
g8
g851
sg26
I1000
sg28
Nsg33
g128
sg38
g102
sg40
g103
sg31
g444
sba(ischedule
Activity
p1278
(dp1279
g8
(lp1280
g402
ag475
ag216
ag1141
ag888
ag898
ag221
ag674
ag412
ag921
ag546
ag164
asg26
g690
sg28
(ischedule
Group
p1281
(dp1282
g8
g1280
sg31
S'Project Genetic Algorithms1'
p1283
sbsg33
g418
sg38
g39
sg40
g69
sg31
g698
sba(ischedule
Activity
p1284
(dp1285
g8
g812
sg26
g661
sg28
g814
sg33
(iread_data3
Room
p1286
(dp1287
g26
g225
sg31
g226
sbsg38
g247
sg40
g103
sg31
g132
sba(ischedule
Activity
p1288
(dp1289
g8
(lp1290
g53
ag237
ag1012
ag823
ag587
aS'33252501'
p1291
aS'67625383'
p1292
ag287
aS'90067329'
p1293
ag404
ag682
ag757
ag584
ag202
ag238
ag1128
ag482
ag292
ag572
ag252
ag341
ag568
asg26
I1000
sg28
Nsg33
(iread_data3
Room
p1294
(dp1295
g26
g696
sg31
g697
sbsg38
g102
sg40
g103
sg31
S'Machine Learning'
p1296
sba(ischedule
Activity
p1297
(dp1298
g8
(lp1299
g139
ag185
ag820
ag821
ag326
ag796
ag822
ag823
ag797
ag417
ag674
ag159
ag824
ag825
ag826
ag398
ag253
asg26
g547
sg28
(ischedule
Group
p1300
(dp1301
g8
g1299
sg31
S'Reflectie op de digitale cultuur1'
p1302
sbsg33
(iread_data3
Room
p1303
(dp1304
g26
g380
sg31
g381
sbsg38
g247
sg40
g69
sg31
g553
sba(ischedule
Activity
p1305
(dp1306
g8
(lp1307
g1120
ag92
ag235
ag1121
ag342
ag1122
ag1123
ag360
ag1124
ag430
ag720
ag1125
ag520
ag94
ag526
ag479
ag1090
ag1126
ag506
ag448
ag350
ag588
ag680
ag1127
ag143
ag183
ag205
ag478
ag86
ag48
ag1128
ag1109
ag546
ag572
asg26
g997
sg28
(ischedule
Group
p1308
(dp1309
g8
g1307
sg31
S'Compilerbouw2'
p1310
sbsg33
(iread_data3
Room
p1311
(dp1312
g26
g392
sg31
g393
sbsg38
g247
sg40
g103
sg31
g312
sbaa(lp1313
(ischedule
Activity
p1314
(dp1315
g8
(lp1316
g362
ag1120
ag358
ag301
ag255
ag790
ag722
ag142
ag429
aS'90296821'
p1317
ag183
ag773
ag865
ag298
ag1172
ag259
aS'88519892'
p1318
ag181
asg26
g596
sg28
(ischedule
Group
p1319
(dp1320
g8
g1316
sg31
S'Programmeren in Java 25'
p1321
sbsg33
g151
sg38
g39
sg40
S'5'
p1322
sg31
g600
sba(ischedule
Activity
p1323
(dp1324
g8
g1008
sg26
I1000
sg28
Nsg33
g98
sg38
g102
sg40
g69
sg31
g1032
sba(ischedule
Activity
p1325
(dp1326
g8
g767
sg26
g1227
sg28
g776
sg33
g65
sg38
g39
sg40
g69
sg31
g248
sba(ischedule
Activity
p1327
(dp1328
g8
g1290
sg26
I1000
sg28
Nsg33
g128
sg38
g102
sg40
g69
sg31
g1296
sba(ischedule
Activity
p1329
(dp1330
g8
g788
sg26
I1000
sg28
Nsg33
(iread_data3
Room
p1331
(dp1332
g26
g334
sg31
g335
sbsg38
g102
sg40
g103
sg31
g619
sba(ischedule
Activity
p1333
(dp1334
g8
g896
sg26
I1000
sg28
Nsg33
(iread_data3
Room
p1335
(dp1336
g26
g225
sg31
g226
sbsg38
g102
sg40
g103
sg31
g912
sba(ischedule
Activity
p1337
(dp1338
g8
g1307
sg26
g304
sg28
g1308
sg33
(iread_data3
Room
p1339
(dp1340
g26
g272
sg31
g273
sbsg38
g39
sg40
g103
sg31
g312
sbaaa(lp1341
(lp1342
(ischedule
Activity
p1343
(dp1344
g8
g1098
sg26
g558
sg28
g1099
sg33
g128
sg38
g247
sg40
g103
sg31
g382
sbaa(lp1345
a(lp1346
a(lp1347
a(lp1348
aasS'timeslot_dict'
p1349
(dp1350
I0
S'9:00-11:00'
p1351
sI1
S'11:00-13:00'
p1352
sI2
S'13:00-15:00'
p1353
sI3
S'15:00-17:00'
p1354
sI4
S'17:00-19:00'
p1355
ssS'day_dict'
p1356
(dp1357
I0
S'Monday'
p1358
sI1
S'Tuesday'
p1359
sI2
S'Wednesday'
p1360
sI3
S'Thursday'
p1361
sI4
S'Friday'
p1362
ssb.