(ischedule
Schedule
p0
(dp1
S'timetable'
p2
(lp3
(lp4
(lp5
(ischedule
Activity
p6
(dp7
S'participants'
p8
(lp9
S'54310617'
p10
aS'29640619'
p11
aS'57595888'
p12
aS'42778953'
p13
asS'capacity'
p14
S'20'
p15
sS'name'
p16
S'Collectieve Intelligentie'
p17
sS'ttype'
p18
S'labs'
p19
sS'group_id'
p20
S'2'
p21
sS'room'
p22
(iread_data
Room
p23
(dp24
g14
S'41'
p25
sg16
S'A1.04'
p26
sbsba(ischedule
Activity
p27
(dp28
g8
(lp29
S'27298319'
p30
aS'62356458'
p31
aS'52552718'
p32
aS'51566595'
p33
aS'22871048'
p34
aS'68409833'
p35
asg14
S'10'
p36
sg16
S'Autonomous Agents 2'
p37
sg18
g19
sg20
S'1'
p38
sg22
(iread_data
Room
p39
(dp40
g14
S'22'
p41
sg16
S'A1.06'
p42
sbsba(ischedule
Activity
p43
(dp44
g8
(lp45
S'85335143'
p46
aS'18144425'
p47
aS'30658799'
p48
aS'13218321'
p49
aS'70072978'
p50
aS'78544592'
p51
aS'66621166'
p52
aS'11996292'
p53
aS'5517869'
p54
aS'36748818'
p55
aS'99283252'
p56
aS'59111489'
p57
aS'64600457'
p58
aS'77376714'
p59
aS'14309255'
p60
aS'49631542'
p61
aS'29526540'
p62
aS'68315599'
p63
aS'17222374'
p64
asg14
S'20'
p65
sg16
S'Moderne Databases'
p66
sg18
S'tutorials'
p67
sg20
g21
sg22
(iread_data
Room
p68
(dp69
g14
S'117'
p70
sg16
S'C0.110'
p71
sbsba(ischedule
Activity
p72
(dp73
g8
(lp74
S'83869542'
p75
aS'43027916'
p76
aS'63634350'
p77
aS'15249775'
p78
aS'58736785'
p79
aS'33760909'
p80
aS'27925117'
p81
aS'31897288'
p82
aS'61443567'
p83
aS'81200278'
p84
aS'84524083'
p85
aS'16097870'
p86
aS'87602030'
p87
aS'670011'
p88
asg14
S'20'
p89
sg16
S'Heuristieken 2'
p90
sg18
g67
sg20
g21
sg22
(iread_data
Room
p91
(dp92
g14
S'56'
p93
sg16
S'A1.10'
p94
sbsba(ischedule
Activity
p95
(dp96
g8
(lp97
S'88627897'
p98
aS'11915563'
p99
aS'39459642'
p100
aS'44901052'
p101
aS'37110913'
p102
aS'54026378'
p103
aS'34806836'
p104
aS'62872965'
p105
aS'74131924'
p106
aS'36508571'
p107
aS'19858730'
p108
aS'72796858'
p109
aS'70113753'
p110
asg14
g36
sg16
g37
sg18
g19
sg20
g21
sg22
(iread_data
Room
p111
(dp112
g14
S'48'
p113
sg16
S'B0.201'
p114
sbsba(ischedule
Activity
p115
(dp116
g8
(lp117
S'32204977'
p118
ag102
ag46
aS'47982619'
p119
aS'92496780'
p120
ag101
aS'41578612'
p121
aS'70336464'
p122
aS'77264363'
p123
ag63
aS'89338938'
p124
aS'12077419'
p125
aS'36785409'
p126
aS'40434933'
p127
aS'31194811'
p128
aS'9332762'
p129
aS'12430748'
p130
aS'22323043'
p131
aS'26406342'
p132
aS'23547619'
p133
asg14
S'20'
p134
sg16
S'Technology for games'
p135
sg18
g67
sg20
g38
sg22
(iread_data
Room
p136
(dp137
g14
S'60'
p138
sg16
S'C1.112'
p139
sbsba(ischedule
Activity
p140
(dp141
g8
(lp142
S'49683101'
p143
aS'23798155'
p144
aS'56988998'
p145
aS'27187154'
p146
aS'15051051'
p147
aS'90067329'
p148
aS'3685034'
p149
aS'85236626'
p150
aS'61518436'
p151
aS'63111000'
p152
aS'67625383'
p153
aS'33252501'
p154
aS'94467156'
p155
aS'26857113'
p156
ag100
aS'46701583'
p157
aS'38296757'
p158
aS'40791377'
p159
aS'5976174'
p160
aS'2079771'
p161
aS'37744525'
p162
aS'77240949'
p163
asg14
I1000
sg16
S'Machine Learning'
p164
sg18
S'lectures'
p165
sg20
I0
sg22
(iread_data
Room
p166
(dp167
g14
S'20'
p168
sg16
S'A1.08'
p169
sbsbaa(lp170
(ischedule
Activity
p171
(dp172
g8
(lp173
g32
ag106
ag86
ag30
ag101
ag110
ag54
ag105
ag31
ag103
ag104
ag107
ag99
ag35
ag108
ag109
ag34
ag102
aS'61611295'
p174
ag100
asg14
S'10'
p175
sg16
g37
sg18
g67
sg20
g38
sg22
(iread_data
Room
p176
(dp177
g14
g93
sg16
g94
sbsba(ischedule
Activity
p178
(dp179
g8
(lp180
g48
aS'5368702'
p181
ag100
aS'79033175'
p182
aS'86291592'
p183
aS'95631564'
p184
aS'34110913'
p185
aS'8464817'
p186
ag85
aS'34872117'
p187
aS'11741347'
p188
aS'65852230'
p189
aS'5595824'
p190
aS'65960683'
p191
aS'76802764'
p192
aS'94687383'
p193
aS'13911001'
p194
aS'43689934'
p195
aS'76661016'
p196
ag99
ag143
aS'15911353'
p197
ag60
aS'58522654'
p198
aS'66701209'
p199
ag161
ag109
ag146
ag125
aS'13284244'
p200
ag13
ag63
aS'44391517'
p201
aS'75599734'
p202
aS'88752563'
p203
aS'92665222'
p204
aS'75759231'
p205
aS'1766560'
p206
aS'7957843'
p207
aS'88636924'
p208
aS'48308205'
p209
aS'73236988'
p210
aS'9067939'
p211
aS'10792879'
p212
aS'80135353'
p213
aS'53202517'
p214
aS'6723948'
p215
aS'77896638'
p216
aS'3407554'
p217
aS'75664412'
p218
aS'72895450'
p219
asg14
S'40'
p220
sg16
S'Compilerbouw'
p221
sg18
g19
sg20
g21
sg22
(iread_data
Room
p222
(dp223
g14
g70
sg16
g71
sbsba(ischedule
Activity
p224
(dp225
g8
(lp226
S'16333449'
p227
aS'6249823'
p228
aS'78243495'
p229
aS'10698627'
p230
aS'53512831'
p231
ag219
aS'41790793'
p232
aS'1137946'
p233
aS'66034145'
p234
aS'72577292'
p235
aS'43460038'
p236
ag214
aS'22288615'
p237
aS'20618153'
p238
aS'14303208'
p239
aS'33877725'
p240
aS'57086672'
p241
aS'77392404'
p242
aS'64228258'
p243
aS'24891081'
p244
aS'76123484'
p245
aS'27064249'
p246
ag127
aS'39230359'
p247
aS'5615125'
p248
aS'76648468'
p249
ag83
aS'89180944'
p250
aS'2416751'
p251
aS'76903244'
p252
aS'17092717'
p253
aS'28358060'
p254
aS'43902015'
p255
aS'49908313'
p256
aS'14847953'
p257
aS'3474870'
p258
aS'67073567'
p259
aS'69459473'
p260
aS'94930277'
p261
asg14
I1000
sg16
S'Webprogrammeren en databases'
p262
sg18
g165
sg20
I0
sg22
(iread_data
Room
p263
(dp264
g14
g113
sg16
g114
sbsbaa(lp265
(ischedule
Activity
p266
(dp267
g8
(lp268
S'55530367'
p269
aS'11593163'
p270
aS'75585647'
p271
aS'24875739'
p272
aS'28957789'
p273
aS'86807027'
p274
aS'3678531'
p275
aS'56872729'
p276
aS'55412918'
p277
aS'94686490'
p278
aS'70939718'
p279
aS'19717077'
p280
aS'14591033'
p281
aS'47932106'
p282
aS'6939933'
p283
aS'62105897'
p284
aS'56348773'
p285
aS'93361408'
p286
aS'74182182'
p287
aS'87900893'
p288
aS'80188025'
p289
aS'65978354'
p290
aS'58040377'
p291
ag158
aS'82412626'
p292
ag246
aS'14179347'
p293
ag77
aS'58253841'
p294
aS'10149535'
p295
ag46
aS'4546613'
p296
ag248
aS'46570285'
p297
aS'96054456'
p298
aS'21029457'
p299
aS'81155296'
p300
aS'9731271'
p301
aS'79617364'
p302
aS'97135019'
p303
aS'78735049'
p304
aS'83266686'
p305
ag80
aS'48357272'
p306
aS'56544130'
p307
aS'32705005'
p308
ag243
aS'31306819'
p309
aS'10609762'
p310
ag203
ag146
aS'88855695'
p311
aS'15902055'
p312
aS'38179241'
p313
aS'53139134'
p314
aS'47477884'
p315
ag212
aS'75997788'
p316
aS'45915482'
p317
aS'75623387'
p318
aS'86180471'
p319
aS'77306636'
p320
aS'37279234'
p321
aS'26260141'
p322
aS'53585410'
p323
aS'86000192'
p324
ag86
aS'73823548'
p325
ag239
aS'33672995'
p326
aS'73302736'
p327
ag51
aS'58699305'
p328
aS'79888156'
p329
ag58
aS'72665524'
p330
ag157
ag87
aS'75446434'
p331
aS'78443067'
p332
aS'79167252'
p333
aS'62363761'
p334
aS'22168693'
p335
aS'72526473'
p336
ag30
aS'83415514'
p337
aS'40141996'
p338
ag81
aS'34173695'
p339
aS'51741554'
p340
aS'23658570'
p341
aS'65408517'
p342
aS'23628642'
p343
aS'61520025'
p344
ag215
aS'12091019'
p345
aS'58469172'
p346
aS'14816774'
p347
aS'23565001'
p348
aS'6709529'
p349
aS'6913074'
p350
aS'59220392'
p351
aS'44868097'
p352
aS'58592894'
p353
aS'4783858'
p354
ag196
asg14
I1000
sg16
S'Calculus 2'
p355
sg18
g165
sg20
I0
sg22
(iread_data
Room
p356
(dp357
g14
g70
sg16
g71
sbsba(ischedule
Activity
p358
(dp359
g8
(lp360
S'35330349'
p361
aS'42171678'
p362
aS'87758823'
p363
ag83
ag129
ag13
aS'34773179'
p364
aS'21964491'
p365
ag80
aS'29474737'
p366
aS'64296965'
p367
aS'75521763'
p368
aS'17575088'
p369
ag235
aS'24277163'
p370
aS'64393888'
p371
aS'96104167'
p372
ag191
ag324
aS'68601184'
p373
ag11
aS'1075391'
p374
aS'25106480'
p375
aS'37770881'
p376
ag198
aS'60312776'
p377
aS'73980360'
p378
aS'62701040'
p379
ag245
ag312
aS'13092455'
p380
ag54
aS'82689818'
p381
aS'45556081'
p382
ag340
aS'28357474'
p383
ag216
ag133
aS'7308727'
p384
ag163
aS'48601268'
p385
aS'1665980'
p386
aS'31416266'
p387
ag64
ag243
aS'13534377'
p388
aS'50143947'
p389
aS'1696500'
p390
ag132
ag76
ag10
aS'50184318'
p391
ag354
ag183
aS'46052388'
p392
aS'42196732'
p393
aS'3233378'
p394
ag303
aS'22699561'
p395
aS'53107172'
p396
ag12
asg14
I1000
sg16
g17
sg18
g165
sg20
I0
sg22
(iread_data
Room
p397
(dp398
g14
g93
sg16
g94
sbsba(ischedule
Activity
p399
(dp400
g8
(lp401
S'51415617'
p402
aS'70193386'
p403
aS'27370083'
p404
aS'49922855'
p405
ag241
aS'84449005'
p406
aS'99975346'
p407
ag85
aS'42406214'
p408
aS'20239127'
p409
aS'43680781'
p410
aS'78136904'
p411
ag242
aS'36213792'
p412
aS'51052738'
p413
aS'27950803'
p414
aS'82390428'
p415
aS'86988337'
p416
ag350
aS'87830198'
p417
aS'4709948'
p418
ag121
aS'60661905'
p419
aS'59753700'
p420
ag102
aS'27805666'
p421
aS'52715680'
p422
asg14
S'20'
p423
sg16
S'Reflectie op de digitale cultuur'
p424
sg18
g67
sg20
S'3'
p425
sg22
(iread_data
Room
p426
(dp427
g14
g113
sg16
g114
sbsba(ischedule
Activity
p428
(dp429
g8
(lp430
S'22826928'
p431
aS'33776961'
p432
ag110
ag83
ag216
aS'41585485'
p433
ag146
aS'34262212'
p434
aS'36903574'
p435
ag162
aS'1048485'
p436
ag119
aS'64053722'
p437
ag100
aS'55474917'
p438
aS'85284256'
p439
aS'37399898'
p440
ag88
asg14
S'20'
p441
sg16
S'Programmeren in Java 2'
p442
sg18
g19
sg20
S'4'
p443
sg22
(iread_data
Room
p444
(dp445
g14
g41
sg16
g42
sbsba(ischedule
Activity
p446
(dp447
g8
(lp448
S'24613625'
p449
asg14
S'20'
p450
sg16
S'Bioinformatica'
p451
sg18
g67
sg20
g38
sg22
(iread_data
Room
p452
(dp453
g14
g168
sg16
g169
sbsba(ischedule
Activity
p454
(dp455
g8
(lp456
S'97371272'
p457
ag53
ag228
aS'76487754'
p458
aS'14383795'
p459
aS'93041523'
p460
ag60
ag368
aS'4697362'
p461
aS'69086548'
p462
ag410
ag209
aS'58565406'
p463
ag218
aS'21192048'
p464
ag295
aS'7106649'
p465
aS'77636749'
p466
asg14
g134
sg16
g135
sg18
g67
sg20
g21
sg22
(iread_data
Room
p467
(dp468
g14
g25
sg16
g26
sbsbaa(lp469
(ischedule
Activity
p470
(dp471
g8
(lp472
S'48678993'
p473
ag291
ag160
aS'22731474'
p474
aS'35315956'
p475
ag85
aS'82968410'
p476
ag465
ag82
aS'5739011'
p477
ag33
ag87
aS'34765676'
p478
ag88
ag83
aS'81022997'
p479
ag75
ag80
ag81
aS'1886996'
p480
ag86
ag78
ag77
aS'52304977'
p481
aS'72652638'
p482
ag407
ag150
ag229
ag76
ag84
ag241
ag79
asg14
I1000
sg16
g90
sg18
g165
sg20
I0
sg22
(iread_data
Room
p483
(dp484
g14
g138
sg16
g139
sbsba(ischedule
Activity
p485
(dp486
g8
g360
sg14
I1000
sg16
g17
sg18
g165
sg20
I0
sg22
(iread_data
Room
p487
(dp488
g14
g93
sg16
g94
sbsba(ischedule
Activity
p489
(dp490
g8
(lp491
g274
aS'2550487'
p492
aS'84110134'
p493
ag210
aS'13996448'
p494
aS'14941752'
p495
aS'34691309'
p496
aS'19214659'
p497
ag474
ag207
ag377
ag408
aS'81116418'
p498
aS'77831658'
p499
ag283
ag130
ag124
asg14
S'15'
p500
sg16
S'Project Numerical Recipes'
p501
sg18
g19
sg20
g425
sg22
(iread_data
Room
p502
(dp503
g14
g25
sg16
g26
sbsba(ischedule
Activity
p504
(dp505
g8
(lp506
g459
ag410
ag125
ag133
ag122
ag118
ag121
ag457
ag463
ag102
ag119
ag128
ag60
ag132
ag123
ag124
ag209
ag218
ag101
ag460
ag63
ag228
ag126
ag127
ag465
ag464
ag46
ag462
ag458
ag130
ag120
ag53
ag368
ag461
ag466
ag295
ag129
ag131
asg14
I1000
sg16
g135
sg18
g165
sg20
I0
sg22
(iread_data
Room
p507
(dp508
g14
g113
sg16
g114
sbsba(ischedule
Activity
p509
(dp510
g8
(lp511
g380
ag440
ag158
aS'5298748'
p512
aS'99453514'
p513
aS'54569540'
p514
ag126
aS'68286356'
p515
ag431
aS'13718298'
p516
ag34
aS'60352393'
p517
aS'20095994'
p518
aS'32044893'
p519
ag432
aS'90474003'
p520
ag370
aS'96554914'
p521
aS'13658563'
p522
ag151
ag149
aS'77960666'
p523
aS'70844780'
p524
asg14
g423
sg16
g424
sg18
g67
sg20
g38
sg22
(iread_data
Room
p525
(dp526
g14
g70
sg16
g71
sbsba(ischedule
Activity
p527
(dp528
g8
(lp529
g365
ag84
aS'68360259'
p530
aS'17823206'
p531
ag513
aS'93023961'
p532
aS'91196968'
p533
aS'52311353'
p534
aS'98780382'
p535
ag102
asg14
S'10'
p536
sg16
S'Data Mining'
p537
sg18
g19
sg20
g21
sg22
(iread_data
Room
p538
(dp539
g14
g168
sg16
g169
sbsba(ischedule
Activity
p540
(dp541
g8
(lp542
g98
asg14
g175
sg16
g37
sg18
g67
sg20
g425
sg22
(iread_data
Room
p543
(dp544
g14
g41
sg16
g42
sbsbaa(lp545
(ischedule
Activity
p546
(dp547
g8
(lp548
g236
ag249
ag258
ag234
ag219
ag238
ag127
ag254
ag83
ag260
ag231
ag245
ag241
ag250
ag240
ag261
ag232
ag239
ag237
ag242
ag247
ag251
ag248
ag259
asg14
S'20'
p549
sg16
g262
sg18
g19
sg20
g21
sg22
(iread_data
Room
p550
(dp551
g14
g113
sg16
g114
sbsba(ischedule
Activity
p552
(dp553
g8
(lp554
g100
ag106
ag33
ag108
ag174
ag98
ag107
ag34
ag110
ag109
ag102
ag105
ag99
ag101
ag35
ag86
ag31
ag103
ag32
ag30
ag54
ag104
asg14
I1000
sg16
g37
sg18
g165
sg20
I0
sg22
(iread_data
Room
p555
(dp556
g14
g70
sg16
g71
sbsba(ischedule
Activity
p557
(dp558
g8
(lp559
S'7492204'
p560
ag291
ag315
ag215
aS'63096281'
p561
ag346
aS'41153310'
p562
aS'56749879'
p563
aS'48503689'
p564
ag373
aS'54395877'
p565
asg14
g441
sg16
g442
sg18
g19
sg20
S'5'
p566
sg22
(iread_data
Room
p567
(dp568
g14
g168
sg16
g169
sbsba(ischedule
Activity
p569
(dp570
g8
(lp571
S'78821918'
p572
ag147
ag54
ag55
aS'27241113'
p573
ag57
aS'48198668'
p574
ag59
asg14
S'20'
p575
sg16
g66
sg18
g19
sg20
g21
sg22
(iread_data
Room
p576
(dp577
g14
g25
sg16
g26
sbsba(ischedule
Activity
p578
(dp579
g8
(lp580
S'3883025'
p581
aS'97136582'
p582
ag439
ag436
ag334
ag84
aS'4353500'
p583
aS'56121590'
p584
ag183
aS'31247305'
p585
ag517
ag218
aS'66120270'
p586
aS'53267490'
p587
ag479
ag390
aS'72586808'
p588
ag418
aS'18266644'
p589
aS'54772132'
p590
aS'8522855'
p591
aS'72456780'
p592
aS'19058315'
p593
aS'5590289'
p594
aS'30195935'
p595
aS'14398123'
p596
aS'38499176'
p597
ag162
aS'21677389'
p598
ag473
ag381
aS'82872148'
p599
aS'25557516'
p600
aS'12170832'
p601
asg14
S'20'
p602
sg16
S'Netwerken en systeembeveiliging'
p603
sg18
g19
sg20
g38
sg22
(iread_data
Room
p604
(dp605
g14
g93
sg16
g94
sbsba(ischedule
Activity
p606
(dp607
g8
(lp608
g253
ag214
ag257
ag229
ag252
ag243
ag235
ag230
ag255
ag228
ag244
ag227
ag246
ag233
ag256
asg14
g549
sg16
g262
sg18
g19
sg20
g38
sg22
(iread_data
Room
p609
(dp610
g14
g138
sg16
g139
sbsba(ischedule
Activity
p611
(dp612
g8
(lp613
g300
ag181
aS'76924297'
p614
ag440
aS'69634191'
p615
aS'3707829'
p616
aS'65675896'
p617
ag296
ag196
aS'28055464'
p618
aS'64768422'
p619
aS'37701751'
p620
ag257
ag598
aS'20374340'
p621
ag133
aS'81385263'
p622
ag313
ag84
aS'44828429'
p623
ag234
ag497
aS'93566383'
p624
ag492
ag478
asg14
I1000
sg16
S'Interactie-ontwerp'
p625
sg18
g165
sg20
I0
sg22
(iread_data
Room
p626
(dp627
g14
g41
sg16
g42
sbsbaaa(lp628
(lp629
(ischedule
Activity
p630
(dp631
g8
(lp632
S'11068043'
p633
ag394
aS'59544049'
p634
ag250
ag385
aS'27582862'
p635
ag534
aS'89985072'
p636
ag32
ag317
aS'65318664'
p637
aS'70015932'
p638
ag389
ag521
ag284
aS'9287708'
p639
ag375
ag306
ag184
ag59
ag124
ag162
aS'14072826'
p640
ag585
ag240
ag377
ag327
ag436
ag493
ag414
ag383
aS'61060652'
p641
aS'88176729'
p642
aS'41527759'
p643
ag332
aS'42115591'
p644
ag322
aS'83210352'
p645
aS'40343779'
p646
aS'44671041'
p647
ag463
ag35
ag34
ag60
aS'51593625'
p648
asg14
S'40'
p649
sg16
S'Software engineering'
p650
sg18
g67
sg20
g38
sg22
(iread_data
Room
p651
(dp652
g14
g113
sg16
g114
sbsba(ischedule
Activity
p653
(dp654
g8
(lp655
S'38329455'
p656
ag411
aS'63408522'
p657
ag493
ag514
ag281
aS'81218347'
p658
aS'94955328'
p659
aS'47605891'
p660
ag297
ag457
ag533
aS'31633723'
p661
ag146
ag61
ag614
ag124
aS'59075181'
p662
ag591
ag474
aS'79858178'
p663
ag163
ag248
ag151
ag438
ag346
ag531
ag585
aS'47462856'
p664
aS'14671406'
p665
ag304
aS'39659121'
p666
aS'82688900'
p667
aS'39919665'
p668
ag367
aS'91139627'
p669
ag634
aS'99272880'
p670
ag145
aS'20883994'
p671
ag596
ag308
ag198
ag77
aS'44940353'
p672
ag181
ag85
aS'20331158'
p673
ag409
ag643
ag10
ag155
aS'79366078'
p674
ag301
ag466
aS'72547110'
p675
aS'37498675'
p676
ag435
ag212
ag149
ag99
aS'10872825'
p677
ag247
ag560
ag272
ag287
aS'51542218'
p678
aS'63955238'
p679
aS'51186803'
p680
ag597
aS'23391676'
p681
ag589
ag462
ag434
ag144
ag644
aS'65003379'
p682
aS'34243356'
p683
ag433
aS'97019450'
p684
ag273
ag298
ag563
aS'58332004'
p685
asg14
I1000
sg16
S'Kansrekenen 2'
p686
sg18
g165
sg20
I0
sg22
(iread_data
Room
p687
(dp688
g14
g93
sg16
g94
sbsba(ischedule
Activity
p689
(dp690
g8
(lp691
g481
ag478
ag229
ag474
ag291
ag480
ag477
ag475
ag476
ag479
ag33
ag241
ag465
ag150
ag482
ag473
ag160
ag407
asg14
g89
sg16
g90
sg18
g67
sg20
g38
sg22
(iread_data
Room
p692
(dp693
g14
g168
sg16
g169
sbsba(ischedule
Activity
p694
(dp695
g8
(lp696
g499
ag198
ag106
aS'96453361'
p697
ag215
ag347
ag281
ag214
ag384
aS'33930505'
p698
ag512
aS'70878567'
p699
asg14
S'20'
p700
sg16
g451
sg18
g19
sg20
g425
sg22
(iread_data
Room
p701
(dp702
g14
g70
sg16
g71
sbsba(ischedule
Activity
p703
(dp704
g8
(lp705
g419
ag670
ag379
ag494
ag523
aS'88263855'
p706
ag324
aS'34900967'
p707
ag157
ag129
ag684
ag323
ag152
ag418
ag681
ag371
ag321
ag365
ag333
ag298
asg14
g441
sg16
g442
sg18
g19
sg20
g425
sg22
(iread_data
Room
p708
(dp709
g14
g25
sg16
g26
sbsba(ischedule
Activity
p710
(dp711
g8
(lp712
S'25994016'
p713
ag12
aS'14138904'
p714
ag118
aS'44151631'
p715
aS'5085194'
p716
ag597
ag422
aS'91250534'
p717
ag132
aS'5892092'
p718
ag217
aS'47260040'
p719
aS'535689'
p720
ag670
ag389
ag617
aS'41644639'
p721
aS'64418623'
p722
aS'82066165'
p723
aS'51673172'
p724
ag239
asg14
S'15'
p725
sg16
S'Compilerbouw practicum'
p726
sg18
g19
sg20
g38
sg22
(iread_data
Room
p727
(dp728
g14
g138
sg16
g139
sbsbaa(lp729
(ischedule
Activity
p730
(dp731
g8
g226
sg14
I1000
sg16
g262
sg18
g165
sg20
I0
sg22
(iread_data
Room
p732
(dp733
g14
g25
sg16
g26
sbsba(ischedule
Activity
p734
(dp735
g8
(lp736
g449
ag350
ag671
ag198
ag431
ag365
ag384
ag499
aS'30050930'
p737
ag410
aS'247918'
p738
ag298
ag84
ag215
aS'28359697'
p739
ag563
ag46
ag210
aS'56815156'
p740
ag697
ag302
ag299
ag634
ag103
ag58
ag636
ag214
ag474
ag106
ag347
aS'3168419'
p741
ag698
ag642
ag352
ag281
ag699
ag147
ag586
ag393
ag62
ag240
ag512
ag595
aS'4568018'
p742
ag633
asg14
I1000
sg16
g451
sg18
g165
sg20
I0
sg22
(iread_data
Room
p743
(dp744
g14
g93
sg16
g94
sbsba(ischedule
Activity
p745
(dp746
g8
(lp747
g271
ag280
ag286
ag305
ag212
ag336
ag291
ag319
ag332
ag270
ag338
ag289
ag274
ag333
ag321
ag203
ag331
ag325
ag308
ag58
ag311
ag283
ag282
ag318
ag327
ag279
ag352
ag314
ag310
ag288
ag346
ag320
ag287
ag340
ag243
ag77
ag299
ag334
ag51
ag335
ag297
ag307
ag46
asg14
S'40'
p748
sg16
g355
sg18
g67
sg20
g425
sg22
(iread_data
Room
p749
(dp750
g14
g113
sg16
g114
sbsba(ischedule
Activity
p751
(dp752
g8
g142
sg14
I1000
sg16
g164
sg18
g165
sg20
I0
sg22
(iread_data
Room
p753
(dp754
g14
g138
sg16
g139
sbsba(ischedule
Activity
p755
(dp756
g8
(lp757
g387
aS'92778619'
p758
ag284
aS'88597745'
p759
ag186
aS'92977271'
p760
aS'73196865'
p761
ag155
ag275
aS'88519892'
p762
asg14
g441
sg16
g442
sg18
g19
sg20
g38
sg22
(iread_data
Room
p763
(dp764
g14
g168
sg16
g169
sbsba(ischedule
Activity
p765
(dp766
g8
(lp767
g685
aS'17496687'
p768
ag63
ag118
ag101
ag55
ag522
aS'19958553'
p769
ag271
ag589
aS'23983476'
p770
ag699
aS'11459236'
p771
aS'13116738'
p772
ag368
ag466
aS'29718115'
p773
aS'23257088'
p774
ag379
asg14
S'15'
p775
sg16
S'Informatie- en organsatieontwerp'
p776
sg18
g67
sg20
g38
sg22
(iread_data
Room
p777
(dp778
g14
g41
sg16
g42
sbsba(ischedule
Activity
p779
(dp780
g8
(lp781
g396
ag324
ag391
ag183
ag381
ag393
ag216
ag132
ag377
ag364
asg14
g15
sg16
g17
sg18
g19
sg20
g38
sg22
(iread_data
Room
p782
(dp783
g14
g70
sg16
g71
sbsbaa(lp784
(ischedule
Activity
p785
(dp786
g8
(lp787
g75
ag520
ag325
ag563
ag276
ag109
ag523
ag54
aS'64947290'
p788
ag132
ag203
ag298
ag253
ag282
ag380
ag32
ag620
ag76
ag741
ag33
ag738
ag255
aS'4529208'
p789
ag53
ag11
aS'91527663'
p790
aS'75005528'
p791
ag592
ag572
aS'62736669'
p792
ag62
ag353
ag678
aS'58083680'
p793
ag100
ag370
aS'15187217'
p794
ag187
aS'54540997'
p795
ag774
ag584
ag347
aS'27123462'
p796
aS'26207525'
p797
ag338
aS'59397895'
p798
ag278
ag50
ag345
ag64
ag127
ag367
aS'5526560'
p799
ag216
ag381
ag685
ag319
ag716
ag315
ag393
aS'46989508'
p800
ag341
aS'56191333'
p801
aS'13132925'
p802
aS'25077484'
p803
ag416
ag517
aS'4921119'
p804
aS'57467488'
p805
ag245
ag61
ag88
asg14
I1000
sg16
S'Databases 2'
p806
sg18
g165
sg20
I0
sg22
(iread_data
Room
p807
(dp808
g14
g70
sg16
g71
sbsba(ischedule
Activity
p809
(dp810
g8
(lp811
g49
ag194
ag368
ag188
ag54
ag572
ag432
ag370
ag63
ag574
ag62
ag297
ag147
ag206
ag391
ag316
aS'51650744'
p812
ag664
aS'41489515'
p813
aS'96082155'
p814
ag337
aS'36527838'
p815
ag50
ag328
ag353
ag362
ag60
ag55
ag58
ag59
ag410
ag56
ag406
aS'1181560'
p816
ag51
aS'49219163'
p817
ag305
ag581
ag64
ag46
ag418
ag229
ag48
ag57
ag47
ag685
aS'27916487'
p818
ag53
ag250
ag61
ag332
ag52
ag573
ag152
asg14
I1000
sg16
g66
sg18
g165
sg20
I0
sg22
(iread_data
Room
p819
(dp820
g14
g25
sg16
g26
sbsba(ischedule
Activity
p821
(dp822
g8
(lp823
g196
ag121
aS'55480737'
p824
ag721
ag293
ag591
ag414
ag713
ag799
ag155
asg14
S'15'
p825
sg16
S'Project Genetic Algorithms'
p826
sg18
g19
sg20
g38
sg22
(iread_data
Room
p827
(dp828
g14
g113
sg16
g114
sbsbaa(lp829
(ischedule
Activity
p830
(dp831
g8
(lp832
g412
ag415
ag241
ag421
ag408
ag524
ag404
ag516
ag517
ag422
ag409
ag522
ag413
ag520
ag402
ag407
ag85
ag406
ag513
ag432
ag512
ag102
ag440
ag418
ag411
ag350
ag410
ag521
ag431
ag403
ag380
ag523
ag758
ag158
ag518
ag416
ag242
ag519
ag151
ag414
ag126
ag370
ag420
ag405
ag514
ag419
ag417
ag149
ag515
ag121
ag34
asg14
I1000
sg16
g424
sg18
g165
sg20
I0
sg22
(iread_data
Room
p833
(dp834
g14
g138
sg16
g139
sbsba(ischedule
Activity
p835
(dp836
g8
g554
sg14
I1000
sg16
g37
sg18
g165
sg20
I0
sg22
(iread_data
Room
p837
(dp838
g14
g25
sg16
g26
sbsba(ischedule
Activity
p839
(dp840
g8
(lp841
g683
ag645
ag295
aS'54074680'
p842
ag277
aS'26172512'
p843
ag54
ag258
ag658
ag363
ag88
ag624
ag121
ag227
ag287
ag216
aS'58866007'
p844
ag622
ag348
ag278
ag361
aS'80709893'
p845
aS'34588570'
p846
aS'32595335'
p847
ag791
ag440
ag438
ag86
ag35
aS'71839156'
p848
ag105
ag107
aS'80998260'
p849
ag276
ag209
aS'79937969'
p850
aS'90743504'
p851
ag534
ag804
aS'16011419'
p852
ag387
ag13
ag815
ag641
ag302
ag281
ag597
ag659
aS'21311067'
p853
ag393
aS'96118484'
p854
ag533
aS'66570705'
p855
ag644
asg14
I1000
sg16
S'Lineaire Algebra'
p856
sg18
g165
sg20
I0
sg22
(iread_data
Room
p857
(dp858
g14
g70
sg16
g71
sbsba(ischedule
Activity
p859
(dp860
g8
(lp861
g774
ag271
aS'8557857'
p862
ag101
ag379
ag466
ag699
ag770
ag55
ag368
ag63
ag589
ag771
ag773
ag522
ag768
ag118
ag769
ag760
ag772
ag685
asg14
I1000
sg16
g776
sg18
g165
sg20
I0
sg22
(iread_data
Room
p863
(dp864
g14
g93
sg16
g94
sbsba(ischedule
Activity
p865
(dp866
g8
(lp867
g524
ag330
ag480
aS'40633534'
p868
ag246
asg14
S'10'
p869
sg16
S'Advanced Heuristics'
p870
sg18
g19
sg20
g38
sg22
(iread_data
Room
p871
(dp872
g14
g168
sg16
g169
sbsba(ischedule
Activity
p873
(dp874
g8
(lp875
g162
ag532
ag582
ag131
asg14
S'10'
p876
sg16
g537
sg18
g67
sg20
g38
sg22
(iread_data
Room
p877
(dp878
g14
g41
sg16
g42
sbsbaa(lp879
(ischedule
Activity
p880
(dp881
g8
g832
sg14
I1000
sg16
g424
sg18
g165
sg20
I0
sg22
(iread_data
Room
p882
(dp883
g14
g93
sg16
g94
sbsba(ischedule
Activity
p884
(dp885
g8
(lp886
g387
ag375
ag386
ag10
ag163
ag64
ag378
ag54
ag198
ag76
ag379
asg14
S'20'
p887
sg16
g17
sg18
g67
sg20
g425
sg22
(iread_data
Room
p888
(dp889
g14
g168
sg16
g169
sbsba(ischedule
Activity
p890
(dp891
g8
(lp892
g219
ag48
ag186
ag198
ag202
ag213
ag216
ag209
ag188
ag218
ag203
aS'95007221'
p893
ag212
ag183
ag85
ag200
ag208
ag800
ag194
ag217
ag206
ag305
ag13
ag416
ag564
ag189
ag185
ag196
ag204
ag449
ag187
ag190
aS'98105190'
p894
ag215
ag181
ag99
ag333
ag214
ag590
ag100
aS'2317551'
p895
ag192
ag199
ag128
ag161
ag60
ag683
ag197
ag146
ag159
ag205
ag63
asg14
S'40'
p896
sg16
g221
sg18
g67
sg20
g21
sg22
(iread_data
Room
p897
(dp898
g14
g70
sg16
g71
sbsba(ischedule
Activity
p899
(dp900
g8
(lp901
g363
ag378
ag245
ag367
ag340
ag386
ag129
ag392
ag243
ag388
ag368
ag374
ag380
ag371
ag80
ag369
ag361
ag76
ag395
ag390
ag366
ag64
ag372
ag133
ag384
ag385
asg14
g15
sg16
g17
sg18
g19
sg20
g425
sg22
(iread_data
Room
p902
(dp903
g14
g113
sg16
g114
sbsba(ischedule
Activity
p904
(dp905
g8
(lp906
g295
ag187
ag127
ag81
ag844
ag714
ag773
ag236
ag638
ag235
aS'72683344'
p907
ag673
aS'59289233'
p908
ag250
ag144
ag143
ag382
ag381
ag305
aS'28618400'
p909
aS'13798030'
p910
asg14
I1000
sg16
S'Architectuur en computerorganisatie'
p911
sg18
g165
sg20
I0
sg22
(iread_data
Room
p912
(dp913
g14
g138
sg16
g139
sbsba(ischedule
Activity
p914
(dp915
g8
(lp916
g237
ag788
ag58
ag238
ag312
ag156
aS'28943658'
p917
ag416
ag659
ag590
ag251
aS'10702778'
p918
ag274
ag78
aS'39905995'
p919
ag341
ag597
aS'90296821'
p920
asg14
g441
sg16
g442
sg18
g19
sg20
g21
sg22
(iread_data
Room
p921
(dp922
g14
g25
sg16
g26
sbsbaaa(lp923
(lp924
(ischedule
Activity
p925
(dp926
g8
(lp927
g522
aS'79879876'
p928
ag848
ag658
ag306
ag102
ag53
ag894
ag805
ag714
ag684
ag101
ag583
ag368
aS'97417002'
p929
aS'76393508'
p930
ag82
ag641
aS'53775014'
p931
aS'83443653'
p932
ag316
ag563
ag662
ag390
ag495
aS'87210640'
p933
ag131
ag347
aS'45660925'
p934
ag108
ag435
ag742
aS'66122625'
p935
ag281
aS'20830477'
p936
ag760
ag396
ag274
ag79
ag34
ag354
ag673
ag362
ag261
asg14
I1000
sg16
S'Heuristieken 1'
p937
sg18
g165
sg20
I0
sg22
(iread_data
Room
p938
(dp939
g14
g93
sg16
g94
sbsba(ischedule
Activity
p940
(dp941
g8
(lp942
g210
ag217
ag214
ag219
ag159
ag48
ag377
ag206
ag683
ag376
ag182
ag311
ag60
ag191
ag128
ag800
ag188
ag195
ag207
ag143
ag190
ag416
ag189
ag590
ag185
ag193
ag414
ag181
ag212
ag161
ag200
ag208
ag13
ag205
ag215
ag187
ag197
ag183
ag305
ag622
ag894
ag186
ag184
ag199
ag218
ag198
ag85
ag211
ag204
ag125
ag100
ag99
ag893
ag564
ag201
ag202
ag109
ag213
ag196
ag192
ag146
ag194
ag216
ag449
ag203
ag63
ag209
ag333
ag895
asg14
I1000
sg16
g221
sg18
g165
sg20
I0
sg22
(iread_data
Room
p943
(dp944
g14
g70
sg16
g71
sbsba(ischedule
Activity
p945
(dp946
g8
(lp947
S'19337738'
p948
ag772
aS'87314964'
p949
ag131
ag582
ag33
ag699
ag420
aS'25330192'
p950
ag106
aS'45414528'
p951
ag494
ag162
ag935
ag479
ag389
asg14
g536
sg16
g537
sg18
g19
sg20
g38
sg22
(iread_data
Room
p952
(dp953
g14
g41
sg16
g42
sbsba(ischedule
Activity
p954
(dp955
g8
(lp956
g253
ag236
ag257
ag239
ag237
ag234
ag247
ag248
ag259
ag258
ag235
ag238
ag255
ag246
ag231
ag241
ag260
ag214
ag244
ag261
ag219
ag232
ag254
ag229
ag251
ag233
ag227
ag249
ag243
ag127
asg14
S'20'
p957
sg16
g262
sg18
g67
sg20
g38
sg22
(iread_data
Room
p958
(dp959
g14
g113
sg16
g114
sbsba(ischedule
Activity
p960
(dp961
g8
(lp962
g422
aS'3727435'
p963
ag648
ag638
ag34
ag637
ag60
ag332
ag375
aS'31103066'
p964
ag131
ag661
ag436
ag327
ag635
ag352
ag383
ag385
ag534
ag124
aS'37830626'
p965
ag103
ag250
ag599
aS'58074656'
p966
ag414
asg14
S'40'
p967
sg16
g650
sg18
g19
sg20
g21
sg22
(iread_data
Room
p968
(dp969
g14
g168
sg16
g169
sbsba(ischedule
Activity
p970
(dp971
g8
(lp972
g772
ag530
ag534
ag531
ag33
ag535
ag389
ag533
ag948
ag951
ag479
ag288
ag102
asg14
g876
sg16
g537
sg18
g67
sg20
g21
sg22
(iread_data
Room
p973
(dp974
g14
g25
sg16
g26
sbsba(ischedule
Activity
p975
(dp976
g8
(lp977
g86
ag54
ag174
asg14
g36
sg16
g37
sg18
g19
sg20
g425
sg22
(iread_data
Room
p978
(dp979
g14
g138
sg16
g139
sbsbaa(lp980
(ischedule
Activity
p981
(dp982
g8
g942
sg14
I1000
sg16
g221
sg18
g165
sg20
I0
sg22
(iread_data
Room
p983
(dp984
g14
g70
sg16
g71
sbsba(ischedule
Activity
p985
(dp986
g8
(lp987
g75
ag319
ag315
ag800
ag216
ag797
ag347
ag64
ag88
ag793
ag716
ag802
ag774
ag517
ag563
ag353
ag253
ag620
ag678
ag276
ag282
ag798
ag54
ag187
ag381
ag416
ag76
ag278
ag790
ag805
ag345
ag789
ag572
ag738
ag799
ag370
ag520
ag245
asg14
S'40'
p988
sg16
g806
sg18
g67
sg20
g38
sg22
(iread_data
Room
p989
(dp990
g14
g138
sg16
g139
sbsba(ischedule
Activity
p991
(dp992
g8
(lp993
g531
ag102
ag948
ag389
ag535
ag534
ag479
ag288
ag365
ag106
ag772
ag935
ag532
ag420
ag33
ag699
ag582
ag951
ag131
ag84
ag494
ag949
ag533
ag513
ag162
ag950
ag530
asg14
I1000
sg16
g537
sg18
g165
sg20
I0
sg22
(iread_data
Room
p994
(dp995
g14
g93
sg16
g94
sbsba(ischedule
Activity
p996
(dp997
g8
(lp998
g771
ag386
aS'23215240'
p999
aS'42297781'
p1000
ag636
aS'55103073'
p1001
ag848
ag459
aS'74361881'
p1002
ag742
asg14
g725
sg16
g726
sg18
g19
sg20
g21
sg22
(iread_data
Room
p1003
(dp1004
g14
g168
sg16
g169
sbsba(ischedule
Activity
p1005
(dp1006
g8
g906
sg14
I1000
sg16
g911
sg18
g165
sg20
I0
sg22
(iread_data
Room
p1007
(dp1008
g14
g25
sg16
g26
sbsba(ischedule
Activity
p1009
(dp1010
g8
(lp1011
g246
ag296
ag294
ag306
ag302
ag353
ag344
ag275
ag284
ag303
ag317
ag30
ag316
ag281
ag87
ag350
ag277
ag312
asg14
g748
sg16
g355
sg18
g67
sg20
g21
sg22
(iread_data
Room
p1012
(dp1013
g14
g41
sg16
g42
sbsba(ischedule
Activity
p1014
(dp1015
g8
(lp1016
S'88596522'
p1017
aS'1695839'
p1018
ag323
ag330
ag633
ag77
ag194
aS'51472074'
p1019
asg14
g725
sg16
g726
sg18
g19
sg20
g425
sg22
(iread_data
Room
p1020
(dp1021
g14
g113
sg16
g114
sbsbaa(lp1022
(ischedule
Activity
p1023
(dp1024
g8
(lp1025
g643
ag33
ag160
aS'19540225'
p1026
ag157
ag255
ag125
aS'64554442'
p1027
ag353
ag30
ag411
ag416
ag258
ag219
ag422
ag386
aS'23652927'
p1028
aS'51509565'
p1029
ag322
ag697
ag435
aS'67817269'
p1030
ag433
ag381
aS'66433883'
p1031
ag591
ag646
asg14
S'25'
p1032
sg16
S'Algoritmen en complexiteit'
p1033
sg18
g19
sg20
g38
sg22
(iread_data
Room
p1034
(dp1035
g14
g138
sg16
g139
sbsba(ischedule
Activity
p1036
(dp1037
g8
(lp1038
g228
ag252
ag245
ag256
ag83
ag240
ag230
ag242
ag250
asg14
g957
sg16
g262
sg18
g67
sg20
g21
sg22
(iread_data
Room
p1039
(dp1040
g14
g168
sg16
g169
sbsba(ischedule
Activity
p1041
(dp1042
g8
(lp1043
g33
asg14
g175
sg16
g37
sg18
g67
sg20
g21
sg22
(iread_data
Room
p1044
(dp1045
g14
g113
sg16
g114
sbsba(ischedule
Activity
p1046
(dp1047
g8
(lp1048
g739
ag737
ag298
ag210
ag106
ag740
ag302
ag214
ag62
ag699
ag365
ag393
ag299
ag742
ag698
ag671
ag697
ag198
ag215
ag410
ag352
ag595
ag633
ag474
ag634
ag741
ag636
asg14
g450
sg16
g451
sg18
g67
sg20
g425
sg22
(iread_data
Room
p1049
(dp1050
g14
g93
sg16
g94
sbsba(ischedule
Activity
p1051
(dp1052
g8
g613
sg14
I1000
sg16
g625
sg18
g165
sg20
I0
sg22
(iread_data
Room
p1053
(dp1054
g14
g25
sg16
g26
sbsba(ischedule
Activity
p1055
(dp1056
g8
(lp1057
g202
ag646
ag636
ag634
ag284
ag240
ag296
ag11
ag562
ag516
ag317
ag306
ag184
ag633
ag56
ag99
ag162
ag210
ag160
ag463
ag640
ag639
ag742
ag342
ag35
ag642
ag229
ag389
ag438
ag845
ag322
ag585
ag521
ag32
ag665
ag644
ag493
ag155
ag59
ag643
ag31
ag236
ag645
ag394
aS'21095566'
p1058
ag354
ag641
ag377
ag647
asg14
g967
sg16
g650
sg18
g19
sg20
g38
sg22
(iread_data
Room
p1059
(dp1060
g14
g70
sg16
g71
sbsba(ischedule
Activity
p1061
(dp1062
g8
(lp1063
g758
asg14
g423
sg16
g424
sg18
g67
sg20
g21
sg22
(iread_data
Room
p1064
(dp1065
g14
g41
sg16
g42
sbsbaa(lp1066
(ischedule
Activity
p1067
(dp1068
g8
(lp1069
g101
ag274
ag390
ag714
ag935
ag102
ag354
ag495
ag848
ag396
ag930
ag928
asg14
S'25'
p1070
sg16
g937
sg18
g67
sg20
g38
sg22
(iread_data
Room
p1071
(dp1072
g14
g25
sg16
g26
sbsba(ischedule
Activity
p1073
(dp1074
g8
(lp1075
g760
ag379
ag772
ag101
ag466
ag118
ag770
asg14
S'15'
p1076
sg16
g776
sg18
g19
sg20
g21
sg22
(iread_data
Room
p1077
(dp1078
g14
g41
sg16
g42
sbsba(ischedule
Activity
p1079
(dp1080
g8
(lp1081
g414
ag622
ag211
ag191
ag377
ag109
ag125
ag184
ag201
ag182
ag376
ag207
ag195
ag143
ag210
ag311
ag193
asg14
g896
sg16
g221
sg18
g67
sg20
g38
sg22
(iread_data
Room
p1082
(dp1083
g14
g93
sg16
g94
sbsba(ischedule
Activity
p1084
(dp1085
g8
(lp1086
g269
ag290
ag292
ag300
ag80
ag322
ag86
ag81
ag349
ag309
ag348
ag215
ag295
ag315
ag158
ag278
ag342
ag285
ag341
ag339
ag351
ag304
ag239
ag293
ag298
ag272
ag196
ag328
ag273
ag301
ag157
ag347
ag313
ag276
ag354
ag345
ag330
ag146
ag324
ag329
ag337
ag323
ag343
ag248
ag326
asg14
g748
sg16
g355
sg18
g67
sg20
g38
sg22
(iread_data
Room
p1087
(dp1088
g14
g113
sg16
g114
sbsba(ischedule
Activity
p1089
(dp1090
g8
g655
sg14
I1000
sg16
g686
sg18
g165
sg20
I0
sg22
(iread_data
Room
p1091
(dp1092
g14
g70
sg16
g71
sbsba(ischedule
Activity
p1093
(dp1094
g8
g736
sg14
I1000
sg16
g451
sg18
g165
sg20
I0
sg22
(iread_data
Room
p1095
(dp1096
g14
g138
sg16
g139
sbsbaa(lp1097
(ischedule
Activity
p1098
(dp1099
g8
(lp1100
g805
ag255
ag591
ag1058
ag381
ag160
ag1028
ag1017
ag353
ag790
ag665
ag157
ag478
ag1027
ag1026
ag435
ag312
ag646
ag1030
ag219
ag643
ag30
ag1031
ag770
ag622
ag389
ag433
ag33
ag1029
ag416
ag59
ag697
ag788
ag365
ag322
ag323
ag616
ag422
ag125
ag623
ag411
ag386
ag258
asg14
I1000
sg16
g1033
sg18
g165
sg20
I0
sg22
(iread_data
Room
p1101
(dp1102
g14
g70
sg16
g71
sbsba(ischedule
Activity
p1103
(dp1104
g8
(lp1105
g416
ag895
ag333
ag800
ag622
ag590
ag376
ag414
ag683
ag377
ag893
ag311
ag894
ag159
ag128
ag564
ag449
ag305
asg14
g220
sg16
g221
sg18
g19
sg20
g38
sg22
(iread_data
Room
p1106
(dp1107
g14
g25
sg16
g26
sbsba(ischedule
Activity
p1108
(dp1109
g8
g993
sg14
I1000
sg16
g537
sg18
g165
sg20
I0
sg22
(iread_data
Room
p1110
(dp1111
g14
g113
sg16
g114
sbsba(ischedule
Activity
p1112
(dp1113
g8
(lp1114
g50
ag49
ag62
ag61
ag305
ag63
ag51
ag58
ag297
ag46
ag362
ag229
ag206
ag152
ag432
ag52
ag328
ag316
ag48
asg14
g575
sg16
g66
sg18
g19
sg20
g38
sg22
(iread_data
Room
p1115
(dp1116
g14
g138
sg16
g139
sbsba(ischedule
Activity
p1117
(dp1118
g8
(lp1119
S'75680261'
p1120
ag199
ag376
ag294
ag1002
ag35
aS'88737765'
p1121
ag56
ag364
ag473
ag596
ag260
ag724
ag87
ag319
ag803
ag417
ag449
ag375
ag81
asg14
g825
sg16
g826
sg18
g19
sg20
g21
sg22
(iread_data
Room
p1122
(dp1123
g14
g168
sg16
g169
sbsba(ischedule
Activity
p1124
(dp1125
g8
(lp1126
g393
ag634
ag633
ag298
ag741
ag642
ag210
ag240
ag739
ag671
ag352
ag738
ag46
ag365
ag410
asg14
g700
sg16
g451
sg18
g19
sg20
g38
sg22
(iread_data
Room
p1127
(dp1128
g14
g41
sg16
g42
sbsba(ischedule
Activity
p1129
(dp1130
g8
(lp1131
g381
ag354
ag390
ag312
ag191
ag396
ag13
ag363
ag235
ag369
ag80
ag183
ag12
ag303
ag368
ag11
ag372
ag367
ag361
ag385
ag395
ag370
ag391
asg14
g887
sg16
g17
sg18
g67
sg20
g38
sg22
(iread_data
Room
p1132
(dp1133
g14
g93
sg16
g94
sbsbaaa(lp1134
(lp1135
(ischedule
Activity
p1136
(dp1137
g8
g841
sg14
I1000
sg16
g856
sg18
g165
sg20
I0
sg22
(iread_data
Room
p1138
(dp1139
g14
g70
sg16
g71
sbsba(ischedule
Activity
p1140
(dp1141
g8
(lp1142
g591
ag160
ag422
ag157
ag790
ag323
ag770
ag381
ag643
ag623
ag416
ag59
ag646
ag353
ag389
ag255
ag219
ag33
ag1026
ag1017
ag365
ag1027
asg14
S'25'
p1143
sg16
g1033
sg18
g67
sg20
g38
sg22
(iread_data
Room
p1144
(dp1145
g14
g93
sg16
g94
sbsba(ischedule
Activity
p1146
(dp1147
g8
(lp1148
g62
ag474
ag302
ag147
ag595
ag299
ag449
ag737
ag58
ag586
ag350
ag84
ag563
ag431
ag740
ag742
ag636
ag103
asg14
g700
sg16
g451
sg18
g19
sg20
g21
sg22
(iread_data
Room
p1149
(dp1150
g14
g25
sg16
g26
sbsba(ischedule
Activity
p1151
(dp1152
g8
g506
sg14
I1000
sg16
g135
sg18
g165
sg20
I0
sg22
(iread_data
Room
p1153
(dp1154
g14
g138
sg16
g139
sbsba(ischedule
Activity
p1155
(dp1156
g8
(lp1157
g315
ag741
ag274
aS'39429093'
p1158
ag316
ag671
ag133
ag480
aS'62613937'
p1159
ag411
ag204
ag524
ag909
ag868
ag235
ag330
ag907
ag517
ag246
ag257
asg14
I1000
sg16
g870
sg18
g165
sg20
I0
sg22
(iread_data
Room
p1160
(dp1161
g14
g168
sg16
g169
sbsba(ischedule
Activity
p1162
(dp1163
g8
g861
sg14
I1000
sg16
g776
sg18
g165
sg20
I0
sg22
(iread_data
Room
p1164
(dp1165
g14
g41
sg16
g42
sbsbaa(lp1166
(ischedule
Activity
p1167
(dp1168
g8
(lp1169
g788
ag312
ag1029
ag411
ag622
ag616
ag1030
ag386
ag1058
ag1031
ag125
ag258
ag1028
ag435
ag665
ag805
ag478
ag322
ag697
ag433
ag30
asg14
g1143
sg16
g1033
sg18
g67
sg20
g21
sg22
(iread_data
Room
p1170
(dp1171
g14
g41
sg16
g42
sbsba(ischedule
Activity
p1172
(dp1173
g8
(lp1174
g1121
ag589
ag121
ag592
ag417
ag683
ag306
ag289
aS'97838175'
p1175
ag637
ag348
ag341
ag740
ag367
ag684
ag932
ag126
ag316
ag659
aS'58480929'
p1176
ag644
aS'18477924'
p1177
ag678
ag804
ag326
ag473
ag534
aS'82854435'
p1178
ag327
ag1159
ag86
ag716
ag499
ag46
ag34
ag403
ag588
ag419
aS'78822885'
p1179
ag76
aS'14637758'
p1180
ag190
ag516
ag572
aS'73350019'
p1181
ag144
ag707
ag241
ag307
asg14
I1000
sg16
S'Analysemethoden en -technieken'
p1182
sg18
g165
sg20
I0
sg22
(iread_data
Room
p1183
(dp1184
g14
g113
sg16
g114
sbsba(ischedule
Activity
p1185
(dp1186
g8
(lp1187
g365
ag420
ag949
ag935
ag513
ag106
ag84
ag699
ag950
ag494
asg14
g876
sg16
g537
sg18
g67
sg20
g425
sg22
(iread_data
Room
p1188
(dp1189
g14
g168
sg16
g169
sbsba(ischedule
Activity
p1190
(dp1191
g8
(lp1192
g370
ag406
ag391
ag188
ag362
ag147
ag229
ag813
ag432
ag316
ag664
ag574
ag817
ag581
ag353
ag410
ag572
ag305
ag337
ag328
asg14
g65
sg16
g66
sg18
g67
sg20
g38
sg22
(iread_data
Room
p1193
(dp1194
g14
g70
sg16
g71
sbsba(ischedule
Activity
p1195
(dp1196
g8
(lp1197
g60
ag284
ag229
ag436
ag131
ag377
ag633
ag155
ag394
ag644
ag103
ag11
ag661
ag493
ag516
ag638
ag964
ag639
ag637
ag643
ag742
ag296
ag184
ag414
ag422
ag160
ag642
ag35
ag965
ag59
ag438
ag636
ag534
ag99
ag648
ag463
ag665
ag34
ag31
ag640
ag56
ag352
ag306
ag966
ag599
ag162
ag240
ag645
ag124
ag521
ag647
ag634
ag641
ag322
ag202
ag332
ag383
ag963
ag354
ag635
ag585
ag385
ag327
ag375
ag845
ag32
ag236
ag317
ag562
ag646
ag1058
ag250
ag210
ag342
ag389
asg14
I1000
sg16
g650
sg18
g165
sg20
I0
sg22
(iread_data
Room
p1198
(dp1199
g14
g93
sg16
g94
sbsba(ischedule
Activity
p1200
(dp1201
g8
(lp1202
g380
asg14
g887
sg16
g17
sg18
g67
sg20
g443
sg22
(iread_data
Room
p1203
(dp1204
g14
g25
sg16
g26
sbsba(ischedule
Activity
p1205
(dp1206
g8
(lp1207
g377
ag382
ag133
ag392
ag374
ag393
ag83
ag129
ag243
ag394
ag383
ag384
ag245
ag366
ag373
ag365
ag216
ag324
ag340
ag132
ag362
ag364
ag376
ag371
ag389
ag388
asg14
g887
sg16
g17
sg18
g67
sg20
g21
sg22
(iread_data
Room
p1208
(dp1209
g14
g138
sg16
g139
sbsbaa(lp1210
(ischedule
Activity
p1211
(dp1212
g8
(lp1213
g376
ag383
ag191
ag370
ag387
ag365
ag389
ag235
ag382
ag312
ag303
ag54
ag375
ag163
ag379
ag362
ag198
ag354
ag83
ag373
ag394
asg14
g15
sg16
g17
sg18
g19
sg20
g443
sg22
(iread_data
Room
p1214
(dp1215
g14
g138
sg16
g139
sbsba(ischedule
Activity
p1216
(dp1217
g8
(lp1218
g32
ag393
ag132
ag100
ag584
ag62
ag127
ag325
ag741
ag203
ag801
ag341
ag796
ag338
ag53
ag523
ag109
ag33
ag298
ag255
ag592
ag795
ag803
ag380
ag11
ag794
ag792
ag367
ag61
ag788
ag804
ag685
ag50
ag791
asg14
g988
sg16
g806
sg18
g67
sg20
g21
sg22
(iread_data
Room
p1219
(dp1220
g14
g25
sg16
g26
sbsba(ischedule
Activity
p1221
(dp1222
g8
(lp1223
g99
ag964
ag31
ag229
ag516
ag202
ag210
ag354
ag103
ag963
ag131
ag155
ag11
ag562
ag422
ag665
ag352
ag342
ag742
ag966
ag160
ag965
ag56
ag661
ag236
ag599
ag845
ag438
ag296
ag1058
asg14
g649
sg16
g650
sg18
g67
sg20
g21
sg22
(iread_data
Room
p1224
(dp1225
g14
g113
sg16
g114
sbsba(ischedule
Activity
p1226
(dp1227
g8
(lp1228
g683
aS'16912993'
p1229
ag11
aS'59887191'
p1230
ag662
ag435
ag646
asg14
g602
sg16
g603
sg18
g19
sg20
g21
sg22
(iread_data
Room
p1231
(dp1232
g14
g70
sg16
g71
sbsba(ischedule
Activity
p1233
(dp1234
g8
(lp1235
g281
ag431
ag642
ag563
ag46
ag347
ag384
ag512
ag84
ag738
ag240
ag350
ag58
ag586
ag103
ag147
ag499
asg14
g450
sg16
g451
sg18
g67
sg20
g21
sg22
(iread_data
Room
p1236
(dp1237
g14
g41
sg16
g42
sbsba(ischedule
Activity
p1238
(dp1239
g8
(lp1240
g862
ag589
ag685
ag699
ag773
ag774
ag55
ag769
ag368
ag271
ag63
ag768
ag771
ag522
asg14
g1076
sg16
g776
sg18
g19
sg20
g38
sg22
(iread_data
Room
p1241
(dp1242
g14
g168
sg16
g169
sbsba(ischedule
Activity
p1243
(dp1244
g8
(lp1245
g209
ag633
ag287
aS'63573738'
p1246
aS'32183908'
p1247
aS'63939720'
p1248
ag519
ag149
ag325
aS'90103047'
p1249
aS'37419523'
p1250
ag200
ag791
ag380
ag384
ag219
aS'19662602'
p1251
ag31
ag479
ag564
aS'40911986'
p1252
aS'21070547'
p1253
ag13
asg14
g500
sg16
g501
sg18
g19
sg20
g38
sg22
(iread_data
Room
p1254
(dp1255
g14
g93
sg16
g94
sbsbaa(lp1256
(ischedule
Activity
p1257
(dp1258
g8
(lp1259
g281
ag306
ag894
ag522
ag805
ag53
ag931
ag936
ag673
ag368
ag108
ag583
ag932
ag662
ag742
ag684
ag261
ag934
ag347
ag435
ag641
ag82
ag760
ag362
ag79
ag933
ag929
ag316
ag563
ag131
ag658
ag34
asg14
g1070
sg16
g937
sg18
g67
sg20
g21
sg22
(iread_data
Room
p1260
(dp1261
g14
g138
sg16
g139
sbsba(ischedule
Activity
p1262
(dp1263
g8
(lp1264
g741
ag517
ag411
ag1158
ag235
ag204
ag671
ag316
ag907
ag315
ag909
ag133
ag257
ag274
ag1159
asg14
g869
sg16
g870
sg18
g19
sg20
g21
sg22
(iread_data
Room
p1265
(dp1266
g14
g25
sg16
g26
sbsba(ischedule
Activity
p1267
(dp1268
g8
(lp1269
g183
ag203
ag909
ag206
asg14
g500
sg16
g501
sg18
g19
sg20
g21
sg22
(iread_data
Room
p1270
(dp1271
g14
g168
sg16
g169
sbsba(ischedule
Activity
p1272
(dp1273
g8
(lp1274
g332
ag815
ag188
ag391
ag581
ag368
ag410
ag194
ag53
ag814
ag685
ag64
ag812
ag817
ag813
ag250
ag56
ag337
ag406
ag418
ag353
ag816
ag818
ag60
ag664
ag47
ag370
asg14
g575
sg16
g66
sg18
g19
sg20
g425
sg22
(iread_data
Room
p1275
(dp1276
g14
g70
sg16
g71
sbsba(ischedule
Activity
p1277
(dp1278
g8
(lp1279
g805
ag365
ag312
ag1058
ag478
ag665
ag59
ag770
ag788
ag389
ag323
ag622
ag1017
ag623
ag616
ag790
asg14
g1032
sg16
g1033
sg18
g19
sg20
g21
sg22
(iread_data
Room
p1280
(dp1281
g14
g93
sg16
g94
sbsba(ischedule
Activity
p1282
(dp1283
g8
(lp1284
g801
ag303
ag384
ag242
ag207
asg14
g602
sg16
g603
sg18
g19
sg20
g443
sg22
(iread_data
Room
p1285
(dp1286
g14
g41
sg16
g42
sbsba(ischedule
Activity
p1287
(dp1288
g8
(lp1289
g288
asg14
g536
sg16
g537
sg18
g19
sg20
g425
sg22
(iread_data
Room
p1290
(dp1291
g14
g113
sg16
g114
sbsbaa(lp1292
(ischedule
Activity
p1293
(dp1294
g8
g360
sg14
I1000
sg16
g17
sg18
g165
sg20
I0
sg22
(iread_data
Room
p1295
(dp1296
g14
g138
sg16
g139
sbsba(ischedule
Activity
p1297
(dp1298
g8
g736
sg14
I1000
sg16
g451
sg18
g165
sg20
I0
sg22
(iread_data
Room
p1299
(dp1300
g14
g93
sg16
g94
sbsba(ischedule
Activity
p1301
(dp1302
g8
(lp1303
g936
ag624
ag50
ag230
ag150
ag999
ag337
ag928
ag1031
ag951
ag531
ag11
aS'7386961'
p1304
ag635
ag647
ag533
ag770
ag804
ag301
ag213
ag201
ag648
ag77
ag350
aS'51791169'
p1305
ag774
ag895
ag685
aS'73893840'
p1306
ag492
ag193
ag183
aS'12782624'
p1307
asg14
g441
sg16
g442
sg18
g19
sg20
S'6'
p1308
sg22
(iread_data
Room
p1309
(dp1310
g14
g113
sg16
g114
sbsba(ischedule
Activity
p1311
(dp1312
g8
(lp1313
g340
ag792
ag330
ag720
ag797
ag805
ag101
ag524
aS'123355'
p1314
ag1246
ag909
ag698
ag301
ag279
ag417
aS'64246605'
p1315
ag622
ag950
asg14
g602
sg16
g603
sg18
g19
sg20
g425
sg22
(iread_data
Room
p1316
(dp1317
g14
g41
sg16
g42
sbsba(ischedule
Activity
p1318
(dp1319
g8
(lp1320
g760
ag862
asg14
g775
sg16
g776
sg18
g67
sg20
g21
sg22
(iread_data
Room
p1321
(dp1322
g14
g70
sg16
g71
sbsba(ischedule
Activity
p1323
(dp1324
g8
(lp1325
g332
ag685
ag194
ag573
ag814
ag206
ag152
ag815
ag250
ag418
ag812
ag818
ag297
ag368
ag816
asg14
g65
sg16
g66
sg18
g67
sg20
g425
sg22
(iread_data
Room
p1326
(dp1327
g14
g25
sg16
g26
sbsba(ischedule
Activity
p1328
(dp1329
g8
(lp1330
g868
ag723
ag157
ag614
ag406
ag572
asg14
g825
sg16
g826
sg18
g19
sg20
g425
sg22
(iread_data
Room
p1331
(dp1332
g14
g168
sg16
g169
sbsbaaa(lp1333
(lp1334
a(lp1335
a(lp1336
a(lp1337
a(lp1338
aasS'timeslot_dict'
p1339
(dp1340
I0
S'9:00-11:00'
p1341
sI1
S'11:00-13:00'
p1342
sI2
S'13:00-15:00'
p1343
sI3
S'15:00-17:00'
p1344
sI4
S'17:00-19:00'
p1345
ssS'day_dict'
p1346
(dp1347
I0
S'Monday'
p1348
sI1
S'Tuesday'
p1349
sI2
S'Wednesday'
p1350
sI3
S'Thursday'
p1351
sI4
S'Friday'
p1352
ssb.