(ischedule
Schedule
p0
(dp1
S'timetable'
p2
(lp3
(lp4
(lp5
(ischedule
Activity
p6
(dp7
S'participants'
p8
(lp9
S'1665980'
p10
aS'50184318'
p11
aS'33760909'
p12
aS'42778953'
p13
aS'21964491'
p14
aS'29474737'
p15
aS'73980360'
p16
aS'17575088'
p17
aS'37770881'
p18
aS'82689818'
p19
aS'9332762'
p20
aS'17222374'
p21
aS'50143947'
p22
aS'4783858'
p23
aS'75521763'
p24
aS'86291592'
p25
aS'97135019'
p26
aS'51741554'
p27
aS'77896638'
p28
aS'61443567'
p29
aS'22699561'
p30
aS'13092455'
p31
aS'42171678'
p32
aS'1075391'
p33
aS'54310617'
p34
aS'65960683'
p35
aS'35330349'
p36
aS'62701040'
p37
aS'77240949'
p38
aS'5517869'
p39
aS'72577292'
p40
aS'60312776'
p41
aS'15902055'
p42
aS'26406342'
p43
aS'43027916'
p44
aS'29640619'
p45
aS'87758823'
p46
aS'7308727'
p47
aS'96104167'
p48
aS'28357474'
p49
aS'57595888'
p50
aS'46052388'
p51
aS'86000192'
p52
aS'34773179'
p53
aS'64393888'
p54
aS'53107172'
p55
aS'13534377'
p56
aS'24277163'
p57
aS'58522654'
p58
aS'3233378'
p59
aS'23547619'
p60
aS'25106480'
p61
aS'31416266'
p62
aS'1696500'
p63
aS'64228258'
p64
aS'45556081'
p65
aS'68601184'
p66
aS'76123484'
p67
aS'64296965'
p68
aS'48601268'
p69
aS'42196732'
p70
asS'capacity'
p71
I1000
sS'name'
p72
S'Collectieve Intelligentie'
p73
sS'ttype'
p74
S'lectures'
p75
sS'group_id'
p76
I0
sS'room'
p77
(iread_data
Room
p78
(dp79
g71
S'117'
p80
sg72
S'C0.110'
p81
sbsba(ischedule
Activity
p82
(dp83
g8
(lp84
S'67073567'
p85
aS'89180944'
p86
aS'27064249'
p87
aS'3474870'
p88
aS'28358060'
p89
aS'43902015'
p90
aS'53512831'
p91
aS'39230359'
p92
asg71
S'20'
p93
sg72
S'Webprogrammeren en databases'
p94
sg74
S'labs'
p95
sg76
S'2'
p96
sg77
(iread_data
Room
p97
(dp98
g71
S'60'
p99
sg72
S'C1.112'
p100
sbsba(ischedule
Activity
p101
(dp102
g8
(lp103
S'60352393'
p104
aS'23257088'
p105
aS'58332004'
p106
aS'12091019'
p107
aS'27123462'
p108
ag21
aS'47477884'
p109
ag44
ag39
aS'17092717'
p110
aS'58592894'
p111
aS'96054456'
p112
ag43
ag70
aS'86180471'
p113
aS'73823548'
p114
aS'58083680'
p115
aS'47932106'
p116
aS'83869542'
p117
aS'51542218'
p118
aS'54540997'
p119
aS'37701751'
p120
aS'62736669'
p121
aS'56749879'
p122
aS'64947290'
p123
aS'59397895'
p124
aS'91527663'
p125
aS'14816774'
p126
aS'39459642'
p127
aS'56872729'
p128
aS'15187217'
p129
aS'70072978'
p130
aS'40434933'
p131
asg71
S'40'
p132
sg72
S'Databases 2'
p133
sg74
S'tutorials'
p134
sg76
S'1'
p135
sg77
(iread_data
Room
p136
(dp137
g71
S'48'
p138
sg72
S'B0.201'
p139
sbsba(ischedule
Activity
p140
(dp141
g8
(lp142
S'84449005'
p143
aS'94467156'
p144
aS'27925117'
p145
aS'58253841'
p146
aS'41578612'
p147
aS'78821918'
p148
aS'41644639'
p149
aS'68409833'
p150
aS'14398123'
p151
aS'55480737'
p152
aS'27950803'
p153
aS'76924297'
p154
aS'24613625'
p155
aS'87602030'
p156
aS'99283252'
p157
aS'40633534'
p158
aS'82066165'
p159
aS'46701583'
p160
asg71
S'15'
p161
sg72
S'Project Genetic Algorithms'
p162
sg74
g95
sg76
g135
sg77
(iread_data
Room
p163
(dp164
g71
S'20'
p165
sg72
S'A1.08'
p166
sbsba(ischedule
Activity
p167
(dp168
g8
(lp169
S'87830198'
p170
aS'30195935'
p171
aS'57467488'
p172
aS'28618400'
p173
aS'33930505'
p174
aS'1048485'
p175
aS'70844780'
p176
aS'8522855'
p177
aS'72456780'
p178
aS'62363761'
p179
aS'44901052'
p180
aS'18266644'
p181
aS'56121590'
p182
aS'82872148'
p183
aS'4709948'
p184
aS'123355'
p185
aS'53267490'
p186
aS'16912993'
p187
aS'72586808'
p188
aS'37744525'
p189
aS'81022997'
p190
asg71
S'20'
p191
sg72
S'Netwerken en systeembeveiliging'
p192
sg74
g95
sg76
g96
sg77
(iread_data
Room
p193
(dp194
g71
S'22'
p195
sg72
S'A1.06'
p196
sbsba(ischedule
Activity
p197
(dp198
g8
(lp199
S'13911001'
p200
aS'72796858'
p201
aS'92665222'
p202
aS'72895450'
p203
aS'7957843'
p204
aS'80135353'
p205
aS'49683101'
p206
aS'34110913'
p207
aS'2317551'
p208
aS'83266686'
p209
aS'79033175'
p210
aS'11915563'
p211
ag58
aS'12077419'
p212
aS'95007221'
p213
aS'27187154'
p214
aS'79167252'
p215
aS'1766560'
p216
aS'81385263'
p217
ag127
aS'65852230'
p218
aS'88636924'
p219
aS'76661016'
p220
aS'75664412'
p221
aS'34872117'
p222
aS'8464817'
p223
aS'9067939'
p224
aS'43689934'
p225
aS'3407554'
p226
aS'95631564'
p227
asg71
S'40'
p228
sg72
S'Compilerbouw'
p229
sg74
g95
sg76
g96
sg77
(iread_data
Room
p230
(dp231
g71
S'41'
p232
sg72
S'A1.04'
p233
sbsba(ischedule
Activity
p234
(dp235
g8
(lp236
S'13996448'
p237
aS'70878567'
p238
aS'66122625'
p239
aS'97136582'
p240
aS'99453514'
p241
aS'22323043'
p242
aS'13116738'
p243
aS'51566595'
p244
aS'19337738'
p245
asg71
S'10'
p246
sg72
S'Data Mining'
p247
sg74
g95
sg76
g96
sg77
(iread_data
Room
p248
(dp249
g71
S'56'
p250
sg72
S'A1.10'
p251
sbsbaa(lp252
(ischedule
Activity
p253
(dp254
g8
(lp255
g90
ag91
aS'16333449'
p256
aS'5615125'
p257
ag87
ag67
aS'77392404'
p258
aS'1137946'
p259
aS'49908313'
p260
aS'10698627'
p261
ag89
aS'76648468'
p262
ag88
aS'6249823'
p263
aS'14847953'
p264
asg71
S'20'
p265
sg72
g94
sg74
g134
sg76
g96
sg77
(iread_data
Room
p266
(dp267
g71
g232
sg72
g233
sbsba(ischedule
Activity
p268
(dp269
g8
(lp270
S'5976174'
p271
aS'83210352'
p272
aS'73236988'
p273
ag150
ag144
aS'48357272'
p274
aS'65408517'
p275
aS'21095566'
p276
ag22
aS'51593625'
p277
aS'52715680'
p278
aS'31103066'
p279
aS'3727435'
p280
aS'41153310'
p281
ag86
aS'27582862'
p282
ag49
ag175
aS'55474917'
p283
aS'58565406'
p284
ag157
aS'78243495'
p285
aS'62105897'
p286
aS'52552718'
p287
aS'26260141'
p288
aS'59544049'
p289
aS'80709893'
p290
aS'37830626'
p291
aS'89985072'
p292
ag41
aS'61060652'
p293
aS'44671041'
p294
aS'31633723'
p295
aS'11068043'
p296
ag69
ag227
aS'77376714'
p297
ag45
aS'42115591'
p298
asg71
S'40'
p299
sg72
S'Software engineering'
p300
sg74
g134
sg76
g135
sg77
(iread_data
Room
p301
(dp302
g71
g138
sg72
g139
sbsba(ischedule
Activity
p303
(dp304
g8
(lp305
g106
ag243
aS'36748818'
p306
ag37
aS'68315599'
p307
aS'75585647'
p308
aS'11459236'
p309
ag24
aS'19958553'
p310
aS'77636749'
p311
ag181
ag180
aS'32204977'
p312
ag238
aS'17496687'
p313
aS'92977271'
p314
aS'29718115'
p315
ag105
aS'13658563'
p316
aS'23983476'
p317
asg71
S'15'
p318
sg72
S'Informatie- en organsatieontwerp'
p319
sg74
g95
sg76
g96
sg77
(iread_data
Room
p320
(dp321
g71
g165
sg72
g166
sbsba(ischedule
Activity
p322
(dp323
g8
(lp324
g112
aS'22731474'
p325
aS'96453361'
p326
aS'4568018'
p327
ag14
aS'44868097'
p328
aS'15051051'
p329
aS'14591033'
p330
ag171
ag122
ag70
aS'43680781'
p331
aS'74131924'
p332
ag174
aS'81200278'
p333
aS'79617364'
p334
ag155
aS'28359697'
p335
asg71
S'20'
p336
sg72
S'Bioinformatica'
p337
sg74
g134
sg76
g135
sg77
(iread_data
Room
p338
(dp339
g71
g80
sg72
g81
sbsba(ischedule
Activity
p340
(dp341
g8
(lp342
g26
aS'40343779'
p343
aS'26207525'
p344
aS'56191333'
p345
aS'63573738'
p346
aS'19058315'
p347
aS'66120270'
p348
aS'85284256'
p349
aS'21677389'
p350
aS'59887191'
p351
aS'34243356'
p352
aS'31247305'
p353
asg71
g191
sg72
g192
sg74
g95
sg76
g135
sg77
(iread_data
Room
p354
(dp355
g71
g99
sg72
g100
sbsba(ischedule
Activity
p356
(dp357
g8
(lp358
S'14138904'
p359
aS'63634350'
p360
aS'51673172'
p361
aS'25994016'
p362
aS'38499176'
p363
ag159
aS'535689'
p364
aS'14383795'
p365
ag43
aS'51472074'
p366
asg71
S'15'
p367
sg72
S'Compilerbouw practicum'
p368
sg74
g95
sg76
S'3'
p369
sg77
(iread_data
Room
p370
(dp371
g71
g250
sg72
g251
sbsbaa(lp372
(ischedule
Activity
p373
(dp374
g8
(lp375
S'92778619'
p376
aS'27370083'
p377
ag278
aS'36785409'
p378
aS'37110913'
p379
ag184
aS'70193386'
p380
ag258
aS'57086672'
p381
ag104
aS'86988337'
p382
ag241
aS'27805666'
p383
ag176
aS'5298748'
p384
aS'82390428'
p385
aS'49922855'
p386
aS'37399898'
p387
aS'77960666'
p388
ag147
aS'33776961'
p389
aS'13718298'
p390
aS'96554914'
p391
ag316
ag153
aS'90474003'
p392
ag57
aS'32044893'
p393
ag331
aS'42406214'
p394
aS'22826928'
p395
aS'20239127'
p396
aS'20095994'
p397
aS'60661905'
p398
aS'3685034'
p399
aS'22871048'
p400
ag170
aS'54569540'
p401
ag143
aS'6913074'
p402
aS'38296757'
p403
aS'51052738'
p404
aS'36213792'
p405
aS'59753700'
p406
aS'61518436'
p407
aS'51415617'
p408
aS'68286356'
p409
aS'99975346'
p410
aS'84524083'
p411
aS'78136904'
p412
ag31
asg71
I1000
sg72
S'Reflectie op de digitale cultuur'
p413
sg74
g75
sg76
I0
sg77
(iread_data
Room
p414
(dp415
g71
g250
sg72
g251
sbsba(ischedule
Activity
p416
(dp417
g8
(lp418
S'27916487'
p419
aS'58699305'
p420
aS'11741347'
p421
ag32
aS'30658799'
p422
aS'1181560'
p423
aS'11996292'
p424
ag39
ag11
aS'85335143'
p425
aS'96082155'
p426
ag307
ag106
ag306
ag297
aS'29526540'
p427
ag209
aS'78544592'
p428
ag331
aS'64600457'
p429
ag329
ag200
ag216
ag24
aS'27241113'
p430
aS'14309255'
p431
aS'66621166'
p432
ag157
ag21
aS'83415514'
p433
aS'3883025'
p434
aS'49219163'
p435
asg71
S'20'
p436
sg72
S'Moderne Databases'
p437
sg74
g134
sg76
g96
sg77
(iread_data
Room
p438
(dp439
g71
g99
sg72
g100
sbsba(ischedule
Activity
p440
(dp441
g8
(lp442
g144
ag25
aS'7492204'
p443
ag286
aS'23215240'
p444
aS'12782624'
p445
aS'66433883'
p446
aS'45414528'
p447
aS'94687383'
p448
aS'47982619'
p449
aS'73893840'
p450
aS'4921119'
p451
ag283
ag52
aS'23391676'
p452
aS'94955328'
p453
asg71
S'20'
p454
sg72
S'Programmeren in Java 2'
p455
sg74
g95
sg76
g369
sg77
(iread_data
Room
p456
(dp457
g71
g232
sg72
g233
sbsba(ischedule
Activity
p458
(dp459
g8
(lp460
g343
ag244
ag14
ag22
ag125
ag123
aS'27298319'
p461
ag19
ag217
aS'88596522'
p462
ag111
aS'51509565'
p463
ag288
aS'19540225'
p464
aS'67817269'
p465
ag276
ag88
aS'3707829'
p466
aS'44828429'
p467
asg71
S'25'
p468
sg72
S'Algoritmen en complexiteit'
p469
sg74
g134
sg76
g96
sg77
(iread_data
Room
p470
(dp471
g71
g80
sg72
g81
sbsba(ischedule
Activity
p472
(dp473
g8
(lp474
g14
ag238
aS'30050930'
p475
ag332
ag155
aS'54026378'
p476
ag126
asg71
S'20'
p477
sg72
g337
sg74
g95
sg76
g135
sg77
(iread_data
Room
p478
(dp479
g71
g138
sg72
g139
sbsba(ischedule
Activity
p480
(dp481
g8
(lp482
S'65675896'
p483
ag226
ag50
ag309
aS'99272880'
p484
aS'44151631'
p485
ag296
ag292
aS'42297781'
p486
ag312
ag200
ag149
aS'71839156'
p487
aS'74361881'
p488
asg71
g367
sg72
g368
sg74
g95
sg76
g135
sg77
(iread_data
Room
p489
(dp490
g71
g165
sg72
g166
sbsbaa(lp491
(ischedule
Activity
p492
(dp493
g8
(lp494
g25
ag13
ag421
ag200
aS'48308205'
p495
ag411
ag217
ag225
aS'46989508'
p496
ag201
ag216
aS'54772132'
p497
aS'98105190'
p498
ag214
aS'2079771'
p499
aS'10792879'
p500
ag215
ag202
ag422
ag203
ag220
ag218
aS'53202517'
p501
ag204
ag223
ag205
aS'15911353'
p502
ag219
ag155
aS'88752563'
p503
ag431
ag206
aS'13284244'
p504
ag28
ag18
ag221
ag307
ag226
aS'66701209'
p505
ag153
aS'5368702'
p506
ag207
aS'5595824'
p507
ag208
ag127
aS'75759231'
p508
aS'40791377'
p509
aS'88855695'
p510
aS'75599734'
p511
ag382
aS'6723948'
p512
ag209
ag273
ag210
ag227
ag211
aS'48503689'
p513
ag224
aS'31194811'
p514
ag448
ag222
ag58
ag41
ag35
aS'44391517'
p515
ag352
ag213
ag212
aS'76802764'
p516
asg71
I1000
sg72
g229
sg74
g75
sg76
I0
sg77
(iread_data
Room
p517
(dp518
g71
g80
sg72
g81
sbsba(ischedule
Activity
p519
(dp520
g8
(lp521
S'64418623'
p522
ag22
ag327
aS'14303208'
p523
aS'53585410'
p524
aS'47260040'
p525
aS'72665524'
p526
aS'1695839'
p527
aS'91250534'
p528
ag462
aS'55103073'
p529
ag444
ag278
ag10
aS'5892092'
p530
aS'5085194'
p531
asg71
g367
sg72
g368
sg74
g95
sg76
g96
sg77
(iread_data
Room
p532
(dp533
g71
g232
sg72
g233
sbsba(ischedule
Activity
p534
(dp535
g8
(lp536
S'59289233'
p537
ag359
ag209
ag86
aS'10149535'
p538
aS'43460038'
p539
aS'58866007'
p540
ag65
ag131
ag315
aS'13798030'
p541
ag40
aS'20331158'
p542
aS'23798155'
p543
ag19
ag145
ag206
aS'72683344'
p544
ag173
ag222
aS'70015932'
p545
asg71
I1000
sg72
S'Architectuur en computerorganisatie'
p546
sg74
g75
sg76
I0
sg77
(iread_data
Room
p547
(dp548
g71
g195
sg72
g196
sbsba(ischedule
Activity
p549
(dp550
g8
(lp551
g296
ag237
ag31
aS'32183908'
p552
aS'2550487'
p553
aS'19662602'
p554
aS'63939720'
p555
asg71
S'15'
p556
sg72
S'Project Numerical Recipes'
p557
sg74
g95
sg76
g96
sg77
(iread_data
Room
p558
(dp559
g71
g250
sg72
g251
sbsba(ischedule
Activity
p560
(dp561
g8
(lp562
g39
aS'63111000'
p563
ag297
ag130
ag423
aS'13218321'
p564
ag434
ag429
aS'47462856'
p565
ag157
aS'75997788'
p566
aS'49631542'
p567
ag57
asg71
S'20'
p568
sg72
g437
sg74
g95
sg76
g135
sg77
(iread_data
Room
p569
(dp570
g71
g165
sg72
g166
sbsba(ischedule
Activity
p571
(dp572
g8
(lp573
g311
ag309
ag307
ag106
ag313
ag243
ag314
ag310
ag308
ag24
ag180
aS'8557857'
p574
ag312
ag315
ag181
ag316
ag37
ag317
ag238
ag306
ag105
asg71
I1000
sg72
g319
sg74
g75
sg76
I0
sg77
(iread_data
Room
p575
(dp576
g71
g99
sg72
g100
sbsba(ischedule
Activity
p577
(dp578
g8
(lp579
g45
ag121
aS'36903574'
p580
ag27
ag47
ag151
aS'9731271'
p581
aS'70939718'
p582
asg71
g191
sg72
g192
sg74
g95
sg76
g369
sg77
(iread_data
Room
p583
(dp584
g71
g138
sg72
g139
sbsbaa(lp585
(ischedule
Activity
p586
(dp587
g8
g375
sg71
I1000
sg72
g413
sg74
g75
sg76
I0
sg77
(iread_data
Room
p588
(dp589
g71
g80
sg72
g81
sbsba(ischedule
Activity
p590
(dp591
g8
(lp592
g14
ag466
ag22
ag461
ag19
ag212
ag203
ag42
ag10
aS'14671406'
p593
aS'64554442'
p594
ag123
ag172
ag160
ag524
ag467
ag90
ag177
ag276
aS'41527759'
p595
ag464
ag463
ag326
asg71
S'25'
p596
sg72
g469
sg74
g95
sg76
g96
sg77
(iread_data
Room
p597
(dp598
g71
g232
sg72
g233
sbsba(ischedule
Activity
p599
(dp600
g8
(lp601
S'16097870'
p602
aS'94686490'
p603
ag46
ag150
ag70
aS'16011419'
p604
ag147
ag352
ag283
ag88
ag330
ag363
aS'91196968'
p605
ag36
aS'36508571'
p606
aS'52311353'
p607
ag13
aS'93566383'
p608
ag540
aS'90743504'
p609
aS'26172512'
p610
aS'96118484'
p611
aS'23565001'
p612
ag453
ag293
ag495
aS'62872965'
p613
aS'80998260'
p614
aS'32595335'
p615
ag272
ag387
ag39
ag28
aS'55412918'
p616
ag62
aS'34588570'
p617
ag298
ag334
ag256
aS'79937969'
p618
aS'21311067'
p619
aS'54074680'
p620
ag128
aS'81218347'
p621
ag538
ag217
aS'74182182'
p622
ag290
aS'670011'
p623
aS'75005528'
p624
aS'36527838'
p625
ag451
ag487
aS'66570705'
p626
asg71
I1000
sg72
S'Lineaire Algebra'
p627
sg74
g75
sg76
I0
sg77
(iread_data
Room
p628
(dp629
g71
g99
sg72
g100
sbsba(ischedule
Activity
p630
(dp631
g8
(lp632
g330
ag24
ag172
ag239
ag542
ag242
ag498
aS'97019450'
p633
ag327
ag359
aS'4353500'
p634
ag580
ag122
aS'97417002'
p635
ag126
ag379
ag274
ag314
aS'59075181'
p636
aS'94930277'
p637
aS'19858730'
p638
ag566
aS'58736785'
p639
aS'86807027'
p640
asg71
S'25'
p641
sg72
S'Heuristieken 1'
p642
sg74
g134
sg76
g135
sg77
(iread_data
Room
p643
(dp644
g71
g250
sg72
g251
sbsba(ischedule
Activity
p645
(dp646
g8
(lp647
S'7106649'
p648
aS'1886996'
p649
ag117
aS'15249775'
p650
aS'48678993'
p651
ag271
ag156
aS'52304977'
p652
ag333
ag190
aS'82968410'
p653
ag360
ag325
ag244
ag44
asg71
S'20'
p654
sg72
S'Heuristieken 2'
p655
sg74
g134
sg76
g96
sg77
(iread_data
Room
p656
(dp657
g71
g138
sg72
g139
sbsba(ischedule
Activity
p658
(dp659
g8
(lp660
g311
ag180
ag37
ag307
ag238
ag181
ag306
ag308
ag106
ag314
ag317
asg71
S'15'
p661
sg72
g319
sg74
g134
sg76
g135
sg77
(iread_data
Room
p662
(dp663
g71
g165
sg72
g166
sbsbaaa(lp664
(lp665
(ischedule
Activity
p666
(dp667
g8
g536
sg71
I1000
sg72
g546
sg74
g75
sg76
I0
sg77
(iread_data
Room
p668
(dp669
g71
g195
sg72
g196
sbsba(ischedule
Activity
p670
(dp671
g8
(lp672
g10
ag276
ag524
ag160
ag382
ag343
aS'23652927'
p673
ag244
ag288
ag14
ag594
ag466
ag297
ag22
ag463
ag125
ag446
ag123
ag580
ag595
ag172
ag88
ag464
ag461
ag462
ag19
ag42
aS'41585485'
p674
ag317
ag465
ag593
ag326
ag217
ag278
ag90
ag467
ag271
aS'34765676'
p675
ag203
ag212
ag177
ag111
ag412
asg71
I1000
sg72
g469
sg74
g75
sg76
I0
sg77
(iread_data
Room
p676
(dp677
g71
g80
sg72
g81
sbsba(ischedule
Activity
p678
(dp679
g8
(lp680
g201
ag287
ag127
ag39
ag244
ag461
ag180
ag606
ag638
ag602
ag476
aS'34806836'
p681
ag211
aS'62356458'
p682
ag379
aS'88627897'
p683
ag150
ag613
ag400
aS'70113753'
p684
ag332
aS'61611295'
p685
asg71
I1000
sg72
S'Autonomous Agents 2'
p686
sg74
g75
sg76
I0
sg77
(iread_data
Room
p687
(dp688
g71
g232
sg72
g233
sbsba(ischedule
Activity
p689
(dp690
g8
g573
sg71
I1000
sg72
g319
sg74
g75
sg76
I0
sg77
(iread_data
Room
p691
(dp692
g71
g99
sg72
g100
sbsba(ischedule
Activity
p693
(dp694
g8
(lp695
g25
ag421
ag495
ag496
ag498
ag422
ag501
ag502
ag155
ag504
ag18
ag307
ag506
ag507
ag511
ag512
ag513
ag514
ag41
ag515
ag352
ag508
ag516
ag28
ag273
ag35
ag13
ag505
ag499
ag153
ag500
ag497
ag509
ag510
ag431
ag411
ag448
ag382
ag503
asg71
g228
sg72
g229
sg74
g95
sg76
g135
sg77
(iread_data
Room
p696
(dp697
g71
g250
sg72
g251
sbsba(ischedule
Activity
p698
(dp699
g8
(lp700
g333
ag447
aS'68360259'
p701
aS'98780382'
p702
aS'87314964'
p703
aS'25330192'
p704
asg71
g246
sg72
g247
sg74
g95
sg76
g369
sg77
(iread_data
Room
p705
(dp706
g71
g165
sg72
g166
sbsba(ischedule
Activity
p707
(dp708
g8
(lp709
S'59111489'
p710
ag86
ag184
ag285
aS'48198668'
p711
aS'41489515'
p712
ag567
ag564
ag389
aS'18144425'
p713
ag625
ag563
ag143
aS'46570285'
p714
ag566
ag148
asg71
g436
sg72
g437
sg74
g134
sg76
g369
sg77
(iread_data
Room
p715
(dp716
g71
g138
sg72
g139
sbsbaa(lp717
(ischedule
Activity
p718
(dp719
g8
(lp720
g639
ag314
ag330
aS'14941752'
p721
ag24
aS'76393508'
p722
ag180
ag580
aS'31897288'
p723
ag487
ag424
ag634
ag566
aS'20830477'
p724
ag635
ag55
ag172
aS'83443653'
p725
ag239
ag637
ag640
aS'87210640'
p726
ag542
ag274
ag242
aS'53775014'
p727
ag621
ag638
ag636
aS'79879876'
p728
ag400
ag379
ag23
aS'45660925'
p729
ag498
ag126
ag633
ag122
ag32
ag63
ag327
ag293
ag359
ag316
asg71
I1000
sg72
g642
sg74
g75
sg76
I0
sg77
(iread_data
Room
p730
(dp731
g71
g250
sg72
g251
sbsba(ischedule
Activity
p732
(dp733
g8
(lp734
g225
ag201
ag203
ag218
ag28
ag221
ag153
ag208
ag209
ag224
ag212
ag506
ag501
ag431
ag41
ag222
ag495
ag226
ag204
ag507
ag217
ag127
ag213
ag515
ag510
ag200
ag211
ag219
ag382
ag496
ag13
ag352
ag273
asg71
S'40'
p735
sg72
g229
sg74
g134
sg76
g96
sg77
(iread_data
Room
p736
(dp737
g71
g232
sg72
g233
sbsba(ischedule
Activity
p738
(dp739
g8
(lp740
g10
ag14
ag30
ag50
ag66
ag56
ag21
ag26
ag61
ag33
ag38
ag46
asg71
S'20'
p741
sg72
g73
sg74
g134
sg76
g135
sg77
(iread_data
Room
p742
(dp743
g71
g165
sg72
g166
sbsba(ischedule
Activity
p744
(dp745
g8
(lp746
g145
ag648
aS'72652638'
p747
ag650
ag44
ag244
ag410
ag639
ag190
ag649
ag29
aS'58040377'
p748
ag653
ag623
ag12
ag333
ag360
ag723
ag675
ag411
ag285
ag602
ag325
ag651
aS'85236626'
p749
ag117
ag652
ag381
aS'35315956'
p750
aS'5739011'
p751
ag156
ag271
asg71
I1000
sg72
g655
sg74
g75
sg76
I0
sg77
(iread_data
Room
p752
(dp753
g71
g99
sg72
g100
sbsba(ischedule
Activity
p754
(dp755
g8
(lp756
g60
asg71
S'10'
p757
sg72
S'Advanced Heuristics'
p758
sg74
g95
sg76
g96
sg77
(iread_data
Room
p759
(dp760
g71
g195
sg72
g196
sbsba(ischedule
Activity
p761
(dp762
g8
(lp763
S'56815156'
p764
ag425
ag402
aS'247918'
p765
aS'88176729'
p766
aS'21029457'
p767
ag289
ag47
ag348
ag476
ag429
ag126
aS'20883994'
p768
ag427
ag58
ag475
ag384
asg71
g336
sg72
g337
sg74
g134
sg76
g369
sg77
(iread_data
Room
p769
(dp770
g71
g80
sg72
g81
sbsbaa(lp771
(ischedule
Activity
p772
(dp773
g8
(lp774
g684
ag106
ag160
ag524
ag749
ag360
ag581
ag728
ag127
ag515
ag123
ag184
ag513
aS'2416751'
p775
ag214
ag62
aS'73196865'
p776
ag66
ag563
ag29
aS'3678531'
p777
ag553
ag45
ag623
aS'34900967'
p778
ag105
asg71
g454
sg72
g455
sg74
g95
sg76
S'4'
p779
sg77
(iread_data
Room
p780
(dp781
g71
g232
sg72
g233
sbsba(ischedule
Activity
p782
(dp783
g8
(lp784
g109
aS'62613937'
p785
ag640
ag87
ag104
ag412
ag158
ag173
ag544
aS'39429093'
p786
ag768
ag649
ag202
ag566
ag40
ag176
aS'3168419'
p787
ag264
ag526
ag60
asg71
I1000
sg72
g758
sg74
g75
sg76
I0
sg77
(iread_data
Room
p788
(dp789
g71
g250
sg72
g251
sbsba(ischedule
Activity
p790
(dp791
g8
(lp792
S'65318664'
p793
ag290
ag353
ag539
ag297
ag593
aS'9287708'
p794
ag545
aS'73302736'
p795
ag391
ag242
ag59
aS'33877725'
p796
ag49
ag766
ag291
ag431
ag595
ag61
ag211
ag327
ag23
ag281
aS'45915482'
p797
aS'84110134'
p798
ag41
ag390
asg71
S'40'
p799
sg72
g300
sg74
g95
sg76
g96
sg77
(iread_data
Room
p800
(dp801
g71
g99
sg72
g100
sbsba(ischedule
Activity
p802
(dp803
g8
(lp804
g271
ag294
ag150
ag144
ag275
ag276
ag278
ag511
aS'14072826'
p805
ag175
aS'58074656'
p806
aS'4546613'
p807
ag189
ag283
ag284
ag328
ag287
ag343
ag285
ag272
ag682
aS'78443067'
p808
ag277
ag227
ag288
ag296
ag274
ag286
ag400
ag69
ag22
ag153
ag298
ag157
ag289
ag607
ag45
ag292
ag282
ag183
ag476
ag279
ag86
ag295
ag293
ag280
ag273
aS'89338938'
p809
asg71
g799
sg72
g300
sg74
g95
sg76
g135
sg77
(iread_data
Room
p810
(dp811
g71
g80
sg72
g81
sbsba(ischedule
Activity
p812
(dp813
g8
(lp814
g70
ag326
ag402
ag501
ag122
ag335
ag512
ag112
ag58
aS'77831658'
p815
ag174
ag330
ag429
ag425
asg71
g477
sg72
g337
sg74
g95
sg76
g369
sg77
(iread_data
Room
p816
(dp817
g71
g195
sg72
g196
sbsba(ischedule
Activity
p818
(dp819
g8
(lp820
g104
ag25
aS'12170832'
p821
aS'25557516'
p822
ag363
ag258
aS'5590289'
p823
ag526
ag651
ag364
ag221
aS'64246605'
p824
ag217
ag636
ag19
ag497
ag240
ag63
ag333
ag434
ag634
ag204
ag704
asg71
g191
sg72
g192
sg74
g95
sg76
g779
sg77
g656
sbaa(lp825
(ischedule
Activity
p826
(dp827
g8
g9
sg71
I1000
sg72
g73
sg74
g75
sg76
I0
sg77
(iread_data
Room
p828
(dp829
g71
g80
sg72
g81
sbsba(ischedule
Activity
p830
(dp831
g8
(lp832
S'81155296'
p833
ag622
ag602
aS'22168693'
p834
aS'59220392'
p835
ag425
aS'10609762'
p836
ag274
aS'6709529'
p837
ag524
ag275
ag113
ag429
aS'56544130'
p838
ag402
ag220
aS'80188025'
p839
aS'19717077'
p840
ag797
ag581
aS'53139134'
p841
aS'33672995'
p842
aS'77306636'
p843
ag146
ag160
aS'58469172'
p844
ag87
ag214
ag116
ag526
aS'75446434'
p845
ag461
aS'40141996'
p846
aS'75623387'
p847
ag360
ag523
ag566
aS'56348773'
p848
aS'37279234'
p849
ag777
ag145
ag428
ag179
ag795
asg71
S'40'
p850
sg72
S'Calculus 2'
p851
sg74
g134
sg76
g135
sg77
(iread_data
Room
p852
(dp853
g71
g99
sg72
g100
sbsba(ischedule
Activity
p854
(dp855
g8
(lp856
g112
ag328
ag70
ag765
ag327
ag330
ag325
ag768
ag14
ag238
ag292
ag815
ag334
ag333
ag126
ag155
ag787
ag332
ag425
ag171
ag331
ag384
ag402
ag427
ag512
ag296
ag329
ag476
ag58
ag326
ag174
ag273
ag796
ag767
ag47
ag335
ag395
ag289
ag764
ag429
ag475
ag348
ag122
ag501
ag766
asg71
I1000
sg72
g337
sg74
g75
sg76
I0
sg77
(iread_data
Room
p857
(dp858
g71
g250
sg72
g251
sbsba(ischedule
Activity
p859
(dp860
g8
(lp861
g107
ag114
aS'6939933'
p862
aS'65978354'
p863
ag714
ag510
ag126
aS'24875739'
p864
ag42
ag64
aS'34173695'
p865
ag433
ag512
ag503
aS'82412626'
p866
ag420
ag23
aS'14179347'
p867
ag111
ag640
aS'55530367'
p868
aS'79888156'
p869
ag616
aS'93361408'
p870
ag748
ag500
ag582
ag209
aS'11593163'
p871
ag215
aS'72526473'
p872
ag403
asg71
g850
sg72
g851
sg74
g134
sg76
g369
sg77
(iread_data
Room
p873
(dp874
g71
g138
sg72
g139
sbsba(ischedule
Activity
p875
(dp876
g8
(lp877
g189
ag399
ag543
aS'33252501'
p878
ag214
ag329
ag144
ag749
aS'67625383'
p879
ag160
ag271
aS'90067329'
p880
aS'26857113'
p881
ag206
ag563
ag509
ag499
aS'56988998'
p882
ag403
ag38
ag127
ag407
asg71
I1000
sg72
S'Machine Learning'
p883
sg74
g75
sg76
I0
sg77
(iread_data
Room
p884
(dp885
g71
g195
sg72
g196
sbsba(ischedule
Activity
p886
(dp887
g8
(lp888
g379
ag684
ag211
ag682
ag150
ag606
ag244
asg71
S'10'
p889
sg72
g686
sg74
g134
sg76
g369
sg77
(iread_data
Room
p890
(dp891
g71
g232
sg72
g233
sbsbaa(lp892
(ischedule
Activity
p893
(dp894
g8
(lp895
g382
ag297
ag446
ag580
ag42
ag317
ag593
ag203
ag412
ag177
ag674
ag524
ag595
ag278
ag160
ag675
ag212
ag673
ag172
ag10
ag326
ag90
ag594
ag271
asg71
g468
sg72
g469
sg74
g134
sg76
g135
sg77
(iread_data
Room
p896
(dp897
g71
g250
sg72
g251
sbsba(ischedule
Activity
p898
(dp899
g8
(lp900
g328
ag327
ag768
ag292
ag333
ag787
ag296
ag273
ag289
ag171
ag767
ag765
ag395
ag348
ag325
ag47
ag427
ag766
ag764
ag331
ag329
ag334
ag384
ag796
asg71
g477
sg72
g337
sg74
g95
sg76
g96
sg77
(iread_data
Room
p901
(dp902
g71
g80
sg72
g81
sbsba(ischedule
Activity
p903
(dp904
g8
g680
sg71
I1000
sg72
g686
sg74
g75
sg76
I0
sg77
(iread_data
Room
p905
(dp906
g71
g138
sg72
g139
sbsba(ischedule
Activity
p907
(dp908
g8
(lp909
S'17823206'
p910
aS'88597745'
p911
ag20
aS'64053722'
p912
aS'10702778'
p913
ag429
ag363
ag387
ag398
aS'23658570'
p914
ag608
ag317
ag349
ag14
ag640
ag748
ag402
aS'51791169'
p915
ag512
ag724
aS'20618153'
p916
asg71
g454
sg72
g455
sg74
g95
sg76
g135
sg77
(iread_data
Room
p917
(dp918
g71
g232
sg72
g233
sbsba(ischedule
Activity
p919
(dp920
g8
(lp921
g15
ag19
ag23
ag31
ag59
ag63
ag37
ag16
ag17
ag69
ag64
ag65
ag12
ag45
asg71
g741
sg72
g73
sg74
g134
sg76
g96
sg77
(iread_data
Room
p922
(dp923
g71
g195
sg72
g196
sbsba(ischedule
Activity
p924
(dp925
g8
(lp926
g22
ag30
ag34
ag54
ag58
ag66
ag70
ag28
ag62
ag24
ag32
ag38
ag40
ag61
ag64
asg71
S'20'
p927
sg72
g73
sg74
g95
sg76
g135
sg77
(iread_data
Room
p928
(dp929
g71
g165
sg72
g166
sbsba(ischedule
Activity
p930
(dp931
g8
(lp932
g808
aS'51650744'
p933
ag216
ag424
ag307
ag426
ag86
ag432
ag143
ag285
ag435
ag431
ag713
ag148
ag419
ag433
ag714
ag711
ag420
asg71
g568
sg72
g437
sg74
g95
sg76
g96
sg77
g438
sbaaa(lp934
(lp935
(ischedule
Activity
p936
(dp937
g8
g877
sg71
I1000
sg72
g883
sg74
g75
sg76
I0
sg77
(iread_data
Room
p938
(dp939
g71
g99
sg72
g100
sbsba(ischedule
Activity
p940
(dp941
g8
(lp942
g420
ag603
ag107
aS'61520025'
p943
ag914
ag871
aS'31306819'
p944
ag866
ag114
ag833
ag538
ag846
ag622
ag870
ag116
aS'28957789'
p945
ag179
ag862
ag602
ag288
ag360
ag834
aS'32705005'
p946
ag863
ag835
ag461
ag714
ag425
ag26
ag640
ag582
ag156
ag777
ag112
ag330
ag145
ag526
ag214
ag128
ag836
ag328
ag869
ag274
ag308
ag510
ag837
ag257
ag844
ag524
ag807
ag845
ag275
ag111
ag209
ag113
ag868
ag126
ag429
ag403
ag864
ag566
ag23
ag847
ag838
ag52
ag12
ag748
ag334
ag42
ag402
ag616
ag64
ag872
ag428
ag87
ag220
ag867
ag160
ag839
ag146
ag795
ag840
ag612
ag865
ag797
ag767
aS'78735049'
p947
ag503
ag27
ag286
ag581
ag849
aS'23628642'
p948
ag523
ag109
ag500
aS'87900893'
p949
ag215
ag433
ag841
ag848
ag512
ag842
aS'38179241'
p950
ag808
ag843
asg71
I1000
sg72
g851
sg74
g75
sg76
I0
sg77
(iread_data
Room
p951
(dp952
g71
g80
sg72
g81
sbsba(ischedule
Activity
p953
(dp954
g8
(lp955
g19
ag603
ag28
ag567
ag148
ag392
ag344
ag90
ag45
ag765
ag846
ag624
ag244
ag914
aS'5526560'
p956
ag172
ag67
ag57
ag201
ag68
ag178
ag222
aS'13132925'
p957
ag503
ag31
ag287
ag496
ag182
ag531
ag787
ag451
ag424
ag427
ag623
aS'4529208'
p958
ag382
aS'25077484'
p959
ag388
ag345
asg71
g132
sg72
g133
sg74
g134
sg76
g96
sg77
(iread_data
Room
p960
(dp961
g71
g250
sg72
g251
sbsba(ischedule
Activity
p962
(dp963
g8
(lp964
g607
ag14
ag910
ag240
ag605
ag701
ag241
ag22
ag243
ag702
ag332
ag447
ag245
ag333
asg71
S'10'
p965
sg72
g247
sg74
g134
sg76
g135
sg77
(iread_data
Room
p966
(dp967
g71
g232
sg72
g233
sbsba(ischedule
Activity
p968
(dp969
g8
(lp970
g383
ag395
ag384
ag316
ag104
ag331
ag379
ag412
ag176
ag153
asg71
S'20'
p971
sg72
g413
sg74
g134
sg76
g135
sg77
(iread_data
Room
p972
(dp973
g71
g165
sg72
g166
sbsba(ischedule
Activity
p974
(dp975
g8
(lp976
S'76903244'
p977
ag285
ag86
aS'41790793'
p978
ag381
ag775
ag131
ag501
ag64
ag85
aS'24891081'
p979
ag916
ag539
ag796
ag523
ag203
aS'69459473'
p980
aS'22288615'
p981
ag40
ag110
ag29
ag92
ag637
aS'66034145'
p982
asg71
g265
sg72
g94
sg74
g134
sg76
g135
sg77
g656
sbaa(lp983
(ischedule
Activity
p984
(dp985
g8
(lp986
g379
ag406
ag14
ag22
ag190
ag605
ag189
ag607
ag910
ag949
aS'93023961'
p987
ag332
asg71
g246
sg72
g247
sg74
g95
sg76
g135
sg77
g656
sba(ischedule
Activity
p988
(dp989
g8
(lp990
g273
ag393
ag47
ag624
ag204
ag41
ag203
ag346
ag682
ag513
ag798
ag25
ag622
aS'37419523'
p991
ag495
aS'12430748'
p992
aS'40911986'
p993
aS'21070547'
p994
ag173
ag504
ag640
ag815
ag721
ag114
ag809
ag325
asg71
g556
sg72
g557
sg74
g95
sg76
g369
sg77
(iread_data
Room
p995
(dp996
g71
g250
sg72
g251
sbsba(ischedule
Activity
p997
(dp998
g8
(lp999
g285
ag110
ag978
ag263
ag29
ag203
ag981
ag259
ag916
ag67
ag262
ag796
ag261
ag381
ag775
ag258
ag264
ag979
ag256
ag131
ag257
ag982
ag977
ag501
ag64
ag523
ag539
ag980
ag637
ag260
ag40
asg71
g93
sg72
g94
sg74
g95
sg76
g135
sg77
(iread_data
Room
p1000
(dp1001
g71
g232
sg72
g233
sbsba(ischedule
Activity
p1002
(dp1003
g8
(lp1004
g307
ag713
ag435
ag39
ag419
ag625
ag430
ag57
ag710
ag563
ag24
ag21
ag209
ag808
ag564
ag389
ag429
ag143
ag111
ag933
ag434
ag714
ag420
ag86
ag432
ag565
ag184
ag431
ag216
ag425
ag11
ag148
ag106
ag567
ag421
ag200
ag297
ag433
ag285
ag712
ag329
ag427
ag306
ag32
ag711
ag157
ag422
ag566
ag331
ag423
ag426
ag130
ag424
ag428
asg71
I1000
sg72
g437
sg74
g75
sg76
I0
sg77
(iread_data
Room
p1005
(dp1006
g71
g99
sg72
g100
sbsba(ischedule
Activity
p1007
(dp1008
g8
(lp1009
g48
ag60
ag68
ag69
ag42
ag46
ag31
ag13
ag37
ag15
ag26
ag51
ag53
ag49
ag36
asg71
g927
sg72
g73
sg74
g95
sg76
g369
sg77
(iread_data
Room
p1010
(dp1011
g71
g195
sg72
g196
sbsba(ischedule
Activity
p1012
(dp1013
g8
(lp1014
g574
asg71
g318
sg72
g319
sg74
g95
sg76
g135
sg77
(iread_data
Room
p1015
(dp1016
g71
g80
sg72
g81
sbsba(ischedule
Activity
p1017
(dp1018
g8
(lp1019
g602
ag683
ag39
ag681
ag613
ag287
ag476
ag638
ag400
ag685
asg71
g889
sg72
g686
sg74
g134
sg76
g135
sg77
(iread_data
Room
p1020
(dp1021
g71
g165
sg72
g166
sbsbaa(lp1022
(ischedule
Activity
p1023
(dp1024
g8
(lp1025
g809
ag286
ag296
ag798
ag271
ag476
ag272
ag343
ag294
ag153
ag273
ag61
ag293
ag682
ag150
ag287
ag144
ag285
ag274
ag808
ag242
ag59
ag275
ag793
ag227
ag290
ag276
ag69
ag22
ag353
ag277
ag23
ag278
ag797
ag279
ag431
ag595
ag183
ag298
ag539
ag511
ag297
ag291
ag295
ag766
ag593
ag280
ag794
ag796
ag45
ag281
ag390
ag86
ag545
ag391
ag327
ag282
ag157
ag805
ag41
ag49
ag289
ag175
ag292
ag806
ag211
ag807
ag400
ag189
ag795
ag288
ag328
ag283
ag607
ag284
asg71
I1000
sg72
g300
sg74
g75
sg76
I0
sg77
(iread_data
Room
p1026
(dp1027
g71
g80
sg72
g81
sbsba(ischedule
Activity
p1028
(dp1029
g8
(lp1030
g625
ag184
ag425
ag200
ag427
ag306
ag430
ag422
ag21
ag712
ag710
ag331
ag329
ag209
ag111
ag24
ag428
ag106
ag421
ag32
ag11
ag389
asg71
g568
sg72
g437
sg74
g95
sg76
g369
sg77
(iread_data
Room
p1031
(dp1032
g71
g232
sg72
g233
sbsba(ischedule
Activity
p1033
(dp1034
g8
(lp1035
S'34262212'
p1036
ag189
ag223
ag580
aS'28943658'
p1037
ag261
aS'7386961'
p1038
ag28
ag237
ag395
ag215
ag497
aS'39905995'
p1039
ag112
ag130
ag54
ag122
ag376
ag109
asg71
g454
sg72
g455
sg74
g95
sg76
S'5'
p1040
sg77
(iread_data
Room
p1041
(dp1042
g71
g99
sg72
g100
sbsba(ischedule
Activity
p1043
(dp1044
g8
(lp1045
g503
aS'81116418'
p1046
aS'34691309'
p1047
ag216
ag399
ag190
aS'90103047'
p1048
aS'19214659'
p1049
ag13
ag394
ag862
asg71
g556
sg72
g557
sg74
g95
sg76
g135
sg77
(iread_data
Room
p1050
(dp1051
g71
g250
sg72
g251
sbsba(ischedule
Activity
p1052
(dp1053
g8
(lp1054
g980
ag113
ag220
ag53
aS'88737765'
p1055
ag177
ag18
ag362
ag959
ag651
ag488
ag956
ag361
aS'75680261'
p1056
ag170
ag505
ag867
asg71
g161
sg72
g162
sg74
g95
sg76
g96
sg77
(iread_data
Room
p1057
(dp1058
g71
g165
sg72
g166
sbsba(ischedule
Activity
p1059
(dp1060
g8
(lp1061
g20
ag32
ag36
ag40
ag60
ag25
ag34
ag29
ag47
ag70
ag18
ag39
ag48
ag27
ag44
ag62
ag58
ag24
ag35
ag52
asg71
g741
sg72
g73
sg74
g134
sg76
g369
sg77
(iread_data
Room
p1062
(dp1063
g71
g138
sg72
g139
sbsbaa(lp1064
(ischedule
Activity
p1065
(dp1066
g8
(lp1067
g498
ag499
ag215
ag220
ag502
ag504
ag18
ag307
ag509
ag511
ag513
ag516
ag421
ag500
ag214
ag210
ag202
ag508
ag207
ag503
ag25
ag223
ag216
ag58
ag422
ag205
ag505
ag514
ag448
ag411
ag497
ag227
ag206
ag512
ag155
ag35
asg71
g735
sg72
g229
sg74
g134
sg76
g135
sg77
(iread_data
Room
p1068
(dp1069
g71
g232
sg72
g233
sbsba(ischedule
Activity
p1070
(dp1071
g8
(lp1072
g977
ag90
ag285
ag259
ag264
ag91
ag637
ag260
ag110
ag982
ag86
ag85
ag978
ag256
ag381
ag916
ag263
ag539
ag775
ag64
ag261
ag257
ag29
ag87
ag203
ag979
ag980
ag501
ag40
ag258
ag89
ag796
ag92
ag523
ag981
ag262
ag131
ag67
ag88
asg71
I1000
sg72
g94
sg74
g75
sg76
I0
sg77
(iread_data
Room
p1073
(dp1074
g71
g138
sg72
g139
sbsba(ischedule
Activity
p1075
(dp1076
g8
(lp1077
g809
ag312
aS'69086548'
p1078
ag431
ag43
ag212
ag424
ag495
ag284
ag24
ag331
aS'92496780'
p1079
asg71
S'20'
p1080
sg72
S'Technology for games'
p1081
sg74
g134
sg76
g135
sg77
(iread_data
Room
p1082
(dp1083
g71
g165
sg72
g166
sbsba(ischedule
Activity
p1084
(dp1085
g8
(lp1086
g379
ag39
ag684
ag244
ag683
ag682
ag606
ag287
asg71
S'10'
p1087
sg72
g686
sg74
g95
sg76
g135
sg77
(iread_data
Room
p1088
(dp1089
g71
g99
sg72
g100
sbsba(ischedule
Activity
p1090
(dp1091
g8
(lp1092
g180
ag332
ag127
ag461
ag201
asg71
g889
sg72
g686
sg74
g134
sg76
g96
sg77
g668
sba(ischedule
Activity
p1093
(dp1094
g8
(lp1095
g603
ag914
ag538
ag288
ag946
ag26
ag156
ag330
ag328
ag308
ag257
ag807
ag52
ag334
ag612
ag767
ag109
ag948
ag944
ag112
ag286
ag12
ag945
ag943
ag947
ag128
ag950
ag808
ag27
ag949
asg71
g850
sg72
g851
sg74
g134
sg76
g96
sg77
g960
sba(ischedule
Activity
p1096
(dp1097
g8
(lp1098
g778
ag914
ag1055
ag390
aS'14637758'
p1099
ag380
aS'73350019'
p1100
ag148
ag838
ag381
ag118
ag178
ag453
ag785
ag507
ag378
ag68
aS'82854435'
p1101
ag566
ag602
ag795
aS'97838175'
p1102
ag188
ag839
ag633
ag651
aS'58480929'
p1103
ag274
ag352
ag607
ag612
ag147
ag181
ag451
ag170
ag44
aS'18477924'
p1104
aS'78822885'
p1105
ag425
ag543
ag764
ag842
ag398
ag793
ag725
ag531
ag815
ag400
ag298
asg71
I1000
sg72
S'Analysemethoden en -technieken'
p1106
sg74
g75
sg76
I0
sg77
(iread_data
Room
p1107
(dp1108
g71
g80
sg72
g81
sbsbaa(lp1109
(ischedule
Activity
p1110
(dp1111
g8
(lp1112
g487
ag316
ag180
ag621
ag726
ag55
ag725
ag721
ag23
ag727
ag293
ag722
ag424
ag728
ag729
ag723
ag63
ag32
ag724
ag400
asg71
g641
sg72
g642
sg74
g134
sg76
g96
sg77
g668
sba(ischedule
Activity
p1113
(dp1114
g8
g494
sg71
I1000
sg72
g229
sg74
g75
sg76
I0
sg77
(iread_data
Room
p1115
(dp1116
g71
g80
sg72
g81
sbsba(ischedule
Activity
p1117
(dp1118
g8
(lp1119
g701
ag22
ag704
ag238
ag332
ag14
ag333
ag242
ag245
ag379
ag447
ag703
ag406
ag190
ag239
ag607
ag605
ag240
ag243
ag244
ag949
ag189
ag987
ag910
ag702
ag237
ag241
asg71
I1000
sg72
g247
sg74
g75
sg76
I0
sg77
(iread_data
Room
p1120
(dp1121
g71
g99
sg72
g100
sbsba(ischedule
Activity
p1122
(dp1123
g8
g1072
sg71
I1000
sg72
g94
sg74
g75
sg76
I0
sg77
(iread_data
Room
p1124
(dp1125
g71
g232
sg72
g233
sbsba(ischedule
Activity
p1126
(dp1127
g8
g856
sg71
I1000
sg72
g337
sg74
g75
sg76
I0
sg77
g656
sba(ischedule
Activity
p1128
(dp1129
g8
(lp1130
g111
ag130
ag57
ag933
ag565
ag808
asg71
g436
sg72
g437
sg74
g134
sg76
g135
sg77
(iread_data
Room
p1131
(dp1132
g71
g165
sg72
g166
sbsba(ischedule
Activity
p1133
(dp1134
g8
(lp1135
g61
asg71
g161
sg72
g162
sg74
g95
sg76
g369
sg77
(iread_data
Room
p1136
(dp1137
g71
g250
sg72
g251
sbsbaaa(lp1138
(lp1139
(ischedule
Activity
p1140
(dp1141
g8
(lp1142
S'21192048'
p1143
ag495
ag425
ag331
ag365
ag284
aS'4697362'
p1144
ag514
ag809
ag131
ag60
aS'97371272'
p1145
ag180
aS'77264363'
p1146
ag378
ag221
ag20
ag43
ag379
aS'93041523'
p1147
ag263
ag424
ag311
ag992
ag538
ag1078
ag1079
ag312
ag431
ag648
ag242
aS'70336464'
p1148
aS'76487754'
p1149
ag449
ag307
ag147
ag24
ag212
asg71
I1000
sg72
g1081
sg74
g75
sg76
I0
sg77
(iread_data
Room
p1150
(dp1151
g71
g232
sg72
g233
sbsba(ischedule
Activity
p1152
(dp1153
g8
g856
sg71
I1000
sg72
g337
sg74
g75
sg76
I0
sg77
(iread_data
Room
p1154
(dp1155
g71
g138
sg72
g139
sbsba(ischedule
Activity
p1156
(dp1157
g8
(lp1158
g294
ag175
ag42
ag277
ag674
ag484
ag382
aS'63096281'
p1159
ag205
ag981
asg71
g454
sg72
g455
sg74
g95
sg76
S'6'
p1160
sg77
(iread_data
Room
p1161
(dp1162
g71
g80
sg72
g81
sbsba(ischedule
Activity
p1163
(dp1164
g8
(lp1165
g381
ag241
ag387
ag57
ag400
ag407
ag31
ag402
ag398
ag409
ag390
ag399
ag401
ag405
ag147
ag385
ag378
ag391
ag392
ag143
asg71
g971
sg72
g413
sg74
g134
sg76
g369
sg77
(iread_data
Room
p1166
(dp1167
g71
g165
sg72
g166
sbsba(ischedule
Activity
p1168
(dp1169
g8
(lp1170
S'20374340'
p1171
ag553
ag217
ag506
ag120
ag467
ag264
aS'69634191'
p1172
ag1049
ag387
ag982
aS'28055464'
p1173
ag220
ag333
ag950
ag833
ag154
ag608
aS'64768422'
p1174
ag807
ag60
ag483
ag675
ag350
ag466
asg71
I1000
sg72
S'Interactie-ontwerp'
p1175
sg74
g75
sg76
I0
sg77
(iread_data
Room
p1176
(dp1177
g71
g250
sg72
g251
sbsba(ischedule
Activity
p1178
(dp1179
g8
(lp1180
g258
ag396
ag403
ag406
ag394
ag408
ag393
ag377
ag376
ag411
ag184
ag388
ag380
ag389
ag278
ag382
ag397
ag410
ag404
ag170
ag386
asg71
g971
sg72
g413
sg74
g134
sg76
g96
sg77
(iread_data
Room
p1181
(dp1182
g71
g99
sg72
g100
sbsbaa(lp1183
(ischedule
Activity
p1184
(dp1185
g8
(lp1186
g189
ag244
ag242
ag190
ag703
ag406
ag949
ag987
ag704
ag237
ag239
ag238
asg71
g965
sg72
g247
sg74
g134
sg76
g369
sg77
(iread_data
Room
p1187
(dp1188
g71
g232
sg72
g233
sbsba(ischedule
Activity
p1189
(dp1190
g8
(lp1191
g443
ag1078
ag864
ag58
ag257
ag844
ag946
ag325
ag910
ag407
ag295
ag112
aS'39919665'
p1192
aS'38329455'
p1193
aS'79366078'
p1194
ag399
ag543
ag1036
aS'65003379'
p1195
ag38
aS'63955238'
p1196
ag1145
ag144
ag412
ag298
ag311
ag34
ag636
ag542
aS'10872825'
p1197
aS'63408522'
p1198
ag283
ag154
ag581
aS'82688900'
p1199
ag593
ag565
ag353
ag360
ag177
ag580
ag945
ag452
aS'79858178'
p1200
ag411
ag947
ag809
ag798
ag453
ag352
ag622
aS'47605891'
p1201
ag506
ag674
ag605
aS'72547110'
p1202
ag118
ag484
ag882
ag595
ag151
ag363
ag92
ag401
ag181
ag500
ag633
aS'51186803'
p1203
ag106
ag68
ag768
aS'37498675'
p1204
aS'91139627'
p1205
ag214
ag567
ag714
ag289
ag330
ag211
ag122
ag621
aS'39659121'
p1206
ag396
aS'44940353'
p1207
asg71
I1000
sg72
S'Kansrekenen 2'
p1208
sg74
g75
sg76
I0
sg77
(iread_data
Room
p1209
(dp1210
g71
g80
sg72
g81
sbsba(ischedule
Activity
p1211
(dp1212
g8
g601
sg71
I1000
sg72
g627
sg74
g75
sg76
I0
sg77
(iread_data
Room
p1213
(dp1214
g71
g99
sg72
g100
sbsba(ischedule
Activity
p1215
(dp1216
g8
(lp1217
g17
ag21
ag29
ag33
ag41
ag45
ag27
ag43
ag56
ag11
ag19
ag52
ag12
ag25
ag67
ag16
asg71
g927
sg72
g73
sg74
g95
sg76
g779
sg77
(iread_data
Room
p1218
(dp1219
g71
g138
sg72
g139
sbsba(ischedule
Activity
p1220
(dp1221
g8
(lp1222
g379
asg71
g965
sg72
g247
sg74
g134
sg76
g96
sg77
(iread_data
Room
p1223
(dp1224
g71
g165
sg72
g166
sbsba(ischedule
Activity
p1225
(dp1226
g8
(lp1227
g23
ag35
ag59
ag14
ag10
ag50
ag18
ag55
ag57
ag39
ag44
ag20
ag47
ag65
ag63
asg71
g927
sg72
g73
sg74
g95
sg76
g96
sg77
(iread_data
Room
p1228
(dp1229
g71
g250
sg72
g251
sbsba(ischedule
Activity
p1230
(dp1231
g8
(lp1232
g180
ag332
ag685
asg71
g1087
sg72
g686
sg74
g95
sg76
g96
sg77
(iread_data
Room
p1233
(dp1234
g71
g195
sg72
g196
sbsbaa(lp1235
(ischedule
Activity
p1236
(dp1237
g8
g9
sg71
I1000
sg72
g73
sg74
g75
sg76
I0
sg77
(iread_data
Room
p1238
(dp1239
g71
g80
sg72
g81
sbsba(ischedule
Activity
p1240
(dp1241
g8
g1142
sg71
I1000
sg72
g1081
sg74
g75
sg76
I0
sg77
(iread_data
Room
p1242
(dp1243
g71
g232
sg72
g233
sbsba(ischedule
Activity
p1244
(dp1245
g8
(lp1246
g127
ag681
ag613
ag201
ag211
ag476
ag461
ag400
ag602
ag150
ag638
asg71
g1087
sg72
g686
sg74
g95
sg76
g369
sg77
(iread_data
Room
p1247
(dp1248
g71
g165
sg72
g166
sbsba(ischedule
Activity
p1249
(dp1250
g8
(lp1251
g501
ag512
ag296
ag796
ag815
ag273
ag238
ag292
ag787
ag395
asg71
g336
sg72
g337
sg74
g134
sg76
g96
sg77
(iread_data
Room
p1252
(dp1253
g71
g138
sg72
g139
sbsba(ischedule
Activity
p1254
(dp1255
g8
(lp1256
g382
ag288
ag297
ag462
ag217
ag271
ag412
ag446
ag278
ag675
ag244
ag317
ag125
ag88
ag465
ag580
ag673
ag343
ag674
ag111
asg71
g596
sg72
g469
sg74
g95
sg76
g135
sg77
(iread_data
Room
p1257
(dp1258
g71
g99
sg72
g100
sbsbaa(lp1259
(ischedule
Activity
p1260
(dp1261
g8
g1119
sg71
I1000
sg72
g247
sg74
g75
sg76
I0
sg77
(iread_data
Room
p1262
(dp1263
g71
g138
sg72
g139
sbsba(ischedule
Activity
p1264
(dp1265
g8
(lp1266
g104
ag182
ag120
ag19
ag105
ag603
ag106
ag28
ag107
ag567
ag123
ag148
ag124
ag118
ag287
ag392
ag382
ag122
ag108
ag116
ag117
ag344
ag21
ag90
ag109
ag503
ag31
ag130
ag345
ag45
ag127
ag765
ag44
ag119
ag496
ag846
ag623
ag624
ag178
ag244
ag39
ag114
ag222
ag115
ag129
ag914
ag424
ag388
ag110
ag451
ag126
ag956
ag111
ag131
ag957
ag959
ag531
ag787
ag958
ag427
ag68
ag128
ag112
ag121
ag43
ag172
ag70
ag67
ag113
ag57
ag125
ag201
asg71
I1000
sg72
g133
sg74
g75
sg76
I0
sg77
(iread_data
Room
p1267
(dp1268
g71
g99
sg72
g100
sbsba(ischedule
Activity
p1269
(dp1270
g8
g1170
sg71
I1000
sg72
g1175
sg74
g75
sg76
I0
sg77
(iread_data
Room
p1271
(dp1272
g71
g232
sg72
g233
sbsba(ischedule
Activity
p1273
(dp1274
g8
g1191
sg71
I1000
sg72
g1208
sg74
g75
sg76
I0
sg77
(iread_data
Room
p1275
(dp1276
g71
g80
sg72
g81
sbsbaa(lp1277
(ischedule
Activity
p1278
(dp1279
g8
(lp1280
g309
ag316
ag312
ag24
ag313
ag310
ag105
ag574
ag315
ag243
asg71
g661
sg72
g319
sg74
g134
sg76
g96
sg77
(iread_data
Room
p1281
(dp1282
g71
g195
sg72
g196
sbsba(ischedule
Activity
p1283
(dp1284
g8
(lp1285
g476
ag343
ag153
ag61
ag808
ag59
ag23
ag797
ag431
ag183
ag539
ag390
ag327
ag400
ag795
ag328
ag607
ag391
ag545
ag809
ag806
ag595
ag766
ag807
ag242
ag189
ag805
ag511
ag211
ag798
ag793
ag796
ag794
ag353
ag593
ag682
asg71
g299
sg72
g300
sg74
g134
sg76
g96
sg77
g656
sba(ischedule
Activity
p1286
(dp1287
g8
(lp1288
g640
ag787
ag768
ag202
ag649
ag176
ag173
ag526
ag40
ag786
ag412
ag104
ag785
ag264
ag566
ag109
ag87
ag158
ag544
asg71
g757
sg72
g758
sg74
g95
sg76
g135
sg77
(iread_data
Room
p1289
(dp1290
g71
g99
sg72
g100
sbsba(ischedule
Activity
p1291
(dp1292
g8
(lp1293
g37
ag389
ag314
aS'90296821'
p1294
ag881
ag433
ag633
ag282
ag844
aS'54395877'
p1295
ag281
ag849
aS'88263855'
p1296
ag208
ag388
ag605
ag650
aS'88519892'
p1297
asg71
g454
sg72
g455
sg74
g95
sg76
g96
sg77
(iread_data
Room
p1298
(dp1299
g71
g80
sg72
g81
sbsba(ischedule
Activity
p1300
(dp1301
g8
(lp1302
g29
ag12
ag381
ag748
ag639
ag145
ag602
ag723
ag623
ag750
ag749
ag410
ag411
ag751
ag285
ag747
ag675
asg71
g654
sg72
g655
sg74
g134
sg76
g135
sg77
g960
sba(ischedule
Activity
p1303
(dp1304
g8
(lp1305
g514
ag131
ag992
ag648
ag60
ag378
ag365
ag263
ag425
ag180
ag379
ag307
ag1146
ag242
ag1143
ag538
ag147
ag1148
ag311
ag1145
ag1144
ag20
ag221
ag449
ag1149
ag1147
asg71
g1080
sg72
g1081
sg74
g134
sg76
g96
sg77
(iread_data
Room
p1306
(dp1307
g71
g232
sg72
g233
sbsba(ischedule
Activity
p1308
(dp1309
g8
(lp1310
g13
ag41
ag11
ag67
ag42
ag51
ag28
ag55
ag22
ag54
ag49
ag43
ag57
ag68
ag53
asg71
g741
sg72
g73
sg74
g134
sg76
g779
sg77
(iread_data
Room
p1311
(dp1312
g71
g165
sg72
g166
sbsbaaa(lp1313
(lp1314
a(lp1315
a(lp1316
a(lp1317
a(lp1318
aasS'timeslot_dict'
p1319
(dp1320
I0
S'9:00-11:00'
p1321
sI1
S'11:00-13:00'
p1322
sI2
S'13:00-15:00'
p1323
sI3
S'15:00-17:00'
p1324
sI4
S'17:00-19:00'
p1325
ssS'day_dict'
p1326
(dp1327
I0
S'Monday'
p1328
sI1
S'Tuesday'
p1329
sI2
S'Wednesday'
p1330
sI3
S'Thursday'
p1331
sI4
S'Friday'
p1332
ssb.