(ischedule
Schedule
p0
(dp1
S'timetable'
p2
(lp3
(lp4
(lp5
(ischedule
Activity
p6
(dp7
S'participants'
p8
(lp9
S'13798030'
p10
aS'59289233'
p11
aS'34872117'
p12
aS'20331158'
p13
aS'23798155'
p14
aS'14138904'
p15
aS'28618400'
p16
aS'72577292'
p17
aS'43460038'
p18
aS'72683344'
p19
aS'70015932'
p20
aS'29718115'
p21
aS'27925117'
p22
aS'40434933'
p23
aS'58866007'
p24
aS'89180944'
p25
aS'10149535'
p26
aS'83266686'
p27
aS'49683101'
p28
aS'45556081'
p29
aS'82689818'
p30
asS'capacity'
p31
I1000
sS'name'
p32
S'Architectuur en computerorganisatie'
p33
sS'ttype'
p34
S'lectures'
p35
sS'group_id'
p36
I0
sS'room'
p37
(iread_data
Room
p38
(dp39
g31
S'56'
p40
sg32
S'A1.10'
p41
sbsba(ischedule
Activity
p42
(dp43
g8
(lp44
S'92496780'
p45
aS'11996292'
p46
aS'23547619'
p47
aS'37110913'
p48
aS'93041523'
p49
aS'76487754'
p50
aS'12077419'
p51
aS'47982619'
p52
aS'69086548'
p53
aS'43680781'
p54
aS'75521763'
p55
aS'7106649'
p56
aS'85335143'
p57
aS'77264363'
p58
aS'12430748'
p59
aS'6249823'
p60
aS'41578612'
p61
aS'14383795'
p62
aS'68315599'
p63
aS'58565406'
p64
ag26
aS'75664412'
p65
aS'48308205'
p66
aS'14309255'
p67
aS'97371272'
p68
aS'77636749'
p69
aS'36785409'
p70
aS'21192048'
p71
aS'32204977'
p72
aS'44901052'
p73
aS'22323043'
p74
aS'4697362'
p75
aS'31194811'
p76
aS'89338938'
p77
aS'70336464'
p78
aS'9332762'
p79
ag23
aS'26406342'
p80
asg31
I1000
sg32
S'Technology for games'
p81
sg34
g35
sg36
I0
sg37
(iread_data
Room
p82
(dp83
g31
S'60'
p84
sg32
S'C1.112'
p85
sbsba(ischedule
Activity
p86
(dp87
g8
(lp88
S'97019450'
p89
aS'4783858'
p90
aS'87210640'
p91
aS'81218347'
p92
aS'66122625'
p93
aS'53775014'
p94
aS'94930277'
p95
ag48
aS'83443653'
p96
ag55
aS'42171678'
p97
aS'31897288'
p98
aS'4353500'
p99
ag15
aS'71839156'
p100
aS'59075181'
p101
aS'86807027'
p102
aS'58736785'
p103
ag13
aS'53107172'
p104
aS'36903574'
p105
aS'75997788'
p106
aS'4568018'
p107
aS'19858730'
p108
ag74
aS'76393508'
p109
aS'79879876'
p110
aS'20830477'
p111
aS'13658563'
p112
aS'57467488'
p113
aS'61060652'
p114
aS'56749879'
p115
ag73
aS'45660925'
p116
aS'22871048'
p117
ag46
aS'14941752'
p118
aS'92977271'
p119
aS'14816774'
p120
aS'98105190'
p121
aS'1696500'
p122
aS'14591033'
p123
aS'97417002'
p124
aS'48357272'
p125
asg31
I1000
sg32
S'Heuristieken 1'
p126
sg34
g35
sg36
I0
sg37
(iread_data
Room
p127
(dp128
g31
S'48'
p129
sg32
S'B0.201'
p130
sbsba(ischedule
Activity
p131
(dp132
g8
(lp133
S'75005528'
p134
aS'11068043'
p135
aS'74182182'
p136
aS'7957843'
p137
aS'32183908'
p138
aS'72895450'
p139
aS'2550487'
p140
aS'19214659'
p141
aS'34691309'
p142
aS'77831658'
p143
aS'42778953'
p144
aS'7308727'
p145
aS'60312776'
p146
aS'42406214'
p147
aS'3685034'
p148
aS'19662602'
p149
aS'90103047'
p150
asg31
S'15'
p151
sg32
S'Project Numerical Recipes'
p152
sg34
S'labs'
p153
sg36
S'2'
p154
sg37
(iread_data
Room
p155
(dp156
g31
S'20'
p157
sg32
S'A1.08'
p158
sbsba(ischedule
Activity
p159
(dp160
g8
(lp161
S'13116738'
p162
asg31
S'15'
p163
sg32
S'Informatie- en organsatieontwerp'
p164
sg34
g153
sg36
g154
sg37
(iread_data
Room
p165
(dp166
g31
S'22'
p167
sg32
S'A1.06'
p168
sbsba(ischedule
Activity
p169
(dp170
g8
(lp171
S'39459642'
p172
aS'41585485'
p173
aS'96054456'
p174
aS'47477884'
p175
aS'51593625'
p176
aS'15902055'
p177
aS'62701040'
p178
aS'80135353'
p179
aS'85284256'
p180
ag115
aS'73196865'
p181
aS'94467156'
p182
aS'63096281'
p183
aS'6913074'
p184
aS'10698627'
p185
aS'27582862'
p186
aS'34262212'
p187
aS'54395877'
p188
aS'92778619'
p189
aS'99272880'
p190
aS'73893840'
p191
aS'64393888'
p192
aS'51791169'
p193
asg31
S'20'
p194
sg32
S'Programmeren in Java 2'
p195
sg34
g153
sg36
S'1'
p196
sg37
(iread_data
Room
p197
(dp198
g31
S'41'
p199
sg32
S'A1.04'
p200
sbsba(ischedule
Activity
p201
(dp202
g8
(lp203
S'70072978'
p204
aS'99283252'
p205
aS'18144425'
p206
aS'27916487'
p207
aS'29526540'
p208
aS'13911001'
p209
aS'5517869'
p210
aS'41489515'
p211
aS'58592894'
p212
aS'64600457'
p213
aS'83415514'
p214
aS'77376714'
p215
aS'27241113'
p216
aS'78243495'
p217
aS'11741347'
p218
aS'51650744'
p219
aS'4709948'
p220
aS'49219163'
p221
aS'13218321'
p222
aS'36748818'
p223
aS'36527838'
p224
aS'58332004'
p225
aS'3883025'
p226
asg31
S'20'
p227
sg32
S'Moderne Databases'
p228
sg34
S'tutorials'
p229
sg36
g196
sg37
(iread_data
Room
p230
(dp231
g31
S'117'
p232
sg32
S'C0.110'
p233
sbsbaa(lp234
(ischedule
Activity
p235
(dp236
g8
(lp237
g92
aS'16333449'
p238
ag26
aS'54074680'
p239
aS'68409833'
p240
aS'94955328'
p241
aS'87758823'
p242
aS'31416266'
p243
aS'16011419'
p244
aS'52311353'
p245
aS'42196732'
p246
aS'32595335'
p247
aS'80709893'
p248
aS'91196968'
p249
aS'77896638'
p250
aS'83210352'
p251
aS'96118484'
p252
aS'90743504'
p253
aS'79617364'
p254
aS'79937969'
p255
aS'81385263'
p256
aS'35330349'
p257
ag144
aS'670011'
p258
aS'56872729'
p259
aS'66570705'
p260
ag24
ag134
aS'23565001'
p261
aS'62872965'
p262
aS'38499176'
p263
aS'93566383'
p264
ag123
ag136
ag61
aS'55412918'
p265
ag224
aS'94686490'
p266
aS'80998260'
p267
aS'37399898'
p268
aS'55474917'
p269
aS'21311067'
p270
ag66
aS'3474870'
p271
ag210
ag114
aS'42115591'
p272
aS'34588570'
p273
aS'34243356'
p274
aS'36508571'
p275
ag100
aS'16097870'
p276
aS'26172512'
p277
aS'4921119'
p278
asg31
I1000
sg32
S'Lineaire Algebra'
p279
sg34
g35
sg36
I0
sg37
(iread_data
Room
p280
(dp281
g31
g40
sg32
g41
sbsba(ischedule
Activity
p282
(dp283
g8
(lp284
g74
aS'50143947'
p285
aS'59753700'
p286
ag162
aS'87900893'
p287
aS'13996448'
p288
aS'51566595'
p289
asg31
S'10'
p290
sg32
S'Data Mining'
p291
sg34
g229
sg36
g196
sg37
(iread_data
Room
p292
(dp293
g31
g157
sg32
g158
sbsba(ischedule
Activity
p294
(dp295
g8
(lp296
g60
ag69
ag73
ag77
ag79
ag80
ag47
ag23
ag63
ag55
ag65
ag56
ag45
ag58
ag72
ag57
ag53
ag75
ag50
ag71
ag67
ag64
ag78
ag68
asg31
S'20'
p297
sg32
g81
sg34
g229
sg36
g154
sg37
(iread_data
Room
p298
(dp299
g31
g232
sg32
g233
sbsba(ischedule
Activity
p300
(dp301
g8
(lp302
S'84524083'
p303
aS'81022997'
p304
aS'43027916'
p305
aS'5739011'
p306
aS'22731474'
p307
aS'35315956'
p308
aS'34765676'
p309
aS'87602030'
p310
aS'58040377'
p311
ag217
asg31
S'20'
p312
sg32
S'Heuristieken 2'
p313
sg34
g229
sg36
g154
sg37
g82
sba(ischedule
Activity
p314
(dp315
g8
(lp316
g17
ag106
aS'62613937'
p317
aS'60352393'
p318
aS'72665524'
p319
aS'39429093'
p320
ag16
ag19
aS'20883994'
p321
ag102
aS'92665222'
p322
aS'27064249'
p323
aS'1886996'
p324
aS'70844780'
p325
aS'3168419'
p326
asg31
S'10'
p327
sg32
S'Advanced Heuristics'
p328
sg34
g153
sg36
g196
sg37
g127
sba(ischedule
Activity
p329
(dp330
g8
(lp331
S'86180471'
p332
ag182
aS'46701583'
p333
aS'78821918'
p334
aS'27950803'
p335
aS'76924297'
p336
aS'55480737'
p337
aS'5526560'
p338
ag22
aS'87830198'
p339
aS'51673172'
p340
aS'25106480'
p341
aS'48678993'
p342
aS'37770881'
p343
aS'88737765'
p344
aS'34773179'
p345
aS'76661016'
p346
aS'24613625'
p347
ag205
aS'14179347'
p348
aS'74361881'
p349
aS'41644639'
p350
aS'82066165'
p351
aS'66701209'
p352
aS'25994016'
p353
aS'69459473'
p354
asg31
S'15'
p355
sg32
S'Project Genetic Algorithms'
p356
sg34
g153
sg36
S'3'
p357
sg37
(iread_data
Room
p358
(dp359
g31
g199
sg32
g200
sbsba(ischedule
Activity
p360
(dp361
g8
(lp362
S'88519892'
p363
aS'86988337'
p364
aS'21964491'
p365
aS'33776961'
p366
ag89
aS'37744525'
p367
aS'2317551'
p368
aS'70113753'
p369
aS'58469172'
p370
aS'61443567'
p371
aS'41153310'
p372
aS'94687383'
p373
ag110
aS'86000192'
p374
aS'63111000'
p375
ag225
aS'6723948'
p376
asg31
g194
sg32
g195
sg34
g153
sg36
S'6'
p377
sg37
(iread_data
Room
p378
(dp379
g31
g167
sg32
g168
sbsbaa(lp380
(ischedule
Activity
p381
(dp382
g8
(lp383
S'1075391'
p384
ag246
aS'13534377'
p385
ag30
aS'76123484'
p386
ag345
aS'51741554'
p387
ag365
ag285
aS'46052388'
p388
aS'96104167'
p389
ag178
aS'57595888'
p390
ag122
aS'77240949'
p391
asg31
S'20'
p392
sg32
S'Collectieve Intelligentie'
p393
sg34
g229
sg36
g357
sg37
(iread_data
Room
p394
(dp395
g31
g157
sg32
g158
sbsba(ischedule
Activity
p396
(dp397
g8
(lp398
g90
aS'28357474'
p399
ag117
aS'62356458'
p400
ag217
aS'31247305'
p401
ag372
aS'11915563'
p402
ag272
ag341
aS'3233378'
p403
aS'89985072'
p404
aS'62105897'
p405
aS'31103066'
p406
aS'44868097'
p407
aS'52715680'
p408
ag18
ag367
aS'26260141'
p409
ag146
aS'54026378'
p410
aS'29640619'
p411
aS'33877725'
p412
ag205
aS'44671041'
p413
ag125
aS'73236988'
p414
ag135
aS'21095566'
p415
ag107
aS'48601268'
p416
aS'14072826'
p417
aS'82872148'
p418
aS'13718298'
p419
aS'58074656'
p420
aS'65318664'
p421
aS'45915482'
p422
aS'75599734'
p423
aS'37830626'
p424
asg31
S'40'
p425
sg32
S'Software engineering'
p426
sg34
g229
sg36
g196
sg37
(iread_data
Room
p427
(dp428
g31
g232
sg32
g233
sbsba(ischedule
Activity
p429
(dp430
g8
(lp431
g311
aS'17823206'
p432
ag268
ag249
aS'22826928'
p433
ag250
aS'8464817'
p434
aS'88263855'
p435
aS'37279234'
p436
aS'53585410'
p437
aS'45414528'
p438
aS'90296821'
p439
ag241
aS'3678531'
p440
aS'85236626'
p441
ag288
aS'2416751'
p442
aS'34900967'
p443
asg31
g194
sg32
g195
sg34
g153
sg36
g357
sg37
(iread_data
Room
p444
(dp445
g31
g129
sg32
g130
sbsba(ischedule
Activity
p446
(dp447
g8
(lp448
S'18266644'
p449
aS'26207525'
p450
aS'8522855'
p451
aS'86291592'
p452
aS'59887191'
p453
aS'62736669'
p454
aS'535689'
p455
aS'64246605'
p456
asg31
S'20'
p457
sg32
S'Netwerken en systeembeveiliging'
p458
sg34
g153
sg36
g357
sg37
(iread_data
Room
p459
(dp460
g31
g167
sg32
g168
sbsba(ischedule
Activity
p461
(dp462
g8
g44
sg31
I1000
sg32
g81
sg34
g35
sg36
I0
sg37
(iread_data
Room
p463
(dp464
g31
g84
sg32
g85
sbsba(ischedule
Activity
p465
(dp466
g8
(lp467
S'84110134'
p468
asg31
g151
sg32
g152
sg34
g153
sg36
g357
sg37
(iread_data
Room
p469
(dp470
g31
g199
sg32
g200
sbsbaa(lp471
(ischedule
Activity
p472
(dp473
g8
(lp474
S'38296757'
p475
ag213
ag266
ag323
aS'23628642'
p476
aS'75446434'
p477
aS'5615125'
p478
aS'9731271'
p479
aS'10609762'
p480
ag409
ag177
aS'78735049'
p481
ag405
ag254
aS'78443067'
p482
aS'75623387'
p483
ag90
ag440
aS'80188025'
p484
aS'62363761'
p485
ag214
aS'58253841'
p486
aS'61520025'
p487
ag102
aS'82412626'
p488
aS'28957789'
p489
aS'27187154'
p490
aS'70939718'
p491
ag332
ag287
ag310
aS'73302736'
p492
aS'40141996'
p493
aS'38179241'
p494
ag387
aS'75585647'
p495
aS'79167252'
p496
ag123
aS'34173695'
p497
ag184
ag370
ag265
ag259
ag106
ag136
aS'81155296'
p498
aS'4546613'
p499
aS'6709529'
p500
aS'65978354'
p501
aS'56544130'
p502
aS'77306636'
p503
aS'10792879'
p504
aS'19717077'
p505
aS'88855695'
p506
ag276
aS'11593163'
p507
ag26
aS'23658570'
p508
ag376
aS'78544592'
p509
ag22
aS'58699305'
p510
aS'63634350'
p511
ag212
ag319
ag125
ag261
ag27
aS'72526473'
p512
aS'21029457'
p513
aS'33760909'
p514
aS'22168693'
p515
ag120
aS'46570285'
p516
aS'33672995'
p517
ag333
ag407
aS'79888156'
p518
aS'24875739'
p519
ag374
ag422
aS'73823548'
p520
aS'65408517'
p521
aS'12091019'
p522
aS'55530367'
p523
aS'97135019'
p524
aS'93361408'
p525
aS'6939933'
p526
ag175
ag437
aS'53139134'
p527
aS'14303208'
p528
aS'59220392'
p529
aS'47932106'
p530
aS'56348773'
p531
ag174
aS'31306819'
p532
ag348
aS'64228258'
p533
ag436
ag346
ag57
aS'32705005'
p534
ag311
aS'27298319'
p535
aS'88752563'
p536
asg31
I1000
sg32
S'Calculus 2'
p537
sg34
g35
sg36
I0
sg37
(iread_data
Room
p538
(dp539
g31
g232
sg32
g233
sbsba(ischedule
Activity
p540
(dp541
g8
(lp542
g250
ag97
aS'22699561'
p543
ag341
ag47
aS'24277163'
p544
ag416
aS'54310617'
p545
aS'17222374'
p546
ag403
aS'17575088'
p547
aS'65960683'
p548
aS'29474737'
p549
aS'64296965'
p550
ag343
asg31
g392
sg32
g393
sg34
g229
sg36
g196
sg37
(iread_data
Room
p551
(dp552
g31
g157
sg32
g158
sbsba(ischedule
Activity
p553
(dp554
g8
(lp555
g64
ag182
aS'52552718'
p556
ag186
aS'95631564'
p557
ag74
aS'41527759'
p558
ag499
ag482
aS'3727435'
p559
ag67
aS'1048485'
p560
ag468
ag251
ag176
ag269
ag492
aS'88176729'
p561
aS'9287708'
p562
ag77
ag521
ag248
ag245
ag114
ag215
aS'40343779'
p563
ag25
aS'5976174'
p564
aS'59544049'
p565
aS'96554914'
p566
ag285
ag20
ag240
aS'31633723'
p567
ag335
aS'14671406'
p568
asg31
g425
sg32
g426
sg34
g229
sg36
g154
sg37
(iread_data
Room
p569
(dp570
g31
g129
sg32
g130
sbsba(ischedule
Activity
p571
(dp572
g8
(lp573
g162
aS'23257088'
p574
ag72
ag449
ag55
ag21
aS'23983476'
p575
ag178
ag119
ag63
aS'17496687'
p576
aS'8557857'
p577
ag223
aS'11459236'
p578
aS'70878567'
p579
aS'19958553'
p580
ag112
ag225
ag69
ag495
ag73
asg31
I1000
sg32
g164
sg34
g35
sg36
I0
sg37
(iread_data
Room
p581
(dp582
g31
g199
sg32
g200
sbsbaa(lp583
(ischedule
Activity
p584
(dp585
g8
(lp586
S'28055464'
p587
aS'20374340'
p588
aS'21677389'
p589
ag141
ag346
aS'69634191'
p590
ag498
ag256
aS'3707829'
p591
aS'14847953'
p592
ag336
aS'64768422'
p593
aS'81200278'
p594
ag268
aS'65675896'
p595
ag140
ag499
aS'44828429'
p596
aS'66034145'
p597
ag47
ag494
ag264
ag309
aS'5368702'
p598
aS'37701751'
p599
asg31
I1000
sg32
S'Interactie-ontwerp'
p600
sg34
g35
sg36
I0
sg37
(iread_data
Room
p601
(dp602
g31
g40
sg32
g41
sbsba(ischedule
Activity
p603
(dp604
g8
(lp605
g495
ag112
ag577
ag73
ag69
ag574
ag576
ag119
ag575
ag21
ag580
asg31
S'15'
p606
sg32
g164
sg34
g229
sg36
g154
sg37
(iread_data
Room
p607
(dp608
g31
g84
sg32
g85
sbsba(ischedule
Activity
p609
(dp610
g8
(lp611
g345
ag80
ag374
ag122
ag452
ag243
aS'73980360'
p612
ag257
ag192
ag550
ag104
ag242
ag390
ag411
aS'13092455'
p613
ag403
ag250
ag210
ag388
ag389
ag548
ag365
ag384
ag177
ag416
aS'58522654'
p614
ag285
ag79
ag97
ag514
ag343
ag29
ag387
ag17
ag547
ag544
ag543
aS'50184318'
p615
ag246
ag145
ag341
aS'68601184'
p616
ag385
ag305
ag524
ag146
ag30
ag533
ag549
aS'1665980'
p617
ag546
ag391
ag178
ag545
ag386
ag399
ag90
ag47
ag371
ag55
ag144
asg31
I1000
sg32
g393
sg34
g35
sg36
I0
sg37
(iread_data
Room
p618
(dp619
g31
g232
sg32
g233
sbsba(ischedule
Activity
p620
(dp621
g8
(lp622
S'78136904'
p623
ag220
aS'84449005'
p624
aS'27370083'
p625
ag566
aS'49922855'
p626
ag419
asg31
S'20'
p627
sg32
S'Reflectie op de digitale cultuur'
p628
sg34
g229
sg36
g357
sg37
(iread_data
Room
p629
(dp630
g31
g199
sg32
g200
sbsba(ischedule
Activity
p631
(dp632
g8
(lp633
g51
ag61
ag26
ag66
ag74
ag62
ag46
ag48
ag49
ag76
ag70
ag52
ag54
ag59
asg31
g297
sg32
g81
sg34
g229
sg36
g196
sg37
(iread_data
Room
p634
(dp635
g31
g157
sg32
g158
sbsba(ischedule
Activity
p636
(dp637
g8
(lp638
g14
ag391
aS'61518436'
p639
aS'67625383'
p640
aS'90067329'
p641
ag375
ag564
aS'2079771'
p642
aS'33252501'
p643
aS'56988998'
p644
aS'15051051'
p645
ag333
ag367
ag182
aS'40791377'
p646
ag490
ag148
ag172
ag441
ag475
ag28
aS'26857113'
p647
asg31
I1000
sg32
S'Machine Learning'
p648
sg34
g35
sg36
I0
sg37
(iread_data
Room
p649
(dp650
g31
g167
sg32
g168
sbsba(ischedule
Activity
p651
(dp652
g8
(lp653
S'15249775'
p654
ag514
ag310
ag311
ag594
ag289
ag305
ag258
ag304
ag342
ag56
aS'52304977'
p655
ag324
ag307
ag22
ag511
ag303
ag103
aS'99975346'
p656
ag309
ag306
ag371
ag564
aS'72652638'
p657
aS'57086672'
p658
ag308
ag98
aS'83869542'
p659
ag276
aS'82968410'
p660
ag217
ag441
asg31
I1000
sg32
g313
sg34
g35
sg36
I0
sg37
g127
sbaaa(lp661
(lp662
(ischedule
Activity
p663
(dp664
g8
(lp665
g48
ag287
asg31
S'10'
p666
sg32
g291
sg34
g153
sg36
g357
sg37
(iread_data
Room
p667
(dp668
g31
g129
sg32
g130
sbsba(ischedule
Activity
p669
(dp670
g8
(lp671
g215
ag289
ag568
ag105
ag365
aS'64947290'
p672
ag563
aS'66433883'
p673
ag256
ag558
aS'64554442'
p674
ag285
ag617
ag575
aS'91527663'
p675
ag51
aS'43902015'
p676
ag451
ag409
aS'23652927'
p677
ag271
ag364
ag564
ag30
aS'51509565'
p678
ag408
ag333
ag139
ag596
aS'67817269'
p679
ag535
ag591
ag437
ag113
aS'96453361'
p680
ag309
ag415
aS'88596522'
p681
ag623
aS'19540225'
p682
ag173
asg31
S'25'
p683
sg32
S'Algoritmen en complexiteit'
p684
sg34
g153
sg36
g154
sg37
(iread_data
Room
p685
(dp686
g31
g40
sg32
g41
sbsba(ischedule
Activity
p687
(dp688
g8
(lp689
g17
ag217
ag354
aS'28358060'
p690
ag658
ag442
ag23
ag478
ag597
aS'53512831'
p691
ag412
ag18
aS'1137946'
p692
ag185
aS'24891081'
p693
ag60
aS'49908313'
p694
aS'22288615'
p695
ag528
ag25
ag139
asg31
S'20'
p696
sg32
S'Webprogrammeren en databases'
p697
sg34
g229
sg36
g196
sg37
(iread_data
Room
p698
(dp699
g31
g232
sg32
g233
sbsba(ischedule
Activity
p700
(dp701
g8
(lp702
g414
ag120
ag307
ag107
ag213
aS'247918'
p703
aS'74131924'
p704
aS'30050930'
p705
ag184
ag513
ag579
ag565
ag376
ag645
ag614
aS'53202517'
p706
ag57
ag145
ag433
aS'5298748'
p707
aS'33930505'
p708
ag404
asg31
S'20'
p709
sg32
S'Bioinformatica'
p710
sg34
g153
sg36
g357
sg37
(iread_data
Room
p711
(dp712
g31
g167
sg32
g168
sbsba(ischedule
Activity
p713
(dp714
g8
(lp715
S'88627897'
p716
asg31
S'10'
p717
sg32
S'Autonomous Agents 2'
p718
sg34
g229
sg36
g154
sg37
(iread_data
Room
p719
(dp720
g31
g157
sg32
g158
sbsba(ischedule
Activity
p721
(dp722
g8
(lp723
g676
aS'67073567'
p724
aS'17092717'
p725
ag95
aS'39230359'
p726
ag271
aS'20618153'
p727
ag323
ag533
ag386
aS'76903244'
p728
aS'77392404'
p729
ag371
ag238
aS'76648468'
p730
ag592
ag706
aS'41790793'
p731
asg31
g696
sg32
g697
sg34
g229
sg36
g154
sg37
(iread_data
Room
p732
(dp733
g31
g199
sg32
g200
sbsba(ischedule
Activity
p734
(dp735
g8
(lp736
g613
ag536
ag102
ag118
aS'63939720'
p737
ag307
ag526
ag66
aS'81116418'
p738
aS'37419523'
p739
ag59
ag288
aS'1766560'
p740
ag400
ag452
ag304
aS'32044893'
p741
ag16
aS'13284244'
p742
aS'40911986'
p743
ag77
ag414
aS'48503689'
p744
aS'63573738'
p745
aS'21070547'
p746
ag520
asg31
g151
sg32
g152
sg34
g153
sg36
g196
sg37
(iread_data
Room
p747
(dp748
g31
g84
sg32
g85
sbsbaa(lp749
(ischedule
Activity
p750
(dp751
g8
(lp752
g409
ag367
ag245
ag64
ag90
ag182
ag424
ag285
ag492
ag556
ag240
ag186
ag114
ag557
ag107
ag568
ag125
ag413
ag418
ag74
ag399
ag417
ag117
ag416
ag20
ag562
ag400
ag558
ag422
ag499
ag217
ag482
ag420
ag408
ag401
ag419
ag372
ag414
ag402
ag559
ag269
ag18
ag272
ag135
ag561
ag67
ag341
ag560
ag563
ag410
ag415
ag566
ag215
ag423
ag25
ag335
ag176
ag421
ag403
ag468
ag404
ag412
ag77
ag564
ag565
ag407
ag405
ag146
ag406
ag567
ag521
ag411
ag205
ag251
ag248
asg31
I1000
sg32
g426
sg34
g35
sg36
I0
sg37
(iread_data
Room
p753
(dp754
g31
g232
sg32
g233
sbsba(ischedule
Activity
p755
(dp756
g8
(lp757
g594
ag324
ag22
ag564
ag276
ag371
ag342
ag98
ag258
ag660
ag511
ag441
ag289
ag103
ag657
ag655
ag56
ag659
ag654
ag514
ag656
ag658
asg31
g312
sg32
g313
sg34
g229
sg36
g196
sg37
(iread_data
Room
p758
(dp759
g31
g129
sg32
g130
sbsba(ischedule
Activity
p760
(dp761
g8
(lp762
g139
ag12
ag121
ag376
aS'46989508'
p763
ag27
ag66
ag364
ag144
ag250
ag179
aS'54772132'
p764
ag614
ag496
aS'43689934'
p765
aS'76802764'
p766
aS'9067939'
p767
ag434
aS'44391517'
p768
aS'95007221'
p769
ag506
ag209
ag28
ag646
ag642
ag742
ag51
ag504
ag557
ag744
aS'15911353'
p770
ag740
ag706
ag346
ag63
ag172
ag322
aS'30658799'
p771
ag490
ag303
ag548
aS'79033175'
p772
ag536
ag598
aS'3407554'
p773
aS'72796858'
p774
ag368
ag274
aS'34110913'
p775
aS'75759231'
p776
aS'5595824'
p777
ag352
ag137
ag414
aS'88636924'
p778
asg31
S'40'
p779
sg32
S'Compilerbouw'
p780
sg34
g153
sg36
g154
sg37
(iread_data
Room
p781
(dp782
g31
g84
sg32
g85
sbsba(ischedule
Activity
p783
(dp784
g8
(lp785
g535
ag48
asg31
S'10'
p786
sg32
g718
sg34
g153
sg36
g154
sg37
(iread_data
Room
p787
(dp788
g31
g157
sg32
g158
sbsba(ischedule
Activity
p789
(dp790
g8
(lp791
g177
ag212
asg31
g683
sg32
g684
sg34
g153
sg36
g196
sg37
(iread_data
Room
p792
(dp793
g31
g167
sg32
g168
sbsba(ischedule
Activity
p794
(dp795
g8
(lp796
S'53267490'
p797
ag325
aS'19058315'
p798
ag524
ag256
ag387
ag367
ag729
aS'97136582'
p799
ag318
ag145
ag339
ag122
ag479
ag113
aS'72456780'
p800
ag220
ag73
aS'56121590'
p801
ag105
aS'14398123'
p802
asg31
g457
sg32
g458
sg34
g153
sg36
S'4'
p803
sg37
(iread_data
Room
p804
(dp805
g31
g40
sg32
g41
sbsbaa(lp806
(ischedule
Activity
p807
(dp808
g8
(lp809
g800
ag613
ag172
ag23
ag258
ag364
ag544
ag508
ag278
ag115
ag334
ag12
ag225
ag305
ag289
ag763
aS'5085194'
p810
ag208
ag550
ag46
ag80
ag536
aS'49631542'
p811
ag599
ag676
aS'13132925'
p812
aS'90474003'
p813
aS'25077484'
p814
aS'54540997'
p815
aS'15187217'
p816
ag259
ag546
ag703
ag175
ag210
ag204
ag774
ag338
ag520
ag134
ag332
ag212
ag120
asg31
S'40'
p817
sg32
S'Databases 2'
p818
sg34
g229
sg36
g154
sg37
(iread_data
Room
p819
(dp820
g31
g232
sg32
g233
sbsba(ischedule
Activity
p821
(dp822
g8
(lp823
g64
ag182
ag285
ag186
ag417
ag558
ag559
ag18
ag135
ag410
ag335
ag468
ag412
ag407
ag146
ag411
ag77
ag90
ag565
ag419
ag114
ag567
ag424
ag20
ag269
ag405
ag482
ag125
ag401
ag418
ag561
ag248
ag404
ag415
ag420
ag240
ag217
ag564
asg31
S'40'
p824
sg32
g426
sg34
g153
sg36
g154
sg37
(iread_data
Room
p825
(dp826
g31
g129
sg32
g130
sbsba(ischedule
Activity
p827
(dp828
g8
(lp829
g623
ag215
ag575
ag680
ag408
ag563
ag365
ag139
ag673
ag617
ag568
ag682
ag451
ag677
asg31
S'25'
p830
sg32
g684
sg34
g229
sg36
g154
sg37
(iread_data
Room
p831
(dp832
g31
g157
sg32
g158
sbsbaa(lp833
(ischedule
Activity
p834
(dp835
g8
(lp836
g90
ag55
ag104
ag106
ag113
ag115
ag123
ag110
ag107
ag117
ag120
ag89
ag96
ag121
ag105
ag93
ag116
ag97
ag100
ag102
ag111
ag122
ag98
ag74
ag13
ag94
ag109
ag108
ag48
ag125
ag118
ag92
ag114
ag73
ag103
asg31
S'25'
p837
sg32
g126
sg34
g229
sg36
g154
sg37
(iread_data
Room
p838
(dp839
g31
g40
sg32
g41
sbsba(ischedule
Activity
p840
(dp841
g8
(lp842
g17
ag731
ag729
ag658
ag728
ag185
ag95
ag676
ag323
ag597
ag693
ag23
ag528
ag690
ag692
ag354
ag695
ag371
ag139
ag478
ag725
ag442
ag730
ag533
ag727
ag706
ag386
ag412
ag694
ag691
ag238
ag25
ag60
ag724
ag726
ag592
ag271
ag18
ag217
asg31
I1000
sg32
g697
sg34
g35
sg36
I0
sg37
(iread_data
Room
p843
(dp844
g31
g199
sg32
g200
sbsba(ischedule
Activity
p845
(dp846
g8
(lp847
g80
ag550
ag210
ag365
ag614
ag17
ag146
ag617
ag47
ag246
ag30
ag192
ag411
ag548
ag343
ag524
ag341
ag547
asg31
S'20'
p848
sg32
g393
sg34
g153
sg36
g154
sg37
(iread_data
Room
p849
(dp850
g31
g157
sg32
g158
sbsba(ischedule
Activity
p851
(dp852
g8
(lp853
g263
aS'23391676'
p854
ag278
ag79
ag673
ag616
ag496
ag508
aS'7492204'
p855
ag452
ag574
asg31
g194
sg32
g195
sg34
g153
sg36
S'5'
p856
sg37
(iread_data
Room
p857
(dp858
g31
g84
sg32
g85
sbsba(ischedule
Activity
p859
(dp860
g8
(lp861
g135
ag285
aS'55103073'
p862
ag353
aS'91250534'
p863
aS'23215240'
p864
ag455
ag511
ag810
ag190
ag390
ag62
ag437
asg31
S'15'
p865
sg32
S'Compilerbouw practicum'
p866
sg34
g153
sg36
g357
sg37
(iread_data
Room
p867
(dp868
g31
g129
sg32
g130
sbsba(ischedule
Activity
p869
(dp870
g8
(lp871
g414
ag57
ag307
ag579
ag594
aS'30195935'
p872
ag561
ag254
ag707
ag174
ag680
aS'66120270'
p873
ag704
asg31
S'20'
p874
sg32
g710
sg34
g229
sg36
g357
sg37
(iread_data
Room
p875
(dp876
g31
g232
sg32
g233
sbsba(ischedule
Activity
p877
(dp878
g8
(lp879
g226
ag401
ag563
aS'123355'
p880
ag342
aS'16912993'
p881
ag418
ag274
ag708
ag137
ag180
ag99
ag65
aS'72586808'
p882
ag589
asg31
g457
sg32
g458
sg34
g153
sg36
g154
sg37
(iread_data
Room
p883
(dp884
g31
g167
sg32
g168
sbsbaa(lp885
(ischedule
Activity
p886
(dp887
g8
(lp888
g568
ag321
ag567
ag225
ag490
ag274
aS'37498675'
p889
ag565
ag370
ag92
ag504
aS'82688900'
p890
ag519
ag644
ag187
ag13
ag623
ag173
ag174
ag516
ag855
ag53
ag481
aS'63955238'
p891
ag89
aS'65003379'
p892
ag303
aS'63408522'
p893
ag402
ag336
aS'47605891'
p894
ag401
aS'39919665'
p895
ag241
ag148
aS'47462856'
p896
ag639
aS'79858178'
p897
ag558
ag432
ag534
ag69
ag449
ag190
ag451
ag77
aS'20239127'
p898
aS'38329455'
p899
aS'91139627'
p900
ag598
aS'10872825'
p901
ag726
ag550
aS'79366078'
p902
ag263
aS'44940353'
p903
ag854
ag115
ag105
ag479
ag14
ag545
ag68
ag391
ag614
aS'39659121'
p904
aS'51186803'
p905
ag249
ag478
ag489
ag136
ag811
ag802
ag468
ag182
aS'72547110'
p906
aS'51542218'
p907
ag101
aS'54569540'
p908
ag511
ag269
ag272
ag307
ag123
asg31
I1000
sg32
S'Kansrekenen 2'
p909
sg34
g35
sg36
I0
sg37
(iread_data
Room
p910
(dp911
g31
g232
sg32
g233
sbsba(ischedule
Activity
p912
(dp913
g8
g842
sg31
I1000
sg32
g697
sg34
g35
sg36
I0
sg37
(iread_data
Room
p914
(dp915
g31
g199
sg32
g200
sbsba(ischedule
Activity
p916
(dp917
g8
(lp918
g210
ag375
ag615
aS'96082155'
p919
ag226
ag222
ag213
aS'66621166'
p920
ag740
ag225
ag27
ag214
ag57
aS'1181560'
p921
ag46
ag67
ag510
ag25
ag204
ag218
ag215
ag896
ag97
ag63
ag811
ag207
ag211
ag205
ag334
aS'59111489'
p922
ag54
ag366
ag206
ag544
ag209
ag771
ag509
ag224
ag212
ag208
ag221
ag546
ag516
ag106
aS'48198668'
p923
ag219
ag55
ag482
ag216
ag223
ag217
ag645
ag220
ag624
asg31
I1000
sg32
g228
sg34
g35
sg36
I0
sg37
(iread_data
Room
p924
(dp925
g31
g40
sg32
g41
sbsba(ischedule
Activity
p926
(dp927
g8
g611
sg31
I1000
sg32
g393
sg34
g35
sg36
I0
sg37
g82
sba(ischedule
Activity
p928
(dp929
g8
(lp930
g70
ag148
ag656
ag325
aS'99453514'
p931
aS'51052738'
p932
ag908
ag48
ag189
ag335
ag364
ag147
aS'20095994'
p933
ag268
ag318
ag286
ag184
ag117
asg31
g627
sg32
g628
sg34
g229
sg36
g154
sg37
(iread_data
Room
p934
(dp935
g31
g157
sg32
g158
sbsba(ischedule
Activity
p936
(dp937
g8
(lp938
g303
ag475
aS'68286356'
p939
ag613
ag339
ag61
aS'36213792'
p940
ag112
aS'77960666'
p941
ag898
aS'70193386'
p942
ag658
aS'60661905'
p943
aS'27805666'
p944
ag366
ag54
ag707
ag433
ag408
ag639
aS'51415617'
p945
ag813
ag729
ag544
aS'82390428'
p946
ag741
asg31
g627
sg32
g628
sg34
g229
sg36
g196
sg37
(iread_data
Room
p947
(dp948
g31
g129
sg32
g130
sbsbaaa(lp949
(lp950
(ischedule
Activity
p951
(dp952
g8
(lp953
g411
ag16
ag764
ag872
aS'25330192'
p954
ag485
aS'25557516'
p955
ag101
ag304
ag560
ag30
ag491
aS'56191333'
p956
aS'12170832'
p957
ag263
aS'5590289'
p958
ag745
ag873
ag319
ag594
asg31
g457
sg32
g458
sg34
g153
sg36
g196
sg37
(iread_data
Room
p959
(dp960
g31
g199
sg32
g200
sbsba(ischedule
Activity
p961
(dp962
g8
(lp963
g704
ag73
ag210
aS'34806836'
p964
ag410
ag556
ag172
ag400
aS'61611295'
p965
ag774
ag535
ag402
ag240
asg31
g717
sg32
g718
sg34
g229
sg36
g357
sg37
(iread_data
Room
p966
(dp967
g31
g167
sg32
g168
sbsba(ischedule
Activity
p968
(dp969
g8
(lp970
g345
ag452
ag390
ag250
ag97
ag145
ag612
ag543
ag386
ag305
ag546
ag391
ag385
ag615
ag285
ag243
ag388
asg31
g848
sg32
g393
sg34
g153
sg36
g196
sg37
(iread_data
Room
p971
(dp972
g31
g84
sg32
g85
sbsba(ischedule
Activity
p973
(dp974
g8
(lp975
g477
ag287
ag493
ag495
ag265
ag26
ag517
ag437
ag529
ag174
ag533
ag482
ag214
ag502
ag499
ag512
ag496
ag483
ag323
ag528
ag346
ag532
ag212
ag519
ag484
ag332
ag213
ag405
asg31
S'40'
p976
sg32
g537
sg34
g229
sg36
g357
sg37
(iread_data
Room
p977
(dp978
g31
g40
sg32
g41
sbsba(ischedule
Activity
p979
(dp980
g8
(lp981
g303
ag268
ag112
ag419
ag707
ag48
ag813
ag70
ag318
ag475
ag944
ag942
ag335
ag626
ag941
ag939
ag148
ag639
ag117
ag656
ag933
ag613
ag433
ag624
ag408
ag184
ag623
ag544
ag946
ag898
ag189
ag364
ag945
ag339
ag940
ag366
ag741
ag566
ag932
ag286
ag325
ag147
ag61
ag931
ag658
ag625
ag54
ag943
ag729
ag220
ag908
asg31
I1000
sg32
g628
sg34
g35
sg36
I0
sg37
(iread_data
Room
p982
(dp983
g31
g232
sg32
g233
sbsba(ischedule
Activity
p984
(dp985
g8
(lp986
g72
ag55
ag579
ag225
ag63
ag178
ag162
ag449
ag578
ag223
asg31
g606
sg32
g164
sg34
g229
sg36
g196
sg37
(iread_data
Room
p987
(dp988
g31
g157
sg32
g158
sbsba(ischedule
Activity
p989
(dp990
g8
(lp991
g475
ag409
ag491
ag184
ag504
ag276
ag508
ag261
ag513
ag333
ag523
ag530
ag436
ag534
ag536
ag518
ag479
ag489
ag57
ag123
ag535
ag266
ag136
ag177
ag514
ag125
ag120
ag490
ag102
ag527
ag480
ag376
ag481
ag476
ag259
ag507
ag497
ag522
ag516
ag500
ag370
asg31
g976
sg32
g537
sg34
g229
sg36
g196
sg37
(iread_data
Room
p992
(dp993
g31
g129
sg32
g130
sbsbaa(lp994
(ischedule
Activity
p995
(dp996
g8
g611
sg31
I1000
sg32
g393
sg34
g35
sg36
I0
sg37
(iread_data
Room
p997
(dp998
g31
g232
sg32
g233
sbsba(ischedule
Activity
p999
(dp1000
g8
(lp1001
g367
ag48
ag249
ag304
ag245
ag594
aS'98780382'
p1002
aS'19337738'
p1003
aS'93023961'
p1004
ag365
ag438
ag579
aS'68360259'
p1005
asg31
g290
sg32
g291
sg34
g229
sg36
g357
sg37
(iread_data
Room
p1006
(dp1007
g31
g84
sg32
g85
sbsba(ischedule
Activity
p1008
(dp1009
g8
(lp1010
g240
ag262
ag716
ag172
ag276
ag410
ag774
ag402
ag964
ag275
ag704
ag965
ag117
ag369
ag400
ag73
asg31
g786
sg32
g718
sg34
g153
sg36
g357
sg37
g127
sba(ischedule
Activity
p1011
(dp1012
g8
(lp1013
g725
ag726
ag676
ag658
ag478
ag412
ag728
ag354
ag695
ag694
ag139
ag18
ag729
ag17
ag693
ag271
ag691
asg31
S'20'
p1014
sg32
g697
sg34
g153
sg36
g196
sg37
(iread_data
Room
p1015
(dp1016
g31
g157
sg32
g158
sbsba(ischedule
Activity
p1017
(dp1018
g8
(lp1019
S'40633534'
p1020
ag623
ag175
ag592
ag47
asg31
g327
sg32
g328
sg34
g153
sg36
g154
sg37
(iread_data
Room
p1021
(dp1022
g31
g167
sg32
g168
sbsba(ischedule
Activity
p1023
(dp1024
g8
(lp1025
g319
ag107
aS'44151631'
p1026
aS'5892092'
p1027
ag100
ag349
ag404
ag350
ag15
asg31
g865
sg32
g866
sg34
g153
sg36
g154
sg37
(iread_data
Room
p1028
(dp1029
g31
g199
sg32
g200
sbsbaa(lp1030
(ischedule
Activity
p1031
(dp1032
g8
(lp1033
g404
ag213
ag414
ag872
ag54
ag57
ag184
aS'28359697'
p1034
ag174
ag645
ag513
ag123
ag376
ag565
ag120
ag135
ag614
ag254
ag704
ag410
ag307
ag561
ag246
ag433
ag594
ag326
ag145
ag707
ag347
ag706
ag703
ag708
ag579
ag680
ag705
ag208
ag365
ag321
ag107
ag143
ag115
aS'56815156'
p1035
ag873
ag412
ag407
asg31
I1000
sg32
g710
sg34
g35
sg36
I0
sg37
(iread_data
Room
p1036
(dp1037
g31
g129
sg32
g130
sbsba(ischedule
Activity
p1038
(dp1039
g8
(lp1040
g214
ag46
ag25
ag217
ag516
ag510
ag221
ag811
ag211
ag63
ag225
ag205
ag771
ag896
ag920
ag106
asg31
S'20'
p1041
sg32
g228
sg34
g153
sg36
g357
sg37
(iread_data
Room
p1042
(dp1043
g31
g167
sg32
g168
sbsba(ischedule
Activity
p1044
(dp1045
g8
g981
sg31
I1000
sg32
g628
sg34
g35
sg36
I0
sg37
(iread_data
Room
p1046
(dp1047
g31
g232
sg32
g233
sbsba(ischedule
Activity
p1048
(dp1049
g8
(lp1050
g80
ag411
ag210
ag514
ag615
ag617
ag612
ag614
ag374
ag371
ag104
ag144
ag192
ag55
ag305
ag29
ag452
ag146
asg31
g392
sg32
g393
sg34
g229
sg36
g154
sg37
(iread_data
Room
p1051
(dp1052
g31
g84
sg32
g85
sbsba(ischedule
Activity
p1053
(dp1054
g8
(lp1055
g451
asg31
g355
sg32
g356
sg34
g153
sg36
g196
sg37
(iread_data
Room
p1056
(dp1057
g31
g157
sg32
g158
sbsba(ischedule
Activity
p1058
(dp1059
g8
(lp1060
g113
ag173
ag437
ag409
ag51
ag591
ag285
ag674
ag558
ag415
ag364
ag289
ag672
ag596
ag676
ag535
ag105
ag271
ag678
ag564
ag333
ag681
ag675
ag177
ag256
ag212
ag679
ag30
ag309
asg31
g830
sg32
g684
sg34
g229
sg36
g196
sg37
(iread_data
Room
p1061
(dp1062
g31
g40
sg32
g41
sbsbaa(lp1063
(ischedule
Activity
p1064
(dp1065
g8
(lp1066
S'73350019'
p1067
aS'82854435'
p1068
ag502
ag800
aS'14637758'
p1069
ag1035
ag278
ag272
aS'18477924'
p1070
ag70
aS'78822885'
p1071
ag241
ag942
ag125
ag777
ag245
ag57
ag443
ag305
ag261
ag810
ag517
ag943
ag317
aS'58480929'
p1072
ag344
ag96
ag449
ag106
ag492
ag61
ag117
ag421
ag14
ag907
ag342
ag882
ag143
aS'97838175'
p1073
ag276
ag658
ag334
ag419
ag339
ag274
ag484
ag550
ag89
ag508
asg31
I1000
sg32
S'Analysemethoden en -technieken'
p1074
sg34
g35
sg36
I0
sg37
(iread_data
Room
p1075
(dp1076
g31
g40
sg32
g41
sbsba(ischedule
Activity
p1077
(dp1078
g8
(lp1079
g122
ag257
ag389
ag177
ag55
ag613
ag90
ag29
ag545
ag416
ag616
ag549
asg31
g848
sg32
g393
sg34
g153
sg36
g803
sg37
g82
sba(ischedule
Activity
p1080
(dp1081
g8
(lp1082
g778
ag139
ag335
ag12
ag777
ag121
ag646
ag423
ag557
ag376
ag504
ag763
ag706
ag27
ag65
ag66
ag402
ag364
ag742
ag144
ag548
ag250
ag352
ag771
ag774
ag179
ag770
ag775
ag343
ag373
ag322
ag764
ag51
ag146
ag490
ag67
ag256
ag614
ag137
ag496
ag642
ag765
ag218
ag766
ag172
ag767
ag63
ag303
ag452
ag434
ag776
ag76
ag598
ag768
ag347
ag769
ag744
ag506
ag346
aS'65852230'
p1083
ag536
ag209
ag740
ag28
ag368
ag773
ag274
ag772
ag414
asg31
I1000
sg32
g780
sg34
g35
sg36
I0
sg37
(iread_data
Room
p1084
(dp1085
g31
g232
sg32
g233
sbsba(ischedule
Activity
p1086
(dp1087
g8
(lp1088
g365
ag162
ag304
ag367
ag289
ag594
ag286
ag249
asg31
g666
sg32
g291
sg34
g153
sg36
g196
sg37
(iread_data
Room
p1089
(dp1090
g31
g167
sg32
g168
sbsba(ischedule
Activity
p1091
(dp1092
g8
(lp1093
g941
ag675
ag907
aS'27123462'
p1094
ag318
ag672
ag246
ag725
ag411
ag801
ag30
ag522
ag574
ag493
ag113
ag659
ag450
ag250
aS'4529208'
p1095
ag454
ag530
ag326
ag174
ag386
ag266
ag556
ag956
aS'58083680'
p1096
aS'59397895'
p1097
asg31
g817
sg32
g818
sg34
g229
sg36
g196
sg37
(iread_data
Room
p1098
(dp1099
g31
g129
sg32
g130
sbsba(ischedule
Activity
p1100
(dp1101
g8
(lp1102
g93
ag432
ag954
aS'87314964'
p1103
ag931
ag799
ag704
asg31
g290
sg32
g291
sg34
g229
sg36
g154
sg37
(iread_data
Room
p1104
(dp1105
g31
g157
sg32
g158
sbsba(ischedule
Activity
p1106
(dp1107
g8
(lp1108
g95
ag112
ag101
ag15
ag99
ag119
ag46
ag91
ag124
asg31
g837
sg32
g126
sg34
g229
sg36
g196
sg37
(iread_data
Room
p1109
(dp1110
g31
g199
sg32
g200
sbsbaa(lp1111
(ischedule
Activity
p1112
(dp1113
g8
(lp1114
g365
ag1005
ag367
ag1004
ag287
ag162
ag288
ag704
ag304
ag579
ag1002
ag432
ag289
ag285
ag931
ag74
ag954
ag48
ag799
ag1103
ag249
ag438
ag245
ag594
ag286
ag1003
ag93
asg31
I1000
sg32
g291
sg34
g35
sg36
I0
sg37
(iread_data
Room
p1115
(dp1116
g31
g232
sg32
g233
sbsba(ischedule
Activity
p1117
(dp1118
g8
(lp1119
g778
ag335
ag777
ag557
ag548
ag352
ag770
ag322
ag490
ag642
ag63
ag776
ag744
ag346
ag274
ag414
ag67
ag27
ag12
ag771
ag303
ag423
ag343
ag373
ag28
ag768
ag764
ag76
ag218
ag504
ag144
ag368
ag772
ag121
ag769
ag765
ag598
ag536
ag66
ag646
ag740
ag364
ag452
asg31
S'40'
p1120
sg32
g780
sg34
g229
sg36
g196
sg37
(iread_data
Room
p1121
(dp1122
g31
g84
sg32
g85
sbsba(ischedule
Activity
p1123
(dp1124
g8
(lp1125
S'7386961'
p1126
ag52
ag140
ag727
ag413
ag695
aS'88597745'
p1127
ag647
ag214
ag111
ag654
ag864
ag204
ag119
ag672
ag264
ag575
ag560
asg31
g194
sg32
g195
sg34
g153
sg36
g154
sg37
(iread_data
Room
p1128
(dp1129
g31
g157
sg32
g158
sbsba(ischedule
Activity
p1130
(dp1131
g8
(lp1132
g289
ag556
ag704
ag965
ag369
ag240
ag172
ag402
ag262
ag117
ag210
ag400
ag276
ag108
ag716
ag410
ag964
ag73
ag48
ag275
ag774
ag535
asg31
I1000
sg32
g718
sg34
g35
sg36
I0
sg37
(iread_data
Room
p1133
(dp1134
g31
g199
sg32
g200
sbsba(ischedule
Activity
p1135
(dp1136
g8
(lp1137
g54
ag513
ag614
ag347
ag705
ag412
ag703
ag145
ag376
ag433
ag213
ag107
ag135
ag321
ag115
ag208
ag326
ag708
ag123
ag706
asg31
g874
sg32
g710
sg34
g229
sg36
g154
sg37
(iread_data
Room
p1138
(dp1139
g31
g40
sg32
g41
sbsba(ischedule
Activity
p1140
(dp1141
g8
(lp1142
g408
ag578
ag528
ag340
ag617
ag263
ag72
ag80
ag209
ag773
aS'64418623'
p1143
aS'1695839'
p1144
aS'47260040'
p1145
aS'51472074'
p1146
ag595
ag681
ag351
aS'42297781'
p1147
asg31
g865
sg32
g866
sg34
g153
sg36
g196
sg37
(iread_data
Room
p1148
(dp1149
g31
g167
sg32
g168
sbsba(ischedule
Activity
p1150
(dp1151
g8
(lp1152
g254
ag90
ag485
ag487
ag492
ag387
ag106
ag505
ag510
ag319
ag27
ag407
ag521
ag524
ag175
ag531
ag348
ag311
ag488
ag515
ag374
ag22
ag511
ag520
ag494
ag501
ag478
ag526
ag486
ag422
ag498
ag506
ag525
ag310
ag503
ag509
ag440
asg31
g976
sg32
g537
sg34
g229
sg36
g154
sg37
(iread_data
Room
p1153
(dp1154
g31
g129
sg32
g130
sbsbaaa(lp1155
(lp1156
(ischedule
Activity
p1157
(dp1158
g8
(lp1159
g615
ag46
ag25
ag922
ag546
ag923
ag482
ag624
ag811
ag67
ag97
ag544
ag645
ag921
ag896
ag920
ag57
ag106
ag366
ag509
ag510
ag375
asg31
g227
sg32
g228
sg34
g229
sg36
g357
sg37
(iread_data
Room
p1160
(dp1161
g31
g167
sg32
g168
sbsba(ischedule
Activity
p1162
(dp1163
g8
g1082
sg31
I1000
sg32
g780
sg34
g35
sg36
I0
sg37
(iread_data
Room
p1164
(dp1165
g31
g232
sg32
g233
sbsba(ischedule
Activity
p1166
(dp1167
g8
(lp1168
g704
ag285
ag954
ag1103
ag245
ag1003
ag432
ag93
ag931
ag74
ag1004
ag579
ag1002
ag438
ag288
ag799
ag1005
asg31
g666
sg32
g291
sg34
g153
sg36
g154
sg37
(iread_data
Room
p1169
(dp1170
g31
g157
sg32
g158
sbsba(ischedule
Activity
p1171
(dp1172
g8
(lp1173
g556
ag108
ag210
ag289
asg31
g786
sg32
g718
sg34
g153
sg36
g196
sg37
(iread_data
Room
p1174
(dp1175
g31
g199
sg32
g200
sbsba(ischedule
Activity
p1176
(dp1177
g8
(lp1178
g246
ag1035
ag347
ag143
ag54
ag873
ag872
ag135
ag407
ag680
ag115
ag208
asg31
g709
sg32
g710
sg34
g153
sg36
g154
sg37
(iread_data
Room
p1179
(dp1180
g31
g129
sg32
g130
sbsba(ischedule
Activity
p1181
(dp1182
g8
(lp1183
g594
ag365
ag410
ag412
ag254
ag561
ag1034
ag123
ag174
ag326
ag321
asg31
g709
sg32
g710
sg34
g153
sg36
g196
sg37
(iread_data
Room
p1184
(dp1185
g31
g40
sg32
g41
sbsba(ischedule
Activity
p1186
(dp1187
g8
(lp1188
g105
ag269
ag411
ag490
ag941
ag405
ag213
ag764
ag943
aS'39905995'
p1189
aS'28943658'
p1190
ag102
ag243
ag333
aS'12782624'
p1191
ag220
ag511
ag744
aS'64053722'
p1192
ag768
ag479
aS'10702778'
p1193
ag258
asg31
g194
sg32
g195
sg34
g153
sg36
g803
sg37
(iread_data
Room
p1194
(dp1195
g31
g84
sg32
g85
sbsbaa(lp1196
(ischedule
Activity
p1197
(dp1198
g8
(lp1199
g941
ag800
ag811
ag338
ag703
ag613
ag675
ag172
ag676
ag520
ag450
ag23
ag907
ag258
ag813
ag80
ag46
ag574
ag816
ag259
ag550
ag1096
ag814
ag522
ag556
ag266
ag1094
ag454
ag332
ag364
ag318
ag812
ag204
ag544
ag536
ag530
ag212
ag508
ag326
ag1095
ag672
ag278
ag386
ag115
ag763
ag334
ag956
ag815
ag810
ag250
ag246
ag493
ag175
ag1097
ag174
ag30
ag134
ag12
ag659
ag225
ag210
ag801
ag725
ag305
ag120
ag546
ag599
ag289
ag411
ag208
ag774
ag113
asg31
I1000
sg32
g818
sg34
g35
sg36
I0
sg37
g1115
sba(ischedule
Activity
p1200
(dp1201
g8
g1033
sg31
I1000
sg32
g710
sg34
g35
sg36
I0
sg37
(iread_data
Room
p1202
(dp1203
g31
g129
sg32
g130
sbsba(ischedule
Activity
p1204
(dp1205
g8
g638
sg31
I1000
sg32
g648
sg34
g35
sg36
I0
sg37
g82
sba(ischedule
Activity
p1206
(dp1207
g8
g573
sg31
I1000
sg32
g164
sg34
g35
sg36
I0
sg37
(iread_data
Room
p1208
(dp1209
g31
g40
sg32
g41
sbsba(ischedule
Activity
p1210
(dp1211
g8
(lp1212
g48
ag289
ag276
ag369
ag117
ag108
ag262
ag275
asg31
g717
sg32
g718
sg34
g229
sg36
g196
sg37
(iread_data
Room
p1213
(dp1214
g31
g167
sg32
g168
sbsba(ischedule
Activity
p1215
(dp1216
g8
g586
sg31
I1000
sg32
g600
sg34
g35
sg36
I0
sg37
(iread_data
Room
p1217
(dp1218
g31
g199
sg32
g200
sbsba(ischedule
Activity
p1219
(dp1220
g8
(lp1221
g335
ag65
ag402
ag343
ag256
ag452
ag347
ag146
ag67
ag218
ag373
ag76
ag423
ag1083
asg31
g779
sg32
g780
sg34
g153
sg36
g196
sg37
(iread_data
Room
p1222
(dp1223
g31
g157
sg32
g158
sbsbaa(lp1224
(ischedule
Activity
p1225
(dp1226
g8
g888
sg31
I1000
sg32
g909
sg34
g35
sg36
I0
sg37
(iread_data
Room
p1227
(dp1228
g31
g232
sg32
g233
sbsba(ischedule
Activity
p1229
(dp1230
g8
(lp1231
g23
ag25
ag386
ag690
ag727
ag323
ag730
ag692
ag592
ag371
ag731
ag597
ag706
ag238
ag60
ag185
ag217
ag95
ag724
ag528
ag442
ag533
asg31
g1014
sg32
g697
sg34
g153
sg36
g154
sg37
(iread_data
Room
p1232
(dp1233
g31
g129
sg32
g130
sbsba(ischedule
Activity
p1234
(dp1235
g8
g1114
sg31
I1000
sg32
g291
sg34
g35
sg36
I0
sg37
(iread_data
Room
p1236
(dp1237
g31
g199
sg32
g200
sbsba(ischedule
Activity
p1238
(dp1239
g8
(lp1240
g27
ag921
ag207
ag224
ag55
ag220
ag216
ag67
ag923
ag226
ag204
ag645
ag740
ag482
ag206
ag615
ag922
ag57
asg31
g1041
sg32
g228
sg34
g153
sg36
g154
sg37
(iread_data
Room
p1241
(dp1242
g31
g157
sg32
g158
sbsba(ischedule
Activity
p1243
(dp1244
g8
(lp1245
g257
ag242
ag177
ag79
ag145
ag399
ag17
ag613
ag533
ag90
ag616
ag243
ag524
asg31
g392
sg32
g393
sg34
g229
sg36
g803
sg37
(iread_data
Room
p1246
(dp1247
g31
g40
sg32
g41
sbsba(ischedule
Activity
p1248
(dp1249
g8
(lp1250
g210
ag213
ag54
ag544
ag212
ag208
ag375
ag509
ag919
ag624
ag546
ag97
ag215
ag218
ag219
ag209
ag366
ag223
ag222
ag334
asg31
g1041
sg32
g228
sg34
g153
sg36
g196
sg37
(iread_data
Room
p1251
(dp1252
g31
g84
sg32
g85
sbsbaa(lp1253
(ischedule
Activity
p1254
(dp1255
g8
(lp1256
g415
ag676
ag113
ag672
ag30
ag623
ag678
ag215
ag682
ag289
ag173
ag617
ag535
ag575
ag437
ag563
ag409
ag681
ag673
ag568
ag365
ag675
ag564
ag680
ag51
ag679
ag212
ag271
ag139
ag408
ag256
ag105
ag591
ag677
ag333
ag451
ag285
ag596
ag177
ag364
ag674
ag309
ag558
asg31
I1000
sg32
g684
sg34
g35
sg36
I0
sg37
(iread_data
Room
p1257
(dp1258
g31
g84
sg32
g85
sbsba(ischedule
Activity
p1259
(dp1260
g8
g1033
sg31
I1000
sg32
g710
sg34
g35
sg36
I0
sg37
(iread_data
Room
p1261
(dp1262
g31
g40
sg32
g41
sbsba(ischedule
Activity
p1263
(dp1264
g8
(lp1265
g371
ag544
ag242
ag144
ag79
ag403
ag104
ag178
ag533
ag514
ag374
ag387
ag384
ag399
asg31
g848
sg32
g393
sg34
g153
sg36
g357
sg37
(iread_data
Room
p1266
(dp1267
g31
g157
sg32
g158
sbsba(ischedule
Activity
p1268
(dp1269
g8
(lp1270
g1020
ag240
ag624
ag802
ag61
aS'75680261'
p1271
ag814
ag310
ag486
asg31
g355
sg32
g356
sg34
g153
sg36
g154
sg37
(iread_data
Room
p1272
(dp1273
g31
g232
sg32
g233
sbsba(ischedule
Activity
p1274
(dp1275
g8
(lp1276
g27
ag55
ag54
ag919
ag771
ag740
ag334
ag516
ag63
asg31
g227
sg32
g228
sg34
g229
sg36
g154
sg37
(iread_data
Room
p1277
(dp1278
g31
g199
sg32
g200
sbsba(ischedule
Activity
p1279
(dp1280
g8
g1132
sg31
I1000
sg32
g718
sg34
g35
sg36
I0
sg37
(iread_data
Room
p1281
(dp1282
g31
g167
sg32
g168
sbsba(ischedule
Activity
p1283
(dp1284
g8
g9
sg31
I1000
sg32
g33
sg34
g35
sg36
I0
sg37
(iread_data
Room
p1285
(dp1286
g31
g129
sg32
g130
sbsbaa(lp1287
(ischedule
Activity
p1288
(dp1289
g8
(lp1290
g404
ag365
ag645
ag143
ag565
ag120
ag410
ag246
ag407
ag1035
ag184
ag1034
asg31
g874
sg32
g710
sg34
g229
sg36
g196
sg37
(iread_data
Room
p1291
(dp1292
g31
g157
sg32
g158
sbsba(ischedule
Activity
p1293
(dp1294
g8
(lp1295
g72
ag55
ag69
ag73
ag63
ag225
ag119
ag21
ag112
ag178
ag223
ag577
ag580
ag579
ag578
ag574
ag495
ag575
ag449
ag576
asg31
g163
sg32
g164
sg34
g153
sg36
g196
sg37
(iread_data
Room
p1296
(dp1297
g31
g167
sg32
g168
sbsba(ischedule
Activity
p1298
(dp1299
g8
(lp1300
g376
ag763
ag250
ag614
ag496
ag766
ag506
ag1083
ag209
ag773
ag742
ag706
ag774
ag65
ag172
ag51
ag775
ag347
ag767
ag146
ag434
ag256
ag402
ag137
ag179
ag139
asg31
g1120
sg32
g780
sg34
g229
sg36
g154
sg37
g38
sba(ischedule
Activity
p1301
(dp1302
g8
(lp1303
g17
ag323
ag325
ag326
ag321
ag623
ag320
ag106
ag102
ag318
ag16
ag592
ag175
ag322
ag47
ag324
ag317
ag19
ag319
ag1020
asg31
I1000
sg32
g328
sg34
g35
sg36
I0
sg37
g1115
sba(ischedule
Activity
p1304
(dp1305
g8
(lp1306
g492
ag117
ag400
ag372
ag402
ag215
ag25
ag403
ag406
ag521
ag414
ag408
ag563
ag556
ag74
ag568
ag272
ag421
ag422
ag409
ag413
ag416
ag557
ag341
ag566
ag205
ag562
ag245
ag67
ag251
ag107
ag399
ag560
ag367
ag176
ag499
ag423
asg31
g824
sg32
g426
sg34
g153
sg36
g196
sg37
(iread_data
Room
p1307
(dp1308
g31
g199
sg32
g200
sbsba(ischedule
Activity
p1309
(dp1310
g8
g237
sg31
I1000
sg32
g279
sg34
g35
sg36
I0
sg37
(iread_data
Room
p1311
(dp1312
g31
g84
sg32
g85
sbsbaaa(lp1313
(lp1314
a(lp1315
a(lp1316
a(lp1317
a(lp1318
aasS'timeslot_dict'
p1319
(dp1320
I0
S'9:00-11:00'
p1321
sI1
S'11:00-13:00'
p1322
sI2
S'13:00-15:00'
p1323
sI3
S'15:00-17:00'
p1324
sI4
S'17:00-19:00'
p1325
ssS'day_dict'
p1326
(dp1327
I0
S'Monday'
p1328
sI1
S'Tuesday'
p1329
sI2
S'Wednesday'
p1330
sI3
S'Thursday'
p1331
sI4
S'Friday'
p1332
ssb.