(ischedule
Schedule
p0
(dp1
S'timetable'
p2
(lp3
(lp4
(lp5
(ischedule
Activity
p6
(dp7
S'participants'
p8
(lp9
S'52552718'
p10
aS'16097870'
p11
aS'19858730'
p12
aS'11915563'
p13
aS'36508571'
p14
aS'62356458'
p15
aS'44901052'
p16
aS'27298319'
p17
aS'34806836'
p18
aS'51566595'
p19
aS'37110913'
p20
aS'74131924'
p21
aS'39459642'
p22
aS'5517869'
p23
aS'72796858'
p24
aS'61611295'
p25
aS'88627897'
p26
aS'54026378'
p27
aS'70113753'
p28
aS'68409833'
p29
aS'22871048'
p30
aS'62872965'
p31
asS'capacity'
p32
I1000
sS'name'
p33
S'Autonomous Agents 2'
p34
sS'ttype'
p35
S'lectures'
p36
sS'group_id'
p37
I0
sS'room'
p38
(iread_data
Room
p39
(dp40
g32
S'117'
p41
sg33
S'C0.110'
p42
sbsba(ischedule
Activity
p43
(dp44
g8
(lp45
S'3474870'
p46
aS'64554442'
p47
aS'50143947'
p48
aS'41527759'
p49
aS'21095566'
p50
aS'91527663'
p51
aS'8522855'
p52
aS'77376714'
p53
aS'26260141'
p54
aS'72895450'
p55
aS'23983476'
p56
aS'12077419'
p57
aS'41585485'
p58
aS'66433883'
p59
aS'36903574'
p60
aS'3707829'
p61
aS'88596522'
p62
aS'52715680'
p63
ag19
aS'40343779'
p64
aS'64947290'
p65
aS'34765676'
p66
ag17
aS'1665980'
p67
aS'96453361'
p68
aS'67817269'
p69
aS'19540225'
p70
aS'21964491'
p71
aS'15902055'
p72
aS'44828429'
p73
aS'5976174'
p74
aS'57467488'
p75
aS'82689818'
p76
aS'14671406'
p77
aS'23652927'
p78
aS'78136904'
p79
aS'46701583'
p80
aS'58592894'
p81
aS'81385263'
p82
aS'51509565'
p83
aS'86988337'
p84
aS'43902015'
p85
aS'53585410'
p86
asg32
I1000
sg33
S'Algoritmen en complexiteit'
p87
sg35
g36
sg37
I0
sg38
(iread_data
Room
p88
(dp89
g32
S'60'
p90
sg33
S'C1.112'
p91
sbsba(ischedule
Activity
p92
(dp93
g8
(lp94
S'37744525'
p95
aS'72665524'
p96
aS'16912993'
p97
aS'29640619'
p98
aS'59887191'
p99
aS'28618400'
p100
aS'70939718'
p101
aS'54772132'
p102
aS'25330192'
p103
aS'59075181'
p104
aS'56121590'
p105
aS'38499176'
p106
aS'97136582'
p107
aS'51741554'
p108
asg32
S'20'
p109
sg33
S'Netwerken en systeembeveiliging'
p110
sg35
S'labs'
p111
sg37
S'1'
p112
sg38
(iread_data
Room
p113
(dp114
g32
S'22'
p115
sg33
S'A1.06'
p116
sbsba(ischedule
Activity
p117
(dp118
g8
(lp119
S'13092455'
p120
aS'77392404'
p121
aS'84449005'
p122
aS'24277163'
p123
aS'13718298'
p124
aS'84524083'
p125
aS'99453514'
p126
aS'41578612'
p127
aS'13658563'
p128
aS'36785409'
p129
aS'27805666'
p130
aS'92778619'
p131
aS'57086672'
p132
aS'82390428'
p133
aS'99975346'
p134
asg32
S'20'
p135
sg33
S'Reflectie op de digitale cultuur'
p136
sg35
S'tutorials'
p137
sg37
g112
sg38
(iread_data
Room
p138
(dp139
g32
S'48'
p140
sg33
S'B0.201'
p141
sbsba(ischedule
Activity
p142
(dp143
g8
(lp144
S'70878567'
p145
aS'14591033'
p146
aS'42196732'
p147
aS'77831658'
p148
aS'6913074'
p149
aS'11068043'
p150
aS'58522654'
p151
aS'88176729'
p152
aS'20883994'
p153
aS'89985072'
p154
ag71
aS'44868097'
p155
aS'15051051'
p156
aS'22826928'
p157
aS'73236988'
p158
aS'14816774'
p159
aS'7308727'
p160
aS'29526540'
p161
aS'96054456'
p162
aS'247918'
p163
aS'64600457'
p164
ag21
aS'85335143'
p165
aS'56749879'
p166
aS'22731474'
p167
aS'66120270'
p168
aS'4568018'
p169
aS'28359697'
p170
ag68
aS'30195935'
p171
aS'43680781'
p172
aS'59544049'
p173
aS'3168419'
p174
ag27
aS'6723948'
p175
aS'24613625'
p176
aS'33930505'
p177
aS'33877725'
p178
aS'21029457'
p179
aS'30050930'
p180
aS'5298748'
p181
aS'53202517'
p182
aS'79617364'
p183
aS'81200278'
p184
aS'56815156'
p185
asg32
I1000
sg33
S'Bioinformatica'
p186
sg35
g36
sg37
I0
sg38
(iread_data
Room
p187
(dp188
g32
S'56'
p189
sg33
S'A1.10'
p190
sbsba(ischedule
Activity
p191
(dp192
g8
(lp193
S'75585647'
p194
aS'13116738'
p195
aS'23257088'
p196
aS'77636749'
p197
aS'92977271'
p198
aS'68315599'
p199
aS'32204977'
p200
aS'17496687'
p201
aS'75521763'
p202
aS'29718115'
p203
aS'58332004'
p204
aS'8557857'
p205
aS'36748818'
p206
ag16
asg32
S'15'
p207
sg33
S'Informatie- en organsatieontwerp'
p208
sg35
g111
sg37
g112
sg38
(iread_data
Room
p209
(dp210
g32
S'41'
p211
sg33
S'A1.04'
p212
sbsba(ischedule
Activity
p213
(dp214
g8
(lp215
S'70072978'
p216
aS'44391517'
p217
aS'48503689'
p218
aS'39905995'
p219
aS'68601184'
p220
aS'86000192'
p221
aS'4709948'
p222
aS'80135353'
p223
aS'97019450'
p224
aS'47477884'
p225
aS'77960666'
p226
aS'47982619'
p227
aS'9332762'
p228
aS'85236626'
p229
aS'88263855'
p230
aS'94467156'
p231
aS'64053722'
p232
aS'79879876'
p233
asg32
S'20'
p234
sg33
S'Programmeren in Java 2'
p235
sg35
g111
sg37
g112
sg38
(iread_data
Room
p236
(dp237
g32
S'20'
p238
sg33
S'A1.08'
p239
sbsbaa(lp240
(ischedule
Activity
p241
(dp242
g8
(lp243
g16
ag13
ag22
ag17
asg32
S'10'
p244
sg33
g34
sg35
g137
sg37
g112
sg38
(iread_data
Room
p245
(dp246
g32
g115
sg33
g116
sbsba(ischedule
Activity
p247
(dp248
g8
(lp249
S'92665222'
p250
aS'60352393'
p251
aS'70844780'
p252
ag174
aS'40633534'
p253
ag153
ag79
aS'27064249'
p254
aS'39429093'
p255
aS'75997788'
p256
ag96
aS'86807027'
p257
ag225
aS'23547619'
p258
aS'72683344'
p259
aS'14847953'
p260
asg32
S'10'
p261
sg33
S'Advanced Heuristics'
p262
sg35
g111
sg37
g112
sg38
(iread_data
Room
p263
(dp264
g32
g41
sg33
g42
sbsba(ischedule
Activity
p265
(dp266
g8
(lp267
g14
ag23
ag26
ag25
ag31
ag21
ag24
ag10
ag28
ag18
ag15
ag19
ag27
ag12
asg32
S'10'
p268
sg33
g34
sg35
g111
sg37
S'2'
p269
sg38
(iread_data
Room
p270
(dp271
g32
g140
sg33
g141
sbsba(ischedule
Activity
p272
(dp273
g8
(lp274
S'91196968'
p275
aS'52311353'
p276
ag107
aS'45414528'
p277
aS'17823206'
p278
aS'98780382'
p279
aS'22323043'
p280
aS'87314964'
p281
ag20
aS'87900893'
p282
aS'68360259'
p283
aS'13996448'
p284
ag126
aS'19337738'
p285
ag48
ag95
asg32
S'10'
p286
sg33
S'Data Mining'
p287
sg35
g111
sg37
g112
sg38
(iread_data
Room
p288
(dp289
g32
g238
sg33
g239
sbsba(ischedule
Activity
p290
(dp291
g8
(lp292
g125
aS'58040377'
p293
aS'5739011'
p294
ag229
aS'52304977'
p295
aS'63634350'
p296
aS'7106649'
p297
aS'35315956'
p298
ag74
aS'43027916'
p299
aS'82968410'
p300
ag167
aS'31897288'
p301
aS'81022997'
p302
ag134
aS'48678993'
p303
aS'27925117'
p304
ag19
aS'87602030'
p305
ag11
aS'58736785'
p306
ag184
ag132
aS'670011'
p307
aS'15249775'
p308
aS'61443567'
p309
aS'1886996'
p310
aS'33760909'
p311
aS'83869542'
p312
aS'78243495'
p313
ag66
aS'72652638'
p314
asg32
I1000
sg33
S'Heuristieken 2'
p315
sg35
g36
sg37
I0
sg38
(iread_data
Room
p316
(dp317
g32
g90
sg33
g91
sbsba(ischedule
Activity
p318
(dp319
g8
(lp320
g98
aS'57595888'
p321
aS'64228258'
p322
aS'64296965'
p323
aS'77896638'
p324
ag299
ag123
aS'4783858'
p325
aS'26406342'
p326
aS'53107172'
p327
aS'50184318'
p328
ag67
ag147
ag108
aS'54310617'
p329
aS'28357474'
p330
asg32
S'20'
p331
sg33
S'Collectieve Intelligentie'
p332
sg35
g137
sg37
S'4'
p333
sg38
(iread_data
Room
p334
(dp335
g32
g211
sg33
g212
sbsba(ischedule
Activity
p336
(dp337
g8
(lp338
g194
ag56
aS'19958553'
p339
ag205
aS'18266644'
p340
ag198
ag202
ag145
ag195
ag196
ag16
aS'62701040'
p341
ag201
ag197
ag199
ag206
ag128
ag204
ag203
aS'11459236'
p342
ag200
asg32
I1000
sg33
g208
sg35
g36
sg37
I0
sg38
(iread_data
Room
p343
(dp344
g32
g189
sg33
g190
sbsbaa(lp345
(ischedule
Activity
p346
(dp347
g8
(lp348
g120
ag132
aS'60661905'
p349
ag121
aS'20239127'
p350
ag172
ag30
ag226
ag157
ag79
aS'59753700'
p351
ag134
ag128
ag252
ag129
ag122
aS'20095994'
p352
ag133
ag130
aS'27950803'
p353
aS'49922855'
p354
ag222
ag20
ag63
aS'42406214'
p355
aS'54569540'
p356
aS'36213792'
p357
ag123
ag126
aS'61518436'
p358
ag124
aS'68286356'
p359
ag131
aS'38296757'
p360
ag84
ag251
ag181
aS'90474003'
p361
aS'3685034'
p362
aS'33776961'
p363
aS'32044893'
p364
ag127
aS'87830198'
p365
aS'70193386'
p366
ag149
aS'51052738'
p367
aS'27370083'
p368
aS'51415617'
p369
ag125
aS'96554914'
p370
aS'37399898'
p371
asg32
I1000
sg33
g136
sg35
g36
sg37
I0
sg38
(iread_data
Room
p372
(dp373
g32
g189
sg33
g190
sbsba(ischedule
Activity
p374
(dp375
g8
g144
sg32
I1000
sg33
g186
sg35
g36
sg37
I0
sg38
(iread_data
Room
p376
(dp377
g32
g41
sg33
g42
sbsba(ischedule
Activity
p378
(dp379
g8
(lp380
S'37770881'
p381
ag322
aS'97135019'
p382
aS'76123484'
p383
aS'22699561'
p384
ag228
aS'77240949'
p385
aS'45556081'
p386
ag48
ag98
aS'34773179'
p387
ag108
ag299
aS'35330349'
p388
aS'31416266'
p389
ag341
ag221
aS'87758823'
p390
aS'25106480'
p391
ag324
ag328
asg32
S'20'
p392
sg33
g332
sg35
g111
sg37
g333
sg38
(iread_data
Room
p393
(dp394
g32
g211
sg33
g212
sbsba(ischedule
Activity
p395
(dp396
g8
(lp397
g86
ag326
aS'5892092'
p398
aS'41644639'
p399
aS'51673172'
p400
aS'23215240'
p401
aS'82066165'
p402
aS'42297781'
p403
ag62
asg32
S'15'
p404
sg33
S'Compilerbouw practicum'
p405
sg35
g111
sg37
S'3'
p406
sg38
(iread_data
Room
p407
(dp408
g32
g238
sg33
g239
sbsba(ischedule
Activity
p409
(dp410
g8
(lp411
S'76661016'
p412
ag29
ag303
ag253
aS'75680261'
p413
aS'78821918'
p414
ag304
asg32
S'15'
p415
sg33
S'Project Genetic Algorithms'
p416
sg35
g111
sg37
g406
sg38
(iread_data
Room
p417
(dp418
g32
g140
sg33
g141
sbsbaa(lp419
(ischedule
Activity
p420
(dp421
g8
(lp422
S'31103066'
p423
aS'55474917'
p424
aS'1048485'
p425
aS'41153310'
p426
aS'83210352'
p427
ag30
aS'89180944'
p428
ag15
aS'75599734'
p429
ag54
ag154
ag370
ag63
ag64
ag169
aS'43460038'
p430
ag50
aS'44671041'
p431
aS'45915482'
p432
ag158
ag391
aS'31247305'
p433
ag49
aS'58074656'
p434
aS'73302736'
p435
ag13
aS'62105897'
p436
ag353
aS'65408517'
p437
aS'4546613'
p438
ag124
aS'82872148'
p439
ag95
aS'99283252'
p440
aS'84110134'
p441
ag325
aS'9287708'
p442
ag276
aS'42115591'
p443
ag98
ag74
aS'61060652'
p444
aS'58565406'
p445
ag77
aS'95631564'
p446
aS'27582862'
p447
ag10
aS'37830626'
p448
aS'31633723'
p449
aS'48357272'
p450
aS'80709893'
p451
aS'14309255'
p452
ag53
ag48
asg32
S'40'
p453
sg33
S'Software engineering'
p454
sg35
g111
sg37
g269
sg38
(iread_data
Room
p455
(dp456
g32
g41
sg33
g42
sbsba(ischedule
Activity
p457
(dp458
g8
(lp459
g166
ag174
ag185
ag27
ag21
ag164
ag150
ag162
ag176
ag147
ag179
ag68
ag148
ag173
ag171
ag152
ag183
ag175
asg32
S'20'
p460
sg33
g186
sg35
g137
sg37
g406
sg38
(iread_data
Room
p461
(dp462
g32
g115
sg33
g116
sbsba(ischedule
Activity
p463
(dp464
g8
(lp465
S'83415514'
p466
ag328
ag165
aS'51650744'
p467
aS'48198668'
p468
ag199
ag123
ag23
aS'27916487'
p469
aS'58699305'
p470
aS'83266686'
p471
aS'30658799'
p472
ag206
ag363
aS'41489515'
p473
aS'46570285'
p474
aS'36527838'
p475
ag204
asg32
S'20'
p476
sg33
S'Moderne Databases'
p477
sg35
g137
sg37
g112
sg38
(iread_data
Room
p478
(dp479
g32
g189
sg33
g190
sbsba(ischedule
Activity
p480
(dp481
g8
(lp482
g178
ag145
ag155
ag159
ag149
ag172
ag146
asg32
g460
sg33
g186
sg35
g137
sg37
g269
sg38
(iread_data
Room
p483
(dp484
g32
g238
sg33
g239
sbsba(ischedule
Activity
p485
(dp486
g8
(lp487
g120
aS'72577292'
p488
ag389
ag309
aS'3233378'
p489
ag386
aS'96104167'
p490
ag382
ag341
ag48
ag72
aS'1696500'
p491
ag311
aS'42778953'
p492
asg32
g331
sg33
g332
sg35
g137
sg37
g406
sg38
(iread_data
Room
p493
(dp494
g32
g140
sg33
g141
sbsba(ischedule
Activity
p495
(dp496
g8
(lp497
g202
aS'46052388'
p498
aS'42171678'
p499
aS'60312776'
p500
ag391
ag381
ag71
ag388
ag160
aS'13534377'
p501
ag221
aS'65960683'
p502
ag387
ag384
aS'17222374'
p503
aS'73980360'
p504
ag76
ag385
aS'29474737'
p505
aS'17575088'
p506
ag383
asg32
g331
sg33
g332
sg35
g137
sg37
g269
sg38
(iread_data
Room
p507
(dp508
g32
g90
sg33
g91
sbsba(ischedule
Activity
p509
(dp510
g8
(lp511
g151
ag258
ag23
ag390
aS'86291592'
p512
aS'48601268'
p513
aS'1075391'
p514
ag228
ag220
aS'64393888'
p515
asg32
g331
sg33
g332
sg35
g137
sg37
g112
sg38
(iread_data
Room
p516
(dp517
g32
g211
sg33
g212
sbsbaa(lp518
(ischedule
Activity
p519
(dp520
g8
(lp521
S'58469172'
p522
aS'78544592'
p523
ag322
ag305
ag80
aS'93361408'
p524
ag225
aS'14303208'
p525
aS'27187154'
p526
aS'78443067'
p527
aS'80188025'
p528
aS'22168693'
p529
ag282
ag436
aS'78735049'
p530
ag304
ag81
aS'86180471'
p531
ag471
ag221
aS'74182182'
p532
ag412
aS'73823548'
p533
aS'34173695'
p534
aS'23658570'
p535
aS'82412626'
p536
ag162
ag257
ag311
aS'9731271'
p537
aS'11593163'
p538
aS'77306636'
p539
ag11
aS'12091019'
p540
ag194
aS'79167252'
p541
aS'53139134'
p542
aS'14179347'
p543
aS'56544130'
p544
aS'40141996'
p545
aS'56872729'
p546
aS'88855695'
p547
ag256
ag159
ag17
ag165
ag149
ag86
ag72
aS'6939933'
p548
aS'81155296'
p549
aS'58253841'
p550
ag179
ag183
aS'19717077'
p551
ag450
ag360
aS'37279234'
p552
aS'56348773'
p553
ag382
ag108
aS'38179241'
p554
aS'61520025'
p555
aS'10149535'
p556
aS'79888156'
p557
aS'32705005'
p558
aS'31306819'
p559
aS'55530367'
p560
ag438
ag96
aS'55412918'
p561
ag470
aS'65978354'
p562
ag466
aS'72526473'
p563
aS'28957789'
p564
aS'23565001'
p565
ag175
ag54
aS'10609762'
p566
ag293
aS'23628642'
p567
aS'75623387'
p568
ag146
ag325
aS'59220392'
p569
aS'75446434'
p570
aS'3678531'
p571
ag296
ag435
aS'62363761'
p572
ag164
aS'10792879'
p573
ag254
aS'5615125'
p574
aS'88752563'
p575
aS'47932106'
p576
ag474
aS'24875739'
p577
aS'94686490'
p578
aS'33672995'
p579
ag155
ag437
ag432
aS'6709529'
p580
ag101
asg32
I1000
sg33
S'Calculus 2'
p581
sg35
g36
sg37
I0
sg38
(iread_data
Room
p582
(dp583
g32
g41
sg33
g42
sbsba(ischedule
Activity
p584
(dp585
g8
(lp586
g56
ag145
ag128
ag339
ag341
ag342
ag340
asg32
g207
sg33
g208
sg35
g111
sg37
g269
sg38
(iread_data
Room
p587
(dp588
g32
g115
sg33
g116
sbsba(ischedule
Activity
p589
(dp590
g8
(lp591
g172
aS'89338938'
p592
ag202
aS'12430748'
p593
ag197
aS'70336464'
p594
aS'97371272'
p595
aS'69086548'
p596
aS'14383795'
p597
aS'40434933'
p598
aS'77264363'
p599
aS'6249823'
p600
ag20
ag199
ag200
aS'93041523'
p601
aS'21192048'
p602
aS'31194811'
p603
ag326
aS'4697362'
p604
ag227
aS'75664412'
p605
ag280
ag129
aS'92496780'
p606
ag452
ag258
aS'11996292'
p607
ag297
asg32
S'20'
p608
sg33
S'Technology for games'
p609
sg35
g137
sg37
g112
sg38
(iread_data
Room
p610
(dp611
g32
g211
sg33
g212
sbsba(ischedule
Activity
p612
(dp613
g8
(lp614
g151
ag177
ag169
ag157
ag161
ag170
ag180
ag181
ag163
ag160
ag154
ag158
ag184
ag182
ag71
ag168
ag165
ag167
ag153
ag156
asg32
g460
sg33
g186
sg35
g137
sg37
g112
sg38
(iread_data
Room
p615
(dp616
g32
g238
sg33
g239
sbsba(ischedule
Activity
p617
(dp618
g8
(lp619
S'48308205'
p620
ag275
ag388
ag23
aS'32595335'
p621
aS'94955328'
p622
ag307
aS'58866007'
p623
ag443
ag183
aS'54074680'
p624
ag29
aS'81218347'
p625
ag147
aS'16011419'
p626
ag561
ag46
ag565
ag546
ag532
aS'93566383'
p627
aS'34243356'
p628
aS'80998260'
p629
ag424
ag556
aS'79937969'
p630
ag475
ag451
ag31
aS'90743504'
p631
ag578
ag276
ag492
ag82
ag146
aS'26172512'
p632
ag14
aS'66570705'
p633
aS'4921119'
p634
ag106
ag389
ag390
aS'71839156'
p635
ag427
aS'21311067'
p636
ag371
ag324
aS'96118484'
p637
aS'75005528'
p638
aS'16333449'
p639
ag11
ag444
aS'34588570'
p640
ag127
asg32
I1000
sg33
S'Lineaire Algebra'
p641
sg35
g36
sg37
I0
sg38
(iread_data
Room
p642
(dp643
g32
g189
sg33
g190
sbsba(ischedule
Activity
p644
(dp645
g8
g9
sg32
I1000
sg33
g34
sg35
g36
sg37
I0
sg38
(iread_data
Room
p646
(dp647
g32
g140
sg33
g141
sbsbaaa(lp648
(lp649
(ischedule
Activity
p650
(dp651
g8
(lp652
g470
ag471
aS'63111000'
p653
aS'3883025'
p654
ag222
ag81
ag466
ag414
aS'59111489'
p655
ag156
ag216
ag523
ag328
ag172
aS'96082155'
p656
aS'49219163'
p657
ag527
ag122
ag469
ag452
ag202
ag607
ag499
ag363
ag475
ag23
ag164
ag165
ag503
aS'13218321'
p658
ag467
ag204
ag123
ag468
aS'1766560'
p659
aS'47462856'
p660
aS'18144425'
p661
ag428
aS'27241113'
p662
ag199
ag161
ag474
ag206
ag53
aS'66621166'
p663
aS'11741347'
p664
ag440
aS'1181560'
p665
ag472
aS'13911001'
p666
ag473
ag256
aS'49631542'
p667
ag313
asg32
I1000
sg33
g477
sg35
g36
sg37
I0
sg38
(iread_data
Room
p668
(dp669
g32
g90
sg33
g91
sbsba(ischedule
Activity
p670
(dp671
g8
(lp672
S'69459473'
p673
ag182
aS'53512831'
p674
aS'67073567'
p675
ag55
ag525
aS'22288615'
p676
ag309
aS'17092717'
p677
ag121
aS'76903244'
p678
ag598
aS'1137946'
p679
aS'24891081'
p680
aS'2416751'
p681
ag383
aS'49908313'
p682
ag254
ag322
aS'20618153'
p683
aS'10698627'
p684
aS'66034145'
p685
aS'39230359'
p686
aS'41790793'
p687
aS'76648468'
p688
aS'94930277'
p689
ag574
ag430
aS'28358060'
p690
ag428
ag132
ag313
ag260
ag639
ag85
ag178
ag46
ag600
ag488
asg32
I1000
sg33
S'Webprogrammeren en databases'
p691
sg35
g36
sg37
I0
sg38
(iread_data
Room
p692
(dp693
g32
g140
sg33
g141
sbsba(ischedule
Activity
p694
(dp695
g8
(lp696
S'97838175'
p697
aS'14637758'
p698
ag414
ag256
aS'82854435'
p699
aS'23798155'
p700
ag634
ag365
aS'72586808'
p701
ag11
ag535
aS'88737765'
p702
ag303
ag544
ag628
aS'72456780'
p703
ag165
ag127
ag185
ag622
ag129
aS'73350019'
p704
aS'51542218'
p705
ag435
ag323
ag276
ag366
aS'34900967'
p706
aS'83443653'
p707
aS'78822885'
p708
ag124
aS'58480929'
p709
ag349
ag132
ag340
aS'5085194'
p710
ag528
ag148
ag299
aS'62613937'
p711
ag443
ag30
ag450
ag224
ag579
aS'5595824'
p712
ag565
aS'18477924'
p713
aS'65318664'
p714
asg32
I1000
sg33
S'Analysemethoden en -technieken'
p715
sg35
g36
sg37
I0
sg38
(iread_data
Room
p716
(dp717
g32
g41
sg33
g42
sbsba(ischedule
Activity
p718
(dp719
g8
(lp720
S'14941752'
p721
ag120
ag441
ag620
aS'34691309'
p722
ag548
ag500
aS'40911986'
p723
ag218
aS'63939720'
p724
ag15
ag364
ag167
asg32
S'15'
p725
sg33
S'Project Numerical Recipes'
p726
sg35
g111
sg37
g269
sg38
(iread_data
Room
p727
(dp728
g32
g238
sg33
g239
sbsba(ischedule
Activity
p729
(dp730
g8
(lp731
g277
ag95
ag275
ag107
ag280
ag278
ag284
ag71
aS'93023961'
p732
ag195
ag285
ag19
ag283
ag145
asg32
S'10'
p733
sg33
g287
sg35
g137
sg37
g406
sg38
(iread_data
Room
p734
(dp735
g32
g189
sg33
g190
sbsba(ischedule
Activity
p736
(dp737
g8
(lp738
g226
ag252
ag20
ag359
ag366
ag352
ag157
ag63
ag353
ag350
ag251
ag358
ag181
ag351
ag79
ag368
ag356
ag354
ag222
ag357
ag362
ag369
asg32
g135
sg33
g136
sg35
g137
sg37
g269
sg38
(iread_data
Room
p739
(dp740
g32
g115
sg33
g116
sbsba(ischedule
Activity
p741
(dp742
g8
(lp743
S'37701751'
p744
ag184
ag371
aS'28055464'
p745
ag438
ag260
ag61
ag82
aS'2550487'
p746
aS'19214659'
p747
aS'76924297'
p748
ag685
aS'21677389'
p749
aS'20374340'
p750
ag66
aS'5368702'
p751
ag627
ag412
aS'69634191'
p752
ag258
aS'64768422'
p753
ag73
ag549
ag554
aS'65675896'
p754
asg32
I1000
sg33
S'Interactie-ontwerp'
p755
sg35
g36
sg37
I0
sg38
(iread_data
Room
p756
(dp757
g32
g211
sg33
g212
sbsbaa(lp758
(ischedule
Activity
p759
(dp760
g8
(lp761
g564
ag278
ag166
ag167
aS'51186803'
p762
ag173
ag58
ag358
ag474
ag104
aS'37498675'
p763
aS'44940353'
p764
ag751
aS'7492204'
p765
ag224
ag151
ag60
ag522
aS'23391676'
p766
ag231
ag125
ag146
ag52
aS'79366078'
p767
ag204
ag433
aS'10872825'
p768
ag449
ag526
aS'39919665'
p769
aS'34262212'
p770
ag660
aS'56988998'
p771
ag595
aS'38329455'
p772
aS'63955238'
p773
ag356
ag705
ag667
aS'99272880'
p774
ag574
aS'82688900'
p775
ag596
ag424
ag577
ag592
aS'20331158'
p776
aS'39659121'
p777
ag530
ag79
ag77
ag162
ag350
ag329
ag385
ag362
ag573
ag625
ag13
ag340
ag49
ag628
aS'47605891'
p778
ag275
ag537
ag106
ag296
ag558
aS'72547110'
p779
ag686
aS'65003379'
p780
ag532
ag443
ag441
aS'14398123'
p781
ag323
ag748
aS'79858178'
p782
aS'63408522'
p783
ag622
ag153
ag700
ag197
aS'91139627'
p784
asg32
I1000
sg33
S'Kansrekenen 2'
p785
sg35
g36
sg37
I0
sg38
(iread_data
Room
p786
(dp787
g32
g41
sg33
g42
sbsba(ischedule
Activity
p788
(dp789
g8
(lp790
g525
ag680
ag639
ag178
ag46
ag85
ag260
ag488
ag688
ag121
ag679
ag674
ag600
ag673
ag182
ag678
ag683
ag687
ag598
ag383
ag428
ag676
ag689
ag685
ag55
ag132
ag684
ag677
ag690
ag313
asg32
S'20'
p791
sg33
g691
sg35
g111
sg37
g269
sg38
(iread_data
Room
p792
(dp793
g32
g189
sg33
g190
sbsba(ischedule
Activity
p794
(dp795
g8
(lp796
g305
ag225
ag304
ag471
ag535
ag257
ag542
ag545
ag256
ag72
ag550
ag551
ag108
ag556
ag559
ag564
ag567
ag571
ag254
ag576
ag539
ag86
ag470
ag568
ag572
ag533
ag555
ag325
ag322
ag80
ag553
ag54
ag538
ag159
ag221
ag565
ag561
ag543
ag179
ag540
ag183
ag149
asg32
S'40'
p797
sg33
g581
sg35
g137
sg37
g112
sg38
(iread_data
Room
p798
(dp799
g32
g140
sg33
g141
sbsba(ischedule
Activity
p800
(dp801
g8
(lp802
g351
asg32
g286
sg33
g287
sg35
g111
sg37
g406
sg38
(iread_data
Room
p803
(dp804
g32
g238
sg33
g239
sbsba(ischedule
Activity
p805
(dp806
g8
(lp807
g712
ag84
aS'8464817'
p808
aS'2317551'
p809
ag158
ag575
ag541
ag125
aS'13284244'
p810
ag381
aS'98105190'
p811
ag175
ag218
aS'34872117'
p812
ag605
aS'43689934'
p813
ag199
aS'7957843'
p814
aS'49683101'
p815
ag217
ag324
aS'46989508'
p816
aS'34110913'
p817
aS'9067939'
p818
ag102
aS'66701209'
p819
aS'75759231'
p820
ag547
ag500
ag250
ag659
ag664
ag452
ag429
asg32
S'40'
p821
sg33
S'Compilerbouw'
p822
sg35
g111
sg37
g112
sg38
(iread_data
Room
p823
(dp824
g32
g90
sg33
g91
sbsba(ischedule
Activity
p825
(dp826
g8
(lp827
g19
ag302
ag21
ag103
ag184
ag71
ag195
aS'66122625'
p828
ag145
ag732
asg32
g286
sg33
g287
sg35
g111
sg37
g269
sg38
(iread_data
Room
p829
(dp830
g32
g211
sg33
g212
sbsba(ischedule
Activity
p831
(dp832
g8
(lp833
g16
ag13
ag20
ag11
ag17
ag30
ag22
asg32
g268
sg33
g34
sg35
g111
sg37
g406
sg38
(iread_data
Room
p834
(dp835
g32
g115
sg33
g116
sbsbaa(lp836
(ischedule
Activity
p837
(dp838
g8
(lp839
g311
ag500
ag504
ag489
ag147
ag67
ag323
ag490
asg32
g392
sg33
g332
sg35
g111
sg37
g269
sg38
(iread_data
Room
p840
(dp841
g32
g115
sg33
g116
sbsba(ischedule
Activity
p842
(dp843
g8
(lp844
g620
ag129
ag20
ag200
ag603
ag227
ag452
ag596
ag606
ag602
ag172
ag600
ag592
ag607
ag202
ag199
ag445
ag228
ag593
ag604
ag297
ag280
ag197
ag601
ag127
ag258
ag594
ag597
ag595
ag598
ag326
ag16
aS'76487754'
p845
ag165
ag57
ag599
ag556
ag605
asg32
I1000
sg33
g609
sg35
g36
sg37
I0
sg38
(iread_data
Room
p846
(dp847
g32
g189
sg33
g190
sbsba(ischedule
Activity
p848
(dp849
g8
(lp850
g423
ag450
ag173
ag426
ag74
ag30
ag428
ag592
aS'14072826'
p851
ag429
ag54
ag370
ag98
ag13
aS'3727435'
p852
ag442
ag29
aS'70015932'
p853
ag330
ag513
ag391
ag435
ag48
ag276
ag444
ag439
ag489
ag714
ag440
ag446
ag447
ag438
ag424
ag313
ag325
asg32
S'40'
p854
sg33
g454
sg35
g137
sg37
g269
sg38
(iread_data
Room
p855
(dp856
g32
g140
sg33
g141
sbsba(ischedule
Activity
p857
(dp858
g8
(lp859
g76
ag171
aS'535689'
p860
ag52
ag701
ag184
ag814
aS'26207525'
p861
ag75
aS'4353500'
p862
aS'62736669'
p863
ag749
ag654
ag365
asg32
g109
sg33
g110
sg35
g111
sg37
g333
sg38
(iread_data
Room
p864
(dp865
g32
g211
sg33
g212
sbsba(ischedule
Activity
p866
(dp867
g8
(lp868
g710
ag150
ag296
aS'14138904'
p869
ag63
aS'64418623'
p870
ag48
aS'51472074'
p871
ag169
ag666
asg32
g404
sg33
g405
sg35
g111
sg37
g269
sg38
(iread_data
Room
p872
(dp873
g32
g238
sg33
g239
sbsba(ischedule
Activity
p874
(dp875
g8
(lp876
g473
ag23
ag527
ag81
ag503
ag655
ag467
asg32
S'20'
p877
sg33
g477
sg35
g111
sg37
g406
sg38
(iread_data
Room
p878
(dp879
g32
g41
sg33
g42
sbsba(ischedule
Activity
p880
(dp881
g8
(lp882
S'51593625'
p883
ag257
ag552
ag622
ag466
ag293
ag28
ag436
ag71
aS'88597745'
p884
ag58
ag363
ag131
aS'94687383'
p885
ag65
ag349
ag278
ag770
aS'10702778'
p886
aS'73196865'
p887
ag84
aS'73893840'
p888
asg32
g234
sg33
g235
sg35
g111
sg37
S'5'
p889
sg38
(iread_data
Room
p890
(dp891
g32
g90
sg33
g91
sbsbaa(lp892
(ischedule
Activity
p893
(dp894
g8
g338
sg32
I1000
sg33
g208
sg35
g36
sg37
I0
sg38
(iread_data
Room
p895
(dp896
g32
g211
sg33
g212
sbsba(ischedule
Activity
p897
(dp898
g8
g743
sg32
I1000
sg33
g755
sg35
g36
sg37
I0
sg38
(iread_data
Room
p899
(dp900
g32
g90
sg33
g91
sbsba(ischedule
Activity
p901
(dp902
g8
(lp903
g472
ag84
ag13
ag808
ag158
ag575
ag541
aS'2079771'
p904
ag412
ag429
ag810
ag381
ag811
ag199
ag324
ag175
ag816
aS'40791377'
p905
ag151
aS'88636924'
p906
ag471
ag813
ag812
ag22
ag659
ag250
ag492
ag664
ag818
ag452
ag814
aS'3407554'
p907
ag526
ag666
ag102
ag500
ag820
aS'65852230'
p908
ag502
ag547
ag353
ag446
ag628
ag182
ag218
ag809
asg32
S'40'
p909
sg33
g822
sg35
g137
sg37
g112
sg38
(iread_data
Room
p910
(dp911
g32
g140
sg33
g141
sbsba(ischedule
Activity
p912
(dp913
g8
(lp914
g12
ag15
ag30
ag24
ag10
ag19
ag18
ag11
ag23
ag27
ag14
ag25
ag20
asg32
g244
sg33
g34
sg35
g137
sg37
g406
sg38
(iread_data
Room
p915
(dp916
g32
g41
sg33
g42
sbsba(ischedule
Activity
p917
(dp918
g8
(lp919
S'63573738'
p920
ag55
ag257
ag160
ag362
ag355
ag592
ag638
ag512
aS'19662602'
p921
ag533
ag532
ag302
asg32
g725
sg33
g726
sg35
g111
sg37
g112
sg38
(iread_data
Room
p922
(dp923
g32
g238
sg33
g239
sbsba(ischedule
Activity
p924
(dp925
g8
(lp926
g29
asg32
g268
sg33
g34
sg35
g111
sg37
g112
sg38
(iread_data
Room
p927
(dp928
g32
g189
sg33
g190
sbsba(ischedule
Activity
p929
(dp930
g8
(lp931
g673
ag531
ag305
ag400
ag122
ag52
ag399
ag365
ag402
ag391
ag781
ag440
asg32
g415
sg33
g416
sg35
g111
sg37
g269
sg38
(iread_data
Room
p932
(dp933
g32
g115
sg33
g116
sbsbaa(lp934
(ischedule
Activity
p935
(dp936
g8
(lp937
g155
ag147
ag171
ag177
ag174
ag163
ag164
ag21
ag178
ag158
ag161
asg32
S'20'
p938
sg33
g186
sg35
g111
sg37
g406
sg38
(iread_data
Room
p939
(dp940
g32
g238
sg33
g239
sbsba(ischedule
Activity
p941
(dp942
g8
(lp943
g732
ag280
ag48
ag21
ag107
ag277
ag282
ag281
ag95
ag828
ag276
ag20
ag19
ag126
ag145
ag195
ag284
ag285
ag275
ag71
ag279
ag184
ag302
ag351
ag278
ag283
ag103
asg32
I1000
sg33
g287
sg35
g36
sg37
I0
sg38
g734
sba(ischedule
Activity
p944
(dp945
g8
(lp946
g125
ag297
ag134
ag305
ag132
ag184
ag167
ag74
ag313
ag294
ag310
ag229
ag301
ag296
ag11
asg32
S'20'
p947
sg33
g315
sg35
g137
sg37
g112
sg38
g798
sba(ischedule
Activity
p948
(dp949
g8
(lp950
g49
ag51
ag53
ag57
ag63
ag64
ag73
ag77
ag79
ag81
ag62
ag78
ag48
ag54
ag56
ag17
ag52
ag84
ag75
ag59
ag50
ag82
ag61
ag68
ag69
ag55
ag46
ag72
ag71
ag60
ag80
ag86
ag58
ag67
ag66
ag85
ag83
ag70
ag74
ag65
ag47
asg32
S'25'
p951
sg33
g87
sg35
g111
sg37
g269
sg38
(iread_data
Room
p952
(dp953
g32
g211
sg33
g212
sbsba(ischedule
Activity
p954
(dp955
g8
(lp956
g489
ag311
ag108
ag491
ag76
ag326
ag147
ag386
ag151
ag323
ag513
ag98
ag258
ag328
ag120
ag23
ag160
ag500
ag385
ag381
ag490
ag387
ag327
ag321
ag67
ag202
ag488
ag322
ag505
ag48
ag72
ag382
ag501
ag514
ag391
ag390
ag503
ag515
ag389
ag71
ag309
ag504
ag228
ag341
ag220
ag330
ag512
ag383
ag502
ag498
ag299
ag325
ag329
ag123
ag221
ag506
ag324
ag499
ag388
ag384
ag492
asg32
I1000
sg33
g332
sg35
g36
sg37
I0
sg38
(iread_data
Room
p957
(dp958
g32
g41
sg33
g42
sbsba(ischedule
Activity
p959
(dp960
g8
(lp961
g172
ag499
ag428
ag161
ag53
ag440
ag666
ag654
ag665
ag607
ag663
ag527
ag659
ag256
ag655
ag122
ag658
ag660
ag667
ag523
asg32
g476
sg33
g477
sg35
g137
sg37
g269
sg38
(iread_data
Room
p962
(dp963
g32
g115
sg33
g116
sbsba(ischedule
Activity
p964
(dp965
g8
(lp966
g149
ag152
ag160
ag168
ag184
ag27
ag154
ag180
ag150
ag183
ag162
ag166
ag146
ag71
ag145
ag159
ag170
ag148
ag175
ag173
ag156
asg32
g938
sg33
g186
sg35
g111
sg37
g269
sg38
(iread_data
Room
p967
(dp968
g32
g90
sg33
g91
sbsbaaa(lp969
(lp970
(ischedule
Activity
p971
(dp972
g8
g844
sg32
I1000
sg33
g609
sg35
g36
sg37
I0
sg38
(iread_data
Room
p973
(dp974
g32
g211
sg33
g212
sbsba(ischedule
Activity
p975
(dp976
g8
(lp977
g302
ag21
ag103
ag279
ag184
ag282
ag351
ag276
ag828
ag48
ag281
asg32
g733
sg33
g287
sg35
g137
sg37
g112
sg38
(iread_data
Room
p978
(dp979
g32
g41
sg33
g42
sbsba(ischedule
Activity
p980
(dp981
g8
(lp982
g515
ag102
aS'28943658'
p983
ag98
ag371
ag277
aS'12782624'
p984
aS'20830477'
p985
ag681
ag809
ag196
ag162
ag634
ag80
ag60
ag447
ag706
ag106
ag522
ag676
ag175
aS'63096281'
p986
ag166
asg32
g234
sg33
g235
sg35
g111
sg37
g333
sg38
(iread_data
Room
p987
(dp988
g32
g140
sg33
g141
sbsba(ischedule
Activity
p989
(dp990
g8
(lp991
g721
ag169
ag625
ag325
ag689
ag159
ag499
ag233
ag869
ag491
ag776
ag450
ag128
ag862
asg32
S'25'
p992
sg33
S'Heuristieken 1'
p993
sg35
g137
sg37
g269
sg38
(iread_data
Room
p994
(dp995
g32
g90
sg33
g91
sbsba(ischedule
Activity
p996
(dp997
g8
(lp998
g627
ag284
ag341
ag204
ag309
ag59
ag157
ag512
ag164
ag72
ag535
ag149
aS'51791169'
p999
aS'90296821'
p1000
ag307
aS'7386961'
p1001
ag22
asg32
g234
sg33
g235
sg35
g111
sg37
g269
sg38
(iread_data
Room
p1002
(dp1003
g32
g115
sg33
g116
sbsbaa(lp1004
(ischedule
Activity
p1005
(dp1006
g8
(lp1007
g576
aS'5526560'
p1008
aS'4529208'
p1009
ag76
ag710
ag324
ag22
ag744
ag161
ag81
ag383
ag159
ag162
ag84
ag540
ag607
ag503
ag863
ag105
ag147
aS'59397895'
p1010
aS'56191333'
p1011
ag414
ag705
ag638
ag545
ag24
ag312
ag531
ag535
ag216
ag703
ag226
ag251
aS'27123462'
p1012
ag123
ag98
ag120
ag861
ag546
ag667
ag598
ag326
ag174
ag19
ag51
ag323
ag75
ag575
ag812
ag634
ag225
ag677
ag166
ag307
aS'58083680'
p1013
aS'15187217'
p1014
aS'13132925'
p1015
ag816
aS'54540997'
p1016
ag10
ag85
ag23
ag196
ag204
ag163
ag578
ag299
ag533
aS'25077484'
p1017
ag65
ag361
asg32
I1000
sg33
S'Databases 2'
p1018
sg35
g36
sg37
I0
sg38
(iread_data
Room
p1019
(dp1020
g32
g41
sg33
g42
sbsba(ischedule
Activity
p1021
(dp1022
g8
(lp1023
g470
ag466
ag328
ag607
ag661
ag199
ag664
ag472
ag172
ag122
ag471
ag666
ag53
ag313
ag653
ag222
ag475
ag663
ag657
ag156
ag659
ag658
ag440
ag660
ag469
asg32
g877
sg33
g477
sg35
g111
sg37
g112
sg38
g668
sba(ischedule
Activity
p1024
(dp1025
g8
(lp1026
g389
ag425
ag537
aS'85284256'
p1027
aS'88519892'
p1028
ag426
ag401
ag765
ag56
ag424
ag526
ag684
aS'26857113'
p1029
asg32
g234
sg33
g235
sg35
g111
sg37
S'6'
p1030
sg38
(iread_data
Room
p1031
(dp1032
g32
g238
sg33
g239
sbsba(ischedule
Activity
p1033
(dp1034
g8
(lp1035
g82
ag55
aS'76802764'
p1036
ag751
ag57
ag885
ag817
ag712
ag24
ag603
ag512
ag819
ag815
ag223
ag573
ag605
ag125
aS'95007221'
p1037
ag620
aS'79033175'
p1038
ag217
ag176
aS'15911353'
p1039
asg32
g909
sg33
g822
sg35
g137
sg37
g269
sg38
(iread_data
Room
p1040
(dp1041
g32
g189
sg33
g190
sbsba(ischedule
Activity
p1042
(dp1043
g8
(lp1044
g81
ag194
ag548
ag554
ag560
ag437
ag541
ag522
ag580
ag282
ag101
ag296
ag562
ag412
ag569
ag293
ag574
asg32
g797
sg33
g581
sg35
g137
sg37
g269
sg38
(iread_data
Room
p1045
(dp1046
g32
g140
sg33
g141
sbsbaa(lp1047
(ischedule
Activity
p1048
(dp1049
g8
(lp1050
g472
ag1038
ag712
ag815
ag446
ag353
ag84
ag526
ag13
ag176
ag217
ag812
ag512
ag666
ag808
ag471
ag809
ag250
ag158
ag664
ag575
ag573
ag541
ag547
ag904
ag500
ag125
ag82
ag412
ag55
ag620
ag492
ag429
ag659
ag810
ag907
ag628
ag452
ag381
ag605
ag1039
ag814
ag811
ag1036
ag199
ag818
ag324
ag751
ag1037
ag223
ag603
ag57
ag175
ag22
ag819
ag502
ag182
ag102
ag218
ag908
ag816
ag885
ag905
ag817
ag151
ag813
ag24
ag820
ag906
asg32
I1000
sg33
g822
sg35
g36
sg37
I0
sg38
(iread_data
Room
p1051
(dp1052
g32
g41
sg33
g42
sbsba(ischedule
Activity
p1053
(dp1054
g8
(lp1055
g414
ag452
ag499
ag428
ag161
ag667
ag204
ag474
ag123
ag363
ag164
ag165
ag654
ag202
ag665
ag256
ag656
ag468
ag216
ag206
ag523
ag662
asg32
g877
sg33
g477
sg35
g111
sg37
g269
sg38
(iread_data
Room
p1056
(dp1057
g32
g140
sg33
g141
sbsba(ischedule
Activity
p1058
(dp1059
g8
(lp1060
g152
ag527
ag155
ag853
ag489
ag27
ag178
ag280
ag883
ag150
ag852
ag313
ag231
ag851
ag500
ag29
ag330
ag173
ag513
ag592
ag714
asg32
g453
sg33
g454
sg35
g111
sg37
g112
sg38
(iread_data
Room
p1061
(dp1062
g32
g211
sg33
g212
sbsba(ischedule
Activity
p1063
(dp1064
g8
(lp1065
g48
ag54
ag19
ag17
ag76
ag80
ag66
ag71
ag61
ag63
ag59
ag85
ag65
ag83
ag46
ag50
ag70
ag60
ag68
ag49
ag78
ag86
ag79
ag72
asg32
S'25'
p1066
sg33
g87
sg35
g137
sg37
g112
sg38
(iread_data
Room
p1067
(dp1068
g32
g90
sg33
g91
sbsbaa(lp1069
(ischedule
Activity
p1070
(dp1071
g8
g1050
sg32
I1000
sg33
g822
sg35
g36
sg37
I0
sg38
(iread_data
Room
p1072
(dp1073
g32
g41
sg33
g42
sbsba(ischedule
Activity
p1074
(dp1075
g8
(lp1076
g20
ag159
ag828
ag862
ag257
ag607
ag811
ag256
ag707
ag869
ag224
ag721
aS'53775014'
p1077
ag625
ag635
aS'97417002'
p1078
ag202
ag689
ag104
ag60
ag233
ag16
aS'87210640'
p1079
ag444
ag280
ag198
ag491
aS'76393508'
p1080
ag985
ag450
ag306
ag128
ag325
aS'45660925'
p1081
ag499
ag169
ag327
ag146
ag301
ag776
ag30
ag12
ag75
ag166
asg32
I1000
sg33
g993
sg35
g36
sg37
I0
sg38
(iread_data
Room
p1082
(dp1083
g32
g189
sg33
g190
sbsba(ischedule
Activity
p1084
(dp1085
g8
(lp1086
g55
ag677
ag678
ag675
ag182
ag309
ag673
ag689
ag681
ag430
ag574
ag313
ag600
ag428
ag684
ag383
ag674
ag680
ag260
ag254
ag686
ag682
ag639
asg32
S'20'
p1087
sg33
g691
sg35
g137
sg37
g112
sg38
(iread_data
Room
p1088
(dp1089
g32
g211
sg33
g212
sbsba(ischedule
Activity
p1090
(dp1091
g8
(lp1092
g121
ag598
ag685
ag132
ag488
ag687
ag690
ag85
ag178
ag688
ag525
ag322
ag676
ag683
ag46
ag679
asg32
g1087
sg33
g691
sg35
g137
sg37
g269
sg38
(iread_data
Room
p1093
(dp1094
g32
g90
sg33
g91
sbsba(ischedule
Activity
p1095
(dp1096
g8
(lp1097
g26
ag28
ag31
ag29
ag21
asg32
g244
sg33
g34
sg35
g137
sg37
g269
sg38
(iread_data
Room
p1098
(dp1099
g32
g238
sg33
g239
sbsbaa(lp1100
(ischedule
Activity
p1101
(dp1102
g8
g956
sg32
I1000
sg33
g332
sg35
g36
sg37
I0
sg38
g668
sba(ischedule
Activity
p1103
(dp1104
g8
(lp1105
g48
ag451
ag325
ag423
ag152
ag424
ag527
ag450
ag442
ag173
ag155
ag438
ag513
ag425
ag853
ag426
ag436
ag74
ag500
ag330
ag10
ag231
ag441
ag427
ag489
ag30
ag313
ag440
ag433
ag428
ag77
ag592
ag95
ag714
ag444
ag15
ag27
ag851
ag437
ag448
ag439
ag429
ag391
ag276
ag353
ag54
ag443
ag154
ag178
ag370
ag446
ag98
ag280
ag63
ag53
ag64
ag49
ag169
ag883
ag430
ag452
ag435
ag124
ag449
ag29
ag50
ag447
ag431
ag434
ag432
ag13
ag158
ag150
ag445
ag852
asg32
I1000
sg33
g454
sg35
g36
sg37
I0
sg38
(iread_data
Room
p1106
(dp1107
g32
g41
sg33
g42
sbsba(ischedule
Activity
p1108
(dp1109
g8
(lp1110
g19
ag76
asg32
g951
sg33
g87
sg35
g111
sg37
g112
sg38
(iread_data
Room
p1111
(dp1112
g32
g140
sg33
g141
sbsba(ischedule
Activity
p1113
(dp1114
g8
(lp1115
g653
ag81
ag656
ag202
ag164
ag662
ag216
ag414
ag156
ag222
ag503
ag661
ag313
ag657
ag664
ag452
asg32
g476
sg33
g477
sg35
g137
sg37
g406
sg38
(iread_data
Room
p1116
(dp1117
g32
g211
sg33
g212
sbsba(ischedule
Activity
p1118
(dp1119
g8
(lp1120
g16
ag199
ag196
ag145
ag339
ag203
ag198
ag128
ag202
ag197
ag341
ag340
ag201
ag200
ag195
ag204
ag205
ag206
ag342
ag194
asg32
S'15'
p1121
sg33
g208
sg35
g137
sg37
g112
sg38
(iread_data
Room
p1122
(dp1123
g32
g238
sg33
g239
sbsba(ischedule
Activity
p1124
(dp1125
g8
(lp1126
g100
ag255
ag174
ag252
ag257
ag225
ag250
ag711
ag253
ag256
ag153
ag259
ag310
ag254
ag260
ag251
ag258
ag96
ag488
ag79
asg32
I1000
sg33
g262
sg35
g36
sg37
I0
sg38
(iread_data
Room
p1127
(dp1128
g32
g115
sg33
g116
sbsba(ischedule
Activity
p1129
(dp1130
g8
(lp1131
g1008
ag324
ag159
ag1011
ag312
ag703
ag123
ag598
ag812
ag225
ag196
ag531
ag22
ag634
ag216
ag84
ag578
ag545
ag251
ag1016
ag638
ag307
ag1015
ag575
ag19
ag710
ag744
ag1009
ag65
ag1014
asg32
S'40'
p1132
sg33
g1018
sg35
g137
sg37
g269
sg38
g734
sbaaa(lp1133
(lp1134
(ischedule
Activity
p1135
(dp1136
g8
(lp1137
g152
ag500
ag10
ag77
ag95
ag437
ag353
ag443
ag178
ag53
ag49
ag452
ag430
ag445
ag436
ag64
ag27
ag448
ag432
ag883
ag15
ag154
ag431
ag451
ag169
ag150
ag427
ag155
ag124
ag441
ag433
ag158
ag425
ag527
ag434
ag449
ag50
ag280
ag63
ag231
asg32
g854
sg33
g454
sg35
g137
sg37
g112
sg38
(iread_data
Room
p1138
(dp1139
g32
g211
sg33
g212
sbsba(ischedule
Activity
p1140
(dp1141
g8
g956
sg32
I1000
sg33
g332
sg35
g36
sg37
I0
sg38
(iread_data
Room
p1142
(dp1143
g32
g41
sg33
g42
sbsba(ischedule
Activity
p1144
(dp1145
g8
(lp1146
g172
ag149
ag365
ag370
ag360
ag371
ag349
ag84
ag30
ag355
ag364
ag361
ag367
ag363
asg32
g135
sg33
g136
sg35
g137
sg37
g406
sg38
(iread_data
Room
p1147
(dp1148
g32
g238
sg33
g239
sbsba(ischedule
Activity
p1149
(dp1150
g8
(lp1151
g20
ag828
ag257
ag707
ag224
ag104
ag1079
ag280
ag327
ag1078
ag60
ag12
ag985
ag16
ag75
ag146
ag811
ag30
ag607
ag1077
ag256
ag198
ag306
ag635
ag1080
ag1081
ag444
ag166
ag301
ag202
asg32
g992
sg33
g993
sg35
g137
sg37
g112
sg38
(iread_data
Room
p1152
(dp1153
g32
g140
sg33
g141
sbsba(ischedule
Activity
p1154
(dp1155
g8
(lp1156
g623
ag304
ag776
aS'13798030'
p1157
ag259
ag700
ag471
ag430
ag203
ag815
ag76
ag853
ag869
ag100
ag386
ag428
ag812
ag598
ag488
aS'59289233'
p1158
ag556
asg32
I1000
sg33
S'Architectuur en computerorganisatie'
p1159
sg35
g36
sg37
I0
sg38
(iread_data
Room
p1160
(dp1161
g32
g90
sg33
g91
sbsba(ischedule
Activity
p1162
(dp1163
g8
(lp1164
g56
asg32
g1121
sg33
g208
sg35
g137
sg37
g269
sg38
(iread_data
Room
p1165
(dp1166
g32
g115
sg33
g116
sbsba(ischedule
Activity
p1167
(dp1168
g8
(lp1169
g1038
ag353
ag526
ag176
ag666
ag573
ag82
ag55
ag492
ag907
ag751
ag22
ag502
ag412
ag13
ag603
ag472
ag512
ag905
ag628
ag1036
ag906
ag24
ag885
ag620
ag904
ag182
ag908
ag223
ag57
ag1039
ag446
ag1037
ag471
ag151
asg32
g821
sg33
g822
sg35
g111
sg37
g269
sg38
(iread_data
Room
p1170
(dp1171
g32
g189
sg33
g190
sbsbaa(lp1172
(ischedule
Activity
p1173
(dp1174
g8
g619
sg32
I1000
sg33
g641
sg35
g36
sg37
I0
sg38
(iread_data
Room
p1175
(dp1176
g32
g90
sg33
g91
sbsba(ischedule
Activity
p1177
(dp1178
g8
g144
sg32
I1000
sg33
g186
sg35
g36
sg37
I0
sg38
(iread_data
Room
p1179
(dp1180
g32
g41
sg33
g42
sbsba(ischedule
Activity
p1181
(dp1182
g8
(lp1183
g100
ag310
ag488
ag711
asg32
g261
sg33
g262
sg35
g111
sg37
g269
sg38
(iread_data
Room
p1184
(dp1185
g32
g238
sg33
g239
sbsba(ischedule
Activity
p1186
(dp1187
g8
(lp1188
g385
aS'90067329'
p1189
ag231
ag700
aS'67625383'
p1190
ag80
ag156
ag22
ag362
ag905
ag771
ag95
ag358
ag229
ag526
ag653
aS'33252501'
p1191
ag1029
ag815
ag904
ag360
ag74
asg32
I1000
sg33
S'Machine Learning'
p1192
sg35
g36
sg37
I0
sg38
(iread_data
Room
p1193
(dp1194
g32
g115
sg33
g116
sbsba(ischedule
Activity
p1195
(dp1196
g8
(lp1197
g686
ag574
ag322
ag682
ag254
ag675
ag430
ag681
ag309
asg32
g791
sg33
g691
sg35
g111
sg37
g112
sg38
(iread_data
Room
p1198
(dp1199
g32
g140
sg33
g141
sbsbaa(lp1200
(ischedule
Activity
p1201
(dp1202
g8
(lp1203
g76
ag151
ag258
ag160
ag501
ag503
ag309
ag220
ag502
ag491
ag512
ag123
ag498
ag23
ag488
ag499
ag120
ag326
ag71
ag505
ag492
ag506
asg32
g392
sg33
g332
sg35
g111
sg37
g112
sg38
(iread_data
Room
p1204
(dp1205
g32
g115
sg33
g116
sbsba(ischedule
Activity
p1206
(dp1207
g8
(lp1208
g524
ag526
ag529
ag530
ag531
ag532
ag534
ag162
ag537
ag11
ag547
ag17
ag360
ag382
ag558
ag438
ag563
ag175
ag146
ag570
ag435
ag573
ag575
ag155
ag523
ag466
ag566
ag165
ag474
ag525
ag450
ag311
ag546
ag436
ag536
ag544
ag577
ag578
ag432
ag528
ag552
ag164
ag96
ag527
ag557
ag579
ag549
asg32
g797
sg33
g581
sg35
g137
sg37
g406
sg38
(iread_data
Room
p1209
(dp1210
g32
g90
sg33
g91
sbsba(ischedule
Activity
p1211
(dp1212
g8
(lp1213
g47
ag53
ag55
ag57
ag67
ag73
ag81
ag84
ag77
ag82
ag69
ag74
ag56
ag64
ag75
ag58
ag52
ag62
ag51
asg32
g1066
sg33
g87
sg35
g137
sg37
g269
sg38
(iread_data
Room
p1214
(dp1215
g32
g41
sg33
g42
sbsba(ischedule
Activity
p1216
(dp1217
g8
(lp1218
g20
ag126
asg32
g733
sg33
g287
sg35
g137
sg37
g269
sg38
(iread_data
Room
p1219
(dp1220
g32
g140
sg33
g141
sbsba(ischedule
Activity
p1221
(dp1222
g8
(lp1223
g515
ag330
ag514
ag325
ag513
ag329
ag321
ag327
ag202
ag72
asg32
g392
sg33
g332
sg35
g111
sg37
g406
sg38
(iread_data
Room
p1224
(dp1225
g32
g238
sg33
g239
sbsba(ischedule
Activity
p1226
(dp1227
g8
(lp1228
g176
ag80
aS'25994016'
p1229
ag819
aS'55480737'
p1230
aS'74361881'
p1231
ag231
ag127
ag353
ag550
ag1008
ag543
ag702
ag748
ag1017
ag387
ag381
asg32
g415
sg33
g416
sg35
g111
sg37
g112
sg38
(iread_data
Room
p1232
(dp1233
g32
g211
sg33
g212
sbsba(ischedule
Activity
p1234
(dp1235
g8
(lp1236
g653
ag431
ag571
ag808
ag774
ag95
ag198
aS'54395877'
p1237
ag541
ag308
ag86
ag296
ag766
ag746
ag275
ag324
ag683
asg32
g234
sg33
g235
sg35
g111
sg37
g406
sg38
(iread_data
Room
p1238
(dp1239
g32
g189
sg33
g190
sbsbaa(lp1240
(ischedule
Activity
p1241
(dp1242
g8
(lp1243
g383
ag503
ag105
ag414
ag24
ag98
ag667
ag326
ag323
ag677
ag204
ag533
ag607
ag85
ag120
ag174
ag546
ag163
ag147
ag226
ag1010
ag299
ag75
ag81
ag863
ag540
ag51
ag162
ag10
ag23
ag1012
ag861
ag166
ag1013
ag161
ag705
ag535
ag1017
ag76
ag361
ag816
ag576
asg32
g1132
sg33
g1018
sg35
g137
sg37
g112
sg38
g798
sba(ischedule
Activity
p1244
(dp1245
g8
(lp1246
g154
ag67
ag96
ag635
ag774
ag525
ag200
aS'1695839'
p1247
aS'55103073'
p1248
aS'47260040'
p1249
aS'91250534'
p1250
ag1231
ag597
ag1229
ag106
ag907
aS'44151631'
p1251
ag860
ag754
ag342
ag321
asg32
g404
sg33
g405
sg35
g111
sg37
g112
sg38
g668
sba(ischedule
Activity
p1252
(dp1253
g8
(lp1254
S'64246605'
p1255
ag251
ag703
ag425
ag82
ag605
ag491
ag537
ag920
ag302
ag16
ag168
ag1027
aS'19058315'
p1256
ag572
ag252
aS'12170832'
p1257
asg32
g109
sg33
g110
sg35
g111
sg37
g269
sg38
(iread_data
Room
p1258
(dp1259
g32
g238
sg33
g239
sbsba(ischedule
Activity
p1260
(dp1261
g8
g1156
sg32
I1000
sg33
g1159
sg35
g36
sg37
I0
sg38
(iread_data
Room
p1262
(dp1263
g32
g211
sg33
g212
sbsba(ischedule
Activity
p1264
(dp1265
g8
(lp1266
g121
aS'25557516'
p1267
ag177
aS'123355'
p1268
ag222
ag382
ag512
ag60
ag433
ag340
aS'53267490'
p1269
ag628
aS'5590289'
p1270
ag1011
ag64
ag160
ag303
ag781
ag439
asg32
g109
sg33
g110
sg35
g111
sg37
g406
sg38
(iread_data
Room
p1271
(dp1272
g32
g41
sg33
g42
sbsba(ischedule
Activity
p1273
(dp1274
g8
(lp1275
g151
ag167
ag172
ag153
ag157
ag68
ag179
ag185
ag169
ag176
ag182
ag181
ag165
asg32
g938
sg33
g186
sg35
g111
sg37
g112
sg38
(iread_data
Room
p1276
(dp1277
g32
g115
sg33
g116
sbsba(ischedule
Activity
p1278
(dp1279
g8
g943
sg32
I1000
sg33
g287
sg35
g36
sg37
I0
sg38
(iread_data
Room
p1280
(dp1281
g32
g189
sg33
g190
sbsbaa(lp1282
(ischedule
Activity
p1283
(dp1284
g8
g348
sg32
I1000
sg33
g136
sg35
g36
sg37
I0
sg38
(iread_data
Room
p1285
(dp1286
g32
g189
sg33
g190
sbsba(ischedule
Activity
p1287
(dp1288
g8
g672
sg32
I1000
sg33
g691
sg35
g36
sg37
I0
sg38
(iread_data
Room
p1289
(dp1290
g32
g140
sg33
g141
sbsba(ischedule
Activity
p1291
(dp1292
g8
g1188
sg32
I1000
sg33
g1192
sg35
g36
sg37
I0
sg38
(iread_data
Room
p1293
(dp1294
g32
g90
sg33
g91
sbsba(ischedule
Activity
p1295
(dp1296
g8
g761
sg32
I1000
sg33
g785
sg35
g36
sg37
I0
sg38
g1051
sba(ischedule
Activity
p1297
(dp1298
g8
(lp1299
g165
ag620
ag556
ag16
ag127
ag445
ag57
ag228
ag845
asg32
g608
sg33
g609
sg35
g137
sg37
g269
sg38
(iread_data
Room
p1300
(dp1301
g32
g238
sg33
g239
sbsba(ischedule
Activity
p1302
(dp1303
g8
(lp1304
g100
ag659
ag148
ag158
ag575
ag746
ag814
ag284
aS'37419523'
p1305
aS'90103047'
p1306
ag492
aS'21070547'
p1307
ag810
ag747
aS'32183908'
p1308
ag150
aS'81116418'
p1309
ag593
asg32
g725
sg33
g726
sg35
g111
sg37
g406
sg38
(iread_data
Room
p1310
(dp1311
g32
g115
sg33
g116
sbsba(ischedule
Activity
p1312
(dp1313
g8
(lp1314
g299
ag302
ag19
ag311
ag308
ag309
ag306
ag307
ag66
ag304
ag300
ag295
ag298
ag314
ag293
ag312
ag303
asg32
g947
sg33
g315
sg35
g137
sg37
g269
sg38
(iread_data
Room
p1315
(dp1316
g32
g211
sg33
g212
sbsbaaa(lp1317
(lp1318
a(lp1319
a(lp1320
a(lp1321
a(lp1322
aasS'timeslot_dict'
p1323
(dp1324
I0
S'9:00-11:00'
p1325
sI1
S'11:00-13:00'
p1326
sI2
S'13:00-15:00'
p1327
sI3
S'15:00-17:00'
p1328
sI4
S'17:00-19:00'
p1329
ssS'day_dict'
p1330
(dp1331
I0
S'Monday'
p1332
sI1
S'Tuesday'
p1333
sI2
S'Wednesday'
p1334
sI3
S'Thursday'
p1335
sI4
S'Friday'
p1336
ssb.