(ischedule
Schedule
p0
(dp1
S'timetable'
p2
(lp3
(lp4
(lp5
(ischedule
Activity
p6
(dp7
S'participants'
p8
(lp9
S'4709948'
p10
aS'70072978'
p11
aS'59111489'
p12
aS'46570285'
p13
aS'75997788'
p14
aS'1766560'
p15
aS'58592894'
p16
aS'85335143'
p17
aS'83415514'
p18
aS'13911001'
p19
aS'75521763'
p20
aS'49219163'
p21
aS'48198668'
p22
aS'58699305'
p23
aS'27916487'
p24
aS'30658799'
p25
aS'15051051'
p26
aS'24277163'
p27
asS'capacity'
p28
S'20'
p29
sS'name'
p30
S'Moderne Databases'
p31
sS'ttype'
p32
S'tutorials'
p33
sS'group_id'
p34
S'1'
p35
sS'room'
p36
(iread_data
Room
p37
(dp38
g28
S'48'
p39
sg30
S'B0.201'
p40
sbsba(ischedule
Activity
p41
(dp42
g8
(lp43
S'30050930'
p44
aS'70878567'
p45
aS'73236988'
p46
aS'5298748'
p47
aS'64600457'
p48
aS'6913074'
p49
aS'30195935'
p50
aS'58522654'
p51
aS'22731474'
p52
aS'6723948'
p53
aS'22826928'
p54
aS'74131924'
p55
aS'96453361'
p56
ag17
aS'43680781'
p57
aS'66120270'
p58
asg28
S'20'
p59
sg30
S'Bioinformatica'
p60
sg32
g33
sg34
S'3'
p61
sg36
(iread_data
Room
p62
(dp63
g28
S'20'
p64
sg30
S'A1.08'
p65
sbsba(ischedule
Activity
p66
(dp67
g8
(lp68
S'29526540'
p69
aS'51566595'
p70
aS'43027916'
p71
aS'56749879'
p72
aS'86180471'
p73
aS'670011'
p74
aS'26406342'
p75
aS'73823548'
p76
aS'88752563'
p77
aS'11996292'
p78
aS'58332004'
p79
aS'247918'
p80
ag27
aS'17222374'
p81
aS'90474003'
p82
aS'82689818'
p83
aS'76123484'
p84
ag16
aS'13132925'
p85
aS'43902015'
p86
aS'5085194'
p87
aS'37701751'
p88
aS'42196732'
p89
aS'51542218'
p90
aS'39459642'
p91
aS'49631542'
p92
aS'59397895'
p93
aS'56191333'
p94
aS'40141996'
p95
aS'58083680'
p96
aS'5526560'
p97
aS'64296965'
p98
aS'96054456'
p99
aS'56121590'
p100
asg28
S'40'
p101
sg30
S'Databases 2'
p102
sg32
g33
sg34
S'2'
p103
sg36
(iread_data
Room
p104
(dp105
g28
S'41'
p106
sg30
S'A1.04'
p107
sbsba(ischedule
Activity
p108
(dp109
g8
(lp110
S'37399898'
p111
aS'48308205'
p112
ag74
aS'74182182'
p113
aS'14591033'
p114
aS'80998260'
p115
aS'83210352'
p116
aS'54074680'
p117
aS'56872729'
p118
aS'94955328'
p119
aS'23565001'
p120
aS'5517869'
p121
aS'42778953'
p122
aS'31416266'
p123
ag89
aS'38499176'
p124
aS'35330349'
p125
aS'32595335'
p126
aS'80709893'
p127
aS'71839156'
p128
aS'77896638'
p129
aS'79617364'
p130
aS'81385263'
p131
aS'41578612'
p132
aS'94686490'
p133
aS'61060652'
p134
aS'87758823'
p135
aS'52311353'
p136
aS'16333449'
p137
aS'91196968'
p138
aS'81218347'
p139
aS'96118484'
p140
aS'93566383'
p141
aS'36508571'
p142
aS'34588570'
p143
aS'42115591'
p144
aS'55474917'
p145
aS'16011419'
p146
aS'36527838'
p147
aS'79937969'
p148
aS'4921119'
p149
aS'3474870'
p150
aS'62872965'
p151
aS'21311067'
p152
aS'75005528'
p153
aS'66570705'
p154
aS'26172512'
p155
aS'10149535'
p156
aS'55412918'
p157
aS'90743504'
p158
aS'16097870'
p159
aS'58866007'
p160
aS'34243356'
p161
aS'68409833'
p162
asg28
I1000
sg30
S'Lineaire Algebra'
p163
sg32
S'lectures'
p164
sg34
I0
sg36
(iread_data
Room
p165
(dp166
g28
S'56'
p167
sg30
S'A1.10'
p168
sbsba(ischedule
Activity
p169
(dp170
g8
(lp171
S'64228258'
p172
aS'33877725'
p173
aS'76648468'
p174
aS'22288615'
p175
aS'20618153'
p176
aS'76903244'
p177
aS'89180944'
p178
aS'94930277'
p179
aS'66034145'
p180
aS'14303208'
p181
aS'61443567'
p182
aS'49908313'
p183
aS'53202517'
p184
aS'27064249'
p185
aS'1137946'
p186
aS'10698627'
p187
aS'77392404'
p188
aS'14847953'
p189
aS'43460038'
p190
asg28
S'20'
p191
sg30
S'Webprogrammeren en databases'
p192
sg32
S'labs'
p193
sg34
g35
sg36
(iread_data
Room
p194
(dp195
g28
S'22'
p196
sg30
S'A1.06'
p197
sbsba(ischedule
Activity
p198
(dp199
g8
(lp200
S'99272880'
p201
aS'20830477'
p202
aS'62105897'
p203
aS'3678531'
p204
aS'15249775'
p205
aS'9332762'
p206
aS'17823206'
p207
aS'23658570'
p208
aS'7492204'
p209
aS'36903574'
p210
aS'88519892'
p211
aS'23391676'
p212
aS'51593625'
p213
aS'73196865'
p214
aS'94687383'
p215
aS'92977271'
p216
aS'77960666'
p217
aS'37744525'
p218
asg28
S'20'
p219
sg30
S'Programmeren in Java 2'
p220
sg32
g193
sg34
S'6'
p221
sg36
(iread_data
Room
p222
(dp223
g28
S'60'
p224
sg30
S'C1.112'
p225
sbsba(ischedule
Activity
p226
(dp227
g8
(lp228
S'31103066'
p229
aS'48357272'
p230
aS'58565406'
p231
aS'45915482'
p232
aS'89338938'
p233
aS'22323043'
p234
aS'59544049'
p235
aS'70015932'
p236
aS'77376714'
p237
aS'13718298'
p238
aS'82872148'
p239
aS'22871048'
p240
aS'58074656'
p241
ag145
aS'65318664'
p242
aS'14671406'
p243
ag178
aS'28357474'
p244
aS'99283252'
p245
ag162
aS'26260141'
p246
aS'31633723'
p247
aS'27950803'
p248
aS'4783858'
p249
aS'41153310'
p250
aS'78443067'
p251
aS'95631564'
p252
ag144
aS'78243495'
p253
ag203
aS'41527759'
p254
aS'88176729'
p255
aS'73302736'
p256
aS'52552718'
p257
aS'44868097'
p258
aS'11068043'
p259
aS'84110134'
p260
aS'62356458'
p261
aS'54026378'
p262
aS'37830626'
p263
aS'60312776'
p264
ag46
asg28
S'40'
p265
sg30
S'Software engineering'
p266
sg32
g33
sg34
g35
sg36
(iread_data
Room
p267
(dp268
g28
S'117'
p269
sg30
S'C0.110'
p270
sbsbaa(lp271
(ischedule
Activity
p272
(dp273
g8
(lp274
g70
ag136
aS'37110913'
p275
aS'66122625'
p276
aS'19337738'
p277
ag45
aS'50143947'
p278
aS'81200278'
p279
aS'87314964'
p280
aS'81022997'
p281
ag55
aS'93023961'
p282
aS'59753700'
p283
aS'99453514'
p284
aS'13996448'
p285
asg28
S'10'
p286
sg30
S'Data Mining'
p287
sg32
g193
sg34
g61
sg36
(iread_data
Room
p288
(dp289
g28
g64
sg30
g65
sbsba(ischedule
Activity
p290
(dp291
g8
(lp292
g229
aS'9287708'
p293
aS'48601268'
p294
aS'4568018'
p295
ag230
ag254
ag231
aS'89985072'
p296
ag232
aS'94467156'
p297
ag233
ag255
ag234
ag116
ag235
aS'14309255'
p298
aS'96554914'
p299
ag256
ag236
aS'5976174'
p300
ag237
ag264
ag238
ag127
aS'11915563'
p301
aS'4546613'
p302
ag259
aS'40343779'
p303
ag239
aS'3727435'
p304
ag240
ag190
ag241
ag136
aS'65408517'
p305
ag134
aS'25106480'
p306
ag258
ag145
aS'52715680'
p307
ag242
ag173
ag243
ag260
ag178
ag278
ag244
aS'29640619'
p308
ag245
ag261
aS'1048485'
p309
aS'31247305'
p310
ag162
ag213
ag246
ag218
ag247
ag263
ag248
aS'14072826'
p311
ag249
aS'27582862'
p312
ag250
aS'21095566'
p313
ag251
ag257
aS'3233378'
p314
ag262
ag252
ag46
ag144
aS'75599734'
p315
ag253
aS'44671041'
p316
ag203
asg28
I1000
sg30
g266
sg32
g164
sg34
I0
sg36
(iread_data
Room
p317
(dp318
g28
g269
sg30
g270
sbsba(ischedule
Activity
p319
(dp320
g8
(lp321
g189
aS'60352393'
p322
aS'78136904'
p323
ag14
aS'28618400'
p324
aS'23547619'
p325
aS'47477884'
p326
ag185
aS'72577292'
p327
aS'86807027'
p328
aS'62613937'
p329
aS'40633534'
p330
aS'39429093'
p331
aS'70844780'
p332
asg28
S'10'
p333
sg30
S'Advanced Heuristics'
p334
sg32
g193
sg34
g103
sg36
(iread_data
Room
p335
(dp336
g28
g39
sg30
g40
sbsba(ischedule
Activity
p337
(dp338
g8
(lp339
S'3168419'
p340
ag99
aS'77831658'
p341
aS'21964491'
p342
aS'7308727'
p343
ag114
aS'56815156'
p344
aS'33930505'
p345
aS'24613625'
p346
aS'20883994'
p347
ag56
ag279
ag69
ag48
aS'14816774'
p348
aS'21029457'
p349
ag52
asg28
S'20'
p350
sg30
g60
sg32
g193
sg34
g103
sg36
(iread_data
Room
p351
(dp352
g28
g167
sg30
g168
sbsba(ischedule
Activity
p353
(dp354
g8
(lp355
S'23257088'
p356
aS'33776961'
p357
aS'79879876'
p358
aS'48503689'
p359
aS'70113753'
p360
aS'63111000'
p361
aS'46701583'
p362
aS'15902055'
p363
aS'44391517'
p364
aS'58469172'
p365
aS'90296821'
p366
aS'64393888'
p367
ag129
aS'54395877'
p368
aS'64947290'
p369
ag111
aS'37279234'
p370
aS'23215240'
p371
asg28
g219
sg30
g220
sg32
g193
sg34
g35
sg36
(iread_data
Room
p372
(dp373
g28
g224
sg30
g225
sbsba(ischedule
Activity
p374
(dp375
g8
(lp376
S'75664412'
p377
ag233
aS'21192048'
p378
ag234
aS'6249823'
p379
aS'14383795'
p380
aS'69086548'
p381
aS'70336464'
p382
aS'32204977'
p383
aS'4697362'
p384
ag20
aS'40434933'
p385
ag57
aS'44901052'
p386
aS'77636749'
p387
ag156
ag78
ag17
aS'97371272'
p388
aS'31194811'
p389
aS'47982619'
p390
ag298
ag206
aS'68315599'
p391
aS'76487754'
p392
ag75
ag325
ag275
aS'77264363'
p393
aS'36785409'
p394
ag112
aS'93041523'
p395
aS'12077419'
p396
aS'12430748'
p397
ag132
aS'7106649'
p398
ag231
aS'92496780'
p399
asg28
I1000
sg30
S'Technology for games'
p400
sg32
g164
sg34
I0
sg36
(iread_data
Room
p401
(dp402
g28
g106
sg30
g107
sbsbaa(lp403
(ischedule
Activity
p404
(dp405
g8
(lp406
S'51509565'
p407
ag300
aS'19540225'
p408
aS'88596522'
p409
aS'27298319'
p410
ag16
aS'41585485'
p411
aS'86988337'
p412
aS'44828429'
p413
ag363
ag131
aS'8522855'
p414
ag254
ag83
aS'72895450'
p415
aS'64554442'
p416
ag369
ag313
ag396
aS'1665980'
p417
asg28
S'25'
p418
sg30
S'Algoritmen en complexiteit'
p419
sg32
g193
sg34
g103
sg36
(iread_data
Room
p420
(dp421
g28
g196
sg30
g197
sbsba(ischedule
Activity
p422
(dp423
g8
(lp424
g245
ag178
ag237
aS'84449005'
p425
ag361
aS'13218321'
p426
ag57
ag48
ag69
aS'51650744'
p427
aS'3883025'
p428
aS'78544592'
p429
ag81
aS'66621166'
p430
aS'83266686'
p431
aS'41489515'
p432
aS'50184318'
p433
ag121
asg28
g29
sg30
g31
sg32
g33
sg34
g103
sg36
(iread_data
Room
p434
(dp435
g28
g64
sg30
g65
sbsba(ischedule
Activity
p436
(dp437
g8
(lp438
g210
aS'21677389'
p439
aS'59075181'
p440
ag239
ag308
aS'7957843'
p441
aS'123355'
p442
aS'87830198'
p443
ag131
aS'63573738'
p444
ag345
aS'59887191'
p445
ag310
asg28
S'20'
p446
sg30
S'Netwerken en systeembeveiliging'
p447
sg32
g193
sg34
S'4'
p448
sg36
(iread_data
Room
p449
(dp450
g28
g269
sg30
g270
sbsba(ischedule
Activity
p451
(dp452
g8
(lp453
g45
ag342
ag284
ag285
aS'68360259'
p454
ag70
ag283
ag234
ag136
ag55
ag207
aS'45414528'
p455
ag282
ag281
aS'98780382'
p456
ag218
ag138
aS'87900893'
p457
ag280
aS'97136582'
p458
ag275
aS'25330192'
p459
aS'13116738'
p460
ag276
ag279
ag278
ag277
asg28
I1000
sg30
g287
sg32
g164
sg34
I0
sg36
(iread_data
Room
p461
(dp462
g28
g106
sg30
g107
sbsba(ischedule
Activity
p463
(dp464
g8
(lp465
S'61518436'
p466
ag238
ag54
aS'38296757'
p467
ag394
aS'3685034'
p468
aS'84524083'
p469
ag47
ag284
ag307
aS'13092455'
p470
ag357
aS'42406214'
p471
aS'49922855'
p472
ag82
aS'60661905'
p473
ag323
ag299
ag111
ag188
aS'68286356'
p474
aS'13658563'
p475
ag425
aS'57086672'
p476
ag217
aS'27805666'
p477
aS'20095994'
p478
aS'51415617'
p479
aS'99975346'
p480
ag332
ag10
aS'82390428'
p481
ag132
aS'36213792'
p482
ag283
ag248
aS'54569540'
p483
ag27
aS'92778619'
p484
aS'32044893'
p485
ag275
ag57
aS'27370083'
p486
ag443
ag322
ag240
aS'51052738'
p487
ag412
aS'70193386'
p488
aS'20239127'
p489
ag49
asg28
I1000
sg30
S'Reflectie op de digitale cultuur'
p490
sg32
g164
sg34
I0
sg36
(iread_data
Room
p491
(dp492
g28
g224
sg30
g225
sbsba(ischedule
Activity
p493
(dp494
g8
(lp495
S'27187154'
p496
aS'10792879'
p497
aS'5595824'
p498
aS'3407554'
p499
aS'65960683'
p500
ag298
ag53
ag391
aS'34872117'
p501
aS'76661016'
p502
ag252
aS'49683101'
p503
ag15
ag131
ag264
aS'92665222'
p504
aS'72796858'
p505
aS'66701209'
p506
ag377
ag412
ag389
ag315
aS'11741347'
p507
ag364
ag346
aS'75759231'
p508
aS'40791377'
p509
aS'46989508'
p510
ag77
ag122
ag441
ag161
aS'76802764'
p511
aS'9067939'
p512
aS'80135353'
p513
ag359
ag431
asg28
S'40'
p514
sg30
S'Compilerbouw'
p515
sg32
g193
sg34
g103
sg36
(iread_data
Room
p516
(dp517
g28
g167
sg30
g168
sbsba(ischedule
Activity
p518
(dp519
g8
(lp520
g499
aS'65675896'
p521
aS'41644639'
p522
ag383
ag181
aS'51472074'
p523
ag128
aS'64418623'
p524
aS'63634350'
p525
aS'42297781'
p526
aS'535689'
p527
aS'5892092'
p528
ag296
ag371
asg28
S'15'
p529
sg30
S'Compilerbouw practicum'
p530
sg32
g193
sg34
g61
sg36
(iread_data
Room
p531
(dp532
g28
g39
sg30
g40
sbsbaa(lp533
(ischedule
Activity
p534
(dp535
g8
(lp536
g258
ag340
ag44
ag72
ag99
ag45
ag80
ag347
ag46
ag279
ag341
ag47
ag130
ag342
ag48
ag56
ag235
ag69
ag26
ag55
ag173
ag348
ag259
ag49
ag58
aS'28359697'
p537
ag50
ag17
ag343
ag51
ag184
ag89
ag52
ag295
ag114
ag53
ag255
ag344
ag296
ag57
ag345
ag262
ag349
ag346
ag54
asg28
I1000
sg30
g60
sg32
g164
sg34
I0
sg36
g165
sba(ischedule
Activity
p538
(dp539
g8
(lp540
g248
ag415
aS'88855695'
p541
aS'13284244'
p542
aS'5368702'
p543
aS'37770881'
p544
aS'98105190'
p545
ag112
ag46
ag51
ag396
ag469
aS'34110913'
p546
aS'86291592'
p547
aS'2079771'
p548
aS'43689934'
p549
aS'8464817'
p550
ag184
ag129
ag301
ag215
aS'79167252'
p551
aS'95007221'
p552
aS'79033175'
p553
ag25
aS'65852230'
p554
aS'54772132'
p555
aS'15911353'
p556
aS'2317551'
p557
ag19
aS'88636924'
p558
ag91
asg28
g514
sg30
g515
sg32
g193
sg34
g35
sg36
(iread_data
Room
p559
(dp560
g28
g39
sg30
g40
sbsba(ischedule
Activity
p561
(dp562
g8
(lp563
g156
aS'27925117'
p564
ag190
ag324
ag327
aS'59289233'
p565
aS'20331158'
p566
ag503
aS'45556081'
p567
ag385
ag83
aS'23798155'
p568
aS'29718115'
p569
aS'14138904'
p570
aS'72683344'
p571
ag431
ag160
ag236
ag501
aS'13798030'
p572
ag178
asg28
I1000
sg30
S'Architectuur en computerorganisatie'
p573
sg32
g164
sg34
I0
sg36
(iread_data
Room
p574
(dp575
g28
g106
sg30
g107
sbsba(ischedule
Activity
p576
(dp577
g8
(lp578
S'31897288'
p579
ag70
aS'87602030'
p580
ag159
aS'34765676'
p581
aS'48678993'
p582
aS'72652638'
p583
aS'33760909'
p584
aS'52304977'
p585
aS'83869542'
p586
aS'5739011'
p587
aS'58040377'
p588
ag476
ag74
asg28
S'20'
p589
sg30
S'Heuristieken 2'
p590
sg32
g33
sg34
g35
sg36
(iread_data
Room
p591
(dp592
g28
g64
sg30
g65
sbsba(ischedule
Activity
p593
(dp594
g8
(lp595
S'11459236'
p596
ag475
aS'17496687'
p597
ag20
aS'18266644'
p598
ag356
ag387
ag460
aS'75585647'
p599
aS'19958553'
p600
asg28
S'15'
p601
sg30
S'Informatie- en organsatieontwerp'
p602
sg32
g193
sg34
g103
sg36
(iread_data
Room
p603
(dp604
g28
g224
sg30
g225
sbsba(ischedule
Activity
p605
(dp606
g8
(lp607
S'27241113'
p608
ag147
aS'47462856'
p609
ag298
aS'78821918'
p610
aS'36748818'
p611
ag79
ag391
aS'96082155'
p612
ag78
ag507
ag253
aS'42171678'
p613
aS'1181560'
p614
ag92
aS'18144425'
p615
ag251
ag357
asg28
g29
sg30
g31
sg32
g33
sg34
g61
sg36
(iread_data
Room
p616
(dp617
g28
g269
sg30
g270
sbsba(ischedule
Activity
p618
(dp619
g8
(lp620
g46
ag444
ag113
ag259
ag264
aS'19214659'
p621
aS'40911986'
p622
ag233
aS'63939720'
p623
ag468
aS'21070547'
p624
ag397
ag285
ag261
ag485
ag328
aS'90103047'
p625
ag471
asg28
S'15'
p626
sg30
S'Project Numerical Recipes'
p627
sg32
g193
sg34
g61
sg36
(iread_data
Room
p628
(dp629
g28
g196
sg30
g197
sbsbaa(lp630
(ischedule
Activity
p631
(dp632
g8
(lp633
g579
ag202
aS'1696500'
p634
ag179
ag249
ag358
ag216
ag566
ag570
ag348
ag20
ag386
ag295
ag240
ag128
aS'97019450'
p635
aS'58736785'
p636
ag139
aS'45660925'
p637
aS'19858730'
p638
ag14
ag275
ag440
aS'53107172'
p639
ag230
asg28
S'25'
p640
sg30
S'Heuristieken 1'
p641
sg32
g33
sg34
g35
sg36
(iread_data
Room
p642
(dp643
g28
g39
sg30
g40
sbsba(ischedule
Activity
p644
(dp645
g8
(lp646
g248
ag496
ag415
ag497
ag441
ag498
ag541
ag499
ag557
ag500
ag542
ag298
ag543
ag25
ag544
ag513
ag545
ag510
ag112
ag53
ag46
ag553
ag555
ag391
ag51
ag552
ag396
ag501
ag77
ag502
ag469
ag252
ag346
ag503
ag359
ag15
ag508
ag131
ag546
ag558
ag547
ag264
ag122
ag504
ag548
ag19
ag511
ag505
ag549
ag506
ag512
ag377
ag550
ag91
ag161
ag412
ag431
ag554
ag184
ag389
ag129
ag556
ag509
ag315
ag301
ag507
ag215
ag364
ag551
asg28
I1000
sg30
g515
sg32
g164
sg34
I0
sg36
(iread_data
Room
p647
(dp648
g28
g269
sg30
g270
sbsba(ischedule
Activity
p649
(dp650
g8
(lp651
g172
aS'2416751'
p652
ag189
ag385
ag173
ag415
ag253
ag86
ag379
aS'17092717'
p653
ag174
ag84
ag175
aS'67073567'
p654
ag327
aS'24891081'
p655
ag176
aS'53512831'
p656
ag177
aS'69459473'
p657
ag186
ag185
ag178
ag187
ag179
aS'5615125'
p658
ag180
aS'41790793'
p659
ag190
ag150
ag181
ag476
ag182
ag188
ag183
aS'28358060'
p660
ag184
ag137
aS'39230359'
p661
asg28
I1000
sg30
g192
sg32
g164
sg34
I0
sg36
(iread_data
Room
p662
(dp663
g28
g167
sg30
g168
sbsba(ischedule
Activity
p664
(dp665
g8
(lp666
g210
aS'53585410'
p667
ag278
aS'66433883'
p668
aS'3707829'
p669
aS'23652927'
p670
ag342
ag246
ag86
ag581
aS'23983476'
p671
ag243
ag307
ag150
ag303
ag237
aS'67817269'
p672
ag56
aS'91527663'
p673
aS'57467488'
p674
ag70
ag362
ag323
asg28
g418
sg30
g419
sg32
g193
sg34
g35
sg36
(iread_data
Room
p675
(dp676
g28
g196
sg30
g197
sbsba(ischedule
Activity
p677
(dp678
g8
(lp679
g466
ag467
ag469
ag307
ag471
ag473
ag111
ag475
ag217
ag479
ag10
ag486
ag240
ag488
ag443
ag485
ag481
ag489
ag476
ag283
ag425
ag412
ag57
ag299
asg28
S'20'
p680
sg30
g490
sg32
g33
sg34
g35
sg36
(iread_data
Room
p681
(dp682
g28
g106
sg30
g107
sbsba(ischedule
Activity
p683
(dp684
g8
(lp685
g54
ag468
ag284
ag82
ag474
ag478
ag332
ag248
ag484
ag322
ag49
ag480
ag27
ag482
ag470
ag487
asg28
g680
sg30
g490
sg32
g33
sg34
g61
sg36
(iread_data
Room
p686
(dp687
g28
g224
sg30
g225
sbsbaaa(lp688
(lp689
(ischedule
Activity
p690
(dp691
g8
(lp692
g72
ag80
ag279
ag26
ag348
ag184
ag295
ag255
ag349
ag341
ag346
asg28
g59
sg30
g60
sg32
g33
sg34
g35
sg36
(iread_data
Room
p693
(dp694
g28
g64
sg30
g65
sbsba(ischedule
Activity
p695
(dp696
g8
(lp697
S'62701040'
p698
ag600
ag45
ag460
aS'8557857'
p699
ag383
ag387
asg28
S'15'
p700
sg30
g602
sg32
g33
sg34
g35
sg36
(iread_data
Room
p701
(dp702
g28
g224
sg30
g225
sbsba(ischedule
Activity
p703
(dp704
g8
(lp705
g306
aS'74361881'
p706
aS'14398123'
p707
ag582
ag502
aS'34773179'
p708
ag610
ag522
asg28
S'15'
p709
sg30
S'Project Genetic Algorithms'
p710
sg32
g193
sg34
g35
sg36
g37
sba(ischedule
Activity
p711
(dp712
g8
g465
sg28
I1000
sg30
g490
sg32
g164
sg34
I0
sg36
(iread_data
Room
p713
(dp714
g28
g269
sg30
g270
sbsba(ischedule
Activity
p715
(dp716
g8
g563
sg28
I1000
sg30
g573
sg32
g164
sg34
I0
sg36
(iread_data
Room
p717
(dp718
g28
g106
sg30
g107
sbsba(ischedule
Activity
p719
(dp720
g8
(lp721
g416
ag407
ag210
ag300
ag667
ag237
ag278
ag70
ag668
ag672
ag313
ag408
ag669
ag409
ag670
ag410
ag342
ag16
ag246
ag673
ag86
ag411
ag369
ag412
ag581
ag413
ag417
ag363
ag56
ag362
ag671
ag323
ag243
ag131
ag307
ag414
ag150
ag254
ag303
ag83
ag396
ag674
ag415
asg28
I1000
sg30
g419
sg32
g164
sg34
I0
sg36
g165
sba(ischedule
Activity
p722
(dp723
g8
(lp724
S'88627897'
p725
ag257
ag360
ag162
ag505
asg28
S'10'
p726
sg30
S'Autonomous Agents 2'
p727
sg32
g33
sg34
g103
sg36
g675
sbaa(lp728
(ischedule
Activity
p729
(dp730
g8
(lp731
g281
ag707
aS'72665524'
p732
ag303
aS'97135019'
p733
ag634
asg28
g446
sg30
g447
sg32
g193
sg34
g35
sg36
(iread_data
Room
p734
(dp735
g28
g64
sg30
g65
sbsba(ischedule
Activity
p736
(dp737
g8
(lp738
g466
ag297
aS'26857113'
p739
aS'90067329'
p740
aS'33252501'
p741
ag362
aS'85236626'
p742
ag361
ag26
ag503
ag468
ag218
aS'56988998'
p743
ag300
ag496
aS'77240949'
p744
ag509
ag467
ag91
aS'67625383'
p745
ag548
ag568
asg28
I1000
sg30
S'Machine Learning'
p746
sg32
g164
sg34
I0
sg36
(iread_data
Room
p747
(dp748
g28
g167
sg30
g168
sbsba(ischedule
Activity
p749
(dp750
g8
(lp751
g415
ag441
ag541
ag557
ag542
ag545
ag112
ag46
ag555
ag51
ag396
ag77
ag469
ag346
ag359
ag508
ag546
ag511
ag549
ag550
ag161
ag431
ag184
ag129
ag301
ag215
ag551
ag53
ag25
ag558
ag547
ag513
ag497
ag500
ag252
ag553
ag501
ag510
ag499
ag506
asg28
S'40'
p752
sg30
g515
sg32
g33
sg34
g35
sg36
(iread_data
Room
p753
(dp754
g28
g106
sg30
g107
sbsba(ischedule
Activity
p755
(dp756
g8
(lp757
g698
ag596
ag600
ag699
ag387
ag216
ag45
ag569
ag460
ag383
ag597
ag391
ag356
ag611
ag598
ag475
ag671
ag386
ag79
ag599
ag20
asg28
I1000
sg30
g602
sg32
g164
sg34
I0
sg36
(iread_data
Room
p758
(dp759
g28
g269
sg30
g270
sbsba(ischedule
Activity
p760
(dp761
g8
(lp762
g81
ag10
ag12
ag613
ag14
ag614
ag121
ag431
ag15
ag17
ag18
ag147
ag612
ag245
ag251
ag26
ag178
ag433
ag19
ag427
asg28
S'20'
p763
sg30
g31
sg32
g193
sg34
g35
sg36
(iread_data
Room
p764
(dp765
g28
g39
sg30
g40
sbsba(ischedule
Activity
p766
(dp767
g8
(lp768
g159
ag725
ag70
ag638
ag257
ag301
ag410
ag261
ag162
ag91
aS'61611295'
p769
ag55
ag275
ag360
ag505
aS'34806836'
p770
ag142
ag386
ag240
ag262
ag121
ag151
asg28
I1000
sg30
g727
sg32
g164
sg34
I0
sg36
(iread_data
Room
p771
(dp772
g28
g224
sg30
g225
sbsba(ischedule
Activity
p773
(dp774
g8
(lp775
g504
ag340
ag347
ag732
aS'1886996'
p776
ag571
asg28
g333
sg30
g334
sg32
g193
sg34
g35
sg36
(iread_data
Room
p777
(dp778
g28
g196
sg30
g197
sbsbaa(lp779
(ischedule
Activity
p780
(dp781
g8
g646
sg28
I1000
sg30
g515
sg32
g164
sg34
I0
sg36
(iread_data
Room
p782
(dp783
g28
g224
sg30
g225
sbsba(ischedule
Activity
p784
(dp785
g8
(lp786
g658
ag113
ag310
aS'91139627'
p787
ag483
aS'72547110'
p788
aS'78735049'
p789
ag144
ag568
ag124
ag661
ag207
ag525
ag161
aS'34262212'
p790
ag609
aS'10872825'
p791
ag92
ag51
ag497
aS'63955238'
p792
ag99
ag543
ag13
ag247
ag469
ag347
ag381
ag387
aS'79366078'
p793
aS'47605891'
p794
aS'39659121'
p795
ag233
ag365
ag414
ag209
ag743
ag566
ag254
ag468
aS'24875739'
p796
ag139
ag466
aS'82688900'
p797
ag260
aS'9731271'
p798
ag496
ag138
ag201
ag301
ag72
aS'38329455'
p799
ag79
ag98
aS'44940353'
p800
ag440
ag210
ag212
ag297
ag243
aS'65003379'
p801
ag598
aS'54310617'
p802
aS'28957789'
p803
ag489
ag411
ag388
aS'51186803'
p804
ag235
aS'76924297'
p805
ag90
ag114
aS'32705005'
p806
ag744
ag145
ag707
aS'63408522'
p807
aS'79858178'
p808
aS'37498675'
p809
ag323
ag635
ag52
ag119
aS'39919665'
p810
asg28
I1000
sg30
S'Kansrekenen 2'
p811
sg32
g164
sg34
I0
sg36
g317
sba(ischedule
Activity
p812
(dp813
g8
(lp814
g306
ag121
ag417
ag363
aS'13534377'
p815
aS'17575088'
p816
ag27
ag278
ag744
aS'86000192'
p817
ag249
aS'51741554'
p818
ag470
ag20
aS'68601184'
p819
asg28
S'20'
p820
sg30
S'Collectieve Intelligentie'
p821
sg32
g193
sg34
g448
sg36
(iread_data
Room
p822
(dp823
g28
g64
sg30
g65
sbsba(ischedule
Activity
p824
(dp825
g8
(lp826
g579
ag564
ag469
ag398
ag70
ag636
ag205
ag253
ag300
ag586
ag776
ag281
ag480
ag182
ag580
ag742
ag159
aS'82968410'
p827
ag581
ag587
ag582
aS'35315956'
p828
ag583
ag71
ag476
ag279
ag584
ag588
ag52
ag74
ag585
ag525
asg28
I1000
sg30
g590
sg32
g164
sg34
I0
sg36
(iread_data
Room
p829
(dp830
g28
g167
sg30
g168
sbsba(ischedule
Activity
p831
(dp832
g8
(lp833
g233
ag385
ag156
ag17
ag389
ag298
ag391
ag394
ag395
ag206
ag392
ag57
ag378
ag399
ag20
ag379
ag382
ag384
ag386
ag393
ag78
ag325
asg28
S'20'
p834
sg30
g400
sg32
g33
sg34
g103
sg36
(iread_data
Room
p835
(dp836
g28
g196
sg30
g197
sbsbaa(lp837
(ischedule
Activity
p838
(dp839
g8
g786
sg28
I1000
sg30
g811
sg32
g164
sg34
I0
sg36
(iread_data
Room
p840
(dp841
g28
g269
sg30
g270
sbsba(ischedule
Activity
p842
(dp843
g8
(lp844
g45
ag79
ag569
ag671
ag386
ag391
ag611
ag383
ag699
ag698
ag216
asg28
g601
sg30
g602
sg32
g193
sg34
g35
sg36
(iread_data
Room
p845
(dp846
g28
g64
sg30
g65
sbsba(ischedule
Activity
p847
(dp848
g8
(lp849
g72
ag134
ag210
ag114
ag545
ag276
ag674
ag234
aS'87210640'
p850
ag475
aS'97417002'
p851
ag328
aS'76393508'
p852
aS'4353500'
p853
ag78
aS'53775014'
p854
aS'83443653'
p855
ag613
aS'14941752'
p856
asg28
g640
sg30
g641
sg32
g33
sg34
g103
sg36
g574
sba(ischedule
Activity
p857
(dp858
g8
(lp859
g172
ag189
ag173
ag174
ag175
ag176
ag177
ag186
ag180
ag181
ag661
ag86
ag187
ag190
ag655
ag84
ag183
ag659
ag185
ag182
ag656
ag178
ag660
ag137
ag179
ag385
ag184
ag253
asg28
S'20'
p860
sg30
g192
sg32
g33
sg34
g35
sg36
(iread_data
Room
p861
(dp862
g28
g167
sg30
g168
sbsba(ischedule
Activity
p863
(dp864
g8
(lp865
g343
ag341
aS'2550487'
p866
ag122
ag281
ag542
aS'37419523'
p867
ag470
aS'6939933'
p868
ag324
aS'81116418'
p869
asg28
g626
sg30
g627
sg32
g193
sg34
g103
sg36
(iread_data
Room
p870
(dp871
g28
g39
sg30
g40
sbsba(ischedule
Activity
p872
(dp873
g8
g768
sg28
I1000
sg30
g727
sg32
g164
sg34
I0
sg36
(iread_data
Room
p874
(dp875
g28
g224
sg30
g225
sbsba(ischedule
Activity
p876
(dp877
g8
(lp878
g132
ag330
aS'25077484'
p879
ag544
ag425
ag580
asg28
g709
sg30
g710
sg32
g193
sg34
g61
sg36
(iread_data
Room
p880
(dp881
g28
g196
sg30
g197
sbsbaa(lp882
(ischedule
Activity
p883
(dp884
g8
(lp885
g868
aS'77306636'
p886
ag203
ag49
aS'61520025'
p887
ag732
ag349
aS'59220392'
p888
aS'14179347'
p889
ag185
ag667
ag181
ag120
ag328
ag18
ag806
ag818
aS'75623387'
p890
aS'12091019'
p891
ag580
aS'70939718'
p892
ag249
ag232
ag99
ag157
aS'79888156'
p893
aS'6709529'
p894
aS'10609762'
p895
ag599
aS'81155296'
p896
ag363
ag156
ag17
ag95
aS'58253841'
p897
asg28
S'40'
p898
sg30
S'Calculus 2'
p899
sg32
g33
sg34
g61
sg36
(iread_data
Room
p900
(dp901
g28
g224
sg30
g225
sbsba(ischedule
Activity
p902
(dp903
g8
(lp904
g326
ag866
ag513
ag473
ag187
ag635
aS'12782624'
p905
ag555
ag525
ag72
ag138
ag412
ag145
ag342
ag308
ag668
ag551
ag652
ag18
ag798
ag124
asg28
g219
sg30
g220
sg32
g193
sg34
g448
sg36
(iread_data
Room
p906
(dp907
g28
g167
sg30
g168
sbsba(ischedule
Activity
p908
(dp909
g8
(lp910
g725
ag257
ag261
ag769
ag360
ag262
ag505
ag162
ag91
ag275
ag151
ag240
asg28
S'10'
p911
sg30
g727
sg32
g193
sg34
g103
sg36
(iread_data
Room
p912
(dp913
g28
g64
sg30
g65
sbsba(ischedule
Activity
p914
(dp915
g8
(lp916
g81
ag24
ag608
ag10
ag26
ag147
ag11
ag23
ag19
ag12
ag251
ag609
ag13
ag245
ag298
ag613
ag178
ag610
ag14
ag237
ag611
ag614
ag27
ag79
ag427
ag20
ag615
ag357
ag425
ag22
ag121
ag92
ag391
ag431
ag25
ag430
ag15
ag361
ag69
ag48
ag433
ag429
ag16
ag432
ag612
ag17
ag426
ag78
ag18
ag57
ag507
ag428
ag21
ag253
asg28
I1000
sg30
g31
sg32
g164
sg34
I0
sg36
(iread_data
Room
p917
(dp918
g28
g269
sg30
g270
sbsba(ischedule
Activity
p919
(dp920
g8
g453
sg28
I1000
sg30
g287
sg32
g164
sg34
I0
sg36
(iread_data
Room
p921
(dp922
g28
g39
sg30
g40
sbsba(ischedule
Activity
p923
(dp924
g8
(lp925
S'10702778'
p926
ag739
ag819
ag588
ag149
ag790
ag312
ag123
ag557
ag79
ag250
aS'28943658'
p927
ag698
ag455
aS'88597745'
p928
aS'39905995'
p929
ag484
aS'64053722'
p930
ag411
ag671
ag547
asg28
g219
sg30
g220
sg32
g193
sg34
g103
sg36
(iread_data
Room
p931
(dp932
g28
g106
sg30
g107
sbsba(ischedule
Activity
p933
(dp934
g8
(lp935
g238
ag394
ag472
ag188
ag477
ag275
ag47
ag132
ag483
ag323
ag357
asg28
g680
sg30
g490
sg32
g33
sg34
g103
sg36
g675
sbaaa(lp936
(lp937
(ischedule
Activity
p938
(dp939
g8
(lp940
g579
ag14
ag855
ag72
ag613
ag638
ag328
ag134
ag202
ag851
ag275
ag230
ag240
ag210
ag634
ag386
ag179
ag114
ag853
ag440
ag249
ag128
ag854
ag637
ag78
ag545
ag358
ag276
ag216
ag139
ag566
ag636
ag639
ag674
ag570
ag635
ag348
ag234
ag20
ag295
ag852
ag850
ag856
ag475
asg28
I1000
sg30
g641
sg32
g164
sg34
I0
sg36
(iread_data
Room
p941
(dp942
g28
g167
sg30
g168
sbsba(ischedule
Activity
p943
(dp944
g8
(lp945
S'82066165'
p946
aS'57595888'
p947
ag409
aS'51673172'
p948
ag667
ag417
ag201
ag596
ag380
ag87
ag307
aS'44151631'
p949
ag75
ag259
aS'55103073'
p950
asg28
g529
sg30
g530
sg32
g193
sg34
g35
sg36
(iread_data
Room
p951
(dp952
g28
g269
sg30
g270
sbsba(ischedule
Activity
p953
(dp954
g8
(lp955
g564
ag398
ag636
ag253
ag281
ag182
ag828
ag71
ag279
ag469
ag300
ag480
ag52
ag827
ag205
ag525
ag742
ag776
asg28
g589
sg30
g590
sg32
g33
sg34
g103
sg36
(iread_data
Room
p956
(dp957
g28
g196
sg30
g197
sbsba(ischedule
Activity
p958
(dp959
g8
(lp960
g70
ag301
ag386
ag770
ag275
ag91
ag262
ag142
ag769
ag159
ag55
asg28
g726
sg30
g727
sg32
g33
sg34
g61
sg36
(iread_data
Room
p961
(dp962
g28
g64
sg30
g65
sbsba(ischedule
Activity
p963
(dp964
g8
(lp965
g498
ag298
ag391
ag552
ag502
ag503
ag15
ag131
ag264
ag504
ag19
ag505
ag377
ag91
ag554
ag389
ag556
ag315
ag507
ag364
ag509
ag548
ag544
ag543
ag248
ag496
ag512
ag412
ag122
asg28
g752
sg30
g515
sg32
g33
sg34
g103
sg36
g574
sba(ischedule
Activity
p966
(dp967
g8
(lp968
g582
ag324
ag10
aS'5590289'
p969
ag598
ag527
ag309
aS'62736669'
p970
ag428
aS'26207525'
p971
ag547
ag798
ag853
ag459
ag458
ag332
ag124
ag343
aS'19058315'
p972
asg28
g446
sg30
g447
sg32
g193
sg34
g103
sg36
(iread_data
Room
p973
(dp974
g28
g224
sg30
g225
sbsba(ischedule
Activity
p975
(dp976
g8
(lp977
S'69634191'
p978
ag621
ag302
ag189
ag325
ag111
ag439
ag502
aS'64768422'
p979
ag896
ag866
ag141
ag543
ag279
aS'20374340'
p980
ag521
aS'28055464'
p981
ag669
ag131
aS'38179241'
p982
ag805
ag413
ag581
ag88
ag180
asg28
I1000
sg30
S'Interactie-ontwerp'
p983
sg32
g164
sg34
I0
sg36
(iread_data
Room
p984
(dp985
g28
g39
sg30
g40
sbsbaa(lp986
(ischedule
Activity
p987
(dp988
g8
(lp989
g24
ag23
ag237
ag27
ag20
ag25
ag361
ag432
ag57
ag21
ag298
ag429
ag16
ag611
ag11
ag428
ag357
ag391
ag92
ag426
ag615
asg28
g763
sg30
g31
sg32
g193
sg34
g103
sg36
(iread_data
Room
p990
(dp991
g28
g196
sg30
g197
sbsba(ischedule
Activity
p992
(dp993
g8
(lp994
g698
ag308
ag584
ag122
ag129
ag367
ag343
ag123
ag327
ag433
ag818
ag121
ag947
ag816
ag325
aS'96104167'
p995
ag75
asg28
S'20'
p996
sg30
g821
sg32
g33
sg34
g103
sg36
(iread_data
Room
p997
(dp998
g28
g39
sg30
g40
sbsba(ischedule
Activity
p999
(dp1000
g8
(lp1001
g488
ag238
ag87
ag598
aS'14637758'
p1002
ag120
ag344
ag208
aS'88737765'
p1003
ag341
ag240
aS'78822885'
p1004
ag473
ag256
aS'82854435'
p1005
ag242
aS'58480929'
p1006
aS'80188025'
p1007
aS'18477924'
p1008
ag443
ag394
ag568
ag635
ag17
ag90
aS'56544130'
p1009
aS'33672995'
p1010
ag71
ag14
ag98
ag230
aS'34900967'
p1011
ag132
ag329
aS'73350019'
p1012
ag476
ag144
ag159
ag149
ag610
aS'72586808'
p1013
aS'97838175'
p1014
ag498
ag136
ag119
ag161
ag855
ag582
aS'72456780'
p1015
asg28
I1000
sg30
S'Analysemethoden en -technieken'
p1016
sg32
g164
sg34
I0
sg36
(iread_data
Room
p1017
(dp1018
g28
g167
sg30
g168
sbsba(ischedule
Activity
p1019
(dp1020
g8
(lp1021
g547
ag153
ag359
ag856
aS'32183908'
p1022
ag52
ag260
aS'19662602'
p1023
ag15
ag415
aS'34691309'
p1024
ag112
ag77
ag76
ag441
asg28
g626
sg30
g627
sg32
g193
sg34
g35
sg36
(iread_data
Room
p1025
(dp1026
g28
g269
sg30
g270
sbsba(ischedule
Activity
p1027
(dp1028
g8
(lp1029
g207
ag234
asg28
g286
sg30
g287
sg32
g193
sg34
g35
sg36
(iread_data
Room
p1030
(dp1031
g28
g106
sg30
g107
sbsba(ischedule
Activity
p1032
(dp1033
g8
g536
sg28
I1000
sg30
g60
sg32
g164
sg34
I0
sg36
(iread_data
Room
p1034
(dp1035
g28
g224
sg30
g225
sbsba(ischedule
Activity
p1036
(dp1037
g8
(lp1038
g342
ag454
ag218
ag456
ag138
ag457
ag458
ag460
ag459
ag455
asg28
g286
sg30
g287
sg32
g193
sg34
g103
sg36
(iread_data
Room
p1039
(dp1040
g28
g64
sg30
g65
sbsbaa(lp1041
(ischedule
Activity
p1042
(dp1043
g8
g536
sg28
I1000
sg30
g60
sg32
g164
sg34
I0
sg36
(iread_data
Room
p1044
(dp1045
g28
g167
sg30
g168
sbsba(ischedule
Activity
p1046
(dp1047
g8
(lp1048
g377
ag383
ag387
ag388
ag390
ag112
ag396
ag132
ag397
ag275
ag398
ag234
ag381
ag231
ag75
ag380
asg28
g834
sg30
g400
sg32
g33
sg34
g35
sg36
(iread_data
Room
p1049
(dp1050
g28
g196
sg30
g197
sbsba(ischedule
Activity
p1051
(dp1052
g8
(lp1053
g416
ag278
ag669
ag670
ag342
ag369
ag417
ag56
ag671
ag243
ag307
ag150
ag396
ag674
ag409
ag237
ag673
ag323
ag414
ag16
ag300
ag246
ag668
ag70
asg28
S'25'
p1054
sg30
g419
sg32
g33
sg34
g35
sg36
(iread_data
Room
p1055
(dp1056
g28
g269
sg30
g270
sbsba(ischedule
Activity
p1057
(dp1058
g8
(lp1059
g500
ag84
ag639
ag98
ag264
ag89
ag819
ag83
ag125
ag81
ag470
ag206
ag182
ag802
ag544
aS'73980360'
p1060
ag71
ag135
ag294
ag20
ag708
asg28
g996
sg30
g821
sg32
g33
sg34
g61
sg36
(iread_data
Room
p1061
(dp1062
g28
g39
sg30
g40
sbsba(ischedule
Activity
p1063
(dp1064
g8
(lp1065
g652
ag385
ag415
ag86
ag653
ag84
ag654
ag655
ag656
ag657
ag658
ag659
ag150
ag476
ag660
ag137
ag379
ag253
ag327
ag661
asg28
g191
sg30
g192
sg32
g193
sg34
g103
sg36
(iread_data
Room
p1066
(dp1067
g28
g106
sg30
g107
sbsbaa(lp1068
(ischedule
Activity
p1069
(dp1070
g8
(lp1071
g306
ag363
ag815
ag27
ag278
ag744
ag249
aS'22699561'
p1072
ag314
ag244
ag51
ag613
ag634
aS'1075391'
p1073
ag172
aS'46052388'
p1074
asg28
g996
sg30
g821
sg32
g33
sg34
g448
sg36
(iread_data
Room
p1075
(dp1076
g28
g64
sg30
g65
sbsba(ischedule
Activity
p1077
(dp1078
g8
(lp1079
g55
ag386
ag142
ag159
ag121
ag301
ag410
asg28
g911
sg30
g727
sg32
g193
sg34
g61
sg36
(iread_data
Room
p1080
(dp1081
g28
g196
sg30
g197
sbsba(ischedule
Activity
p1082
(dp1083
g8
(lp1084
S'47932106'
p1085
aS'4529208'
p1086
ag971
ag69
ag586
ag93
ag1015
ag653
ag510
ag97
ag308
ag70
ag98
ag71
ag91
ag72
ag129
ag73
ag385
ag74
ag153
ag75
ag505
ag76
ag673
ag77
ag879
ag610
ag99
aS'27123462'
p1087
ag674
ag326
ag121
ag970
ag340
ag78
ag118
ag79
ag501
ag80
ag891
ag100
ag257
ag356
ag11
ag27
ag208
ag81
aS'15187217'
p1088
ag82
ag322
ag83
ag369
ag348
ag96
ag84
ag94
ag16
ag217
aS'54540997'
p1089
ag95
ag85
ag149
ag86
ag92
ag87
ag470
ag88
ag412
ag89
ag133
ag90
asg28
I1000
sg30
g102
sg32
g164
sg34
I0
sg36
g317
sba(ischedule
Activity
p1090
(dp1091
g8
g977
sg28
I1000
sg30
g983
sg32
g164
sg34
I0
sg36
(iread_data
Room
p1092
(dp1093
g28
g106
sg30
g107
sbsba(ischedule
Activity
p1094
(dp1095
g8
(lp1096
g340
ag99
ag342
ag235
ag259
ag537
ag343
ag89
ag114
ag344
ag345
ag262
ag69
ag173
ag258
ag296
ag130
ag347
asg28
g59
sg30
g60
sg32
g33
sg34
g103
sg36
g603
sba(ischedule
Activity
p1097
(dp1098
g8
(lp1099
g19
ag295
ag732
ag570
aS'47260040'
p1100
ag124
aS'1695839'
p1101
ag278
ag706
aS'91250534'
p1102
aS'25994016'
p1103
asg28
g529
sg30
g530
sg32
g193
sg34
g103
sg36
(iread_data
Room
p1104
(dp1105
g28
g39
sg30
g40
sbsbaa(lp1106
(ischedule
Activity
p1107
(dp1108
g8
(lp1109
g733
ag698
ag500
ag325
ag995
ag294
ag1074
ag306
ag708
ag634
ag84
ag121
ag567
ag71
ag639
ag417
ag547
ag308
ag98
ag363
ag342
ag544
ag20
ag815
ag51
ag584
ag264
ag816
ag613
ag122
ag89
ag27
ag947
ag129
ag819
ag802
ag1060
ag367
ag83
ag278
ag1073
ag343
ag125
ag744
ag182
ag123
ag81
ag817
aS'29474737'
p1110
ag327
ag244
ag249
ag135
ag433
ag470
ag1072
ag75
ag818
ag206
ag314
ag172
asg28
I1000
sg30
g821
sg32
g164
sg34
I0
sg36
g165
sba(ischedule
Activity
p1111
(dp1112
g8
g757
sg28
I1000
sg30
g602
sg32
g164
sg34
I0
sg36
(iread_data
Room
p1113
(dp1114
g28
g106
sg30
g107
sbsba(ischedule
Activity
p1115
(dp1116
g8
(lp1117
g80
ag26
ag58
ag17
ag255
ag57
ag235
ag49
ag295
ag258
ag537
ag173
ag296
asg28
g350
sg30
g60
sg32
g193
sg34
g35
sg36
(iread_data
Room
p1118
(dp1119
g28
g64
sg30
g65
sbsba(ischedule
Activity
p1120
(dp1121
g8
(lp1122
g229
ag294
ag232
ag233
ag235
ag236
ag238
ag301
ag240
ag241
ag305
ag145
ag242
ag243
ag178
ag162
ag249
ag314
ag252
ag144
ag203
ag278
ag257
ag261
ag310
ag263
ag302
ag299
ag298
ag218
ag246
ag315
ag304
ag253
asg28
S'40'
p1123
sg30
g266
sg32
g193
sg34
g35
sg36
(iread_data
Room
p1124
(dp1125
g28
g39
sg30
g40
sbsba(ischedule
Activity
p1126
(dp1127
g8
(lp1128
g504
ag327
ag340
ag189
ag185
ag332
ag328
ag322
ag330
ag776
ag347
ag323
ag331
ag14
ag326
ag324
ag329
ag325
ag732
ag571
asg28
I1000
sg30
g334
sg32
g164
sg34
I0
sg36
(iread_data
Room
p1129
(dp1130
g28
g269
sg30
g270
sbsba(ischedule
Activity
p1131
(dp1132
g8
(lp1133
g407
ag408
ag410
ag411
ag412
ag413
ag363
ag362
ag131
ag83
ag415
ag313
ag86
ag581
ag672
ag667
ag254
ag303
ag210
asg28
g1054
sg30
g419
sg32
g33
sg34
g103
sg36
(iread_data
Room
p1134
(dp1135
g28
g196
sg30
g197
sbsbaaa(lp1136
(lp1137
(ischedule
Activity
p1138
(dp1139
g8
(lp1140
g48
ag316
ag141
ag176
ag390
ag53
ag54
ag74
ag119
ag309
ag1011
ag285
aS'63096281'
p1141
ag667
ag91
ag328
asg28
g219
sg30
g220
sg32
g193
sg34
S'5'
p1142
sg36
(iread_data
Room
p1143
(dp1144
g28
g64
sg30
g65
sbsba(ischedule
Activity
p1145
(dp1146
g8
(lp1147
S'51791169'
p1148
ag742
ag175
aS'88263855'
p1149
ag10
ag550
ag297
ag182
ag99
ag49
ag817
ag11
aS'7386961'
p1150
aS'85284256'
p1151
aS'73893840'
p1152
ag496
asg28
g219
sg30
g220
sg32
g193
sg34
g61
sg36
(iread_data
Room
p1153
(dp1154
g28
g39
sg30
g40
sbsba(ischedule
Activity
p1155
(dp1156
g8
(lp1157
g346
ag1003
ag506
ag948
ag1103
ag362
ag297
ag946
aS'75680261'
p1158
aS'55480737'
p1159
ag443
ag657
ag73
ag245
ag805
ag97
ag564
ag414
ag248
ag162
ag897
ag889
asg28
g709
sg30
g710
sg32
g193
sg34
g103
sg36
(iread_data
Room
p1160
(dp1161
g28
g224
sg30
g225
sbsba(ischedule
Activity
p1162
(dp1163
g8
g1109
sg28
I1000
sg30
g821
sg32
g164
sg34
I0
sg36
(iread_data
Room
p1164
(dp1165
g28
g269
sg30
g270
sbsba(ischedule
Activity
p1166
(dp1167
g8
(lp1168
g638
ag410
ag240
ag151
ag121
ag261
asg28
g726
sg30
g727
sg32
g33
sg34
g35
sg36
(iread_data
Room
p1169
(dp1170
g28
g196
sg30
g197
sbsba(ischedule
Activity
p1171
(dp1172
g8
(lp1173
g652
ag415
ag653
ag654
ag657
ag658
ag150
ag188
ag327
ag379
ag476
asg28
g860
sg30
g192
sg32
g33
sg34
g103
sg36
(iread_data
Room
p1174
(dp1175
g28
g167
sg30
g168
sbsba(ischedule
Activity
p1176
(dp1177
g8
(lp1178
g611
ag475
ag386
ag671
ag391
ag20
ag597
ag356
ag599
ag216
ag598
ag79
ag569
ag596
asg28
g700
sg30
g602
sg32
g33
sg34
g103
sg36
(iread_data
Room
p1179
(dp1180
g28
g106
sg30
g107
sbsbaa(lp1181
(ischedule
Activity
p1182
(dp1183
g8
(lp1184
g256
ag95
ag868
ag525
ag53
ag886
ag73
aS'19717077'
p1185
ag203
ag362
ag159
ag49
ag1009
ag130
ag496
ag658
ag551
ag887
ag251
ag502
ag732
ag208
ag14
ag349
ag1010
aS'11593163'
p1186
aS'22168693'
p1187
aS'56348773'
p1188
ag113
ag888
aS'53139134'
p1189
ag803
ag889
ag894
ag48
ag185
ag246
ag348
aS'34173695'
p1190
ag204
ag796
ag798
ag429
ag467
ag896
ag302
ag23
ag667
ag114
ag497
ag172
aS'62363761'
p1191
ag156
ag181
ag16
aS'65978354'
p1192
ag120
aS'82412626'
p1193
ag541
ag328
ag584
ag230
ag18
ag258
ag305
ag1007
ag457
ag897
ag806
ag588
aS'93361408'
p1194
ag818
ag118
ag431
ag890
ag599
ag789
ag891
ag817
ag410
ag365
ag77
ag895
ag370
aS'31306819'
p1195
aS'72526473'
p1196
ag580
ag564
ag1085
ag892
ag982
aS'75446434'
p1197
ag249
ag326
aS'23628642'
p1198
ag232
ag13
ag17
ag99
ag76
ag733
ag157
ag363
ag133
ag893
aS'55530367'
p1199
asg28
I1000
sg30
g899
sg32
g164
sg34
I0
sg36
(iread_data
Room
p1200
(dp1201
g28
g269
sg30
g270
sbsba(ischedule
Activity
p1202
(dp1203
g8
g1109
sg28
I1000
sg30
g821
sg32
g164
sg34
I0
sg36
g603
sba(ischedule
Activity
p1204
(dp1205
g8
g651
sg28
I1000
sg30
g192
sg32
g164
sg34
I0
sg36
(iread_data
Room
p1206
(dp1207
g28
g39
sg30
g40
sbsbaa(lp1208
(ischedule
Activity
p1209
(dp1210
g8
(lp1211
g256
ag525
ag73
ag362
ag1009
ag658
ag208
ag1188
ag1189
ag246
ag302
ag114
ag1191
ag16
ag1193
ag584
ag258
ag457
ag588
ag77
ag1195
ag564
ag982
ag326
ag13
ag76
ag1199
ag370
ag803
ag798
ag1192
ag1190
ag1085
ag496
ag1198
ag365
ag796
ag113
ag431
asg28
g898
sg30
g899
sg32
g33
sg34
g35
sg36
(iread_data
Room
p1212
(dp1213
g28
g269
sg30
g270
sbsba(ischedule
Activity
p1214
(dp1215
g8
(lp1216
g608
ag609
ag610
ag79
ag22
ag430
ag78
ag507
ag253
ag13
ag48
ag425
ag69
asg28
g763
sg30
g31
sg32
g193
sg34
g61
sg36
(iread_data
Room
p1217
(dp1218
g28
g64
sg30
g65
sbsba(ischedule
Activity
p1219
(dp1220
g8
(lp1221
g733
ag995
ag567
ag547
ag51
ag613
ag947
ag1073
ag182
ag1110
ag135
ag75
ag172
ag122
ag123
ag71
ag708
ag343
ag98
ag433
asg28
g820
sg30
g821
sg32
g193
sg34
g35
sg36
(iread_data
Room
p1222
(dp1223
g28
g39
sg30
g40
sbsba(ischedule
Activity
p1224
(dp1225
g8
(lp1226
g342
ag454
ag138
ag278
ag279
ag459
ag281
ag218
ag283
ag276
ag277
asg28
S'10'
p1227
sg30
g287
sg32
g33
sg34
g103
sg36
(iread_data
Room
p1228
(dp1229
g28
g106
sg30
g107
sbsba(ischedule
Activity
p1230
(dp1231
g8
(lp1232
g293
ag295
ag254
ag296
ag297
ag255
ag116
ag256
ag300
ag264
ag303
ag190
ag136
ag134
ag258
ag173
ag260
ag308
ag213
ag311
ag312
ag262
ag46
ag316
ag234
ag244
ag247
ag239
ag231
ag307
ag248
ag127
ag259
ag250
ag306
ag245
ag313
ag237
ag230
ag309
ag251
asg28
g1123
sg30
g266
sg32
g193
sg34
g103
sg36
(iread_data
Room
p1233
(dp1234
g28
g224
sg30
g225
sbsba(ischedule
Activity
p1235
(dp1236
g8
(lp1237
g500
ag1074
ag84
ag639
ag264
ag89
ag83
ag125
ag81
ag244
ag206
ag1060
ag314
ag342
asg28
g820
sg30
g821
sg32
g193
sg34
g61
sg36
(iread_data
Room
p1238
(dp1239
g28
g167
sg30
g168
sbsbaa(lp1240
(ischedule
Activity
p1241
(dp1242
g8
(lp1243
g698
ag294
ag634
ag308
ag544
ag584
ag129
ag367
ag327
ag802
ag1072
ag325
asg28
g820
sg30
g821
sg32
g193
sg34
g103
sg36
(iread_data
Room
p1244
(dp1245
g28
g224
sg30
g225
sbsba(ischedule
Activity
p1246
(dp1247
g8
g110
sg28
I1000
sg30
g163
sg32
g164
sg34
I0
sg36
(iread_data
Room
p1248
(dp1249
g28
g167
sg30
g168
sbsba(ischedule
Activity
p1250
(dp1251
g8
(lp1252
g282
ag458
ag55
asg28
g1227
sg30
g287
sg32
g33
sg34
g35
sg36
g317
sba(ischedule
Activity
p1253
(dp1254
g8
(lp1255
g161
ag414
ag555
ag386
aS'53267490'
p1256
ag322
aS'25557516'
p1257
ag377
ag674
ag188
ag279
ag1013
ag1191
ag83
ag218
aS'12170832'
p1258
ag100
aS'16912993'
p1259
ag94
ag58
ag1151
ag50
ag818
ag892
aS'64246605'
p1260
ag1015
asg28
g446
sg30
g447
sg32
g193
sg34
g61
sg36
(iread_data
Room
p1261
(dp1262
g28
g39
sg30
g40
sbsba(ischedule
Activity
p1263
(dp1264
g8
(lp1265
g733
ag567
ag547
ag342
ag1110
ag417
ag817
asg28
g996
sg30
g821
sg32
g33
sg34
g35
sg36
(iread_data
Room
p1266
(dp1267
g28
g106
sg30
g107
sbsba(ischedule
Activity
p1268
(dp1269
g8
(lp1270
g70
ag136
ag456
ag457
ag275
ag207
ag234
ag284
ag455
ag285
ag280
ag45
ag460
asg28
g1227
sg30
g287
sg32
g33
sg34
g61
sg36
(iread_data
Room
p1271
(dp1272
g28
g64
sg30
g65
sbsbaa(lp1273
(ischedule
Activity
p1274
(dp1275
g8
g376
sg28
I1000
sg30
g400
sg32
g164
sg34
I0
sg36
(iread_data
Room
p1276
(dp1277
g28
g224
sg30
g225
sbsba(ischedule
Activity
p1278
(dp1279
g8
(lp1280
g44
ag45
ag46
ag47
ag50
ag51
ag53
ag262
ag54
ag259
ag89
ag55
ag72
ag184
ag130
asg28
g350
sg30
g60
sg32
g193
sg34
g61
sg36
(iread_data
Room
p1281
(dp1282
g28
g64
sg30
g65
sbsba(ischedule
Activity
p1283
(dp1284
g8
(lp1285
g1085
ag971
ag586
ag1015
ag510
ag308
ag129
ag385
ag153
ag505
ag673
ag879
ag674
ag121
ag118
ag501
ag891
ag257
ag11
ag208
ag322
ag369
ag217
ag149
ag470
ag412
ag133
ag326
ag970
ag653
ag1089
ag610
ag1087
ag348
ag1086
ag340
ag356
ag1088
asg28
g101
sg30
g102
sg32
g33
sg34
g35
sg36
(iread_data
Room
p1286
(dp1287
g28
g269
sg30
g270
sbsba(ischedule
Activity
p1288
(dp1289
g8
g738
sg28
I1000
sg30
g746
sg32
g164
sg34
I0
sg36
(iread_data
Room
p1290
(dp1291
g28
g167
sg30
g168
sbsba(ischedule
Activity
p1292
(dp1293
g8
(lp1294
g295
ag296
ag297
ag116
ag298
ag300
ag127
ag302
ag303
ag304
ag190
ag136
ag134
ag307
ag173
ag278
ag308
ag310
ag213
ag218
ag311
ag312
ag313
ag315
ag316
ag306
ag314
ag293
ag305
ag294
ag299
ag301
ag309
asg28
g265
sg30
g266
sg32
g33
sg34
g103
sg36
(iread_data
Room
p1295
(dp1296
g28
g106
sg30
g107
sbsba(ischedule
Activity
p1297
(dp1298
g8
(lp1299
g70
ag638
ag770
asg28
g911
sg30
g727
sg32
g193
sg34
g35
sg36
(iread_data
Room
p1300
(dp1301
g28
g196
sg30
g197
sbsba(ischedule
Activity
p1302
(dp1303
g8
(lp1304
g53
ag1185
ag159
ag130
ag551
ag502
ag14
ag1186
ag48
ag348
ag467
ag23
ag497
ag541
ag230
ag305
ag1194
ag789
ag410
ag1196
ag1197
ag733
ag133
ag172
ag1187
ag1007
ag429
ag251
ag118
ag817
ag1010
ag204
asg28
g898
sg30
g899
sg32
g33
sg34
g103
sg36
g37
sbaaa(lp1305
(lp1306
a(lp1307
a(lp1308
a(lp1309
a(lp1310
aasS'timeslot_dict'
p1311
(dp1312
I0
S'9:00-11:00'
p1313
sI1
S'11:00-13:00'
p1314
sI2
S'13:00-15:00'
p1315
sI3
S'15:00-17:00'
p1316
sI4
S'17:00-19:00'
p1317
ssS'day_dict'
p1318
(dp1319
I0
S'Monday'
p1320
sI1
S'Tuesday'
p1321
sI2
S'Wednesday'
p1322
sI3
S'Thursday'
p1323
sI4
S'Friday'
p1324
ssb.