(ischedule
Schedule
p0
(dp1
S'timetable'
p2
(lp3
(lp4
(lp5
(ischedule
Activity
p6
(dp7
S'participants'
p8
(lp9
S'40141996'
p10
aS'23257088'
p11
aS'34872117'
p12
aS'56872729'
p13
aS'29640619'
p14
aS'88752563'
p15
aS'15187217'
p16
aS'37701751'
p17
aS'43027916'
p18
aS'11996292'
p19
aS'96054456'
p20
aS'247918'
p21
aS'60352393'
p22
aS'26207525'
p23
aS'42196732'
p24
aS'91527663'
p25
aS'670011'
p26
aS'86988337'
p27
aS'5526560'
p28
aS'4529208'
p29
aS'72456780'
p30
aS'39459642'
p31
aS'59397895'
p32
aS'77960666'
p33
aS'17092717'
p34
aS'24277163'
p35
aS'5085194'
p36
aS'5517869'
p37
aS'86180471'
p38
aS'46989508'
p39
aS'75005528'
p40
aS'56191333'
p41
aS'3168419'
p42
aS'14816774'
p43
aS'57467488'
p44
aS'58083680'
p45
aS'58332004'
p46
aS'43902015'
p47
aS'51542218'
p48
aS'64947290'
p49
aS'49631542'
p50
aS'70072978'
p51
aS'76123484'
p52
aS'64296965'
p53
aS'52552718'
p54
aS'94686490'
p55
aS'13092455'
p56
aS'13132925'
p57
aS'73823548'
p58
aS'62736669'
p59
aS'17222374'
p60
aS'4921119'
p61
aS'26406342'
p62
aS'23658570'
p63
aS'47932106'
p64
aS'72796858'
p65
aS'25077484'
p66
aS'47477884'
p67
aS'82689818'
p68
aS'40434933'
p69
aS'27123462'
p70
aS'51566595'
p71
aS'58592894'
p72
aS'54540997'
p73
aS'12091019'
p74
aS'90474003'
p75
aS'78821918'
p76
aS'29526540'
p77
aS'83869542'
p78
aS'56121590'
p79
aS'77896638'
p80
aS'56749879'
p81
asS'capacity'
p82
I1000
sS'group'
p83
NsS'room'
p84
(iread_data
Room
p85
(dp86
g82
S'117'
p87
sS'name'
p88
S'C0.110'
p89
sbsS'ttype'
p90
S'lectures'
p91
sS'group_id'
p92
I0
sg88
S'Databases 2'
p93
sba(ischedule
Activity
p94
(dp95
g8
(lp96
S'11915563'
p97
aS'84524083'
p98
aS'75599734'
p99
aS'27950803'
p100
aS'65960683'
p101
aS'27187154'
p102
aS'5595824'
p103
aS'81385263'
p104
aS'60312776'
p105
aS'3407554'
p106
aS'76802764'
p107
aS'42778953'
p108
aS'48503689'
p109
aS'12077419'
p110
aS'88855695'
p111
aS'73236988'
p112
asg82
S'40'
p113
sg83
(ischedule
Group
p114
(dp115
g8
g96
sg88
S'Compilerbouw2'
p116
sbsg84
(iread_data
Room
p117
(dp118
g82
S'22'
p119
sg88
S'A1.06'
p120
sbsg90
S'tutorials'
p121
sg92
S'2'
p122
sg88
S'Compilerbouw'
p123
sba(ischedule
Activity
p124
(dp125
g8
(lp126
g24
aS'4568018'
p127
aS'64600457'
p128
aS'66120270'
p129
aS'59544049'
p130
aS'21029457'
p131
aS'70878567'
p132
aS'54026378'
p133
aS'53202517'
p134
aS'85335143'
p135
aS'22731474'
p136
aS'79617364'
p137
ag77
aS'58522654'
p138
ag20
aS'20883994'
p139
aS'6723948'
p140
aS'96453361'
p141
aS'11068043'
p142
aS'22826928'
p143
aS'56815156'
p144
aS'81200278'
p145
aS'43680781'
p146
aS'28359697'
p147
aS'15051051'
p148
ag43
aS'30050930'
p149
aS'6913074'
p150
aS'24613625'
p151
aS'77831658'
p152
aS'14591033'
p153
ag112
aS'33877725'
p154
aS'7308727'
p155
aS'33930505'
p156
aS'74131924'
p157
ag21
aS'88176729'
p158
ag81
aS'89985072'
p159
aS'21964491'
p160
aS'5298748'
p161
aS'44868097'
p162
ag42
aS'30195935'
p163
asg82
I1000
sg83
Nsg84
(iread_data
Room
p164
(dp165
g82
S'48'
p166
sg88
S'B0.201'
p167
sbsg90
g91
sg92
I0
sg88
S'Bioinformatica'
p168
sba(ischedule
Activity
p169
(dp170
g8
(lp171
S'50143947'
p172
aS'91196968'
p173
aS'25330192'
p174
aS'99453514'
p175
aS'45414528'
p176
aS'37744525'
p177
ag145
aS'66122625'
p178
aS'13116738'
p179
asg82
S'10'
p180
sg83
(ischedule
Group
p181
(dp182
g8
g171
sg88
S'Data Mining1'
p183
sbsg84
(iread_data
Room
p184
(dp185
g82
S'20'
p186
sg88
S'A1.08'
p187
sbsg90
S'labs'
p188
sg92
S'1'
p189
sg88
S'Data Mining'
p190
sba(ischedule
Activity
p191
(dp192
g8
(lp193
S'75585647'
p194
aS'56544130'
p195
aS'58253841'
p196
aS'24875739'
p197
aS'74182182'
p198
aS'22168693'
p199
aS'70939718'
p200
asg82
S'40'
p201
sg83
(ischedule
Group
p202
(dp203
g8
g193
sg88
S'Calculus 23'
p204
sbsg84
(iread_data
Room
p205
(dp206
g82
S'56'
p207
sg88
S'A1.10'
p208
sbsg90
g121
sg92
S'3'
p209
sg88
S'Calculus 2'
p210
sba(ischedule
Activity
p211
(dp212
g8
(lp213
S'75521763'
p214
aS'77636749'
p215
aS'32204977'
p216
aS'68315599'
p217
aS'44901052'
p218
aS'36785409'
p219
aS'14309255'
p220
aS'14383795'
p221
aS'6249823'
p222
aS'9332762'
p223
aS'93041523'
p224
aS'75664412'
p225
aS'22323043'
p226
aS'92496780'
p227
aS'58565406'
p228
aS'77264363'
p229
aS'70336464'
p230
aS'12430748'
p231
aS'37110913'
p232
aS'10149535'
p233
aS'69086548'
p234
ag135
aS'23547619'
p235
aS'89338938'
p236
aS'31194811'
p237
ag146
aS'41578612'
p238
aS'76487754'
p239
aS'21192048'
p240
aS'48308205'
p241
asg82
S'20'
p242
sg83
(ischedule
Group
p243
(dp244
g8
g213
sg88
S'Technology for games1'
p245
sbsg84
(iread_data
Room
p246
(dp247
g82
S'41'
p248
sg88
S'A1.04'
p249
sbsg90
g121
sg92
g189
sg88
S'Technology for games'
p250
sba(ischedule
Activity
p251
(dp252
g8
(lp253
g12
aS'72577292'
p254
ag69
aS'14138904'
p255
aS'13798030'
p256
aS'45556081'
p257
aS'59289233'
p258
ag68
aS'83266686'
p259
aS'27925117'
p260
aS'43460038'
p261
aS'29718115'
p262
aS'89180944'
p263
aS'28618400'
p264
aS'20331158'
p265
ag233
aS'49683101'
p266
aS'58866007'
p267
aS'70015932'
p268
aS'23798155'
p269
aS'72683344'
p270
asg82
I1000
sg83
Nsg84
(iread_data
Room
p271
(dp272
g82
S'60'
p273
sg88
S'C1.112'
p274
sbsg90
g91
sg92
I0
sg88
S'Architectuur en computerorganisatie'
p275
sbaa(lp276
(ischedule
Activity
p277
(dp278
g8
(lp279
S'64228258'
p280
ag223
ag62
aS'34773179'
p281
ag52
aS'57595888'
p282
aS'54310617'
p283
ag56
aS'61443567'
p284
aS'25106480'
p285
aS'42171678'
p286
aS'1075391'
p287
aS'1665980'
p288
ag53
ag35
ag68
aS'15902055'
p289
ag18
ag172
ag155
aS'96104167'
p290
aS'37770881'
p291
aS'50184318'
p292
ag257
ag214
aS'29474737'
p293
aS'35330349'
p294
ag37
aS'46052388'
p295
aS'62701040'
p296
ag80
aS'17575088'
p297
ag108
aS'53107172'
p298
ag101
ag60
aS'86000192'
p299
aS'77240949'
p300
aS'87758823'
p301
aS'68601184'
p302
ag235
ag24
ag14
ag254
aS'51741554'
p303
ag138
aS'86291592'
p304
aS'31416266'
p305
aS'22699561'
p306
aS'3233378'
p307
aS'33760909'
p308
ag160
aS'28357474'
p309
aS'4783858'
p310
aS'13534377'
p311
aS'1696500'
p312
aS'73980360'
p313
aS'97135019'
p314
aS'48601268'
p315
ag105
aS'64393888'
p316
asg82
I1000
sg83
Nsg84
(iread_data
Room
p317
(dp318
g82
g87
sg88
g89
sbsg90
g91
sg92
I0
sg88
S'Collectieve Intelligentie'
p319
sba(ischedule
Activity
p320
(dp321
g8
(lp322
S'66034145'
p323
aS'21677389'
p324
aS'37399898'
p325
ag104
ag235
aS'64768422'
p326
aS'44828429'
p327
aS'4546613'
p328
aS'69634191'
p329
aS'38179241'
p330
aS'3707829'
p331
aS'5368702'
p332
aS'14847953'
p333
aS'19214659'
p334
aS'2550487'
p335
aS'81155296'
p336
aS'76924297'
p337
aS'28055464'
p338
aS'76661016'
p339
aS'93566383'
p340
aS'20374340'
p341
ag17
aS'34765676'
p342
ag145
aS'65675896'
p343
asg82
I1000
sg83
Nsg84
(iread_data
Room
p344
(dp345
g82
g207
sg88
g208
sbsg90
g91
sg92
I0
sg88
S'Interactie-ontwerp'
p346
sba(ischedule
Activity
p347
(dp348
g8
(lp349
S'36508571'
p350
aS'70113753'
p351
aS'62872965'
p352
ag37
aS'19858730'
p353
ag218
aS'34806836'
p354
ag133
ag157
aS'61611295'
p355
aS'88627897'
p356
ag65
aS'16097870'
p357
aS'62356458'
p358
ag54
ag97
aS'68409833'
p359
ag71
aS'27298319'
p360
aS'22871048'
p361
ag232
ag31
asg82
I1000
sg83
Nsg84
(iread_data
Room
p362
(dp363
g82
S'22'
p364
sg88
S'A1.06'
p365
sbsg90
g91
sg92
I0
sg88
S'Autonomous Agents 2'
p366
sba(ischedule
Activity
p367
(dp368
g8
(lp369
S'67625383'
p370
aS'2079771'
p371
aS'3685034'
p372
aS'5976174'
p373
aS'26857113'
p374
ag300
ag31
aS'38296757'
p375
ag148
ag177
aS'85236626'
p376
ag269
ag266
aS'94467156'
p377
aS'61518436'
p378
aS'40791377'
p379
ag102
aS'56988998'
p380
aS'33252501'
p381
aS'46701583'
p382
aS'90067329'
p383
aS'63111000'
p384
asg82
I1000
sg83
Nsg84
(iread_data
Room
p385
(dp386
g82
S'48'
p387
sg88
S'B0.201'
p388
sbsg90
g91
sg92
I0
sg88
S'Machine Learning'
p389
sba(ischedule
Activity
p390
(dp391
g8
(lp392
g216
ag262
ag11
asg82
S'15'
p393
sg83
(ischedule
Group
p394
(dp395
g8
g392
sg88
S'Informatie- en organisatieontwerp2'
p396
sbsg84
(iread_data
Room
p397
(dp398
g82
S'20'
p399
sg88
S'A1.08'
p400
sbsg90
g188
sg92
g122
sg88
S'Informatie- en organisatieontwerp'
p401
sbaa(lp402
(ischedule
Activity
p403
(dp404
g8
g279
sg82
I1000
sg83
Nsg84
(iread_data
Room
p405
(dp406
g82
g87
sg88
g89
sbsg90
g91
sg92
I0
sg88
g319
sba(ischedule
Activity
p407
(dp408
g8
(lp409
S'20618153'
p410
aS'4709948'
p411
aS'41153310'
p412
aS'54772132'
p413
aS'85284256'
p414
aS'83415514'
p415
aS'99272880'
p416
ag128
aS'27582862'
p417
aS'80135353'
p418
ag63
aS'97019450'
p419
aS'2416751'
p420
aS'22288615'
p421
aS'17823206'
p422
aS'51593625'
p423
ag351
ag31
aS'73196865'
p424
ag49
aS'92977271'
p425
ag61
aS'23983476'
p426
ag176
aS'34900967'
p427
aS'79167252'
p428
ag150
aS'37279234'
p429
aS'7492204'
p430
aS'23215240'
p431
aS'64053722'
p432
aS'44671041'
p433
ag384
ag177
ag20
aS'47982619'
p434
ag81
aS'94955328'
p435
aS'15249775'
p436
aS'66433883'
p437
aS'7386961'
p438
asg82
S'20'
p439
sg83
(ischedule
Group
p440
(dp441
g8
g409
sg88
S'Programmeren in Java 24'
p442
sbsg84
(iread_data
Room
p443
(dp444
g82
g248
sg88
g249
sbsg90
g188
sg92
S'4'
p445
sg88
S'Programmeren in Java 2'
p446
sba(ischedule
Activity
p447
(dp448
g8
(lp449
S'33776961'
p450
aS'52715680'
p451
ag238
aS'82390428'
p452
aS'51415617'
p453
aS'54569540'
p454
ag27
aS'77392404'
p455
aS'57086672'
p456
aS'27370083'
p457
asg82
S'20'
p458
sg83
(ischedule
Group
p459
(dp460
g8
g449
sg88
S'Reflectie op de digitale cultuur3'
p461
sbsg84
(iread_data
Room
p462
(dp463
g82
g399
sg88
g400
sbsg90
g121
sg92
g209
sg88
S'Reflectie op de digitale cultuur'
p464
sba(ischedule
Activity
p465
(dp466
g8
(lp467
S'1048485'
p468
aS'62105897'
p469
ag11
asg82
g439
sg83
(ischedule
Group
p470
(dp471
g8
g467
sg88
S'Programmeren in Java 22'
p472
sbsg84
(iread_data
Room
p473
(dp474
g82
g364
sg88
g365
sbsg90
g188
sg92
g122
sg88
g446
sba(ischedule
Activity
p475
(dp476
g8
(lp477
g136
ag152
ag155
ag15
aS'81116418'
p478
aS'81022997'
p479
ag40
aS'6939933'
p480
ag108
aS'84110134'
p481
aS'13996448'
p482
ag372
aS'86807027'
p483
ag241
aS'40911986'
p484
aS'1766560'
p485
aS'13284244'
p486
aS'90103047'
p487
asg82
S'15'
p488
sg83
(ischedule
Group
p489
(dp490
g8
g477
sg88
S'Project Numerical Recipes2'
p491
sbsg84
(iread_data
Room
p492
(dp493
g82
S'60'
p494
sg88
S'C1.112'
p495
sbsg90
g188
sg92
g122
sg88
S'Project Numerical Recipes'
p496
sba(ischedule
Activity
p497
(dp498
g8
(lp499
S'78136904'
p500
ag375
aS'13718298'
p501
aS'68286356'
p502
ag325
ag219
ag22
ag75
ag161
aS'60661905'
p503
aS'59753700'
p504
asg82
g458
sg83
(ischedule
Group
p505
(dp506
g8
g499
sg88
S'Reflectie op de digitale cultuur2'
p507
sbsg84
(iread_data
Room
p508
(dp509
g82
S'56'
p510
sg88
S'A1.10'
p511
sbsg90
g121
sg92
g122
sg88
g464
sbaa(lp512
(ischedule
Activity
p513
(dp514
g8
g253
sg82
I1000
sg83
Nsg84
(iread_data
Room
p515
(dp516
g82
g119
sg88
g120
sbsg90
g91
sg92
I0
sg88
g275
sba(ischedule
Activity
p517
(dp518
g8
(lp519
g156
ag130
ag137
ag112
ag127
ag131
asg82
S'20'
p520
sg83
(ischedule
Group
p521
(dp522
g8
g519
sg88
S'Bioinformatica1'
p523
sbsg84
(iread_data
Room
p524
(dp525
g82
g166
sg88
g167
sbsg90
g121
sg92
g189
sg88
g168
sba(ischedule
Activity
p526
(dp527
g8
(lp528
g134
ag139
ag152
ag149
ag24
ag132
ag146
ag138
ag151
ag143
ag136
ag150
ag160
ag148
ag140
ag21
ag144
ag133
ag20
ag162
ag141
asg82
g520
sg83
(ischedule
Group
p529
(dp530
g8
g528
sg88
S'Bioinformatica2'
p531
sbsg84
(iread_data
Room
p532
(dp533
g82
g186
sg88
g187
sbsg90
g121
sg92
g122
sg88
g168
sba(ischedule
Activity
p534
(dp535
g8
(lp536
g304
ag313
ag52
ag105
ag257
ag305
ag293
ag310
ag295
ag314
ag286
ag311
ag235
ag62
ag80
asg82
S'20'
p537
sg83
(ischedule
Group
p538
(dp539
g8
g536
sg88
S'Collectieve Intelligentie2'
p540
sbsg84
(iread_data
Room
p541
(dp542
g82
g248
sg88
g249
sbsg90
g121
sg92
g122
sg88
g319
sba(ischedule
Activity
p543
(dp544
g8
(lp545
S'96554914'
p546
aS'20239127'
p547
ag452
aS'13658563'
p548
ag143
ag33
aS'27805666'
p549
ag27
ag372
ag232
aS'70193386'
p550
ag238
ag22
aS'84449005'
p551
ag75
ag378
aS'36213792'
p552
ag451
ag503
ag325
ag375
ag161
ag501
ag150
aS'20095994'
p553
ag56
ag98
ag219
ag450
ag146
aS'51052738'
p554
ag455
aS'49922855'
p555
aS'92778619'
p556
ag100
ag504
aS'99975346'
p557
ag457
ag35
ag361
aS'87830198'
p558
aS'42406214'
p559
ag502
ag500
ag175
ag456
ag453
aS'32044893'
p560
ag411
ag454
aS'70844780'
p561
asg82
I1000
sg83
Nsg84
(iread_data
Room
p562
(dp563
g82
g273
sg88
g274
sbsg90
g91
sg92
I0
sg88
g464
sba(ischedule
Activity
p564
(dp565
g8
(lp566
g357
ag360
ag232
ag352
ag359
ag351
ag356
ag353
ag358
asg82
S'10'
p567
sg83
(ischedule
Group
p568
(dp569
g8
g566
sg88
S'Autonomous Agents 23'
p570
sbsg84
(iread_data
Room
p571
(dp572
g82
g87
sg88
g89
sbsg90
g121
sg92
g209
sg88
g366
sba(ischedule
Activity
p573
(dp574
g8
(lp575
g68
ag138
ag53
ag316
ag294
ag297
ag284
ag60
ag291
ag292
ag280
ag24
ag300
ag307
ag301
asg82
g537
sg83
(ischedule
Group
p576
(dp577
g8
g575
sg88
S'Collectieve Intelligentie4'
p578
sbsg84
(iread_data
Room
p579
(dp580
g82
g510
sg88
g511
sbsg90
g121
sg92
g445
sg88
g319
sbaa(lp581
(ischedule
Activity
p582
(dp583
g8
(lp584
S'52311353'
p585
ag328
ag226
aS'31247305'
p586
ag423
ag268
aS'58074656'
p587
ag228
ag315
aS'77376714'
p588
ag172
aS'95631564'
p589
ag468
aS'78443067'
p590
ag501
ag154
ag433
ag307
ag263
aS'78243495'
p591
ag359
aS'42115591'
p592
aS'3727435'
p593
ag142
ag105
ag358
ag261
aS'40343779'
p594
aS'31103066'
p595
ag54
ag220
aS'65408517'
p596
ag158
aS'26260141'
p597
asg82
S'40'
p598
sg83
(ischedule
Group
p599
(dp600
g8
g584
sg88
S'Software engineering1'
p601
sbsg84
(iread_data
Room
p602
(dp603
g82
g273
sg88
g274
sbsg90
g121
sg92
g189
sg88
S'Software engineering'
p604
sba(ischedule
Activity
p605
(dp606
g8
(lp607
g139
aS'62613937'
p608
ag42
ag254
aS'72665524'
p609
ag264
aS'92665222'
p610
aS'75997788'
p611
ag333
aS'40633534'
p612
ag483
aS'27064249'
p613
ag270
ag67
ag500
aS'1886996'
p614
asg82
S'10'
p615
sg83
(ischedule
Group
p616
(dp617
g8
g607
sg88
S'Advanced Heuristics1'
p618
sbsg84
(iread_data
Room
p619
(dp620
g82
g87
sg88
g89
sbsg90
g188
sg92
g189
sg88
S'Advanced Heuristics'
p621
sba(ischedule
Activity
p622
(dp623
g8
(lp624
S'36527838'
p625
aS'48198668'
p626
aS'13218321'
p627
ag148
ag259
ag590
ag588
aS'1181560'
p628
ag146
aS'27241113'
p629
ag485
ag72
ag77
ag292
aS'58699305'
p630
aS'46570285'
p631
ag415
ag60
ag46
ag384
ag220
ag411
ag217
ag50
ag76
aS'51650744'
p632
aS'30658799'
p633
ag286
ag37
aS'11741347'
p634
aS'59111489'
p635
aS'96082155'
p636
ag551
ag51
ag35
aS'47462856'
p637
ag128
aS'99283252'
p638
ag450
ag19
aS'27916487'
p639
ag591
aS'36748818'
p640
aS'66621166'
p641
aS'78544592'
p642
ag214
aS'13911001'
p643
aS'3883025'
p644
ag611
ag135
aS'49219163'
p645
ag263
aS'41489515'
p646
aS'18144425'
p647
asg82
I1000
sg83
Nsg84
(iread_data
Room
p648
(dp649
g82
g207
sg88
g208
sbsg90
g91
sg92
I0
sg88
S'Moderne Databases'
p650
sba(ischedule
Activity
p651
(dp652
g8
(lp653
g382
ag342
aS'88596522'
p654
aS'67817269'
p655
aS'41527759'
p656
ag68
ag327
aS'72895450'
p657
ag451
ag597
ag141
aS'19540225'
p658
ag110
aS'21095566'
p659
ag172
aS'41585485'
p660
aS'23652927'
p661
aS'53585410'
p662
ag437
ag47
ag331
ag25
aS'14671406'
p663
asg82
S'25'
p664
sg83
(ischedule
Group
p665
(dp666
g8
g653
sg88
S'Algoritmen en complexiteit2'
p667
sbsg84
(iread_data
Room
p668
(dp669
g82
g119
sg88
g120
sbsg90
g188
sg92
g122
sg88
S'Algoritmen en complexiteit'
p670
sba(ischedule
Activity
p671
(dp672
g8
g349
sg82
I1000
sg83
Nsg84
(iread_data
Room
p673
(dp674
g82
g166
sg88
g167
sbsg90
g91
sg92
I0
sg88
g366
sba(ischedule
Activity
p675
(dp676
g8
(lp677
g22
ag235
aS'39429093'
p678
ag561
asg82
g615
sg83
(ischedule
Group
p679
(dp680
g8
g677
sg88
S'Advanced Heuristics2'
p681
sbsg84
(iread_data
Room
p682
(dp683
g82
S'41'
p684
sg88
S'A1.04'
p685
sbsg90
g188
sg92
g122
sg88
g621
sba(ischedule
Activity
p686
(dp687
g8
g519
sg82
S'20'
p688
sg83
g521
sg84
(iread_data
Room
p689
(dp690
g82
g399
sg88
g400
sbsg90
g188
sg92
g189
sg88
g168
sbaaa(lp691
(lp692
(ischedule
Activity
p693
(dp694
g8
(lp695
S'3474870'
p696
ag27
ag342
ag663
ag331
ag360
ag71
ag437
ag110
ag172
ag141
ag655
ag660
ag658
ag657
ag597
ag662
aS'8522855'
p697
ag382
ag659
ag656
ag44
aS'51509565'
p698
ag289
ag373
ag588
ag500
ag47
ag288
ag654
ag594
ag451
ag160
ag661
aS'64554442'
p699
ag104
ag68
ag426
ag72
ag49
aS'36903574'
p700
ag327
ag25
asg82
I1000
sg83
Nsg84
(iread_data
Room
p701
(dp702
g82
g273
sg88
g274
sbsg90
g91
sg92
I0
sg88
g670
sba(ischedule
Activity
p703
(dp704
g8
(lp705
S'73302736'
p706
ag609
aS'87900893'
p707
ag67
aS'65978354'
p708
ag260
ag303
aS'82412626'
p709
ag38
ag63
ag128
ag314
aS'10792879'
p710
ag611
ag43
ag153
ag631
aS'63634350'
p711
ag280
ag357
ag613
ag13
ag483
ag330
aS'32705005'
p712
ag10
aS'72526473'
p713
aS'59220392'
p714
aS'33672995'
p715
ag299
ag233
ag137
ag375
aS'61520025'
p716
aS'55530367'
p717
aS'75623387'
p718
ag428
ag630
aS'79888156'
p719
ag339
aS'62363761'
p720
aS'23565001'
p721
ag308
aS'80188025'
p722
ag102
ag131
aS'10609762'
p723
ag429
aS'14303208'
p724
aS'55412918'
p725
aS'58469172'
p726
aS'75446434'
p727
aS'19717077'
p728
aS'14179347'
p729
ag642
ag469
ag140
aS'11593163'
p730
aS'34173695'
p731
aS'9731271'
p732
aS'58040377'
p733
ag55
ag597
ag382
aS'6709529'
p734
aS'5615125'
p735
ag360
ag20
aS'31306819'
p736
aS'48357272'
p737
asg82
g201
sg83
(ischedule
Group
p738
(dp739
g8
g705
sg88
S'Calculus 21'
p740
sbsg84
(iread_data
Room
p741
(dp742
g82
g87
sg88
g89
sbsg90
g121
sg92
g189
sg88
g210
sba(ischedule
Activity
p743
(dp744
g8
(lp745
g217
aS'8557857'
p746
ag132
ag46
ag179
ag214
ag218
aS'17496687'
p747
ag425
ag11
ag548
ag215
ag426
aS'11459236'
p748
ag262
ag194
ag216
aS'19958553'
p749
aS'18266644'
p750
ag640
ag296
asg82
I1000
sg83
Nsg84
(iread_data
Room
p751
(dp752
g82
g248
sg88
g249
sbsg90
g91
sg92
I0
sg88
g401
sba(ischedule
Activity
p753
(dp754
g8
(lp755
g638
ag220
ag647
ag485
ag128
ag77
ag631
ag636
ag72
ag217
ag60
ag384
ag635
ag625
ag591
ag76
ag632
ag286
ag628
ag640
asg82
S'20'
p756
sg83
(ischedule
Group
p757
(dp758
g8
g755
sg88
S'Moderne Databases2'
p759
sbsg84
(iread_data
Room
p760
(dp761
g82
g119
sg88
g120
sbsg90
g188
sg92
g122
sg88
g650
sba(ischedule
Activity
p762
(dp763
g8
(lp764
g69
ag110
ag62
aS'4697362'
p765
aS'97371272'
p766
ag19
aS'7106649'
p767
ag434
asg82
g242
sg83
(ischedule
Group
p768
(dp769
g8
g764
sg88
S'Technology for games2'
p770
sbsg84
(iread_data
Room
p771
(dp772
g82
g186
sg88
g187
sbsg90
g121
sg92
g122
sg88
g250
sba(ischedule
Activity
p773
(dp774
g8
(lp775
g35
ag143
ag232
ag146
ag411
ag556
ag56
ag547
ag372
ag561
ag557
ag546
ag361
ag100
ag553
ag175
ag150
ag559
ag560
ag558
ag550
ag551
ag378
ag98
ag548
ag549
ag555
ag554
ag33
ag552
asg82
g458
sg83
(ischedule
Group
p776
(dp777
g8
g775
sg88
S'Reflectie op de digitale cultuur1'
p778
sbsg84
(iread_data
Room
p779
(dp780
g82
g207
sg88
g208
sbsg90
g121
sg92
g189
sg88
g464
sba(ischedule
Activity
p781
(dp782
g8
(lp783
g31
ag65
ag133
ag37
ag361
asg82
g567
sg83
(ischedule
Group
p784
(dp785
g8
g783
sg88
S'Autonomous Agents 21'
p786
sbsg84
(iread_data
Room
p787
(dp788
g82
g166
sg88
g167
sbsg90
g121
sg92
g189
sg88
g366
sbaa(lp789
(ischedule
Activity
p790
(dp791
g8
(lp792
S'87602030'
p793
ag78
ag260
ag98
ag436
ag71
ag479
aS'5739011'
p794
ag145
ag767
ag373
aS'31897288'
p795
ag456
aS'35315956'
p796
ag18
ag711
ag376
ag733
ag26
ag591
aS'82968410'
p797
ag136
ag284
aS'72652638'
p798
aS'52304977'
p799
aS'58736785'
p800
ag357
ag557
ag308
ag614
aS'48678993'
p801
ag342
asg82
I1000
sg83
Nsg84
(iread_data
Room
p802
(dp803
g82
g166
sg88
g167
sbsg90
g91
sg92
I0
sg88
S'Heuristieken 2'
p804
sba(ischedule
Activity
p805
(dp806
g8
(lp807
g22
ag42
ag333
ag610
ag561
ag678
ag254
ag270
ag264
ag500
ag614
ag612
ag608
ag611
ag67
ag139
ag235
ag609
ag613
ag483
asg82
I1000
sg83
Nsg84
(iread_data
Room
p808
(dp809
g82
g186
sg88
g187
sbsg90
g91
sg92
I0
sg88
g621
sba(ischedule
Activity
p810
(dp811
g8
(lp812
S'68360259'
p813
aS'97136582'
p814
aS'87314964'
p815
ag226
ag172
ag422
ag177
ag585
ag174
ag178
ag157
ag482
ag707
aS'98780382'
p816
ag232
ag132
ag160
ag145
ag173
ag175
ag479
aS'93023961'
p817
ag504
ag176
aS'19337738'
p818
ag179
ag71
asg82
I1000
sg83
Nsg84
(iread_data
Room
p819
(dp820
g82
g207
sg88
g208
sbsg90
g91
sg92
I0
sg88
g190
sba(ischedule
Activity
p821
(dp822
g8
(lp823
g291
ag359
ag285
ag558
ag551
ag76
aS'55480737'
p824
aS'14398123'
p825
ag196
ag697
aS'74361881'
p826
ag28
ag339
aS'66701209'
p827
ag382
ag66
aS'82066165'
p828
aS'25994016'
p829
ag377
aS'75680261'
p830
aS'51673172'
p831
ag38
ag151
aS'88737765'
p832
ag100
asg82
S'15'
p833
sg83
(ischedule
Group
p834
(dp835
g8
g823
sg88
S'Project Genetic Algorithms3'
p836
sbsg84
(iread_data
Room
p837
(dp838
g82
g87
sg88
g89
sbsg90
g188
sg92
g209
sg88
S'Project Genetic Algorithms'
p839
sba(ischedule
Activity
p840
(dp841
g8
(lp842
g198
ag105
aS'7957843'
p843
ag335
ag358
ag109
ag560
aS'63573738'
p844
ag142
aS'32183908'
p845
ag56
ag304
aS'34691309'
p846
ag58
ag334
ag264
ag559
ag236
ag657
aS'19662602'
p847
aS'21070547'
p848
aS'14941752'
p849
asg82
g488
sg83
(ischedule
Group
p850
(dp851
g8
g842
sg88
S'Project Numerical Recipes3'
p852
sbsg84
(iread_data
Room
p853
(dp854
g82
g364
sg88
g365
sbsg90
g188
sg92
g209
sg88
g496
sba(ischedule
Activity
p855
(dp856
g8
(lp857
g72
ag135
ag150
ag662
ag74
ag259
ag58
ag289
aS'45915482'
p858
ag111
ag415
ag310
ag328
aS'56348773'
p859
aS'23628642'
p860
aS'77306636'
p861
ag590
aS'28957789'
p862
ag336
ag480
aS'3678531'
p863
ag596
aS'93361408'
p864
aS'53139134'
p865
ag64
ag162
ag15
ag793
aS'78735049'
p866
asg82
g201
sg83
(ischedule
Group
p867
(dp868
g8
g857
sg88
S'Calculus 22'
p869
sbsg84
(iread_data
Room
p870
(dp871
g82
g684
sg88
g685
sbsg90
g121
sg92
g122
sg88
g210
sba(ischedule
Activity
p872
(dp873
g8
(lp874
g416
ag159
asg82
S'15'
p875
sg83
(ischedule
Group
p876
(dp877
g8
g874
sg88
S'Compilerbouw practicum2'
p878
sbsg84
(iread_data
Room
p879
(dp880
g82
g494
sg88
g495
sbsg90
g188
sg92
g122
sg88
S'Compilerbouw practicum'
p881
sbaa(lp882
(ischedule
Activity
p883
(dp884
g8
g126
sg82
I1000
sg83
Nsg84
(iread_data
Room
p885
(dp886
g82
g207
sg88
g208
sbsg90
g91
sg92
I0
sg88
g168
sba(ischedule
Activity
p887
(dp888
g8
(lp889
g500
ag360
ag71
ag588
ag697
ag289
ag27
ag72
ag49
ag373
ag699
ag700
ag288
ag104
ag44
ag594
ag160
ag426
ag698
ag696
asg82
g664
sg83
(ischedule
Group
p890
(dp891
g8
g889
sg88
S'Algoritmen en complexiteit1'
p892
sbsg84
(iread_data
Room
p893
(dp894
g82
g364
sg88
g365
sbsg90
g188
sg92
g189
sg88
g670
sba(ischedule
Activity
p895
(dp896
g8
(lp897
g35
ag46
ag629
ag411
ag633
ag627
ag450
ag646
ag626
ag588
ag214
ag148
ag263
ag642
ag19
ag645
ag639
ag51
ag644
ag611
ag292
ag146
ag37
ag634
ag637
ag643
ag135
asg82
g756
sg83
(ischedule
Group
p898
(dp899
g8
g897
sg88
S'Moderne Databases3'
p900
sbsg84
(iread_data
Room
p901
(dp902
g82
g387
sg88
g388
sbsg90
g188
sg92
g209
sg88
g650
sba(ischedule
Activity
p903
(dp904
g8
g653
sg82
S'25'
p905
sg83
g665
sg84
(iread_data
Room
p906
(dp907
g82
g684
sg88
g685
sbsg90
g121
sg92
g122
sg88
g670
sba(ischedule
Activity
p908
(dp909
g8
(lp910
g550
aS'82854435'
p911
ag585
ag53
ag48
ag592
ag706
ag427
ag357
ag103
ag456
ag238
aS'14637758'
p912
ag435
ag503
ag76
ag63
aS'83443653'
p913
ag721
ag361
ag801
ag750
ag501
aS'18477924'
p914
aS'73350019'
p915
ag219
ag61
ag30
ag611
ag419
aS'34243356'
p916
ag36
ag558
ag832
aS'97838175'
p917
aS'58480929'
p918
ag144
ag195
ag737
ag152
ag715
aS'78822885'
p919
aS'65318664'
p920
ag608
aS'72586808'
p921
ag722
ag269
ag135
ag18
asg82
I1000
sg83
Nsg84
(iread_data
Room
p922
(dp923
g82
S'117'
p924
sg88
S'C0.110'
p925
sbsg90
g91
sg92
I0
sg88
S'Analysemethoden en -technieken'
p926
sba(ischedule
Activity
p927
(dp928
g8
(lp929
g641
ag415
ag590
ag551
ag259
ag630
ag50
asg82
S'20'
p930
sg83
(ischedule
Group
p931
(dp932
g8
g929
sg88
S'Moderne Databases1'
p933
sbsg84
(iread_data
Room
p934
(dp935
g82
g399
sg88
g400
sbsg90
g121
sg92
g189
sg88
g650
sbaa(lp936
(ischedule
Activity
p937
(dp938
g8
(lp939
g718
ag20
ag728
ag596
ag233
ag631
ag662
ag731
ag197
ag128
ag717
ag74
ag721
ag469
ag611
ag314
ag10
ag153
ag707
ag375
ag732
ag714
ag357
ag328
ag709
ag102
ag712
ag719
ag195
ag708
ag865
ag310
ag725
ag259
ag734
ag415
ag330
ag63
ag733
ag858
ag726
ag280
ag630
ag864
ag58
ag15
ag13
ag720
ag428
ag642
ag162
ag382
ag336
ag727
ag137
ag289
ag613
ag860
ag196
ag730
ag597
ag862
ag729
ag706
ag722
ag43
ag724
ag590
ag711
ag150
ag64
ag339
ag723
ag38
ag713
ag72
ag793
ag200
ag135
ag715
ag736
ag609
ag737
ag861
ag131
ag735
ag260
ag483
ag198
ag480
ag710
ag55
ag716
ag194
ag140
ag303
ag859
ag429
ag863
ag308
ag360
ag67
ag299
ag866
ag199
ag111
asg82
I1000
sg83
Nsg84
(iread_data
Room
p940
(dp941
g82
g87
sg88
g89
sbsg90
g91
sg92
I0
sg88
g210
sba(ischedule
Activity
p942
(dp943
g8
(lp944
g39
ag12
ag81
ag30
ag52
ag78
ag66
ag35
ag17
ag47
ag49
ag73
ag15
ag13
ag16
ag80
ag18
ag21
ag61
asg82
S'40'
p945
sg83
(ischedule
Group
p946
(dp947
g8
g944
sg88
S'Databases 22'
p948
sbsg84
(iread_data
Room
p949
(dp950
g82
g119
sg88
g120
sbsg90
g121
sg92
g122
sg88
g93
sba(ischedule
Activity
p951
(dp952
g8
(lp953
g411
ag312
ag814
ag177
ag225
ag644
ag916
ag41
ag468
aS'53267490'
p954
ag156
ag479
ag44
ag30
ag79
aS'4353500'
p955
ag59
ag700
asg82
S'20'
p956
sg83
(ischedule
Group
p957
(dp958
g8
g953
sg88
S'Netwerken en systeembeveiliging1'
p959
sbsg84
(iread_data
Room
p960
(dp961
g82
g207
sg88
g208
sbsg90
g188
sg92
g189
sg88
S'Netwerken en systeembeveiliging'
p962
sba(ischedule
Activity
p963
(dp964
g8
(lp965
g71
ag350
ag354
ag355
ag218
ag97
ag54
ag157
asg82
g567
sg83
(ischedule
Group
p966
(dp967
g8
g965
sg88
S'Autonomous Agents 22'
p968
sbsg84
(iread_data
Room
p969
(dp970
g82
g494
sg88
g495
sbsg90
g121
sg92
g122
sg88
g366
sba(ischedule
Activity
p971
(dp972
g8
g783
sg82
S'10'
p973
sg83
g784
sg84
(iread_data
Room
p974
(dp975
g82
g684
sg88
g685
sbsg90
g188
sg92
g189
sg88
g366
sba(ischedule
Activity
p976
(dp977
g8
(lp978
S'16912993'
p979
ag921
ag455
aS'25557516'
p980
ag844
ag304
ag129
ag218
aS'535689'
p981
ag22
ag558
aS'59075181'
p982
ag843
asg82
g956
sg83
(ischedule
Group
p983
(dp984
g8
g978
sg88
S'Netwerken en systeembeveiliging3'
p985
sbsg84
(iread_data
Room
p986
(dp987
g82
g387
sg88
g388
sbsg90
g188
sg92
g209
sg88
g962
sbaa(lp988
(ischedule
Activity
p989
(dp990
g8
g392
sg82
S'15'
p991
sg83
g394
sg84
(iread_data
Room
p992
(dp993
g82
g186
sg88
g187
sbsg90
g121
sg92
g122
sg88
g401
sba(ischedule
Activity
p994
(dp995
g8
g322
sg82
I1000
sg83
Nsg84
(iread_data
Room
p996
(dp997
g82
g166
sg88
g167
sbsg90
g91
sg92
I0
sg88
g346
sba(ischedule
Activity
p998
(dp999
g8
(lp1000
g638
ag97
ag373
aS'31633723'
p1001
ag706
ag659
ag920
aS'80709893'
p1002
aS'37830626'
p1003
ag310
ag130
ag656
ag451
ag377
ag127
ag285
aS'9287708'
p1004
ag236
ag100
ag546
aS'83210352'
p1005
aS'82872148'
p1006
ag309
ag162
ag469
aS'55474917'
p1007
ag481
ag177
ag112
ag159
ag737
ag99
ag412
ag663
ag361
aS'61060652'
p1008
ag133
ag14
ag858
ag417
aS'14072826'
p1009
asg82
S'40'
p1010
sg83
(ischedule
Group
p1011
(dp1012
g8
g1000
sg88
S'Software engineering2'
p1013
sbsg84
(iread_data
Room
p1014
(dp1015
g82
g273
sg88
g274
sbsg90
g188
sg92
g122
sg88
g604
sba(ischedule
Activity
p1016
(dp1017
g8
(lp1018
S'16333449'
p1019
ag34
ag254
ag421
ag696
ag47
ag613
ag410
aS'53512831'
p1020
aS'67073567'
p1021
ag222
ag263
ag52
aS'76903244'
p1022
ag735
aS'24891081'
p1023
asg82
S'20'
p1024
sg83
(ischedule
Group
p1025
(dp1026
g8
g1018
sg88
S'Webprogrammeren en databases1'
p1027
sbsg84
(iread_data
Room
p1028
(dp1029
g82
g248
sg88
g249
sbsg90
g121
sg92
g189
sg88
S'Webprogrammeren en databases'
p1030
sba(ischedule
Activity
p1031
(dp1032
g8
(lp1033
g80
ag140
ag12
ag31
ag151
ag241
ag27
ag291
ag217
ag304
ag266
ag486
ag259
aS'88636924'
p1034
aS'79033175'
p1035
ag225
ag827
aS'8464817'
p1036
ag220
ag371
ag610
aS'65852230'
p1037
ag485
ag916
ag15
ag237
ag134
aS'75759231'
p1038
aS'98105190'
p1039
aS'94687383'
p1040
ag843
ag332
aS'15911353'
p1041
ag589
aS'95007221'
p1042
ag39
aS'34110913'
p1043
aS'43689934'
p1044
ag138
ag633
ag418
aS'44391517'
p1045
ag428
ag413
ag65
ag379
ag710
ag643
aS'2317551'
p1046
ag339
ag634
ag657
aS'9067939'
p1047
asg82
S'40'
p1048
sg83
(ischedule
Group
p1049
(dp1050
g8
g1033
sg88
S'Compilerbouw1'
p1051
sbsg84
(iread_data
Room
p1052
(dp1053
g82
g87
sg88
g89
sbsg90
g188
sg92
g189
sg88
g123
sba(ischedule
Activity
p1054
(dp1055
g8
(lp1056
g153
ag155
ag163
ag159
ag42
ag129
ag81
ag154
ag157
ag43
ag77
ag147
ag158
ag145
ag161
ag135
ag128
ag142
asg82
g688
sg83
(ischedule
Group
p1057
(dp1058
g8
g1056
sg88
S'Bioinformatica3'
p1059
sbsg84
(iread_data
Room
p1060
(dp1061
g82
g119
sg88
g120
sbsg90
g188
sg92
g209
sg88
g168
sba(ischedule
Activity
p1062
(dp1063
g8
g812
sg82
I1000
sg83
Nsg84
(iread_data
Room
p1064
(dp1065
g82
g207
sg88
g208
sbsg90
g91
sg92
I0
sg88
g190
sbaaa(lp1066
(lp1067
(ischedule
Activity
p1068
(dp1069
g8
(lp1070
g98
ag750
ag732
ag711
aS'47605891'
p1071
ag825
ag419
ag656
ag862
ag236
aS'44940353'
p1072
ag726
ag153
ag138
aS'37498675'
p1073
aS'63955238'
p1074
ag660
ag139
ag265
ag481
ag637
ag500
ag53
ag81
ag136
ag198
ag215
ag697
aS'39230359'
p1075
aS'72547110'
p1076
ag269
aS'79858178'
p1077
ag766
aS'39919665'
p1078
ag97
ag50
ag1001
ag435
ag102
ag710
ag735
ag378
ag631
aS'34262212'
p1079
aS'82688900'
p1080
ag332
aS'81218347'
p1081
ag337
ag234
ag700
ag46
ag173
aS'38499176'
p1082
ag1007
ag712
ag422
ag197
ag866
ag377
ag430
ag380
aS'51186803'
p1083
aS'38329455'
p1084
ag663
aS'65003379'
p1085
ag130
ag454
ag592
ag547
aS'39659121'
p1086
ag982
aS'23391676'
p1087
ag283
ag416
ag372
ag20
ag300
ag916
aS'91139627'
p1088
aS'63408522'
p1089
aS'10872825'
p1090
aS'79366078'
p1091
ag48
ag586
asg82
I1000
sg83
Nsg84
(iread_data
Room
p1092
(dp1093
g82
g87
sg88
g89
sbsg90
g91
sg92
I0
sg88
S'Kansrekenen 2'
p1094
sba(ischedule
Activity
p1095
(dp1096
g8
(lp1097
g323
ag591
ag261
ag284
ag333
aS'1137946'
p1098
ag280
aS'10698627'
p1099
ag134
ag154
aS'94930277'
p1100
aS'76648468'
p1101
aS'28358060'
p1102
ag420
ag456
ag69
ag455
ag1075
aS'49908313'
p1103
aS'69459473'
p1104
ag657
aS'41790793'
p1105
ag724
asg82
S'20'
p1106
sg83
(ischedule
Group
p1107
(dp1108
g8
g1097
sg88
S'Webprogrammeren en databases2'
p1109
sbsg84
(iread_data
Room
p1110
(dp1111
g82
g166
sg88
g167
sbsg90
g188
sg92
g122
sg88
g1030
sba(ischedule
Activity
p1112
(dp1113
g8
g1033
sg82
g113
sg83
g1049
sg84
(iread_data
Room
p1114
(dp1115
g82
g273
sg88
g274
sbsg90
g121
sg92
g189
sg88
g123
sba(ischedule
Activity
p1116
(dp1117
g8
g965
sg82
g973
sg83
g966
sg84
(iread_data
Room
p1118
(dp1119
g82
g248
sg88
g249
sbsg90
g188
sg92
g122
sg88
g366
sba(ischedule
Activity
p1120
(dp1121
g8
g566
sg82
g973
sg83
g568
sg84
(iread_data
Room
p1122
(dp1123
g82
g364
sg88
g365
sbsg90
g188
sg92
g209
sg88
g366
sba(ischedule
Activity
p1124
(dp1125
g8
(lp1126
g309
ag289
ag315
ag312
ag56
ag290
ag285
ag172
ag35
asg82
g537
sg83
(ischedule
Group
p1127
(dp1128
g8
g1126
sg88
S'Collectieve Intelligentie3'
p1129
sbsg84
(iread_data
Room
p1130
(dp1131
g82
g510
sg88
g511
sbsg90
g121
sg92
g209
sg88
g319
sba(ischedule
Activity
p1132
(dp1133
g8
(lp1134
g625
aS'13210212'
p1135
aS'37804282'
p1136
ag858
ag29
asg82
S'15'
p1137
sg83
(ischedule
Group
p1138
(dp1139
g8
g1134
sg88
S'Zoeken sturen en bewegen3'
p1140
sbsg84
(iread_data
Room
p1141
(dp1142
g82
g399
sg88
g400
sbsg90
g188
sg92
g209
sg88
S'Zoeken sturen en bewegen'
p1143
sbaa(lp1144
(ischedule
Activity
p1145
(dp1146
g8
(lp1147
g241
ag1039
ag633
ag31
ag259
ag710
ag827
ag657
ag916
ag103
ag1036
ag371
ag80
ag339
ag112
ag1038
ag266
ag217
ag1047
ag1040
ag1035
ag101
ag140
ag1044
ag104
ag332
ag98
ag106
ag304
ag108
ag1045
ag220
ag291
ag843
ag610
ag379
ag1037
ag110
ag134
ag1042
ag15
ag589
ag12
ag237
ag418
ag102
ag65
ag1046
ag138
ag428
ag27
ag105
ag109
ag1043
ag100
ag486
ag97
ag107
ag634
ag99
ag39
ag111
ag643
ag1041
ag485
ag413
ag1034
ag151
ag225
asg82
I1000
sg83
Nsg84
(iread_data
Room
p1148
(dp1149
g82
g87
sg88
g89
sbsg90
g91
sg92
I0
sg88
g123
sba(ischedule
Activity
p1150
(dp1151
g8
(lp1152
g333
ag657
ag1023
ag696
ag455
ag1101
ag52
ag410
ag284
ag1098
ag724
ag421
ag1105
ag1104
ag34
ag1020
ag280
ag1075
ag263
ag154
ag1100
ag456
ag420
ag261
ag323
ag1102
ag1022
ag254
ag1099
ag1103
ag613
ag591
ag69
ag47
ag735
ag134
ag1021
ag1019
ag222
asg82
I1000
sg83
Nsg84
(iread_data
Room
p1153
(dp1154
g82
g248
sg88
g249
sbsg90
g91
sg92
I0
sg88
g1030
sba(ischedule
Activity
p1155
(dp1156
g8
(lp1157
S'71839156'
p1158
ag353
aS'53775014'
p1159
ag913
ag298
ag1008
ag286
ag419
ag312
ag849
ag795
aS'20830477'
p1160
ag1100
ag982
ag81
ag226
ag611
ag737
ag178
ag700
ag214
aS'79879876'
p1161
ag425
aS'97417002'
p1162
ag310
aS'76393508'
p1163
ag153
ag361
ag218
aS'45660925'
p1164
ag19
ag232
ag800
ag265
ag127
ag1081
ag1039
ag255
ag483
ag44
ag43
aS'87210640'
p1165
ag548
ag955
asg82
I1000
sg83
Nsg84
(iread_data
Room
p1166
(dp1167
g82
g387
sg88
g388
sbsg90
g91
sg92
I0
sg88
S'Heuristieken 1'
p1168
sba(ischedule
Activity
p1169
(dp1170
g8
(lp1171
g732
aS'73893840'
p1172
ag51
ag382
aS'39905995'
p1173
ag733
aS'51791169'
p1174
ag296
ag450
aS'63096281'
p1175
ag316
ag1079
ag376
ag726
ag143
asg82
g439
sg83
(ischedule
Group
p1176
(dp1177
g8
g1171
sg88
S'Programmeren in Java 25'
p1178
sbsg84
(iread_data
Room
p1179
(dp1180
g82
g399
sg88
g400
sbsg90
g188
sg92
S'5'
p1181
sg88
g446
sba(ischedule
Activity
p1182
(dp1183
g8
g126
sg82
I1000
sg83
Nsg84
(iread_data
Room
p1184
(dp1185
g82
g494
sg88
g495
sbsg90
g91
sg92
I0
sg88
g168
sbaa(lp1186
(ischedule
Activity
p1187
(dp1188
g8
g584
sg82
g1010
sg83
g599
sg84
(iread_data
Room
p1189
(dp1190
g82
g166
sg88
g167
sbsg90
g188
sg92
g189
sg88
g604
sba(ischedule
Activity
p1191
(dp1192
g8
g755
sg82
g930
sg83
g757
sg84
(iread_data
Room
p1193
(dp1194
g82
g364
sg88
g365
sbsg90
g121
sg92
g122
sg88
g650
sba(ischedule
Activity
p1195
(dp1196
g8
(lp1197
g160
ag1046
ag1099
ag223
ag482
ag335
ag711
ag377
asg82
g439
sg83
(ischedule
Group
p1198
(dp1199
g8
g1197
sg88
S'Programmeren in Java 26'
p1200
sbsg84
(iread_data
Room
p1201
(dp1202
g82
g510
sg88
g511
sbsg90
g188
sg92
S'6'
p1203
sg88
g446
sba(ischedule
Activity
p1204
(dp1205
g8
(lp1206
S'88519892'
p1207
ag1036
ag302
ag102
ag1007
ag27
aS'28943658'
p1208
ag46
aS'12782624'
p1209
ag304
ag173
ag503
aS'88263855'
p1210
ag67
ag305
ag26
ag33
ag325
ag483
ag662
ag299
ag340
ag1087
ag863
aS'10702778'
p1211
ag1160
aS'90296821'
p1212
ag1040
ag289
ag284
aS'88597745'
p1213
ag374
ag140
ag1045
ag14
ag80
ag556
asg82
g439
sg83
(ischedule
Group
p1214
(dp1215
g8
g1206
sg88
S'Programmeren in Java 23'
p1216
sbsg84
(iread_data
Room
p1217
(dp1218
g82
g494
sg88
g495
sbsg90
g188
sg92
g209
sg88
g446
sba(ischedule
Activity
p1219
(dp1220
g8
(lp1221
g217
ag314
ag504
ag714
ag52
ag179
ag75
ag548
ag22
ag1074
aS'57701414'
p1222
ag148
aS'57419039'
p1223
ag134
ag917
ag862
aS'82233873'
p1224
asg82
g1137
sg83
(ischedule
Group
p1225
(dp1226
g8
g1221
sg88
S'Zoeken sturen en bewegen2'
p1227
sbsg84
(iread_data
Room
p1228
(dp1229
g82
g684
sg88
g685
sbsg90
g188
sg92
g122
sg88
g1143
sba(ischedule
Activity
p1230
(dp1231
g8
(lp1232
S'41644639'
p1233
asg82
g833
sg83
(ischedule
Group
p1234
(dp1235
g8
g1232
sg88
S'Project Genetic Algorithms2'
p1236
sbsg84
(iread_data
Room
p1237
(dp1238
g82
g399
sg88
g400
sbsg90
g188
sg92
g122
sg88
g839
sba(ischedule
Activity
p1239
(dp1240
g8
(lp1241
S'123355'
p1242
ag264
ag314
ag413
aS'19058315'
p1243
aS'12170832'
p1244
ag1082
ag145
ag732
ag155
ag750
ag174
asg82
g956
sg83
(ischedule
Group
p1245
(dp1246
g8
g1241
sg88
S'Netwerken en systeembeveiliging2'
p1247
sbsg84
(iread_data
Room
p1248
(dp1249
g82
g924
sg88
g925
sbsg90
g188
sg92
g122
sg88
g962
sbaa(lp1250
(ischedule
Activity
p1251
(dp1252
g8
g1070
sg82
I1000
sg83
Nsg84
(iread_data
Room
p1253
(dp1254
g82
g87
sg88
g89
sbsg90
g91
sg92
I0
sg88
g1094
sba(ischedule
Activity
p1255
(dp1256
g8
(lp1257
g101
ag288
ag299
ag155
ag303
ag308
ag254
ag298
ag14
ag214
ag37
ag282
ag287
ag18
ag281
ag302
ag283
ag223
ag108
ag306
ag296
ag160
asg82
S'20'
p1258
sg83
(ischedule
Group
p1259
(dp1260
g8
g1257
sg88
S'Collectieve Intelligentie1'
p1261
sbsg84
(iread_data
Room
p1262
(dp1263
g82
g273
sg88
g274
sbsg90
g188
sg92
g189
sg88
g319
sba(ischedule
Activity
p1264
(dp1265
g8
g1152
sg82
I1000
sg83
Nsg84
(iread_data
Room
p1266
(dp1267
g82
g684
sg88
g685
sbsg90
g91
sg92
I0
sg88
g1030
sba(ischedule
Activity
p1268
(dp1269
g8
g1126
sg82
g1258
sg83
g1127
sg84
(iread_data
Room
p1270
(dp1271
g82
g510
sg88
g511
sbsg90
g188
sg92
g209
sg88
g319
sba(ischedule
Activity
p1272
(dp1273
g8
(lp1274
g325
ag140
ag301
ag331
ag141
ag1047
ag1045
ag147
ag356
ag1233
ag360
aS'59887191'
p1275
ag556
ag235
ag144
ag286
aS'33946407'
p1276
aS'24167153'
p1277
ag196
ag1213
asg82
g1137
sg83
(ischedule
Group
p1278
(dp1279
g8
g1274
sg88
S'Zoeken sturen en bewegen1'
p1280
sbsg84
(iread_data
Room
p1281
(dp1282
g82
g387
sg88
g388
sbsg90
g188
sg92
g189
sg88
g1143
sba(ischedule
Activity
p1283
(dp1284
g8
(lp1285
g71
ag232
ag707
ag422
ag482
ag818
ag479
ag814
ag817
asg82
S'10'
p1286
sg83
(ischedule
Group
p1287
(dp1288
g8
g1285
sg88
S'Data Mining3'
p1289
sbsg84
(iread_data
Room
p1290
(dp1291
g82
g364
sg88
g365
sbsg90
g121
sg92
g209
sg88
g190
sba(ischedule
Activity
p1292
(dp1293
g8
g171
sg82
g1286
sg83
g181
sg84
(iread_data
Room
p1294
(dp1295
g82
g399
sg88
g400
sbsg90
g121
sg92
g189
sg88
g190
sbaa(lp1296
(ischedule
Activity
p1297
(dp1298
g8
(lp1299
g982
ag548
ag153
ag737
ag1081
ag312
ag218
ag1164
ag1160
ag127
ag483
ag214
ag361
ag849
ag611
ag43
ag1163
ag81
ag298
ag1039
ag226
ag232
ag419
ag1162
ag425
ag255
ag800
ag1165
ag1159
ag178
ag1161
ag1100
ag955
ag286
asg82
S'25'
p1300
sg83
(ischedule
Group
p1301
(dp1302
g8
g1299
sg88
S'Heuristieken 11'
p1303
sbsg84
(iread_data
Room
p1304
(dp1305
g82
g248
sg88
g249
sbsg90
g121
sg92
g189
sg88
g1168
sba(ischedule
Activity
p1306
(dp1307
g8
g889
sg82
g905
sg83
g890
sg84
(iread_data
Room
p1308
(dp1309
g82
g119
sg88
g120
sbsg90
g121
sg92
g189
sg88
g670
sba(ischedule
Activity
p1310
(dp1311
g8
g369
sg82
I1000
sg83
Nsg84
(iread_data
Room
p1312
(dp1313
g82
g207
sg88
g208
sbsg90
g91
sg92
I0
sg88
g389
sba(ischedule
Activity
p1314
(dp1315
g8
(lp1316
g310
ag19
ag44
ag1158
ag913
ag795
ag265
ag1008
ag353
ag700
asg82
g1300
sg83
(ischedule
Group
p1317
(dp1318
g8
g1316
sg88
S'Heuristieken 12'
p1319
sbsg84
(iread_data
Room
p1320
(dp1321
g82
g186
sg88
g187
sbsg90
g121
sg92
g122
sg88
g1168
sba(ischedule
Activity
p1322
(dp1323
g8
(lp1324
g220
ag224
ag765
ag228
ag135
ag221
ag234
ag241
ag225
ag216
ag239
ag110
ag236
ag146
ag232
ag215
ag230
ag237
ag766
ag69
ag235
ag238
ag19
ag227
ag219
ag217
ag240
ag434
ag222
ag229
ag231
ag767
ag223
ag62
ag233
ag226
ag214
ag218
asg82
I1000
sg83
Nsg84
(iread_data
Room
p1325
(dp1326
g82
g494
sg88
g495
sbsg90
g91
sg92
I0
sg88
g250
sba(ischedule
Activity
p1327
(dp1328
g8
(lp1329
g308
ag591
ag357
ag284
ag145
ag26
ag260
ag796
ag733
ag98
ag456
ag794
ag711
ag797
ag376
asg82
S'20'
p1330
sg83
(ischedule
Group
p1331
(dp1332
g8
g1329
sg88
S'Heuristieken 21'
p1333
sbsg84
(iread_data
Room
p1334
(dp1335
g82
g924
sg88
g925
sbsg90
g121
sg92
g189
sg88
g804
sba(ischedule
Activity
p1336
(dp1337
g8
(lp1338
g106
ag127
ag282
aS'42297781'
p1339
aS'44151631'
p1340
aS'47260040'
p1341
ag221
ag831
aS'1695839'
p1342
aS'64418623'
p1343
ag36
aS'51472074'
p1344
ag829
ag255
ag654
ag828
ag172
ag643
ag142
ag748
aS'5892092'
p1345
ag724
ag1158
ag826
ag216
ag981
ag343
asg82
g875
sg83
(ischedule
Group
p1346
(dp1347
g8
g1338
sg88
S'Compilerbouw practicum3'
p1348
sbsg84
(iread_data
Room
p1349
(dp1350
g82
g387
sg88
g388
sbsg90
g188
sg92
g209
sg88
g881
sbaaa(lp1351
(lp1352
(ischedule
Activity
p1353
(dp1354
g8
(lp1355
g451
ag586
ag220
ag1008
ag263
ag285
ag177
ag659
ag417
ag54
ag423
ag737
ag433
ag133
ag663
ag158
ag358
ag127
ag412
ag100
ag159
ag1004
ag172
ag112
ag105
ag1002
ag142
ag1009
ag1006
ag307
ag309
ag858
ag920
ag1005
ag587
ag592
ag585
ag469
ag468
ag1007
ag591
ag546
ag595
ag130
ag315
ag97
ag261
ag310
ag228
ag14
ag377
ag596
ag154
ag590
ag481
ag236
ag589
ag359
ag226
ag501
ag268
ag361
ag373
ag597
ag99
ag706
ag328
ag1001
ag594
ag588
ag656
ag593
ag162
ag638
ag1003
asg82
I1000
sg83
Nsg84
g940
sg90
g91
sg92
I0
sg88
g604
sba(ischedule
Activity
p1356
(dp1357
g8
g929
sg82
g756
sg83
g931
sg84
(iread_data
Room
p1358
(dp1359
g82
g119
sg88
g120
sbsg90
g188
sg92
g189
sg88
g650
sba(ischedule
Activity
p1360
(dp1361
g8
g1018
sg82
g1106
sg83
g1025
sg84
(iread_data
Room
p1362
(dp1363
g82
g248
sg88
g249
sbsg90
g188
sg92
g189
sg88
g1030
sba(ischedule
Activity
p1364
(dp1365
g8
g1285
sg82
g180
sg83
g1287
sg84
(iread_data
Room
p1366
(dp1367
g82
g399
sg88
g400
sbsg90
g188
sg92
g209
sg88
g190
sba(ischedule
Activity
p1368
(dp1369
g8
g897
sg82
g930
sg83
g898
sg84
(iread_data
Room
p1370
(dp1371
g82
g510
sg88
g511
sbsg90
g121
sg92
g209
sg88
g650
sba(ischedule
Activity
p1372
(dp1373
g8
g575
sg82
g1258
sg83
g576
sg84
(iread_data
Room
p1374
(dp1375
g82
g387
sg88
g388
sbsg90
g188
sg92
g445
sg88
g319
sba(ischedule
Activity
p1376
(dp1377
g8
(lp1378
g132
ag585
ag816
ag160
ag815
ag226
ag813
ag504
ag157
asg82
g180
sg83
(ischedule
Group
p1379
(dp1380
g8
g1378
sg88
S'Data Mining2'
p1381
sbsg84
(iread_data
Room
p1382
(dp1383
g82
g494
sg88
g495
sbsg90
g188
sg92
g122
sg88
g190
sbaa(lp1384
(ischedule
Activity
p1385
(dp1386
g8
g545
sg82
I1000
sg83
Nsg84
(iread_data
Room
p1387
(dp1388
g82
g87
sg88
g89
sbsg90
g91
sg92
I0
sg88
g464
sba(ischedule
Activity
p1389
(dp1390
g8
(lp1391
g1081
ag1082
ag24
ag80
ag1002
aS'90743504'
p1392
ag721
ag294
ag153
ag585
aS'80998260'
p1393
ag198
ag357
ag916
aS'26172512'
p1394
ag40
ag173
ag350
ag1007
ag435
aS'96118484'
p1395
aS'66570705'
p1396
ag238
ag305
ag1158
ag108
ag301
ag592
ag55
aS'54074680'
p1397
aS'32595335'
p1398
ag359
ag241
ag37
aS'34588570'
p1399
ag325
ag1008
ag625
aS'21311067'
p1400
ag340
ag696
ag1019
ag13
ag725
aS'16011419'
p1401
ag1005
ag267
ag233
ag137
aS'79937969'
p1402
ag26
ag352
ag61
ag104
asg82
I1000
sg83
Nsg84
(iread_data
Room
p1403
(dp1404
g82
g273
sg88
g274
sbsg90
g91
sg92
I0
sg88
S'Lineaire Algebra'
p1405
sba(ischedule
Activity
p1406
(dp1407
g8
(lp1408
g179
ag46
ag548
ag750
ag215
ag132
ag425
ag748
ag217
ag296
ag214
ag746
ag218
ag194
ag426
ag640
ag749
ag747
asg82
g393
sg83
(ischedule
Group
p1409
(dp1410
g8
g1408
sg88
S'Informatie- en organisatieontwerp1'
p1411
sbsg84
(iread_data
Room
p1412
(dp1413
g82
g399
sg88
g400
sbsg90
g188
sg92
g189
sg88
g401
sba(ischedule
Activity
p1414
(dp1415
g8
(lp1416
S'37419523'
p1417
ag112
aS'63939720'
p1418
ag231
asg82
g488
sg83
(ischedule
Group
p1419
(dp1420
g8
g1416
sg88
S'Project Numerical Recipes1'
p1421
sbsg84
(iread_data
Room
p1422
(dp1423
g82
g387
sg88
g388
sbsg90
g188
sg92
g189
sg88
g496
sba(ischedule
Activity
p1424
(dp1425
g8
(lp1426
g700
aS'54395877'
p1427
ag660
ag109
ag1082
ag1161
asg82
g439
sg83
(ischedule
Group
p1428
(dp1429
g8
g1426
sg88
S'Programmeren in Java 21'
p1430
sbsg84
(iread_data
Room
p1431
(dp1432
g82
g684
sg88
g685
sbsg90
g188
sg92
g189
sg88
g446
sba(ischedule
Activity
p1433
(dp1434
g8
g1257
sg82
g537
sg83
g1259
sg84
(iread_data
Room
p1435
(dp1436
g82
g510
sg88
g511
sbsg90
g121
sg92
g189
sg88
g319
sbaa(lp1437
(ischedule
Activity
p1438
(dp1439
g8
g1000
sg82
g598
sg83
g1011
sg84
(iread_data
Room
p1440
(dp1441
g82
g248
sg88
g249
sbsg90
g121
sg92
g122
sg88
g604
sba(ischedule
Activity
p1442
(dp1443
g8
g1324
sg82
I1000
sg83
Nsg84
(iread_data
Room
p1444
(dp1445
g82
g387
sg88
g388
sbsg90
g91
sg92
I0
sg88
g250
sba(ischedule
Activity
p1446
(dp1447
g8
(lp1448
g612
ag260
ag793
ag801
ag337
ag281
ag1104
ag238
ag638
ag729
asg82
g833
sg83
(ischedule
Group
p1449
(dp1450
g8
g1448
sg88
S'Project Genetic Algorithms1'
p1451
sbsg84
(iread_data
Room
p1452
(dp1453
g82
g364
sg88
g365
sbsg90
g188
sg92
g189
sg88
g839
sba(ischedule
Activity
p1454
(dp1455
g8
(lp1456
g303
ag23
ag324
ag200
ag1275
ag609
aS'5590289'
p1457
ag414
ag720
ag14
ag104
ag586
ag68
ag1006
ag801
ag594
ag825
ag561
aS'64246605'
p1458
ag697
ag163
asg82
g956
sg83
(ischedule
Group
p1459
(dp1460
g8
g1456
sg88
S'Netwerken en systeembeveiliging4'
p1461
sbsg84
(iread_data
Room
p1462
(dp1463
g82
g510
sg88
g511
sbsg90
g188
sg92
g445
sg88
g962
sbaa(lp1464
(ischedule
Activity
p1465
(dp1466
g8
g1147
sg82
I1000
sg83
Nsg84
(iread_data
Room
p1467
(dp1468
g82
g87
sg88
g89
sbsg90
g91
sg92
I0
sg88
g123
sba(ischedule
Activity
p1469
(dp1470
g8
(lp1471
g10
ag38
ag56
ag58
ag64
ag74
ag67
ag63
ag43
ag37
ag68
ag71
ag55
ag62
ag28
ag44
ag22
ag41
ag53
ag25
ag29
ag19
ag75
ag70
ag26
ag34
ag57
ag42
ag69
ag33
ag60
ag46
ag51
ag45
ag59
ag24
ag50
ag79
ag27
ag54
ag11
ag77
ag72
ag31
ag23
ag32
ag48
ag65
ag36
ag76
ag40
ag20
ag14
asg82
g945
sg83
(ischedule
Group
p1472
(dp1473
g8
g1471
sg88
S'Databases 21'
p1474
sbsg84
(iread_data
Room
p1475
(dp1476
g82
g207
sg88
g208
sbsg90
g121
sg92
g189
sg88
g93
sba(ischedule
Activity
p1477
(dp1478
g8
g1056
sg82
g520
sg83
g1057
sg84
(iread_data
Room
p1479
(dp1480
g82
g166
sg88
g167
sbsg90
g121
sg92
g209
sg88
g168
sba(ischedule
Activity
p1481
(dp1482
g8
g1378
sg82
g1286
sg83
g1379
sg84
(iread_data
Room
p1483
(dp1484
g82
g399
sg88
g400
sbsg90
g121
sg92
g122
sg88
g190
sba(ischedule
Activity
p1485
(dp1486
g8
g745
sg82
I1000
sg83
Nsg84
(iread_data
Room
p1487
(dp1488
g82
g364
sg88
g365
sbsg90
g91
sg92
I0
sg88
g401
sba(ischedule
Activity
p1489
(dp1490
g8
g536
sg82
g1258
sg83
g538
sg84
(iread_data
Room
p1491
(dp1492
g82
g494
sg88
g495
sbsg90
g188
sg92
g122
sg88
g319
sba(ischedule
Activity
p1493
(dp1494
g8
(lp1495
g451
ag288
ag1082
ag711
ag1233
aS'55103073'
p1496
ag609
ag62
ag662
aS'91250534'
p1497
ag431
asg82
g875
sg83
(ischedule
Group
p1498
(dp1499
g8
g1495
sg88
S'Compilerbouw practicum1'
p1500
sbsg84
(iread_data
Room
p1501
(dp1502
g82
g684
sg88
g685
sbsg90
g188
sg92
g189
sg88
g881
sbaa(lp1503
(ischedule
Activity
p1504
(dp1505
g8
(lp1506
g800
ag795
ag373
ag793
ag78
ag18
ag342
ag798
ag767
ag136
ag71
ag557
ag614
ag479
ag799
ag801
ag436
asg82
g1330
sg83
(ischedule
Group
p1507
(dp1508
g8
g1506
sg88
S'Heuristieken 22'
p1509
sbsg84
(iread_data
Room
p1510
(dp1511
g82
g119
sg88
g120
sbsg90
g121
sg92
g122
sg88
g804
sba(ischedule
Activity
p1512
(dp1513
g8
g279
sg82
I1000
sg83
Nsg84
g940
sg90
g91
sg92
I0
sg88
g319
sba(ischedule
Activity
p1514
(dp1515
g8
g1391
sg82
I1000
sg83
Nsg84
(iread_data
Room
p1516
(dp1517
g82
g207
sg88
g208
sbsg90
g91
sg92
I0
sg88
g1405
sba(ischedule
Activity
p1518
(dp1519
g8
g528
sg82
g688
sg83
g529
sg84
(iread_data
Room
p1520
(dp1521
g82
g273
sg88
g274
sbsg90
g188
sg92
g122
sg88
g168
sba(ischedule
Activity
p1522
(dp1523
g8
g96
sg82
g1048
sg83
g114
sg84
(iread_data
Room
p1524
(dp1525
g82
g248
sg88
g249
sbsg90
g188
sg92
g122
sg88
g123
sba(ischedule
Activity
p1526
(dp1527
g8
g1097
sg82
g1024
sg83
g1107
sg84
(iread_data
Room
p1528
(dp1529
g82
g166
sg88
g167
sbsg90
g121
sg92
g122
sg88
g1030
sba(ischedule
Activity
p1530
(dp1531
g8
g1408
sg82
g991
sg83
g1409
sg84
(iread_data
Room
p1532
(dp1533
g82
g186
sg88
g187
sbsg90
g121
sg92
g189
sg88
g401
sbaaa(lp1534
(lp1535
a(lp1536
a(lp1537
a(lp1538
a(lp1539
aasS'timeslot_dict'
p1540
(dp1541
I0
S'9:00-11:00'
p1542
sI1
S'11:00-13:00'
p1543
sI2
S'13:00-15:00'
p1544
sI3
S'15:00-17:00'
p1545
sI4
S'17:00-19:00'
p1546
ssS'day_dict'
p1547
(dp1548
I0
S'Monday'
p1549
sI1
S'Tuesday'
p1550
sI2
S'Wednesday'
p1551
sI3
S'Thursday'
p1552
sI4
S'Friday'
p1553
ssb.