(ischedule
Schedule
p0
(dp1
S'timetable'
p2
(lp3
(lp4
(lp5
(ischedule
Activity
p6
(dp7
S'participants'
p8
(lp9
S'12782624'
p10
aS'88263855'
p11
aS'17823206'
p12
aS'8464817'
p13
aS'670011'
p14
aS'45414528'
p15
aS'23257088'
p16
aS'22826928'
p17
aS'10702778'
p18
aS'21964491'
p19
aS'38499176'
p20
aS'46701583'
p21
aS'86988337'
p22
aS'9731271'
p23
aS'28943658'
p24
aS'62701040'
p25
aS'48503689'
p26
aS'88597745'
p27
aS'64393888'
p28
asS'capacity'
p29
S'20'
p30
sS'name'
p31
S'Programmeren in Java 2'
p32
sS'ttype'
p33
S'labs'
p34
sS'group_id'
p35
S'1'
p36
sS'room'
p37
(iread_data
Room
p38
(dp39
g29
S'20'
p40
sg31
S'A1.08'
p41
sbsba(ischedule
Activity
p42
(dp43
g8
(lp44
S'87900893'
p45
ag15
aS'74131924'
p46
aS'22323043'
p47
aS'52311353'
p48
aS'25330192'
p49
aS'91196968'
p50
asg29
S'10'
p51
sg31
S'Data Mining'
p52
sg33
g34
sg35
S'2'
p53
sg37
(iread_data
Room
p54
(dp55
g29
S'117'
p56
sg31
S'C0.110'
p57
sbsba(ischedule
Activity
p58
(dp59
g8
(lp60
S'40343779'
p61
aS'97135019'
p62
aS'56121590'
p63
aS'48678993'
p64
aS'62363761'
p65
aS'1696500'
p66
aS'28618400'
p67
aS'5590289'
p68
aS'33930505'
p69
aS'37744525'
p70
ag20
aS'77392404'
p71
aS'26207525'
p72
aS'18266644'
p73
aS'70844780'
p74
asg29
S'20'
p75
sg31
S'Netwerken en systeembeveiliging'
p76
sg33
g34
sg35
S'3'
p77
sg37
(iread_data
Room
p78
(dp79
g29
S'22'
p80
sg31
S'A1.06'
p81
sbsba(ischedule
Activity
p82
(dp83
g8
(lp84
S'37399898'
p85
aS'69634191'
p86
aS'23547619'
p87
aS'5368702'
p88
aS'65675896'
p89
aS'81155296'
p90
aS'81200278'
p91
aS'3707829'
p92
aS'76661016'
p93
aS'34765676'
p94
aS'2550487'
p95
aS'64768422'
p96
aS'93566383'
p97
aS'20374340'
p98
aS'19214659'
p99
aS'66034145'
p100
aS'21677389'
p101
aS'37701751'
p102
aS'44828429'
p103
aS'76924297'
p104
aS'81385263'
p105
aS'38179241'
p106
aS'4546613'
p107
aS'14847953'
p108
aS'28055464'
p109
asg29
I1000
sg31
S'Interactie-ontwerp'
p110
sg33
S'lectures'
p111
sg35
I0
sg37
(iread_data
Room
p112
(dp113
g29
S'60'
p114
sg31
S'C1.112'
p115
sbsba(ischedule
Activity
p116
(dp117
g8
(lp118
S'96554914'
p119
aS'77960666'
p120
aS'41578612'
p121
aS'60661905'
p122
aS'5298748'
p123
aS'68286356'
p124
aS'36213792'
p125
aS'87830198'
p126
aS'33776961'
p127
ag85
aS'70193386'
p128
aS'22871048'
p129
aS'51052738'
p130
aS'78136904'
p131
aS'99975346'
p132
aS'43680781'
p133
aS'20095994'
p134
aS'84449005'
p135
asg29
S'20'
p136
sg31
S'Reflectie op de digitale cultuur'
p137
sg33
S'tutorials'
p138
sg35
g36
sg37
(iread_data
Room
p139
(dp140
g29
S'48'
p141
sg31
S'B0.201'
p142
sbsba(ischedule
Activity
p143
(dp144
g8
(lp145
S'42778953'
p146
aS'94955328'
p147
ag20
aS'66570705'
p148
aS'79937969'
p149
aS'14591033'
p150
aS'4921119'
p151
aS'55474917'
p152
aS'54074680'
p153
aS'75005528'
p154
aS'31416266'
p155
aS'16097870'
p156
aS'16011419'
p157
aS'61060652'
p158
ag97
aS'42196732'
p159
ag50
aS'68409833'
p160
ag105
aS'81218347'
p161
aS'3474870'
p162
aS'77896638'
p163
aS'23565001'
p164
aS'58866007'
p165
aS'79617364'
p166
aS'34588570'
p167
ag14
aS'10149535'
p168
aS'55412918'
p169
aS'83210352'
p170
aS'36508571'
p171
aS'62872965'
p172
aS'80709893'
p173
aS'71839156'
p174
aS'74182182'
p175
aS'48308205'
p176
aS'21311067'
p177
aS'34243356'
p178
aS'36527838'
p179
aS'5517869'
p180
ag85
aS'56872729'
p181
aS'16333449'
p182
aS'87758823'
p183
aS'94686490'
p184
aS'35330349'
p185
aS'96118484'
p186
ag48
aS'26172512'
p187
aS'42115591'
p188
ag121
aS'80998260'
p189
aS'32595335'
p190
aS'90743504'
p191
asg29
I1000
sg31
S'Lineaire Algebra'
p192
sg33
g111
sg35
I0
sg37
(iread_data
Room
p193
(dp194
g29
S'41'
p195
sg31
S'A1.04'
p196
sbsba(ischedule
Activity
p197
(dp198
g8
(lp199
S'77831658'
p200
ag123
aS'24613625'
p201
aS'85335143'
p202
aS'247918'
p203
aS'3168419'
p204
aS'6913074'
p205
aS'56749879'
p206
aS'4568018'
p207
aS'30050930'
p208
ag91
aS'88176729'
p209
aS'54026378'
p210
aS'66120270'
p211
aS'44868097'
p212
ag69
aS'21029457'
p213
aS'59544049'
p214
aS'56815156'
p215
aS'73236988'
p216
asg29
S'20'
p217
sg31
S'Bioinformatica'
p218
sg33
g34
sg35
g77
sg37
(iread_data
Room
p219
(dp220
g29
S'56'
p221
sg31
S'A1.10'
p222
sbsbaa(lp223
(ischedule
Activity
p224
(dp225
g8
(lp226
g156
ag94
aS'83869542'
p227
aS'61443567'
p228
aS'43027916'
p229
aS'1886996'
p230
aS'33760909'
p231
aS'58040377'
p232
ag64
aS'78243495'
p233
aS'81022997'
p234
ag14
aS'15249775'
p235
aS'52304977'
p236
aS'35315956'
p237
aS'7106649'
p238
aS'27925117'
p239
aS'31897288'
p240
ag132
aS'87602030'
p241
aS'72652638'
p242
aS'5976174'
p243
aS'57086672'
p244
aS'22731474'
p245
ag91
aS'84524083'
p246
aS'82968410'
p247
aS'5739011'
p248
aS'63634350'
p249
aS'85236626'
p250
aS'51566595'
p251
aS'58736785'
p252
asg29
I1000
sg31
S'Heuristieken 2'
p253
sg33
g111
sg35
I0
sg37
(iread_data
Room
p254
(dp255
g29
g40
sg31
g41
sbsba(ischedule
Activity
p256
(dp257
g8
(lp258
S'70072978'
p259
aS'50184318'
p260
aS'51650744'
p261
aS'78544592'
p262
aS'27241113'
p263
ag233
aS'15051051'
p264
aS'14309255'
p265
aS'41489515'
p266
aS'64600457'
p267
aS'99283252'
p268
aS'24277163'
p269
aS'1766560'
p270
aS'29526540'
p271
aS'4709948'
p272
aS'58699305'
p273
aS'77376714'
p274
aS'3883025'
p275
aS'42171678'
p276
asg29
S'20'
p277
sg31
S'Moderne Databases'
p278
sg33
g138
sg35
g53
sg37
(iread_data
Room
p279
(dp280
g29
g56
sg31
g57
sbsba(ischedule
Activity
p281
(dp282
g8
(lp283
S'26406342'
p284
aS'7308727'
p285
aS'29640619'
p286
ag180
ag146
aS'60312776'
p287
ag260
ag229
ag163
aS'13534377'
p288
aS'28357474'
p289
ag155
aS'57595888'
p290
aS'64228258'
p291
ag269
aS'51741554'
p292
aS'1665980'
p293
aS'17222374'
p294
asg29
S'20'
p295
sg31
S'Collectieve Intelligentie'
p296
sg33
g138
sg35
g53
sg37
(iread_data
Room
p297
(dp298
g29
g141
sg31
g142
sbsba(ischedule
Activity
p299
(dp300
g8
(lp301
S'70113753'
p302
aS'19858730'
p303
aS'34806836'
p304
aS'52552718'
p305
ag46
aS'11915563'
p306
asg29
S'10'
p307
sg31
S'Autonomous Agents 2'
p308
sg33
g138
sg35
g36
sg37
(iread_data
Room
p309
(dp310
g29
g195
sg31
g196
sbsba(ischedule
Activity
p311
(dp312
g8
(lp313
S'13092455'
p314
aS'86291592'
p315
ag285
aS'40911986'
p316
ag154
aS'6939933'
p317
aS'72895450'
p318
ag176
ag67
aS'89338938'
p319
aS'14941752'
p320
ag245
aS'11068043'
p321
aS'34691309'
p322
aS'63939720'
p323
aS'73823548'
p324
aS'81116418'
p325
aS'88752563'
p326
aS'21070547'
p327
aS'86807027'
p328
asg29
S'15'
p329
sg31
S'Project Numerical Recipes'
p330
sg33
g34
sg35
g53
sg37
(iread_data
Room
p331
(dp332
g29
g80
sg31
g81
sbsba(ischedule
Activity
p333
(dp334
g8
(lp335
S'66621166'
p336
aS'83266686'
p337
aS'58332004'
p338
aS'83415514'
p339
ag259
aS'46570285'
p340
aS'47462856'
p341
ag260
aS'13218321'
p342
aS'49631542'
p343
ag273
aS'96082155'
p344
ag269
ag261
aS'59111489'
p345
aS'18144425'
p346
aS'11741347'
p347
aS'75521763'
p348
aS'13911001'
p349
aS'75997788'
p350
aS'11996292'
p351
aS'30658799'
p352
ag133
aS'68315599'
p353
ag270
aS'49219163'
p354
ag272
aS'78443067'
p355
ag262
ag135
aS'36748818'
p356
ag263
aS'89180944'
p357
ag179
ag274
ag276
ag202
ag233
ag294
aS'27916487'
p358
ag264
ag275
aS'63111000'
p359
ag265
ag180
aS'78821918'
p360
ag266
ag127
ag268
aS'1181560'
p361
aS'48198668'
p362
ag271
ag267
aS'58592894'
p363
asg29
I1000
sg31
g278
sg33
g111
sg35
I0
sg37
(iread_data
Room
p364
(dp365
g29
g114
sg31
g115
sbsba(ischedule
Activity
p366
(dp367
g8
(lp368
g91
aS'8522855'
p369
ag275
aS'85284256'
p370
aS'1048485'
p371
aS'53267490'
p372
aS'535689'
p373
aS'56191333'
p374
aS'72586808'
p375
aS'60352393'
p376
ag178
ag285
aS'59075181'
p377
aS'64246605'
p378
aS'75664412'
p379
aS'30195935'
p380
aS'12170832'
p381
aS'25557516'
p382
aS'19058315'
p383
asg29
g75
sg31
g76
sg33
g34
sg35
S'4'
p384
sg37
(iread_data
Room
p385
(dp386
g29
g221
sg31
g222
sbsbaa(lp387
(ischedule
Activity
p388
(dp389
g8
(lp390
S'95007221'
p391
ag146
ag26
aS'79167252'
p392
aS'76802764'
p393
ag163
aS'43689934'
p394
aS'39459642'
p395
aS'49683101'
p396
aS'92665222'
p397
ag326
aS'54772132'
p398
ag270
aS'27187154'
p399
ag347
aS'95631564'
p400
aS'46989508'
p401
aS'34110913'
p402
ag246
ag88
ag265
ag178
aS'7957843'
p403
aS'65960683'
p404
aS'40791377'
p405
aS'58522654'
p406
aS'53202517'
p407
aS'31194811'
p408
aS'5595824'
p409
aS'79033175'
p410
aS'80135353'
p411
aS'2317551'
p412
aS'13284244'
p413
ag306
aS'12077419'
p414
ag379
ag176
aS'9067939'
p415
asg29
S'40'
p416
sg31
S'Compilerbouw'
p417
sg33
g34
sg35
g53
sg37
(iread_data
Room
p418
(dp419
g29
g114
sg31
g115
sbsba(ischedule
Activity
p420
(dp421
g8
(lp422
g202
aS'32204977'
p423
aS'77636749'
p424
ag284
aS'70336464'
p425
aS'37110913'
p426
ag176
ag348
aS'21192048'
p427
aS'12430748'
p428
aS'6249823'
p429
aS'93041523'
p430
ag351
ag265
aS'92496780'
p431
ag238
aS'97371272'
p432
ag414
aS'40434933'
p433
asg29
S'20'
p434
sg31
S'Technology for games'
p435
sg33
g138
sg35
g36
sg37
(iread_data
Room
p436
(dp437
g29
g221
sg31
g222
sbsba(ischedule
Activity
p438
(dp439
g8
(lp440
S'96453361'
p441
aS'19540225'
p442
aS'14671406'
p443
aS'64947290'
p444
ag274
ag94
aS'21095566'
p445
aS'53585410'
p446
ag103
aS'41527759'
p447
aS'26260141'
p448
aS'88596522'
p449
aS'82689818'
p450
ag414
aS'15902055'
p451
aS'66433883'
p452
ag105
aS'50143947'
p453
aS'91527663'
p454
ag61
ag21
aS'23983476'
p455
aS'36903574'
p456
ag251
ag318
asg29
S'25'
p457
sg31
S'Algoritmen en complexiteit'
p458
sg33
g138
sg35
g36
sg37
(iread_data
Room
p459
(dp460
g29
g80
sg31
g81
sbsba(ischedule
Activity
p461
(dp462
g8
(lp463
g306
ag156
ag305
ag160
ag180
aS'88627897'
p464
aS'27298319'
p465
ag171
ag251
ag129
asg29
S'10'
p466
sg31
g308
sg33
g34
sg35
g53
sg37
(iread_data
Room
p467
(dp468
g29
g141
sg31
g142
sbsba(ischedule
Activity
p469
(dp470
g8
(lp471
g321
ag159
ag285
ag19
ag267
ag46
ag17
aS'28359697'
p472
ag264
aS'89985072'
p473
aS'33877725'
p474
ag407
aS'6723948'
p475
aS'96054456'
p476
aS'70878567'
p477
asg29
g217
sg31
g218
sg33
g34
sg35
g36
sg37
(iread_data
Room
p478
(dp479
g29
g40
sg31
g41
sbsba(ischedule
Activity
p480
(dp481
g8
(lp482
S'27370083'
p483
aS'32044893'
p484
ag269
ag426
ag17
aS'61518436'
p485
ag246
aS'38296757'
p486
aS'20239127'
p487
aS'51415617'
p488
aS'49922855'
p489
aS'52715680'
p490
aS'27950803'
p491
ag205
ag71
aS'42406214'
p492
ag376
aS'92778619'
p493
asg29
g136
sg31
g137
sg33
g138
sg35
g77
sg37
(iread_data
Room
p494
(dp495
g29
g56
sg31
g57
sbsba(ischedule
Activity
p496
(dp497
g8
(lp498
g338
ag340
ag342
ag344
ag345
ag348
ag351
ag353
ag135
ag357
ag180
ag127
ag362
ag363
ag133
ag337
ag360
ag358
ag336
ag361
ag350
ag354
ag359
asg29
g277
sg31
g278
sg33
g138
sg35
g77
sg37
(iread_data
Room
p499
(dp500
g29
g195
sg31
g196
sbsbaa(lp501
(ischedule
Activity
p502
(dp503
g8
(lp504
g321
aS'20883994'
p505
ag200
ag380
ag406
ag123
ag159
ag245
ag475
ag285
ag150
ag201
ag271
ag477
ag202
ag19
ag407
ag203
ag267
ag211
ag204
ag46
ag476
ag205
ag69
ag214
ag206
ag17
ag212
ag207
ag472
ag133
ag441
ag213
ag215
ag216
ag264
aS'14816774'
p506
ag208
ag473
ag210
ag91
ag474
ag166
ag209
asg29
I1000
sg31
g218
sg33
g111
sg35
I0
sg37
(iread_data
Room
p507
(dp508
g29
g56
sg31
g57
sbsba(ischedule
Activity
p509
(dp510
g8
(lp511
S'14179347'
p512
ag324
aS'62105897'
p513
aS'73302736'
p514
aS'56348773'
p515
aS'59220392'
p516
ag326
ag212
ag106
aS'79888156'
p517
aS'58253841'
p518
aS'86000192'
p519
ag205
aS'86180471'
p520
ag476
ag475
ag506
ag65
ag90
ag169
aS'75623387'
p521
aS'10609762'
p522
ag363
aS'28957789'
p523
aS'82412626'
p524
aS'40141996'
p525
aS'61520025'
p526
ag486
aS'72665524'
p527
ag62
aS'24875739'
p528
ag184
aS'47477884'
p529
ag213
ag392
asg29
S'40'
p530
sg31
S'Calculus 2'
p531
sg33
g138
sg35
g53
sg37
(iread_data
Room
p532
(dp533
g29
g141
sg31
g142
sbsba(ischedule
Activity
p534
(dp535
g8
(lp536
S'11459236'
p537
ag25
ag477
ag455
ag338
ag348
aS'13116738'
p538
ag73
ag423
aS'44901052'
p539
ag16
ag424
aS'17496687'
p540
aS'92977271'
p541
aS'8557857'
p542
ag353
aS'19958553'
p543
aS'75585647'
p544
ag356
aS'29718115'
p545
aS'13658563'
p546
asg29
I1000
sg31
S'Informatie- en organsatieontwerp'
p547
sg33
g111
sg35
I0
sg37
(iread_data
Room
p548
(dp549
g29
g80
sg31
g81
sbsba(ischedule
Activity
p550
(dp551
g8
(lp552
g210
ag465
ag180
ag426
ag306
ag172
ag302
ag156
ag464
ag46
ag395
ag129
ag303
ag305
ag251
aS'61611295'
p553
ag539
aS'62356458'
p554
aS'72796858'
p555
ag160
ag171
ag304
asg29
I1000
sg31
g308
sg33
g111
sg35
I0
sg37
(iread_data
Room
p556
(dp557
g29
g195
sg31
g196
sbsba(ischedule
Activity
p558
(dp559
g8
(lp560
g339
ag341
ag343
ag269
ag346
ag349
ag352
ag270
ag355
ag358
ag359
ag268
ag340
ag345
ag276
ag273
ag275
ag354
ag262
asg29
S'20'
p561
sg31
g278
sg33
g34
sg35
g36
sg37
(iread_data
Room
p562
(dp563
g29
g114
sg31
g115
sbsba(ischedule
Activity
p564
(dp565
g8
(lp566
S'7386961'
p567
aS'3678531'
p568
ag228
aS'51791169'
p569
ag493
aS'94687383'
p570
ag147
aS'73196865'
p571
aS'99272880'
p572
ag513
aS'88519892'
p573
aS'37279234'
p574
ag259
ag206
ag399
aS'26857113'
p575
ag328
ag398
aS'13996448'
p576
asg29
g30
sg31
g32
sg33
g34
sg35
g53
sg37
(iread_data
Room
p577
(dp578
g29
g40
sg31
g41
sbsba(ischedule
Activity
p579
(dp580
g8
(lp581
g359
ag155
aS'94467156'
p582
ag455
ag446
aS'27582862'
p583
aS'47982619'
p584
aS'23215240'
p585
aS'44391517'
p586
aS'97019450'
p587
ag127
ag122
ag249
aS'79879876'
p588
aS'22288615'
p589
ag370
ag444
asg29
g30
sg31
g32
sg33
g34
sg35
g77
sg37
(iread_data
Room
p590
(dp591
g29
g221
sg31
g222
sbsbaa(lp592
(ischedule
Activity
p593
(dp594
g8
(lp595
S'76648468'
p596
aS'76903244'
p597
aS'17092717'
p598
ag233
ag162
aS'53512831'
p599
aS'14303208'
p600
ag291
ag589
aS'39230359'
p601
aS'43460038'
p602
ag407
ag228
aS'69459473'
p603
ag182
ag429
ag357
ag433
aS'94930277'
p604
aS'28358060'
p605
ag318
ag71
asg29
S'20'
p606
sg31
S'Webprogrammeren en databases'
p607
sg33
g34
sg35
g36
sg37
(iread_data
Room
p608
(dp609
g29
g56
sg31
g57
sbsba(ischedule
Activity
p610
(dp611
g8
(lp612
g450
ag269
ag163
aS'64296965'
p613
aS'90474003'
p614
aS'43902015'
p615
ag598
aS'62736669'
p616
ag376
ag324
ag154
ag360
ag374
ag444
aS'5526560'
p617
aS'15187217'
p618
ag433
ag520
ag395
aS'34872117'
p619
ag16
ag227
ag314
aS'57467488'
p620
aS'72456780'
p621
ag229
ag351
aS'76123484'
p622
aS'51542218'
p623
ag184
aS'47932106'
p624
ag343
ag363
ag338
ag102
ag181
ag271
ag203
ag454
ag555
ag22
ag284
ag525
ag206
aS'59397895'
p625
aS'58083680'
p626
aS'54540997'
p627
ag151
aS'25077484'
p628
aS'5085194'
p629
ag63
ag326
ag251
ag72
aS'23658570'
p630
aS'4529208'
p631
aS'13132925'
p632
aS'12091019'
p633
ag159
ag120
ag294
ag506
ag286
aS'27123462'
p634
ag180
ag529
ag401
ag476
ag204
ag14
ag259
ag305
asg29
I1000
sg31
S'Databases 2'
p635
sg33
g111
sg35
I0
sg37
(iread_data
Room
p636
(dp637
g29
g141
sg31
g142
sbsba(ischedule
Activity
p638
(dp639
g8
(lp640
S'25106480'
p641
aS'45556081'
p642
aS'48601268'
p643
ag231
ag294
aS'37770881'
p644
ag293
ag66
ag406
ag314
ag613
ag185
aS'54310617'
p645
ag28
ag284
asg29
S'20'
p646
sg31
g296
sg33
g34
sg35
g77
sg37
(iread_data
Room
p647
(dp648
g29
g221
sg31
g222
sbsba(ischedule
Activity
p649
(dp650
g8
(lp651
S'93023961'
p652
aS'19337738'
p653
ag576
ag50
ag45
ag49
aS'98780382'
p654
aS'68360259'
p655
ag426
ag453
ag15
ag234
ag251
ag46
aS'97136582'
p656
ag477
aS'87314964'
p657
ag91
ag48
ag19
aS'66122625'
p658
aS'59753700'
p659
ag70
aS'99453514'
p660
ag12
ag47
ag538
asg29
I1000
sg31
g52
sg33
g111
sg35
I0
sg37
(iread_data
Room
p661
(dp662
g29
g40
sg31
g41
sbsbaaa(lp663
(lp664
(ischedule
Activity
p665
(dp666
g8
(lp667
S'33252501'
p668
aS'67625383'
p669
aS'2079771'
p670
aS'56988998'
p671
ag70
ag485
ag582
aS'77240949'
p672
ag399
aS'90067329'
p673
ag396
aS'3685034'
p674
ag243
ag250
ag264
ag359
aS'23798155'
p675
ag575
ag486
ag405
ag395
ag21
asg29
I1000
sg31
S'Machine Learning'
p676
sg33
g111
sg35
I0
sg37
(iread_data
Room
p677
(dp678
g29
g56
sg31
g57
sbsba(ischedule
Activity
p679
(dp680
g8
(lp681
g180
ag172
ag464
ag554
ag171
ag553
ag426
ag251
ag555
ag129
ag465
ag156
ag539
asg29
g307
sg31
g308
sg33
g138
sg35
g77
sg37
(iread_data
Room
p682
(dp683
g29
g141
sg31
g142
sbsba(ischedule
Activity
p684
(dp685
g8
(lp686
S'64053722'
p687
aS'2416751'
p688
aS'20618153'
p689
ag70
ag120
aS'9332762'
p690
ag250
ag205
ag476
aS'73893840'
p691
aS'39905995'
p692
ag232
ag412
aS'20830477'
p693
aS'34900967'
p694
ag411
ag519
ag267
asg29
g30
sg31
g32
sg33
g34
sg35
S'5'
p695
sg37
(iread_data
Room
p696
(dp697
g29
g80
sg31
g81
sbsba(ischedule
Activity
p698
(dp699
g8
(lp700
g474
ag108
ag244
aS'1137946'
p701
ag100
ag688
aS'10698627'
p702
aS'5615125'
p703
aS'27064249'
p704
aS'41790793'
p705
aS'49908313'
p706
ag615
ag622
ag689
aS'67073567'
p707
aS'24891081'
p708
aS'72577292'
p709
asg29
g606
sg31
g607
sg33
g34
sg35
g53
sg37
(iread_data
Room
p710
(dp711
g29
g195
sg31
g196
sbsba(ischedule
Activity
p712
(dp713
g8
(lp714
g228
ag159
ag450
ag690
ag348
ag19
ag672
aS'17575088'
p715
aS'46052388'
p716
ag276
aS'3233378'
p717
aS'4783858'
p718
ag62
aS'68601184'
p719
asg29
g295
sg31
g296
sg33
g138
sg35
g384
sg37
(iread_data
Room
p720
(dp721
g29
g221
sg31
g222
sbsba(ischedule
Activity
p722
(dp723
g8
(lp724
g391
ag379
ag26
ag392
ag393
ag163
ag394
ag397
ag353
ag270
ag287
ag399
ag347
ag401
ag402
ag246
ag88
ag265
aS'98105190'
p725
ag178
ag403
ag404
ag405
ag407
ag408
ag409
ag410
ag670
ag105
ag315
aS'88855695'
p726
ag176
ag412
ag201
asg29
S'40'
p727
sg31
g417
sg33
g138
sg35
g53
sg37
(iread_data
Room
p728
(dp729
g29
g40
sg31
g41
sbsba(ischedule
Activity
p730
(dp731
g8
(lp732
S'14138904'
p733
aS'13798030'
p734
ag396
ag450
ag602
aS'70015932'
p735
aS'59289233'
p736
aS'72683344'
p737
ag619
ag545
ag642
aS'20331158'
p738
ag67
ag165
ag239
ag433
ag709
ag357
ag168
ag337
ag675
asg29
I1000
sg31
S'Architectuur en computerorganisatie'
p739
sg33
g111
sg35
I0
sg37
(iread_data
Room
p740
(dp741
g29
g114
sg31
g115
sbsbaa(lp742
(ischedule
Activity
p743
(dp744
g8
(lp745
g615
ag616
ag324
ag360
ag444
ag618
ag520
ag619
ag620
ag229
ag622
ag184
ag343
ag338
ag181
ag284
ag206
ag626
ag151
ag629
ag326
ag72
ag631
ag633
ag634
ag529
ag476
ag14
ag305
ag374
ag623
ag401
ag314
ag203
ag617
ag159
ag351
ag102
asg29
S'40'
p746
sg31
g635
sg33
g138
sg35
g53
sg37
(iread_data
Room
p747
(dp748
g29
g80
sg31
g81
sbsba(ischedule
Activity
p749
(dp750
g8
(lp751
S'58565406'
p752
aS'51593625'
p753
aS'82872148'
p754
ag214
aS'65318664'
p755
ag355
ag583
aS'65408517'
p756
aS'75599734'
p757
ag718
ag268
ag61
ag287
aS'31247305'
p758
ag216
ag289
ag173
ag602
ag160
ag48
ag321
aS'58074656'
p759
ag514
aS'45915482'
p760
ag119
ag274
ag210
ag188
ag717
ag306
aS'13718298'
p761
aS'3727435'
p762
ag319
ag209
aS'84110134'
p763
ag400
ag265
ag170
ag371
aS'44671041'
p764
ag513
asg29
S'40'
p765
sg31
S'Software engineering'
p766
sg33
g34
sg35
g53
sg37
(iread_data
Room
p767
(dp768
g29
g56
sg31
g57
sbsba(ischedule
Activity
p769
(dp770
g8
(lp771
g64
ag235
ag239
ag132
ag244
ag91
ag241
ag248
ag252
ag249
asg29
S'20'
p772
sg31
g253
sg33
g138
sg35
g36
sg37
(iread_data
Room
p773
(dp774
g29
g40
sg31
g41
sbsba(ischedule
Activity
p775
(dp776
g8
(lp777
g538
ag16
ag542
ag543
ag348
ag338
ag455
ag539
ag477
ag73
ag546
ag545
ag540
asg29
S'15'
p778
sg31
g547
sg33
g34
sg35
g36
sg37
(iread_data
Room
p779
(dp780
g29
g141
sg31
g142
sbsba(ischedule
Activity
p781
(dp782
g8
(lp783
g596
ag597
ag689
ag600
ag291
ag589
ag602
ag71
ag707
ag228
ag603
ag357
ag474
ag703
ag706
ag244
ag704
ag615
asg29
S'20'
p784
sg31
g607
sg33
g138
sg35
g36
sg37
(iread_data
Room
p785
(dp786
g29
g195
sg31
g196
sbsba(ischedule
Activity
p787
(dp788
g8
(lp789
g290
ag284
ag641
ag453
ag25
ag285
ag642
ag228
aS'34773179'
p790
ag286
ag643
ag159
ag87
ag180
ag231
ag450
ag622
ag146
ag62
ag269
aS'73980360'
p791
ag709
ag294
ag690
ag719
ag287
ag644
ag348
aS'29474737'
p792
ag260
ag293
ag19
aS'1075391'
p793
ag229
ag66
ag672
ag404
ag163
ag406
ag715
aS'22699561'
p794
ag292
ag314
ag716
ag451
ag288
ag613
ag276
aS'53107172'
p795
ag315
ag185
ag291
ag519
ag289
ag645
ag717
ag183
ag155
ag28
ag718
aS'96104167'
p796
asg29
I1000
sg31
g296
sg33
g111
sg35
I0
sg37
(iread_data
Room
p797
(dp798
g29
g221
sg31
g222
sbsbaa(lp799
(ischedule
Activity
p800
(dp801
g8
(lp802
g453
ag228
ag159
ag450
ag348
ag672
ag715
ag716
ag276
ag291
ag717
ag718
ag229
ag790
ag25
ag288
asg29
g646
sg31
g296
sg33
g34
sg35
g384
sg37
(iread_data
Room
p803
(dp804
g29
g80
sg31
g81
sbsba(ischedule
Activity
p805
(dp806
g8
(lp807
g305
ag447
ag473
ag129
aS'14072826'
p808
aS'37830626'
p809
ag243
ag490
ag641
ag233
ag158
ag207
ag491
ag474
ag453
aS'31103066'
p810
ag643
ag286
aS'48357272'
p811
aS'9287708'
p812
ag47
ag582
ag357
ag554
aS'31633723'
p813
ag735
ag443
ag107
ag445
ag448
aS'41153310'
p814
ag212
ag70
ag152
asg29
g765
sg31
g766
sg33
g34
sg35
g36
sg37
(iread_data
Room
p815
(dp816
g29
g114
sg31
g115
sbsba(ischedule
Activity
p817
(dp818
g8
g651
sg29
I1000
sg31
g52
sg33
g111
sg35
I0
sg37
(iread_data
Room
p819
(dp820
g29
g221
sg31
g222
sbsba(ischedule
Activity
p821
(dp822
g8
(lp823
g230
ag232
ag233
ag14
ag236
ag238
ag240
ag243
ag245
ag246
ag250
ag247
ag231
ag229
ag251
ag156
ag234
ag94
ag227
ag228
ag237
ag242
asg29
g772
sg31
g253
sg33
g138
sg35
g53
sg37
(iread_data
Room
p824
(dp825
g29
g40
sg31
g41
sbsba(ischedule
Activity
p826
(dp827
g8
(lp828
g596
ag318
ag597
ag474
ag689
ag182
ag598
ag433
ag709
ag108
ag233
ag244
ag162
ag429
ag599
ag701
ag600
ag100
ag291
ag688
ag589
ag357
ag601
ag702
ag602
ag703
ag71
ag704
ag407
ag705
ag707
ag604
ag228
ag706
ag605
ag615
ag708
ag622
ag603
asg29
I1000
sg31
g607
sg33
g111
sg35
I0
sg37
(iread_data
Room
p829
(dp830
g29
g141
sg31
g142
sbsba(ischedule
Activity
p831
(dp832
g8
(lp833
g12
ag104
ag672
ag147
ag674
aS'69086548'
p834
ag703
aS'37498675'
p835
ag671
aS'91139627'
p836
ag338
aS'23391676'
p837
aS'78735049'
p838
ag245
ag206
ag487
ag406
aS'65003379'
p839
ag341
ag623
ag131
ag738
ag476
ag443
aS'54569540'
p840
ag88
ag306
aS'34262212'
p841
ag447
ag813
aS'63408522'
p842
aS'38329455'
p843
ag601
ag523
aS'51186803'
p844
ag214
aS'63955238'
p845
ag377
aS'7492204'
p846
ag432
aS'10792879'
p847
ag456
aS'39919665'
p848
aS'47605891'
p849
ag249
ag587
aS'72547110'
p850
aS'32705005'
p851
ag675
ag319
ag20
aS'10872825'
p852
aS'79366078'
p853
ag150
ag763
ag340
ag343
aS'82688900'
p854
ag645
ag369
ag485
aS'39659121'
p855
ag758
ag399
ag505
ag175
ag73
aS'79858178'
p856
ag246
ag50
aS'41585485'
p857
ag178
ag613
ag188
ag161
aS'44940353'
p858
ag528
aS'58469172'
p859
ag152
ag424
ag572
ag23
ag582
aS'14398123'
p860
asg29
I1000
sg31
S'Kansrekenen 2'
p861
sg33
g111
sg35
I0
sg37
(iread_data
Room
p862
(dp863
g29
g56
sg31
g57
sbsba(ischedule
Activity
p864
(dp865
g8
(lp866
g25
ag424
ag544
ag423
ag353
ag537
ag541
ag356
asg29
g778
sg31
g547
sg33
g34
sg35
g53
sg37
(iread_data
Room
p867
(dp868
g29
g195
sg31
g196
sbsbaa(lp869
(ischedule
Activity
p870
(dp871
g8
(lp872
g286
ag146
ag709
ag287
ag260
ag292
ag289
ag155
ag404
ag690
asg29
g646
sg31
g296
sg33
g34
sg35
g53
sg37
(iread_data
Room
p873
(dp874
g29
g195
sg31
g196
sbsba(ischedule
Activity
p875
(dp876
g8
(lp877
g305
ag473
ag129
ag762
ag808
ag809
ag243
ag265
ag513
ag306
ag490
ag641
ag761
ag371
ag158
ag491
ag453
ag810
ag643
ag286
ag811
ag812
ag47
ag357
ag813
ag735
ag443
ag107
ag763
ag209
ag445
ag321
ag319
ag287
ag70
ag173
ag274
asg29
S'40'
p878
sg31
g766
sg33
g138
sg35
g36
sg37
(iread_data
Room
p879
(dp880
g29
g221
sg31
g222
sbsba(ischedule
Activity
p881
(dp882
g8
(lp883
g337
ag260
ag261
ag350
ag133
ag263
ag233
ag264
ag265
ag266
ag361
ag267
ag356
ag348
ag179
ag135
ag271
ag344
ag202
ag363
asg29
g561
sg31
g278
sg33
g34
sg35
g53
sg37
(iread_data
Room
p884
(dp885
g29
g114
sg31
g115
sbsba(ischedule
Activity
p886
(dp887
g8
(lp888
g520
ag628
ag360
ag93
ag790
aS'40633534'
p889
ag603
aS'74361881'
p890
ag644
ag21
ag369
ag617
ag104
ag126
ag64
aS'51673172'
p891
ag518
ag121
ag512
asg29
S'15'
p892
sg31
S'Project Genetic Algorithms'
p893
sg33
g34
sg35
g36
sg37
(iread_data
Room
p894
(dp895
g29
g80
sg31
g81
sbsba(ischedule
Activity
p896
(dp897
g8
(lp898
g477
ag540
ag543
ag25
ag73
ag546
ag537
ag338
asg29
S'15'
p899
sg31
g547
sg33
g138
sg35
g36
sg37
(iread_data
Room
p900
(dp901
g29
g56
sg31
g57
sbsba(ischedule
Activity
p902
(dp903
g8
(lp904
g450
ag163
ag614
ag598
ag376
ag154
ag433
ag395
ag16
ag621
ag624
ag363
ag271
ag454
ag22
ag525
ag625
ag627
ag63
ag251
ag630
ag632
ag294
ag286
ag180
ag204
ag259
ag269
ag227
ag613
ag506
ag628
ag120
ag555
asg29
g746
sg31
g635
sg33
g138
sg35
g36
sg37
(iread_data
Room
p905
(dp906
g29
g141
sg31
g142
sbsba(ischedule
Activity
p907
(dp908
g8
g732
sg29
I1000
sg31
g739
sg33
g111
sg35
I0
sg37
(iread_data
Room
p909
(dp910
g29
g40
sg31
g41
sbsbaa(lp911
(ischedule
Activity
p912
(dp913
g8
(lp914
g74
ag704
ag709
ag397
ag529
ag204
ag350
ag328
ag889
aS'62613937'
p915
ag131
ag505
ag376
ag230
ag108
ag87
ag67
ag527
aS'39429093'
p916
ag737
asg29
I1000
sg31
S'Advanced Heuristics'
p917
sg33
g111
sg35
I0
sg37
(iread_data
Room
p918
(dp919
g29
g114
sg31
g115
sbsba(ischedule
Activity
p920
(dp921
g8
(lp922
g857
ag369
ag441
ag453
ag442
ag465
ag443
aS'67817269'
p923
ag490
ag454
ag444
ag21
ag274
aS'51509565'
p924
ag94
ag92
ag445
ag620
ag446
ag19
ag293
ag363
ag103
ag105
ag615
ag455
ag447
ag318
ag448
ag251
ag449
ag456
ag450
aS'64554442'
p925
aS'23652927'
p926
ag61
ag162
ag131
ag414
ag243
ag451
ag22
ag452
asg29
I1000
sg31
g458
sg33
g111
sg35
I0
sg37
(iread_data
Room
p927
(dp928
g29
g195
sg31
g196
sbsba(ischedule
Activity
p929
(dp930
g8
(lp931
g616
ag456
ag656
ag49
ag315
ag621
ag126
ag754
ag620
aS'4353500'
p932
ag234
ag539
ag758
ag272
ag23
ag105
asg29
g75
sg31
g76
sg33
g34
sg35
g36
sg37
(iread_data
Room
p933
(dp934
g29
g40
sg31
g41
sbsba(ischedule
Activity
p935
(dp936
g8
g504
sg29
I1000
sg31
g218
sg33
g111
sg35
I0
sg37
(iread_data
Room
p937
(dp938
g29
g56
sg31
g57
sbsba(ischedule
Activity
p939
(dp940
g8
(lp941
g244
ag840
aS'27805666'
p942
ag314
ag546
ag659
aS'82390428'
p943
ag272
ag22
ag674
ag761
ag74
ag660
aS'36785409'
p944
ag614
asg29
g136
sg31
g137
sg33
g138
sg35
g53
sg37
(iread_data
Room
p945
(dp946
g29
g221
sg31
g222
sbsba(ischedule
Activity
p947
(dp948
g8
(lp949
g99
ag428
ag763
aS'32183908'
p950
ag554
aS'37419523'
p951
ag270
ag175
ag287
asg29
g329
sg31
g330
sg33
g34
sg35
g77
sg37
(iread_data
Room
p952
(dp953
g29
g141
sg31
g142
sbsba(ischedule
Activity
p954
(dp955
g8
(lp956
g505
ag406
ag150
ag477
ag407
ag476
ag214
ag133
ag215
ag210
ag91
ag205
ag19
ag475
ag474
ag321
ag473
ag441
ag267
ag46
ag17
ag159
ag472
ag69
asg29
S'20'
p957
sg31
g218
sg33
g138
sg35
g53
sg37
(iread_data
Room
p958
(dp959
g29
g80
sg31
g81
sbsbaaa(lp960
(lp961
(ischedule
Activity
p962
(dp963
g8
(lp964
S'65978354'
p965
ag512
ag528
aS'23628642'
p966
ag324
ag726
ag166
ag513
ag544
ag355
ag514
ag232
ag62
ag515
ag600
ag213
ag516
ag267
ag328
ag262
ag718
aS'6709529'
p967
ag326
ag168
aS'11593163'
p968
ag212
ag574
ag703
ag340
ag292
aS'70939718'
p969
ag106
ag202
ag273
ag517
aS'93361408'
p970
aS'33672995'
p971
ag518
ag175
ag350
ag519
aS'75446434'
p972
ag859
ag205
ag337
ag23
ag520
ag339
ag451
ag704
ag811
ag249
ag476
ag291
ag624
ag475
ag21
aS'22168693'
p973
ag506
ag231
ag633
ag65
ag756
ag164
ag90
ag760
ag239
ag169
ag317
aS'19717077'
p974
ag521
aS'72526473'
p975
aS'53139134'
p976
ag465
ag107
ag838
ag392
aS'56544130'
p977
ag156
ag522
aS'77306636'
p978
ag529
ag363
ag93
ag150
ag181
aS'34173695'
p979
ag184
ag523
aS'80188025'
p980
ag630
ag524
ag399
aS'55530367'
p981
ag525
ag851
aS'31306819'
p982
ag526
ag45
ag448
ag486
ag568
ag847
ag527
ag446
ag241
asg29
I1000
sg31
g531
sg33
g111
sg35
I0
sg37
g418
sba(ischedule
Activity
p983
(dp984
g8
(lp985
g446
ag572
ag537
ag423
aS'44151631'
p986
ag20
ag284
ag527
ag890
ag473
aS'42297781'
p987
aS'55103073'
p988
ag490
ag207
ag293
aS'41644639'
p989
asg29
S'15'
p990
sg31
S'Compilerbouw practicum'
p991
sg33
g34
sg35
g77
sg37
(iread_data
Room
p992
(dp993
g29
g195
sg31
g196
sbsba(ischedule
Activity
p994
(dp995
g8
(lp996
g290
ag87
ag622
ag791
ag719
ag792
ag793
ag794
ag451
ag795
ag519
ag183
ag796
ag19
ag315
ag269
ag285
ag180
ag62
ag163
asg29
g646
sg31
g296
sg33
g34
sg35
g36
sg37
(iread_data
Room
p997
(dp998
g29
g80
sg31
g81
sbsba(ischedule
Activity
p999
(dp1000
g8
(lp1001
g576
ag234
ag656
ag91
ag660
ag657
ag655
ag251
ag426
ag70
asg29
g51
sg31
g52
sg33
g34
sg35
g77
sg37
(iread_data
Room
p1002
(dp1003
g29
g141
sg31
g142
sbsba(ischedule
Activity
p1004
(dp1005
g8
(lp1006
g174
aS'1695839'
p1007
aS'3407554'
p1008
aS'47260040'
p1009
ag453
aS'51472074'
p1010
ag600
aS'91250534'
p1011
asg29
g990
sg31
g991
sg33
g34
sg35
g53
sg37
(iread_data
Room
p1012
(dp1013
g29
g221
sg31
g222
sbsba(ischedule
Activity
p1014
(dp1015
g8
(lp1016
g764
ag814
ag286
ag163
ag841
ag857
ag753
ag452
ag50
ag151
ag235
aS'90296821'
p1017
ag302
ag315
ag395
ag837
ag630
ag95
ag529
asg29
g30
sg31
g32
sg33
g34
sg35
S'6'
p1018
sg37
(iread_data
Room
p1019
(dp1020
g29
g56
sg31
g57
sbsba(ischedule
Activity
p1021
(dp1022
g8
(lp1023
g338
ag342
ag351
ag353
ag272
ag357
ag294
ag180
ag127
ag362
ag360
ag336
ag274
ag347
ag259
asg29
g561
sg31
g278
sg33
g34
sg35
g77
sg37
(iread_data
Room
p1024
(dp1025
g29
g40
sg31
g41
sbsbaa(lp1026
(ischedule
Activity
p1027
(dp1028
g8
g789
sg29
I1000
sg31
g296
sg33
g111
sg35
I0
sg37
g873
sba(ischedule
Activity
p1029
(dp1030
g8
(lp1031
g965
ag966
ag355
ag328
ag967
ag703
ag969
ag273
ag971
ag350
ag859
ag23
ag451
ag249
ag624
ag633
ag974
ag838
ag156
ag150
ag630
ag981
ag982
ag847
ag241
ag399
ag465
ag291
ag166
ag317
ag978
ag262
asg29
g530
sg31
g531
sg33
g138
sg35
g36
sg37
(iread_data
Room
p1032
(dp1033
g29
g141
sg31
g142
sbsba(ischedule
Activity
p1034
(dp1035
g8
(lp1036
g202
ag47
ag423
ag168
aS'14383795'
p1037
ag584
ag379
ag690
ag424
ag432
ag944
aS'77264363'
p1038
ag284
ag133
ag425
ag319
ag426
ag433
ag176
ag414
ag348
ag408
ag427
ag752
ag428
aS'76487754'
p1039
ag429
aS'4697362'
p1040
ag430
ag353
ag351
ag834
ag265
ag539
ag121
ag431
ag87
ag238
asg29
I1000
sg31
g435
sg33
g111
sg35
I0
sg37
(iread_data
Room
p1041
(dp1042
g29
g80
sg31
g81
sbsba(ischedule
Activity
p1043
(dp1044
g8
(lp1045
g339
ag341
ag343
ag346
ag349
ag352
ag355
ag179
ag202
ag294
ag347
ag356
asg29
g277
sg31
g278
sg33
g138
sg35
g36
sg37
(iread_data
Room
p1046
(dp1047
g29
g40
sg31
g41
sbsba(ischedule
Activity
p1048
(dp1049
g8
(lp1050
g860
ag201
aS'82066165'
p1051
ag582
aS'66701209'
p1052
ag160
ag491
asg29
g892
sg31
g893
sg33
g34
sg35
g53
sg37
(iread_data
Room
p1053
(dp1054
g29
g56
sg31
g57
sbsbaa(lp1055
(ischedule
Activity
p1056
(dp1057
g8
(lp1058
g653
ag45
ag655
ag15
ag657
ag47
ag426
ag453
ag251
ag49
ag654
ag652
asg29
S'10'
p1059
sg31
g52
sg33
g138
sg35
g53
sg37
g677
sba(ischedule
Activity
p1060
(dp1061
g8
(lp1062
g757
aS'88636924'
p1063
ag352
ag22
ag570
ag216
ag475
ag349
ag93
aS'75759231'
p1064
ag13
aS'65852230'
p1065
ag847
ag670
ag491
ag318
ag586
aS'15911353'
p1066
ag644
ag337
ag105
ag1052
ag201
ag1008
ag315
ag726
ag619
ag555
ag353
ag287
ag725
asg29
g416
sg31
g417
sg33
g34
sg35
g36
sg37
(iread_data
Room
p1067
(dp1068
g29
g40
sg31
g41
sbsba(ischedule
Activity
p1069
(dp1070
g8
(lp1071
g726
ag544
ag232
ag600
ag267
ag718
ag168
ag574
ag292
ag202
ag970
ag175
ag972
ag337
ag339
ag811
ag21
ag231
ag756
ag760
ag975
ag107
ag977
ag93
ag979
ag980
ag851
ag45
ag568
ag446
ag973
ag164
ag340
ag448
ag239
ag704
ag976
ag968
ag181
asg29
g530
sg31
g531
sg33
g138
sg35
g77
sg37
(iread_data
Room
p1072
(dp1073
g29
g195
sg31
g196
sbsba(ischedule
Activity
p1074
(dp1075
g8
(lp1076
g857
ag442
ag443
ag490
ag444
ag94
ag445
ag103
ag615
ag447
ag450
ag926
ag451
ag369
ag61
ag455
ag251
ag465
asg29
S'25'
p1077
sg31
g458
sg33
g34
sg35
g36
sg37
(iread_data
Room
p1078
(dp1079
g29
g80
sg31
g81
sbsba(ischedule
Activity
p1080
(dp1081
g8
g789
sg29
I1000
sg31
g296
sg33
g111
sg35
I0
sg37
(iread_data
Room
p1082
(dp1083
g29
g114
sg31
g115
sbsba(ischedule
Activity
p1084
(dp1085
g8
(lp1086
g290
aS'25994016'
p1087
ag89
aS'64418623'
p1088
ag891
ag585
ag449
ag629
aS'5892092'
p1089
ag373
ag321
ag349
ag1037
ag249
ag1051
ag733
asg29
g990
sg31
g991
sg33
g34
sg35
g36
sg37
(iread_data
Room
p1090
(dp1091
g29
g141
sg31
g142
sbsba(ischedule
Activity
p1092
(dp1093
g8
(lp1094
g67
ag376
asg29
S'10'
p1095
sg31
g917
sg33
g34
sg35
g36
sg37
(iread_data
Room
p1096
(dp1097
g29
g221
sg31
g222
sbsbaa(lp1098
(ischedule
Activity
p1099
(dp1100
g8
g1036
sg29
I1000
sg31
g435
sg33
g111
sg35
I0
sg37
g873
sba(ischedule
Activity
p1101
(dp1102
g8
(lp1103
g604
ag506
ag351
ag587
ag348
ag303
ag158
ag693
ag738
aS'45660925'
p1104
ag240
ag811
ag320
ag541
ag161
ag252
ag328
asg29
S'25'
p1105
sg31
S'Heuristieken 1'
p1106
sg33
g138
sg35
g36
sg37
g677
sba(ischedule
Activity
p1107
(dp1108
g8
(lp1109
g101
aS'63573738'
p1110
ag860
ag292
ag527
aS'59887191'
p1111
ag450
aS'16912993'
p1112
ag398
ag211
ag403
aS'123355'
p1113
ag969
ag286
asg29
g75
sg31
g76
sg33
g34
sg35
g53
sg37
(iread_data
Room
p1114
(dp1115
g29
g141
sg31
g142
sbsba(ischedule
Activity
p1116
(dp1117
g8
(lp1118
g641
ag642
ag643
ag231
ag644
ag66
ag314
ag613
ag185
ag645
ag28
ag791
ag453
ag315
ag406
asg29
g295
sg31
g296
sg33
g138
sg35
g77
sg37
(iread_data
Room
p1119
(dp1120
g29
g114
sg31
g115
sbsba(ischedule
Activity
p1121
(dp1122
g8
g84
sg29
I1000
sg31
g110
sg33
g111
sg35
I0
sg37
(iread_data
Room
p1123
(dp1124
g29
g80
sg31
g81
sbsba(ischedule
Activity
p1125
(dp1126
g8
g552
sg29
I1000
sg31
g308
sg33
g111
sg35
I0
sg37
(iread_data
Room
p1127
(dp1128
g29
g40
sg31
g41
sbsba(ischedule
Activity
p1129
(dp1130
g8
g667
sg29
I1000
sg31
g676
sg33
g111
sg35
I0
sg37
(iread_data
Room
p1131
(dp1132
g29
g221
sg31
g222
sbsbaa(lp1133
(ischedule
Activity
p1134
(dp1135
g8
(lp1136
g539
ag620
ag795
ag426
ag733
ag725
ag66
ag47
aS'97417002'
p1137
ag174
ag276
ag206
aS'53775014'
p1138
aS'87210640'
p1139
ag546
ag932
ag350
ag718
ag456
ag207
ag658
ag150
aS'83443653'
p1140
aS'76393508'
p1141
ag588
ag377
ag129
asg29
g1105
sg31
g1106
sg33
g138
sg35
g53
sg37
(iread_data
Room
p1142
(dp1143
g29
g80
sg31
g81
sbsba(ischedule
Activity
p1144
(dp1145
g8
(lp1146
g409
ag621
ag977
ag761
ag613
ag121
ag755
ag188
aS'78822885'
p1147
ag73
ag514
ag147
ag629
ag694
ag971
ag178
ag587
ag675
ag129
ag122
ag128
ag200
ag229
aS'73350019'
p1148
aS'18477924'
p1149
aS'58480929'
p1150
aS'97838175'
p1151
ag48
ag64
ag151
ag126
ag375
ag156
ag630
aS'82854435'
p1152
ag1140
ag944
aS'88737765'
p1153
ag980
ag360
ag164
ag915
ag202
aS'14637758'
p1154
ag811
ag623
ag350
ag215
ag244
asg29
I1000
sg31
S'Analysemethoden en -technieken'
p1155
sg33
g111
sg35
I0
sg37
(iread_data
Room
p1156
(dp1157
g29
g221
sg31
g222
sbsba(ischedule
Activity
p1158
(dp1159
g8
(lp1160
g210
ag426
ag46
ag303
ag553
ag304
ag539
ag554
ag395
ag555
ag302
asg29
g466
sg31
g308
sg33
g34
sg35
g36
sg37
(iread_data
Room
p1161
(dp1162
g29
g195
sg31
g196
sbsba(ischedule
Activity
p1163
(dp1164
g8
(lp1165
g757
ag415
ag1063
ag352
ag22
ag570
ag216
ag475
ag349
ag93
ag1064
ag13
ag1065
ag306
ag847
ag491
ag413
ag411
ag318
ag555
ag586
ag1066
ag414
ag644
ag337
ag1052
ag1008
ag400
ag146
ag326
ag396
ag619
ag398
ag406
ag395
asg29
g727
sg31
g417
sg33
g138
sg35
g36
sg37
(iread_data
Room
p1166
(dp1167
g29
g56
sg31
g57
sbsba(ischedule
Activity
p1168
(dp1169
g8
(lp1170
g505
ag406
ag245
ag150
ag133
ag506
ag166
ag380
ag441
ag271
asg29
g217
sg31
g218
sg33
g34
sg35
g53
sg37
(iread_data
Room
p1171
(dp1172
g29
g114
sg31
g115
sbsba(ischedule
Activity
p1173
(dp1174
g8
(lp1175
g395
ag160
ag210
asg29
g307
sg31
g308
sg33
g138
sg35
g53
sg37
(iread_data
Room
p1176
(dp1177
g29
g141
sg31
g142
sbsba(ischedule
Activity
p1178
(dp1179
g8
(lp1180
g475
ag371
ag702
ag541
ag272
ag456
aS'63096281'
p1181
ag719
ag152
ag97
ag339
ag451
ag846
ag85
ag859
ag392
ag338
aS'54395877'
p1182
asg29
g30
sg31
g32
sg33
g34
sg35
g384
sg37
(iread_data
Room
p1183
(dp1184
g29
g40
sg31
g41
sbsbaaa(lp1185
(lp1186
(ischedule
Activity
p1187
(dp1188
g8
(lp1189
g453
ag923
ag454
ag21
ag924
ag92
ag620
ag19
ag363
ag105
ag318
ag456
ag131
ag243
ag22
ag449
ag274
ag446
ag414
ag448
ag452
ag925
ag162
ag293
ag441
asg29
g1077
sg31
g458
sg33
g34
sg35
g53
sg37
(iread_data
Room
p1190
(dp1191
g29
g141
sg31
g142
sbsba(ischedule
Activity
p1192
(dp1193
g8
(lp1194
g757
ag391
ag415
ag379
ag1063
ag146
ag352
ag26
ag22
ag392
ag570
ag393
ag216
ag163
ag475
ag394
ag349
ag395
ag93
ag396
ag1064
ag397
ag13
ag326
ag1065
ag353
ag306
ag398
ag847
ag270
ag670
ag287
ag176
ag399
ag491
ag347
ag413
ag400
ag411
ag401
ag318
ag402
ag555
ag246
ag586
ag88
ag1066
ag265
ag414
ag725
ag644
ag178
ag337
ag403
ag105
ag404
ag1052
ag405
ag201
ag406
ag1008
ag407
ag412
ag408
ag315
ag409
ag726
ag410
ag619
asg29
I1000
sg31
g417
sg33
g111
sg35
I0
sg37
(iread_data
Room
p1195
(dp1196
g29
g221
sg31
g222
sbsba(ischedule
Activity
p1197
(dp1198
g8
(lp1199
g305
ag752
ag447
ag152
ag473
ag753
ag129
ag754
ag762
ag214
ag808
ag755
ag809
ag212
ag243
ag355
ag265
ag583
ag513
ag756
ag306
ag757
ag490
ag718
ag641
ag70
ag761
ag268
ag371
ag61
ag233
ag319
ag158
ag287
ag764
ag814
ag207
ag758
ag491
ag216
ag474
ag289
ag453
ag448
ag810
ag173
ag643
ag602
ag286
ag160
ag811
ag48
ag812
ag321
ag47
ag759
ag582
ag514
ag357
ag760
ag554
ag119
ag813
ag274
ag735
ag170
ag443
ag400
ag107
ag210
ag763
ag188
ag209
ag717
ag445
asg29
I1000
sg31
g766
sg33
g111
sg35
I0
sg37
(iread_data
Room
p1200
(dp1201
g29
g195
sg31
g196
sbsba(ischedule
Activity
p1202
(dp1203
g8
(lp1204
g704
ag397
ag328
ag505
ag230
ag87
ag527
ag737
ag709
ag889
ag74
ag529
ag131
ag108
ag916
ag915
ag204
ag350
asg29
g1095
sg31
g917
sg33
g34
sg35
g53
sg37
(iread_data
Room
p1205
(dp1206
g29
g80
sg31
g81
sbsbaa(lp1207
(ischedule
Activity
p1208
(dp1209
g8
g828
sg29
I1000
sg31
g607
sg33
g111
sg35
I0
sg37
g677
sba(ischedule
Activity
p1210
(dp1211
g8
(lp1212
S'55480737'
p1213
ag135
ag1087
aS'75680261'
p1214
ag989
ag1153
ag241
ag239
ag641
ag268
asg29
g892
sg31
g893
sg33
g34
sg35
g77
sg37
(iread_data
Room
p1215
(dp1216
g29
g141
sg31
g142
sbsba(ischedule
Activity
p1217
(dp1218
g8
g504
sg29
I1000
sg31
g218
sg33
g111
sg35
I0
sg37
(iread_data
Room
p1219
(dp1220
g29
g80
sg31
g81
sbsba(ischedule
Activity
p1221
(dp1222
g8
(lp1223
g455
ag348
ag539
ag424
ag541
ag544
ag545
ag16
ag356
ag538
ag423
ag542
ag353
asg29
g899
sg31
g547
sg33
g138
sg35
g53
sg37
(iread_data
Room
p1224
(dp1225
g29
g114
sg31
g115
sbsba(ischedule
Activity
p1226
(dp1227
g8
(lp1228
g576
ag234
ag658
ag660
ag538
ag19
ag70
ag659
asg29
g1059
sg31
g52
sg33
g138
sg35
g77
sg37
(iread_data
Room
p1229
(dp1230
g29
g195
sg31
g196
sbsba(ischedule
Activity
p1231
(dp1232
g8
(lp1233
g652
ag654
ag453
ag477
ag659
ag12
ag658
ag653
ag538
ag19
asg29
g51
sg31
g52
sg33
g34
sg35
g36
sg37
(iread_data
Room
p1234
(dp1235
g29
g40
sg31
g41
sbsba(ischedule
Activity
p1236
(dp1237
g8
(lp1238
g119
ag376
ag483
ag205
ag244
ag484
ag74
ag71
ag269
ag120
ag131
ag660
ag121
ag840
ag426
ag944
ag942
ag17
ag122
ag314
ag485
ag123
ag546
ag246
ag493
ag659
ag614
ag124
ag491
ag486
ag125
ag133
ag134
ag126
ag943
ag132
ag492
ag272
ag130
ag127
ag22
ag487
ag85
ag135
ag488
ag128
ag674
ag489
ag129
ag761
ag490
asg29
I1000
sg31
g137
sg33
g111
sg35
I0
sg37
(iread_data
Room
p1239
(dp1240
g29
g221
sg31
g222
sbsbaa(lp1241
(ischedule
Activity
p1242
(dp1243
g8
(lp1244
g172
asg29
g466
sg31
g308
sg33
g34
sg35
g77
sg37
(iread_data
Room
p1245
(dp1246
g29
g80
sg31
g81
sbsba(ischedule
Activity
p1247
(dp1248
g8
(lp1249
g47
ag584
ag690
ag1038
ag133
ag319
ag408
ag752
ag1039
ag1040
ag353
ag834
ag539
ag379
ag168
ag121
ag87
ag1037
ag944
asg29
g434
sg31
g435
sg33
g138
sg35
g53
sg37
(iread_data
Room
p1250
(dp1251
g29
g195
sg31
g196
sbsba(ischedule
Activity
p1252
(dp1253
g8
(lp1254
g674
ag234
ag403
aS'19662602'
p1255
ag200
ag146
ag492
ag216
ag95
ag1110
ag484
ag26
ag413
ag576
aS'90103047'
p1256
asg29
g329
sg31
g330
sg33
g34
sg35
g36
sg37
(iread_data
Room
p1257
(dp1258
g29
g40
sg31
g41
sbsba(ischedule
Activity
p1259
(dp1260
g8
(lp1261
g50
ag477
ag48
ag12
ag656
ag91
ag46
asg29
g1059
sg31
g52
sg33
g138
sg35
g36
sg37
(iread_data
Room
p1262
(dp1263
g29
g114
sg31
g115
sbsba(ischedule
Activity
p1264
(dp1265
g8
(lp1266
g369
ag465
ag923
ag924
ag92
ag620
ag19
ag363
ag925
ag131
ag243
ag22
ag293
ag857
ag162
ag926
ag490
ag615
asg29
g457
sg31
g458
sg33
g138
sg35
g53
sg37
(iread_data
Room
p1267
(dp1268
g29
g141
sg31
g142
sbsba(ischedule
Activity
p1269
(dp1270
g8
(lp1271
g200
ag123
ag201
ag202
ag203
ag204
ag206
ag207
ag216
ag208
ag209
ag271
ag380
ag211
ag245
asg29
g957
sg31
g218
sg33
g138
sg35
g77
sg37
(iread_data
Room
p1272
(dp1273
g29
g56
sg31
g57
sbsbaa(lp1274
(ischedule
Activity
p1275
(dp1276
g8
(lp1277
g318
ag182
ag429
ag701
ag100
ag688
ag702
ag705
ag604
ag622
ag599
ag162
ag233
ag598
ag605
ag708
ag709
ag407
ag433
ag601
ag108
asg29
g784
sg31
g607
sg33
g138
sg35
g53
sg37
g1142
sba(ischedule
Activity
p1278
(dp1279
g8
(lp1280
g25
ag790
ag87
ag622
ag792
ag793
ag404
ag794
ag451
ag795
ag519
ag183
ag796
ag709
asg29
g295
sg31
g296
sg33
g138
sg35
g36
sg37
(iread_data
Room
p1281
(dp1282
g29
g195
sg31
g196
sbsba(ischedule
Activity
p1283
(dp1284
g8
g833
sg29
I1000
sg31
g861
sg33
g111
sg35
I0
sg37
(iread_data
Room
p1285
(dp1286
g29
g56
sg31
g57
sbsba(ischedule
Activity
p1287
(dp1288
g8
g1194
sg29
I1000
sg31
g417
sg33
g111
sg35
I0
sg37
(iread_data
Room
p1289
(dp1290
g29
g141
sg31
g142
sbsbaa(lp1291
(ischedule
Activity
p1292
(dp1293
g8
g145
sg29
I1000
sg31
g192
sg33
g111
sg35
I0
sg37
(iread_data
Room
p1294
(dp1295
g29
g141
sg31
g142
sbsba(ischedule
Activity
p1296
(dp1297
g8
(lp1298
g285
ag213
ag264
ag506
ag166
ag212
asg29
g957
sg31
g218
sg33
g138
sg35
g36
sg37
(iread_data
Room
p1299
(dp1300
g29
g80
sg31
g81
sbsba(ischedule
Activity
p1301
(dp1302
g8
(lp1303
g604
ag539
ag129
ag252
ag506
ag161
ag377
ag1140
ag351
ag620
ag541
ag795
ag587
ag426
ag348
ag733
ag303
ag725
ag150
ag328
ag456
ag66
ag158
ag47
ag693
ag658
ag718
ag1137
ag738
ag174
ag1104
ag276
ag588
ag206
ag240
ag1138
ag1141
ag1139
ag811
ag546
ag320
ag932
ag207
ag350
asg29
I1000
sg31
g1106
sg33
g111
sg35
I0
sg37
(iread_data
Room
p1304
(dp1305
g29
g221
sg31
g222
sbsba(ischedule
Activity
p1306
(dp1307
g8
(lp1308
g752
ag152
ag753
ag754
ag214
ag755
ag212
ag583
ag756
ag757
ag718
ag268
ag61
ag814
ag758
ag216
ag289
ag448
ag602
ag160
ag48
ag759
ag514
ag760
ag119
ag170
ag400
ag210
ag188
ag717
ag554
ag207
ag582
ag764
ag447
ag474
ag355
ag233
asg29
g878
sg31
g766
sg33
g138
sg35
g53
sg37
(iread_data
Room
p1309
(dp1310
g29
g40
sg31
g41
sbsba(ischedule
Activity
p1311
(dp1312
g8
g1238
sg29
I1000
sg31
g137
sg33
g111
sg35
I0
sg37
(iread_data
Room
p1313
(dp1314
g29
g195
sg31
g196
sbsba(ischedule
Activity
p1315
(dp1316
g8
g536
sg29
I1000
sg31
g547
sg33
g111
sg35
I0
sg37
(iread_data
Room
p1317
(dp1318
g29
g114
sg31
g115
sbsbaaa(lp1319
(lp1320
a(lp1321
a(lp1322
a(lp1323
a(lp1324
aasS'timeslot_dict'
p1325
(dp1326
I0
S'9:00-11:00'
p1327
sI1
S'11:00-13:00'
p1328
sI2
S'13:00-15:00'
p1329
sI3
S'15:00-17:00'
p1330
sI4
S'17:00-19:00'
p1331
ssS'day_dict'
p1332
(dp1333
I0
S'Monday'
p1334
sI1
S'Tuesday'
p1335
sI2
S'Wednesday'
p1336
sI3
S'Thursday'
p1337
sI4
S'Friday'
p1338
ssb.