(ischedule
Schedule
p0
(dp1
S'timetable'
p2
(lp3
(lp4
(lp5
(ischedule
Activity
p6
(dp7
S'participants'
p8
(lp9
S'98105190'
p10
aS'95631564'
p11
aS'37770881'
p12
aS'15911353'
p13
aS'76661016'
p14
aS'88752563'
p15
aS'24613625'
p16
aS'12077419'
p17
aS'65960683'
p18
aS'48308205'
p19
aS'9067939'
p20
aS'43689934'
p21
aS'75759231'
p22
aS'49683101'
p23
aS'86988337'
p24
aS'13284244'
p25
aS'34110913'
p26
aS'39459642'
p27
aS'34243356'
p28
aS'5595824'
p29
aS'27950803'
p30
aS'79033175'
p31
aS'27187154'
p32
aS'92665222'
p33
aS'2317551'
p34
aS'42778953'
p35
aS'66701209'
p36
aS'68315599'
p37
aS'76802764'
p38
aS'54772132'
p39
aS'10792879'
p40
aS'6723948'
p41
aS'8464817'
p42
aS'30658799'
p43
asS'capacity'
p44
S'40'
p45
sS'name'
p46
S'Compilerbouw'
p47
sS'ttype'
p48
S'tutorials'
p49
sS'group_id'
p50
S'1'
p51
sS'room'
p52
(iread_data
Room
p53
(dp54
g44
S'48'
p55
sg46
S'B0.201'
p56
sbsba(ischedule
Activity
p57
(dp58
g8
(lp59
S'48601268'
p60
aS'46052388'
p61
aS'15902055'
p62
aS'62701040'
p63
aS'29640619'
p64
aS'50184318'
p65
aS'87758823'
p66
aS'77240949'
p67
aS'17575088'
p68
aS'24277163'
p69
aS'13092455'
p70
aS'26406342'
p71
aS'51741554'
p72
aS'13534377'
p73
aS'76123484'
p74
aS'17222374'
p75
aS'53107172'
p76
aS'3233378'
p77
aS'58522654'
p78
aS'9332762'
p79
ag35
aS'7308727'
p80
aS'57595888'
p81
aS'43027916'
p82
aS'35330349'
p83
aS'22699561'
p84
aS'42196732'
p85
aS'82689818'
p86
aS'68601184'
p87
aS'33760909'
p88
aS'77896638'
p89
aS'73980360'
p90
aS'21964491'
p91
aS'45556081'
p92
aS'31416266'
p93
aS'42171678'
p94
aS'64228258'
p95
aS'75521763'
p96
aS'64296965'
p97
ag18
aS'29474737'
p98
aS'64393888'
p99
aS'61443567'
p100
aS'1665980'
p101
aS'28357474'
p102
aS'60312776'
p103
aS'72577292'
p104
ag12
aS'1075391'
p105
aS'50143947'
p106
aS'4783858'
p107
aS'34773179'
p108
aS'86000192'
p109
aS'97135019'
p110
aS'96104167'
p111
aS'86291592'
p112
aS'1696500'
p113
aS'25106480'
p114
aS'54310617'
p115
aS'5517869'
p116
aS'23547619'
p117
asg44
I1000
sg46
S'Collectieve Intelligentie'
p118
sg48
S'lectures'
p119
sg50
I0
sg52
(iread_data
Room
p120
(dp121
g44
S'117'
p122
sg46
S'C0.110'
p123
sbsba(ischedule
Activity
p124
(dp125
g8
(lp126
S'53585410'
p127
aS'63634350'
p128
aS'86807027'
p129
aS'63111000'
p130
aS'63096281'
p131
aS'4709948'
p132
ag100
aS'23257088'
p133
aS'96054456'
p134
aS'99272880'
p135
aS'45414528'
p136
aS'23215240'
p137
aS'60661905'
p138
aS'6913074'
p139
aS'37744525'
p140
aS'48503689'
p141
aS'51593625'
p142
aS'51791169'
p143
asg44
S'20'
p144
sg46
S'Programmeren in Java 2'
p145
sg48
S'labs'
p146
sg50
S'6'
p147
sg52
(iread_data
Room
p148
(dp149
g44
S'41'
p150
sg46
S'A1.04'
p151
sbsba(ischedule
Activity
p152
(dp153
g8
(lp154
S'77636749'
p155
ag37
aS'58332004'
p156
aS'70878567'
p157
aS'17496687'
p158
aS'18266644'
p159
ag96
aS'8557857'
p160
aS'75585647'
p161
ag63
aS'13116738'
p162
aS'11459236'
p163
aS'29718115'
p164
aS'19958553'
p165
aS'36748818'
p166
aS'23983476'
p167
aS'13658563'
p168
ag133
aS'32204977'
p169
aS'44901052'
p170
aS'92977271'
p171
asg44
I1000
sg46
S'Informatie- en organsatieontwerp'
p172
sg48
g119
sg50
I0
sg52
(iread_data
Room
p173
(dp174
g44
S'56'
p175
sg46
S'A1.10'
p176
sbsba(ischedule
Activity
p177
(dp178
g8
(lp179
S'72796858'
p180
aS'74131924'
p181
ag170
aS'88627897'
p182
ag27
aS'68409833'
p183
aS'36508571'
p184
aS'70113753'
p185
aS'16097870'
p186
aS'62872965'
p187
aS'22871048'
p188
asg44
S'10'
p189
sg46
S'Autonomous Agents 2'
p190
sg48
g146
sg50
S'2'
p191
sg52
(iread_data
Room
p192
(dp193
g44
S'22'
p194
sg46
S'A1.06'
p195
sbsbaa(lp196
(ischedule
Activity
p197
(dp198
g8
(lp199
S'66120270'
p200
aS'11068043'
p201
ag85
aS'96453361'
p202
aS'64600457'
p203
ag78
aS'22731474'
p204
aS'30050930'
p205
ag91
aS'33930505'
p206
ag134
aS'59544049'
p207
aS'73236988'
p208
ag41
aS'88176729'
p209
aS'33877725'
p210
ag157
aS'4568018'
p211
aS'247918'
p212
ag139
aS'28359697'
p213
aS'81200278'
p214
aS'53202517'
p215
aS'30195935'
p216
aS'20883994'
p217
aS'77831658'
p218
aS'29526540'
p219
ag181
aS'54026378'
p220
aS'5298748'
p221
aS'85335143'
p222
aS'3168419'
p223
ag16
ag80
aS'14591033'
p224
aS'56815156'
p225
aS'22826928'
p226
aS'43680781'
p227
aS'79617364'
p228
aS'14816774'
p229
aS'21029457'
p230
aS'15051051'
p231
aS'89985072'
p232
aS'56749879'
p233
aS'44868097'
p234
asg44
I1000
sg46
S'Bioinformatica'
p235
sg48
g119
sg50
I0
sg52
(iread_data
Room
p236
(dp237
g44
S'60'
p238
sg46
S'C1.112'
p239
sbsba(ischedule
Activity
p240
(dp241
g8
(lp242
S'38296757'
p243
aS'77392404'
p244
aS'33776961'
p245
aS'51415617'
p246
aS'78136904'
p247
aS'49922855'
p248
ag30
aS'59753700'
p249
ag221
aS'52715680'
p250
aS'87830198'
p251
aS'27370083'
p252
ag24
aS'70844780'
p253
ag226
aS'20239127'
p254
aS'60352393'
p255
aS'3685034'
p256
aS'36213792'
p257
aS'42406214'
p258
aS'37110913'
p259
aS'70193386'
p260
aS'41578612'
p261
aS'77960666'
p262
ag132
aS'27805666'
p263
aS'96554914'
p264
ag70
aS'20095994'
p265
aS'36785409'
p266
aS'68286356'
p267
ag139
aS'99975346'
p268
aS'61518436'
p269
aS'84524083'
p270
ag188
aS'92778619'
p271
aS'54569540'
p272
aS'99453514'
p273
ag138
aS'82390428'
p274
ag168
aS'32044893'
p275
aS'37399898'
p276
aS'13718298'
p277
ag69
aS'51052738'
p278
aS'90474003'
p279
aS'84449005'
p280
aS'57086672'
p281
ag227
asg44
I1000
sg46
S'Reflectie op de digitale cultuur'
p282
sg48
g119
sg50
I0
sg52
(iread_data
Room
p283
(dp284
g44
g122
sg46
g123
sbsba(ischedule
Activity
p285
(dp286
g8
(lp287
S'51566595'
p288
aS'52311353'
p289
aS'87900893'
p290
aS'93023961'
p291
aS'17823206'
p292
aS'22323043'
p293
aS'97136582'
p294
aS'91196968'
p295
aS'87314964'
p296
ag106
aS'81022997'
p297
ag157
ag273
ag249
ag91
aS'19337738'
p298
ag162
aS'66122625'
p299
aS'13996448'
p300
aS'25330192'
p301
ag136
ag214
ag259
aS'68360259'
p302
ag140
aS'98780382'
p303
ag181
asg44
I1000
sg46
S'Data Mining'
p304
sg48
g119
sg50
I0
sg52
(iread_data
Room
p305
(dp306
g44
g55
sg46
g56
sbsba(ischedule
Activity
p307
(dp308
g8
(lp309
g60
ag68
ag72
ag76
ag83
ag87
ag91
ag95
ag102
ag105
ag109
ag113
ag117
asg44
S'20'
p310
sg46
g118
sg48
g49
sg50
g51
sg52
(iread_data
Room
p311
(dp312
g44
S'20'
p313
sg46
S'A1.08'
p314
sbsbaa(lp315
(ischedule
Activity
p316
(dp317
g8
(lp318
S'6939933'
p319
aS'62363761'
p320
aS'73823548'
p321
ag110
aS'23658570'
p322
aS'72526473'
p323
aS'10609762'
p324
aS'94686490'
p325
ag161
aS'38179241'
p326
aS'9731271'
p327
aS'87602030'
p328
aS'26260141'
p329
aS'74182182'
p330
aS'28957789'
p331
aS'23565001'
p332
aS'55412918'
p333
aS'46701583'
p334
aS'83266686'
p335
aS'22168693'
p336
ag224
aS'56544130'
p337
ag134
aS'75997788'
p338
aS'75446434'
p339
aS'79167252'
p340
aS'65978354'
p341
ag107
aS'72665524'
p342
aS'58699305'
p343
aS'37279234'
p344
aS'23628642'
p345
aS'58040377'
p346
aS'4546613'
p347
aS'61520025'
p348
asg44
S'40'
p349
sg46
S'Calculus 2'
p350
sg48
g49
sg50
S'3'
p351
sg52
g236
sba(ischedule
Activity
p352
(dp353
g8
(lp354
g288
ag291
ag294
ag106
ag298
ag214
ag140
asg44
S'10'
p355
sg46
g304
sg48
g49
sg50
g51
sg52
(iread_data
Room
p356
(dp357
g44
g194
sg46
g195
sbsba(ischedule
Activity
p358
(dp359
g8
(lp360
g290
ag293
ag296
ag91
ag299
ag302
ag181
ag214
ag303
ag289
ag295
ag162
asg44
S'10'
p361
sg46
g304
sg48
g146
sg50
g351
sg52
(iread_data
Room
p362
(dp363
g44
g150
sg46
g151
sbsba(ischedule
Activity
p364
(dp365
g8
g242
sg44
I1000
sg46
g282
sg48
g119
sg50
I0
sg52
(iread_data
Room
p366
(dp367
g44
g175
sg46
g176
sbsba(ischedule
Activity
p368
(dp369
g8
(lp370
g10
ag215
ag11
ag103
ag12
aS'7957843'
p371
ag13
ag78
ag14
ag141
ag15
aS'34872117'
p372
ag16
aS'46989508'
p373
ag17
aS'72895450'
p374
ag18
ag112
ag19
aS'88636924'
p375
ag20
aS'11915563'
p376
ag21
aS'95007221'
p377
aS'88855695'
p378
aS'3407554'
p379
ag22
aS'13911001'
p380
ag23
ag340
ag24
aS'80135353'
p381
ag25
aS'2079771'
p382
ag26
aS'75664412'
p383
ag27
aS'5368702'
p384
ag28
aS'31194811'
p385
ag29
ag89
ag270
aS'65852230'
p386
ag30
ag42
ag31
ag335
ag32
aS'81385263'
p387
ag33
aS'11741347'
p388
ag34
aS'94687383'
p389
ag35
ag43
ag36
aS'14309255'
p390
ag37
aS'1766560'
p391
ag38
aS'75599734'
p392
aS'40791377'
p393
ag180
ag39
aS'44391517'
p394
ag40
ag208
ag41
asg44
I1000
sg46
g47
sg48
g119
sg50
I0
sg52
(iread_data
Room
p395
(dp396
g44
g122
sg46
g123
sbsba(ischedule
Activity
p397
(dp398
g8
(lp399
S'17092717'
p400
aS'14303208'
p401
aS'78243495'
p402
aS'6249823'
p403
aS'22288615'
p404
aS'14847953'
p405
aS'76903244'
p406
aS'39230359'
p407
aS'20618153'
p408
aS'27064249'
p409
ag244
aS'41790793'
p410
aS'67073567'
p411
aS'40434933'
p412
asg44
S'20'
p413
sg46
S'Webprogrammeren en databases'
p414
sg48
g49
sg50
g191
sg52
(iread_data
Room
p415
(dp416
g44
g313
sg46
g314
sbsba(ischedule
Activity
p417
(dp418
g8
(lp419
S'14138904'
p420
aS'11996292'
p421
ag224
aS'83443653'
p422
ag113
aS'14941752'
p423
aS'81218347'
p424
aS'4353500'
p425
ag168
aS'59075181'
p426
aS'79879876'
p427
aS'97019450'
p428
aS'20830477'
p429
aS'19858730'
p430
aS'31897288'
p431
aS'71839156'
p432
aS'97417002'
p433
ag10
ag299
ag171
ag96
aS'57467488'
p434
aS'48357272'
p435
ag129
ag94
ag338
ag76
aS'76393508'
p436
ag107
aS'61060652'
p437
aS'58736785'
p438
aS'94930277'
p439
ag233
aS'45660925'
p440
ag170
aS'53775014'
p441
aS'20331158'
p442
ag188
aS'87210640'
p443
ag211
ag259
ag293
aS'36903574'
p444
ag229
asg44
I1000
sg46
S'Heuristieken 1'
p445
sg48
g119
sg50
I0
sg52
(iread_data
Room
p446
(dp447
g44
g55
sg46
g56
sbsbaa(lp448
(ischedule
Activity
p449
(dp450
g8
g59
sg44
I1000
sg46
g118
sg48
g119
sg50
I0
sg52
g283
sba(ischedule
Activity
p451
(dp452
g8
g199
sg44
I1000
sg46
g235
sg48
g119
sg50
I0
sg52
g305
sba(ischedule
Activity
p453
(dp454
g8
(lp455
S'65675896'
p456
aS'44828429'
p457
ag276
aS'64768422'
p458
aS'28055464'
p459
ag387
aS'93566383'
p460
ag117
aS'2550487'
p461
ag214
ag14
aS'21677389'
p462
aS'81155296'
p463
ag326
aS'69634191'
p464
aS'19214659'
p465
aS'66034145'
p466
ag405
aS'76924297'
p467
aS'3707829'
p468
aS'34765676'
p469
ag347
aS'37701751'
p470
ag384
aS'20374340'
p471
asg44
I1000
sg46
S'Interactie-ontwerp'
p472
sg48
g119
sg50
I0
sg52
g236
sba(ischedule
Activity
p473
(dp474
g8
(lp475
g390
aS'18144425'
p476
aS'27241113'
p477
aS'49631542'
p478
aS'47462856'
p479
ag391
ag245
ag203
ag156
ag219
ag132
ag37
ag43
ag166
ag231
asg44
S'20'
p480
sg46
S'Moderne Databases'
p481
sg48
g146
sg50
g191
sg52
(iread_data
Room
p482
(dp483
g44
g313
sg46
g314
sbsba(ischedule
Activity
p484
(dp485
g8
(lp486
g184
ag180
aS'34806836'
p487
aS'52552718'
p488
ag181
aS'62356458'
p489
ag188
ag170
ag259
ag185
ag186
ag430
ag288
ag182
ag376
aS'27298319'
p490
ag27
ag116
aS'61611295'
p491
ag183
ag187
ag220
asg44
I1000
sg46
g190
sg48
g119
sg50
I0
sg52
g356
sba(ischedule
Activity
p492
(dp493
g8
(lp494
S'79366078'
p495
ag330
aS'84110134'
p496
ag295
aS'55474917'
p497
aS'72547110'
p498
aS'42115591'
p499
aS'97371272'
p500
ag478
aS'34262212'
p501
aS'31633723'
p502
aS'65003379'
p503
ag204
ag207
ag384
ag97
aS'51186803'
p504
ag272
ag424
ag292
ag32
ag128
aS'69086548'
p505
aS'94467156'
p506
aS'41585485'
p507
ag115
ag135
aS'38499176'
p508
ag67
aS'82688900'
p509
ag426
aS'10872825'
p510
aS'89338938'
p511
ag156
aS'37498675'
p512
aS'63408522'
p513
aS'39659121'
p514
aS'46570285'
p515
ag256
ag217
ag442
ag28
ag444
aS'5615125'
p516
ag224
ag327
aS'47605891'
p517
aS'23798155'
p518
ag467
ag78
aS'38329455'
p519
ag233
aS'63955238'
p520
ag155
ag40
aS'51542218'
p521
aS'8522855'
p522
ag254
ag270
ag269
ag407
ag376
ag159
aS'31247305'
p523
aS'39919665'
p524
aS'14398123'
p525
aS'94955328'
p526
aS'23391676'
p527
aS'7492204'
p528
aS'41527759'
p529
ag134
ag247
ag331
aS'79858178'
p530
ag428
aS'24875739'
p531
aS'56988998'
p532
aS'91139627'
p533
ag479
aS'78735049'
p534
aS'14671406'
p535
aS'58469172'
p536
aS'32705005'
p537
aS'44940353'
p538
asg44
I1000
sg46
S'Kansrekenen 2'
p539
sg48
g119
sg50
I0
sg52
(iread_data
Room
p540
(dp541
g44
g175
sg46
g176
sbsbaa(lp542
(ischedule
Activity
p543
(dp544
g8
(lp545
g333
ag224
ag330
ag526
ag184
aS'58866007'
p546
aS'16011419'
p547
aS'96118484'
p548
ag460
ag332
aS'80998260'
p549
ag116
ag35
ag276
ag499
ag89
aS'36527838'
p550
aS'83210352'
p551
aS'26172512'
p552
ag28
ag186
ag83
ag289
ag228
ag183
ag325
aS'4921119'
p553
ag66
ag19
ag295
aS'16333449'
p554
aS'79937969'
p555
ag437
ag432
aS'66570705'
p556
ag508
ag85
aS'670011'
p557
ag424
aS'32595335'
p558
aS'21311067'
p559
aS'75005528'
p560
aS'80709893'
p561
ag387
aS'34588570'
p562
ag261
ag497
aS'54074680'
p563
ag93
aS'10149535'
p564
aS'90743504'
p565
ag187
aS'56872729'
p566
aS'3474870'
p567
asg44
I1000
sg46
S'Lineaire Algebra'
p568
sg48
g119
sg50
I0
sg52
(iread_data
Room
p569
(dp570
g44
g175
sg46
g176
sbsba(ischedule
Activity
p571
(dp572
g8
(lp573
g85
ag78
ag91
ag207
ag209
ag211
ag213
ag216
ag219
ag221
ag16
ag225
ag228
ag231
ag234
ag201
asg44
S'20'
p574
sg46
g235
sg48
g49
sg50
g351
sg52
g148
sba(ischedule
Activity
p575
(dp576
g8
(lp577
g280
aS'14179347'
p578
ag36
ag30
ag525
ag12
ag108
ag334
aS'27925117'
p579
aS'88737765'
p580
aS'78821918'
p581
aS'82066165'
p582
asg44
S'15'
p583
sg46
S'Project Genetic Algorithms'
p584
sg48
g146
sg50
g51
sg52
(iread_data
Room
p585
(dp586
g44
g238
sg46
g239
sbsba(ischedule
Activity
p587
(dp588
g8
(lp589
g200
ag202
ag204
ag206
ag208
ag212
ag214
ag217
ag181
ag222
ag80
ag226
ag229
ag232
ag218
ag139
ag205
ag201
asg44
S'20'
p590
sg46
g235
sg48
g146
sg50
g51
sg52
g305
sba(ischedule
Activity
p591
(dp592
g8
(lp593
g390
ag476
ag116
ag477
ag380
ag478
ag479
ag391
ag245
ag203
ag227
ag156
ag219
ag132
ag37
ag43
ag515
ag338
ag94
aS'13218321'
p594
asg44
S'20'
p595
sg46
g481
sg48
g49
sg50
g191
sg52
g356
sba(ischedule
Activity
p596
(dp597
g8
(lp598
g61
ag65
ag69
ag73
ag77
ag84
ag88
ag92
ag99
ag103
ag106
ag110
ag114
ag63
ag71
asg44
g310
sg46
g118
sg48
g49
sg50
g191
sg52
(iread_data
Room
p599
(dp600
g44
g313
sg46
g314
sbsbaaa(lp601
(lp602
(ischedule
Activity
p603
(dp604
g8
g287
sg44
I1000
sg46
g304
sg48
g119
sg50
I0
sg52
(iread_data
Room
p605
(dp606
g44
g238
sg46
g239
sbsba(ischedule
Activity
p607
(dp608
g8
(lp609
g215
ag400
aS'69459473'
p610
aS'28358060'
p611
aS'43902015'
p612
ag401
ag374
ag402
aS'10698627'
p613
aS'89180944'
p614
ag104
ag281
aS'76648468'
p615
ag403
ag439
aS'43460038'
p616
aS'53512831'
p617
ag74
aS'24891081'
p618
ag412
ag567
ag404
aS'2416751'
p619
ag405
ag95
ag406
aS'1137946'
p620
ag407
ag210
ag408
ag516
ag409
ag554
ag244
ag466
ag410
aS'49908313'
p621
ag411
ag100
asg44
I1000
sg46
g414
sg48
g119
sg50
I0
sg52
g148
sba(ischedule
Activity
p622
(dp623
g8
g494
sg44
I1000
sg46
g539
sg48
g119
sg50
I0
sg52
g283
sba(ischedule
Activity
p624
(dp625
g8
(lp626
g243
ag246
ag30
ag250
ag24
ag254
ag257
ag260
ag132
ag70
ag267
ag269
ag271
ag138
ag275
ag69
ag280
ag276
ag266
asg44
S'20'
p627
sg46
g282
sg48
g49
sg50
g51
sg52
(iread_data
Room
p628
(dp629
g44
g55
sg46
g56
sbsba(ischedule
Activity
p630
(dp631
g8
(lp632
g23
ag412
ag518
aS'59289233'
p633
ag335
ag372
ag546
ag104
aS'72683344'
p634
ag564
ag92
aS'13798030'
p635
ag616
ag579
aS'28618400'
p636
ag164
aS'70015932'
p637
ag442
ag420
ag614
ag86
asg44
I1000
sg46
S'Architectuur en computerorganisatie'
p638
sg48
g119
sg50
I0
sg52
g415
sba(ischedule
Activity
p639
(dp640
g8
(lp641
g488
ag490
ag491
ag220
ag116
ag430
asg44
g189
sg46
g190
sg48
g146
sg50
g51
sg52
(iread_data
Room
p642
(dp643
g44
g194
sg46
g195
sbsba(ischedule
Activity
p644
(dp645
g8
g370
sg44
I1000
sg46
g47
sg48
g119
sg50
I0
sg52
(iread_data
Room
p646
(dp647
g44
g175
sg46
g176
sbsbaa(lp648
(ischedule
Activity
p649
(dp650
g8
(lp651
g158
ag96
ag161
ag162
ag164
ag166
ag168
ag169
ag160
ag133
asg44
S'15'
p652
sg46
g172
sg48
g49
sg50
g51
sg52
g356
sba(ischedule
Activity
p653
(dp654
g8
(lp655
g291
ag294
ag106
ag273
ag300
ag140
ag157
asg44
g361
sg46
g304
sg48
g146
sg50
g51
sg52
g305
sba(ischedule
Activity
p656
(dp657
g8
(lp658
g288
ag387
ag490
ag612
aS'88596522'
p659
aS'58592894'
p660
ag167
ag374
ag127
ag329
ag334
ag529
ag106
ag17
aS'23652927'
p661
ag91
ag457
aS'64554442'
p662
ag535
ag62
ag202
asg44
S'25'
p663
sg46
S'Algoritmen en complexiteit'
p664
sg48
g146
sg50
g191
sg52
(iread_data
Room
p665
(dp666
g44
g150
sg46
g151
sbsba(ischedule
Activity
p667
(dp668
g8
(lp669
S'51650744'
p670
ag390
aS'70072978'
p671
ag421
ag476
aS'78544592'
p672
aS'66621166'
p673
ag116
ag280
aS'59111489'
p674
ag477
aS'77376714'
p675
ag222
ag380
aS'3883025'
p676
aS'99283252'
p677
ag478
ag550
aS'96082155'
p678
ag479
aS'1181560'
p679
aS'48198668'
p680
ag391
ag338
ag402
ag245
ag581
aS'27916487'
p681
ag203
aS'83415514'
p682
aS'78443067'
p683
ag227
ag594
aS'49219163'
p684
ag156
ag69
ag614
ag219
ag94
aS'41489515'
p685
ag132
ag335
ag65
ag37
ag388
ag660
ag43
ag130
ag96
ag166
ag231
ag75
ag515
ag343
asg44
I1000
sg46
g481
sg48
g119
sg50
I0
sg52
g283
sba(ischedule
Activity
p686
(dp687
g8
(lp688
g208
ag103
ag275
aS'90103047'
p689
ag112
aS'21070547'
p690
ag141
ag511
aS'81116418'
p691
aS'19662602'
p692
ag70
aS'34691309'
p693
ag35
asg44
S'15'
p694
sg46
S'Project Numerical Recipes'
p695
sg48
g146
sg50
g51
sg52
(iread_data
Room
p696
(dp697
g44
g175
sg46
g176
sbsba(ischedule
Activity
p698
(dp699
g8
(lp700
g434
ag636
aS'12170832'
p701
aS'535689'
p702
aS'16912993'
p703
ag462
ag522
ag523
ag297
ag170
aS'53267490'
p704
aS'40343779'
p705
aS'85284256'
p706
aS'72456780'
p707
asg44
S'20'
p708
sg46
S'Netwerken en systeembeveiliging'
p709
sg48
g146
sg50
g351
sg52
(iread_data
Room
p710
(dp711
g44
g238
sg46
g239
sbsbaa(lp712
(ischedule
Activity
p713
(dp714
g8
(lp715
g65
ag69
ag73
ag80
ag84
ag92
ag96
ag99
ag103
ag106
ag110
ag114
ag87
asg44
S'20'
p716
sg46
g118
sg48
g146
sg50
g191
sg52
g356
sba(ischedule
Activity
p717
(dp718
g8
(lp719
g62
ag70
ag74
ag78
ag81
ag85
ag89
ag93
ag97
ag100
ag104
ag107
ag111
ag115
ag77
ag88
asg44
g716
sg46
g118
sg48
g146
sg50
g351
sg52
g173
sba(ischedule
Activity
p720
(dp721
g8
(lp722
g487
ag489
ag259
ag376
ag288
asg44
g189
sg46
g190
sg48
g146
sg50
g351
sg52
g415
sba(ischedule
Activity
p723
(dp724
g8
(lp725
g203
ag205
ag134
ag41
ag157
ag215
ag223
ag224
ag227
ag230
ag233
ag204
ag229
asg44
g574
sg46
g235
sg48
g49
sg50
g191
sg52
g236
sba(ischedule
Activity
p726
(dp727
g8
(lp728
S'33252501'
p729
aS'85236626'
p730
ag382
ag532
ag32
ag334
ag130
ag231
ag256
ag67
ag23
ag518
ag27
ag243
ag393
aS'5976174'
p731
aS'90067329'
p732
aS'26857113'
p733
ag140
aS'67625383'
p734
ag269
ag506
asg44
I1000
sg46
S'Machine Learning'
p735
sg48
g119
sg50
I0
sg52
g305
sba(ischedule
Activity
p736
(dp737
g8
g609
sg44
I1000
sg46
g414
sg48
g119
sg50
I0
sg52
(iread_data
Room
p738
(dp739
g44
g122
sg46
g123
sbsba(ischedule
Activity
p740
(dp741
g8
(lp742
g75
ag79
ag82
ag86
ag90
ag94
ag18
ag101
ag12
ag108
ag112
ag116
ag80
ag97
ag96
asg44
g310
sg46
g118
sg48
g49
sg50
S'4'
p743
sg52
(iread_data
Room
p744
(dp745
g44
g150
sg46
g151
sbsbaa(lp746
(ischedule
Activity
p747
(dp748
g8
(lp749
g557
ag281
aS'15249775'
p750
ag469
aS'35315956'
p751
aS'82968410'
p752
ag268
aS'5739011'
p753
aS'1886996'
p754
ag204
ag88
ag730
ag431
aS'52304977'
p755
ag100
ag328
ag438
ag297
ag288
ag214
ag82
aS'48678993'
p756
aS'72652638'
p757
ag579
aS'7106649'
p758
ag270
ag186
ag402
ag731
ag128
ag346
aS'83869542'
p759
asg44
I1000
sg46
S'Heuristieken 2'
p760
sg48
g119
sg50
I0
sg52
(iread_data
Room
p761
(dp762
g44
g175
sg46
g176
sbsba(ischedule
Activity
p763
(dp764
g8
(lp765
g420
ag224
ag424
ag168
ag427
ag429
ag431
ag433
ag299
ag96
ag435
ag94
ag76
ag107
ag438
ag170
ag442
ag443
ag259
ag444
ag338
ag441
ag434
ag229
ag423
asg44
S'25'
p766
sg46
g445
sg48
g49
sg50
g51
sg52
g283
sba(ischedule
Activity
p767
(dp768
g8
(lp769
g756
ag206
ag72
ag140
ag214
aS'63573738'
p770
aS'19058315'
p771
ag387
ag113
ag294
ag320
aS'56191333'
p772
ag255
ag64
ag383
aS'56121590'
p773
ag28
asg44
g708
sg46
g709
sg48
g146
sg50
g51
sg52
g236
sba(ischedule
Activity
p774
(dp775
g8
(lp776
g428
ag93
ag327
aS'39905995'
p777
aS'47982619'
p778
aS'1048485'
p779
ag506
ag334
ag109
ag185
ag89
ag203
ag427
aS'88519892'
p780
aS'88597745'
p781
ag394
ag79
aS'90296821'
p782
asg44
g144
sg46
g145
sg48
g146
sg50
S'5'
p783
sg52
g415
sba(ischedule
Activity
p784
(dp785
g8
(lp786
g247
aS'39429093'
p787
ag104
ag754
ag636
ag217
ag405
aS'62613937'
p788
ag253
ag117
ag634
ag223
asg44
S'10'
p789
sg46
S'Advanced Heuristics'
p790
sg48
g146
sg50
g51
sg52
g305
sba(ischedule
Activity
p791
(dp792
g8
(lp793
g421
ag422
ag425
ag426
ag428
ag430
ag432
ag10
ag171
ag129
ag436
ag437
ag440
ag188
ag211
ag293
ag233
ag113
ag439
asg44
g766
sg46
g445
sg48
g49
sg50
g191
sg52
g148
sba(ischedule
Activity
p794
(dp795
g8
(lp796
g37
ag157
ag165
ag167
ag170
ag169
ag161
ag155
asg44
S'15'
p797
sg46
g172
sg48
g146
sg50
g191
sg52
(iread_data
Room
p798
(dp799
g44
g194
sg46
g195
sbsbaa(lp800
(ischedule
Activity
p801
(dp802
g8
(lp803
g501
ag112
ag99
ag167
ag528
ag295
ag671
ag292
ag429
aS'41153310'
p804
ag613
ag64
ag526
ag41
ag344
aS'34900967'
p805
ag346
ag733
ag322
ag42
asg44
g144
sg46
g145
sg48
g146
sg50
g51
sg52
g283
sba(ischedule
Activity
p806
(dp807
g8
(lp808
S'51472074'
p809
aS'42297781'
p810
ag342
ag163
aS'51673172'
p811
ag659
ag201
ag135
ag456
ag211
aS'1695839'
p812
ag379
aS'5085194'
p813
ag71
ag232
ag106
asg44
S'15'
p814
sg46
S'Compilerbouw practicum'
p815
sg48
g146
sg50
g351
sg52
g148
sba(ischedule
Activity
p816
(dp817
g8
(lp818
g671
ag672
ag280
ag675
ag676
ag550
ag679
ag338
ag581
ag682
ag594
ag69
ag94
ag335
ag388
ag130
ag343
ag116
ag222
ag227
ag515
asg44
g480
sg46
g481
sg48
g146
sg50
g351
sg52
g356
sba(ischedule
Activity
p819
(dp820
g8
(lp821
g288
ag387
ag444
ag490
ag612
ag660
ag167
ag374
aS'67817269'
p822
ag127
ag329
ag661
ag91
ag202
ag457
ag662
ag434
ag334
ag529
asg44
S'25'
p823
sg46
g664
sg48
g49
sg50
g191
sg52
(iread_data
Room
p824
(dp825
g44
g238
sg46
g239
sbsba(ischedule
Activity
p826
(dp827
g8
g728
sg44
I1000
sg46
g735
sg48
g119
sg50
I0
sg52
(iread_data
Room
p828
(dp829
g44
g175
sg46
g176
sbsba(ischedule
Activity
p830
(dp831
g8
(lp832
g180
ag181
ag170
ag186
ag27
ag183
asg44
S'10'
p833
sg46
g190
sg48
g49
sg50
g191
sg52
g415
sba(ischedule
Activity
p834
(dp835
g8
(lp836
g400
ag611
ag401
ag614
ag281
ag403
ag616
ag412
ag404
ag405
ag406
ag407
ag408
ag409
ag244
ag410
ag411
ag95
ag554
ag617
asg44
S'20'
p837
sg46
g414
sg48
g146
sg50
g191
sg52
g305
sbaaa(lp838
(lp839
(ischedule
Activity
p840
(dp841
g8
g455
sg44
I1000
sg46
g472
sg48
g119
sg50
I0
sg52
g283
sba(ischedule
Activity
p842
(dp843
g8
(lp844
g671
ag672
ag280
ag675
ag676
ag550
ag679
ag581
ag682
ag69
ag335
ag388
ag130
asg44
g595
sg46
g481
sg48
g49
sg50
g351
sg52
(iread_data
Room
p845
(dp846
g44
g150
sg46
g151
sbsba(ischedule
Activity
p847
(dp848
g8
(lp849
S'14637758'
p850
ag28
aS'65318664'
p851
ag260
aS'33672995'
p852
ag281
aS'82854435'
p853
ag82
aS'97838175'
p854
ag518
ag581
ag188
ag266
ag337
ag788
ag526
ag277
ag521
aS'73350019'
p855
ag805
ag435
aS'73302736'
p856
ag499
aS'80188025'
p857
ag553
ag138
aS'58480929'
p858
ag218
ag222
ag186
ag225
ag251
ag159
ag261
ag29
ag97
aS'78822885'
p859
ag756
ag580
ag322
ag338
ag707
ag422
aS'18477924'
p860
ag332
aS'72586808'
p861
ag813
ag289
ag428
asg44
I1000
sg46
S'Analysemethoden en -technieken'
p862
sg48
g119
sg50
I0
sg52
g173
sba(ischedule
Activity
p863
(dp864
g8
(lp865
g670
ag421
ag673
ag674
ag677
ag678
ag680
ag402
ag681
ag683
ag684
ag614
ag685
ag65
ag660
ag96
ag75
ag380
asg44
g480
sg46
g481
sg48
g146
sg50
g51
sg52
(iread_data
Room
p866
(dp867
g44
g313
sg46
g314
sbsba(ischedule
Activity
p868
(dp869
g8
(lp870
g60
ag64
ag68
ag72
ag76
ag35
ag83
ag91
ag95
ag98
ag102
ag105
ag109
ag113
ag117
ag61
ag90
asg44
g716
sg46
g118
sg48
g146
sg50
g51
sg52
g356
sba(ischedule
Activity
p871
(dp872
g8
(lp873
g487
ag489
ag259
ag430
ag376
ag116
ag187
asg44
g833
sg46
g190
sg48
g49
sg50
g351
sg52
(iread_data
Room
p874
(dp875
g44
g238
sg46
g239
sbsba(ischedule
Activity
p876
(dp877
g8
(lp878
g159
ag508
ag444
ag112
ag371
aS'123355'
p879
ag779
ag676
aS'62736669'
p880
ag132
aS'25557516'
p881
ag525
ag251
ag425
asg44
g708
sg46
g709
sg48
g146
sg50
g743
sg52
(iread_data
Room
p882
(dp883
g44
g55
sg46
g56
sbsbaa(lp884
(ischedule
Activity
p885
(dp886
g8
(lp887
S'21192048'
p888
aS'93041523'
p889
ag261
ag19
ag500
aS'92496780'
p890
aS'12430748'
p891
ag96
ag37
ag169
aS'58565406'
p892
ag758
aS'14383795'
p893
ag511
aS'76487754'
p894
ag383
aS'70336464'
p895
ag390
ag222
ag71
ag17
aS'4697362'
p896
ag227
ag155
ag421
ag170
aS'77264363'
p897
ag79
ag403
ag266
ag412
ag385
ag293
ag117
ag259
ag564
ag778
ag505
asg44
I1000
sg46
S'Technology for games'
p898
sg48
g119
sg50
I0
sg52
(iread_data
Room
p899
(dp900
g44
g150
sg46
g151
sbsba(ischedule
Activity
p901
(dp902
g8
g59
sg44
I1000
sg46
g118
sg48
g119
sg50
I0
sg52
g283
sba(ischedule
Activity
p903
(dp904
g8
(lp905
g289
ag292
ag295
ag297
ag249
ag162
ag301
ag259
ag303
ag300
ag136
ag299
ag181
ag273
asg44
g355
sg46
g304
sg48
g49
sg50
g191
sg52
(iread_data
Room
p906
(dp907
g44
g194
sg46
g195
sbsba(ischedule
Activity
p908
(dp909
g8
(lp910
S'5526560'
p911
aS'86180471'
p912
ag610
ag522
ag251
ag261
ag328
ag16
ag756
ag506
aS'25994016'
p913
aS'74361881'
p914
ag467
asg44
g583
sg46
g584
sg48
g146
sg50
g191
sg52
(iread_data
Room
p915
(dp916
g44
g313
sg46
g314
sbsba(ischedule
Activity
p917
(dp918
g8
(lp919
g62
ag230
aS'12091019'
p920
ag72
ag15
ag566
ag95
ag234
ag88
ag579
ag857
aS'93361408'
p921
ag435
ag139
ag290
ag32
ag856
ag129
ag222
ag229
aS'47932106'
p922
ag537
aS'45915482'
p923
ag409
aS'53139134'
p924
ag852
aS'6709529'
p925
aS'11593163'
p926
ag660
aS'47477884'
p927
ag683
ag564
ag109
ag912
ag186
ag534
asg44
g349
sg46
g350
sg48
g49
sg50
g51
sg52
(iread_data
Room
p928
(dp929
g44
g55
sg46
g56
sbsba(ischedule
Activity
p930
(dp931
g8
(lp932
g171
ag24
ag262
ag682
ag156
aS'3678531'
p933
ag507
aS'12782624'
p934
ag271
ag300
aS'73196865'
p935
ag497
aS'27582862'
p936
ag34
ag508
ag536
ag730
aS'66433883'
p937
ag340
asg44
g144
sg46
g145
sg48
g146
sg50
g191
sg52
(iread_data
Room
p938
(dp939
g44
g175
sg46
g176
sbsba(ischedule
Activity
p940
(dp941
g8
(lp942
g184
ag488
ag188
ag185
ag288
ag490
ag491
ag220
ag182
asg44
g833
sg46
g190
sg48
g49
sg50
g51
sg52
(iread_data
Room
p943
(dp944
g44
g238
sg46
g239
sbsbaa(lp945
(ischedule
Activity
p946
(dp947
g8
(lp948
g255
ag24
aS'64947290'
p949
ag521
ag553
ag813
ag612
ag478
aS'15187217'
p950
ag64
aS'40141996'
p951
ag322
ag180
ag27
ag82
ag566
ag560
ag880
ag229
ag421
aS'25077484'
p952
ag75
ag912
ag85
aS'59397895'
p953
ag279
ag97
aS'58083680'
p954
ag412
ag373
ag212
ag69
ag219
ag372
ag772
ag134
ag288
ag920
ag70
ag434
aS'4529208'
p955
aS'54540997'
p956
ag86
ag223
ag759
ag922
ag71
aS'27123462'
p957
ag470
ag773
aS'91527663'
p958
aS'26207525'
p959
ag671
ag156
ag557
ag133
ag660
ag262
ag116
ag15
ag400
ag911
aS'13132925'
p960
ag488
ag707
ag74
ag325
ag581
ag321
ag233
ag927
ag89
asg44
I1000
sg46
S'Databases 2'
p961
sg48
g119
sg50
I0
sg52
(iread_data
Room
p962
(dp963
g44
g122
sg46
g123
sbsba(ischedule
Activity
p964
(dp965
g8
(lp966
S'55480737'
p967
ag811
ag677
ag14
aS'75680261'
p968
aS'58253841'
p969
aS'41644639'
p970
aS'40633534'
p971
ag114
ag952
ag183
asg44
g583
sg46
g584
sg48
g146
sg50
g351
sg52
g173
sba(ischedule
Activity
p972
(dp973
g8
g154
sg44
I1000
sg46
g172
sg48
g119
sg50
I0
sg52
(iread_data
Room
p974
(dp975
g44
g194
sg46
g195
sbsba(ischedule
Activity
p976
(dp977
g8
(lp978
g245
ag252
ag226
ag256
ag259
ag262
ag264
ag268
ag188
ag273
ag277
ag279
ag227
ag258
asg44
g627
sg46
g282
sg48
g49
sg50
g351
sg52
g415
sba(ischedule
Activity
p979
(dp980
g8
(lp981
S'59887191'
p982
ag110
ag80
ag253
ag426
ag861
ag301
ag86
ag342
aS'70939718'
p983
aS'64246605'
p984
ag244
ag327
aS'5590289'
p985
ag39
aS'82872148'
p986
ag200
ag216
ag959
asg44
g708
sg46
g709
sg48
g146
sg50
g191
sg52
(iread_data
Room
p987
(dp988
g44
g238
sg46
g239
sbsba(ischedule
Activity
p989
(dp990
g8
(lp991
g281
ag469
ag752
ag753
ag328
ag297
ag214
ag756
ag579
ag270
ag402
ag128
ag759
ag754
ag751
asg44
S'20'
p992
sg46
g760
sg48
g49
sg50
g191
sg52
(iread_data
Room
p993
(dp994
g44
g55
sg46
g56
sbsbaa(lp995
(ischedule
Activity
p996
(dp997
g8
g887
sg44
I1000
sg46
g898
sg48
g119
sg50
I0
sg52
(iread_data
Room
p998
(dp999
g44
g122
sg46
g123
sbsba(ischedule
Activity
p1000
(dp1001
g8
(lp1002
g292
ag297
ag249
ag301
ag259
ag288
ag136
ag298
asg44
g361
sg46
g304
sg48
g146
sg50
g191
sg52
g415
sba(ischedule
Activity
p1003
(dp1004
g8
(lp1005
g465
aS'37419523'
p1006
ag770
ag201
ag256
ag330
aS'63939720'
p1007
aS'32183908'
p1008
ag374
ag300
ag25
ag258
ag423
ag321
ag19
ag297
asg44
g694
sg46
g695
sg48
g146
sg50
g191
sg52
(iread_data
Room
p1009
(dp1010
g44
g238
sg46
g239
sbsba(ischedule
Activity
p1011
(dp1012
g8
(lp1013
g215
ag103
ag371
ag78
ag141
ag372
ag373
ag374
ag112
ag375
ag376
ag377
ag379
ag380
ag340
ag381
ag382
ag383
ag384
ag385
ag89
ag386
ag335
ag387
ag388
ag389
ag390
ag391
ag392
ag180
ag394
ag208
ag270
ag393
ag378
asg44
g45
sg46
g47
sg48
g49
sg50
g191
sg52
g173
sba(ischedule
Activity
p1014
(dp1015
g8
(lp1016
g255
ag949
ag553
ag612
ag950
ag951
ag82
ag560
ag229
ag952
ag912
ag953
ag97
ag412
ag212
ag219
ag772
ag955
ag86
ag759
ag71
ag470
ag958
ag671
ag557
ag660
ag116
ag400
ag960
ag707
ag325
ag321
ag927
ag133
ag954
ag434
asg44
S'40'
p1017
sg46
g961
sg48
g49
sg50
g51
sg52
g305
sba(ischedule
Activity
p1018
(dp1019
g8
(lp1020
g215
ag610
ag612
ag374
ag613
ag104
ag615
ag439
ag618
ag567
ag619
ag620
ag210
ag516
ag466
ag621
ag100
ag74
ag402
asg44
g837
sg46
g414
sg48
g146
sg50
g51
sg52
(iread_data
Room
p1021
(dp1022
g44
g150
sg46
g151
sbsbaa(lp1023
(ischedule
Activity
p1024
(dp1025
g8
(lp1026
g62
aS'75623387'
p1027
ag319
ag230
aS'19717077'
p1028
ag320
ag920
ag534
ag186
ag72
ag933
ag321
ag15
ag536
ag110
ag566
ag515
ag322
ag95
aS'34173695'
p1029
ag323
ag969
ag14
ag324
ag347
ag516
ag325
ag234
aS'62105897'
p1030
ag161
ag88
ag983
ag326
ag579
aS'77306636'
p1031
ag327
ag857
aS'56348773'
p1032
ag328
ag921
ag463
ag329
ag435
ag531
ag490
ag139
aS'31306819'
p1033
ag330
ag290
ag127
ag331
ag32
ag40
ag332
ag856
aS'79888156'
p1034
ag333
ag129
ag228
ag334
ag222
ag951
ag335
ag229
ag578
ag336
ag922
aS'55530367'
p1035
ag224
ag537
ag401
ag337
ag923
aS'65408517'
p1036
ag134
ag409
ag203
ag338
ag924
ag128
ag339
ag852
ag672
ag340
ag925
ag682
ag341
ag926
ag41
ag107
ag660
ag348
ag342
ag927
ag378
ag343
ag683
aS'82412626'
p1037
ag344
ag564
aS'59220392'
p1038
ag345
ag109
ag243
ag346
ag912
asg44
I1000
sg46
g350
sg48
g119
sg50
I0
sg52
g283
sba(ischedule
Activity
p1039
(dp1040
g8
(lp1041
g86
ag469
ag535
ag507
ag705
ag949
ag675
ag101
ag731
ag24
ag522
ag468
ag62
aS'51509565'
p1042
ag247
aS'21095566'
p1043
aS'19540225'
p1044
ag567
ag958
ag250
ag937
ag659
ag106
ag17
asg44
g823
sg46
g664
sg48
g49
sg50
g51
sg52
g236
sba(ischedule
Activity
p1045
(dp1046
g8
(lp1047
g293
ag296
ag157
ag91
ag302
ag290
asg44
g355
sg46
g304
sg48
g49
sg50
g351
sg52
g356
sba(ischedule
Activity
p1048
(dp1049
g8
(lp1050
g215
ag610
ag612
ag374
ag613
ag104
ag615
ag439
ag617
ag618
ag567
ag619
ag95
ag620
ag210
ag516
ag554
ag466
ag621
ag100
ag611
ag616
ag281
ag74
ag614
asg44
g413
sg46
g414
sg48
g49
sg50
g51
sg52
(iread_data
Room
p1051
(dp1052
g44
g55
sg46
g56
sbsba(ischedule
Activity
p1053
(dp1054
g8
(lp1055
g889
ag890
ag96
ag169
ag758
ag511
ag383
ag390
ag71
ag896
ag155
ag170
ag79
ag266
ag385
ag117
ag564
ag505
ag227
ag421
ag259
asg44
S'20'
p1056
sg46
g898
sg48
g49
sg50
g191
sg52
(iread_data
Room
p1057
(dp1058
g44
g175
sg46
g176
sbsba(ischedule
Activity
p1059
(dp1060
g8
(lp1061
g158
ag96
ag162
ag164
ag166
ag168
ag171
ag159
ag163
ag63
ag156
ag160
ag133
asg44
g797
sg46
g172
sg48
g146
sg50
g51
sg52
(iread_data
Room
p1062
(dp1063
g44
g150
sg46
g151
sbsbaaa(lp1064
(lp1065
(ischedule
Activity
p1066
(dp1067
g8
g545
sg44
I1000
sg46
g568
sg48
g119
sg50
I0
sg52
g236
sba(ischedule
Activity
p1068
(dp1069
g8
(lp1070
g24
ag521
ag813
ag478
ag64
ag322
ag27
ag566
ag880
ag421
ag75
ag85
ag279
ag373
ag69
ag372
ag134
ag920
ag956
ag223
ag922
ag957
ag773
ag959
ag156
ag262
ag15
ag911
ag488
ag74
ag581
ag233
ag89
ag70
ag180
ag288
asg44
g1017
sg46
g961
sg48
g49
sg50
g191
sg52
(iread_data
Room
p1071
(dp1072
g44
g150
sg46
g151
sbsba(ischedule
Activity
p1073
(dp1074
g8
g199
sg44
I1000
sg46
g235
sg48
g119
sg50
I0
sg52
g305
sba(ischedule
Activity
p1075
(dp1076
g8
(lp1077
g927
ag971
ag117
ag409
ag247
ag338
ag787
ag634
ag104
ag253
ag754
ag33
ag636
ag788
ag129
ag255
ag217
ag342
ag405
ag223
asg44
I1000
sg46
g790
sg48
g119
sg50
I0
sg52
(iread_data
Room
p1078
(dp1079
g44
g194
sg46
g195
sbsba(ischedule
Activity
p1080
(dp1081
g8
(lp1082
g434
ag288
ag86
ag387
ag469
ag444
ag535
ag490
ag507
ag612
ag705
ag659
ag949
ag660
ag675
ag167
ag101
ag374
ag731
ag822
ag24
ag127
ag522
ag329
ag468
ag334
ag62
ag529
ag1042
ag106
ag247
ag17
ag1043
ag661
ag1044
ag91
ag567
ag202
ag958
ag457
ag250
ag662
ag937
asg44
I1000
sg46
g664
sg48
g119
sg50
I0
sg52
(iread_data
Room
p1083
(dp1084
g44
g122
sg46
g123
sbsbaa(lp1085
(ischedule
Activity
p1086
(dp1087
g8
(lp1088
g200
ag202
ag206
ag208
ag210
ag212
ag214
ag217
ag181
ag222
ag80
ag226
ag232
ag220
ag218
ag139
asg44
g574
sg46
g235
sg48
g49
sg50
g51
sg52
g415
sba(ischedule
Activity
p1089
(dp1090
g8
(lp1091
g10
ag11
ag12
ag13
ag14
ag15
ag16
ag17
ag18
ag19
ag20
ag21
ag378
ag22
ag23
ag24
ag25
ag26
ag27
ag28
ag29
ag270
ag30
ag31
ag32
ag33
ag34
ag36
ag37
ag38
ag39
ag40
ag41
asg44
S'40'
p1092
sg46
g47
sg48
g146
sg50
g51
sg52
g283
sba(ischedule
Activity
p1093
(dp1094
g8
(lp1095
g705
aS'31103066'
p1096
aS'44671041'
p1097
ag210
ag201
ag535
ag856
ag497
ag529
ag114
ag207
ag264
ag232
ag103
ag637
aS'3727435'
p1098
ag329
ag616
ag677
ag60
aS'37830626'
p1099
ag347
ag140
ag683
ag402
ag64
ag293
ag106
ag376
ag390
ag234
ag435
ag892
ag675
aS'14072826'
p1100
ag392
ag277
asg44
S'40'
p1101
sg46
S'Software engineering'
p1102
sg48
g49
sg50
g51
sg52
g305
sba(ischedule
Activity
p1103
(dp1104
g8
(lp1105
g37
ag157
ag159
ag63
ag163
ag165
ag167
ag170
ag156
ag171
ag155
asg44
g652
sg46
g172
sg48
g49
sg50
g191
sg52
(iread_data
Room
p1106
(dp1107
g44
g150
sg46
g151
sbsba(ischedule
Activity
p1108
(dp1109
g8
(lp1110
g971
ag409
ag338
ag33
ag255
ag129
ag927
ag342
asg44
g789
sg46
g790
sg48
g146
sg50
g191
sg52
g356
sba(ischedule
Activity
p1111
(dp1112
g8
(lp1113
g203
ag134
ag41
ag215
ag220
ag223
ag224
ag227
ag230
ag233
ag234
asg44
g590
sg46
g235
sg48
g146
sg50
g191
sg52
g173
sba(ischedule
Activity
p1114
(dp1115
g8
(lp1116
g62
ag66
ag70
ag74
ag78
ag81
ag85
ag89
ag93
ag100
ag104
ag107
ag111
ag115
ag67
ag98
ag35
ag64
asg44
g310
sg46
g118
sg48
g49
sg50
g351
sg52
(iread_data
Room
p1117
(dp1118
g44
g238
sg46
g239
sbsbaa(lp1119
(ischedule
Activity
p1120
(dp1121
g8
g486
sg44
I1000
sg46
g190
sg48
g119
sg50
I0
sg52
g356
sba(ischedule
Activity
p1122
(dp1123
g8
(lp1124
g85
ag78
ag91
ag207
ag209
ag211
ag213
ag216
ag219
ag221
ag16
ag225
ag228
ag231
ag157
ag210
asg44
g590
sg46
g235
sg48
g146
sg50
g351
sg52
(iread_data
Room
p1125
(dp1126
g44
g55
sg46
g56
sbsba(ischedule
Activity
p1127
(dp1128
g8
(lp1129
g434
ag86
ag469
ag507
ag705
ag949
ag675
ag101
ag731
ag522
ag468
ag1042
ag247
ag1043
ag1044
ag958
ag250
ag937
ag444
ag24
ag822
ag567
asg44
g663
sg46
g664
sg48
g146
sg50
g51
sg52
g236
sba(ischedule
Activity
p1130
(dp1131
g8
(lp1132
g705
ag289
ag1096
ag523
ag1097
ag188
ag561
ag102
ag210
ag77
ag201
ag506
ag535
ag211
ag856
aS'58074656'
p1133
ag497
ag183
ag529
ag923
ag114
ag1043
ag207
ag107
ag264
ag437
ag232
ag220
ag103
ag502
ag637
ag851
ag1098
ag779
ag329
ag392
ag616
ag1036
ag677
ag496
ag60
ag277
ag1099
ag489
ag347
ag142
ag140
ag30
ag683
ag250
ag402
ag11
ag64
ag551
ag293
ag804
ag106
ag986
ag376
ag511
ag390
ag488
ag234
aS'9287708'
p1134
ag435
ag936
ag499
ag614
ag892
ag1030
ag675
ag209
ag731
ag208
ag1100
asg44
I1000
sg46
g1102
sg48
g119
sg50
I0
sg52
(iread_data
Room
p1135
(dp1136
g44
g122
sg46
g123
sbsba(ischedule
Activity
p1137
(dp1138
g8
(lp1139
g319
ag461
ag560
ag80
ag496
ag129
ag391
ag371
ag489
ag218
ag15
ag891
ag636
ag204
aS'40911986'
p1140
asg44
g694
sg46
g695
sg48
g146
sg50
g351
sg52
(iread_data
Room
p1141
(dp1142
g44
g313
sg46
g314
sbsba(ischedule
Activity
p1143
(dp1144
g8
(lp1145
g420
ag914
ag169
ag702
aS'55103073'
p1146
aS'44151631'
p1147
ag128
aS'5892092'
p1148
ag508
ag432
ag893
ag137
ag582
asg44
g814
sg46
g815
sg48
g146
sg50
g191
sg52
(iread_data
Room
p1149
(dp1150
g44
g150
sg46
g151
sbsbaa(lp1151
(ischedule
Activity
p1152
(dp1153
g8
(lp1154
g888
ag261
ag500
ag891
ag37
ag892
ag893
ag894
ag895
ag222
ag17
ag897
ag403
ag412
ag293
ag778
ag19
asg44
g1056
sg46
g898
sg48
g49
sg50
g51
sg52
g415
sba(ischedule
Activity
p1155
(dp1156
g8
(lp1157
g276
ag444
ag461
ag949
ag381
ag87
ag27
aS'64053722'
p1158
ag91
ag32
ag39
ag706
aS'54395877'
p1159
ag527
aS'73893840'
p1160
ag408
ag62
aS'88263855'
p1161
aS'10702778'
p1162
asg44
g144
sg46
g145
sg48
g146
sg50
g743
sg52
g236
sba(ischedule
Activity
p1163
(dp1164
g8
(lp1165
g289
ag523
ag188
ag102
ag77
ag506
ag211
ag1133
ag183
ag923
ag1043
ag107
ag437
ag220
ag502
ag851
ag779
ag1036
ag496
ag489
ag142
ag30
ag250
ag11
ag551
ag804
ag986
ag511
ag488
ag1134
ag936
ag614
ag1030
ag209
ag208
ag731
ag499
ag561
asg44
g1101
sg46
g1102
sg48
g49
sg50
g191
sg52
g173
sba(ischedule
Activity
p1166
(dp1167
g8
(lp1168
g750
ag404
ag233
ag245
ag460
ag619
aS'28943658'
p1169
ag553
ag63
aS'7386961'
p1170
ag389
ag226
ag1030
ag927
ag1097
ag557
asg44
g144
sg46
g145
sg48
g146
sg50
g351
sg52
(iread_data
Room
p1171
(dp1172
g44
g150
sg46
g151
sbsba(ischedule
Activity
p1173
(dp1174
g8
(lp1175
g705
ag1096
ag1097
ag561
ag210
ag201
ag535
ag497
ag529
ag114
ag207
ag264
ag232
ag103
ag637
ag1098
ag329
ag616
ag677
ag60
ag1099
ag347
ag140
ag683
ag402
ag64
ag293
ag106
ag376
ag390
ag234
ag435
ag499
ag892
ag675
ag731
ag1100
asg44
S'40'
p1176
sg46
g1102
sg48
g146
sg50
g51
sg52
g305
sba(ischedule
Activity
p1177
(dp1178
g8
g632
sg44
I1000
sg46
g638
sg48
g119
sg50
I0
sg52
g356
sba(ischedule
Activity
p1179
(dp1180
g8
(lp1181
g401
ag250
ag81
ag970
aS'47260040'
p1182
ag101
ag380
ag127
aS'64418623'
p1183
ag913
aS'91250534'
p1184
asg44
g814
sg46
g815
sg48
g146
sg50
g51
sg52
(iread_data
Room
p1185
(dp1186
g44
g122
sg46
g123
sbsbaa(lp1187
(ischedule
Activity
p1188
(dp1189
g8
(lp1190
g215
ag103
ag371
ag78
ag141
ag372
ag373
ag374
ag112
ag375
ag376
ag377
ag379
ag380
ag340
ag381
ag382
ag383
ag384
ag385
ag89
ag386
ag42
ag335
ag387
ag388
ag389
ag43
ag390
ag391
ag392
ag180
ag394
ag208
ag35
ag393
asg44
g1092
sg46
g47
sg48
g146
sg50
g191
sg52
(iread_data
Room
p1191
(dp1192
g44
g175
sg46
g176
sbsba(ischedule
Activity
p1193
(dp1194
g8
(lp1195
g1027
ag1028
ag933
ag536
ag515
ag1029
ag14
ag516
ag1030
ag983
ag1031
ag1032
ag463
ag531
ag1033
ag127
ag40
ag1034
ag228
ag951
ag578
ag1035
ag401
ag1036
ag203
ag128
ag672
ag682
ag41
ag378
ag1037
ag1038
ag243
ag969
ag490
asg44
g349
sg46
g350
sg48
g49
sg50
g191
sg52
g148
sba(ischedule
Activity
p1196
(dp1197
g8
(lp1198
g289
ag523
ag188
ag102
ag77
ag506
ag211
ag1133
ag183
ag923
ag1043
ag107
ag437
ag220
ag502
ag851
ag779
ag392
ag1036
ag496
ag277
ag489
ag142
ag30
ag250
ag11
ag551
ag804
ag986
ag511
ag488
ag1134
ag936
ag614
ag1030
ag209
ag208
ag856
asg44
g1176
sg46
g1102
sg48
g146
sg50
g191
sg52
(iread_data
Room
p1199
(dp1200
g44
g238
sg46
g239
sbsba(ischedule
Activity
p1201
(dp1202
g8
(lp1203
g244
ag247
ag249
ag251
ag253
ag255
ag261
ag265
ag139
ag270
ag272
ag274
ag278
ag281
ag263
ag168
ag221
ag248
asg44
g627
sg46
g282
sg48
g49
sg50
g191
sg52
g283
sba(ischedule
Activity
p1204
(dp1205
g8
(lp1206
g670
ag421
ag673
ag674
ag222
ag677
ag678
ag680
ag402
ag681
ag683
ag684
ag614
ag685
ag65
ag660
ag96
ag75
ag166
ag343
ag231
asg44
g595
sg46
g481
sg48
g49
sg50
g51
sg52
(iread_data
Room
p1207
(dp1208
g44
g55
sg46
g56
sbsba(ischedule
Activity
p1209
(dp1210
g8
(lp1211
g557
ag750
ag268
ag431
ag100
ag288
ag82
ag757
ag758
ag186
ag731
ag346
ag755
ag88
ag204
ag438
ag730
asg44
g992
sg46
g760
sg48
g49
sg50
g51
sg52
(iread_data
Room
p1212
(dp1213
g44
g194
sg46
g195
sbsba(ischedule
Activity
p1214
(dp1215
g8
(lp1216
g63
ag67
ag71
ag75
ag79
ag82
ag86
ag94
ag18
ag101
ag12
ag108
ag112
ag116
ag66
asg44
g716
sg46
g118
sg48
g146
sg50
g743
sg52
(iread_data
Room
p1217
(dp1218
g44
g313
sg46
g314
sbsbaaa(lp1219
(lp1220
a(lp1221
a(lp1222
a(lp1223
a(lp1224
aasS'timeslot_dict'
p1225
(dp1226
I0
S'9:00-11:00'
p1227
sI1
S'11:00-13:00'
p1228
sI2
S'13:00-15:00'
p1229
sI3
S'15:00-17:00'
p1230
sI4
S'17:00-19:00'
p1231
ssS'day_dict'
p1232
(dp1233
I0
S'Monday'
p1234
sI1
S'Tuesday'
p1235
sI2
S'Wednesday'
p1236
sI3
S'Thursday'
p1237
sI4
S'Friday'
p1238
ssb.