(ischedule
Schedule
p0
(dp1
S'timetable'
p2
(lp3
(lp4
(lp5
(ischedule
Activity
p6
(dp7
S'participants'
p8
(lp9
S'61611295'
p10
aS'62872965'
p11
aS'19858730'
p12
aS'22871048'
p13
aS'34806836'
p14
aS'44901052'
p15
aS'72796858'
p16
aS'36508571'
p17
aS'37110913'
p18
aS'54026378'
p19
aS'74131924'
p20
aS'52552718'
p21
aS'16097870'
p22
aS'68409833'
p23
aS'62356458'
p24
aS'11915563'
p25
aS'27298319'
p26
aS'51566595'
p27
aS'39459642'
p28
aS'70113753'
p29
aS'88627897'
p30
aS'5517869'
p31
asS'capacity'
p32
I1000
sS'name'
p33
S'Autonomous Agents 2'
p34
sS'ttype'
p35
S'lectures'
p36
sS'group_id'
p37
I0
sS'room'
p38
(iread_data
Room
p39
(dp40
g32
S'20'
p41
sg33
S'A1.08'
p42
sbsba(ischedule
Activity
p43
(dp44
g8
(lp45
S'27950803'
p46
aS'78443067'
p47
aS'14671406'
p48
aS'41527759'
p49
aS'89180944'
p50
aS'70015932'
p51
aS'22323043'
p52
aS'84110134'
p53
aS'99283252'
p54
ag24
aS'83210352'
p55
ag13
aS'27582862'
p56
aS'89338938'
p57
aS'52715680'
p58
aS'73302736'
p59
aS'41153310'
p60
aS'51593625'
p61
aS'88176729'
p62
aS'1048485'
p63
aS'58565406'
p64
aS'21095566'
p65
aS'60312776'
p66
aS'37744525'
p67
aS'80709893'
p68
aS'29640619'
p69
aS'45915482'
p70
aS'65408517'
p71
aS'52311353'
p72
aS'78243495'
p73
aS'62105897'
p74
aS'14072826'
p75
aS'25106480'
p76
aS'89985072'
p77
aS'4546613'
p78
aS'42115591'
p79
aS'59544049'
p80
asg32
S'40'
p81
sg33
S'Software engineering'
p82
sg35
S'labs'
p83
sg37
S'1'
p84
sg38
(iread_data
Room
p85
(dp86
g32
S'48'
p87
sg33
S'B0.201'
p88
sbsba(ischedule
Activity
p89
(dp90
g8
(lp91
S'22288615'
p92
aS'76903244'
p93
aS'94930277'
p94
aS'27064249'
p95
aS'14847953'
p96
aS'20618153'
p97
aS'64228258'
p98
aS'24891081'
p99
aS'57086672'
p100
aS'28358060'
p101
aS'3474870'
p102
aS'53512831'
p103
aS'5615125'
p104
aS'67073567'
p105
aS'76648468'
p106
aS'72577292'
p107
aS'61443567'
p108
ag50
ag73
aS'53202517'
p109
aS'69459473'
p110
aS'33877725'
p111
aS'49908313'
p112
aS'72895450'
p113
aS'14303208'
p114
aS'10698627'
p115
aS'2416751'
p116
aS'6249823'
p117
aS'40434933'
p118
aS'43902015'
p119
aS'1137946'
p120
aS'16333449'
p121
aS'66034145'
p122
aS'77392404'
p123
aS'39230359'
p124
aS'41790793'
p125
aS'17092717'
p126
aS'43460038'
p127
aS'76123484'
p128
asg32
I1000
sg33
S'Webprogrammeren en databases'
p129
sg35
g36
sg37
I0
sg38
(iread_data
Room
p130
(dp131
g32
S'41'
p132
sg33
S'A1.04'
p133
sbsba(ischedule
Activity
p134
(dp135
g8
(lp136
S'13116738'
p137
ag18
aS'19337738'
p138
aS'68360259'
p139
aS'81200278'
p140
ag20
ag72
aS'45414528'
p141
ag52
ag67
aS'99453514'
p142
asg32
S'10'
p143
sg33
S'Data Mining'
p144
sg35
g83
sg37
S'2'
p145
sg38
(iread_data
Room
p146
(dp147
g32
S'22'
p148
sg33
S'A1.06'
p149
sbsba(ischedule
Activity
p150
(dp151
g8
(lp152
S'12077419'
p153
aS'75664412'
p154
aS'24613625'
p155
aS'14309255'
p156
aS'83266686'
p157
aS'3407554'
p158
aS'92665222'
p159
aS'46989508'
p160
aS'68315599'
p161
aS'94687383'
p162
aS'27187154'
p163
aS'2079771'
p164
aS'2317551'
p165
ag16
aS'34872117'
p166
aS'54772132'
p167
aS'13911001'
p168
aS'5368702'
p169
aS'34243356'
p170
aS'86291592'
p171
aS'49683101'
p172
aS'73236988'
p173
aS'77896638'
p174
aS'13284244'
p175
aS'66701209'
p176
aS'65852230'
p177
aS'48503689'
p178
ag46
aS'44391517'
p179
aS'79167252'
p180
aS'40791377'
p181
aS'95007221'
p182
aS'75599734'
p183
aS'76802764'
p184
aS'10792879'
p185
ag25
aS'30658799'
p186
aS'34110913'
p187
ag28
aS'9067939'
p188
aS'88752563'
p189
aS'37770881'
p190
aS'76661016'
p191
aS'80135353'
p192
aS'84524083'
p193
aS'95631564'
p194
ag109
aS'31194811'
p195
aS'86988337'
p196
aS'8464817'
p197
ag113
ag66
aS'88855695'
p198
aS'15911353'
p199
aS'79033175'
p200
aS'6723948'
p201
aS'88636924'
p202
aS'98105190'
p203
aS'5595824'
p204
aS'65960683'
p205
aS'1766560'
p206
aS'42778953'
p207
aS'48308205'
p208
aS'43689934'
p209
aS'11741347'
p210
aS'58522654'
p211
aS'7957843'
p212
aS'75759231'
p213
aS'81385263'
p214
asg32
I1000
sg33
S'Compilerbouw'
p215
sg35
g36
sg37
I0
sg38
(iread_data
Room
p216
(dp217
g32
S'117'
p218
sg33
S'C0.110'
p219
sbsba(ischedule
Activity
p220
(dp221
g8
(lp222
S'3168419'
p223
aS'247918'
p224
aS'66120270'
p225
aS'85335143'
p226
ag155
aS'56749879'
p227
ag80
aS'21964491'
p228
ag211
aS'64600457'
p229
aS'33930505'
p230
ag77
aS'22731474'
p231
ag19
aS'44868097'
p232
aS'79617364'
p233
aS'14591033'
p234
aS'11068043'
p235
aS'77831658'
p236
aS'6913074'
p237
ag62
aS'42196732'
p238
aS'14816774'
p239
aS'56815156'
p240
ag140
aS'22826928'
p241
aS'7308727'
p242
ag173
aS'30195935'
p243
aS'96054456'
p244
aS'15051051'
p245
aS'70878567'
p246
aS'28359697'
p247
ag201
aS'30050930'
p248
ag109
aS'96453361'
p249
aS'5298748'
p250
aS'4568018'
p251
ag111
aS'29526540'
p252
aS'21029457'
p253
aS'20883994'
p254
ag20
aS'43680781'
p255
asg32
I1000
sg33
S'Bioinformatica'
p256
sg35
g36
sg37
I0
sg38
(iread_data
Room
p257
(dp258
g32
S'56'
p259
sg33
S'A1.10'
p260
sbsbaa(lp261
(ischedule
Activity
p262
(dp263
g8
(lp264
g228
aS'23547619'
p265
ag171
aS'96104167'
p266
ag207
aS'34773179'
p267
ag238
ag242
ag174
aS'62701040'
p268
aS'43027916'
p269
aS'86000192'
p270
aS'4783858'
p271
aS'35330349'
p272
aS'26406342'
p273
ag76
ag211
aS'1665980'
p274
asg32
S'20'
p275
sg33
S'Collectieve Intelligentie'
p276
sg35
S'tutorials'
p277
sg37
S'3'
p278
sg38
(iread_data
Room
p279
(dp280
g32
g41
sg33
g42
sbsba(ischedule
Activity
p281
(dp282
g8
(lp283
g169
aS'69634191'
p284
ag78
aS'44828429'
p285
aS'93566383'
p286
aS'19214659'
p287
ag191
ag265
aS'37701751'
p288
aS'64768422'
p289
ag96
aS'76924297'
p290
aS'37399898'
p291
aS'2550487'
p292
aS'21677389'
p293
ag214
ag122
aS'34765676'
p294
ag140
aS'65675896'
p295
aS'81155296'
p296
aS'20374340'
p297
aS'3707829'
p298
aS'28055464'
p299
aS'38179241'
p300
asg32
I1000
sg33
S'Interactie-ontwerp'
p301
sg35
g36
sg37
I0
sg38
(iread_data
Room
p302
(dp303
g32
S'60'
p304
sg33
S'C1.112'
p305
sbsba(ischedule
Activity
p306
(dp307
g8
(lp308
S'94686490'
p309
ag128
aS'56191333'
p310
ag69
ag227
aS'4921119'
p311
aS'86180471'
p312
aS'82689818'
p313
ag189
ag239
ag288
aS'70072978'
p314
aS'56872729'
p315
aS'58083680'
p316
ag119
aS'73823548'
p317
aS'5085194'
p318
aS'90474003'
p319
aS'51542218'
p320
aS'56121590'
p321
ag269
aS'17222374'
p322
aS'15187217'
p323
aS'62736669'
p324
ag126
aS'49631542'
p325
ag224
ag244
ag238
ag21
aS'91527663'
p326
aS'23658570'
p327
aS'64947290'
p328
ag223
ag196
aS'25077484'
p329
aS'670011'
p330
aS'11996292'
p331
aS'54540997'
p332
ag118
asg32
S'40'
p333
sg33
S'Databases 2'
p334
sg35
g277
sg37
g145
sg38
(iread_data
Room
p335
(dp336
g32
g87
sg33
g88
sbsba(ischedule
Activity
p337
(dp338
g8
(lp339
g97
ag92
aS'9731271'
p340
ag291
aS'68601184'
p341
aS'13996448'
p342
aS'36903574'
p343
ag115
ag67
ag268
ag116
ag167
aS'4709948'
p344
ag171
aS'90296821'
p345
aS'58332004'
p346
aS'20830477'
p347
asg32
S'20'
p348
sg33
S'Programmeren in Java 2'
p349
sg35
g83
sg37
g145
sg38
(iread_data
Room
p350
(dp351
g32
g132
sg33
g133
sbsba(ischedule
Activity
p352
(dp353
g8
(lp354
S'64393888'
p355
aS'42171678'
p356
aS'97135019'
p357
aS'31416266'
p358
aS'50184318'
p359
ag66
aS'17575088'
p360
ag205
asg32
g275
sg33
g276
sg35
g277
sg37
g84
sg38
(iread_data
Room
p361
(dp362
g32
g259
sg33
g260
sbsba(ischedule
Activity
p363
(dp364
g8
(lp365
g223
ag226
ag229
ag236
ag238
ag245
ag201
ag249
ag111
ag246
ag242
ag237
ag239
ag251
ag224
asg32
S'20'
p366
sg33
g256
sg35
g277
sg37
g84
sg38
(iread_data
Room
p367
(dp368
g32
g218
sg33
g219
sbsba(ischedule
Activity
p369
(dp370
g8
g9
sg32
I1000
sg33
g34
sg35
g36
sg37
I0
sg38
(iread_data
Room
p371
(dp372
g32
g148
sg33
g149
sbsbaa(lp373
(ischedule
Activity
p374
(dp375
g8
(lp376
S'45556081'
p377
aS'72683344'
p378
ag107
ag166
ag51
aS'59289233'
p379
aS'14138904'
p380
ag172
ag157
aS'29718115'
p381
ag50
aS'28618400'
p382
aS'23798155'
p383
ag118
aS'10149535'
p384
aS'13798030'
p385
aS'20331158'
p386
aS'58866007'
p387
ag127
aS'27925117'
p388
ag313
asg32
I1000
sg33
S'Architectuur en computerorganisatie'
p389
sg35
g36
sg37
I0
sg38
(iread_data
Room
p390
(dp391
g32
g148
sg33
g149
sbsba(ischedule
Activity
p392
(dp393
g8
(lp394
S'58592894'
p395
aS'66433883'
p396
aS'51509565'
p397
ag58
ag228
aS'15902055'
p398
aS'67817269'
p399
ag274
ag298
ag113
ag26
aS'46701583'
p400
ag294
ag326
aS'77376714'
p401
aS'26260141'
p402
ag27
ag249
ag285
aS'23652927'
p403
asg32
S'25'
p404
sg33
S'Algoritmen en complexiteit'
p405
sg35
g277
sg37
g145
sg38
(iread_data
Room
p406
(dp407
g32
g218
sg33
g219
sbsba(ischedule
Activity
p408
(dp409
g8
(lp410
g228
ag137
ag141
aS'25330192'
p411
ag18
ag72
aS'59753700'
p412
aS'87314964'
p413
ag52
aS'87900893'
p414
ag138
aS'81022997'
p415
aS'93023961'
p416
aS'97136582'
p417
ag342
aS'50143947'
p418
ag139
aS'98780382'
p419
aS'17823206'
p420
aS'91196968'
p421
ag142
ag67
ag140
ag246
aS'66122625'
p422
ag20
ag27
asg32
I1000
sg33
g144
sg35
g36
sg37
I0
sg38
(iread_data
Room
p423
(dp424
g32
g304
sg33
g305
sbsba(ischedule
Activity
p425
(dp426
g8
(lp427
g18
ag118
aS'77636749'
p428
ag226
ag161
aS'9332762'
p429
aS'77264363'
p430
ag117
ag265
aS'21192048'
p431
aS'12430748'
p432
ag331
ag52
ag195
aS'14383795'
p433
ag384
aS'47982619'
p434
aS'41578612'
p435
ag208
ag57
aS'36785409'
p436
aS'70336464'
p437
aS'93041523'
p438
asg32
S'20'
p439
sg33
S'Technology for games'
p440
sg35
g277
sg37
g84
sg38
(iread_data
Room
p441
(dp442
g32
g41
sg33
g42
sbsba(ischedule
Activity
p443
(dp444
g8
(lp445
g228
ag265
ag171
ag266
ag207
ag267
ag238
ag242
ag174
aS'13092455'
p446
ag269
ag270
ag271
ag358
aS'13534377'
p447
ag355
ag359
aS'51741554'
p448
aS'73980360'
p449
ag273
asg32
S'20'
p450
sg33
g276
sg35
g83
sg37
g278
sg38
(iread_data
Room
p451
(dp452
g32
g259
sg33
g260
sbsba(ischedule
Activity
p453
(dp454
g8
(lp455
g291
ag58
aS'92778619'
p456
aS'32044893'
p457
aS'27805666'
p458
ag46
aS'60352393'
p459
ag142
aS'51052738'
p460
ag193
ag344
aS'42406214'
p461
ag123
aS'70193386'
p462
ag237
aS'70844780'
p463
ag250
aS'60661905'
p464
ag100
ag196
aS'49922855'
p465
aS'3685034'
p466
asg32
S'20'
p467
sg33
S'Reflectie op de digitale cultuur'
p468
sg35
g277
sg37
g278
sg38
(iread_data
Room
p469
(dp470
g32
g132
sg33
g133
sbsba(ischedule
Activity
p471
(dp472
g8
(lp473
S'52304977'
p474
aS'87602030'
p475
ag269
aS'7106649'
p476
ag140
aS'85236626'
p477
aS'82968410'
p478
ag388
aS'35315956'
p479
aS'33760909'
p480
aS'63634350'
p481
ag330
aS'5976174'
p482
aS'58040377'
p483
ag100
aS'72652638'
p484
ag231
aS'5739011'
p485
ag415
ag73
ag27
asg32
S'20'
p486
sg33
S'Heuristieken 2'
p487
sg35
g277
sg37
g84
sg38
(iread_data
Room
p488
(dp489
g32
g87
sg33
g88
sbsbaa(lp490
(ischedule
Activity
p491
(dp492
g8
(lp493
g15
ag18
ag21
ag24
ag30
ag28
ag22
ag16
ag31
ag13
asg32
S'10'
p494
sg33
g34
sg35
g83
sg37
g278
sg38
g85
sba(ischedule
Activity
p495
(dp496
g8
(lp497
S'75521763'
p498
aS'32204977'
p499
ag154
aS'76487754'
p500
aS'92496780'
p501
ag255
aS'97371272'
p502
aS'4697362'
p503
ag476
ag273
ag153
aS'69086548'
p504
ag64
ag156
ag15
asg32
g439
sg33
g440
sg35
g277
sg37
g145
sg38
g390
sba(ischedule
Activity
p505
(dp506
g8
(lp507
g178
ag29
aS'99272880'
p508
aS'12782624'
p509
aS'53585410'
p510
aS'83415514'
p511
ag328
aS'64053722'
p512
aS'73196865'
p513
aS'58469172'
p514
ag141
ag244
ag227
ag270
ag74
ag237
ag60
aS'23257088'
p515
ag477
aS'23215240'
p516
ag456
aS'94955328'
p517
asg32
g348
sg33
g349
sg35
g83
sg37
S'6'
p518
sg38
(iread_data
Room
p519
(dp520
g32
g132
sg33
g133
sbsba(ischedule
Activity
p521
(dp522
g8
(lp523
g98
ag100
ag102
ag104
ag106
ag73
ag112
ag114
ag120
ag122
ag124
ag128
ag99
ag97
ag109
ag123
ag110
asg32
S'20'
p524
sg33
g129
sg35
g83
sg37
g84
sg38
(iread_data
Room
p525
(dp526
g32
g259
sg33
g260
sbsba(ischedule
Activity
p527
(dp528
g8
(lp529
g225
ag227
ag77
ag235
ag240
ag242
ag253
ag255
ag250
ag211
ag252
asg32
S'20'
p530
sg33
g256
sg35
g83
sg37
g278
sg38
(iread_data
Room
p531
(dp532
g32
g304
sg33
g305
sbsba(ischedule
Activity
p533
(dp534
g8
(lp535
S'58699305'
p536
aS'48198668'
p537
aS'27916487'
p538
aS'33776961'
p539
ag322
aS'63111000'
p540
ag73
ag245
ag31
aS'24277163'
p541
aS'96082155'
p542
ag498
ag47
aS'18144425'
p543
asg32
S'20'
p544
sg33
S'Moderne Databases'
p545
sg35
g277
sg37
g278
sg38
(iread_data
Room
p546
(dp547
g32
g218
sg33
g219
sbsba(ischedule
Activity
p548
(dp549
g8
(lp550
g419
ag142
ag342
asg32
S'10'
p551
sg33
g144
sg35
g277
sg37
g278
sg38
(iread_data
Room
p552
(dp553
g32
g41
sg33
g42
sbsbaa(lp554
(ischedule
Activity
p555
(dp556
g8
(lp557
g474
ag482
ag475
ag100
ag294
aS'1886996'
p558
ag269
ag193
ag476
ag485
ag140
aS'48678993'
p559
ag22
aS'99975346'
p560
ag477
aS'58736785'
p561
ag478
aS'83869542'
p562
ag388
ag330
ag479
ag73
ag484
ag415
aS'15249775'
p563
ag483
ag480
ag231
aS'31897288'
p564
ag108
ag481
ag27
asg32
I1000
sg33
g487
sg35
g36
sg37
I0
sg38
g85
sba(ischedule
Activity
p565
(dp566
g8
(lp567
g153
ag155
ag157
ag159
ag161
ag163
ag165
ag166
ag168
ag170
ag178
ag181
ag185
ag186
ag28
ag109
ag198
ag200
ag202
ag206
ag208
ag210
ag214
ag179
ag175
ag183
ag169
ag211
asg32
S'40'
p568
sg33
g215
sg35
g83
sg37
g84
sg38
(iread_data
Room
p569
(dp570
g32
g218
sg33
g219
sbsba(ischedule
Activity
p571
(dp572
g8
(lp573
g329
aS'88737765'
p574
aS'84449005'
p575
ag435
aS'94467156'
p576
ag312
asg32
S'15'
p577
sg33
S'Project Genetic Algorithms'
p578
sg35
g83
sg37
g145
sg38
(iread_data
Room
p579
(dp580
g32
g148
sg33
g149
sbsba(ischedule
Activity
p581
(dp582
g8
(lp583
g17
ag26
ag19
ag15
ag11
ag14
ag30
asg32
S'10'
p584
sg33
g34
sg35
g277
sg37
g145
sg38
(iread_data
Room
p585
(dp586
g32
g259
sg33
g260
sbsba(ischedule
Activity
p587
(dp588
g8
(lp589
g346
ag541
ag31
aS'4529208'
p590
ag515
aS'27123462'
p591
aS'59397895'
p592
ag459
aS'13132925'
p593
ag446
aS'26207525'
p594
aS'47932106'
p595
aS'77960666'
p596
ag273
aS'12091019'
p597
ag252
aS'72456780'
p598
aS'75005528'
p599
aS'64296965'
p600
aS'40141996'
p601
aS'57467488'
p602
ag174
ag16
ag160
aS'47477884'
p603
ag395
ag27
aS'5526560'
p604
ag166
ag28
ag562
aS'78821918'
p605
asg32
g333
sg33
g334
sg35
g277
sg37
g84
sg38
(iread_data
Room
p606
(dp607
g32
g41
sg33
g42
sbsba(ischedule
Activity
p608
(dp609
g8
(lp610
g396
ag397
ag58
aS'8522855'
p611
aS'78136904'
p612
ag313
ag401
ag399
ag274
ag196
ag298
ag26
ag294
aS'19540225'
p613
ag326
ag402
ag27
ag119
aS'64554442'
p614
ag214
ag113
asg32
S'25'
p615
sg33
g405
sg35
g83
sg37
g145
sg38
(iread_data
Room
p616
(dp617
g32
g132
sg33
g133
sbsbaaa(lp618
(lp619
(ischedule
Activity
p620
(dp621
g8
(lp622
S'36748818'
p623
ag499
ag515
ag381
ag498
ag15
ag346
aS'18266644'
p624
aS'13658563'
p625
aS'19958553'
p626
aS'23983476'
p627
ag428
ag268
aS'75585647'
p628
aS'11459236'
p629
aS'8557857'
p630
ag246
aS'17496687'
p631
ag137
ag161
aS'92977271'
p632
asg32
I1000
sg33
S'Informatie- en organsatieontwerp'
p633
sg35
g36
sg37
I0
sg38
(iread_data
Room
p634
(dp635
g32
g259
sg33
g260
sbsba(ischedule
Activity
p636
(dp637
g8
(lp638
g23
ag76
ag155
ag176
aS'41644639'
p639
aS'40633534'
p640
aS'14179347'
p641
ag46
ag110
ag267
asg32
g577
sg33
g578
sg35
g83
sg37
g84
sg38
(iread_data
Room
p642
(dp643
g32
g218
sg33
g219
sbsba(ischedule
Activity
p644
(dp645
g8
g283
sg32
I1000
sg33
g301
sg35
g36
sg37
I0
sg38
(iread_data
Room
p646
(dp647
g32
g148
sg33
g149
sbsba(ischedule
Activity
p648
(dp649
g8
(lp650
S'86807027'
p651
ag251
ag625
ag380
aS'1696500'
p652
ag12
ag343
ag234
ag94
aS'81218347'
p653
ag227
ag13
ag331
aS'79879876'
p654
ag239
aS'53107172'
p655
aS'75997788'
p656
ag386
aS'97417002'
p657
aS'48357272'
p658
ag52
aS'71839156'
p659
aS'45660925'
p660
aS'76393508'
p661
ag561
aS'83443653'
p662
ag422
ag356
aS'87210640'
p663
ag271
aS'97019450'
p664
aS'4353500'
p665
ag18
ag347
ag632
ag203
aS'14941752'
p666
ag498
aS'59075181'
p667
aS'61060652'
p668
ag15
ag602
ag564
aS'53775014'
p669
asg32
I1000
sg33
S'Heuristieken 1'
p670
sg35
g36
sg37
I0
sg38
(iread_data
Room
p671
(dp672
g32
g87
sg33
g88
sbsba(ischedule
Activity
p673
(dp674
g8
(lp675
S'82390428'
p676
ag435
ag541
ag596
aS'61518436'
p677
ag612
ag560
aS'68286356'
p678
aS'54569540'
p679
aS'20239127'
p680
ag412
ag539
ag18
asg32
g467
sg33
g468
sg35
g277
sg37
g145
sg38
(iread_data
Room
p681
(dp682
g32
g41
sg33
g42
sbsba(ischedule
Activity
p683
(dp684
g8
(lp685
g293
aS'82872148'
p686
ag154
ag602
aS'16912993'
p687
aS'53267490'
p688
ag212
ag313
aS'59887191'
p689
ag417
aS'40343779'
p690
ag230
ag357
ag242
aS'535689'
p691
aS'70939718'
p692
asg32
S'20'
p693
sg33
S'Netwerken en systeembeveiliging'
p694
sg35
g83
sg37
g145
sg38
(iread_data
Room
p695
(dp696
g32
g132
sg33
g133
sbsba(ischedule
Activity
p697
(dp698
g8
g410
sg32
I1000
sg33
g144
sg35
g36
sg37
I0
sg38
(iread_data
Room
p699
(dp700
g32
g304
sg33
g305
sbsbaa(lp701
(ischedule
Activity
p702
(dp703
g8
g622
sg32
I1000
sg33
g633
sg35
g36
sg37
I0
sg38
(iread_data
Room
p704
(dp705
g32
g304
sg33
g305
sbsba(ischedule
Activity
p706
(dp707
g8
(lp708
g229
ag186
ag210
ag623
aS'27241113'
p709
ag511
ag331
aS'47462856'
p710
ag656
ag47
ag356
aS'51650744'
p711
aS'59111489'
p712
asg32
S'20'
p713
sg33
g545
sg35
g83
sg37
g84
sg38
(iread_data
Room
p714
(dp715
g32
g87
sg33
g88
sbsba(ischedule
Activity
p716
(dp717
g8
(lp718
g205
ag272
ag322
aS'48601268'
p719
aS'77240949'
p720
ag356
ag357
ag274
ag66
asg32
g450
sg33
g276
sg35
g83
sg37
g84
sg38
(iread_data
Room
p721
(dp722
g32
g41
sg33
g42
sbsba(ischedule
Activity
p723
(dp724
g8
(lp725
g225
ag227
ag211
ag77
ag235
ag62
ag240
ag244
ag247
ag109
ag253
ag255
ag173
ag140
ag231
ag233
ag232
ag230
ag254
ag20
asg32
g366
sg33
g256
sg35
g277
sg37
g278
sg38
(iread_data
Room
p726
(dp727
g32
g259
sg33
g260
sbsba(ischedule
Activity
p728
(dp729
g8
(lp730
g158
aS'91250534'
p731
ag58
ag629
aS'25994016'
p732
ag508
aS'57595888'
p733
ag433
asg32
S'15'
p734
sg33
S'Compilerbouw practicum'
p735
sg35
g83
sg37
g278
sg38
(iread_data
Room
p736
(dp737
g32
g218
sg33
g219
sbsba(ischedule
Activity
p738
(dp739
g8
(lp740
g382
aS'72665524'
p741
ag651
ag640
ag95
ag96
aS'62613937'
p742
ag656
ag159
ag254
ag378
aS'39429093'
p743
ag459
ag558
ag107
ag463
ag223
ag603
ag612
ag265
asg32
I1000
sg33
S'Advanced Heuristics'
p744
sg35
g36
sg37
I0
sg38
(iread_data
Room
p745
(dp746
g32
g132
sg33
g133
sbsba(ischedule
Activity
p747
(dp748
g8
(lp749
S'72586808'
p750
aS'3883025'
p751
ag411
ag310
aS'19058315'
p752
aS'14398123'
p753
aS'12170832'
p754
ag559
ag741
ag598
asg32
g693
sg33
g694
sg35
g83
sg37
S'4'
p755
sg38
(iread_data
Room
p756
(dp757
g32
g148
sg33
g149
sbsbaa(lp758
(ischedule
Activity
p759
(dp760
g8
(lp761
g31
aS'29474737'
p762
ag341
ag498
ag377
ag449
ag447
ag190
ag418
ag733
aS'22699561'
p763
ag719
ag720
ag107
aS'46052388'
p764
aS'1075391'
p765
ag448
aS'54310617'
p766
ag600
asg32
g275
sg33
g276
sg35
g277
sg37
g755
sg38
g85
sba(ischedule
Activity
p767
(dp768
g8
(lp769
g415
ag342
ag246
ag27
ag418
ag412
ag413
ag419
asg32
g143
sg33
g144
sg35
g83
sg37
g278
sg38
(iread_data
Room
p770
(dp771
g32
g148
sg33
g149
sbsba(ischedule
Activity
p772
(dp773
g8
(lp774
S'22168693'
p775
aS'80188025'
p776
ag398
ag59
ag414
aS'56544130'
p777
aS'59220392'
p778
aS'19717077'
p779
aS'55530367'
p780
aS'78735049'
p781
aS'75446434'
p782
ag226
ag98
ag157
ag232
ag692
aS'37279234'
p783
ag480
ag22
ag185
ag104
ag357
aS'65978354'
p784
aS'61520025'
p785
ag400
ag114
ag651
ag340
aS'56348773'
p786
ag514
aS'32705005'
p787
ag270
ag384
ag483
ag388
ag237
aS'24875739'
p788
ag475
aS'3678531'
p789
ag641
asg32
S'40'
p790
sg33
S'Calculus 2'
p791
sg35
g277
sg37
g84
sg38
(iread_data
Room
p792
(dp793
g32
g304
sg33
g305
sbsba(ischedule
Activity
p794
(dp795
g8
(lp796
g330
ag387
ag599
aS'55412918'
p797
ag286
ag309
ag174
ag517
ag79
ag234
aS'54074680'
p798
ag11
ag121
ag358
ag291
ag238
ag272
ag384
ag668
ag72
ag214
aS'34588570'
p799
ag421
ag68
aS'55474917'
p800
aS'96118484'
p801
ag435
aS'38499176'
p802
ag102
aS'26172512'
p803
ag17
ag311
ag22
aS'90743504'
p804
aS'32595335'
p805
ag23
aS'79937969'
p806
ag208
aS'23565001'
p807
aS'16011419'
p808
ag659
ag315
ag653
aS'66570705'
p809
aS'74182182'
p810
aS'87758823'
p811
ag55
ag233
ag31
ag207
aS'36527838'
p812
aS'21311067'
p813
aS'80998260'
p814
ag170
asg32
I1000
sg33
S'Lineaire Algebra'
p815
sg35
g36
sg37
I0
sg38
(iread_data
Room
p816
(dp817
g32
g259
sg33
g260
sbsba(ischedule
Activity
p818
(dp819
g8
(lp820
g21
ag27
ag20
ag10
ag12
ag29
asg32
g584
sg33
g34
sg35
g277
sg37
g278
sg38
(iread_data
Room
p821
(dp822
g32
g41
sg33
g42
sbsbaa(lp823
(ischedule
Activity
p824
(dp825
g8
(lp826
g540
ag172
ag163
aS'90067329'
p827
ag720
aS'67625383'
p828
ag576
ag181
ag466
aS'26857113'
p829
ag477
aS'56988998'
p830
ag383
ag67
ag28
aS'38296757'
p831
ag164
ag400
ag677
ag245
ag482
aS'33252501'
p832
asg32
I1000
sg33
S'Machine Learning'
p833
sg35
g36
sg37
I0
sg38
(iread_data
Room
p834
(dp835
g32
g218
sg33
g219
sbsba(ischedule
Activity
p836
(dp837
g8
(lp838
g651
ag625
ag652
ag227
ag239
ag656
ag657
ag52
ag660
ag422
ag664
ag18
ag667
ag15
ag564
ag203
ag668
ag662
ag271
ag347
ag661
ag669
ag331
ag632
ag665
ag251
ag653
asg32
S'25'
p839
sg33
g670
sg35
g277
sg37
g84
sg38
(iread_data
Room
p840
(dp841
g32
g132
sg33
g133
sbsba(ischedule
Activity
p842
(dp843
g8
(lp844
g18
ag498
ag118
ag435
ag428
ag438
ag226
ag499
ag161
ag154
ag429
ag500
ag430
ag436
ag117
ag501
ag265
ag255
ag431
ag502
ag156
ag503
ag432
ag437
ag331
ag476
ag15
ag434
ag52
ag273
ag195
ag153
ag433
ag504
ag384
ag57
ag64
ag208
asg32
I1000
sg33
g440
sg35
g36
sg37
I0
sg38
(iread_data
Room
p845
(dp846
g32
g259
sg33
g260
sbsba(ischedule
Activity
p847
(dp848
g8
(lp849
g775
ag271
ag309
ag233
ag511
ag70
ag776
ag789
ag483
ag398
ag628
aS'78544592'
p850
ag59
ag641
ag95
ag414
aS'28957789'
p851
aS'93361408'
p852
ag777
ag312
ag656
ag778
aS'72526473'
p853
aS'11593163'
p854
ag779
aS'53139134'
p855
aS'75623387'
p856
ag780
ag201
ag595
ag781
aS'6939933'
p857
aS'58253841'
p858
ag782
ag198
ag810
ag226
ag189
ag163
ag98
ag26
ag475
ag157
ag395
ag658
ag71
aS'62363761'
p859
ag237
ag232
ag741
aS'10609762'
p860
ag692
ag229
ag78
ag300
ag296
aS'33672995'
p861
ag783
ag448
ag253
ag480
ag601
ag317
ag22
ag388
aS'77306636'
p862
ag185
aS'82412626'
p863
ag797
ag104
ag603
aS'79888156'
p864
ag357
ag47
ag481
ag784
aS'46570285'
p865
ag191
ag785
ag234
ag315
ag400
aS'34173695'
p866
ag597
ag114
ag831
ag402
ag651
ag510
aS'6709529'
p867
ag340
ag180
ag327
ag786
aS'31306819'
p868
ag807
ag514
ag244
ag239
ag787
aS'23628642'
p869
ag74
ag270
ag788
ag536
ag384
asg32
I1000
sg33
g791
sg35
g36
sg37
I0
sg38
(iread_data
Room
p870
(dp871
g32
g304
sg33
g305
sbsba(ischedule
Activity
p872
(dp873
g8
(lp874
g205
ag98
ag228
ag600
ag272
ag764
ag265
ag31
ag273
ag107
ag171
ag762
ag355
ag652
ag266
ag341
ag322
aS'28357474'
p875
ag207
ag313
ag719
ag480
ag267
ag498
ag720
ag655
ag238
ag377
ag356
aS'3233378'
p876
ag242
ag449
ag765
ag108
ag174
ag811
ag357
ag69
ag268
ag541
ag358
ag429
ag446
ag447
ag359
ag76
ag269
ag190
ag448
ag398
ag270
ag418
ag274
ag766
ag128
ag733
ag66
ag763
ag271
ag211
ag360
asg32
I1000
sg33
g276
sg35
g36
sg37
I0
sg38
(iread_data
Room
p877
(dp878
g32
g87
sg33
g88
sbsbaa(lp879
(ischedule
Activity
p880
(dp881
g8
g844
sg32
I1000
sg33
g440
sg35
g36
sg37
I0
sg38
(iread_data
Room
p882
(dp883
g32
g259
sg33
g260
sbsba(ischedule
Activity
p884
(dp885
g8
(lp886
g224
ag228
ag230
ag19
ag234
ag237
ag239
ag243
ag246
ag248
ag109
ag247
ag20
ag251
ag245
ag244
ag232
ag223
asg32
g530
sg33
g256
sg35
g83
sg37
g145
sg38
(iread_data
Room
p887
(dp888
g32
g132
sg33
g133
sbsba(ischedule
Activity
p889
(dp890
g8
(lp891
g764
ag107
ag652
ag875
ag480
ag655
ag876
ag108
ag69
ag429
ag76
ag398
ag766
ag763
ag377
ag765
ag360
ag268
ag733
asg32
g450
sg33
g276
sg35
g83
sg37
g145
sg38
(iread_data
Room
p892
(dp893
g32
g218
sg33
g219
sbsba(ischedule
Activity
p894
(dp895
g8
(lp896
g380
aS'64418623'
p897
ag235
aS'51673172'
p898
ag481
ag318
ag639
aS'82066165'
p899
ag418
aS'5892092'
p900
ag114
aS'55103073'
p901
ag77
aS'51472074'
p902
ag499
ag659
ag274
ag741
aS'47260040'
p903
ag516
asg32
g734
sg33
g735
sg35
g83
sg37
g145
sg38
(iread_data
Room
p904
(dp905
g32
g87
sg33
g88
sbsba(ischedule
Activity
p906
(dp907
g8
(lp908
g242
ag382
aS'90103047'
p909
ag317
ag461
ag57
ag235
ag810
ag457
ag599
ag342
ag175
ag66
aS'32183908'
p910
ag292
ag432
aS'19662602'
p911
aS'63939720'
p912
ag666
ag287
ag207
ag212
ag651
ag236
asg32
S'15'
p913
sg33
S'Project Numerical Recipes'
p914
sg35
g83
sg37
g84
sg38
(iread_data
Room
p915
(dp916
g32
g41
sg33
g42
sbsba(ischedule
Activity
p917
(dp918
g8
(lp919
g226
ag80
ag229
ag231
ag233
ag236
ag238
ag140
ag173
ag201
ag249
ag111
ag254
ag155
ag62
ag241
asg32
g530
sg33
g256
sg35
g83
sg37
g84
sg38
(iread_data
Room
p920
(dp921
g32
g304
sg33
g305
sbsbaaa(lp922
(lp923
(ischedule
Activity
p924
(dp925
g8
(lp926
g741
ag640
ag96
ag603
ag107
ag463
asg32
S'10'
p927
sg33
g744
sg35
g83
sg37
g145
sg38
g569
sba(ischedule
Activity
p928
(dp929
g8
g222
sg32
I1000
sg33
g256
sg35
g36
sg37
I0
sg38
(iread_data
Room
p930
(dp931
g32
g259
sg33
g260
sbsba(ischedule
Activity
p932
(dp933
g8
(lp934
g102
aS'41585485'
p935
ag328
ag119
ag49
ag690
aS'88596522'
p936
ag153
ag48
ag482
ag214
ag627
ag614
ag343
ag510
ag65
ag611
ag418
ag196
ag602
ag613
ag313
ag612
asg32
g404
sg33
g405
sg35
g277
sg37
g84
sg38
(iread_data
Room
p937
(dp938
g32
g304
sg33
g305
sbsba(ischedule
Activity
p939
(dp940
g8
(lp941
S'44671041'
p942
ag63
ag192
ag327
ag201
ag627
ag292
aS'23391676'
p943
ag108
ag61
ag162
ag429
aS'28943658'
p944
ag596
aS'34262212'
p945
ag163
ag539
asg32
g348
sg33
g349
sg35
g83
sg37
g278
sg38
(iread_data
Room
p946
(dp947
g32
g41
sg33
g42
sbsba(ischedule
Activity
p948
(dp949
g8
(lp950
g154
ag156
ag160
ag162
ag169
ag173
ag175
ag177
ag46
ag180
ag182
ag184
ag25
ag187
ag188
ag190
ag192
ag194
ag195
ag66
ag199
ag201
ag203
ag207
ag209
ag211
ag213
ag28
ag206
ag212
ag214
ag202
ag208
ag205
asg32
S'40'
p951
sg33
g215
sg35
g277
sg37
g145
sg38
(iread_data
Room
p952
(dp953
g32
g87
sg33
g88
sbsba(ischedule
Activity
p954
(dp955
g8
g826
sg32
I1000
sg33
g833
sg35
g36
sg37
I0
sg38
(iread_data
Room
p956
(dp957
g32
g132
sg33
g133
sbsba(ischedule
Activity
p958
(dp959
g8
(lp960
g605
ag229
ag226
ag210
ag623
ag709
ag511
ag712
ag401
ag331
ag710
aS'13218321'
p961
ag656
ag344
ag356
aS'1181560'
p962
ag711
ag252
ag161
ag865
ag54
ag575
asg32
g544
sg33
g545
sg35
g277
sg37
g84
sg38
(iread_data
Room
p963
(dp964
g32
g148
sg33
g149
sbsbaa(lp965
(ischedule
Activity
p966
(dp967
g8
(lp968
g876
aS'96554914'
p969
ag77
ag402
ag173
ag78
ag658
ag482
ag232
ag72
ag156
aS'58074656'
p970
ag875
aS'9287708'
p971
ag74
ag75
aS'31633723'
p972
ag271
ag79
ag73
ag251
ag80
ag668
ag235
ag942
ag194
aS'3727435'
p973
aS'31103066'
p974
ag76
ag401
ag68
ag50
ag719
ag60
ag64
asg32
S'40'
p975
sg33
g82
sg35
g277
sg37
g145
sg38
(iread_data
Room
p976
(dp977
g32
g132
sg33
g133
sbsba(ischedule
Activity
p978
(dp979
g8
(lp980
g98
ag652
ag875
ag480
ag655
ag876
ag108
ag69
ag429
ag398
ag313
ag446
ag541
ag322
ag811
ag128
asg32
g275
sg33
g276
sg35
g277
sg37
g145
sg38
(iread_data
Room
p981
(dp982
g32
g218
sg33
g219
sbsba(ischedule
Activity
p983
(dp984
g8
(lp985
g624
ag628
ag498
ag246
ag346
ag499
ag625
ag137
asg32
S'15'
p986
sg33
g633
sg35
g83
sg37
g145
sg38
(iread_data
Room
p987
(dp988
g32
g148
sg33
g149
sbsbaa(lp989
(ischedule
Activity
p990
(dp991
g8
(lp992
S'31247305'
p993
ag46
ag47
ag48
ag49
ag19
ag51
ag52
ag53
ag54
ag24
ag55
ag13
ag56
ag57
ag21
aS'13718298'
p994
ag23
ag58
ag111
ag690
ag59
ag61
ag62
ag63
ag65
ag66
ag127
ag67
ag576
ag69
ag70
ag71
aS'37830626'
p995
ag183
ag418
ag25
ag686
aS'65318664'
p996
ag800
asg32
g975
sg33
g82
sg35
g277
sg37
g84
sg38
(iread_data
Room
p997
(dp998
g32
g132
sg33
g133
sbsba(ischedule
Activity
p999
(dp1000
g8
(lp1001
g18
ag413
ag138
ag417
ag139
ag421
ag140
ag20
ag52
ag27
ag72
ag422
asg32
g551
sg33
g144
sg35
g277
sg37
g145
sg38
(iread_data
Room
p1002
(dp1003
g32
g304
sg33
g305
sbsba(ischedule
Activity
p1004
(dp1005
g8
(lp1006
g12
ag234
ag13
ag654
ag655
ag386
ag659
ag356
ag498
ag602
ag343
ag658
ag94
ag380
ag561
ag663
ag666
asg32
g839
sg33
g670
sg35
g277
sg37
g145
sg38
(iread_data
Room
p1007
(dp1008
g32
g259
sg33
g260
sbsba(ischedule
Activity
p1009
(dp1010
g8
(lp1011
g191
ag559
aS'75680261'
p1012
ag605
ag475
ag611
ag899
ag732
ag604
ag753
ag400
ag54
aS'74361881'
p1013
aS'87830198'
p1014
ag898
ag290
ag858
ag190
ag388
aS'55480737'
p1015
asg32
g577
sg33
g578
sg35
g83
sg37
g278
sg38
(iread_data
Room
p1016
(dp1017
g32
g148
sg33
g149
sbsba(ischedule
Activity
p1018
(dp1019
g8
(lp1020
g382
ag95
ag159
ag378
ag459
ag223
ag612
ag254
ag265
ag558
ag656
ag743
ag651
ag742
asg32
g927
sg33
g744
sg35
g83
sg37
g84
sg38
(iread_data
Room
p1021
(dp1022
g32
g87
sg33
g88
sbsba(ischedule
Activity
p1023
(dp1024
g8
(lp1025
g228
ag411
ag412
ag414
ag416
ag418
ag420
ag67
ag137
ag246
ag415
ag141
asg32
g551
sg33
g144
sg35
g277
sg37
g84
sg38
(iread_data
Room
p1026
(dp1027
g32
g41
sg33
g42
sbsba(ischedule
Activity
p1028
(dp1029
g8
g91
sg32
I1000
sg33
g129
sg35
g36
sg37
I0
sg38
(iread_data
Room
p1030
(dp1031
g32
g218
sg33
g219
sbsbaa(lp1032
(ischedule
Activity
p1033
(dp1034
g8
(lp1035
g627
ag268
ag246
ag630
ag628
asg32
S'15'
p1036
sg33
g633
sg35
g277
sg37
g84
sg38
(iread_data
Room
p1037
(dp1038
g32
g132
sg33
g133
sbsba(ischedule
Activity
p1039
(dp1040
g8
(lp1041
g102
ag935
ag400
ag328
ag403
ag49
ag690
ag285
ag936
ag153
ag48
ag482
ag627
ag343
ag510
ag65
ag602
ag418
ag228
ag249
ag398
ag395
asg32
g615
sg33
g405
sg35
g83
sg37
g84
sg38
(iread_data
Room
p1042
(dp1043
g32
g148
sg33
g149
sbsba(ischedule
Activity
p1044
(dp1045
g8
(lp1046
g93
ag95
ag101
ag103
ag107
ag50
ag111
ag113
ag115
ag117
ag119
ag121
ag96
ag126
ag108
ag105
ag94
ag125
ag127
ag92
ag118
ag116
asg32
g524
sg33
g129
sg35
g83
sg37
g145
sg38
(iread_data
Room
p1047
(dp1048
g32
g41
sg33
g42
sbsba(ischedule
Activity
p1049
(dp1050
g8
(lp1051
g346
aS'10872825'
p1052
ag865
ag124
ag787
ag788
ag169
aS'39659121'
p1053
aS'72547110'
p1054
aS'91139627'
p1055
ag79
ag612
ag290
aS'82688900'
p1056
ag508
ag504
ag53
ag753
ag611
aS'44940353'
p1057
ag624
aS'51186803'
p1058
aS'63408522'
p1059
ag935
aS'7492204'
p1060
aS'39919665'
p1061
ag244
ag231
ag802
ag343
ag185
ag576
aS'65003379'
p1062
ag420
ag710
ag25
aS'37498675'
p1063
ag664
ag80
ag502
ag600
ag48
aS'79858178'
p1064
ag170
ag514
ag781
ag972
ag193
ag428
ag227
ag211
ag667
ag517
ag481
ag466
ag325
aS'79366078'
p1065
aS'63955238'
p1066
ag163
ag320
ag943
ag104
ag386
ag810
ag993
ag421
ag653
ag234
ag800
ag680
ag383
ag679
aS'47605891'
p1067
ag766
ag254
ag49
aS'38329455'
p1068
ag677
ag851
ag340
ag945
ag830
ag720
ag57
asg32
I1000
sg33
S'Kansrekenen 2'
p1069
sg35
g36
sg37
I0
sg38
(iread_data
Room
p1070
(dp1071
g32
g304
sg33
g305
sbsba(ischedule
Activity
p1072
(dp1073
g8
(lp1074
g228
ag416
ag420
ag422
ag411
ag417
ag421
ag414
asg32
g143
sg33
g144
sg35
g83
sg37
g84
sg38
(iread_data
Room
p1075
(dp1076
g32
g218
sg33
g219
sbsba(ischedule
Activity
p1077
(dp1078
g8
(lp1079
g309
ag70
ag850
ag95
ag852
ag656
ag854
ag856
ag595
ag810
ag163
ag658
ag860
ag78
ag861
ag253
ag317
ag862
ag797
ag864
ag481
ag191
ag315
ag597
ag402
ag867
ag327
ag807
ag239
ag74
ag536
ag863
ag601
ag300
asg32
g790
sg33
g791
sg35
g277
sg37
g278
sg38
(iread_data
Room
p1080
(dp1081
g32
g259
sg33
g260
sbsbaa(lp1082
(ischedule
Activity
p1083
(dp1084
g8
(lp1085
g196
ag100
ag291
ag560
aS'27370083'
p1086
ag58
aS'20095994'
p1087
ag464
ag456
ag539
ag994
ag457
ag462
aS'36213792'
p1088
ag458
ag255
ag13
ag465
ag680
ag676
ag679
ag625
ag435
ag46
ag969
ag446
ag459
ag831
ag237
ag142
ag436
ag463
ag678
ag319
ag541
ag460
ag412
ag250
ag193
ag1014
aS'51415617'
p1089
ag344
ag575
ag596
ag461
ag18
ag677
ag123
ag466
ag612
ag241
asg32
I1000
sg33
g468
sg35
g36
sg37
I0
sg38
(iread_data
Room
p1090
(dp1091
g32
g87
sg33
g88
sbsba(ischedule
Activity
p1092
(dp1093
g8
(lp1094
g206
ag314
ag346
ag812
ag156
ag255
ag359
aS'49219163'
p1095
aS'41489515'
p1096
ag850
aS'66621166'
p1097
ag395
ag751
ag325
ag50
ag168
ag157
ag186
asg32
g544
sg33
g545
sg35
g277
sg37
g145
sg38
(iread_data
Room
p1098
(dp1099
g32
g41
sg33
g42
sbsba(ischedule
Activity
p1100
(dp1101
g8
(lp1102
g153
ag155
ag157
ag159
ag161
ag163
ag165
ag166
ag168
ag170
ag172
ag174
ag176
ag178
ag179
ag181
ag183
ag185
ag186
ag189
ag191
ag193
ag109
ag196
ag113
ag198
ag200
ag204
ag210
ag16
ag171
ag197
ag164
ag167
ag158
asg32
g951
sg33
g215
sg35
g277
sg37
g84
sg38
(iread_data
Room
p1103
(dp1104
g32
g218
sg33
g219
sbsba(ischedule
Activity
p1105
(dp1106
g8
(lp1107
g295
ag691
ag273
ag510
ag936
aS'1695839'
p1108
ag168
ag251
ag1013
aS'42297781'
p1109
ag802
aS'44151631'
p1110
asg32
g734
sg33
g735
sg35
g83
sg37
g84
sg38
(iread_data
Room
p1111
(dp1112
g32
g132
sg33
g133
sbsba(ischedule
Activity
p1113
(dp1114
g8
(lp1115
g993
ag876
ag46
ag969
ag47
ag77
ag48
ag402
ag49
ag173
ag19
ag78
ag50
ag658
ag51
ag482
ag52
ag418
ag53
ag232
ag54
ag72
ag24
ag156
ag55
ag970
ag13
ag875
ag56
ag971
ag57
ag800
ag21
ag74
ag994
ag995
ag23
ag75
ag58
ag972
ag111
ag271
ag690
ag79
ag59
ag73
ag60
ag251
ag719
ag80
ag61
ag183
ag62
ag686
ag63
ag25
ag64
ag668
ag65
ag235
ag66
ag942
ag127
ag194
ag67
ag973
ag576
ag974
ag68
ag76
ag69
ag996
ag70
ag401
ag71
asg32
I1000
sg33
g82
sg35
g36
sg37
I0
sg38
(iread_data
Room
p1116
(dp1117
g32
g148
sg33
g149
sbsba(ischedule
Activity
p1118
(dp1119
g8
g874
sg32
I1000
sg33
g276
sg35
g36
sg37
I0
sg38
(iread_data
Room
p1120
(dp1121
g32
g304
sg33
g305
sbsbaaa(lp1122
(lp1123
(ischedule
Activity
p1124
(dp1125
g8
(lp1126
g632
ag935
aS'54395877'
p1127
aS'63096281'
p1128
ag603
aS'73893840'
p1129
ag228
aS'10702778'
p1130
ag180
ag400
ag311
aS'34900967'
p1131
ag420
ag829
ag800
ag69
ag196
asg32
g348
sg33
g349
sg35
g83
sg37
g84
sg38
(iread_data
Room
p1132
(dp1133
g32
g148
sg33
g149
sbsba(ischedule
Activity
p1134
(dp1135
g8
g796
sg32
I1000
sg33
g815
sg35
g36
sg37
I0
sg38
(iread_data
Room
p1136
(dp1137
g32
g87
sg33
g88
sbsba(ischedule
Activity
p1138
(dp1139
g8
(lp1140
g624
ag665
ag859
ag459
aS'25557516'
p1141
ag667
ag993
aS'64246605'
p1142
ag140
ag63
ag123
ag448
ag321
ag69
aS'123355'
p1143
aS'85284256'
p1144
aS'63573738'
p1145
asg32
g693
sg33
g694
sg35
g83
sg37
g84
sg38
(iread_data
Room
p1146
(dp1147
g32
g41
sg33
g42
sbsba(ischedule
Activity
p1148
(dp1149
g8
(lp1150
g600
ag31
ag762
ag341
ag313
ag498
ag811
ag541
ag190
ag418
ag211
ag128
ag98
asg32
g450
sg33
g276
sg35
g83
sg37
g755
sg38
(iread_data
Room
p1151
(dp1152
g32
g218
sg33
g219
sbsba(ischedule
Activity
p1153
(dp1154
g8
(lp1155
g558
ag559
ag560
ag561
ag562
ag108
ag22
ag563
ag193
ag564
ag294
asg32
g486
sg33
g487
sg35
g277
sg37
g145
sg38
(iread_data
Room
p1156
(dp1157
g32
g132
sg33
g133
sbsba(ischedule
Activity
p1158
(dp1159
g8
(lp1160
g243
ag415
ag343
ag340
ag594
ag802
ag324
ag611
ag652
ag167
ag171
ag170
ag67
ag214
ag382
ag1014
aS'5590289'
p1161
ag225
ag344
ag15
ag463
asg32
g693
sg33
g694
sg35
g83
sg37
g278
sg38
(iread_data
Room
p1162
(dp1163
g32
g304
sg33
g305
sbsba(ischedule
Activity
p1164
(dp1165
g8
(lp1166
g605
ag206
ag157
ag229
ag865
ag536
ag226
ag543
ag537
ag186
ag314
ag538
ag210
ag346
ag539
ag623
ag812
ag322
ag709
ag156
ag540
ag511
ag255
ag73
ag712
ag359
ag245
ag401
ag1095
ag962
ag252
ag1096
ag31
ag331
ag850
ag541
ag710
ag1097
ag542
ag961
ag395
ag498
ag656
ag751
ag711
ag47
ag325
ag54
ag344
ag50
ag161
ag356
ag168
ag575
asg32
I1000
sg33
g545
sg35
g36
sg37
I0
sg38
(iread_data
Room
p1167
(dp1168
g32
g259
sg33
g260
sbsbaa(lp1169
(ischedule
Activity
p1170
(dp1171
g8
(lp1172
g96
ag100
ag102
ag104
ag106
ag108
ag73
ag110
ag112
ag116
ag118
ag124
ag119
ag98
ag95
ag111
ag103
ag113
ag107
ag123
ag105
ag109
ag122
asg32
S'20'
p1173
sg33
g129
sg35
g277
sg37
g84
sg38
g525
sba(ischedule
Activity
p1174
(dp1175
g8
(lp1176
g93
ag97
ag99
ag101
ag115
ag117
ag121
ag125
ag127
ag114
ag120
ag128
ag94
ag92
ag126
ag50
asg32
g1173
sg33
g129
sg35
g277
sg37
g145
sg38
g39
sba(ischedule
Activity
p1177
(dp1178
g8
(lp1179
g398
ag56
ag396
aS'7386961'
p1180
ag664
ag651
ag654
ag576
aS'39905995'
p1181
ag314
ag789
ag174
ag540
ag241
ag229
ag481
aS'88519892'
p1182
ag355
asg32
g348
sg33
g349
sg35
g83
sg37
g755
sg38
(iread_data
Room
p1183
(dp1184
g32
g132
sg33
g133
sbsba(ischedule
Activity
p1185
(dp1186
g8
(lp1187
g19
ag23
ag12
asg32
g494
sg33
g34
sg35
g83
sg37
g84
sg38
(iread_data
Room
p1188
(dp1189
g32
g148
sg33
g149
sbsba(ischedule
Activity
p1190
(dp1191
g8
(lp1192
g271
ag511
ag628
ag851
ag312
ag853
ag855
ag201
ag857
ag198
ag189
ag26
ag395
ag859
ag741
ag229
ag296
ag448
ag603
ag47
ag865
ag234
ag866
ag831
ag510
ag180
ag868
ag244
ag869
ag858
ag233
ag71
asg32
g790
sg33
g791
sg35
g277
sg37
g145
sg38
(iread_data
Room
p1193
(dp1194
g32
g218
sg33
g219
sbsba(ischedule
Activity
p1195
(dp1196
g8
(lp1197
g100
aS'82854435'
p1198
ag1131
ag664
ag320
ag236
ag269
ag662
ag559
ag517
aS'14637758'
p1199
ag600
aS'58480929'
p1200
ag318
ag204
ag807
ag658
ag605
ag624
aS'73350019'
p1201
ag170
ag750
aS'18477924'
p1202
ag777
ag79
ag462
ag13
ag72
ag994
ag22
ag574
ag656
aS'97838175'
p1203
ag436
aS'78822885'
p1204
ag226
ag742
ag240
ag383
ag1014
ag327
ag311
ag435
ag996
ag861
ag59
ag776
ag464
ag598
asg32
I1000
sg33
S'Analysemethoden en -technieken'
p1205
sg35
g36
sg37
I0
sg38
(iread_data
Room
p1206
(dp1207
g32
g304
sg33
g305
sbsba(ischedule
Activity
p1208
(dp1209
g8
(lp1210
g346
ag309
ag327
ag128
ag541
ag310
ag331
ag69
ag31
ag227
ag590
ag311
ag515
ag312
ag591
ag313
ag326
ag189
ag592
ag330
ag223
ag166
ag459
ag239
ag593
ag288
ag446
ag314
ag329
ag315
ag594
ag316
ag595
ag395
ag596
ag119
ag332
ag562
ag196
ag317
ag273
ag604
ag28
ag318
ag597
ag319
ag252
ag320
ag598
ag321
ag599
ag269
ag600
ag322
ag601
ag27
ag602
ag323
ag118
ag324
ag174
ag126
ag605
ag325
ag328
ag224
ag16
ag244
ag160
ag238
ag603
ag21
asg32
I1000
sg33
g334
sg35
g36
sg37
I0
sg38
(iread_data
Room
p1211
(dp1212
g32
g87
sg33
g88
sbsbaa(lp1213
(ischedule
Activity
p1214
(dp1215
g8
(lp1216
g876
ag969
ag402
ag173
ag658
ag482
ag418
ag232
ag970
ag875
ag971
ag800
ag995
ag972
ag271
ag251
ag183
ag686
ag25
ag668
ag235
ag942
ag194
ag973
ag974
ag996
ag401
ag719
ag993
ag23
ag19
ag576
ag127
ag111
ag690
ag21
ag994
ag156
asg32
g81
sg33
g82
sg35
g83
sg37
g145
sg38
g519
sba(ischedule
Activity
p1217
(dp1218
g8
g1085
sg32
I1000
sg33
g468
sg35
g36
sg37
I0
sg38
g525
sba(ischedule
Activity
p1219
(dp1220
g8
(lp1221
g102
ag395
ag935
ag396
ag400
ag397
ag328
ag418
ag403
ag249
ag119
ag58
ag49
ag228
ag27
ag611
ag690
ag398
ag285
ag602
ag936
ag612
ag153
ag313
ag48
ag401
ag482
ag399
ag402
ag274
ag214
ag196
ag326
ag298
ag627
ag113
ag614
ag26
ag343
ag294
ag510
ag613
ag65
asg32
I1000
sg33
g405
sg35
g36
sg37
I0
sg38
(iread_data
Room
p1222
(dp1223
g32
g218
sg33
g219
sbsba(ischedule
Activity
p1224
(dp1225
g8
g152
sg32
I1000
sg33
g215
sg35
g36
sg37
I0
sg38
(iread_data
Room
p1226
(dp1227
g32
g148
sg33
g149
sbsba(ischedule
Activity
p1228
(dp1229
g8
g376
sg32
I1000
sg33
g389
sg35
g36
sg37
I0
sg38
(iread_data
Room
p1230
(dp1231
g32
g41
sg33
g42
sbsba(ischedule
Activity
p1232
(dp1233
g8
g1051
sg32
I1000
sg33
g1069
sg35
g36
sg37
I0
sg38
(iread_data
Room
p1234
(dp1235
g32
g304
sg33
g305
sbsbaa(lp1236
(ischedule
Activity
p1237
(dp1238
g8
(lp1239
g113
aS'37419523'
p1240
ag1145
aS'81116418'
p1241
ag466
asg32
g913
sg33
g914
sg35
g83
sg37
g278
sg38
(iread_data
Room
p1242
(dp1243
g32
g132
sg33
g133
sbsba(ischedule
Activity
p1244
(dp1245
g8
(lp1246
g155
ag228
ag19
ag234
ag241
ag248
ag250
ag252
ag80
ag243
asg32
g366
sg33
g256
sg35
g277
sg37
g145
sg38
(iread_data
Room
p1247
(dp1248
g32
g41
sg33
g42
sbsba(ischedule
Activity
p1249
(dp1250
g8
(lp1251
S'51791169'
p1252
ag464
ag421
ag1060
ag28
ag1144
ag483
aS'88597745'
p1253
ag179
ag783
ag286
ag197
aS'88263855'
p1254
ag165
ag434
ag802
ag358
ag563
ag330
asg32
g348
sg33
g349
sg35
g83
sg37
S'5'
p1255
sg38
(iread_data
Room
p1256
(dp1257
g32
g218
sg33
g219
sbsba(ischedule
Activity
p1258
(dp1259
g8
(lp1260
g16
ag22
ag25
ag28
ag31
ag23
ag13
ag24
ag18
asg32
g584
sg33
g34
sg35
g277
sg37
g84
sg38
(iread_data
Room
p1261
(dp1262
g32
g259
sg33
g260
sbsba(ischedule
Activity
p1263
(dp1264
g8
g222
sg32
I1000
sg33
g256
sg35
g36
sg37
I0
sg38
(iread_data
Room
p1265
(dp1266
g32
g304
sg33
g305
sbsba(ischedule
Activity
p1267
(dp1268
g8
(lp1269
g206
ag865
ag543
ag314
ag346
ag812
ag156
ag359
ag1095
ag1096
ag850
ag1097
ag395
ag751
ag325
ag50
ag168
ag245
ag605
ag540
ag344
ag252
asg32
g713
sg33
g545
sg35
g83
sg37
g145
sg38
(iread_data
Room
p1270
(dp1271
g32
g148
sg33
g149
sbsba(ischedule
Activity
p1272
(dp1273
g8
(lp1274
g154
ag156
ag158
ag160
ag162
ag164
ag16
ag173
ag177
ag46
ag180
ag182
ag184
ag25
ag187
ag188
ag190
ag192
ag194
ag195
ag197
ag66
ag199
ag201
ag203
ag205
ag207
ag209
ag213
ag191
ag167
ag212
ag171
ag172
ag176
ag196
ag193
ag113
ag189
ag204
ag174
asg32
g568
sg33
g215
sg35
g83
sg37
g145
sg38
(iread_data
Room
p1275
(dp1276
g32
g87
sg33
g88
sbsbaa(lp1277
(ischedule
Activity
p1278
(dp1279
g8
(lp1280
g11
ag20
ag26
ag29
ag27
ag10
ag14
ag17
ag25
asg32
g494
sg33
g34
sg35
g83
sg37
g145
sg38
g85
sba(ischedule
Activity
p1281
(dp1282
g8
(lp1283
g857
ag231
ag24
ag178
ag189
aS'34691309'
p1284
ag446
ag415
ag206
aS'40911986'
p1285
aS'21070547'
p1286
ag171
ag173
ag208
ag53
asg32
g913
sg33
g914
sg35
g83
sg37
g145
sg38
g519
sba(ischedule
Activity
p1287
(dp1288
g8
(lp1289
g623
ag515
ag627
ag268
ag629
ag632
ag630
ag161
ag626
ag381
ag15
ag428
ag631
asg32
g986
sg33
g633
sg35
g83
sg37
g84
sg38
g390
sba(ischedule
Activity
p1290
(dp1291
g8
(lp1292
g1087
ag255
ag625
ag969
ag831
ag436
ag319
ag1014
ag575
ag1089
ag13
ag1086
ag446
ag241
ag1088
ag994
asg32
g467
sg33
g468
sg35
g277
sg37
g84
sg38
(iread_data
Room
p1293
(dp1294
g32
g218
sg33
g219
sbsba(ischedule
Activity
p1295
(dp1296
g8
g874
sg32
I1000
sg33
g276
sg35
g36
sg37
I0
sg38
(iread_data
Room
p1297
(dp1298
g32
g259
sg33
g260
sbsba(ischedule
Activity
p1299
(dp1300
g8
(lp1301
g157
ag536
ag537
ag538
ag539
ag322
ag73
ag962
ag31
ag542
ag498
ag54
ag161
ag575
ag226
ag961
ag541
ag255
ag401
asg32
g713
sg33
g545
sg35
g83
sg37
g278
sg38
(iread_data
Room
p1302
(dp1303
g32
g304
sg33
g305
sbsba(ischedule
Activity
p1304
(dp1305
g8
(lp1306
g499
ag381
ag15
ag624
ag428
ag631
ag161
ag625
ag632
ag623
ag137
ag515
ag346
ag629
ag626
ag498
asg32
g1036
sg33
g633
sg35
g277
sg37
g145
sg38
(iread_data
Room
p1307
(dp1308
g32
g41
sg33
g42
sbsbaaa(lp1309
(lp1310
a(lp1311
a(lp1312
a(lp1313
a(lp1314
aasS'timeslot_dict'
p1315
(dp1316
I0
S'9:00-11:00'
p1317
sI1
S'11:00-13:00'
p1318
sI2
S'13:00-15:00'
p1319
sI3
S'15:00-17:00'
p1320
sI4
S'17:00-19:00'
p1321
ssS'day_dict'
p1322
(dp1323
I0
S'Monday'
p1324
sI1
S'Tuesday'
p1325
sI2
S'Wednesday'
p1326
sI3
S'Thursday'
p1327
sI4
S'Friday'
p1328
ssb.