(ischedule
Schedule
p0
(dp1
S'timetable'
p2
(lp3
(lp4
(lp5
(ischedule
Activity
p6
(dp7
S'participants'
p8
(lp9
S'35330349'
p10
aS'61443567'
p11
aS'45556081'
p12
aS'77896638'
p13
aS'62701040'
p14
aS'48601268'
p15
aS'42171678'
p16
aS'54310617'
p17
aS'9332762'
p18
aS'37770881'
p19
aS'34773179'
p20
aS'97135019'
p21
aS'24277163'
p22
aS'53107172'
p23
aS'13092455'
p24
aS'51741554'
p25
aS'96104167'
p26
aS'29474737'
p27
aS'82689818'
p28
aS'46052388'
p29
aS'76123484'
p30
aS'5517869'
p31
aS'50184318'
p32
aS'77240949'
p33
aS'60312776'
p34
aS'21964491'
p35
aS'75521763'
p36
aS'42778953'
p37
aS'3233378'
p38
aS'87758823'
p39
aS'65960683'
p40
aS'58522654'
p41
aS'4783858'
p42
aS'22699561'
p43
aS'17222374'
p44
aS'57595888'
p45
aS'1665980'
p46
aS'73980360'
p47
aS'43027916'
p48
aS'64393888'
p49
aS'29640619'
p50
aS'23547619'
p51
aS'15902055'
p52
aS'72577292'
p53
aS'28357474'
p54
aS'64228258'
p55
aS'31416266'
p56
aS'17575088'
p57
aS'1075391'
p58
aS'25106480'
p59
aS'1696500'
p60
aS'13534377'
p61
aS'7308727'
p62
aS'42196732'
p63
aS'68601184'
p64
aS'86291592'
p65
aS'26406342'
p66
aS'86000192'
p67
aS'50143947'
p68
aS'64296965'
p69
aS'33760909'
p70
asS'capacity'
p71
I1000
sS'group'
p72
NsS'room'
p73
(iread_data
Room
p74
(dp75
g71
S'117'
p76
sS'name'
p77
S'C0.110'
p78
sbsS'ttype'
p79
S'lectures'
p80
sS'group_id'
p81
I0
sg77
S'Collectieve Intelligentie'
p82
sba(ischedule
Activity
p83
(dp84
g8
(lp85
S'74131924'
p86
aS'37110913'
p87
aS'62356458'
p88
aS'11915563'
p89
aS'44901052'
p90
aS'70113753'
p91
ag31
aS'61611295'
p92
asg71
S'10'
p93
sg72
(ischedule
Group
p94
(dp95
g8
g85
sg77
S'Autonomous Agents 22'
p96
sbsg73
(iread_data
Room
p97
(dp98
g71
S'20'
p99
sg77
S'A1.08'
p100
sbsg79
S'tutorials'
p101
sg81
S'2'
p102
sg77
S'Autonomous Agents 2'
p103
sba(ischedule
Activity
p104
(dp105
g8
(lp106
S'38296757'
p107
aS'94467156'
p108
aS'26857113'
p109
aS'63111000'
p110
aS'40791377'
p111
aS'67625383'
p112
aS'90067329'
p113
aS'5976174'
p114
aS'3685034'
p115
aS'37744525'
p116
aS'27187154'
p117
aS'56988998'
p118
aS'33252501'
p119
aS'23798155'
p120
aS'39459642'
p121
aS'46701583'
p122
ag33
aS'85236626'
p123
aS'49683101'
p124
aS'61518436'
p125
aS'15051051'
p126
aS'2079771'
p127
asg71
I1000
sg72
Nsg73
(iread_data
Room
p128
(dp129
g71
S'41'
p130
sg77
S'A1.04'
p131
sbsg79
g80
sg81
I0
sg77
S'Machine Learning'
p132
sba(ischedule
Activity
p133
(dp134
g8
(lp135
S'11996292'
p136
aS'49631542'
p137
aS'3883025'
p138
aS'47462856'
p139
aS'33776961'
p140
aS'58592894'
p141
aS'11741347'
p142
aS'78243495'
p143
aS'78443067'
p144
aS'36527838'
p145
aS'68315599'
p146
aS'43680781'
p147
aS'83415514'
p148
aS'13911001'
p149
aS'1766560'
p150
aS'83266686'
p151
aS'27916487'
p152
ag110
aS'30658799'
p153
aS'49219163'
p154
aS'75997788'
p155
aS'77376714'
p156
asg71
S'20'
p157
sg72
(ischedule
Group
p158
(dp159
g8
g135
sg77
S'Moderne Databases3'
p160
sbsg73
(iread_data
Room
p161
(dp162
g71
S'22'
p163
sg77
S'A1.06'
p164
sbsg79
S'labs'
p165
sg81
S'3'
p166
sg77
S'Moderne Databases'
p167
sba(ischedule
Activity
p168
(dp169
g8
(lp170
S'37399898'
p171
aS'38179241'
p172
aS'81200278'
p173
aS'76924297'
p174
aS'2550487'
p175
aS'65675896'
p176
aS'44828429'
p177
aS'69634191'
p178
aS'34765676'
p179
aS'19214659'
p180
aS'81385263'
p181
aS'4546613'
p182
aS'21677389'
p183
aS'28055464'
p184
ag51
aS'93566383'
p185
aS'5368702'
p186
aS'66034145'
p187
aS'81155296'
p188
aS'37701751'
p189
aS'20374340'
p190
aS'14847953'
p191
aS'76661016'
p192
aS'3707829'
p193
aS'64768422'
p194
asg71
I1000
sg72
Nsg73
(iread_data
Room
p195
(dp196
g71
S'48'
p197
sg77
S'B0.201'
p198
sbsg79
g80
sg81
I0
sg77
S'Interactie-ontwerp'
p199
sba(ischedule
Activity
p200
(dp201
g8
(lp202
S'96054456'
p203
aS'56749879'
p204
aS'3168419'
p205
aS'29526540'
p206
aS'30195935'
p207
aS'6723948'
p208
aS'85335143'
p209
aS'96453361'
p210
aS'30050930'
p211
asg71
S'20'
p212
sg72
(ischedule
Group
p213
(dp214
g8
g202
sg77
S'Bioinformatica2'
p215
sbsg73
(iread_data
Room
p216
(dp217
g71
S'60'
p218
sg77
S'C1.112'
p219
sbsg79
g101
sg81
g102
sg77
S'Bioinformatica'
p220
sba(ischedule
Activity
p221
(dp222
g8
(lp223
S'14816774'
p224
aS'28359697'
p225
aS'33930505'
p226
aS'33877725'
p227
aS'24613625'
p228
aS'21029457'
p229
aS'14591033'
p230
aS'53202517'
p231
asg71
S'20'
p232
sg72
(ischedule
Group
p233
(dp234
g8
g223
sg77
S'Bioinformatica1'
p235
sbsg73
(iread_data
Room
p236
(dp237
g71
S'56'
p238
sg77
S'A1.10'
p239
sbsg79
g165
sg81
S'1'
p240
sg77
g220
sbaa(lp241
(ischedule
Activity
p242
(dp243
g8
(lp244
S'87900893'
p245
aS'87314964'
p246
ag86
aS'99453514'
p247
ag116
aS'93023961'
p248
aS'19337738'
p249
aS'66122625'
p250
aS'45414528'
p251
aS'97136582'
p252
ag173
aS'22323043'
p253
aS'98780382'
p254
aS'25330192'
p255
aS'59753700'
p256
aS'13996448'
p257
aS'91196968'
p258
aS'81022997'
p259
ag68
aS'70878567'
p260
aS'17823206'
p261
aS'13116738'
p262
ag87
aS'68360259'
p263
ag35
aS'52311353'
p264
aS'51566595'
p265
asg71
I1000
sg72
Nsg73
(iread_data
Room
p266
(dp267
g71
g130
sg77
g131
sbsg79
g80
sg81
I0
sg77
S'Data Mining'
p268
sba(ischedule
Activity
p269
(dp270
g8
(lp271
S'40434933'
p272
ag55
aS'14303208'
p273
aS'6249823'
p274
aS'28358060'
p275
aS'76903244'
p276
aS'43902015'
p277
aS'5615125'
p278
aS'39230359'
p279
aS'43460038'
p280
aS'22288615'
p281
ag30
ag143
aS'3474870'
p282
aS'16333449'
p283
aS'20618153'
p284
aS'49908313'
p285
aS'53512831'
p286
asg71
S'20'
p287
sg72
(ischedule
Group
p288
(dp289
g8
g271
sg77
S'Webprogrammeren en databases2'
p290
sbsg73
(iread_data
Room
p291
(dp292
g71
S'20'
p293
sg77
S'A1.08'
p294
sbsg79
g165
sg81
g102
sg77
S'Webprogrammeren en databases'
p295
sba(ischedule
Activity
p296
(dp297
g8
(lp298
g70
ag62
ag60
ag13
ag41
ag49
ag59
ag63
ag53
ag16
ag11
ag47
ag32
ag36
ag39
ag43
ag26
ag27
ag15
asg71
S'20'
p299
sg72
(ischedule
Group
p300
(dp301
g8
g298
sg77
S'Collectieve Intelligentie3'
p302
sbsg73
(iread_data
Room
p303
(dp304
g71
g163
sg77
g164
sbsg79
g165
sg81
g166
sg77
g82
sba(ischedule
Activity
p305
(dp306
g8
(lp307
S'23658570'
p308
aS'26207525'
p309
aS'56872729'
p310
ag203
aS'64947290'
p311
aS'94686490'
p312
aS'88752563'
p313
aS'83869542'
p314
aS'58083680'
p315
aS'46989508'
p316
ag24
aS'5085194'
p317
aS'70072978'
p318
ag48
ag224
aS'59397895'
p319
ag69
ag30
aS'40141996'
p320
ag66
aS'77960666'
p321
aS'47932106'
p322
aS'54540997'
p323
aS'15187217'
p324
aS'73823548'
p325
aS'86988337'
p326
asg71
S'40'
p327
sg72
(ischedule
Group
p328
(dp329
g8
g307
sg77
S'Databases 22'
p330
sbsg73
(iread_data
Room
p331
(dp332
g71
S'117'
p333
sg77
S'C0.110'
p334
sbsg79
g101
sg81
g102
sg77
S'Databases 2'
p335
sba(ischedule
Activity
p336
(dp337
g8
(lp338
S'66701209'
p339
ag174
aS'14398123'
p340
aS'25994016'
p341
ag108
asg71
S'15'
p342
sg72
(ischedule
Group
p343
(dp344
g8
g338
sg77
S'Project Genetic Algorithms2'
p345
sbsg73
(iread_data
Room
p346
(dp347
g71
g218
sg77
g219
sbsg79
g165
sg81
g102
sg77
S'Project Genetic Algorithms'
p348
sba(ischedule
Activity
p349
(dp350
g8
(lp351
S'16097870'
p352
aS'22871048'
p353
aS'54026378'
p354
aS'27298319'
p355
aS'36508571'
p356
aS'68409833'
p357
ag265
aS'62872965'
p358
aS'19858730'
p359
aS'88627897'
p360
ag121
aS'34806836'
p361
aS'72796858'
p362
asg71
S'10'
p363
sg72
(ischedule
Group
p364
(dp365
g8
g351
sg77
S'Autonomous Agents 23'
p366
sbsg73
(iread_data
Room
p367
(dp368
g71
g238
sg77
g239
sbsg79
g165
sg81
g166
sg77
g103
sba(ischedule
Activity
p369
(dp370
g8
(lp371
S'72895450'
p372
aS'86807027'
p373
aS'81116418'
p374
aS'11068043'
p375
aS'90103047'
p376
aS'13284244'
p377
aS'42406214'
p378
aS'40911986'
p379
aS'84110134'
p380
aS'74182182'
p381
aS'6939933'
p382
aS'75005528'
p383
aS'48503689'
p384
aS'34691309'
p385
aS'63939720'
p386
aS'19662602'
p387
ag88
ag37
ag180
aS'77831658'
p388
aS'63573738'
p389
aS'7957843'
p390
ag34
ag150
asg71
S'15'
p391
sg72
(ischedule
Group
p392
(dp393
g8
g371
sg77
S'Project Numerical Recipes3'
p394
sbsg73
(iread_data
Room
p395
(dp396
g71
g197
sg77
g198
sbsg79
g165
sg81
g166
sg77
S'Project Numerical Recipes'
p397
sbaa(lp398
(ischedule
Activity
p399
(dp400
g8
(lp401
S'57086672'
p402
aS'48357272'
p403
aS'72456780'
p404
aS'87830198'
p405
aS'33672995'
p406
aS'58480929'
p407
aS'34243356'
p408
aS'51542218'
p409
aS'82854435'
p410
aS'18477924'
p411
aS'73302736'
p412
ag209
aS'42115591'
p413
aS'97838175'
p414
aS'60661905'
p415
ag308
aS'13718298'
p416
aS'78821918'
p417
ag155
ag352
aS'4921119'
p418
aS'78822885'
p419
ag388
ag120
aS'41578612'
p420
ag353
aS'36785409'
p421
ag264
aS'34900967'
p422
ag69
ag317
aS'97019450'
p423
aS'83443653'
p424
aS'5595824'
p425
aS'94955328'
p426
aS'88737765'
p427
aS'23565001'
p428
aS'65318664'
p429
ag48
aS'62613937'
p430
aS'14637758'
p431
aS'48678993'
p432
aS'56544130'
p433
aS'72586808'
p434
aS'56815156'
p435
aS'70193386'
p436
aS'73350019'
p437
aS'18266644'
p438
aS'80188025'
p439
asg71
I1000
sg72
Nsg73
(iread_data
Room
p440
(dp441
g71
g197
sg77
g198
sbsg79
g80
sg81
I0
sg77
S'Analysemethoden en -technieken'
p442
sba(ischedule
Activity
p443
(dp444
g8
(lp445
S'78136904'
p446
aS'21095566'
p447
ag326
aS'52715680'
p448
ag35
aS'41527759'
p449
aS'51509565'
p450
ag114
ag156
ag122
ag141
ag28
ag210
ag46
aS'14671406'
p451
ag52
aS'26260141'
p452
ag193
aS'8522855'
p453
aS'88596522'
p454
aS'66433883'
p455
aS'12077419'
p456
aS'23983476'
p457
aS'40343779'
p458
ag311
aS'67817269'
p459
ag68
aS'36903574'
p460
aS'53585410'
p461
aS'91527663'
p462
aS'23652927'
p463
ag179
ag355
ag265
ag177
ag277
aS'41585485'
p464
aS'19540225'
p465
aS'64554442'
p466
ag282
aS'57467488'
p467
ag372
asg71
S'25'
p468
sg72
(ischedule
Group
p469
(dp470
g8
g445
sg77
S'Algoritmen en complexiteit1'
p471
sbsg73
(iread_data
Room
p472
(dp473
g71
g333
sg77
g334
sbsg79
g101
sg81
g240
sg77
S'Algoritmen en complexiteit'
p474
sba(ischedule
Activity
p475
(dp476
g8
(lp477
g182
ag50
ag144
ag227
ag403
aS'95631564'
p478
aS'27582862'
p479
ag15
ag108
aS'1048485'
p480
aS'82872148'
p481
ag59
ag429
aS'89985072'
p482
ag354
aS'27950803'
p483
aS'4568018'
p484
aS'59544049'
p485
aS'31247305'
p486
aS'88176729'
p487
ag380
aS'45915482'
p488
ag253
aS'14309255'
p489
aS'9287708'
p490
asg71
S'40'
p491
sg72
(ischedule
Group
p492
(dp493
g8
g477
sg77
S'Software engineering2'
p494
sbsg73
(iread_data
Room
p495
(dp496
g71
S'41'
p497
sg77
S'A1.04'
p498
sbsg79
g101
sg81
g102
sg77
S'Software engineering'
p499
sba(ischedule
Activity
p500
(dp501
g8
(lp502
S'47260040'
p503
ag482
ag176
aS'38499176'
p504
ag484
aS'14383795'
p505
asg71
S'15'
p506
sg72
(ischedule
Group
p507
(dp508
g8
g502
sg77
S'Compilerbouw practicum1'
p509
sbsg73
(iread_data
Room
p510
(dp511
g71
g163
sg77
g164
sbsg79
g165
sg81
g240
sg77
S'Compilerbouw practicum'
p512
sba(ischedule
Activity
p513
(dp514
g8
(lp515
S'89338938'
p516
ag325
ag257
ag313
aS'48308205'
p517
aS'14941752'
p518
aS'32183908'
p519
ag115
ag24
ag259
aS'73236988'
p520
aS'28618400'
p521
aS'22731474'
p522
ag62
asg71
g391
sg72
(ischedule
Group
p523
(dp524
g8
g515
sg77
S'Project Numerical Recipes1'
p525
sbsg73
(iread_data
Room
p526
(dp527
g71
g293
sg77
g294
sbsg79
g165
sg81
g240
sg77
g397
sbaa(lp528
(ischedule
Activity
p529
(dp530
g8
(lp531
S'55412918'
p532
ag408
ag258
ag63
ag13
ag312
aS'80998260'
p533
ag230
aS'83210352'
p534
aS'34588570'
p535
aS'79617364'
p536
ag10
ag185
aS'81218347'
p537
aS'55474917'
p538
ag56
aS'90743504'
p539
aS'96118484'
p540
aS'79937969'
p541
ag504
ag37
ag171
ag282
ag383
ag420
ag352
ag283
ag426
ag356
aS'80709893'
p542
aS'54074680'
p543
ag39
ag181
aS'32595335'
p544
ag418
aS'71839156'
p545
ag517
ag145
ag31
ag358
ag310
aS'21311067'
p546
aS'10149535'
p547
aS'61060652'
p548
ag413
aS'58866007'
p549
ag428
aS'26172512'
p550
ag264
ag357
aS'66570705'
p551
ag381
aS'670011'
p552
aS'16011419'
p553
asg71
I1000
sg72
Nsg73
(iread_data
Room
p554
(dp555
g71
S'60'
p556
sg77
S'C1.112'
p557
sbsg79
g80
sg81
I0
sg77
S'Lineaire Algebra'
p558
sba(ischedule
Activity
p559
(dp560
g8
(lp561
g224
ag63
ag482
ag229
ag536
ag205
ag203
ag522
ag435
ag487
ag173
ag225
ag520
ag485
aS'64600457'
p562
ag147
ag211
aS'22826928'
p563
ag208
ag228
aS'247918'
p564
ag206
aS'44868097'
p565
ag35
ag86
ag209
ag354
ag227
ag375
ag204
ag231
ag230
aS'5298748'
p566
ag62
aS'66120270'
p567
aS'6913074'
p568
ag226
ag207
ag260
aS'20883994'
p569
ag210
ag484
ag41
ag388
ag126
asg71
I1000
sg72
Nsg73
(iread_data
Room
p570
(dp571
g71
g76
sg77
g78
sbsg79
g80
sg81
I0
sg77
g220
sba(ischedule
Activity
p572
(dp573
g8
g106
sg71
I1000
sg72
Nsg73
(iread_data
Room
p574
(dp575
g71
g238
sg77
g239
sbsg79
g80
sg81
I0
sg77
g132
sba(ischedule
Activity
p576
(dp577
g8
(lp578
g65
ag46
ag51
ag17
ag52
ag18
ag23
ag67
ag21
ag29
ag42
ag19
ag38
ag66
ag58
ag45
ag55
ag40
ag44
asg71
S'20'
p579
sg72
(ischedule
Group
p580
(dp581
g8
g578
sg77
S'Collectieve Intelligentie1'
p582
sbsg73
(iread_data
Room
p583
(dp584
g71
g163
sg77
g164
sbsg79
g101
sg81
g240
sg77
g82
sba(ischedule
Activity
p585
(dp586
g8
(lp587
S'63634350'
p588
aS'14138904'
p589
aS'91250534'
p590
aS'11459236'
p591
aS'41644639'
p592
aS'1695839'
p593
ag273
ag454
aS'42297781'
p594
aS'55103073'
p595
aS'535689'
p596
aS'3407554'
p597
ag149
aS'74361881'
p598
ag46
ag545
aS'5892092'
p599
aS'99272880'
p600
aS'32204977'
p601
asg71
g506
sg72
(ischedule
Group
p602
(dp603
g8
g587
sg77
S'Compilerbouw practicum3'
p604
sbsg73
(iread_data
Room
p605
(dp606
g71
g293
sg77
g294
sbsg79
g165
sg81
g166
sg77
g512
sba(ischedule
Activity
p607
(dp608
g8
(lp609
g446
aS'72665524'
p610
aS'60352393'
p611
ag569
aS'1886996'
p612
aS'40633534'
p613
aS'27064249'
p614
ag521
ag51
aS'72683344'
p615
ag373
aS'47477884'
p616
ag205
aS'39429093'
p617
ag191
aS'70844780'
p618
asg71
S'10'
p619
sg72
(ischedule
Group
p620
(dp621
g8
g609
sg77
S'Advanced Heuristics2'
p622
sbsg73
(iread_data
Room
p623
(dp624
g71
g497
sg77
g498
sbsg79
g165
sg81
g102
sg77
S'Advanced Heuristics'
p625
sbaa(lp626
(ischedule
Activity
p627
(dp628
g8
(lp629
g36
ag147
ag456
aS'47982619'
p630
ag136
aS'76487754'
p631
ag517
ag18
ag66
aS'77636749'
p632
ag489
ag421
aS'75664412'
p633
aS'31194811'
p634
aS'97371272'
p635
aS'69086548'
p636
aS'7106649'
p637
ag601
aS'58565406'
p638
ag90
ag516
aS'4697362'
p639
aS'21192048'
p640
asg71
S'20'
p641
sg72
(ischedule
Group
p642
(dp643
g8
g629
sg77
S'Technology for games1'
p644
sbsg73
(iread_data
Room
p645
(dp646
g71
S'56'
p647
sg77
S'A1.10'
p648
sbsg79
g101
sg81
g240
sg77
S'Technology for games'
p649
sba(ischedule
Activity
p650
(dp651
g8
(lp652
g55
aS'88855695'
p653
aS'65978354'
p654
aS'62363761'
p655
ag273
ag70
aS'79167252'
p656
ag313
ag562
ag209
ag312
aS'22168693'
p657
aS'53139134'
p658
aS'56348773'
p659
ag148
aS'87602030'
p660
asg71
S'40'
p661
sg72
(ischedule
Group
p662
(dp663
g8
g652
sg77
S'Calculus 21'
p664
sbsg73
(iread_data
Room
p665
(dp666
g71
g130
sg77
g131
sbsg79
g101
sg81
g240
sg77
S'Calculus 2'
p667
sba(ischedule
Activity
p668
(dp669
g8
g445
sg71
S'25'
p670
sg72
g469
sg73
(iread_data
Room
p671
(dp672
g71
g76
sg77
g78
sbsg79
g165
sg81
g240
sg77
g474
sba(ischedule
Activity
p673
(dp674
g8
(lp675
g356
ag357
ag355
ag352
ag31
ag91
ag354
aS'52552718'
p676
ag86
ag361
ag90
ag360
ag121
ag88
ag92
ag265
ag359
ag89
ag362
ag353
ag87
ag358
asg71
I1000
sg72
Nsg73
(iread_data
Room
p677
(dp678
g71
S'22'
p679
sg77
S'A1.06'
p680
sbsg79
g80
sg81
I0
sg77
g103
sba(ischedule
Activity
p681
(dp682
g8
(lp683
g253
ag256
ag173
ag250
ag68
ag251
ag35
ag246
ag116
ag265
ag249
ag259
ag248
ag247
ag254
ag252
ag257
ag261
ag263
asg71
S'10'
p684
sg72
(ischedule
Group
p685
(dp686
g8
g683
sg77
S'Data Mining3'
p687
sbsg73
(iread_data
Room
p688
(dp689
g71
g293
sg77
g294
sbsg79
g165
sg81
g166
sg77
g268
sba(ischedule
Activity
p690
(dp691
g8
g223
sg71
g212
sg72
g233
sg73
(iread_data
Room
p692
(dp693
g71
g218
sg77
g219
sbsg79
g101
sg81
g240
sg77
g220
sba(ischedule
Activity
p694
(dp695
g8
(lp696
g124
ag12
ag280
aS'59289233'
p697
ag549
aS'34872117'
p698
aS'89180944'
p699
ag151
ag272
ag547
ag615
aS'27925117'
p700
ag53
aS'20331158'
p701
aS'70015932'
p702
ag120
aS'29718115'
p703
ag28
ag589
aS'13798030'
p704
ag521
asg71
I1000
sg72
Nsg73
(iread_data
Room
p705
(dp706
g71
g197
sg77
g198
sbsg79
g80
sg81
I0
sg77
S'Architectuur en computerorganisatie'
p707
sbaaa(lp708
(lp709
(ischedule
Activity
p710
(dp711
g8
(lp712
g426
ag453
aS'9731271'
p713
ag261
ag125
aS'72547110'
p714
aS'91139627'
p715
ag408
ag137
aS'58332004'
p716
ag588
ag115
ag33
ag204
ag120
aS'28957789'
p717
ag446
ag69
aS'32705005'
p718
aS'7492204'
p719
ag701
aS'44940353'
p720
aS'39919665'
p721
ag139
ag569
ag449
ag203
ag381
aS'79858178'
p722
aS'78735049'
p723
ag635
aS'37498675'
p724
ag485
ag340
ag108
ag486
aS'65003379'
p725
ag380
ag89
aS'84524083'
p726
aS'51186803'
p727
ag600
aS'34262212'
p728
ag504
ag278
aS'63955238'
p729
ag117
ag413
ag636
aS'54569540'
p730
aS'79366078'
p731
ag17
ag632
ag516
ag41
aS'10792879'
p732
ag538
aS'31633723'
p733
aS'63408522'
p734
aS'58469172'
p735
aS'46570285'
p736
ag409
ag423
aS'20239127'
p737
ag464
aS'10872825'
p738
aS'23391676'
p739
ag279
aS'38329455'
p740
ag438
ag174
ag451
ag118
ag230
aS'39659121'
p741
ag258
aS'59075181'
p742
ag186
aS'47605891'
p743
ag537
aS'82688900'
p744
ag460
aS'24875739'
p745
ag522
asg71
I1000
sg72
Nsg73
(iread_data
Room
p746
(dp747
g71
g76
sg77
g78
sbsg79
g80
sg81
I0
sg77
S'Kansrekenen 2'
p748
sba(ischedule
Activity
p749
(dp750
g8
(lp751
g421
ag51
ag633
ag631
ag146
ag147
ag632
ag87
ag639
ag272
ag638
ag601
ag547
ag505
aS'77264363'
p752
ag253
aS'12430748'
p753
aS'92496780'
p754
ag489
ag456
ag637
ag136
ag516
ag630
ag636
ag66
aS'70336464'
p755
ag420
ag209
ag635
aS'93041523'
p756
ag18
ag36
ag640
ag634
ag274
ag90
ag517
asg71
I1000
sg72
Nsg73
(iread_data
Room
p757
(dp758
g71
g556
sg77
g557
sbsg79
g80
sg81
I0
sg77
g649
sba(ischedule
Activity
p759
(dp760
g8
(lp761
g372
ag231
aS'2416751'
p762
aS'67073567'
p763
aS'24891081'
p764
aS'77392404'
p765
ag53
ag187
ag699
ag227
aS'94930277'
p766
ag614
ag191
aS'76648468'
p767
ag402
aS'41790793'
p768
aS'1137946'
p769
aS'69459473'
p770
aS'10698627'
p771
aS'17092717'
p772
ag11
asg71
g287
sg72
(ischedule
Group
p773
(dp774
g8
g761
sg77
S'Webprogrammeren en databases1'
p775
sbsg73
(iread_data
Room
p776
(dp777
g71
g197
sg77
g198
sbsg79
g165
sg81
g240
sg77
g295
sba(ischedule
Activity
p778
(dp779
g8
(lp780
S'13658563'
p781
ag260
ag14
ag36
aS'17496687'
p782
ag457
ag262
ag591
ag632
asg71
S'15'
p783
sg72
(ischedule
Group
p784
(dp785
g8
g780
sg77
S'Informatie- en organsatieontwerp2'
p786
sbsg73
(iread_data
Room
p787
(dp788
g71
g293
sg77
g294
sbsg79
g101
sg81
g102
sg77
S'Informatie- en organsatieontwerp'
p789
sba(ischedule
Activity
p790
(dp791
g8
g351
sg71
g93
sg72
g364
sg73
(iread_data
Room
p792
(dp793
g71
g238
sg77
g239
sbsg79
g101
sg81
g166
sg77
g103
sba(ischedule
Activity
p794
(dp795
g8
(lp796
g31
aS'48198668'
p797
aS'4709948'
p798
ag22
aS'13218321'
p799
aS'18144425'
p800
ag489
aS'99283252'
p801
ag126
aS'84449005'
p802
ag16
aS'59111489'
p803
ag716
aS'66621166'
p804
asg71
S'20'
p805
sg72
(ischedule
Group
p806
(dp807
g8
g796
sg77
S'Moderne Databases1'
p808
sbsg73
(iread_data
Room
p809
(dp810
g71
g497
sg77
g498
sbsg79
g101
sg81
g240
sg77
g167
sbaa(lp811
(ischedule
Activity
p812
(dp813
g8
g561
sg71
I1000
sg72
Nsg73
(iread_data
Room
p814
(dp815
g71
g218
sg77
g219
sbsg79
g80
sg81
I0
sg77
g220
sba(ischedule
Activity
p816
(dp817
g8
g578
sg71
g299
sg72
g580
sg73
(iread_data
Room
p818
(dp819
g71
g163
sg77
g164
sbsg79
g165
sg81
g240
sg77
g82
sba(ischedule
Activity
p820
(dp821
g8
(lp822
g660
ag802
ag228
ag19
ag405
ag427
ag770
ag20
aS'82066165'
p823
ag192
ag592
ag59
aS'14179347'
p824
ag598
aS'5526560'
p825
ag483
aS'55480737'
p826
aS'25077484'
p827
asg71
g342
sg72
(ischedule
Group
p828
(dp829
g8
g822
sg77
S'Project Genetic Algorithms3'
p830
sbsg73
(iread_data
Room
p831
(dp832
g71
g238
sg77
g239
sbsg79
g165
sg81
g166
sg77
g348
sba(ischedule
Activity
p833
(dp834
g8
g696
sg71
I1000
sg72
Nsg73
(iread_data
Room
p835
(dp836
g71
g293
sg77
g294
sbsg79
g80
sg81
I0
sg77
g707
sba(ischedule
Activity
p837
(dp838
g8
(lp839
g601
ag90
aS'75585647'
p840
ag262
ag438
ag716
ag781
ag14
ag703
ag632
aS'8557857'
p841
aS'23257088'
p842
ag457
aS'19958553'
p843
ag782
ag146
ag36
aS'36748818'
p844
ag591
ag260
aS'92977271'
p845
asg71
I1000
sg72
Nsg73
(iread_data
Room
p846
(dp847
g71
g333
sg77
g334
sbsg79
g80
sg81
I0
sg77
g789
sba(ischedule
Activity
p848
(dp849
g8
(lp850
g261
aS'64053722'
p851
aS'54395877'
p852
ag308
asg71
S'20'
p853
sg72
(ischedule
Group
p854
(dp855
g8
g850
sg77
S'Programmeren in Java 26'
p856
sbsg73
(iread_data
Room
p857
(dp858
g71
g197
sg77
g198
sbsg79
g165
sg81
S'6'
p859
sg77
S'Programmeren in Java 2'
p860
sbaa(lp861
(ischedule
Activity
p862
(dp863
g8
g9
sg71
I1000
sg72
Nsg73
(iread_data
Room
p864
(dp865
g71
g76
sg77
g78
sbsg79
g80
sg81
I0
sg77
g82
sba(ischedule
Activity
p866
(dp867
g8
g561
sg71
I1000
sg72
Nsg73
(iread_data
Room
p868
(dp869
g71
g218
sg77
g219
sbsg79
g80
sg81
I0
sg77
g220
sba(ischedule
Activity
p870
(dp871
g8
(lp872
g448
aS'20095994'
p873
ag765
aS'32044893'
p874
ag326
aS'27370083'
p875
ag730
aS'68286356'
p876
aS'49922855'
p877
ag726
ag798
ag611
ag568
aS'51415617'
p878
ag618
asg71
S'20'
p879
sg72
(ischedule
Group
p880
(dp881
g8
g872
sg77
S'Reflectie op de digitale cultuur2'
p882
sbsg73
(iread_data
Room
p883
(dp884
g71
g197
sg77
g198
sbsg79
g101
sg81
g102
sg77
S'Reflectie op de digitale cultuur'
p885
sba(ischedule
Activity
p886
(dp887
g8
(lp888
g802
ag321
aS'82390428'
p889
aS'96554914'
p890
ag87
aS'27805666'
p891
ag402
ag446
asg71
g879
sg72
(ischedule
Group
p892
(dp893
g8
g888
sg77
S'Reflectie op de digitale cultuur1'
p894
sbsg73
(iread_data
Room
p895
(dp896
g71
g163
sg77
g164
sbsg79
g101
sg81
g240
sg77
g885
sba(ischedule
Activity
p897
(dp898
g8
(lp899
g417
ag432
aS'58253841'
p900
ag420
ag700
ag453
ag357
aS'75680261'
p901
aS'86180471'
p902
aS'51673172'
p903
ag801
ag122
ag613
asg71
g342
sg72
(ischedule
Group
p904
(dp905
g8
g899
sg77
S'Project Genetic Algorithms1'
p906
sbsg73
(iread_data
Room
p907
(dp908
g71
g293
sg77
g294
sbsg79
g165
sg81
g240
sg77
g348
sba(ischedule
Activity
p909
(dp910
g8
(lp911
g181
asg71
g468
sg72
(ischedule
Group
p912
(dp913
g8
g911
sg77
S'Algoritmen en complexiteit2'
p914
sbsg73
(iread_data
Room
p915
(dp916
g71
g238
sg77
g239
sbsg79
g101
sg81
g102
sg77
g474
sba(ischedule
Activity
p917
(dp918
g8
g135
sg71
g805
sg72
g158
sg73
(iread_data
Room
p919
(dp920
g71
g497
sg77
g498
sbsg79
g101
sg81
g166
sg77
g167
sbaa(lp921
(ischedule
Activity
p922
(dp923
g8
(lp924
g283
ag11
ag279
ag765
ag280
ag402
ag771
ag274
ag53
ag278
ag285
ag227
ag281
ag767
ag277
ag273
ag231
ag284
ag275
ag372
ag143
ag764
ag191
ag286
ag187
ag276
ag699
ag770
ag769
ag766
ag762
ag768
ag772
ag30
ag282
ag55
ag614
ag272
ag763
asg71
I1000
sg72
Nsg73
(iread_data
Room
p925
(dp926
g71
g497
sg77
g498
sbsg79
g80
sg81
I0
sg77
g295
sba(ischedule
Activity
p927
(dp928
g8
(lp929
g732
ag186
ag150
ag151
ag40
aS'92665222'
p930
ag117
ag489
ag192
ag372
aS'43689934'
p931
ag153
aS'34110913'
p932
ag111
ag142
ag339
aS'80135353'
p933
aS'8464817'
p934
ag181
aS'94687383'
p935
aS'95007221'
p936
ag597
aS'88636924'
p937
ag634
ag208
aS'15911353'
p938
aS'75759231'
p939
aS'98105190'
p940
ag89
aS'44391517'
p941
ag633
ag517
asg71
S'40'
p942
sg72
(ischedule
Group
p943
(dp944
g8
g929
sg77
S'Compilerbouw1'
p945
sbsg73
(iread_data
Room
p946
(dp947
g71
g197
sg77
g198
sbsg79
g165
sg81
g240
sg77
S'Compilerbouw'
p948
sba(ischedule
Activity
p949
(dp950
g8
g675
sg71
I1000
sg72
Nsg73
(iread_data
Room
p951
(dp952
g71
g293
sg77
g294
sbsg79
g80
sg81
I0
sg77
g103
sba(ischedule
Activity
p953
(dp954
g8
(lp955
S'39905995'
p956
ag563
ag845
ag842
ag281
ag110
ag538
ag716
ag257
aS'28943658'
p957
ag185
aS'79879876'
p958
aS'3678531'
p959
ag630
ag418
aS'7386961'
p960
ag798
aS'62105897'
p961
ag318
aS'88597745'
p962
ag457
aS'23215240'
p963
ag91
ag735
ag140
ag208
ag415
aS'85284256'
p964
aS'51791169'
p965
asg71
g853
sg72
(ischedule
Group
p966
(dp967
g8
g955
sg77
S'Programmeren in Java 23'
p968
sbsg73
(iread_data
Room
p969
(dp970
g71
g238
sg77
g239
sbsg79
g165
sg81
g166
sg77
g860
sba(ischedule
Activity
p971
(dp972
g8
(lp973
g60
ag404
ag408
aS'62736669'
p974
ag611
ag458
ag389
ag467
aS'54772132'
p975
ag21
ag65
ag340
ag655
ag226
ag405
ag309
aS'123355'
p976
ag480
asg71
S'20'
p977
sg72
(ischedule
Group
p978
(dp979
g8
g973
sg77
S'Netwerken en systeembeveiliging3'
p980
sbsg73
(iread_data
Room
p981
(dp982
g71
g218
sg77
g219
sbsg79
g165
sg81
g166
sg77
S'Netwerken en systeembeveiliging'
p983
sba(ischedule
Activity
p984
(dp985
g8
(lp986
g10
ag33
ag37
ag35
ag69
ag34
ag20
ag22
ag50
ag48
ag28
ag68
ag54
ag25
ag57
ag56
ag24
asg71
g299
sg72
(ischedule
Group
p987
(dp988
g8
g986
sg77
S'Collectieve Intelligentie2'
p989
sbsg73
(iread_data
Room
p990
(dp991
g71
g163
sg77
g164
sbsg79
g165
sg81
g102
sg77
g82
sbaa(lp992
(ischedule
Activity
p993
(dp994
g8
(lp995
g518
ag155
ag253
ag548
ag766
ag224
ag460
ag940
aS'58736785'
p996
ag403
ag60
ag42
ag589
ag742
ag545
ag845
ag136
ag87
aS'76393508'
p997
ag373
ag16
ag701
ag23
ag537
aS'87210640'
p998
ag250
ag90
ag781
aS'31897288'
p999
aS'4353500'
p1000
ag484
aS'45660925'
p1001
aS'53775014'
p1002
ag230
ag353
aS'97417002'
p1003
ag359
ag36
ag467
ag958
aS'20830477'
p1004
ag423
ag424
ag204
asg71
I1000
sg72
Nsg73
(iread_data
Room
p1005
(dp1006
g71
g647
sg77
g648
sbsg79
g80
sg81
I0
sg77
S'Heuristieken 1'
p1007
sba(ischedule
Activity
p1008
(dp1009
g8
(lp1010
S'56121590'
p1011
ag224
ag418
ag409
ag44
ag313
ag842
ag141
ag325
ag320
ag189
ag467
ag272
ag825
ag48
ag206
ag315
ag63
ag552
ag31
ag316
ag319
ag30
ag323
ag324
ag676
ag308
ag317
ag265
ag311
ag564
ag383
ag314
ag698
ag203
ag611
ag417
ag974
ag66
ag22
ag902
ag309
aS'90474003'
p1012
aS'27123462'
p1013
ag772
ag326
aS'12091019'
p1014
ag136
ag137
ag318
ag50
ag616
ag121
aS'56191333'
p1015
ag310
ag321
aS'13132925'
p1016
ag322
ag404
ag204
ag69
ag24
ag205
ag277
aS'4529208'
p1017
ag13
ag716
ag462
ag827
ag362
ag28
ag312
asg71
I1000
sg72
Nsg73
(iread_data
Room
p1018
(dp1019
g71
g76
sg77
g78
sbsg79
g80
sg81
I0
sg77
g335
sba(ischedule
Activity
p1020
(dp1021
g8
(lp1022
g588
ag726
ag660
ag114
ag48
ag700
ag143
ag402
aS'5739011'
p1023
ag352
ag314
ag123
aS'99975346'
p1024
ag996
asg71
S'20'
p1025
sg72
(ischedule
Group
p1026
(dp1027
g8
g1022
sg77
S'Heuristieken 21'
p1028
sbsg73
(iread_data
Room
p1029
(dp1030
g71
g99
sg77
g100
sbsg79
g101
sg81
g240
sg77
S'Heuristieken 2'
p1031
sba(ischedule
Activity
p1032
(dp1033
g8
(lp1034
g209
ag505
ag756
ag272
ag87
ag752
ag753
ag146
ag754
ag51
ag547
ag755
ag253
ag420
ag274
asg71
g641
sg72
(ischedule
Group
p1035
(dp1036
g8
g1034
sg77
S'Technology for games2'
p1037
sbsg73
(iread_data
Room
p1038
(dp1039
g71
g163
sg77
g164
sbsg79
g101
sg81
g102
sg77
g649
sba(ischedule
Activity
p1040
(dp1041
g8
(lp1042
g520
ag86
ag35
ag260
ag173
ag354
ag484
ag522
ag63
ag566
ag487
ag568
ag485
ag375
ag126
ag565
ag567
ag147
ag562
ag569
ag563
ag482
ag536
ag564
ag388
ag41
ag435
ag62
asg71
g212
sg72
(ischedule
Group
p1043
(dp1044
g8
g1042
sg77
S'Bioinformatica3'
p1045
sbsg73
(iread_data
Room
p1046
(dp1047
g71
g197
sg77
g198
sbsg79
g101
sg81
g166
sg77
g220
sba(ischedule
Activity
p1048
(dp1049
g8
g929
sg71
S'40'
p1050
sg72
g943
sg73
(iread_data
Room
p1051
(dp1052
g71
g218
sg77
g219
sbsg79
g101
sg81
g240
sg77
g948
sba(ischedule
Activity
p1053
(dp1054
g8
(lp1055
g264
ag87
ag245
ag258
asg71
S'10'
p1056
sg72
(ischedule
Group
p1057
(dp1058
g8
g1055
sg77
S'Data Mining1'
p1059
sbsg73
(iread_data
Room
p1060
(dp1061
g71
g497
sg77
g498
sbsg79
g101
sg81
g240
sg77
g268
sbaaa(lp1062
(lp1063
(ischedule
Activity
p1064
(dp1065
g8
(lp1066
g171
ag737
ag878
ag802
ag483
ag798
ag875
ag107
ag405
ag568
ag326
ag1012
ag730
aS'36213792'
p1067
ag891
ag87
ag416
ag353
ag781
ag420
ag566
aS'51052738'
p1068
ag874
ag1024
ag877
ag115
ag726
ag618
ag611
ag402
ag247
ag889
ag256
aS'92778619'
p1069
ag876
ag140
ag890
ag22
ag24
ag765
ag873
ag421
ag446
ag378
ag321
ag448
ag563
ag415
ag125
ag147
ag436
asg71
I1000
sg72
Nsg73
(iread_data
Room
p1070
(dp1071
g71
g76
sg77
g78
sbsg79
g80
sg81
I0
sg77
g885
sba(ischedule
Activity
p1072
(dp1073
g8
g531
sg71
I1000
sg72
Nsg73
(iread_data
Room
p1074
(dp1075
g71
g556
sg77
g557
sbsg79
g80
sg81
I0
sg77
g558
sba(ischedule
Activity
p1076
(dp1077
g8
g477
sg71
S'40'
p1078
sg72
g492
sg73
(iread_data
Room
p1079
(dp1080
g71
g130
sg77
g131
sbsg79
g165
sg81
g102
sg77
g499
sba(ischedule
Activity
p1081
(dp1082
g8
(lp1083
g460
ag52
ag372
ag466
ag447
ag451
ag446
ag193
ag457
ag68
ag282
ag179
ag311
ag265
ag181
ag452
ag28
ag450
ag449
ag459
ag458
ag46
ag277
ag122
ag454
ag35
ag455
ag114
ag463
ag467
ag448
ag464
ag210
ag465
ag461
ag156
ag177
ag326
ag355
ag141
ag462
ag456
ag453
asg71
I1000
sg72
Nsg73
(iread_data
Room
p1084
(dp1085
g71
g647
sg77
g648
sbsg79
g80
sg81
I0
sg77
g474
sba(ischedule
Activity
p1086
(dp1087
g8
(lp1088
g716
ag438
ag842
ag146
ag844
ag90
ag845
ag840
ag601
ag843
ag841
ag703
asg71
S'15'
p1089
sg72
(ischedule
Group
p1090
(dp1091
g8
g1088
sg77
S'Informatie- en organsatieontwerp1'
p1092
sbsg73
(iread_data
Room
p1093
(dp1094
g71
g679
sg77
g680
sbsg79
g165
sg81
g240
sg77
g789
sba(ischedule
Activity
p1095
(dp1096
g8
(lp1097
g86
ag260
ag255
ag262
asg71
g1056
sg72
(ischedule
Group
p1098
(dp1099
g8
g1097
sg77
S'Data Mining2'
p1100
sbsg73
(iread_data
Room
p1101
(dp1102
g71
g293
sg77
g294
sbsg79
g101
sg81
g102
sg77
g268
sba(ischedule
Activity
p1103
(dp1104
g8
(lp1105
g676
asg71
g363
sg72
(ischedule
Group
p1106
(dp1107
g8
g1105
sg77
S'Autonomous Agents 21'
p1108
sbsg73
(iread_data
Room
p1109
(dp1110
g71
g197
sg77
g198
sbsg79
g165
sg81
g240
sg77
g103
sbaa(lp1111
(ischedule
Activity
p1112
(dp1113
g8
(lp1114
g610
ag902
ag382
ag406
ag653
ag245
ag900
ag155
ag536
ag52
ag144
ag718
ag151
ag373
ag42
ag322
ag840
ag325
ag452
aS'55530367'
p1115
ag122
ag959
ag25
aS'11593163'
p1116
aS'6709529'
p1117
ag21
ag547
ag655
ag172
ag67
ag488
aS'78544592'
p1118
ag658
ag313
ag182
ag141
ag659
ag461
aS'75446434'
p1119
ag656
aS'77306636'
p1120
ag961
aS'58040377'
p1121
ag717
ag320
aS'61520025'
p1122
ag735
ag616
ag732
aS'82412626'
p1123
ag209
aS'58699305'
p1124
ag588
ag562
ag308
ag355
ag657
aS'93361408'
p1125
aS'19717077'
p1126
aS'34173695'
p1127
ag745
ag532
ag148
ag412
ag273
ag381
ag736
ag403
ag352
aS'59220392'
p1128
ag614
aS'70939718'
p1129
ag723
ag433
ag188
ag1014
aS'37279234'
p1130
ag55
ag229
aS'75623387'
p1131
ag439
ag312
aS'79888156'
p1132
ag565
ag107
ag700
aS'10609762'
p1133
ag117
ag428
ag310
aS'72526473'
p1134
ag568
ag230
ag713
ag208
ag224
ag824
ag660
ag654
ag70
aS'23628642'
p1135
ag192
ag203
aS'31306819'
p1136
aS'65408517'
p1137
ag278
asg71
I1000
sg72
Nsg73
(iread_data
Room
p1138
(dp1139
g71
g76
sg77
g78
sbsg79
g80
sg81
I0
sg77
g667
sba(ischedule
Activity
p1140
(dp1141
g8
(lp1142
g63
ag13
ag409
ag827
ag265
ag277
ag205
ag552
ag362
ag44
ag1015
ag31
ag141
ag698
ag611
ag272
ag28
ag974
ag204
ag676
ag902
ag1013
ag462
ag842
ag22
ag418
ag1017
ag383
ag1016
ag1012
ag189
ag772
ag616
ag404
ag50
ag137
ag417
ag136
ag467
ag825
ag564
ag121
ag716
ag1014
ag206
ag1011
asg71
g327
sg72
(ischedule
Group
p1143
(dp1144
g8
g1142
sg77
S'Databases 21'
p1145
sbsg73
(iread_data
Room
p1146
(dp1147
g71
g197
sg77
g198
sbsg79
g101
sg81
g240
sg77
g335
sba(ischedule
Activity
p1148
(dp1149
g8
(lp1150
g753
ag175
aS'37419523'
p1151
aS'21070547'
p1152
ag874
ag65
asg71
g391
sg72
(ischedule
Group
p1153
(dp1154
g8
g1150
sg77
S'Project Numerical Recipes2'
p1155
sbsg73
(iread_data
Room
p1156
(dp1157
g71
g497
sg77
g498
sbsg79
g165
sg81
g102
sg77
g397
sba(ischedule
Activity
p1158
(dp1159
g8
g85
sg71
g363
sg72
g94
sg73
(iread_data
Room
p1160
(dp1161
g71
g218
sg77
g219
sbsg79
g165
sg81
g102
sg77
g103
sba(ischedule
Activity
p1162
(dp1163
g8
g761
sg71
S'20'
p1164
sg72
g773
sg73
(iread_data
Room
p1165
(dp1166
g71
g163
sg77
g164
sbsg79
g101
sg81
g240
sg77
g295
sba(ischedule
Activity
p1167
(dp1168
g8
g1105
sg71
g93
sg72
g1106
sg73
(iread_data
Room
p1169
(dp1170
g71
g293
sg77
g294
sbsg79
g101
sg81
g240
sg77
g103
sba(ischedule
Activity
p1171
(dp1172
g8
(lp1173
g453
ag434
ag173
ag183
asg71
g977
sg72
(ischedule
Group
p1174
(dp1175
g8
g1173
sg77
S'Netwerken en systeembeveiliging1'
p1176
sbsg73
(iread_data
Room
p1177
(dp1178
g71
g238
sg77
g239
sbsg79
g165
sg81
g240
sg77
g983
sbaa(lp1179
(ischedule
Activity
p1180
(dp1181
g8
g751
sg71
I1000
sg72
Nsg73
(iread_data
Room
p1182
(dp1183
g71
S'48'
p1184
sg77
S'B0.201'
p1185
sbsg79
g80
sg81
I0
sg77
g649
sba(ischedule
Activity
p1186
(dp1187
g8
(lp1188
g460
ag171
ag116
ag1121
ag464
ag203
ag1004
ag384
ag771
ag56
ag422
ag552
ag311
ag1130
ag65
ag67
ag326
ag568
ag117
aS'73196865'
p1189
ag251
ag1069
ag11
aS'41153310'
p1190
ag109
aS'51593625'
p1191
ag148
ag49
ag14
ag455
aS'10702778'
p1192
asg71
g853
sg72
(ischedule
Group
p1193
(dp1194
g8
g1188
sg77
S'Programmeren in Java 22'
p1195
sbsg73
(iread_data
Room
p1196
(dp1197
g71
g497
sg77
g498
sbsg79
g165
sg81
g102
sg77
g860
sba(ischedule
Activity
p1198
(dp1199
g8
g796
sg71
g157
sg72
g806
sg73
(iread_data
Room
p1200
(dp1201
g71
g218
sg77
g219
sbsg79
g165
sg81
g240
sg77
g167
sba(ischedule
Activity
p1202
(dp1203
g8
(lp1204
S'63096281'
p1205
ag284
ag123
ag941
ag504
ag588
ag933
asg71
g853
sg72
(ischedule
Group
p1206
(dp1207
g8
g1204
sg77
S'Programmeren in Java 21'
p1208
sbsg73
(iread_data
Room
p1209
(dp1210
g71
g163
sg77
g164
sbsg79
g165
sg81
g240
sg77
g860
sbaa(lp1211
(ischedule
Activity
p1212
(dp1213
g8
g712
sg71
I1000
sg72
Nsg73
(iread_data
Room
p1214
(dp1215
g71
g76
sg77
g78
sbsg79
g80
sg81
I0
sg77
g748
sba(ischedule
Activity
p1216
(dp1217
g8
g244
sg71
I1000
sg72
Nsg73
(iread_data
Room
p1218
(dp1219
g71
g197
sg77
g198
sbsg79
g80
sg81
I0
sg77
g268
sba(ischedule
Activity
p1220
(dp1221
g8
(lp1222
g53
ag930
ag430
ag155
asg71
g619
sg72
(ischedule
Group
p1223
(dp1224
g8
g1222
sg77
S'Advanced Heuristics1'
p1225
sbsg73
(iread_data
Room
p1226
(dp1227
g71
g293
sg77
g294
sbsg79
g165
sg81
g240
sg77
g625
sba(ischedule
Activity
p1228
(dp1229
g8
(lp1230
g520
ag121
ag377
ag316
ag408
ag37
ag326
ag19
ag13
ag34
ag228
ag425
ag698
ag384
aS'75599734'
p1231
ag231
ag975
aS'9067939'
p1232
ag656
ag313
aS'2317551'
p1233
ag65
ag726
ag149
ag362
ag390
ag124
aS'76802764'
p1234
aS'65852230'
p1235
ag653
ag41
ag456
ag483
ag146
ag478
aS'79033175'
p1236
ag127
asg71
g942
sg72
(ischedule
Group
p1237
(dp1238
g8
g1230
sg77
S'Compilerbouw2'
p1239
sbsg73
(iread_data
Room
p1240
(dp1241
g71
g218
sg77
g219
sbsg79
g165
sg81
g102
sg77
g948
sba(ischedule
Activity
p1242
(dp1243
g8
(lp1244
g64
ag31
ag12
ag61
ag14
ag30
asg71
g299
sg72
(ischedule
Group
p1245
(dp1246
g8
g1244
sg77
S'Collectieve Intelligentie4'
p1247
sbsg73
(iread_data
Room
p1248
(dp1249
g71
g163
sg77
g164
sbsg79
g165
sg81
S'4'
p1250
sg77
g82
sba(ischedule
Activity
p1251
(dp1252
g8
(lp1253
g417
aS'41489515'
p1254
ag1124
ag209
aS'51650744'
p1255
ag36
ag206
ag844
ag699
ag44
aS'1181560'
p1256
ag1118
ag736
ag32
ag562
ag318
aS'96082155'
p1257
aS'27241113'
p1258
asg71
g157
sg72
(ischedule
Group
p1259
(dp1260
g8
g1253
sg77
S'Moderne Databases2'
p1261
sbsg73
(iread_data
Room
p1262
(dp1263
g71
g238
sg77
g239
sbsg79
g165
sg81
g102
sg77
g167
sbaa(lp1264
(ischedule
Activity
p1265
(dp1266
g8
(lp1267
g452
ag1122
ag208
ag1126
ag381
ag230
ag1129
ag352
ag745
ag532
ag610
asg71
g661
sg72
(ischedule
Group
p1268
(dp1269
g8
g1267
sg77
S'Calculus 22'
p1270
sbsg73
(iread_data
Room
p1271
(dp1272
g71
g130
sg77
g131
sbsg79
g101
sg81
g102
sg77
g667
sba(ischedule
Activity
p1273
(dp1274
g8
(lp1275
g723
ag1115
ag1127
ag824
ag42
ag732
ag21
ag488
ag155
ag717
ag310
ag547
ag1116
ag1124
ag203
ag403
ag959
ag718
ag961
ag229
ag616
ag713
ag278
ag1128
ag107
ag52
ag188
ag1120
ag245
ag1133
ag172
ag1131
ag67
ag588
ag1117
ag1125
ag141
ag224
ag192
ag355
ag1014
ag1132
ag382
ag840
ag614
ag433
ag322
ag428
ag25
ag1134
ag308
ag565
ag412
ag536
ag1135
ag1136
ag736
ag1118
ag900
ag902
ag182
ag1137
ag144
ag1121
ag117
ag151
ag325
ag122
ag735
ag439
ag461
ag1130
ag568
ag406
ag320
ag700
ag373
ag1119
ag1123
asg71
g661
sg72
(ischedule
Group
p1276
(dp1277
g8
g1275
sg77
S'Calculus 23'
p1278
sbsg73
(iread_data
Room
p1279
(dp1280
g71
g76
sg77
g78
sbsg79
g101
sg81
g166
sg77
g667
sba(ischedule
Activity
p1281
(dp1282
g8
g924
sg71
I1000
sg72
Nsg73
(iread_data
Room
p1283
(dp1284
g71
g1184
sg77
g1185
sbsg79
g80
sg81
I0
sg77
g295
sba(ischedule
Activity
p1285
(dp1286
g8
(lp1287
g265
ag552
aS'72652638'
p1288
ag259
aS'15249775'
p1289
ag70
ag173
aS'35315956'
p1290
ag522
ag612
ag637
ag432
ag179
ag1121
ag11
aS'52304977'
p1291
ag999
aS'82968410'
p1292
asg71
g1025
sg72
(ischedule
Group
p1293
(dp1294
g8
g1287
sg77
S'Heuristieken 22'
p1295
sbsg73
(iread_data
Room
p1296
(dp1297
g71
g99
sg77
g100
sbsg79
g101
sg81
g102
sg77
g1031
sba(ischedule
Activity
p1298
(dp1299
g8
g780
sg71
g1089
sg72
g784
sg73
(iread_data
Room
p1300
(dp1301
g71
g163
sg77
g164
sbsg79
g165
sg81
g102
sg77
g789
sba(ischedule
Activity
p1302
(dp1303
g8
g1230
sg71
g1050
sg72
g1237
sg73
(iread_data
Room
p1304
(dp1305
g71
g238
sg77
g239
sbsg79
g101
sg81
g102
sg77
g948
sba(ischedule
Activity
p1306
(dp1307
g8
(lp1308
g36
ag146
ag141
ag16
ag145
ag152
ag138
ag1124
ag797
ag143
ag153
ag318
ag699
ag716
ag142
ag562
ag148
ag489
ag137
ag151
ag144
ag155
ag804
ag1258
ag31
ag149
ag126
ag22
ag1257
ag799
ag206
ag110
ag802
ag140
ag803
ag1118
ag1256
ag800
ag44
ag139
ag136
ag1254
ag736
ag154
ag417
ag798
ag209
ag150
ag801
ag32
ag156
ag844
ag1255
ag147
asg71
I1000
sg72
Nsg73
(iread_data
Room
p1309
(dp1310
g71
g218
sg77
g219
sbsg79
g80
sg81
I0
sg77
g167
sbaaa(lp1311
(lp1312
(ischedule
Activity
p1313
(dp1314
g8
(lp1315
g935
ag656
ag517
ag975
ag146
ag65
ag483
ag372
ag698
ag390
ag208
ag19
ag732
ag1236
ag937
ag520
ag478
ag326
ag930
ag938
ag41
ag489
ag931
ag384
ag1232
ag936
ag181
ag192
ag111
ag40
ag34
ag1235
ag377
ag362
ag633
ag339
ag228
ag1231
ag932
ag940
ag13
ag37
ag425
ag634
ag408
ag149
ag933
ag1233
ag89
ag231
ag316
ag127
ag153
ag726
ag653
ag151
ag597
ag939
ag456
ag150
ag941
ag186
ag1234
ag124
ag142
ag121
ag117
ag934
ag313
asg71
I1000
sg72
Nsg73
(iread_data
Room
p1316
(dp1317
g71
g76
sg77
g78
sbsg79
g80
sg81
I0
sg77
g948
sba(ischedule
Activity
p1318
(dp1319
g8
g1042
sg71
g232
sg72
g1043
sg73
(iread_data
Room
p1320
(dp1321
g71
g197
sg77
g198
sbsg79
g165
sg81
g166
sg77
g220
sba(ischedule
Activity
p1322
(dp1323
g8
g683
sg71
g1056
sg72
g685
sg73
(iread_data
Room
p1324
(dp1325
g71
g218
sg77
g219
sbsg79
g101
sg81
g166
sg77
g268
sba(ischedule
Activity
p1326
(dp1327
g8
g271
sg71
g1164
sg72
g288
sg73
(iread_data
Room
p1328
(dp1329
g71
g163
sg77
g164
sbsg79
g101
sg81
g102
sg77
g295
sba(ischedule
Activity
p1330
(dp1331
g8
g1055
sg71
g684
sg72
g1057
sg73
(iread_data
Room
p1332
(dp1333
g71
g238
sg77
g239
sbsg79
g165
sg81
g240
sg77
g268
sba(ischedule
Activity
p1334
(dp1335
g8
(lp1336
g616
ag618
ag615
ag521
ag613
ag191
ag53
ag930
ag611
ag446
ag612
ag51
ag617
ag373
ag155
ag610
ag430
ag205
ag614
ag569
asg71
I1000
sg72
Nsg73
(iread_data
Room
p1337
(dp1338
g71
g497
sg77
g498
sbsg79
g80
sg81
I0
sg77
g625
sba(ischedule
Activity
p1339
(dp1340
g8
(lp1341
g438
aS'16912993'
p1342
ag596
ag742
asg71
g977
sg72
(ischedule
Group
p1343
(dp1344
g8
g1341
sg77
S'Netwerken en systeembeveiliging2'
p1345
sbsg73
(iread_data
Room
p1346
(dp1347
g71
g293
sg77
g294
sbsg79
g165
sg81
g102
sg77
g983
sbaa(lp1348
(ischedule
Activity
p1349
(dp1350
g8
g1315
sg71
I1000
sg72
Nsg73
(iread_data
Room
p1351
(dp1352
g71
g76
sg77
g78
sbsg79
g80
sg81
I0
sg77
g948
sba(ischedule
Activity
p1353
(dp1354
g8
(lp1355
g1023
ag996
ag1291
ag522
ag1289
ag552
ag637
ag1290
ag114
ag352
ag726
ag48
ag588
ag1288
ag1121
ag402
ag173
ag11
ag1024
ag660
ag179
ag123
ag143
ag70
ag999
ag432
ag265
ag612
ag314
ag259
ag700
ag1292
asg71
I1000
sg72
Nsg73
(iread_data
Room
p1356
(dp1357
g71
g197
sg77
g198
sbsg79
g80
sg81
I0
sg77
g1031
sba(ischedule
Activity
p1358
(dp1359
g8
(lp1360
g766
ag998
ag60
ag155
ag359
ag230
ag1002
ag589
ag373
asg71
S'25'
p1361
sg72
(ischedule
Group
p1362
(dp1363
g8
g1360
sg77
S'Heuristieken 12'
p1364
sbsg73
(iread_data
Room
p1365
(dp1366
g71
g293
sg77
g294
sbsg79
g101
sg81
g102
sg77
g1007
sba(ischedule
Activity
p1367
(dp1368
g8
(lp1369
g701
ag545
ag424
ag781
ag518
ag996
ag999
ag958
ag467
ag423
ag845
ag460
ag136
ag16
ag1004
ag997
ag224
ag87
ag742
ag250
ag1003
ag1000
ag403
ag42
ag537
ag23
ag253
ag484
ag204
ag36
ag90
ag940
ag1001
ag548
ag353
asg71
g1361
sg72
(ischedule
Group
p1370
(dp1371
g8
g1369
sg77
S'Heuristieken 11'
p1372
sbsg73
(iread_data
Room
p1373
(dp1374
g71
g497
sg77
g498
sbsg79
g101
sg81
g240
sg77
g1007
sba(ischedule
Activity
p1375
(dp1376
g8
g1244
sg71
g579
sg72
g1245
sg73
(iread_data
Room
p1377
(dp1378
g71
g218
sg77
g219
sbsg79
g101
sg81
g1250
sg77
g82
sba(ischedule
Activity
p1379
(dp1380
g8
(lp1381
g68
ag448
ag823
ag903
ag341
ag66
ag375
ag461
ag610
ag317
aS'64418623'
p1382
aS'44151631'
p1383
aS'51472074'
p1384
ag963
ag45
asg71
g506
sg72
(ischedule
Group
p1385
(dp1386
g8
g1381
sg77
S'Compilerbouw practicum2'
p1387
sbsg73
(iread_data
Room
p1388
(dp1389
g71
g238
sg77
g239
sbsg79
g165
sg81
g102
sg77
g512
sbaa(lp1390
(ischedule
Activity
p1391
(dp1392
g8
(lp1393
g415
ag147
ag420
ag24
ag140
ag421
ag781
ag353
ag107
ag566
ag483
ag256
ag378
ag405
ag1012
ag563
ag737
ag1024
ag416
ag115
ag436
ag171
ag1069
ag1068
ag125
ag1067
ag247
ag22
asg71
g879
sg72
(ischedule
Group
p1394
(dp1395
g8
g1393
sg77
S'Reflectie op de digitale cultuur3'
p1396
sbsg73
(iread_data
Room
p1397
(dp1398
g71
g218
sg77
g219
sbsg79
g101
sg81
g166
sg77
g885
sba(ischedule
Activity
p1399
(dp1400
g8
(lp1401
g116
aS'19058315'
p1402
aS'12170832'
p1403
ag633
ag765
ag1015
ag504
ag798
ag460
ag521
ag252
ag432
aS'64246605'
p1404
ag1129
aS'53267490'
p1405
ag207
aS'25557516'
p1406
ag62
ag28
aS'59887191'
p1407
ag259
ag610
ag25
ag567
ag1011
ag481
ag618
ag486
ag390
ag255
ag90
aS'5590289'
p1408
ag1000
ag181
ag138
ag713
ag50
ag964
asg71
g977
sg72
(ischedule
Group
p1409
(dp1410
g8
g1401
sg77
S'Netwerken en systeembeveiliging4'
p1411
sbsg73
(iread_data
Room
p1412
(dp1413
g71
g197
sg77
g198
sbsg79
g165
sg81
g1250
sg77
g983
sba(ischedule
Activity
p1414
(dp1415
g8
(lp1416
g68
ag548
ag264
ag156
ag458
ag416
ag447
ag448
ag413
ag449
ag733
ag890
ag451
ag699
ag353
ag452
ag114
ag565
ag516
ag538
ag54
ag702
ag38
ag534
ag1191
ag143
ag88
ag280
ag961
ag1137
aS'44671041'
p1417
ag89
aS'3727435'
p1418
ag520
aS'37830626'
p1419
aS'14072826'
p1420
ag542
aS'58074656'
p1421
ag34
ag676
ag375
ag412
ag1231
ag42
aS'31103066'
p1422
ag801
ag638
ag116
ag1190
ag357
asg71
g1078
sg72
(ischedule
Group
p1423
(dp1424
g8
g1416
sg77
S'Software engineering1'
p1425
sbsg73
(iread_data
Room
p1426
(dp1427
g71
g333
sg77
g334
sbsg79
g165
sg81
g240
sg77
g499
sba(ischedule
Activity
p1428
(dp1429
g8
(lp1430
g616
ag121
ag762
ag1417
ag600
ag258
aS'88519892'
p1431
ag175
ag35
ag13
aS'12782624'
p1432
asg71
g853
sg72
(ischedule
Group
p1433
(dp1434
g8
g1430
sg77
S'Programmeren in Java 25'
p1435
sbsg73
(iread_data
Room
p1436
(dp1437
g71
g163
sg77
g164
sbsg79
g165
sg81
S'5'
p1438
sg77
g860
sba(ischedule
Activity
p1439
(dp1440
g8
g1253
sg71
g805
sg72
g1259
sg73
(iread_data
Room
p1441
(dp1442
g71
g497
sg77
g498
sbsg79
g101
sg81
g102
sg77
g167
sbaa(lp1443
(ischedule
Activity
p1444
(dp1445
g8
g1416
sg71
g491
sg72
g1423
sg73
(iread_data
Room
p1446
(dp1447
g71
g556
sg77
g557
sbsg79
g101
sg81
g240
sg77
g499
sba(ischedule
Activity
p1448
(dp1449
g8
g839
sg71
I1000
sg72
Nsg73
(iread_data
Room
p1450
(dp1451
g71
g130
sg77
g131
sbsg79
g80
sg81
I0
sg77
g789
sba(ischedule
Activity
p1452
(dp1453
g8
g170
sg71
I1000
sg72
Nsg73
(iread_data
Room
p1454
(dp1455
g71
g333
sg77
g334
sbsg79
g80
sg81
I0
sg77
g199
sba(ischedule
Activity
p1456
(dp1457
g8
(lp1458
g108
ag975
ag562
ag461
ag122
ag713
ag18
aS'88263855'
p1459
ag728
ag52
ag426
aS'73893840'
p1460
ag64
ag739
ag480
ag719
ag1233
ag934
ag479
aS'90296821'
p1461
ag204
ag423
ag1289
ag935
ag656
ag321
ag373
ag50
asg71
g853
sg72
(ischedule
Group
p1462
(dp1463
g8
g1458
sg77
S'Programmeren in Java 24'
p1464
sbsg73
(iread_data
Room
p1465
(dp1466
g71
g197
sg77
g198
sbsg79
g165
sg81
g1250
sg77
g860
sba(ischedule
Activity
p1467
(dp1468
g8
g298
sg71
g579
sg72
g300
sg73
(iread_data
Room
p1469
(dp1470
g71
g293
sg77
g294
sbsg79
g101
sg81
g166
sg77
g82
sba(ischedule
Activity
p1471
(dp1472
g8
g986
sg71
g579
sg72
g987
sg73
(iread_data
Room
p1473
(dp1474
g71
g163
sg77
g164
sbsg79
g101
sg81
g102
sg77
g82
sbaa(lp1475
(ischedule
Activity
p1476
(dp1477
g8
(lp1478
g534
ag1417
ag484
ag890
ag353
ag479
ag280
ag1419
ag38
ag34
ag458
ag1137
ag676
ag565
ag42
ag227
ag449
ag520
ag88
ag1420
ag182
ag1418
ag68
ag702
ag156
ag144
ag253
ag429
ag354
ag485
ag116
ag357
ag1421
ag699
ag487
ag1422
ag538
ag801
ag478
ag638
ag1231
ag1190
ag516
ag15
ag59
ag264
ag451
ag486
ag1191
ag481
ag89
ag54
ag548
ag380
ag488
ag448
ag482
ag114
ag733
ag416
ag483
ag452
ag412
ag50
ag403
ag489
ag490
ag961
ag143
ag413
ag108
ag447
ag375
ag480
ag542
asg71
I1000
sg72
Nsg73
(iread_data
Room
p1479
(dp1480
g71
g76
sg77
g78
sbsg79
g80
sg81
I0
sg77
g499
sba(ischedule
Activity
p1481
(dp1482
g8
g1066
sg71
I1000
sg72
Nsg73
(iread_data
Room
p1483
(dp1484
g71
g647
sg77
g648
sbsg79
g80
sg81
I0
sg77
g885
sba(ischedule
Activity
p1485
(dp1486
g8
g9
sg71
I1000
sg72
Nsg73
(iread_data
Room
p1487
(dp1488
g71
g218
sg77
g219
sbsg79
g80
sg81
I0
sg77
g82
sba(ischedule
Activity
p1489
(dp1490
g8
g911
sg71
g670
sg72
g912
sg73
(iread_data
Room
p1491
(dp1492
g71
g163
sg77
g164
sbsg79
g165
sg81
g102
sg77
g474
sba(ischedule
Activity
p1493
(dp1494
g8
g1088
sg71
g783
sg72
g1090
sg73
(iread_data
Room
p1495
(dp1496
g71
g197
sg77
g198
sbsg79
g101
sg81
g240
sg77
g789
sba(ischedule
Activity
p1497
(dp1498
g8
g1097
sg71
g684
sg72
g1098
sg73
(iread_data
Room
p1499
(dp1500
g71
g293
sg77
g294
sbsg79
g165
sg81
g102
sg77
g268
sba(ischedule
Activity
p1501
(dp1502
g8
g202
sg71
g232
sg72
g213
sg73
(iread_data
Room
p1503
(dp1504
g71
g497
sg77
g498
sbsg79
g165
sg81
g102
sg77
g220
sbaaa(lp1505
(lp1506
a(lp1507
a(lp1508
a(lp1509
a(lp1510
aasS'timeslot_dict'
p1511
(dp1512
I0
S'9:00-11:00'
p1513
sI1
S'11:00-13:00'
p1514
sI2
S'13:00-15:00'
p1515
sI3
S'15:00-17:00'
p1516
sI4
S'17:00-19:00'
p1517
ssS'day_dict'
p1518
(dp1519
I0
S'Monday'
p1520
sI1
S'Tuesday'
p1521
sI2
S'Wednesday'
p1522
sI3
S'Thursday'
p1523
sI4
S'Friday'
p1524
ssb.