(ischedule
Schedule
p0
(dp1
S'timetable'
p2
(lp3
(lp4
(lp5
(ischedule
Activity
p6
(dp7
S'participants'
p8
(lp9
S'10149535'
p10
aS'55412918'
p11
aS'61060652'
p12
aS'58866007'
p13
aS'87758823'
p14
aS'23565001'
p15
aS'670011'
p16
aS'96118484'
p17
aS'14591033'
p18
aS'21311067'
p19
aS'16097870'
p20
aS'94686490'
p21
aS'38499176'
p22
aS'41578612'
p23
aS'83210352'
p24
aS'68409833'
p25
aS'36508571'
p26
aS'66570705'
p27
aS'90743504'
p28
aS'5517869'
p29
aS'31416266'
p30
aS'74182182'
p31
aS'91196968'
p32
aS'77896638'
p33
aS'80709893'
p34
aS'16333449'
p35
aS'80998260'
p36
aS'52311353'
p37
aS'81218347'
p38
aS'42778953'
p39
aS'48308205'
p40
aS'16011419'
p41
aS'55474917'
p42
aS'75005528'
p43
aS'79937969'
p44
aS'34588570'
p45
aS'42115591'
p46
aS'56872729'
p47
aS'35330349'
p48
aS'36527838'
p49
aS'42196732'
p50
aS'54074680'
p51
aS'93566383'
p52
aS'81385263'
p53
aS'3474870'
p54
aS'32595335'
p55
aS'4921119'
p56
aS'62872965'
p57
aS'79617364'
p58
aS'71839156'
p59
aS'94955328'
p60
aS'34243356'
p61
aS'37399898'
p62
aS'26172512'
p63
asS'capacity'
p64
I1000
sS'group'
p65
NsS'room'
p66
(iread_data
Room
p67
(dp68
g64
S'60'
p69
sS'name'
p70
S'C1.112'
p71
sbsS'ttype'
p72
S'lectures'
p73
sS'group_id'
p74
I0
sg70
S'Lineaire Algebra'
p75
sba(ischedule
Activity
p76
(dp77
g8
(lp78
S'56749879'
p79
aS'64296965'
p80
aS'56191333'
p81
aS'82689818'
p82
aS'76123484'
p83
aS'51542218'
p84
aS'11996292'
p85
aS'26406342'
p86
aS'52552718'
p87
aS'43902015'
p88
aS'17222374'
p89
aS'49631542'
p90
aS'24277163'
p91
aS'13092455'
p92
aS'51566595'
p93
aS'29640619'
p94
aS'40434933'
p95
aS'96054456'
p96
aS'43027916'
p97
aS'60352393'
p98
aS'47932106'
p99
aS'15187217'
p100
aS'47477884'
p101
aS'40141996'
p102
aS'77960666'
p103
aS'58592894'
p104
aS'39459642'
p105
aS'14816774'
p106
aS'70072978'
p107
aS'54540997'
p108
aS'90474003'
p109
aS'86180471'
p110
aS'5085194'
p111
ag50
aS'56121590'
p112
aS'91527663'
p113
ag33
aS'72796858'
p114
aS'29526540'
p115
aS'59397895'
p116
aS'17092717'
p117
aS'23658570'
p118
aS'26207525'
p119
aS'58083680'
p120
ag29
asg64
S'40'
p121
sg65
(ischedule
Group
p122
(dp123
g8
g78
sg70
S'Databases 22'
p124
sbsg66
(iread_data
Room
p125
(dp126
g64
S'56'
p127
sg70
S'A1.10'
p128
sbsg72
S'tutorials'
p129
sg74
S'2'
p130
sg70
S'Databases 2'
p131
sba(ischedule
Activity
p132
(dp133
g8
(lp134
S'27950803'
p135
aS'3407554'
p136
aS'2317551'
p137
aS'92665222'
p138
aS'75599734'
p139
aS'60312776'
p140
aS'79167252'
p141
aS'10792879'
p142
aS'14309255'
p143
aS'15911353'
p144
aS'66701209'
p145
aS'80135353'
p146
aS'30658799'
p147
aS'75759231'
p148
aS'5595824'
p149
aS'43689934'
p150
aS'27187154'
p151
aS'8464817'
p152
aS'54772132'
p153
aS'1766560'
p154
aS'24613625'
p155
aS'94687383'
p156
ag114
aS'7957843'
p157
aS'84524083'
p158
aS'86988337'
p159
aS'88855695'
p160
aS'65960683'
p161
aS'79033175'
p162
aS'58522654'
p163
aS'40791377'
p164
ag40
aS'11741347'
p165
aS'44391517'
p166
aS'83266686'
p167
aS'46989508'
p168
aS'6723948'
p169
aS'13911001'
p170
aS'76661016'
p171
aS'49683101'
p172
aS'75664412'
p173
aS'48503689'
p174
aS'31194811'
p175
aS'95007221'
p176
aS'9067939'
p177
ag61
aS'53202517'
p178
aS'5368702'
p179
aS'98105190'
p180
aS'72895450'
p181
aS'34110913'
p182
aS'65852230'
p183
ag33
aS'12077419'
p184
aS'37770881'
p185
aS'88636924'
p186
aS'11915563'
p187
ag105
ag53
aS'88752563'
p188
aS'2079771'
p189
aS'34872117'
p190
ag39
aS'76802764'
p191
aS'68315599'
p192
aS'13284244'
p193
aS'73236988'
p194
aS'86291592'
p195
aS'95631564'
p196
asg64
I1000
sg65
Nsg66
(iread_data
Room
p197
(dp198
g64
S'117'
p199
sg70
S'C0.110'
p200
sbsg72
g73
sg74
I0
sg70
S'Compilerbouw'
p201
sba(ischedule
Activity
p202
(dp203
g8
(lp204
S'29718115'
p205
aS'11459236'
p206
aS'23983476'
p207
aS'13658563'
p208
aS'75585647'
p209
aS'23257088'
p210
aS'17496687'
p211
aS'8557857'
p212
aS'92977271'
p213
aS'18266644'
p214
aS'36748818'
p215
aS'32204977'
p216
aS'13116738'
p217
aS'19958553'
p218
aS'75521763'
p219
ag192
aS'58332004'
p220
aS'77636749'
p221
aS'70878567'
p222
aS'44901052'
p223
aS'62701040'
p224
asg64
I1000
sg65
Nsg66
(iread_data
Room
p225
(dp226
g64
S'41'
p227
sg70
S'A1.04'
p228
sbsg72
g73
sg74
I0
sg70
S'Informatie- en organsatieontwerp'
p229
sba(ischedule
Activity
p230
(dp231
g8
(lp232
S'78243495'
p233
aS'5976174'
p234
aS'48601268'
p235
aS'52715680'
p236
aS'43460038'
p237
aS'31103066'
p238
aS'33877725'
p239
aS'58074656'
p240
aS'1048485'
p241
aS'14671406'
p242
aS'99283252'
p243
aS'77376714'
p244
aS'31247305'
p245
aS'41153310'
p246
aS'21095566'
p247
asg64
S'40'
p248
sg65
(ischedule
Group
p249
(dp250
g8
g232
sg70
S'Software engineering1'
p251
sbsg66
(iread_data
Room
p252
(dp253
g64
S'22'
p254
sg70
S'A1.06'
p255
sbsg72
g129
sg74
S'1'
p256
sg70
S'Software engineering'
p257
sba(ischedule
Activity
p258
(dp259
g8
(lp260
S'37110913'
p261
aS'9332762'
p262
ag219
ag95
aS'77264363'
p263
aS'14383795'
p264
aS'4697362'
p265
aS'85335143'
p266
aS'6249823'
p267
aS'22323043'
p268
asg64
S'20'
p269
sg65
(ischedule
Group
p270
(dp271
g8
g260
sg70
S'Technology for games2'
p272
sbsg66
(iread_data
Room
p273
(dp274
g64
S'48'
p275
sg70
S'B0.201'
p276
sbsg72
g129
sg74
g130
sg70
S'Technology for games'
p277
sba(ischedule
Activity
p278
(dp279
g8
(lp280
S'1886996'
p281
aS'23547619'
p282
aS'39429093'
p283
aS'72577292'
p284
aS'70844780'
p285
asg64
S'10'
p286
sg65
(ischedule
Group
p287
(dp288
g8
g280
sg70
S'Advanced Heuristics2'
p289
sbsg66
(iread_data
Room
p290
(dp291
g64
S'20'
p292
sg70
S'A1.08'
p293
sbsg72
S'labs'
p294
sg74
g130
sg70
S'Advanced Heuristics'
p295
sbaa(lp296
(ischedule
Activity
p297
(dp298
g8
(lp299
g135
ag155
ag169
ag194
ag163
ag159
ag158
ag172
ag190
ag167
ag150
ag170
ag164
ag173
ag154
ag191
ag145
ag152
ag136
ag196
ag40
ag189
ag186
ag184
ag166
ag178
ag192
ag39
ag33
ag183
ag165
asg64
S'40'
p300
sg65
(ischedule
Group
p301
(dp302
g8
g299
sg70
S'Compilerbouw1'
p303
sbsg66
(iread_data
Room
p304
(dp305
g64
g69
sg70
g71
sbsg72
g129
sg74
g256
sg70
g201
sba(ischedule
Activity
p306
(dp307
g8
(lp308
S'8522855'
p309
ag94
aS'72456780'
p310
aS'14398123'
p311
aS'72586808'
p312
aS'53267490'
p313
aS'82872148'
p314
aS'81022997'
p315
aS'19058315'
p316
aS'3883025'
p317
ag119
ag241
aS'77392404'
p318
aS'12170832'
p319
aS'535689'
p320
ag81
ag98
aS'97136582'
p321
aS'48678993'
p322
ag22
ag214
aS'66120270'
p323
aS'7308727'
p324
ag245
aS'4709948'
p325
ag112
aS'64246605'
p326
ag61
aS'25330192'
p327
ag153
aS'51741554'
p328
ag157
aS'16912993'
p329
aS'1696500'
p330
aS'87830198'
p331
ag195
aS'5590289'
p332
aS'72665524'
p333
asg64
S'20'
p334
sg65
(ischedule
Group
p335
(dp336
g8
g308
sg70
S'Netwerken en systeembeveiliging1'
p337
sbsg66
(iread_data
Room
p338
(dp339
g64
g127
sg70
g128
sbsg72
g294
sg74
g256
sg70
S'Netwerken en systeembeveiliging'
p340
sba(ischedule
Activity
p341
(dp342
g8
(lp343
S'21964491'
p344
aS'50143947'
p345
ag88
ag181
ag82
aS'1665980'
p346
aS'15902055'
p347
aS'36903574'
p348
aS'57467488'
p349
aS'23652927'
p350
aS'88596522'
p351
aS'46701583'
p352
ag113
aS'78136904'
p353
aS'53585410'
p354
ag93
asg64
S'25'
p355
sg65
(ischedule
Group
p356
(dp357
g8
g343
sg70
S'Algoritmen en complexiteit2'
p358
sbsg66
(iread_data
Room
p359
(dp360
g64
g292
sg70
g293
sbsg72
g129
sg74
g130
sg70
S'Algoritmen en complexiteit'
p361
sba(ischedule
Activity
p362
(dp363
g8
(lp364
g284
ag54
aS'61443567'
p365
aS'64228258'
p366
ag83
aS'39230359'
p367
aS'5615125'
p368
aS'89180944'
p369
ag233
ag237
aS'41790793'
p370
aS'76648468'
p371
aS'10698627'
p372
aS'14303208'
p373
ag35
aS'49908313'
p374
aS'53512831'
p375
aS'20618153'
p376
aS'76903244'
p377
asg64
S'20'
p378
sg65
(ischedule
Group
p379
(dp380
g8
g364
sg70
S'Webprogrammeren en databases1'
p381
sbsg66
(iread_data
Room
p382
(dp383
g64
g199
sg70
g200
sbsg72
g129
sg74
g256
sg70
S'Webprogrammeren en databases'
p384
sba(ischedule
Activity
p385
(dp386
g8
(lp387
S'21677389'
p388
aS'34765676'
p389
aS'69634191'
p390
aS'44828429'
p391
aS'14847953'
p392
aS'2550487'
p393
aS'37701751'
p394
aS'19214659'
p395
ag282
aS'4546613'
p396
aS'64768422'
p397
aS'81155296'
p398
aS'76924297'
p399
aS'28055464'
p400
aS'38179241'
p401
aS'20374340'
p402
aS'65675896'
p403
ag62
ag53
ag171
aS'3707829'
p404
aS'66034145'
p405
aS'81200278'
p406
ag52
ag179
asg64
I1000
sg65
Nsg66
(iread_data
Room
p407
(dp408
g64
g227
sg70
g228
sbsg72
g73
sg74
I0
sg70
S'Interactie-ontwerp'
p409
sba(ischedule
Activity
p410
(dp411
g8
(lp412
S'22871048'
p413
aS'34806836'
p414
ag20
ag26
aS'74131924'
p415
aS'62356458'
p416
ag187
aS'70113753'
p417
ag25
aS'88627897'
p418
ag223
ag87
ag29
ag114
aS'61611295'
p419
ag57
aS'54026378'
p420
ag261
aS'27298319'
p421
aS'19858730'
p422
ag105
ag93
asg64
I1000
sg65
Nsg66
(iread_data
Room
p423
(dp424
g64
g275
sg70
g276
sbsg72
g73
sg74
I0
sg70
S'Autonomous Agents 2'
p425
sba(ischedule
Activity
p426
(dp427
g8
(lp428
g102
ag104
ag15
aS'87900893'
p429
aS'46570285'
p430
aS'80188025'
p431
aS'37279234'
p432
aS'83415514'
p433
ag141
asg64
S'40'
p434
sg65
(ischedule
Group
p435
(dp436
g8
g428
sg70
S'Calculus 21'
p437
sbsg66
(iread_data
Room
p438
(dp439
g64
g254
sg70
g255
sbsg72
g129
sg74
g256
sg70
S'Calculus 2'
p440
sbaa(lp441
(ischedule
Activity
p442
(dp443
g8
g343
sg64
S'25'
p444
sg65
g356
sg66
(iread_data
Room
p445
(dp446
g64
g275
sg70
g276
sbsg72
g294
sg74
g130
sg70
g361
sba(ischedule
Activity
p447
(dp448
g8
(lp449
g369
ag85
ag266
aS'64600457'
p450
aS'78544592'
p451
aS'75997788'
p452
ag192
aS'43680781'
p453
ag154
aS'1181560'
p454
ag233
ag143
aS'27916487'
p455
ag243
aS'63111000'
p456
aS'96082155'
p457
aS'33776961'
p458
aS'66621166'
p459
ag433
ag215
ag167
aS'27241113'
p460
ag107
aS'18144425'
p461
aS'13218321'
p462
ag115
ag317
aS'41489515'
p463
ag147
aS'49219163'
p464
ag244
asg64
S'20'
p465
sg65
(ischedule
Group
p466
(dp467
g8
g449
sg70
S'Moderne Databases3'
p468
sbsg66
(iread_data
Room
p469
(dp470
g64
g199
sg70
g200
sbsg72
g129
sg74
S'3'
p471
sg70
S'Moderne Databases'
p472
sba(ischedule
Activity
p473
(dp474
g8
(lp475
S'94467156'
p476
ag155
aS'41644639'
p477
aS'75680261'
p478
aS'88737765'
p479
aS'25994016'
p480
aS'25106480'
p481
ag331
ag309
ag110
aS'58253841'
p482
aS'5526560'
p483
ag171
aS'82066165'
p484
ag311
aS'55480737'
p485
aS'25077484'
p486
aS'27925117'
p487
ag185
asg64
S'15'
p488
sg65
(ischedule
Group
p489
(dp490
g8
g475
sg70
S'Project Genetic Algorithms3'
p491
sbsg66
(iread_data
Room
p492
(dp493
g64
g127
sg70
g128
sbsg72
g294
sg74
g471
sg70
S'Project Genetic Algorithms'
p494
sba(ischedule
Activity
p495
(dp496
g8
(lp497
S'68286356'
p498
aS'96554914'
p499
ag103
aS'3685034'
p500
ag135
ag23
ag98
aS'36213792'
p501
ag236
ag159
asg64
S'20'
p502
sg65
(ischedule
Group
p503
(dp504
g8
g497
sg70
S'Reflectie op de digitale cultuur2'
p505
sbsg66
(iread_data
Room
p506
(dp507
g64
g292
sg70
g293
sbsg72
g129
sg74
g130
sg70
S'Reflectie op de digitale cultuur'
p508
sba(ischedule
Activity
p509
(dp510
g8
(lp511
S'42171678'
p512
ag29
ag91
ag430
ag220
ag89
ag219
aS'78443067'
p513
aS'51650744'
p514
aS'15051051'
p515
aS'84449005'
p516
aS'59111489'
p517
aS'50184318'
p518
aS'78821918'
p519
ag49
aS'47462856'
p520
ag325
ag90
aS'58699305'
p521
ag165
ag170
ag104
asg64
S'20'
p522
sg65
(ischedule
Group
p523
(dp524
g8
g511
sg70
S'Moderne Databases1'
p525
sbsg66
(iread_data
Room
p526
(dp527
g64
g254
sg70
g255
sbsg72
g294
sg74
g256
sg70
g472
sba(ischedule
Activity
p528
(dp529
g8
(lp530
S'13718298'
p531
aS'5298748'
p532
aS'99975346'
p533
ag413
ag261
ag62
ag158
aS'61518436'
p534
aS'51415617'
p535
ag208
asg64
g502
sg65
(ischedule
Group
p536
(dp537
g8
g530
sg70
S'Reflectie op de digitale cultuur3'
p538
sbsg66
(iread_data
Room
p539
(dp540
g64
g227
sg70
g228
sbsg72
g129
sg74
g471
sg70
g508
sba(ischedule
Activity
p541
(dp542
g8
(lp543
S'77831658'
p544
aS'11068043'
p545
ag188
aS'28618400'
p546
aS'73823548'
p547
aS'32044893'
p548
aS'6939933'
p549
ag174
aS'13996448'
p550
aS'42406214'
p551
ag193
aS'32183908'
p552
asg64
S'15'
p553
sg65
(ischedule
Group
p554
(dp555
g8
g543
sg70
S'Project Numerical Recipes2'
p556
sbsg66
(iread_data
Room
p557
(dp558
g64
g69
sg70
g71
sbsg72
g294
sg74
g130
sg70
S'Project Numerical Recipes'
p559
sbaa(lp560
(ischedule
Activity
p561
(dp562
g8
(lp563
S'6913074'
p564
aS'20239127'
p565
ag135
aS'60661905'
p566
ag535
aS'51052738'
p567
ag501
aS'38296757'
p568
aS'92778619'
p569
ag318
aS'59753700'
p570
ag208
ag261
ag109
ag533
ag532
ag91
ag453
ag103
aS'54569540'
p571
ag458
aS'82390428'
p572
ag353
ag23
aS'70193386'
p573
ag98
ag331
ag325
aS'27805666'
p574
ag413
aS'27370083'
p575
aS'49922855'
p576
aS'57086672'
p577
aS'36785409'
p578
ag548
ag285
aS'22826928'
p579
ag158
ag159
aS'99453514'
p580
ag516
ag236
ag500
aS'20095994'
p581
ag534
ag92
ag551
ag531
ag62
ag499
ag498
asg64
I1000
sg65
Nsg66
(iread_data
Room
p582
(dp583
g64
g199
sg70
g200
sbsg72
g73
sg74
I0
sg70
g508
sba(ischedule
Activity
p584
(dp585
g8
(lp586
S'20883994'
p587
aS'3168419'
p588
ag194
aS'88176729'
p589
aS'96453361'
p590
aS'21029457'
p591
ag18
ag323
aS'4568018'
p592
ag415
aS'28359697'
p593
ag155
aS'89985072'
p594
aS'247918'
p595
aS'30050930'
p596
ag344
ag106
aS'44868097'
p597
aS'33930505'
p598
ag545
aS'22731474'
p599
ag420
ag58
ag178
ag96
ag115
ag324
ag266
ag453
ag579
ag515
ag239
aS'56815156'
p600
ag79
ag406
ag564
aS'59544049'
p601
aS'30195935'
p602
ag544
ag532
ag50
ag163
ag169
ag222
ag450
asg64
I1000
sg65
Nsg66
(iread_data
Room
p603
(dp604
g64
g127
sg70
g128
sbsg72
g73
sg74
I0
sg70
S'Bioinformatica'
p605
sba(ischedule
Activity
p606
(dp607
g8
(lp608
S'4783858'
p609
ag349
ag348
ag330
ag512
ag219
aS'53107172'
p610
ag223
ag213
aS'97019450'
p611
ag452
aS'86807027'
p612
aS'20830477'
p613
ag261
aS'59075181'
p614
ag85
aS'58736785'
p615
aS'87210640'
p616
aS'76393508'
p617
aS'45660925'
p618
aS'94930277'
p619
aS'53775014'
p620
ag59
aS'48357272'
p621
asg64
S'25'
p622
sg65
(ischedule
Group
p623
(dp624
g8
g608
sg70
S'Heuristieken 12'
p625
sbsg66
(iread_data
Room
p626
(dp627
g64
g69
sg70
g71
sbsg72
g129
sg74
g130
sg70
S'Heuristieken 1'
p628
sba(ischedule
Activity
p629
(dp630
g8
(lp631
g142
ag105
ag187
ag114
ag151
ag61
ag179
ag181
ag171
ag53
ag174
ag188
ag176
ag195
ag193
ag139
ag153
ag138
ag143
ag161
ag141
ag137
ag157
ag177
ag168
ag144
ag160
ag148
ag147
ag162
ag146
ag156
ag182
ag175
ag149
ag180
ag185
ag140
asg64
g300
sg65
(ischedule
Group
p632
(dp633
g8
g631
sg70
S'Compilerbouw2'
p634
sbsg66
(iread_data
Room
p635
(dp636
g64
g275
sg70
g276
sbsg72
g129
sg74
g130
sg70
g201
sba(ischedule
Activity
p637
(dp638
g8
(lp639
g29
ag93
ag422
ag421
ag414
ag57
asg64
S'10'
p640
sg65
(ischedule
Group
p641
(dp642
g8
g639
sg70
S'Autonomous Agents 21'
p643
sbsg66
(iread_data
Room
p644
(dp645
g64
g292
sg70
g293
sbsg72
g129
sg74
g256
sg70
g425
sba(ischedule
Activity
p646
(dp647
g8
(lp648
S'45556081'
p649
ag205
aS'14138904'
p650
ag10
aS'70015932'
p651
ag190
ag487
aS'72683344'
p652
ag167
ag369
ag95
aS'23798155'
p653
aS'20331158'
p654
aS'13798030'
p655
ag13
ag284
ag172
aS'59289233'
p656
ag546
ag237
ag82
asg64
I1000
sg65
Nsg66
(iread_data
Room
p657
(dp658
g64
g227
sg70
g228
sbsg72
g73
sg74
I0
sg70
S'Architectuur en computerorganisatie'
p659
sba(ischedule
Activity
p660
(dp661
g8
(lp662
g170
ag403
aS'51673172'
p663
ag206
aS'5892092'
p664
ag136
asg64
S'15'
p665
sg65
(ischedule
Group
p666
(dp667
g8
g662
sg70
S'Compilerbouw practicum3'
p668
sbsg66
(iread_data
Room
p669
(dp670
g64
g254
sg70
g255
sbsg72
g294
sg74
g471
sg70
S'Compilerbouw practicum'
p671
sbaa(lp672
(ischedule
Activity
p673
(dp674
g8
(lp675
S'14179347'
p676
aS'56544130'
p677
ag58
ag487
aS'75623387'
p678
ag106
ag333
aS'11593163'
p679
ag266
ag452
ag47
ag451
ag31
aS'19717077'
p680
ag431
ag18
ag396
ag621
aS'33760909'
p681
aS'27064249'
p682
ag99
aS'55530367'
p683
ag450
aS'45915482'
p684
aS'28957789'
p685
ag401
ag96
aS'86000192'
p686
aS'87602030'
p687
aS'56348773'
p688
aS'62105897'
p689
ag11
ag354
aS'9731271'
p690
aS'26260141'
p691
aS'12091019'
p692
ag104
ag15
aS'77306636'
p693
ag141
aS'23628642'
p694
ag366
aS'6709529'
p695
ag160
ag482
aS'82412626'
p696
ag151
ag521
ag328
ag102
aS'3678531'
p697
ag368
ag171
ag110
ag429
ag20
aS'62363761'
p698
ag209
ag513
aS'10609762'
p699
aS'65408517'
p700
ag612
aS'78735049'
p701
aS'70939718'
p702
ag10
ag142
ag568
aS'24875739'
p703
aS'73302736'
p704
ag591
ag609
ag564
aS'32705005'
p705
aS'53139134'
p706
aS'65978354'
p707
ag421
ag398
aS'72526473'
p708
aS'31306819'
p709
ag169
aS'75446434'
p710
ag430
aS'58040377'
p711
ag549
aS'34173695'
p712
aS'79888156'
p713
aS'97135019'
p714
aS'63634350'
p715
ag347
ag188
aS'33672995'
p716
aS'93361408'
p717
aS'58469172'
p718
ag373
ag547
ag433
aS'61520025'
p719
ag167
ag432
aS'59220392'
p720
aS'22168693'
p721
ag597
ag118
ag352
ag101
ag21
asg64
I1000
sg65
Nsg66
(iread_data
Room
p722
(dp723
g64
g199
sg70
g200
sbsg72
g73
sg74
I0
sg70
g440
sba(ischedule
Activity
p724
(dp725
g8
g134
sg64
I1000
sg65
Nsg66
(iread_data
Room
p726
(dp727
g64
g69
sg70
g71
sbsg72
g73
sg74
I0
sg70
g201
sba(ischedule
Activity
p728
(dp729
g8
(lp730
g29
ag282
ag48
ag512
ag518
ag346
ag86
aS'17575088'
p731
aS'29474737'
p732
aS'34773179'
p733
ag89
asg64
S'20'
p734
sg65
(ischedule
Group
p735
(dp736
g8
g730
sg70
S'Collectieve Intelligentie3'
p737
sbsg66
(iread_data
Room
p738
(dp739
g64
g292
sg70
g293
sbsg72
g129
sg74
g471
sg70
S'Collectieve Intelligentie'
p740
sba(ischedule
Activity
p741
(dp742
g8
(lp743
S'87314964'
p744
ag345
ag93
aS'17823206'
p745
aS'19337738'
p746
ag550
ag570
ag344
aS'93023961'
p747
aS'66122625'
p748
ag32
ag580
ag217
aS'68360259'
p749
ag261
aS'98780382'
p750
ag415
ag321
ag268
ag327
asg64
S'10'
p751
sg65
(ischedule
Group
p752
(dp753
g8
g743
sg70
S'Data Mining1'
p754
sbsg66
(iread_data
Room
p755
(dp756
g64
g127
sg70
g128
sbsg72
g294
sg74
g256
sg70
S'Data Mining'
p757
sba(ischedule
Activity
p758
(dp759
g8
(lp760
g406
ag315
asg64
S'10'
p761
sg65
(ischedule
Group
p762
(dp763
g8
g760
sg70
S'Data Mining2'
p764
sbsg66
(iread_data
Room
p765
(dp766
g64
g254
sg70
g255
sbsg72
g129
sg74
g130
sg70
g757
sba(ischedule
Activity
p767
(dp768
g8
(lp769
g207
ag224
ag219
ag208
ag215
ag218
ag213
asg64
S'15'
p770
sg65
(ischedule
Group
p771
(dp772
g8
g769
sg70
S'Informatie- en organsatieontwerp1'
p773
sbsg66
(iread_data
Room
p774
(dp775
g64
g275
sg70
g276
sbsg72
g294
sg74
g256
sg70
g229
sba(ischedule
Activity
p776
(dp777
g8
g232
sg64
S'40'
p778
sg65
g249
sg66
(iread_data
Room
p779
(dp780
g64
g227
sg70
g228
sbsg72
g294
sg74
g256
sg70
g257
sbaaa(lp781
(lp782
(ischedule
Activity
p783
(dp784
g8
(lp785
g151
ag60
ag534
aS'79366078'
p786
aS'51186803'
p787
aS'47605891'
p788
aS'63408522'
p789
ag311
ag368
ag705
ag18
aS'7492204'
p790
ag79
aS'37498675'
p791
ag220
aS'63955238'
p792
aS'54310617'
p793
aS'34262212'
p794
ag653
ag242
ag158
aS'44940353'
p795
ag187
ag163
aS'31633723'
p796
aS'41585485'
p797
ag654
ag587
ag703
aS'69086548'
p798
aS'82688900'
p799
aS'23391676'
p800
ag31
aS'72547110'
p801
ag309
aS'41527759'
p802
ag46
ag565
ag520
ag348
ag500
ag245
ag745
ag476
aS'84110134'
p803
ag214
aS'10872825'
p804
ag718
aS'79858178'
p805
aS'39919665'
p806
ag179
ag614
aS'65003379'
p807
ag90
ag430
ag715
aS'89338938'
p808
ag84
ag22
ag32
aS'38329455'
p809
ag61
aS'77240949'
p810
ag80
ag571
ag685
ag599
ag611
ag690
aS'97371272'
p811
ag96
ag221
aS'39659121'
p812
ag367
ag701
ag353
ag38
ag42
aS'91139627'
p813
ag601
ag142
aS'99272880'
p814
ag399
aS'56988998'
p815
asg64
I1000
sg65
Nsg66
(iread_data
Room
p816
(dp817
g64
g199
sg70
g200
sbsg72
g73
sg74
I0
sg70
S'Kansrekenen 2'
p818
sba(ischedule
Activity
p819
(dp820
g8
(lp821
g346
ag284
ag714
aS'13534377'
p822
ag681
ag30
ag330
ag14
ag89
ag82
ag97
ag344
aS'64393888'
p823
ag732
aS'73980360'
p824
ag481
aS'28357474'
p825
ag92
ag810
ag219
ag518
ag161
aS'96104167'
p826
ag50
ag793
ag86
ag733
ag365
ag83
ag140
ag609
ag610
ag235
ag39
aS'46052388'
p827
ag328
ag649
ag185
ag94
ag731
ag224
ag512
ag91
ag33
aS'22699561'
p828
ag282
ag262
ag48
aS'57595888'
p829
ag366
ag686
aS'68601184'
p830
ag195
ag324
ag80
ag347
aS'1075391'
p831
ag29
ag163
aS'3233378'
p832
ag345
asg64
I1000
sg65
Nsg66
(iread_data
Room
p833
(dp834
g64
g69
sg70
g71
sbsg72
g73
sg74
I0
sg70
g740
sba(ischedule
Activity
p835
(dp836
g8
g449
sg64
g522
sg65
g466
sg66
(iread_data
Room
p837
(dp838
g64
g127
sg70
g128
sbsg72
g294
sg74
g471
sg70
g472
sba(ischedule
Activity
p839
(dp840
g8
(lp841
g88
ag181
ag392
ag405
ag619
ag178
ag239
ag318
aS'69459473'
p842
ag95
ag267
aS'67073567'
p843
aS'24891081'
p844
aS'28358060'
p845
aS'1137946'
p846
aS'2416751'
p847
ag577
ag682
ag117
aS'22288615'
p848
asg64
S'20'
p849
sg65
(ischedule
Group
p850
(dp851
g8
g841
sg70
S'Webprogrammeren en databases2'
p852
sbsg66
(iread_data
Room
p853
(dp854
g64
g292
sg70
g293
sbsg72
g294
sg74
g130
sg70
g384
sba(ischedule
Activity
p855
(dp856
g8
g412
sg64
I1000
sg65
Nsg66
(iread_data
Room
p857
(dp858
g64
g254
sg70
g255
sbsg72
g73
sg74
I0
sg70
g425
sba(ischedule
Activity
p859
(dp860
g8
(lp861
g429
aS'37744525'
p862
ag37
ag222
aS'45414528'
p863
asg64
g761
sg65
(ischedule
Group
p864
(dp865
g8
g861
sg70
S'Data Mining3'
p866
sbsg66
(iread_data
Room
p867
(dp868
g64
g275
sg70
g276
sbsg72
g129
sg74
g471
sg70
g757
sba(ischedule
Activity
p869
(dp870
g8
(lp871
g159
ag56
ag210
ag16
ag188
aS'62736669'
p872
ag47
ag21
ag168
ag190
aS'83869542'
p873
ag43
ag486
ag595
ag310
aS'64947290'
p874
ag394
ag519
ag349
ag588
ag483
ag692
ag220
aS'13132925'
p875
ag547
aS'4529208'
p876
aS'27123462'
p877
asg64
g121
sg65
(ischedule
Group
p878
(dp879
g8
g871
sg70
S'Databases 21'
p880
sbsg66
(iread_data
Room
p881
(dp882
g64
g227
sg70
g228
sbsg72
g129
sg74
g256
sg70
g131
sbaa(lp883
(ischedule
Activity
p884
(dp885
g8
(lp886
g684
ag398
ag167
ag680
ag715
ag521
ag696
ag352
ag421
ag333
ag687
ag209
ag373
ag101
ag401
ag513
ag692
ag10
ag709
ag689
ag694
ag621
ag691
ag716
ag487
ag266
ag58
ag451
ag118
ag549
ag719
ag99
ag368
asg64
g434
sg65
(ischedule
Group
p887
(dp888
g8
g886
sg70
S'Calculus 22'
p889
sbsg66
(iread_data
Room
p890
(dp891
g64
g275
sg70
g276
sbsg72
g129
sg74
g130
sg70
g440
sba(ischedule
Activity
p892
(dp893
g8
g631
sg64
S'40'
p894
sg65
g632
sg66
(iread_data
Room
p895
(dp896
g64
g199
sg70
g200
sbsg72
g294
sg74
g130
sg70
g201
sba(ischedule
Activity
p897
(dp898
g8
(lp899
g50
ag222
ag344
ag599
ag406
ag588
ag18
ag589
ag420
ag163
ag592
ag194
ag597
ag591
ag590
ag594
ag545
ag450
ag587
ag593
ag544
ag601
ag323
ag595
ag106
ag598
asg64
S'20'
p900
sg65
(ischedule
Group
p901
(dp902
g8
g899
sg70
S'Bioinformatica2'
p903
sbsg66
(iread_data
Room
p904
(dp905
g64
g227
sg70
g228
sbsg72
g294
sg74
g130
sg70
g605
sba(ischedule
Activity
p906
(dp907
g8
g563
sg64
I1000
sg65
Nsg66
(iread_data
Room
p908
(dp909
g64
g69
sg70
g71
sbsg72
g73
sg74
I0
sg70
g508
sba(ischedule
Activity
p910
(dp911
g8
(lp912
g874
ag612
ag376
asg64
S'20'
p913
sg65
(ischedule
Group
p914
(dp915
g8
g912
sg70
S'Programmeren in Java 26'
p916
sbsg66
(iread_data
Room
p917
(dp918
g64
g127
sg70
g128
sbsg72
g294
sg74
S'6'
p919
sg70
S'Programmeren in Java 2'
p920
sba(ischedule
Activity
p921
(dp922
g8
(lp923
g239
ag324
ag79
ag415
ag600
ag96
asg64
g900
sg65
(ischedule
Group
p924
(dp925
g8
g923
sg70
S'Bioinformatica3'
p926
sbsg66
(iread_data
Room
p927
(dp928
g64
g254
sg70
g255
sbsg72
g294
sg74
g471
sg70
g605
sba(ischedule
Activity
p929
(dp930
g8
(lp931
g829
asg64
g665
sg65
(ischedule
Group
p932
(dp933
g8
g931
sg70
S'Compilerbouw practicum1'
p934
sbsg66
(iread_data
Room
p935
(dp936
g64
g292
sg70
g293
sbsg72
g294
sg74
g256
sg70
g671
sbaa(lp937
(ischedule
Activity
p938
(dp939
g8
(lp940
g597
ag369
ag689
ag42
ag803
ag237
ag12
ag239
ag808
ag24
ag796
ag862
ag592
ag621
ag243
ag196
ag233
ag481
ag314
ag396
ag594
ag609
aS'3727435'
p941
ag235
ag416
ag268
ag601
ag825
ag420
ag242
ag25
ag135
ag651
aS'27582862'
p942
ag345
ag545
ag139
ag691
ag46
ag234
ag140
ag238
ag34
ag194
ag240
ag832
ag700
ag513
ag684
ag94
ag245
aS'44671041'
p943
ag247
aS'14072826'
p944
ag143
aS'58565406'
p945
aS'51593625'
p946
aS'9287708'
p947
ag499
ag531
ag87
ag802
ag241
ag236
aS'37830626'
p948
ag244
ag246
ag37
aS'40343779'
p949
ag589
aS'65318664'
p950
ag704
ag476
ag187
ag413
asg64
I1000
sg65
Nsg66
(iread_data
Room
p951
(dp952
g64
g199
sg70
g200
sbsg72
g73
sg74
I0
sg70
g257
sba(ischedule
Activity
p953
(dp954
g8
(lp955
g262
ag96
ag101
ag79
ag611
ag118
ag33
ag62
ag56
ag686
ag794
aS'73196865'
p956
ag207
ag156
ag745
ag711
ag393
aS'47982619'
p957
aS'12782624'
p958
ag550
ag22
aS'39905995'
p959
ag354
ag848
aS'88597745'
p960
ag456
aS'51791169'
p961
asg64
g913
sg65
(ischedule
Group
p962
(dp963
g8
g955
sg70
S'Programmeren in Java 25'
p964
sbsg66
(iread_data
Room
p965
(dp966
g64
g275
sg70
g276
sbsg72
g294
sg74
S'5'
p967
sg70
g920
sba(ischedule
Activity
p968
(dp969
g8
(lp970
g92
ag325
ag453
ag548
ag91
ag285
ag516
ag551
ag318
ag580
ag353
ag331
ag458
ag575
ag573
ag579
ag566
ag565
ag109
ag574
ag577
ag569
ag572
ag571
ag581
ag568
ag567
ag576
ag578
ag564
ag570
asg64
g502
sg65
(ischedule
Group
p971
(dp972
g8
g970
sg70
S'Reflectie op de digitale cultuur1'
p973
sbsg66
(iread_data
Room
p974
(dp975
g64
g127
sg70
g128
sbsg72
g129
sg74
g256
sg70
g508
sbaa(lp976
(ischedule
Activity
p977
(dp978
g8
g785
sg64
I1000
sg65
Nsg66
(iread_data
Room
p979
(dp980
g64
g199
sg70
g200
sbsg72
g73
sg74
I0
sg70
g818
sba(ischedule
Activity
p981
(dp982
g8
(lp983
g284
ag267
ag377
ag117
ag843
ag178
ag35
ag374
ag844
ag842
ag376
ag847
ag370
ag846
ag367
ag83
ag181
ag371
ag366
ag368
ag54
ag682
ag369
ag318
ag95
ag392
ag365
ag619
ag373
ag237
ag405
ag577
ag845
ag233
ag848
ag372
ag239
ag88
ag375
asg64
I1000
sg65
Nsg66
(iread_data
Room
p984
(dp985
g64
g227
sg70
g228
sbsg72
g73
sg74
I0
sg70
g384
sba(ischedule
Activity
p986
(dp987
g8
(lp988
g550
ag315
ag749
ag321
ag746
ag37
ag745
ag863
ag222
ag748
ag415
ag744
ag32
ag750
ag93
ag327
ag570
ag345
ag344
ag429
ag268
ag862
ag261
ag580
ag217
ag406
ag747
asg64
I1000
sg65
Nsg66
(iread_data
Room
p989
(dp990
g64
g127
sg70
g128
sbsg72
g73
sg74
I0
sg70
g757
sba(ischedule
Activity
p991
(dp992
g8
g299
sg64
g894
sg65
g301
sg66
(iread_data
Room
p993
(dp994
g64
g69
sg70
g71
sbsg72
g294
sg74
g256
sg70
g201
sba(ischedule
Activity
p995
(dp996
g8
g769
sg64
S'15'
p997
sg65
g771
sg66
(iread_data
Room
p998
(dp999
g64
g254
sg70
g255
sbsg72
g129
sg74
g256
sg70
g229
sba(ischedule
Activity
p1000
(dp1001
g8
(lp1002
g223
ag413
ag20
ag25
ag418
ag419
asg64
S'10'
p1003
sg65
(ischedule
Group
p1004
(dp1005
g8
g1002
sg70
S'Autonomous Agents 22'
p1006
sbsg66
(iread_data
Room
p1007
(dp1008
g64
g292
sg70
g293
sbsg72
g294
sg74
g130
sg70
g425
sbaa(lp1009
(ischedule
Activity
p1010
(dp1011
g8
(lp1012
g263
ag184
ag23
aS'21192048'
p1013
aS'70336464'
p1014
ag85
ag811
ag265
ag221
ag261
ag10
ag268
ag219
ag264
ag808
aS'93041523'
p1015
aS'76487754'
p1016
ag578
ag262
ag216
ag798
ag945
ag266
ag86
ag40
ag267
ag175
ag143
ag453
ag95
aS'7106649'
p1017
aS'12430748'
p1018
ag192
ag173
ag282
ag223
ag957
aS'92496780'
p1019
asg64
I1000
sg65
Nsg66
(iread_data
Room
p1020
(dp1021
g64
g275
sg70
g276
sbsg72
g73
sg74
I0
sg70
g277
sba(ischedule
Activity
p1022
(dp1023
g8
(lp1024
g151
ag476
ag810
ag500
ag815
ag534
ag234
ag456
ag172
aS'33252501'
p1025
ag862
aS'85236626'
p1026
ag515
ag352
aS'26857113'
p1027
ag653
ag189
aS'90067329'
p1028
ag105
ag568
aS'67625383'
p1029
ag164
asg64
I1000
sg65
Nsg66
(iread_data
Room
p1030
(dp1031
g64
g69
sg70
g71
sbsg72
g73
sg74
I0
sg70
S'Machine Learning'
p1032
sba(ischedule
Activity
p1033
(dp1034
g8
g899
sg64
S'20'
p1035
sg65
g901
sg66
(iread_data
Room
p1036
(dp1037
g64
g227
sg70
g228
sbsg72
g129
sg74
g130
sg70
g605
sba(ischedule
Activity
p1038
(dp1039
g8
g983
sg64
I1000
sg65
Nsg66
(iread_data
Room
p1040
(dp1041
g64
g127
sg70
g128
sbsg72
g73
sg74
I0
sg70
g384
sba(ischedule
Activity
p1042
(dp1043
g8
g639
sg64
g1003
sg65
g641
sg66
(iread_data
Room
p1044
(dp1045
g64
g292
sg70
g293
sbsg72
g294
sg74
g256
sg70
g425
sba(ischedule
Activity
p1046
(dp1047
g8
(lp1048
g20
ag281
ag16
ag711
aS'82968410'
p1049
ag315
ag873
ag322
ag97
ag715
aS'35315956'
p1050
asg64
S'20'
p1051
sg65
(ischedule
Group
p1052
(dp1053
g8
g1048
sg70
S'Heuristieken 22'
p1054
sbsg66
(iread_data
Room
p1055
(dp1056
g64
g254
sg70
g255
sbsg72
g129
sg74
g130
sg70
S'Heuristieken 2'
p1057
sba(ischedule
Activity
p1058
(dp1059
g8
(lp1060
g949
ag82
ag714
ag53
aS'123355'
p1061
aS'25557516'
p1062
asg64
g334
sg65
(ischedule
Group
p1063
(dp1064
g8
g1060
sg70
S'Netwerken en systeembeveiliging2'
p1065
sbsg66
(iread_data
Room
p1066
(dp1067
g64
g199
sg70
g200
sbsg72
g294
sg74
g130
sg70
g340
sbaaa(lp1068
(lp1069
(ischedule
Activity
p1070
(dp1071
g8
g586
sg64
I1000
sg65
Nsg66
(iread_data
Room
p1072
(dp1073
g64
g275
sg70
g276
sbsg72
g73
sg74
I0
sg70
g605
sba(ischedule
Activity
p1074
(dp1075
g8
(lp1076
g614
aS'97417002'
p1077
ag268
ag611
ag219
ag612
ag617
ag615
ag512
ag592
ag38
ag650
ag12
aS'4353500'
p1078
ag452
aS'31897288'
p1079
ag330
ag180
ag208
ag79
ag654
ag610
ag59
ag349
ag618
ag609
ag85
aS'14941752'
p1080
ag613
ag261
ag620
ag413
ag18
ag621
ag223
ag348
aS'79879876'
p1081
aS'83443653'
p1082
ag616
ag619
ag106
ag748
ag422
ag213
asg64
I1000
sg65
Nsg66
(iread_data
Room
p1083
(dp1084
g64
g69
sg70
g71
sbsg72
g73
sg74
I0
sg70
g628
sba(ischedule
Activity
p1085
(dp1086
g8
(lp1087
g399
aS'74361881'
p1088
ag676
ag145
ag322
ag23
aS'40633534'
p1089
ag733
ag516
ag663
asg64
g488
sg65
(ischedule
Group
p1090
(dp1091
g8
g1087
sg70
S'Project Genetic Algorithms2'
p1092
sbsg66
(iread_data
Room
p1093
(dp1094
g64
g292
sg70
g293
sbsg72
g294
sg74
g130
sg70
g494
sba(ischedule
Activity
p1095
(dp1096
g8
g1024
sg64
I1000
sg65
Nsg66
(iread_data
Room
p1097
(dp1098
g64
g254
sg70
g255
sbsg72
g73
sg74
I0
sg70
g1032
sba(ischedule
Activity
p1099
(dp1100
g8
(lp1101
S'48198668'
p1102
asg64
g465
sg65
(ischedule
Group
p1103
(dp1104
g8
g1101
sg70
S'Moderne Databases2'
p1105
sbsg66
(iread_data
Room
p1106
(dp1107
g64
g227
sg70
g228
sbsg72
g129
sg74
g130
sg70
g472
sba(ischedule
Activity
p1108
(dp1109
g8
g364
sg64
g849
sg65
g379
sg66
(iread_data
Room
p1110
(dp1111
g64
g127
sg70
g128
sbsg72
g294
sg74
g256
sg70
g384
sbaa(lp1112
(ischedule
Activity
p1113
(dp1114
g8
(lp1115
g135
ag187
ag196
ag140
ag194
ag139
ag25
ag24
ag143
ag34
ag12
ag46
ag94
ag37
ag42
ag87
ag594
ag946
ag420
ag609
ag416
ag941
ag592
ag803
ag948
ag689
ag949
ag684
ag369
ag651
ag862
ag704
ag621
ag513
ag691
ag950
ag808
ag396
ag825
ag700
ag832
ag531
ag947
ag413
ag802
ag796
ag942
ag476
ag545
ag589
ag597
ag268
ag345
ag499
ag943
ag481
ag944
ag601
ag945
ag314
asg64
g248
sg65
(ischedule
Group
p1116
(dp1117
g8
g1115
sg70
S'Software engineering2'
p1118
sbsg66
(iread_data
Room
p1119
(dp1120
g64
g69
sg70
g71
sbsg72
g129
sg74
g130
sg70
g257
sba(ischedule
Activity
p1121
(dp1122
g8
(lp1123
g389
ag681
ag1026
ag577
ag365
ag158
ag93
ag315
ag233
ag322
ag487
aS'52304977'
p1124
ag1079
aS'72652638'
p1125
ag1049
aS'15249775'
p1126
ag16
aS'5739011'
p1127
ag406
ag715
ag599
ag20
ag1017
ag873
ag533
ag615
ag281
ag234
ag97
ag711
ag1050
ag687
asg64
I1000
sg65
Nsg66
(iread_data
Room
p1128
(dp1129
g64
g227
sg70
g228
sbsg72
g73
sg74
I0
sg70
g1057
sba(ischedule
Activity
p1130
(dp1131
g8
(lp1132
g101
ag138
ag98
ag652
ag452
aS'62613937'
p1133
ag682
ag333
ag1089
ag612
ag588
ag353
ag546
ag392
ag587
asg64
g286
sg65
(ischedule
Group
p1134
(dp1135
g8
g1132
sg70
S'Advanced Heuristics1'
p1136
sbsg66
(iread_data
Room
p1137
(dp1138
g64
g275
sg70
g276
sbsg72
g294
sg74
g256
sg70
g295
sba(ischedule
Activity
p1139
(dp1140
g8
(lp1141
g579
ag564
ag532
ag453
ag266
ag58
ag178
ag515
ag155
ag602
ag115
ag596
ag169
asg64
g1035
sg65
(ischedule
Group
p1142
(dp1143
g8
g1141
sg70
S'Bioinformatica1'
p1144
sbsg66
(iread_data
Room
p1145
(dp1146
g64
g127
sg70
g128
sbsg72
g129
sg74
g256
sg70
g605
sba(ischedule
Activity
p1147
(dp1148
g8
(lp1149
g345
ag344
ag366
ag714
ag91
ag649
ag686
ag831
ag235
asg64
g734
sg65
(ischedule
Group
p1150
(dp1151
g8
g1149
sg70
S'Collectieve Intelligentie2'
p1152
sbsg66
(iread_data
Room
p1153
(dp1154
g64
g292
sg70
g293
sbsg72
g129
sg74
g130
sg70
g740
sba(ischedule
Activity
p1155
(dp1156
g8
g204
sg64
I1000
sg65
Nsg66
(iread_data
Room
p1157
(dp1158
g64
g254
sg70
g255
sbsg72
g73
sg74
I0
sg70
g229
sba(ischedule
Activity
p1159
(dp1160
g8
g730
sg64
S'20'
p1161
sg65
g735
sg66
(iread_data
Room
p1162
(dp1163
g64
g199
sg70
g200
sbsg72
g294
sg74
g471
sg70
g740
sbaa(lp1164
(ischedule
Activity
p1165
(dp1166
g8
g821
sg64
I1000
sg65
Nsg66
(iread_data
Room
p1167
(dp1168
g64
g199
sg70
g200
sbsg72
g73
sg74
I0
sg70
g740
sba(ischedule
Activity
p1169
(dp1170
g8
(lp1171
g20
ag15
ag322
ag611
ag566
ag452
ag60
ag61
aS'58480929'
p1172
ag1082
ag519
ag531
ag413
aS'97838175'
p1173
ag331
ag577
aS'73350019'
p1174
ag1133
ag23
ag479
ag80
aS'34900967'
p1175
ag46
ag214
ag573
ag118
aS'82854435'
p1176
ag84
ag716
ag56
ag950
ag704
ag677
aS'78822885'
p1177
aS'14637758'
p1178
ag431
ag578
ag111
ag621
ag653
ag266
ag37
ag97
ag312
aS'18477924'
p1179
ag600
ag149
ag310
ag544
asg64
I1000
sg65
Nsg66
(iread_data
Room
p1180
(dp1181
g64
g127
sg70
g128
sbsg72
g73
sg74
I0
sg70
S'Analysemethoden en -technieken'
p1182
sba(ischedule
Activity
p1183
(dp1184
g8
(lp1185
g421
ag54
ag244
ag159
ag53
ag404
ag391
ag389
ag236
ag104
ag309
ag207
aS'66433883'
p1186
aS'51509565'
p1187
ag949
ag802
aS'67817269'
p1188
ag184
ag874
aS'64554442'
p1189
ag247
ag234
ag242
ag797
aS'19540225'
p1190
ag590
ag691
asg64
g355
sg65
(ischedule
Group
p1191
(dp1192
g8
g1185
sg70
S'Algoritmen en complexiteit1'
p1193
sbsg66
(iread_data
Room
p1194
(dp1195
g64
g227
sg70
g228
sbsg72
g129
sg74
g256
sg70
g361
sba(ischedule
Activity
p1196
(dp1197
g8
(lp1198
g154
ag40
ag395
ag1018
ag808
ag43
ag612
ag31
ag315
ag181
ag194
asg64
g553
sg65
(ischedule
Group
p1199
(dp1200
g8
g1198
sg70
S'Project Numerical Recipes1'
p1201
sbsg66
(iread_data
Room
p1202
(dp1203
g64
g254
sg70
g255
sbsg72
g294
sg74
g256
sg70
g559
sba(ischedule
Activity
p1204
(dp1205
g8
(lp1206
g348
ag388
ag598
aS'85284256'
p1207
ag872
aS'63573738'
p1208
ag406
ag698
ag349
ag862
ag1078
ag614
aS'59887191'
p1209
ag546
ag702
ag223
ag173
ag602
asg64
g334
sg65
(ischedule
Group
p1210
(dp1211
g8
g1206
sg70
S'Netwerken en systeembeveiliging4'
p1212
sbsg66
(iread_data
Room
p1213
(dp1214
g64
g275
sg70
g276
sbsg72
g294
sg74
S'4'
p1215
sg70
g340
sba(ischedule
Activity
p1216
(dp1217
g8
g1101
sg64
g522
sg65
g1103
sg66
(iread_data
Room
p1218
(dp1219
g64
g292
sg70
g293
sbsg72
g294
sg74
g130
sg70
g472
sbaa(lp1220
(ischedule
Activity
p1221
(dp1222
g8
(lp1223
g89
ag33
ag112
ag99
ag116
ag120
ag310
ag104
ag94
ag102
ag16
ag98
ag188
ag588
ag93
ag875
ag114
ag115
ag80
ag83
ag692
ag118
ag84
ag210
ag43
ag100
ag486
ag106
ag876
ag190
ag82
ag872
ag101
ag111
ag87
ag103
ag90
ag107
ag96
ag483
ag86
ag91
ag29
ag21
ag168
ag88
ag595
ag110
ag109
ag220
ag97
ag81
ag117
ag105
ag92
ag873
ag47
ag113
ag79
ag874
ag56
ag519
ag85
ag119
ag349
ag159
ag95
ag108
ag50
ag547
ag394
ag877
asg64
I1000
sg65
Nsg66
(iread_data
Room
p1224
(dp1225
g64
g199
sg70
g200
sbsg72
g73
sg74
I0
sg70
g131
sba(ischedule
Activity
p1226
(dp1227
g8
g1115
sg64
g778
sg65
g1116
sg66
(iread_data
Room
p1228
(dp1229
g64
g69
sg70
g71
sbsg72
g294
sg74
g130
sg70
g257
sba(ischedule
Activity
p1230
(dp1231
g8
(lp1232
g564
ag146
ag579
ag169
ag137
ag352
ag224
ag344
ag52
ag417
ag450
ag348
ag325
ag718
ag863
asg64
g913
sg65
(ischedule
Group
p1233
(dp1234
g8
g1232
sg70
S'Programmeren in Java 21'
p1235
sbsg66
(iread_data
Room
p1236
(dp1237
g64
g292
sg70
g293
sbsg72
g294
sg74
g256
sg70
g920
sba(ischedule
Activity
p1238
(dp1239
g8
(lp1240
g285
ag690
asg64
g334
sg65
(ischedule
Group
p1241
(dp1242
g8
g1240
sg70
S'Netwerken en systeembeveiliging3'
p1243
sbsg66
(iread_data
Room
p1244
(dp1245
g64
g254
sg70
g255
sbsg72
g294
sg74
g471
sg70
g340
sba(ischedule
Activity
p1246
(dp1247
g8
(lp1248
g1126
aS'63096281'
p1249
asg64
g913
sg65
(ischedule
Group
p1250
(dp1251
g8
g1248
sg70
S'Programmeren in Java 24'
p1252
sbsg66
(iread_data
Room
p1253
(dp1254
g64
g127
sg70
g128
sbsg72
g294
sg74
g1215
sg70
g920
sbaa(lp1255
(ischedule
Activity
p1256
(dp1257
g8
g1149
sg64
g1161
sg65
g1150
sg66
(iread_data
Room
p1258
(dp1259
g64
g292
sg70
g293
sbsg72
g294
sg74
g130
sg70
g740
sba(ischedule
Activity
p1260
(dp1261
g8
g9
sg64
I1000
sg65
Nsg66
(iread_data
Room
p1262
(dp1263
g64
g127
sg70
g128
sbsg72
g73
sg74
I0
sg70
g75
sba(ischedule
Activity
p1264
(dp1265
g8
(lp1266
g1026
ag599
ag406
ag234
ag577
ag365
ag233
ag93
ag1017
ag1079
ag681
ag487
ag1126
ag533
ag1125
ag158
ag687
ag1124
ag615
ag389
ag1127
asg64
g1051
sg65
(ischedule
Group
p1267
(dp1268
g8
g1266
sg70
S'Heuristieken 21'
p1269
sbsg66
(iread_data
Room
p1270
(dp1271
g64
g69
sg70
g71
sbsg72
g129
sg74
g256
sg70
g1057
sba(ischedule
Activity
p1272
(dp1273
g8
(lp1274
g192
ag209
ag222
ag217
ag220
ag214
ag221
ag223
ag205
ag216
ag206
ag211
ag210
ag212
asg64
g770
sg65
(ischedule
Group
p1275
(dp1276
g8
g1274
sg70
S'Informatie- en organsatieontwerp2'
p1277
sbsg66
(iread_data
Room
p1278
(dp1279
g64
g227
sg70
g228
sbsg72
g294
sg74
g130
sg70
g229
sba(ischedule
Activity
p1280
(dp1281
g8
(lp1282
g588
ag138
ag282
ag281
ag682
ag452
ag101
ag392
ag546
ag333
ag587
ag612
ag283
ag1133
ag285
ag284
ag652
ag98
ag1089
ag353
asg64
I1000
sg65
Nsg66
(iread_data
Room
p1283
(dp1284
g64
g199
sg70
g200
sbsg72
g73
sg74
I0
sg70
g295
sba(ischedule
Activity
p1285
(dp1286
g8
(lp1287
g219
ag140
ag829
ag161
ag822
ag83
ag826
ag92
ag80
ag828
asg64
g1161
sg65
(ischedule
Group
p1288
(dp1289
g8
g1287
sg70
S'Collectieve Intelligentie1'
p1290
sbsg66
(iread_data
Room
p1291
(dp1292
g64
g254
sg70
g255
sbsg72
g294
sg74
g256
sg70
g740
sba(ischedule
Activity
p1293
(dp1294
g8
g923
sg64
g1035
sg65
g924
sg66
(iread_data
Room
p1295
(dp1296
g64
g275
sg70
g276
sbsg72
g129
sg74
g471
sg70
g605
sbaaa(lp1297
(lp1298
(ischedule
Activity
p1299
(dp1300
g8
(lp1301
g564
ag612
ag609
ag678
ag18
ag31
ag328
ag720
ag591
ag682
ag347
ag96
ag721
ag151
ag683
ag450
ag693
ag712
ag171
ag396
ag697
ag366
ag11
ag690
ag695
ag713
ag701
ag20
ag700
ag704
ag169
ag685
ag142
ag482
ag688
ag710
ag568
ag452
ag676
ag686
ag705
ag714
ag703
ag354
ag188
ag47
ag702
ag706
ag110
ag677
ag679
ag708
ag711
ag707
ag681
ag597
ag160
ag718
ag106
ag698
ag699
ag547
ag21
ag717
asg64
g434
sg65
(ischedule
Group
p1302
(dp1303
g8
g1301
sg70
S'Calculus 23'
p1304
sbsg66
(iread_data
Room
p1305
(dp1306
g64
g199
sg70
g200
sbsg72
g129
sg74
g471
sg70
g440
sba(ischedule
Activity
p1307
(dp1308
g8
g648
sg64
I1000
sg65
Nsg66
(iread_data
Room
p1309
(dp1310
g64
g275
sg70
g276
sbsg72
g73
sg74
I0
sg70
g659
sba(ischedule
Activity
p1311
(dp1312
g8
g743
sg64
g761
sg65
g752
sg66
(iread_data
Room
p1313
(dp1314
g64
g227
sg70
g228
sbsg72
g129
sg74
g256
sg70
g757
sba(ischedule
Activity
p1315
(dp1316
g8
g511
sg64
g465
sg65
g523
sg66
(iread_data
Room
p1317
(dp1318
g64
g127
sg70
g128
sbsg72
g129
sg74
g256
sg70
g472
sba(ischedule
Activity
p1319
(dp1320
g8
(lp1321
g23
ag40
ag86
ag85
ag223
ag175
ag173
ag192
ag184
ag143
ag221
ag216
ag282
ag1019
ag10
ag453
ag1018
ag1017
ag578
ag945
ag957
ag798
ag811
ag808
ag1014
ag1016
ag1013
ag1015
asg64
g269
sg65
(ischedule
Group
p1322
(dp1323
g8
g1321
sg70
S'Technology for games1'
p1324
sbsg66
(iread_data
Room
p1325
(dp1326
g64
g69
sg70
g71
sbsg72
g129
sg74
g256
sg70
g277
sba(ischedule
Activity
p1327
(dp1328
g8
g760
sg64
g751
sg65
g762
sg66
(iread_data
Room
p1329
(dp1330
g64
g292
sg70
g293
sbsg72
g294
sg74
g130
sg70
g757
sba(ischedule
Activity
p1331
(dp1332
g8
(lp1333
g157
aS'37419523'
p1334
ag1080
aS'40911986'
p1335
ag803
ag1208
ag92
aS'90103047'
p1336
aS'21070547'
p1337
ag140
ag599
ag39
ag500
aS'81116418'
p1338
aS'19662602'
p1339
ag416
ag393
aS'63939720'
p1340
ag324
ag195
aS'34691309'
p1341
asg64
g553
sg65
(ischedule
Group
p1342
(dp1343
g8
g1333
sg70
S'Project Numerical Recipes3'
p1344
sbsg66
(iread_data
Room
p1345
(dp1346
g64
g254
sg70
g255
sbsg72
g294
sg74
g471
sg70
g559
sbaa(lp1347
(ischedule
Activity
p1348
(dp1349
g8
g1185
sg64
g444
sg65
g1191
sg66
(iread_data
Room
p1350
(dp1351
g64
g69
sg70
g71
sbsg72
g294
sg74
g256
sg70
g361
sba(ischedule
Activity
p1352
(dp1353
g8
g988
sg64
I1000
sg65
Nsg66
(iread_data
Room
p1354
(dp1355
g64
g127
sg70
g128
sbsg72
g73
sg74
I0
sg70
g757
sba(ischedule
Activity
p1356
(dp1357
g8
g1287
sg64
g734
sg65
g1288
sg66
(iread_data
Room
p1358
(dp1359
g64
g292
sg70
g293
sbsg72
g129
sg74
g256
sg70
g740
sba(ischedule
Activity
p1360
(dp1361
g8
(lp1362
g365
ag33
ag284
ag39
ag97
ag347
ag681
ag30
ag793
ag163
ag825
ag609
ag262
ag195
ag832
ag94
ag823
ag185
ag82
ag827
ag330
ag830
ag14
ag50
ag824
ag224
ag324
ag328
ag481
ag810
ag610
asg64
g1161
sg65
(ischedule
Group
p1363
(dp1364
g8
g1362
sg70
S'Collectieve Intelligentie4'
p1365
sbsg66
(iread_data
Room
p1366
(dp1367
g64
g275
sg70
g276
sbsg72
g294
sg74
g1215
sg70
g740
sba(ischedule
Activity
p1368
(dp1369
g8
g841
sg64
g378
sg65
g850
sg66
(iread_data
Room
p1370
(dp1371
g64
g227
sg70
g228
sbsg72
g129
sg74
g130
sg70
g384
sba(ischedule
Activity
p1372
(dp1373
g8
(lp1374
S'73893840'
p1375
ag942
ag42
ag1207
asg64
g913
sg65
(ischedule
Group
p1376
(dp1377
g8
g1374
sg70
S'Programmeren in Java 22'
p1378
sbsg66
(iread_data
Room
p1379
(dp1380
g64
g199
sg70
g200
sbsg72
g294
sg74
g130
sg70
g920
sbaa(lp1381
(ischedule
Activity
p1382
(dp1383
g8
g586
sg64
I1000
sg65
Nsg66
(iread_data
Room
p1384
(dp1385
g64
g127
sg70
g128
sbsg72
g73
sg74
I0
sg70
g605
sba(ischedule
Activity
p1386
(dp1387
g8
g1012
sg64
I1000
sg65
Nsg66
(iread_data
Room
p1388
(dp1389
g64
g227
sg70
g228
sbsg72
g73
sg74
I0
sg70
g277
sba(ischedule
Activity
p1390
(dp1391
g8
(lp1392
g159
ag790
ag166
ag458
ag862
aS'90296821'
p1393
aS'88519892'
p1394
ag943
ag32
ag814
ag103
ag60
ag241
ag689
ag433
ag569
ag246
ag16
ag151
ag220
ag946
ag105
ag690
ag347
ag797
ag847
ag613
ag372
ag1027
ag715
ag174
ag107
ag213
ag566
aS'23215240'
p1395
aS'10702778'
p1396
ag152
ag365
aS'64053722'
p1397
ag476
aS'28943658'
p1398
ag1186
ag432
ag1081
ag800
ag823
aS'7386961'
p1399
ag195
ag210
ag1175
ag94
ag153
ag830
ag697
ag1026
ag141
ag30
aS'88263855'
p1400
aS'54395877'
p1401
asg64
g913
sg65
(ischedule
Group
p1402
(dp1403
g8
g1392
sg70
S'Programmeren in Java 23'
p1404
sbsg66
(iread_data
Room
p1405
(dp1406
g64
g199
sg70
g200
sbsg72
g294
sg74
g471
sg70
g920
sba(ischedule
Activity
p1407
(dp1408
g8
(lp1409
g519
ag352
ag135
ag25
ag687
ag243
ag842
asg64
g488
sg65
(ischedule
Group
p1410
(dp1411
g8
g1409
sg70
S'Project Genetic Algorithms1'
p1412
sbsg66
(iread_data
Room
p1413
(dp1414
g64
g69
sg70
g71
sbsg72
g294
sg74
g256
sg70
g494
sbaa(lp1415
(ischedule
Activity
p1416
(dp1417
g8
g821
sg64
I1000
sg65
Nsg66
(iread_data
Room
p1418
(dp1419
g64
g199
sg70
g200
sbsg72
g73
sg74
I0
sg70
g740
sba(ischedule
Activity
p1420
(dp1421
g8
g1274
sg64
g997
sg65
g1275
sg66
(iread_data
Room
p1422
(dp1423
g64
g127
sg70
g128
sbsg72
g129
sg74
g130
sg70
g229
sba(ischedule
Activity
p1424
(dp1425
g8
(lp1426
g187
ag261
ag415
ag87
ag420
ag114
ag416
ag26
ag417
ag105
asg64
g640
sg65
(ischedule
Group
p1427
(dp1428
g8
g1426
sg70
S'Autonomous Agents 23'
p1429
sbsg66
(iread_data
Room
p1430
(dp1431
g64
g292
sg70
g293
sbsg72
g129
sg74
g471
sg70
g425
sba(ischedule
Activity
p1432
(dp1433
g8
(lp1434
g18
ag208
ag650
ag79
ag654
ag592
ag413
ag180
ag106
ag422
ag1081
ag268
ag38
ag748
ag1077
ag12
ag1078
ag1082
ag1080
ag1079
asg64
g622
sg65
(ischedule
Group
p1435
(dp1436
g8
g1434
sg70
S'Heuristieken 11'
p1437
sbsg66
(iread_data
Room
p1438
(dp1439
g64
g227
sg70
g228
sbsg72
g129
sg74
g256
sg70
g628
sba(ischedule
Activity
p1440
(dp1441
g8
g1141
sg64
g900
sg65
g1142
sg66
(iread_data
Room
p1442
(dp1443
g64
g254
sg70
g255
sbsg72
g294
sg74
g256
sg70
g605
sba(ischedule
Activity
p1444
(dp1445
g8
(lp1446
g234
ag113
ag353
ag344
ag244
ag350
ag93
ag242
ag1190
ag348
ag1189
ag159
ag207
ag1188
ag421
ag802
ag874
ag949
ag236
ag389
ag349
ag1187
ag181
ag347
ag691
ag345
ag82
ag53
ag54
ag88
ag797
ag354
ag346
ag247
ag590
ag104
ag351
ag184
ag352
ag391
ag309
ag404
ag1186
asg64
I1000
sg65
Nsg66
(iread_data
Room
p1447
(dp1448
g64
g69
sg70
g71
sbsg72
g73
sg74
I0
sg70
g361
sbaa(lp1449
(ischedule
Activity
p1450
(dp1451
g8
(lp1452
g325
ag244
ag192
ag512
ag433
ag1102
ag519
ag459
ag455
ag220
ag430
ag369
ag147
ag514
ag464
ag517
ag266
ag460
ag521
ag143
ag463
ag107
ag513
ag516
ag457
ag461
ag518
ag243
ag90
ag233
ag219
ag104
ag29
ag520
ag462
ag454
ag115
ag165
ag452
ag317
ag167
ag515
ag451
ag453
ag154
ag49
ag456
ag215
ag170
ag458
ag85
ag91
ag450
ag89
asg64
I1000
sg65
Nsg66
(iread_data
Room
p1453
(dp1454
g64
g199
sg70
g200
sbsg72
g73
sg74
I0
sg70
g472
sba(ischedule
Activity
p1455
(dp1456
g8
g1362
sg64
g734
sg65
g1363
sg66
(iread_data
Room
p1457
(dp1458
g64
g275
sg70
g276
sbsg72
g129
sg74
g1215
sg70
g740
sba(ischedule
Activity
p1459
(dp1460
g8
(lp1461
g236
ag111
aS'1695839'
p1462
ag480
ag650
ag86
ag715
aS'55103073'
p1463
ag22
ag594
ag345
ag320
ag59
ag333
ag814
ag351
aS'44151631'
p1464
ag484
ag1395
ag545
ag1088
ag354
ag592
aS'42297781'
p1465
ag373
aS'64418623'
p1466
ag264
ag477
ag346
aS'51472074'
p1467
ag216
aS'91250534'
p1468
aS'47260040'
p1469
asg64
g665
sg65
(ischedule
Group
p1470
(dp1471
g8
g1461
sg70
S'Compilerbouw practicum2'
p1472
sbsg66
(iread_data
Room
p1473
(dp1474
g64
g227
sg70
g228
sbsg72
g294
sg74
g130
sg70
g671
sba(ischedule
Activity
p1475
(dp1476
g8
g387
sg64
I1000
sg65
Nsg66
(iread_data
Room
p1477
(dp1478
g64
g69
sg70
g71
sbsg72
g73
sg74
I0
sg70
g409
sba(ischedule
Activity
p1479
(dp1480
g8
g1426
sg64
g1003
sg65
g1427
sg66
(iread_data
Room
p1481
(dp1482
g64
g292
sg70
g293
sbsg72
g294
sg74
g471
sg70
g425
sba(ischedule
Activity
p1483
(dp1484
g8
g861
sg64
g751
sg65
g864
sg66
(iread_data
Room
p1485
(dp1486
g64
g127
sg70
g128
sbsg72
g294
sg74
g471
sg70
g757
sba(ischedule
Activity
p1487
(dp1488
g8
g1002
sg64
g640
sg65
g1004
sg66
(iread_data
Room
p1489
(dp1490
g64
g254
sg70
g255
sbsg72
g129
sg74
g130
sg70
g425
sbaaa(lp1491
(lp1492
a(lp1493
a(lp1494
a(lp1495
a(lp1496
aasS'timeslot_dict'
p1497
(dp1498
I0
S'9:00-11:00'
p1499
sI1
S'11:00-13:00'
p1500
sI2
S'13:00-15:00'
p1501
sI3
S'15:00-17:00'
p1502
sI4
S'17:00-19:00'
p1503
ssS'day_dict'
p1504
(dp1505
I0
S'Monday'
p1506
sI1
S'Tuesday'
p1507
sI2
S'Wednesday'
p1508
sI3
S'Thursday'
p1509
sI4
S'Friday'
p1510
ssb.