(ischedule
Schedule
p0
(dp1
S'timetable'
p2
(lp3
(lp4
(lp5
(ischedule
Activity
p6
(dp7
S'participants'
p8
(lp9
S'99453514'
p10
aS'81022997'
p11
aS'59753700'
p12
aS'17823206'
p13
aS'98780382'
p14
aS'37744525'
p15
aS'74131924'
p16
aS'45414528'
p17
aS'21964491'
p18
aS'87314964'
p19
aS'66122625'
p20
aS'93023961'
p21
aS'70878567'
p22
aS'68360259'
p23
aS'25330192'
p24
aS'81200278'
p25
aS'87900893'
p26
aS'51566595'
p27
aS'50143947'
p28
aS'13996448'
p29
aS'91196968'
p30
aS'19337738'
p31
aS'22323043'
p32
aS'37110913'
p33
aS'97136582'
p34
aS'52311353'
p35
aS'13116738'
p36
asS'capacity'
p37
I1000
sS'group'
p38
NsS'room'
p39
(iread_data
Room
p40
(dp41
g37
S'41'
p42
sS'name'
p43
S'A1.04'
p44
sbsS'ttype'
p45
S'lectures'
p46
sS'group_id'
p47
I0
sg43
S'Data Mining'
p48
sba(ischedule
Activity
p49
(dp50
g8
(lp51
S'57086672'
p52
aS'67073567'
p53
aS'5615125'
p54
aS'69459473'
p55
aS'76903244'
p56
aS'89180944'
p57
aS'77392404'
p58
aS'3474870'
p59
aS'24891081'
p60
aS'94930277'
p61
aS'66034145'
p62
aS'53202517'
p63
aS'43460038'
p64
aS'16333449'
p65
aS'17092717'
p66
aS'27064249'
p67
aS'53512831'
p68
aS'6249823'
p69
aS'43902015'
p70
aS'28358060'
p71
aS'10698627'
p72
aS'78243495'
p73
aS'20618153'
p74
aS'76648468'
p75
aS'49908313'
p76
aS'61443567'
p77
aS'2416751'
p78
aS'64228258'
p79
aS'41790793'
p80
aS'76123484'
p81
aS'72577292'
p82
aS'33877725'
p83
aS'22288615'
p84
aS'14847953'
p85
aS'40434933'
p86
aS'1137946'
p87
aS'14303208'
p88
aS'39230359'
p89
aS'72895450'
p90
asg37
I1000
sg38
Nsg39
(iread_data
Room
p91
(dp92
g37
S'56'
p93
sg43
S'A1.10'
p94
sbsg45
g46
sg47
I0
sg43
S'Webprogrammeren en databases'
p95
sba(ischedule
Activity
p96
(dp97
g8
(lp98
S'14309255'
p99
aS'73236988'
p100
aS'11915563'
p101
aS'75599734'
p102
aS'95631564'
p103
aS'60312776'
p104
aS'1048485'
p105
aS'40343779'
p106
aS'73302736'
p107
aS'26260141'
p108
aS'58565406'
p109
aS'65408517'
p110
aS'25106480'
p111
aS'80709893'
p112
aS'28357474'
p113
aS'88176729'
p114
aS'78443067'
p115
aS'83210352'
p116
aS'11068043'
p117
aS'58074656'
p118
aS'21095566'
p119
aS'42115591'
p120
aS'89985072'
p121
aS'99283252'
p122
aS'31633723'
p123
aS'37830626'
p124
aS'27582862'
p125
aS'4568018'
p126
aS'48601268'
p127
aS'48357272'
p128
asg37
S'40'
p129
sg38
(ischedule
Group
p130
(dp131
g8
g98
sg43
S'Software engineering2'
p132
sbsg39
(iread_data
Room
p133
(dp134
g37
S'117'
p135
sg43
S'C0.110'
p136
sbsg45
S'labs'
p137
sg47
S'2'
p138
sg43
S'Software engineering'
p139
sba(ischedule
Activity
p140
(dp141
g8
(lp142
S'40791377'
p143
aS'5976174'
p144
aS'27187154'
p145
aS'67625383'
p146
aS'56988998'
p147
aS'2079771'
p148
aS'15051051'
p149
aS'39459642'
p150
aS'3685034'
p151
aS'49683101'
p152
aS'38296757'
p153
aS'26857113'
p154
aS'63111000'
p155
aS'23798155'
p156
aS'77240949'
p157
aS'90067329'
p158
aS'85236626'
p159
ag15
aS'94467156'
p160
aS'61518436'
p161
aS'46701583'
p162
aS'33252501'
p163
asg37
I1000
sg38
Nsg39
(iread_data
Room
p164
(dp165
g37
S'48'
p166
sg43
S'B0.201'
p167
sbsg45
g46
sg47
I0
sg43
S'Machine Learning'
p168
sba(ischedule
Activity
p169
(dp170
g8
(lp171
S'86988337'
p172
aS'92665222'
p173
aS'88855695'
p174
aS'10792879'
p175
aS'79167252'
p176
aS'88752563'
p177
aS'12077419'
p178
aS'27950803'
p179
aS'6723948'
p180
aS'76661016'
p181
aS'84524083'
p182
aS'81385263'
p183
aS'83266686'
p184
aS'15911353'
p185
aS'43689934'
p186
aS'58522654'
p187
aS'31194811'
p188
aS'13284244'
p189
aS'30658799'
p190
aS'5595824'
p191
ag145
aS'3407554'
p192
aS'11741347'
p193
aS'54772132'
p194
aS'68315599'
p195
aS'44391517'
p196
aS'75664412'
p197
aS'37770881'
p198
aS'48503689'
p199
aS'48308205'
p200
aS'34110913'
p201
aS'34243356'
p202
aS'65852230'
p203
aS'1766560'
p204
aS'98105190'
p205
aS'34872117'
p206
aS'95007221'
p207
aS'88636924'
p208
aS'75759231'
p209
aS'46989508'
p210
aS'24613625'
p211
aS'2317551'
p212
aS'42778953'
p213
aS'76802764'
p214
asg37
S'40'
p215
sg38
(ischedule
Group
p216
(dp217
g8
g171
sg43
S'Compilerbouw1'
p218
sbsg39
(iread_data
Room
p219
(dp220
g37
S'60'
p221
sg43
S'C1.112'
p222
sbsg45
g137
sg47
S'1'
p223
sg43
S'Compilerbouw'
p224
sba(ischedule
Activity
p225
(dp226
g8
(lp227
S'70844780'
p228
aS'75997788'
p229
aS'72665524'
p230
aS'78136904'
p231
aS'60352393'
p232
aS'47477884'
p233
aS'86807027'
p234
aS'40633534'
p235
aS'39429093'
p236
aS'20883994'
p237
aS'28618400'
p238
aS'1886996'
p239
aS'23547619'
p240
aS'72683344'
p241
asg37
S'10'
p242
sg38
(ischedule
Group
p243
(dp244
g8
g227
sg43
S'Advanced Heuristics1'
p245
sbsg39
(iread_data
Room
p246
(dp247
g37
S'22'
p248
sg43
S'A1.06'
p249
sbsg45
g137
sg47
g223
sg43
S'Advanced Heuristics'
p250
sba(ischedule
Activity
p251
(dp252
g8
(lp253
S'44901052'
p254
aS'22871048'
p255
aS'62356458'
p256
aS'19858730'
p257
ag33
aS'88627897'
p258
aS'61611295'
p259
aS'34806836'
p260
aS'70113753'
p261
asg37
S'10'
p262
sg38
(ischedule
Group
p263
(dp264
g8
g253
sg43
S'Autonomous Agents 23'
p265
sbsg39
(iread_data
Room
p266
(dp267
g37
S'20'
p268
sg43
S'A1.08'
p269
sbsg45
g137
sg47
S'3'
p270
sg43
S'Autonomous Agents 2'
p271
sbaa(lp272
(ischedule
Activity
p273
(dp274
g8
(lp275
g81
ag66
ag69
ag52
ag73
ag86
ag77
ag57
ag64
ag85
ag58
ag71
ag79
ag74
ag87
ag89
ag53
ag88
ag82
ag56
ag54
ag62
ag84
ag76
ag61
ag72
ag75
asg37
S'20'
p276
sg38
(ischedule
Group
p277
(dp278
g8
g275
sg43
S'Webprogrammeren en databases2'
p279
sbsg39
(iread_data
Room
p280
(dp281
g37
g135
sg43
g136
sbsg45
g137
sg47
g138
sg43
g95
sba(ischedule
Activity
p282
(dp283
g8
(lp284
g27
aS'22731474'
p285
ag25
aS'27925117'
p286
aS'72652638'
p287
aS'34765676'
p288
aS'99975346'
p289
ag144
aS'58736785'
p290
aS'33760909'
p291
aS'16097870'
p292
aS'670011'
p293
aS'48678993'
p294
asg37
S'20'
p295
sg38
(ischedule
Group
p296
(dp297
g8
g284
sg43
S'Heuristieken 21'
p298
sbsg39
(iread_data
Room
p299
(dp300
g37
g248
sg43
g249
sbsg45
S'tutorials'
p301
sg47
g223
sg43
S'Heuristieken 2'
p302
sba(ischedule
Activity
p303
(dp304
g8
(lp305
S'19958553'
p306
ag22
aS'77636749'
p307
aS'62701040'
p308
aS'8557857'
p309
aS'75521763'
p310
aS'75585647'
p311
aS'29718115'
p312
aS'36748818'
p313
ag36
aS'58332004'
p314
aS'23983476'
p315
ag254
aS'17496687'
p316
aS'32204977'
p317
aS'11459236'
p318
aS'18266644'
p319
aS'23257088'
p320
ag195
aS'92977271'
p321
aS'13658563'
p322
asg37
I1000
sg38
Nsg39
(iread_data
Room
p323
(dp324
g37
g221
sg43
g222
sbsg45
g46
sg47
I0
sg43
S'Informatie- en organsatieontwerp'
p325
sba(ischedule
Activity
p326
(dp327
g8
(lp328
g18
ag28
ag33
ag32
ag11
ag34
ag17
ag14
ag23
ag35
asg37
S'10'
p329
sg38
(ischedule
Group
p330
(dp331
g8
g328
sg43
S'Data Mining2'
p332
sbsg39
(iread_data
Room
p333
(dp334
g37
g42
sg43
g44
sbsg45
g301
sg47
g138
sg43
g48
sba(ischedule
Activity
p335
(dp336
g8
(lp337
g103
ag101
ag63
ag100
ag143
ag148
ag99
ag90
ag152
ag150
ag102
ag104
aS'7957843'
p338
aS'94687383'
p339
aS'79033175'
p340
aS'66701209'
p341
aS'80135353'
p342
aS'72796858'
p343
aS'5368702'
p344
aS'86291592'
p345
aS'77896638'
p346
aS'8464817'
p347
aS'65960683'
p348
aS'13911001'
p349
aS'9067939'
p350
asg37
S'40'
p351
sg38
(ischedule
Group
p352
(dp353
g8
g337
sg43
S'Compilerbouw2'
p354
sbsg39
(iread_data
Room
p355
(dp356
g37
g166
sg43
g167
sbsg45
g301
sg47
g138
sg43
g224
sba(ischedule
Activity
p357
(dp358
g8
g171
sg37
g351
sg38
g216
sg39
(iread_data
Room
p359
(dp360
g37
g93
sg43
g94
sbsg45
g301
sg47
g223
sg43
g224
sba(ischedule
Activity
p361
(dp362
g8
(lp363
S'26406342'
p364
ag126
aS'63634350'
p365
aS'55103073'
p366
aS'1665980'
p367
aS'91250534'
p368
aS'25994016'
p369
aS'52715680'
p370
aS'535689'
p371
aS'88596522'
p372
aS'47260040'
p373
aS'1695839'
p374
aS'51472074'
p375
asg37
S'15'
p376
sg38
(ischedule
Group
p377
(dp378
g8
g363
sg43
S'Compilerbouw practicum3'
p379
sbsg39
(iread_data
Room
p380
(dp381
g37
g268
sg43
g269
sbsg45
g137
sg47
g270
sg43
S'Compilerbouw practicum'
p382
sbaa(lp383
(ischedule
Activity
p384
(dp385
g8
(lp386
S'36785409'
p387
ag232
ag255
ag322
aS'33776961'
p388
aS'42406214'
p389
aS'84449005'
p390
aS'5298748'
p391
aS'24277163'
p392
aS'36213792'
p393
aS'87830198'
p394
aS'60661905'
p395
aS'4709948'
p396
aS'68286356'
p397
aS'13092455'
p398
aS'77960666'
p399
ag153
aS'37399898'
p400
ag12
ag161
aS'20239127'
p401
ag58
ag151
aS'51052738'
p402
aS'90474003'
p403
aS'27370083'
p404
aS'82390428'
p405
aS'49922855'
p406
aS'32044893'
p407
ag33
aS'6913074'
p408
aS'27805666'
p409
ag231
ag172
aS'51415617'
p410
aS'92778619'
p411
aS'22826928'
p412
aS'96554914'
p413
aS'13718298'
p414
aS'20095994'
p415
aS'43680781'
p416
ag10
aS'54569540'
p417
aS'70193386'
p418
ag179
ag289
ag370
aS'41578612'
p419
ag228
ag182
ag52
asg37
I1000
sg38
Nsg39
(iread_data
Room
p420
(dp421
g37
g221
sg43
g222
sbsg45
g46
sg47
I0
sg43
S'Reflectie op de digitale cultuur'
p422
sba(ischedule
Activity
p423
(dp424
g8
g98
sg37
S'40'
p425
sg38
g130
sg39
(iread_data
Room
p426
(dp427
g37
g42
sg43
g44
sbsg45
g301
sg47
g138
sg43
g139
sba(ischedule
Activity
p428
(dp429
g8
(lp430
g235
ag160
ag162
aS'78821918'
p431
aS'86180471'
p432
ag341
aS'74361881'
p433
aS'75680261'
p434
ag369
aS'76924297'
p435
aS'51673172'
p436
asg37
S'15'
p437
sg38
(ischedule
Group
p438
(dp439
g8
g430
sg43
S'Project Genetic Algorithms3'
p440
sbsg39
(iread_data
Room
p441
(dp442
g37
g268
sg43
g269
sbsg45
g137
sg47
g270
sg43
S'Project Genetic Algorithms'
p443
sba(ischedule
Activity
p444
(dp445
g8
(lp446
S'64296965'
p447
ag291
ag82
aS'35330349'
p448
ag213
aS'7308727'
p449
aS'54310617'
p450
aS'73980360'
p451
ag367
ag28
aS'68601184'
p452
aS'51741554'
p453
ag345
aS'34773179'
p454
aS'13534377'
p455
asg37
S'20'
p456
sg38
(ischedule
Group
p457
(dp458
g8
g446
sg43
S'Collectieve Intelligentie4'
p459
sbsg39
(iread_data
Room
p460
(dp461
g37
g135
sg43
g136
sbsg45
g301
sg47
S'4'
p462
sg43
S'Collectieve Intelligentie'
p463
sba(ischedule
Activity
p464
(dp465
g8
(lp466
S'29640619'
p467
aS'42196732'
p468
aS'82689818'
p469
aS'57595888'
p470
aS'9332762'
p471
ag18
aS'86000192'
p472
aS'43027916'
p473
aS'3233378'
p474
aS'45556081'
p475
aS'17575088'
p476
ag346
ag348
aS'4783858'
p477
ag81
aS'64393888'
p478
ag364
ag157
ag187
asg37
S'20'
p479
sg38
(ischedule
Group
p480
(dp481
g8
g466
sg43
S'Collectieve Intelligentie1'
p482
sbsg39
(iread_data
Room
p483
(dp484
g37
g166
sg43
g167
sbsg45
g137
sg47
g223
sg43
g463
sbaa(lp485
(ischedule
Activity
p486
(dp487
g8
(lp488
g202
ag348
ag181
ag347
ag180
ag346
ag178
ag214
ag189
ag179
ag210
ag197
ag175
ag342
ag209
ag338
ag172
ag185
ag184
ag103
ag193
ag101
ag104
ag63
ag345
ag196
ag90
ag188
ag343
ag195
ag176
ag192
ag349
ag201
ag183
ag206
ag102
ag205
ag145
ag100
ag173
ag191
ag186
ag190
ag99
ag177
ag339
ag200
ag341
ag187
ag350
ag207
ag182
ag199
ag204
ag212
ag152
ag143
ag208
ag198
ag340
ag203
ag194
ag211
ag174
ag213
ag150
ag148
ag344
asg37
I1000
sg38
Nsg39
(iread_data
Room
p489
(dp490
g37
g135
sg43
g136
sbsg45
g46
sg47
I0
sg43
g224
sba(ischedule
Activity
p491
(dp492
g8
(lp493
g255
ag414
ag413
ag370
ag32
ag57
ag83
ag160
ag64
ag35
ag179
ag15
ag73
ag144
ag467
aS'84110134'
p494
aS'14671406'
p495
aS'51593625'
p496
aS'89338938'
p497
ag256
aS'4546613'
p498
aS'77376714'
p499
ag477
aS'31103066'
p500
ag474
aS'3727435'
p501
aS'44868097'
p502
aS'62105897'
p503
aS'41527759'
p504
aS'41153310'
p505
aS'82872148'
p506
aS'59544049'
p507
aS'31247305'
p508
aS'54026378'
p509
aS'68409833'
p510
aS'14072826'
p511
aS'55474917'
p512
aS'65318664'
p513
aS'52552718'
p514
aS'70015932'
p515
ag28
aS'61060652'
p516
aS'44671041'
p517
aS'45915482'
p518
aS'9287708'
p519
asg37
g425
sg38
(ischedule
Group
p520
(dp521
g8
g493
sg43
S'Software engineering1'
p522
sbsg39
(iread_data
Room
p523
(dp524
g37
g93
sg43
g94
sbsg45
g301
sg47
g223
sg43
g139
sba(ischedule
Activity
p525
(dp526
g8
g305
sg37
I1000
sg38
Nsg39
(iread_data
Room
p527
(dp528
g37
g42
sg43
g44
sbsg45
g46
sg47
I0
sg43
g325
sba(ischedule
Activity
p529
(dp530
g8
(lp531
S'6709529'
p532
aS'93361408'
p533
aS'58253841'
p534
aS'58699305'
p535
ag107
aS'85335143'
p536
aS'46570285'
p537
aS'6939933'
p538
ag79
aS'21029457'
p539
ag26
aS'10149535'
p540
aS'11593163'
p541
aS'53585410'
p542
aS'80188025'
p543
aS'14179347'
p544
ag472
ag108
ag153
aS'12091019'
p545
ag110
ag229
ag286
aS'23565001'
p546
ag234
aS'61520025'
p547
aS'82412626'
p548
aS'96054456'
p549
aS'19717077'
p550
aS'78544592'
p551
aS'28957789'
p552
ag230
aS'24875739'
p553
aS'62363761'
p554
ag88
ag233
aS'56544130'
p555
aS'58592894'
p556
aS'79888156'
p557
aS'58469172'
p558
aS'3678531'
p559
aS'72526473'
p560
asg37
S'40'
p561
sg38
(ischedule
Group
p562
(dp563
g8
g531
sg43
S'Calculus 23'
p564
sbsg39
(iread_data
Room
p565
(dp566
g37
g166
sg43
g167
sbsg45
g301
sg47
g270
sg43
S'Calculus 2'
p567
sba(ischedule
Activity
p568
(dp569
g8
(lp570
g27
aS'5517869'
p571
ag16
aS'27298319'
p572
aS'62872965'
p573
asg37
S'10'
p574
sg38
(ischedule
Group
p575
(dp576
g8
g570
sg43
S'Autonomous Agents 22'
p577
sbsg39
(iread_data
Room
p578
(dp579
g37
g268
sg43
g269
sbsg45
g301
sg47
g138
sg43
g271
sbaa(lp580
(ischedule
Activity
p581
(dp582
g8
g275
sg37
S'20'
p583
sg38
g277
sg39
(iread_data
Room
p584
(dp585
g37
g93
sg43
g94
sbsg45
g301
sg47
g138
sg43
g95
sba(ischedule
Activity
p586
(dp587
g8
(lp588
g549
ag416
ag285
ag468
aS'30050930'
p589
aS'66120270'
p590
ag449
ag149
aS'3168419'
p591
aS'14591033'
p592
aS'29526540'
p593
ag536
ag25
ag412
ag539
ag114
aS'64600457'
p594
ag507
ag22
ag187
aS'14816774'
p595
asg37
S'20'
p596
sg38
(ischedule
Group
p597
(dp598
g8
g588
sg43
S'Bioinformatica2'
p599
sbsg39
(iread_data
Room
p600
(dp601
g37
g221
sg43
g222
sbsg45
g301
sg47
g138
sg43
S'Bioinformatica'
p602
sba(ischedule
Activity
p603
(dp604
g8
(lp605
g419
ag415
ag414
ag161
ag228
ag405
ag417
ag255
ag418
ag397
ag391
ag231
ag390
ag393
ag232
asg37
S'20'
p606
sg38
(ischedule
Group
p607
(dp608
g8
g605
sg43
S'Reflectie op de digitale cultuur1'
p609
sbsg39
(iread_data
Room
p610
(dp611
g37
g248
sg43
g249
sbsg45
g301
sg47
g223
sg43
g422
sba(ischedule
Activity
p612
(dp613
g8
g488
sg37
I1000
sg38
Nsg39
(iread_data
Room
p614
(dp615
g37
g135
sg43
g136
sbsg45
g46
sg47
I0
sg43
g224
sba(ischedule
Activity
p616
(dp617
g8
(lp618
g28
ag183
aS'15902055'
p619
ag499
ag90
ag372
aS'91527663'
p620
aS'19540225'
p621
aS'66433883'
p622
ag288
ag315
aS'64554442'
p623
ag572
ag144
ag119
ag108
ag495
aS'67817269'
p624
aS'8522855'
p625
aS'64947290'
p626
aS'57467488'
p627
ag59
ag70
ag162
ag27
ag18
aS'23652927'
p628
ag106
aS'41585485'
p629
ag231
ag178
aS'51509565'
p630
ag367
aS'36903574'
p631
ag504
ag370
aS'44828429'
p632
aS'96453361'
p633
ag542
ag469
ag172
ag556
aS'3707829'
p634
asg37
I1000
sg38
Nsg39
(iread_data
Room
p635
(dp636
g37
g166
sg43
g167
sbsg45
g46
sg47
I0
sg43
S'Algoritmen en complexiteit'
p637
sba(ischedule
Activity
p638
(dp639
g8
(lp640
g310
ag392
ag571
ag240
ag111
aS'46052388'
p641
aS'97135019'
p642
ag308
aS'1075391'
p643
ag127
aS'53107172'
p644
aS'31416266'
p645
aS'1696500'
p646
aS'87758823'
p647
asg37
g479
sg38
(ischedule
Group
p648
(dp649
g8
g640
sg43
S'Collectieve Intelligentie2'
p650
sbsg39
(iread_data
Room
p651
(dp652
g37
g268
sg43
g269
sbsg45
g137
sg47
g138
sg43
g463
sba(ischedule
Activity
p653
(dp654
g8
(lp655
g151
ag398
ag10
ag396
ag403
ag407
ag12
ag401
ag410
ag289
ag402
ag33
ag322
ag395
ag394
asg37
g606
sg38
(ischedule
Group
p656
(dp657
g8
g655
sg43
S'Reflectie op de digitale cultuur2'
p658
sbsg39
(iread_data
Room
p659
(dp660
g37
g42
sg43
g44
sbsg45
g301
sg47
g138
sg43
g422
sbaaa(lp661
(lp662
(ischedule
Activity
p663
(dp664
g8
(lp665
g101
ag150
ag510
ag509
aS'36508571'
p666
ag343
ag514
ag292
asg37
g262
sg38
(ischedule
Group
p667
(dp668
g8
g665
sg43
S'Autonomous Agents 21'
p669
sbsg39
(iread_data
Room
p670
(dp671
g37
g268
sg43
g269
sbsg45
g137
sg47
g223
sg43
g271
sba(ischedule
Activity
p672
(dp673
g8
(lp674
g63
ag18
ag83
aS'247918'
p675
aS'28359697'
p676
ag117
ag100
ag633
aS'30195935'
p677
aS'79617364'
p678
aS'33930505'
p679
aS'77831658'
p680
asg37
g596
sg38
(ischedule
Group
p681
(dp682
g8
g674
sg43
S'Bioinformatica3'
p683
sbsg39
(iread_data
Room
p684
(dp685
g37
g42
sg43
g44
sbsg45
g301
sg47
g270
sg43
g602
sba(ischedule
Activity
p686
(dp687
g8
g588
sg37
S'20'
p688
sg38
g597
sg39
(iread_data
Room
p689
(dp690
g37
g166
sg43
g167
sbsg45
g137
sg47
g138
sg43
g602
sba(ischedule
Activity
p691
(dp692
g8
g570
sg37
g262
sg38
g575
sg39
(iread_data
Room
p693
(dp694
g37
g248
sg43
g249
sbsg45
g137
sg47
g138
sg43
g271
sba(ischedule
Activity
p695
(dp696
g8
(lp697
g556
aS'96082155'
p698
aS'49219163'
p699
ag314
ag313
ag193
ag204
aS'70072978'
p700
ag536
ag155
ag115
ag499
aS'48198668'
p701
aS'59111489'
p702
ag73
ag349
ag122
asg37
S'20'
p703
sg38
(ischedule
Group
p704
(dp705
g8
g697
sg43
S'Moderne Databases3'
p706
sbsg39
(iread_data
Room
p707
(dp708
g37
g221
sg43
g222
sbsg45
g137
sg47
g270
sg43
S'Moderne Databases'
p709
sba(ischedule
Activity
p710
(dp711
g8
(lp712
S'4353500'
p713
ag20
aS'11996292'
p714
ag290
aS'97417002'
p715
aS'56749879'
p716
aS'59075181'
p717
aS'81218347'
p718
ag592
ag234
ag595
ag33
aS'97019450'
p719
ag254
aS'20331158'
p720
aS'42171678'
p721
ag631
ag310
aS'83443653'
p722
ag477
ag627
ag61
aS'45660925'
p723
ag646
ag322
aS'53775014'
p724
ag257
aS'79879876'
p725
ag32
aS'71839156'
p726
ag321
aS'87210640'
p727
aS'14138904'
p728
ag229
aS'76393508'
p729
ag516
ag255
aS'20830477'
p730
ag205
aS'14941752'
p731
ag644
aS'31897288'
p732
ag128
ag126
asg37
I1000
sg38
Nsg39
(iread_data
Room
p733
(dp734
g37
g93
sg43
g94
sbsg45
g46
sg47
I0
sg43
S'Heuristieken 1'
p735
sba(ischedule
Activity
p736
(dp737
g8
(lp738
g320
ag311
ag317
ag195
ag315
ag310
ag308
ag36
ag307
ag309
asg37
S'15'
p739
sg38
(ischedule
Group
p740
(dp741
g8
g738
sg43
S'Informatie- en organsatieontwerp2'
p742
sbsg39
(iread_data
Room
p743
(dp744
g37
g135
sg43
g136
sbsg45
g301
sg47
g138
sg43
g325
sbaa(lp745
(ischedule
Activity
p746
(dp747
g8
(lp748
g149
ag100
ag595
ag285
ag549
ag412
ag449
ag63
ag117
ag211
ag633
ag126
ag468
ag679
ag391
ag536
ag509
ag716
ag83
ag16
ag594
aS'56815156'
p749
ag237
ag678
ag114
ag180
ag676
ag507
ag18
ag416
ag408
ag592
ag121
ag25
ag22
ag589
ag591
ag675
ag593
ag680
ag539
ag590
ag677
ag187
ag502
asg37
I1000
sg38
Nsg39
(iread_data
Room
p750
(dp751
g37
g135
sg43
g136
sbsg45
g46
sg47
I0
sg43
g602
sba(ischedule
Activity
p752
(dp753
g8
(lp754
g195
ag571
ag310
ag721
aS'50184318'
p755
ag714
aS'17222374'
p756
ag229
aS'47462856'
p757
ag396
ag551
ag390
aS'51650744'
p758
aS'36527838'
p759
ag388
ag392
aS'18144425'
p760
ag99
aS'13218321'
p761
aS'41489515'
p762
ag537
ag431
aS'83415514'
p763
aS'66621166'
p764
aS'27241113'
p765
asg37
g703
sg38
(ischedule
Group
p766
(dp767
g8
g754
sg43
S'Moderne Databases1'
p768
sbsg39
(iread_data
Room
p769
(dp770
g37
g42
sg43
g44
sbsg45
g137
sg47
g223
sg43
g709
sba(ischedule
Activity
p771
(dp772
g8
(lp773
g286
ag720
ag86
ag728
ag64
ag184
ag82
ag206
ag469
ag152
ag156
aS'58866007'
p774
aS'13798030'
p775
ag57
ag312
aS'59289233'
p776
ag475
ag238
ag540
ag515
ag241
asg37
I1000
sg38
Nsg39
(iread_data
Room
p777
(dp778
g37
g166
sg43
g167
sbsg45
g46
sg47
I0
sg43
S'Architectuur en computerorganisatie'
p779
sba(ischedule
Activity
p780
(dp781
g8
(lp782
g182
ag77
ag73
ag52
ag365
ag473
ag11
ag159
aS'52304977'
p783
aS'5739011'
p784
aS'87602030'
p785
aS'7106649'
p786
aS'58040377'
p787
aS'82968410'
p788
aS'83869542'
p789
ag732
aS'15249775'
p790
aS'35315956'
p791
ag239
asg37
g295
sg38
(ischedule
Group
p792
(dp793
g8
g782
sg43
S'Heuristieken 22'
p794
sbsg39
(iread_data
Room
p795
(dp796
g37
g248
sg43
g249
sbsg45
g301
sg47
g138
sg43
g302
sba(ischedule
Activity
p797
(dp798
g8
(lp799
g27
ag30
ag15
ag36
ag10
ag13
ag29
ag19
ag31
asg37
g329
sg38
(ischedule
Group
p800
(dp801
g8
g799
sg43
S'Data Mining3'
p802
sbsg39
(iread_data
Room
p803
(dp804
g37
g93
sg43
g94
sbsg45
g301
sg47
g270
sg43
g48
sba(ischedule
Activity
p805
(dp806
g8
(lp807
g28
ag88
ag726
ag318
ag470
ag230
aS'44151631'
p808
aS'14383795'
p809
ag433
aS'5892092'
p810
aS'64418623'
p811
aS'82066165'
p812
ag192
ag436
asg37
g376
sg38
(ischedule
Group
p813
(dp814
g8
g807
sg43
S'Compilerbouw practicum1'
p815
sbsg39
(iread_data
Room
p816
(dp817
g37
g268
sg43
g269
sbsg45
g137
sg47
g223
sg43
g382
sba(ischedule
Activity
p818
(dp819
g8
(lp820
g632
ag288
ag85
ag435
ag400
ag344
ag498
aS'20374340'
p821
ag62
aS'64768422'
p822
aS'93566383'
p823
aS'81155296'
p824
aS'2550487'
p825
ag25
aS'69634191'
p826
aS'37701751'
p827
aS'19214659'
p828
aS'65675896'
p829
ag181
aS'38179241'
p830
aS'28055464'
p831
aS'21677389'
p832
ag634
ag240
ag183
asg37
I1000
sg38
Nsg39
(iread_data
Room
p833
(dp834
g37
g221
sg43
g222
sbsg45
g46
sg47
I0
sg43
S'Interactie-ontwerp'
p835
sbaa(lp836
(ischedule
Activity
p837
(dp838
g8
(lp839
g396
ag453
ag679
ag717
aS'62736669'
p840
ag449
ag646
ag232
ag202
aS'85284256'
p841
ag625
aS'16912993'
p842
aS'72456780'
p843
aS'5590289'
p844
ag228
ag11
aS'26207525'
p845
ag590
ag106
aS'25557516'
p846
aS'72586808'
p847
ag631
ag24
asg37
S'20'
p848
sg38
(ischedule
Group
p849
(dp850
g8
g839
sg43
S'Netwerken en systeembeveiliging1'
p851
sbsg39
(iread_data
Room
p852
(dp853
g37
g42
sg43
g44
sbsg45
g137
sg47
g223
sg43
S'Netwerken en systeembeveiliging'
p854
sba(ischedule
Activity
p855
(dp856
g8
g493
sg37
g129
sg38
g520
sg39
(iread_data
Room
p857
(dp858
g37
g135
sg43
g136
sbsg45
g137
sg47
g223
sg43
g139
sba(ischedule
Activity
p859
(dp860
g8
(lp861
S'3883025'
p862
ag25
ag371
ag642
aS'9731271'
p863
ag627
aS'59887191'
p864
ag345
ag677
aS'70939718'
p865
ag832
ag183
ag469
aS'19058315'
p866
asg37
g848
sg38
(ischedule
Group
p867
(dp868
g8
g861
sg43
S'Netwerken en systeembeveiliging3'
p869
sbsg39
(iread_data
Room
p870
(dp871
g37
g93
sg43
g94
sbsg45
g137
sg47
g270
sg43
g854
sba(ischedule
Activity
p872
(dp873
g8
(lp874
g536
ag310
ag387
ag419
ag178
ag240
ag714
ag254
ag471
aS'21192048'
p875
ag809
aS'70336464'
p876
ag33
aS'12430748'
p877
ag109
ag200
ag364
asg37
S'20'
p878
sg38
(ischedule
Group
p879
(dp880
g8
g874
sg43
S'Technology for games1'
p881
sbsg39
(iread_data
Room
p882
(dp883
g37
g166
sg43
g167
sbsg45
g301
sg47
g223
sg43
S'Technology for games'
p884
sba(ischedule
Activity
p885
(dp886
g8
(lp887
g104
ag398
ag77
ag113
ag79
ag756
aS'22699561'
p888
ag755
aS'96104167'
p889
ag619
ag198
aS'29474737'
p890
ag721
asg37
g456
sg38
(ischedule
Group
p891
(dp892
g8
g887
sg43
S'Collectieve Intelligentie3'
p893
sbsg39
(iread_data
Room
p894
(dp895
g37
g268
sg43
g269
sbsg45
g301
sg47
g270
sg43
g463
sba(ischedule
Activity
p896
(dp897
g8
(lp898
g412
aS'7492204'
p899
aS'73893840'
p900
ag176
aS'37279234'
p901
ag408
ag212
aS'90296821'
p902
asg37
S'20'
p903
sg38
(ischedule
Group
p904
(dp905
g8
g898
sg43
S'Programmeren in Java 21'
p906
sbsg39
(iread_data
Room
p907
(dp908
g37
g248
sg43
g249
sbsg45
g137
sg47
g223
sg43
S'Programmeren in Java 2'
p909
sba(ischedule
Activity
p910
(dp911
g8
(lp912
g349
ag317
ag728
ag542
ag829
ag121
aS'5085194'
p913
aS'38499176'
p914
ag117
aS'99272880'
p915
aS'42297781'
p916
aS'23215240'
p917
aS'41644639'
p918
asg37
g376
sg38
(ischedule
Group
p919
(dp920
g8
g912
sg43
S'Compilerbouw practicum2'
p921
sbsg39
(iread_data
Room
p922
(dp923
g37
g221
sg43
g222
sbsg45
g137
sg47
g138
sg43
g382
sbaa(lp924
(ischedule
Activity
p925
(dp926
g8
g748
sg37
I1000
sg38
Nsg39
(iread_data
Room
p927
(dp928
g37
g135
sg43
g136
sbsg45
g46
sg47
I0
sg43
g602
sba(ischedule
Activity
p929
(dp930
g8
(lp931
g721
ag646
ag644
ag234
ag477
ag310
ag728
ag729
ag717
ag205
ag725
ag321
ag723
ag627
ag714
ag631
ag724
ag128
ag20
asg37
S'25'
p932
sg38
(ischedule
Group
p933
(dp934
g8
g931
sg43
S'Heuristieken 12'
p935
sbsg39
(iread_data
Room
p936
(dp937
g37
g268
sg43
g269
sbsg45
g301
sg47
g138
sg43
g735
sba(ischedule
Activity
p938
(dp939
g8
g253
sg37
g574
sg38
g263
sg39
(iread_data
Room
p940
(dp941
g37
g42
sg43
g44
sbsg45
g301
sg47
g270
sg43
g271
sba(ischedule
Activity
p942
(dp943
g8
(lp944
g592
ag65
aS'54074680'
p945
ag30
ag213
ag292
ag59
ag718
aS'56872729'
p946
ag468
ag116
ag774
ag726
ag293
ag183
ag400
aS'34588570'
p947
ag645
ag120
aS'94955328'
p948
ag346
ag419
ag448
ag823
ag510
aS'74182182'
p949
ag914
aS'96118484'
p950
aS'26172512'
p951
aS'75005528'
p952
ag512
ag202
ag678
ag35
ag666
aS'55412918'
p953
ag112
ag759
aS'16011419'
p954
ag516
aS'4921119'
p955
ag573
aS'21311067'
p956
aS'94686490'
p957
aS'32595335'
p958
aS'90743504'
p959
ag540
ag647
aS'79937969'
p960
aS'66570705'
p961
ag546
ag571
ag200
aS'80998260'
p962
asg37
I1000
sg38
Nsg39
(iread_data
Room
p963
(dp964
g37
g221
sg43
g222
sbsg45
g46
sg47
I0
sg43
S'Lineaire Algebra'
p965
sba(ischedule
Activity
p966
(dp967
g8
g142
sg37
I1000
sg38
Nsg39
(iread_data
Room
p968
(dp969
g37
g93
sg43
g94
sbsg45
g46
sg47
I0
sg43
g168
sba(ischedule
Activity
p970
(dp971
g8
g51
sg37
I1000
sg38
Nsg39
(iread_data
Room
p972
(dp973
g37
g166
sg43
g167
sbsg45
g46
sg47
I0
sg43
g95
sbaa(lp974
(ischedule
Activity
p975
(dp976
g8
(lp977
g431
ag364
ag432
ag293
ag447
aS'25077484'
p978
ag403
ag952
ag210
aS'58083680'
p979
ag343
aS'49631542'
p980
ag840
ag469
aS'4529208'
p981
ag545
ag556
ag756
ag177
ag468
ag957
ag66
ag346
aS'73823548'
p982
ag627
ag845
ag514
ag827
aS'56191333'
p983
ag955
ag549
ag714
ag398
ag232
ag571
ag593
ag314
ag700
ag392
aS'27123462'
p984
aS'56121590'
p985
ag86
aS'54540997'
p986
ag399
ag843
ag172
ag233
ag81
aS'23658570'
p987
ag620
ag716
ag150
aS'5526560'
p988
ag675
aS'59397895'
p989
ag467
ag595
ag789
ag946
ag473
ag320
ag70
aS'13132925'
p990
ag27
ag913
ag626
ag591
ag206
aS'40141996'
p991
aS'15187217'
p992
aS'51542218'
p993
aS'47932106'
p994
asg37
I1000
sg38
Nsg39
(iread_data
Room
p995
(dp996
g37
g135
sg43
g136
sbsg45
g46
sg47
I0
sg43
S'Databases 2'
p997
sba(ischedule
Activity
p998
(dp999
g8
(lp1000
g63
ag90
ag59
ag65
ag55
ag67
ag70
ag83
ag60
ag68
ag78
ag80
asg37
g583
sg38
(ischedule
Group
p1001
(dp1002
g8
g1000
sg43
S'Webprogrammeren en databases1'
p1003
sbsg39
(iread_data
Room
p1004
(dp1005
g37
g221
sg43
g222
sbsg45
g301
sg47
g223
sg43
g95
sba(ischedule
Activity
p1006
(dp1007
g8
(lp1008
g791
ag473
ag289
ag144
ag287
ag785
ag159
ag239
ag182
ag789
ag77
ag783
ag293
ag27
ag784
ag787
ag73
ag290
ag25
ag365
ag11
ag52
ag288
ag285
ag292
ag790
ag732
ag291
ag286
ag788
ag294
ag786
asg37
I1000
sg38
Nsg39
(iread_data
Room
p1009
(dp1010
g37
g166
sg43
g167
sbsg45
g46
sg47
I0
sg43
g302
sba(ischedule
Activity
p1011
(dp1012
g8
(lp1013
g319
ag22
ag312
ag254
ag321
ag318
ag314
ag313
ag306
ag316
ag322
asg37
g739
sg38
(ischedule
Group
p1014
(dp1015
g8
g1013
sg43
S'Informatie- en organsatieontwerp1'
p1016
sbsg39
(iread_data
Room
p1017
(dp1018
g37
g93
sg43
g94
sbsg45
g301
sg47
g223
sg43
g325
sba(ischedule
Activity
p1019
(dp1020
g8
(lp1021
g16
ag509
ag126
ag211
ag408
ag749
ag180
ag237
ag716
ag391
ag121
ag502
asg37
g596
sg38
(ischedule
Group
p1022
(dp1023
g8
g1021
sg43
S'Bioinformatica1'
p1024
sbsg39
(iread_data
Room
p1025
(dp1026
g37
g268
sg43
g269
sbsg45
g301
sg47
g223
sg43
g602
sba(ischedule
Activity
p1027
(dp1028
g8
(lp1029
g188
ag240
aS'77264363'
p1030
ag99
ag536
ag33
ag69
ag254
ag195
ag317
ag540
aS'47982619'
p1031
aS'69086548'
p1032
ag178
ag877
ag419
ag471
ag197
ag387
ag876
ag307
ag875
ag497
ag32
ag200
ag364
ag416
aS'4697362'
p1033
ag310
aS'92496780'
p1034
ag786
aS'93041523'
p1035
aS'97371272'
p1036
ag109
ag809
ag86
aS'76487754'
p1037
ag714
asg37
I1000
sg38
Nsg39
(iread_data
Room
p1038
(dp1039
g37
g42
sg43
g44
sbsg45
g46
sg47
I0
sg43
g884
sbaaa(lp1040
(lp1041
(ischedule
Activity
p1042
(dp1043
g8
g386
sg37
I1000
sg38
Nsg39
(iread_data
Room
p1044
(dp1045
g37
g93
sg43
g94
sbsg45
g46
sg47
I0
sg43
g422
sba(ischedule
Activity
p1046
(dp1047
g8
(lp1048
g28
ag367
ag18
ag59
ag469
ag178
ag183
ag626
ag315
ag630
ag621
ag620
ag619
ag495
ag27
ag628
ag623
ag631
ag144
ag70
ag372
ag504
ag288
ag119
ag634
ag627
ag629
asg37
S'25'
p1049
sg38
(ischedule
Group
p1050
(dp1051
g8
g1048
sg43
S'Algoritmen en complexiteit1'
p1052
sbsg39
(iread_data
Room
p1053
(dp1054
g37
g221
sg43
g222
sbsg45
g137
sg47
g223
sg43
g637
sba(ischedule
Activity
p1055
(dp1056
g8
(lp1057
g176
aS'59220392'
p1058
ag572
ag555
ag547
aS'78735049'
p1059
ag503
ag550
ag865
ag234
ag477
ag162
ag785
ag946
ag174
ag229
aS'75623387'
p1060
ag181
aS'22168693'
p1061
aS'34173695'
p1062
ag518
ag987
ag901
ag552
ag553
aS'33672995'
p1063
ag557
ag863
ag592
ag498
ag953
ag642
aS'56348773'
p1064
ag311
ag153
ag543
aS'53139134'
p1065
ag595
aS'75446434'
p1066
ag177
ag472
ag594
aS'55530367'
p1067
ag233
ag619
ag67
ag432
ag230
aS'23628642'
p1068
ag548
ag175
ag79
ag546
ag545
ag554
ag286
ag534
ag532
ag145
ag541
ag549
ag558
ag365
ag180
ag540
ag535
ag408
ag128
ag115
aS'31306819'
p1069
ag184
ag533
ag830
aS'65978354'
p1070
ag110
ag291
ag536
ag26
ag539
ag982
aS'77306636'
p1071
aS'10609762'
p1072
ag537
ag107
ag824
ag763
ag88
ag994
ag54
ag678
ag551
ag787
ag292
ag560
ag991
ag949
ag544
ag556
ag559
ag453
ag502
aS'32705005'
p1073
ag108
ag957
ag538
ag542
asg37
I1000
sg38
Nsg39
(iread_data
Room
p1074
(dp1075
g37
g135
sg43
g136
sbsg45
g46
sg47
I0
sg43
g567
sba(ischedule
Activity
p1076
(dp1077
g8
g337
sg37
g215
sg38
g352
sg39
(iread_data
Room
p1078
(dp1079
g37
g166
sg43
g167
sbsg45
g137
sg47
g138
sg43
g224
sba(ischedule
Activity
p1080
(dp1081
g8
g1013
sg37
S'15'
p1082
sg38
g1014
sg39
(iread_data
Room
p1083
(dp1084
g37
g268
sg43
g269
sbsg45
g137
sg47
g223
sg43
g325
sba(ischedule
Activity
p1085
(dp1086
g8
(lp1087
g173
ag82
ag85
ag67
ag591
aS'62613937'
p1088
asg37
g242
sg38
(ischedule
Group
p1089
(dp1090
g8
g1087
sg43
S'Advanced Heuristics2'
p1091
sbsg39
(iread_data
Room
p1092
(dp1093
g37
g42
sg43
g44
sbsg45
g137
sg47
g138
sg43
g250
sba(ischedule
Activity
p1094
(dp1095
g8
(lp1096
g238
ag197
asg37
g848
sg38
(ischedule
Group
p1097
(dp1098
g8
g1096
sg43
S'Netwerken en systeembeveiliging2'
p1099
sbsg39
(iread_data
Room
p1100
(dp1101
g37
g248
sg43
g249
sbsg45
g137
sg47
g138
sg43
g854
sbaa(lp1102
(ischedule
Activity
p1103
(dp1104
g8
(lp1105
g187
aS'79858178'
p1106
aS'34262212'
p1107
aS'72547110'
p1108
ag237
ag1073
ag435
ag625
ag30
ag718
aS'51186803'
p1109
ag592
ag549
ag156
ag89
ag497
ag1059
ag717
aS'23391676'
p1110
ag123
ag1032
ag157
ag314
aS'38329455'
p1111
ag915
ag344
ag757
ag553
aS'10872825'
p1112
ag716
ag1036
ag101
ag629
ag949
aS'39919665'
p1113
ag993
ag720
aS'63408522'
p1114
aS'37498675'
p1115
aS'79366078'
p1116
ag512
ag145
ag417
ag719
ag285
ag914
ag507
aS'39659121'
p1117
aS'47605891'
p1118
ag552
ag863
ag231
ag307
ag508
ag120
ag447
aS'14398123'
p1119
ag365
ag319
ag182
ag494
aS'63955238'
p1120
ag175
ag450
aS'44940353'
p1121
aS'91139627'
p1122
ag899
ag948
ag504
ag631
aS'82688900'
p1123
aS'65003379'
p1124
ag147
ag495
ag161
ag558
ag202
ag537
ag13
ag980
ag401
ag160
ag54
ag151
asg37
I1000
sg38
Nsg39
(iread_data
Room
p1125
(dp1126
g37
g135
sg43
g136
sbsg45
g46
sg47
I0
sg43
S'Kansrekenen 2'
p1127
sba(ischedule
Activity
p1128
(dp1129
g8
(lp1130
g364
ag477
ag240
ag310
ag348
ag641
ag756
ag619
ag473
ag198
ag157
ag392
ag127
ag291
ag79
ag367
ag113
ag18
ag448
ag345
ag187
ag474
ag104
ag111
ag642
ag471
ag890
ag889
ag470
ag454
ag449
ag643
ag888
ag476
ag398
ag453
ag452
ag467
ag77
ag469
ag28
ag475
ag721
ag645
ag447
ag571
ag646
ag644
ag450
ag755
ag308
ag82
ag213
ag346
ag455
ag478
ag647
ag468
ag451
ag81
ag472
asg37
I1000
sg38
Nsg39
(iread_data
Room
p1131
(dp1132
g37
g221
sg43
g222
sbsg45
g46
sg47
I0
sg43
g463
sba(ischedule
Activity
p1133
(dp1134
g8
(lp1135
g259
ag256
ag666
ag510
ag292
ag255
ag571
ag261
ag257
ag572
ag150
ag573
ag260
ag27
ag16
ag509
ag33
ag514
ag254
ag258
ag343
ag101
asg37
I1000
sg38
Nsg39
(iread_data
Room
p1136
(dp1137
g37
g93
sg43
g94
sbsg45
g46
sg47
I0
sg43
g271
sba(ischedule
Activity
p1138
(dp1139
g8
g1000
sg37
g276
sg38
g1001
sg39
(iread_data
Room
p1140
(dp1141
g37
g42
sg43
g44
sbsg45
g137
sg47
g223
sg43
g95
sbaa(lp1142
(ischedule
Activity
p1143
(dp1144
g8
(lp1145
g231
ag370
ag556
ag90
ag172
ag572
ag162
ag542
ag108
ag624
ag499
ag633
ag622
ag625
ag106
ag632
asg37
S'25'
p1146
sg38
(ischedule
Group
p1147
(dp1148
g8
g1145
sg43
S'Algoritmen en complexiteit2'
p1149
sbsg39
(iread_data
Room
p1150
(dp1151
g37
g166
sg43
g167
sbsg45
g301
sg47
g138
sg43
g637
sba(ischedule
Activity
p1152
(dp1153
g8
g640
sg37
g456
sg38
g648
sg39
(iread_data
Room
p1154
(dp1155
g37
g248
sg43
g249
sbsg45
g301
sg47
g138
sg43
g463
sba(ischedule
Activity
p1156
(dp1157
g8
(lp1158
g32
ag197
ag497
ag195
ag307
ag1032
ag1033
ag1037
ag86
ag188
ag317
ag1030
ag1036
ag1034
ag540
ag99
ag69
ag1035
ag786
ag416
ag1031
asg37
g878
sg38
(ischedule
Group
p1159
(dp1160
g8
g1158
sg43
S'Technology for games2'
p1161
sbsg39
(iread_data
Room
p1162
(dp1163
g37
g135
sg43
g136
sbsg45
g301
sg47
g138
sg43
g884
sba(ischedule
Activity
p1164
(dp1165
g8
g1048
sg37
g1146
sg38
g1050
sg39
(iread_data
Room
p1166
(dp1167
g37
g221
sg43
g222
sbsg45
g301
sg47
g223
sg43
g637
sba(ischedule
Activity
p1168
(dp1169
g8
(lp1170
g160
ag503
ag914
ag347
ag716
ag196
ag320
ag471
ag145
ag505
ag233
ag13
ag411
ag78
asg37
g903
sg38
(ischedule
Group
p1171
(dp1172
g8
g1170
sg43
S'Programmeren in Java 24'
p1173
sbsg39
(iread_data
Room
p1174
(dp1175
g37
g268
sg43
g269
sbsg45
g137
sg47
g462
sg43
g909
sba(ischedule
Activity
p1176
(dp1177
g8
(lp1178
g191
aS'88737765'
p1179
ag394
ag419
ag414
ag543
ag913
aS'82854435'
p1180
ag202
ag255
ag229
ag1063
ag387
ag418
ag1088
ag843
ag292
ag955
ag987
ag35
ag555
ag847
ag395
ag749
ag546
ag473
ag431
ag120
ag319
ag107
ag536
ag719
aS'73350019'
p1181
ag948
aS'78822885'
p1182
ag993
ag52
ag294
ag128
aS'34900967'
p1183
ag447
ag680
ag156
ag722
aS'14637758'
p1184
aS'18477924'
p1185
aS'97838175'
p1186
aS'58480929'
p1187
ag513
asg37
I1000
sg38
Nsg39
(iread_data
Room
p1188
(dp1189
g37
g93
sg43
g94
sbsg45
g46
sg47
I0
sg43
S'Analysemethoden en -technieken'
p1190
sba(ischedule
Activity
p1191
(dp1192
g8
(lp1193
g398
ag825
ag828
ag345
ag204
ag29
aS'32183908'
p1194
ag199
ag238
ag494
aS'19662602'
p1195
ag285
aS'40911986'
p1196
ag104
ag11
ag538
ag338
ag213
ag256
asg37
S'15'
p1197
sg38
(ischedule
Group
p1198
(dp1199
g8
g1193
sg43
S'Project Numerical Recipes2'
p1200
sbsg39
(iread_data
Room
p1201
(dp1202
g37
g42
sg43
g44
sbsg45
g137
sg47
g138
sg43
S'Project Numerical Recipes'
p1203
sbaa(lp1204
(ischedule
Activity
p1205
(dp1206
g8
g1130
sg37
I1000
sg38
Nsg39
(iread_data
Room
p1207
(dp1208
g37
g135
sg43
g136
sbsg45
g46
sg47
I0
sg43
g463
sba(ischedule
Activity
p1209
(dp1210
g8
(lp1211
g177
ag785
ag181
ag184
ag54
ag502
ag901
ag994
ag162
ag1066
ag863
ag180
ag957
ag949
ag824
ag594
ag865
ag1067
ag1073
ag1064
ag67
ag982
ag1069
ag991
ag830
ag115
ag1070
asg37
g561
sg38
(ischedule
Group
p1212
(dp1213
g8
g1211
sg43
S'Calculus 21'
p1214
sbsg39
(iread_data
Room
p1215
(dp1216
g37
g166
sg43
g167
sbsg45
g301
sg47
g223
sg43
g567
sba(ischedule
Activity
p1217
(dp1218
g8
(lp1219
g592
ag595
ag516
ag718
ag716
ag61
ag126
ag726
ag254
ag255
ag732
ag719
ag720
ag229
ag722
ag33
ag32
ag727
ag257
ag730
ag290
ag322
ag731
ag713
ag715
asg37
g932
sg38
(ischedule
Group
p1220
(dp1221
g8
g1219
sg43
S'Heuristieken 11'
p1222
sbsg39
(iread_data
Room
p1223
(dp1224
g37
g221
sg43
g222
sbsg45
g301
sg47
g223
sg43
g735
sba(ischedule
Activity
p1225
(dp1226
g8
g799
sg37
S'10'
p1227
sg38
g800
sg39
(iread_data
Room
p1228
(dp1229
g37
g248
sg43
g249
sbsg45
g137
sg47
g270
sg43
g48
sba(ischedule
Activity
p1230
(dp1231
g8
g665
sg37
g574
sg38
g667
sg39
(iread_data
Room
p1232
(dp1233
g37
g42
sg43
g44
sbsg45
g301
sg47
g223
sg43
g271
sba(ischedule
Activity
p1234
(dp1235
g8
(lp1236
g90
ag234
ag151
aS'34691309'
p1237
asg37
g1197
sg38
(ischedule
Group
p1238
(dp1239
g8
g1236
sg43
S'Project Numerical Recipes3'
p1240
sbsg39
(iread_data
Room
p1241
(dp1242
g37
g268
sg43
g269
sbsg45
g137
sg47
g270
sg43
g1203
sbaa(lp1243
(ischedule
Activity
p1244
(dp1245
g8
g738
sg37
g1082
sg38
g740
sg39
(iread_data
Room
p1246
(dp1247
g37
g268
sg43
g269
sbsg45
g137
sg47
g138
sg43
g325
sba(ischedule
Activity
p1248
(dp1249
g8
g1105
sg37
I1000
sg38
Nsg39
(iread_data
Room
p1250
(dp1251
g37
g135
sg43
g136
sbsg45
g46
sg47
I0
sg43
g1127
sba(ischedule
Activity
p1252
(dp1253
g8
g773
sg37
I1000
sg38
Nsg39
(iread_data
Room
p1254
(dp1255
g37
g42
sg43
g44
sbsg45
g46
sg47
I0
sg43
g779
sba(ischedule
Activity
p1256
(dp1257
g8
(lp1258
g179
ag416
ag172
ag370
ag58
ag392
ag52
ag411
ag408
ag412
ag387
ag388
ag389
ag413
ag399
ag409
ag182
ag406
ag404
ag153
ag400
asg37
g606
sg38
(ischedule
Group
p1259
(dp1260
g8
g1258
sg43
S'Reflectie op de digitale cultuur3'
p1261
sbsg39
(iread_data
Room
p1262
(dp1263
g37
g248
sg43
g249
sbsg45
g301
sg47
g270
sg43
g422
sba(ischedule
Activity
p1264
(dp1265
g8
g1135
sg37
I1000
sg38
Nsg39
(iread_data
Room
p1266
(dp1267
g37
g166
sg43
g167
sbsg45
g46
sg47
I0
sg43
g271
sba(ischedule
Activity
p1268
(dp1269
g8
g674
sg37
g688
sg38
g681
sg39
(iread_data
Room
p1270
(dp1271
g37
g221
sg43
g222
sbsg45
g137
sg47
g270
sg43
g602
sba(ischedule
Activity
p1272
(dp1273
g8
g887
sg37
g479
sg38
g891
sg39
(iread_data
Room
p1274
(dp1275
g37
g93
sg43
g94
sbsg45
g137
sg47
g270
sg43
g463
sbaaa(lp1276
(lp1277
(ischedule
Activity
p1278
(dp1279
g8
g1130
sg37
I1000
sg38
Nsg39
g1250
sg45
g46
sg47
I0
sg43
g463
sba(ischedule
Activity
p1280
(dp1281
g8
g944
sg37
I1000
sg38
Nsg39
(iread_data
Room
p1282
(dp1283
g37
g221
sg43
g222
sbsg45
g46
sg47
I0
sg43
g965
sba(ischedule
Activity
p1284
(dp1285
g8
g1029
sg37
I1000
sg38
Nsg39
(iread_data
Room
p1286
(dp1287
g37
g42
sg43
g44
sbsg45
g46
sg47
I0
sg43
g884
sba(ischedule
Activity
p1288
(dp1289
g8
(lp1290
g514
ag827
ag314
ag987
ag343
ag978
ag913
ag982
ag845
ag983
ag70
ag591
ag985
ag431
ag700
ag991
asg37
S'40'
p1291
sg38
(ischedule
Group
p1292
(dp1293
g8
g1290
sg43
S'Databases 21'
p1294
sbsg39
(iread_data
Room
p1295
(dp1296
g37
g166
sg43
g167
sbsg45
g301
sg47
g223
sg43
g997
sba(ischedule
Activity
p1297
(dp1298
g8
g1145
sg37
g1049
sg38
g1147
sg39
(iread_data
Room
p1299
(dp1300
g37
g268
sg43
g269
sbsg45
g137
sg47
g138
sg43
g637
sba(ischedule
Activity
p1301
(dp1302
g8
g1021
sg37
g688
sg38
g1022
sg39
(iread_data
Room
p1303
(dp1304
g37
g248
sg43
g249
sbsg45
g137
sg47
g223
sg43
g602
sba(ischedule
Activity
p1305
(dp1306
g8
(lp1307
g149
ag594
ag593
ag190
aS'27916487'
p1308
aS'1181560'
p1309
ag980
ag57
ag184
ag416
ag535
ag862
asg37
S'20'
p1310
sg38
(ischedule
Group
p1311
(dp1312
g8
g1307
sg43
S'Moderne Databases2'
p1313
sbsg39
(iread_data
Room
p1314
(dp1315
g37
g93
sg43
g94
sbsg45
g301
sg47
g138
sg43
g709
sbaa(lp1316
(ischedule
Activity
p1317
(dp1318
g8
(lp1319
g114
ag83
ag123
ag122
ag517
ag99
ag119
ag510
ag255
ag125
ag120
ag109
ag57
ag105
ag116
ag15
ag256
ag100
ag504
ag128
ag110
ag501
ag512
ag511
ag112
ag118
ag502
ag514
ag496
ag508
ag144
ag179
ag127
ag28
ag500
ag73
ag497
ag467
ag505
ag32
ag498
ag121
ag124
ag160
ag414
ag108
ag507
ag101
ag518
ag106
ag516
ag499
ag413
ag117
ag104
ag513
ag477
ag503
ag35
ag111
ag115
ag474
ag494
ag495
ag64
ag506
ag113
ag370
ag102
ag126
ag509
ag107
ag103
ag515
ag519
asg37
I1000
sg38
Nsg39
(iread_data
Room
p1320
(dp1321
g37
g135
sg43
g136
sbsg45
g46
sg47
I0
sg43
g139
sba(ischedule
Activity
p1322
(dp1323
g8
(lp1324
g364
ag293
ag952
ag469
ag756
ag468
ag955
ag714
ag593
ag86
ag81
ag473
ag571
ag957
ag392
ag627
ag556
ag946
ag398
ag447
ag172
ag150
ag994
ag232
ag980
ag675
ag595
ag843
ag545
ag467
ag399
ag320
ag27
ag992
ag716
ag233
ag66
ag990
ag346
ag840
ag789
ag979
ag988
ag177
ag984
ag403
ag549
ag210
ag620
ag432
ag986
ag993
ag989
ag626
ag206
ag981
asg37
g1291
sg38
(ischedule
Group
p1325
(dp1326
g8
g1324
sg43
S'Databases 22'
p1327
sbsg39
(iread_data
Room
p1328
(dp1329
g37
g93
sg43
g94
sbsg45
g301
sg47
g138
sg43
g997
sba(ischedule
Activity
p1330
(dp1331
g8
(lp1332
g18
ag346
ag631
ag787
ag77
ag162
ag314
ag199
ag180
ag17
ag29
ag619
ag365
ag594
ag542
ag629
ag987
ag472
ag558
ag622
aS'64053722'
p1333
ag1183
ag234
ag763
ag559
aS'28943658'
p1334
ag194
ag917
ag321
ag72
ag74
ag719
asg37
g903
sg38
(ischedule
Group
p1335
(dp1336
g8
g1332
sg43
S'Programmeren in Java 23'
p1337
sbsg39
(iread_data
Room
p1338
(dp1339
g37
g42
sg43
g44
sbsg45
g137
sg47
g270
sg43
g909
sba(ischedule
Activity
p1340
(dp1341
g8
(lp1342
g544
asg37
g437
sg38
(ischedule
Group
p1343
(dp1344
g8
g1342
sg43
S'Project Genetic Algorithms2'
p1345
sbsg39
(iread_data
Room
p1346
(dp1347
g37
g268
sg43
g269
sbsg45
g137
sg47
g138
sg43
g443
sba(ischedule
Activity
p1348
(dp1349
g8
(lp1350
g22
ag25
ag20
ag21
ag26
ag24
ag12
ag16
asg37
g1227
sg38
(ischedule
Group
p1351
(dp1352
g8
g1350
sg43
S'Data Mining1'
p1353
sbsg39
(iread_data
Room
p1354
(dp1355
g37
g166
sg43
g167
sbsg45
g137
sg47
g223
sg43
g48
sbaa(lp1356
(ischedule
Activity
p1357
(dp1358
g8
(lp1359
g229
ag698
ag499
ag551
ag1308
ag390
ag701
ag763
ag184
ag714
ag396
ag537
ag762
ag204
ag122
ag431
ag416
ag755
ag313
ag699
ag702
ag349
ag556
ag757
ag1309
ag700
ag190
ag392
ag571
ag73
ag980
ag314
ag593
ag862
ag149
ag115
ag759
ag388
ag756
ag193
ag536
ag761
ag535
ag594
ag765
ag764
ag721
ag195
ag99
ag310
ag758
ag760
ag155
ag57
asg37
I1000
sg38
Nsg39
(iread_data
Room
p1360
(dp1361
g37
g221
sg43
g222
sbsg45
g46
sg47
I0
sg43
g709
sba(ischedule
Activity
p1362
(dp1363
g8
(lp1364
S'12170832'
p1365
ag15
ag506
ag254
ag230
ag554
ag508
ag713
ag914
ag394
ag105
ag467
ag983
aS'53267490'
p1366
aS'123355'
p1367
ag58
ag985
ag34
aS'63573738'
p1368
ag294
ag319
ag1119
aS'64246605'
p1369
ag338
ag194
asg37
g848
sg38
(ischedule
Group
p1370
(dp1371
g8
g1364
sg43
S'Netwerken en systeembeveiliging4'
p1372
sbsg39
(iread_data
Room
p1373
(dp1374
g37
g93
sg43
g94
sbsg45
g137
sg47
g462
sg43
g854
sba(ischedule
Activity
p1375
(dp1376
g8
g748
sg37
I1000
sg38
Nsg39
(iread_data
Room
p1377
(dp1378
g37
g135
sg43
g136
sbsg45
g46
sg47
I0
sg43
g602
sba(ischedule
Activity
p1379
(dp1380
g8
(lp1381
S'73196865'
p1382
ag342
ag1031
ag395
ag125
ag725
aS'54395877'
p1383
ag400
ag452
ag948
ag261
ag293
ag1110
aS'10702778'
p1384
asg37
g903
sg38
(ischedule
Group
p1385
(dp1386
g8
g1381
sg43
S'Programmeren in Java 25'
p1387
sbsg39
(iread_data
Room
p1388
(dp1389
g37
g166
sg43
g167
sbsg45
g137
sg47
S'5'
p1390
sg43
g909
sba(ischedule
Activity
p1391
(dp1392
g8
(lp1393
S'88263855'
p1394
asg37
g903
sg38
(ischedule
Group
p1395
(dp1396
g8
g1393
sg43
S'Programmeren in Java 26'
p1397
sbsg39
(iread_data
Room
p1398
(dp1399
g37
g268
sg43
g269
sbsg45
g137
sg47
S'6'
p1400
sg43
g909
sbaa(lp1401
(ischedule
Activity
p1402
(dp1403
g8
(lp1404
g642
ag595
ag128
ag619
ag477
ag176
ag292
ag311
ag145
ag787
ag678
ag572
ag432
ag175
ag763
ag1072
ag174
ag1068
ag518
ag1060
ag498
ag453
ag1061
ag1059
ag987
ag1063
ag503
ag1062
ag291
ag592
ag1058
ag953
ag1071
ag408
ag1065
ag365
ag946
asg37
g561
sg38
(ischedule
Group
p1405
(dp1406
g8
g1404
sg43
S'Calculus 22'
p1407
sbsg39
(iread_data
Room
p1408
(dp1409
g37
g221
sg43
g222
sbsg45
g301
sg47
g138
sg43
g567
sba(ischedule
Activity
p1410
(dp1411
g8
(lp1412
g67
ag233
ag591
ag241
ag232
ag236
ag239
ag240
ag1088
ag229
ag237
ag231
ag85
ag230
ag228
ag234
ag238
ag235
ag173
ag82
asg37
I1000
sg38
Nsg39
(iread_data
Room
p1413
(dp1414
g37
g166
sg43
g167
sbsg45
g46
sg47
I0
sg43
g250
sba(ischedule
Activity
p1415
(dp1416
g8
(lp1417
g1179
ag988
ag122
ag419
ag785
ag390
ag394
ag198
ag918
ag55
ag978
ag211
ag625
ag294
ag454
ag510
ag111
ag179
ag286
ag812
ag1119
ag181
aS'55480737'
p1418
ag534
asg37
g437
sg38
(ischedule
Group
p1419
(dp1420
g8
g1417
sg43
S'Project Genetic Algorithms1'
p1421
sbsg39
(iread_data
Room
p1422
(dp1423
g37
g93
sg43
g94
sbsg45
g137
sg47
g223
sg43
g443
sba(ischedule
Activity
p1424
(dp1425
g8
(lp1426
g626
ag345
ag15
ag84
ag1107
ag467
ag825
ag863
ag396
ag339
ag150
ag512
ag823
ag172
ag478
ag700
ag730
ag154
ag549
aS'88597745'
p1427
ag30
ag955
aS'12782624'
p1428
ag496
ag645
ag915
ag790
aS'51791169'
p1429
ag308
aS'63096281'
p1430
aS'88519892'
p1431
ag388
aS'39905995'
p1432
ag841
aS'7386961'
p1433
ag399
ag159
ag517
ag105
ag315
ag155
asg37
g903
sg38
(ischedule
Group
p1434
(dp1435
g8
g1426
sg43
S'Programmeren in Java 22'
p1436
sbsg39
(iread_data
Room
p1437
(dp1438
g37
g135
sg43
g136
sbsg45
g137
sg47
g138
sg43
g909
sba(ischedule
Activity
p1439
(dp1440
g8
(lp1441
g177
ag100
ag117
aS'21070547'
p1442
ag449
ag877
ag497
ag1368
ag952
aS'90103047'
p1443
ag389
ag189
ag680
ag949
aS'63939720'
p1444
aS'37419523'
p1445
ag200
ag731
ag407
ag982
aS'81116418'
p1446
asg37
g1197
sg38
(ischedule
Group
p1447
(dp1448
g8
g1441
sg43
S'Project Numerical Recipes1'
p1449
sbsg39
(iread_data
Room
p1450
(dp1451
g37
g248
sg43
g249
sbsg45
g137
sg47
g223
sg43
g1203
sba(ischedule
Activity
p1452
(dp1453
g8
g328
sg37
g1227
sg38
g330
sg39
(iread_data
Room
p1454
(dp1455
g37
g42
sg43
g44
sbsg45
g137
sg47
g138
sg43
g48
sba(ischedule
Activity
p1456
(dp1457
g8
g1350
sg37
g329
sg38
g1351
sg39
(iread_data
Room
p1458
(dp1459
g37
g268
sg43
g269
sbsg45
g301
sg47
g223
sg43
g48
sbaa(lp1460
(ischedule
Activity
p1461
(dp1462
g8
g466
sg37
g456
sg38
g480
sg39
(iread_data
Room
p1463
(dp1464
g37
g135
sg43
g136
sbsg45
g301
sg47
g223
sg43
g463
sba(ischedule
Activity
p1465
(dp1466
g8
g9
sg37
I1000
sg38
Nsg39
(iread_data
Room
p1467
(dp1468
g37
g221
sg43
g222
sbsg45
g46
sg47
I0
sg43
g48
sba(ischedule
Activity
p1469
(dp1470
g8
g446
sg37
g479
sg38
g457
sg39
(iread_data
Room
p1471
(dp1472
g37
g248
sg43
g249
sbsg45
g137
sg47
g462
sg43
g463
sba(ischedule
Activity
p1473
(dp1474
g8
g754
sg37
g1310
sg38
g766
sg39
(iread_data
Room
p1475
(dp1476
g37
g166
sg43
g167
sbsg45
g301
sg47
g223
sg43
g709
sba(ischedule
Activity
p1477
(dp1478
g8
g1307
sg37
g703
sg38
g1311
sg39
(iread_data
Room
p1479
(dp1480
g37
g42
sg43
g44
sbsg45
g137
sg47
g138
sg43
g709
sba(ischedule
Activity
p1481
(dp1482
g8
g697
sg37
g1310
sg38
g704
sg39
(iread_data
Room
p1483
(dp1484
g37
g268
sg43
g269
sbsg45
g301
sg47
g270
sg43
g709
sba(ischedule
Activity
p1485
(dp1486
g8
g820
sg37
I1000
sg38
Nsg39
(iread_data
Room
p1487
(dp1488
g37
g93
sg43
g94
sbsg45
g46
sg47
I0
sg43
g835
sbaaa(lp1489
(lp1490
a(lp1491
a(lp1492
a(lp1493
a(lp1494
aasS'timeslot_dict'
p1495
(dp1496
I0
S'9:00-11:00'
p1497
sI1
S'11:00-13:00'
p1498
sI2
S'13:00-15:00'
p1499
sI3
S'15:00-17:00'
p1500
sI4
S'17:00-19:00'
p1501
ssS'day_dict'
p1502
(dp1503
I0
S'Monday'
p1504
sI1
S'Tuesday'
p1505
sI2
S'Wednesday'
p1506
sI3
S'Thursday'
p1507
sI4
S'Friday'
p1508
ssb.