(ischedule
Schedule
p0
(dp1
S'timetable'
p2
(lp3
(lp4
(lp5
(ischedule
Activity
p6
(dp7
S'participants'
p8
(lp9
S'24277163'
p10
aS'27916487'
p11
aS'47462856'
p12
aS'78821918'
p13
aS'58332004'
p14
aS'99283252'
p15
aS'59111489'
p16
aS'83266686'
p17
aS'77376714'
p18
aS'4709948'
p19
aS'50184318'
p20
aS'58592894'
p21
aS'49631542'
p22
aS'66621166'
p23
aS'85335143'
p24
aS'1181560'
p25
aS'84449005'
p26
aS'30658799'
p27
aS'13218321'
p28
aS'14309255'
p29
aS'51650744'
p30
aS'64600457'
p31
aS'46570285'
p32
aS'15051051'
p33
aS'33776961'
p34
aS'75521763'
p35
aS'68315599'
p36
aS'18144425'
p37
aS'1766560'
p38
aS'43680781'
p39
aS'36748818'
p40
aS'70072978'
p41
aS'78443067'
p42
aS'11741347'
p43
aS'78243495'
p44
aS'89180944'
p45
aS'63111000'
p46
aS'48198668'
p47
aS'27241113'
p48
aS'42171678'
p49
aS'3883025'
p50
aS'29526540'
p51
aS'78544592'
p52
aS'36527838'
p53
aS'58699305'
p54
aS'41489515'
p55
aS'75997788'
p56
aS'83415514'
p57
aS'5517869'
p58
aS'11996292'
p59
aS'96082155'
p60
aS'49219163'
p61
aS'13911001'
p62
aS'17222374'
p63
asS'capacity'
p64
I1000
sS'group'
p65
NsS'room'
p66
(iread_data
Room
p67
(dp68
g64
S'56'
p69
sS'name'
p70
S'A1.10'
p71
sbsS'ttype'
p72
S'lectures'
p73
sS'group_id'
p74
I0
sg70
S'Moderne Databases'
p75
sba(ischedule
Activity
p76
(dp77
g8
(lp78
S'20883994'
p79
aS'51542218'
p80
aS'5368702'
p81
aS'79858178'
p82
aS'77240949'
p83
aS'14398123'
p84
ag14
aS'39919665'
p85
aS'7492204'
p86
ag12
aS'20331158'
p87
aS'14671406'
p88
aS'41585485'
p89
aS'84524083'
p90
aS'17823206'
p91
aS'55474917'
p92
aS'38329455'
p93
ag32
aS'23798155'
p94
aS'58522654'
p95
aS'77636749'
p96
aS'39230359'
p97
aS'97371272'
p98
aS'89338938'
p99
aS'94955328'
p100
aS'64296965'
p101
aS'47605891'
p102
aS'31633723'
p103
aS'91196968'
p104
aS'94467156'
p105
aS'23391676'
p106
aS'34243356'
p107
aS'59075181'
p108
ag22
aS'20239127'
p109
aS'69086548'
p110
aS'65003379'
p111
aS'63408522'
p112
aS'72547110'
p113
aS'63634350'
p114
aS'44940353'
p115
aS'58469172'
p116
aS'14591033'
p117
aS'28957789'
p118
aS'54569540'
p119
aS'38499176'
p120
aS'79366078'
p121
aS'24875739'
p122
aS'97019450'
p123
aS'9731271'
p124
aS'96054456'
p125
aS'18266644'
p126
aS'41527759'
p127
aS'36903574'
p128
aS'32705005'
p129
aS'82688900'
p130
aS'61518436'
p131
aS'99272880'
p132
aS'5615125'
p133
aS'31247305'
p134
aS'76924297'
p135
aS'56988998'
p136
aS'81218347'
p137
aS'78136904'
p138
aS'91139627'
p139
aS'59544049'
p140
aS'8522855'
p141
aS'51186803'
p142
aS'54310617'
p143
aS'34262212'
p144
aS'63955238'
p145
aS'27187154'
p146
aS'39659121'
p147
aS'10792879'
p148
aS'10872825'
p149
aS'56749879'
p150
aS'42115591'
p151
aS'74182182'
p152
aS'84110134'
p153
aS'11915563'
p154
aS'37498675'
p155
aS'78735049'
p156
aS'3685034'
p157
aS'22731474'
p158
asg64
I1000
sg65
Nsg66
(iread_data
Room
p159
(dp160
g64
S'117'
p161
sg70
S'C0.110'
p162
sbsg72
g73
sg74
I0
sg70
S'Kansrekenen 2'
p163
sba(ischedule
Activity
p164
(dp165
g8
(lp166
S'62613937'
p167
ag138
aS'92665222'
p168
aS'86807027'
p169
aS'47477884'
p170
aS'14847953'
p171
aS'70844780'
p172
ag56
aS'40633534'
p173
aS'28618400'
p174
aS'72577292'
p175
aS'39429093'
p176
aS'72665524'
p177
ag79
aS'1886996'
p178
aS'72683344'
p179
aS'3168419'
p180
aS'60352393'
p181
aS'23547619'
p182
aS'27064249'
p183
asg64
I1000
sg65
Nsg66
(iread_data
Room
p184
(dp185
g64
S'20'
p186
sg70
S'A1.08'
p187
sbsg72
g73
sg74
I0
sg70
S'Advanced Heuristics'
p188
sba(ischedule
Activity
p189
(dp190
g8
(lp191
S'81022997'
p192
aS'73823548'
p193
aS'19662602'
p194
aS'7308727'
p195
aS'86291592'
p196
aS'63939720'
p197
aS'90103047'
p198
aS'42406214'
p199
aS'6939933'
p200
aS'63573738'
p201
aS'81116418'
p202
aS'37419523'
p203
asg64
S'15'
p204
sg65
(ischedule
Group
p205
(dp206
g8
g191
sg70
S'Project Numerical Recipes2'
p207
sbsg66
(iread_data
Room
p208
(dp209
g64
S'22'
p210
sg70
S'A1.06'
p211
sbsg72
S'labs'
p212
sg74
S'2'
p213
sg70
S'Project Numerical Recipes'
p214
sba(ischedule
Activity
p215
(dp216
g8
(lp217
S'37110913'
p218
aS'44901052'
p219
aS'22871048'
p220
aS'74131924'
p221
aS'19858730'
p222
aS'52552718'
p223
aS'72796858'
p224
aS'39459642'
p225
aS'61611295'
p226
aS'36508571'
p227
asg64
S'10'
p228
sg65
(ischedule
Group
p229
(dp230
g8
g217
sg70
S'Autonomous Agents 21'
p231
sbsg66
(iread_data
Room
p232
(dp233
g64
S'48'
p234
sg70
S'B0.201'
p235
sbsg72
g212
sg74
S'1'
p236
sg70
S'Autonomous Agents 2'
p237
sba(ischedule
Activity
p238
(dp239
g8
(lp240
S'34765676'
p241
aS'50143947'
p242
aS'21964491'
p243
aS'72895450'
p244
aS'51566595'
p245
aS'5976174'
p246
aS'12077419'
p247
aS'81385263'
p248
aS'86988337'
p249
aS'96453361'
p250
aS'64554442'
p251
aS'91527663'
p252
aS'57467488'
p253
aS'3474870'
p254
aS'23983476'
p255
aS'66433883'
p256
aS'3707829'
p257
aS'67817269'
p258
aS'44828429'
p259
aS'82689818'
p260
aS'19540225'
p261
asg64
S'25'
p262
sg65
(ischedule
Group
p263
(dp264
g8
g240
sg70
S'Algoritmen en complexiteit2'
p265
sbsg66
(iread_data
Room
p266
(dp267
g64
S'41'
p268
sg70
S'A1.04'
p269
sbsg72
S'tutorials'
p270
sg74
g213
sg70
S'Algoritmen en complexiteit'
p271
sbaa(lp272
(ischedule
Activity
p273
(dp274
g8
(lp275
g179
aS'59289233'
p276
ag17
aS'43460038'
p277
ag87
ag94
aS'34872117'
p278
aS'49683101'
p279
aS'14138904'
p280
aS'29718115'
p281
ag174
aS'10149535'
p282
aS'13798030'
p283
ag260
aS'27925117'
p284
aS'40434933'
p285
ag175
ag45
aS'70015932'
p286
aS'45556081'
p287
aS'58866007'
p288
asg64
I1000
sg65
Nsg66
(iread_data
Room
p289
(dp290
g64
g69
sg70
g71
sbsg72
g73
sg74
I0
sg70
S'Architectuur en computerorganisatie'
p291
sba(ischedule
Activity
p292
(dp293
g8
(lp294
S'54026378'
p295
ag221
aS'53202517'
p296
aS'22826928'
p297
ag39
aS'33877725'
p298
ag125
aS'6913074'
p299
aS'5298748'
p300
ag31
aS'33930505'
p301
aS'247918'
p302
ag79
aS'56815156'
p303
aS'66120270'
p304
aS'21029457'
p305
aS'6723948'
p306
aS'73236988'
p307
aS'89985072'
p308
ag180
aS'88176729'
p309
aS'77831658'
p310
aS'44868097'
p311
ag95
ag140
aS'30195935'
p312
asg64
S'20'
p313
sg65
(ischedule
Group
p314
(dp315
g8
g294
sg70
S'Bioinformatica2'
p316
sbsg66
(iread_data
Room
p317
(dp318
g64
g234
sg70
g235
sbsg72
g212
sg74
g213
sg70
S'Bioinformatica'
p319
sba(ischedule
Activity
p320
(dp321
g8
(lp322
S'14816774'
p323
aS'4568018'
p324
ag117
ag33
aS'30050930'
p325
aS'28359697'
p326
aS'11068043'
p327
aS'24613625'
p328
ag150
ag24
aS'81200278'
p329
aS'79617364'
p330
aS'70878567'
p331
ag158
ag51
asg64
g313
sg65
(ischedule
Group
p332
(dp333
g8
g322
sg70
S'Bioinformatica3'
p334
sbsg66
(iread_data
Room
p335
(dp336
g64
S'60'
p337
sg70
S'C1.112'
p338
sbsg72
g212
sg74
S'3'
p339
sg70
g319
sba(ischedule
Activity
p340
(dp341
g8
(lp342
g242
ag91
ag104
ag243
aS'22323043'
p343
ag218
aS'59753700'
p344
aS'98780382'
p345
aS'13996448'
p346
aS'87900893'
p347
aS'93023961'
p348
asg64
S'10'
p349
sg65
(ischedule
Group
p350
(dp351
g8
g342
sg70
S'Data Mining3'
p352
sbsg66
(iread_data
Room
p353
(dp354
g64
g210
sg70
g211
sbsg72
g212
sg74
g339
sg70
S'Data Mining'
p355
sba(ischedule
Activity
p356
(dp357
g8
(lp358
g58
aS'22699561'
p359
aS'17575088'
p360
aS'31416266'
p361
aS'73980360'
p362
aS'64228258'
p363
aS'57595888'
p364
ag10
ag35
asg64
S'20'
p365
sg65
(ischedule
Group
p366
(dp367
g8
g358
sg70
S'Collectieve Intelligentie1'
p368
sbsg66
(iread_data
Room
p369
(dp370
g64
g186
sg70
g187
sbsg72
g270
sg74
g236
sg70
S'Collectieve Intelligentie'
p371
sba(ischedule
Activity
p372
(dp373
g8
(lp374
g248
aS'7957843'
p375
aS'37744525'
p376
ag219
ag192
ag201
aS'40343779'
p377
ag19
aS'48678993'
p378
aS'12170832'
p379
aS'54772132'
p380
ag126
ag172
aS'82872148'
p381
ag107
aS'51741554'
p382
aS'72586808'
p383
aS'70939718'
p384
aS'77392404'
p385
aS'56121590'
p386
ag50
aS'62363761'
p387
ag177
aS'535689'
p388
aS'53267490'
p389
aS'1048485'
p390
ag181
aS'97135019'
p391
ag128
ag124
aS'123355'
p392
ag134
asg64
S'20'
p393
sg65
(ischedule
Group
p394
(dp395
g8
g374
sg70
S'Netwerken en systeembeveiliging4'
p396
sbsg66
(iread_data
Room
p397
(dp398
g64
g161
sg70
g162
sbsg72
g212
sg74
S'4'
p399
sg70
S'Netwerken en systeembeveiliging'
p400
sba(ischedule
Activity
p401
(dp402
g8
(lp403
g225
aS'86000192'
p404
aS'63096281'
p405
aS'8464817'
p406
ag170
aS'64947290'
p407
aS'48503689'
p408
aS'61443567'
p409
aS'12782624'
p410
aS'73893840'
p411
aS'92778619'
p412
aS'44391517'
p413
aS'10702778'
p414
ag105
aS'62701040'
p415
ag249
aS'23215240'
p416
aS'51593625'
p417
aS'26857113'
p418
aS'22288615'
p419
aS'28943658'
p420
aS'88519892'
p421
aS'20618153'
p422
ag114
aS'2550487'
p423
aS'46701583'
p424
aS'15902055'
p425
aS'23658570'
p426
aS'4921119'
p427
aS'10698627'
p428
aS'15249775'
p429
ag100
aS'37279234'
p430
aS'20830477'
p431
asg64
S'20'
p432
sg65
(ischedule
Group
p433
(dp434
g8
g403
sg70
S'Programmeren in Java 24'
p435
sbsg66
(iread_data
Room
p436
(dp437
g64
g268
sg70
g269
sbsg72
g212
sg74
g399
sg70
S'Programmeren in Java 2'
p438
sbaa(lp439
(ischedule
Activity
p440
(dp441
g8
(lp442
S'62105897'
p443
ag52
ag299
aS'10609762'
p444
aS'31306819'
p445
ag21
aS'56872729'
p446
ag330
ag424
ag125
aS'34173695'
p447
ag430
aS'65978354'
p448
aS'40141996'
p449
aS'61520025'
p450
ag347
aS'38296757'
p451
ag32
ag391
ag282
aS'79888156'
p452
aS'86180471'
p453
aS'12091019'
p454
ag31
aS'14303208'
p455
aS'4783858'
p456
aS'76661016'
p457
aS'38179241'
p458
aS'88855695'
p459
ag148
aS'53139134'
p460
aS'11593163'
p461
ag169
aS'81155296'
p462
ag156
ag170
aS'33672995'
p463
ag363
aS'73302736'
p464
aS'45915482'
p465
ag129
aS'75623387'
p466
aS'14179347'
p467
aS'79167252'
p468
ag42
aS'80188025'
p469
ag200
aS'16097870'
p470
aS'19717077'
p471
aS'33760909'
p472
aS'23565001'
p473
ag122
aS'72526473'
p474
aS'53585410'
p475
ag57
aS'94686490'
p476
aS'56544130'
p477
ag152
aS'48357272'
p478
aS'65408517'
p479
ag54
aS'77306636'
p480
ag426
aS'58040377'
p481
ag114
ag24
aS'22168693'
p482
aS'88752563'
p483
ag124
ag323
ag384
aS'75446434'
p484
aS'55412918'
p485
ag311
ag117
ag133
ag183
ag118
aS'93361408'
p486
aS'87602030'
p487
aS'55530367'
p488
aS'56348773'
p489
aS'59220392'
p490
ag306
ag56
ag404
ag425
aS'6709529'
p491
aS'26260141'
p492
aS'27298319'
p493
ag177
ag382
ag146
ag284
ag305
aS'23628642'
p494
ag17
ag193
aS'47932106'
p495
aS'75585647'
p496
ag116
aS'4546613'
p497
aS'3678531'
p498
ag387
aS'82412626'
p499
aS'58253841'
p500
asg64
I1000
sg65
Nsg66
(iread_data
Room
p501
(dp502
g64
g161
sg70
g162
sbsg72
g73
sg74
I0
sg70
S'Calculus 2'
p503
sba(ischedule
Activity
p504
(dp505
g8
g240
sg64
S'25'
p506
sg65
g263
sg66
(iread_data
Room
p507
(dp508
g64
g210
sg70
g211
sbsg72
g212
sg74
g213
sg70
g271
sba(ischedule
Activity
p509
(dp510
g8
(lp511
g10
aS'36785409'
p512
aS'96554914'
p513
aS'60661905'
p514
ag19
aS'41578612'
p515
ag297
ag26
ag220
ag34
ag109
ag218
ag90
aS'51052738'
p516
aS'37399898'
p517
aS'87830198'
p518
aS'32044893'
p519
ag157
aS'36213792'
p520
ag412
aS'49922855'
p521
aS'13658563'
p522
ag385
aS'13718298'
p523
aS'52715680'
p524
aS'20095994'
p525
ag131
aS'27370083'
p526
asg64
S'20'
p527
sg65
(ischedule
Group
p528
(dp529
g8
g511
sg70
S'Reflectie op de digitale cultuur2'
p530
sbsg66
(iread_data
Room
p531
(dp532
g64
g268
sg70
g269
sbsg72
g270
sg74
g213
sg70
S'Reflectie op de digitale cultuur'
p533
sba(ischedule
Activity
p534
(dp535
g8
(lp536
S'34773179'
p537
aS'37770881'
p538
aS'25106480'
p539
aS'27950803'
p540
aS'55480737'
p541
ag378
aS'68409833'
p542
asg64
S'15'
p543
sg65
(ischedule
Group
p544
(dp545
g8
g536
sg70
S'Project Genetic Algorithms2'
p546
sbsg66
(iread_data
Room
p547
(dp548
g64
g337
sg70
g338
sbsg72
g212
sg74
g213
sg70
S'Project Genetic Algorithms'
p549
sba(ischedule
Activity
p550
(dp551
g8
(lp552
g14
ag49
ag59
ag35
ag29
ag39
ag13
ag12
ag36
ag18
ag15
ag30
ag22
ag63
ag47
ag43
ag11
asg64
S'20'
p553
sg65
(ischedule
Group
p554
(dp555
g8
g552
sg70
S'Moderne Databases2'
p556
sbsg66
(iread_data
Room
p557
(dp558
g64
g186
sg70
g187
sbsg72
g270
sg74
g213
sg70
g75
sba(ischedule
Activity
p559
(dp560
g8
(lp561
S'42778953'
p562
ag423
aS'60312776'
p563
ag99
aS'32183908'
p564
ag327
ag153
aS'12430748'
p565
aS'48308205'
p566
ag310
ag158
ag38
aS'34691309'
p567
ag375
aS'14941752'
p568
ag408
aS'13092455'
p569
ag307
ag174
aS'13284244'
p570
aS'75005528'
p571
ag346
asg64
g204
sg65
(ischedule
Group
p572
(dp573
g8
g561
sg70
S'Project Numerical Recipes1'
p574
sbsg66
(iread_data
Room
p575
(dp576
g64
g234
sg70
g235
sbsg72
g212
sg74
g236
sg70
g214
sbaa(lp577
(ischedule
Activity
p578
(dp579
g8
(lp580
g308
ag298
ag327
ag311
ag295
ag309
ag242
ag140
ag343
ag286
ag45
ag277
ag497
ag307
ag29
ag324
aS'9287708'
p581
aS'65318664'
p582
ag151
ag464
aS'61060652'
p583
ag246
ag563
aS'31103066'
p584
ag539
ag127
ag542
ag443
ag99
ag381
ag220
aS'52311353'
p585
aS'48601268'
p586
ag154
ag88
ag42
aS'95631564'
p587
ag153
ag523
ag44
aS'37830626'
p588
aS'41153310'
p589
aS'28357474'
p590
ag513
ag524
ag479
aS'58074656'
p591
ag377
ag376
ag103
ag18
ag478
aS'14072826'
p592
ag15
ag92
aS'62356458'
p593
aS'75599734'
p594
asg64
S'40'
p595
sg65
(ischedule
Group
p596
(dp597
g8
g580
sg70
S'Software engineering1'
p598
sbsg66
(iread_data
Room
p599
(dp600
g64
g337
sg70
g338
sbsg72
g212
sg74
g236
sg70
S'Software engineering'
p601
sba(ischedule
Activity
p602
(dp603
g8
(lp604
S'57086672'
p605
ag409
ag175
aS'76123484'
p606
ag385
ag254
ag363
aS'16333449'
p607
ag455
ag244
aS'76648468'
p608
aS'2416751'
p609
aS'69459473'
p610
aS'24891081'
p611
aS'49908313'
p612
aS'17092717'
p613
aS'67073567'
p614
aS'28358060'
p615
aS'1137946'
p616
ag133
aS'76903244'
p617
aS'53512831'
p618
aS'94930277'
p619
asg64
S'20'
p620
sg65
(ischedule
Group
p621
(dp622
g8
g604
sg70
S'Webprogrammeren en databases2'
p623
sbsg66
(iread_data
Room
p624
(dp625
g64
g161
sg70
g162
sbsg72
g212
sg74
g213
sg70
S'Webprogrammeren en databases'
p626
sba(ischedule
Activity
p627
(dp628
g8
(lp629
S'92977271'
p630
ag331
ag40
ag36
ag281
aS'8557857'
p631
ag219
aS'23257088'
p632
aS'11459236'
p633
aS'32204977'
p634
ag126
ag415
ag96
ag35
aS'13116738'
p635
aS'17496687'
p636
ag522
aS'19958553'
p637
ag14
ag496
ag255
asg64
I1000
sg65
Nsg66
(iread_data
Room
p638
(dp639
g64
g210
sg70
g211
sbsg72
g73
sg74
I0
sg70
S'Informatie- en organsatieontwerp'
p640
sba(ischedule
Activity
p641
(dp642
g8
(lp643
g168
ag56
ag178
ag183
ag169
ag180
ag167
ag171
ag181
ag138
ag182
ag176
ag79
ag173
asg64
S'10'
p644
sg65
(ischedule
Group
p645
(dp646
g8
g643
sg70
S'Advanced Heuristics1'
p647
sbsg66
(iread_data
Room
p648
(dp649
g64
g69
sg70
g71
sbsg72
g212
sg74
g236
sg70
g188
sba(ischedule
Activity
p650
(dp651
g8
(lp652
S'64393888'
p653
ag124
aS'80135353'
p654
ag498
ag150
aS'670011'
p655
aS'85236626'
p656
ag146
aS'90296821'
p657
asg64
g432
sg65
(ischedule
Group
p658
(dp659
g8
g652
sg70
S'Programmeren in Java 22'
p660
sbsg66
(iread_data
Room
p661
(dp662
g64
g186
sg70
g187
sbsg72
g212
sg74
g213
sg70
g438
sba(ischedule
Activity
p663
(dp664
g8
(lp665
g120
ag304
ag260
aS'25330192'
p666
aS'85284256'
p667
aS'21677389'
p668
ag253
aS'16912993'
p669
ag301
ag196
aS'75664412'
p670
aS'5590289'
p671
aS'56191333'
p672
aS'25557516'
p673
aS'97136582'
p674
aS'29640619'
p675
ag518
aS'19058315'
p676
ag312
aS'1696500'
p677
ag174
aS'4353500'
p678
ag195
aS'59887191'
p679
aS'26207525'
p680
aS'64246605'
p681
ag84
aS'72456780'
p682
ag108
aS'62736669'
p683
asg64
g393
sg65
(ischedule
Group
p684
(dp685
g8
g665
sg70
S'Netwerken en systeembeveiliging3'
p686
sbsg66
(iread_data
Room
p687
(dp688
g64
g268
sg70
g269
sbsg72
g212
sg74
g339
sg70
g400
sbaa(lp689
(ischedule
Activity
p690
(dp691
g8
(lp692
g141
ag377
ag88
ag260
aS'43902015'
p693
aS'1665980'
p694
ag253
ag21
ag250
ag246
ag251
ag261
ag259
ag407
ag424
ag256
ag249
ag524
ag257
aS'51509565'
p695
ag242
aS'21095566'
p696
ag18
ag244
aS'23652927'
p697
ag254
ag255
ag127
ag89
ag492
ag258
ag425
ag248
ag493
ag138
aS'88596522'
p698
ag475
ag247
ag243
ag245
ag128
ag241
ag252
asg64
I1000
sg65
Nsg66
(iread_data
Room
p699
(dp700
g64
g337
sg70
g338
sbsg72
g73
sg74
I0
sg70
g271
sba(ischedule
Activity
p701
(dp702
g8
(lp703
g566
ag470
ag562
aS'21311067'
p704
ag476
ag607
ag515
aS'62872965'
p705
ag361
ag104
aS'66570705'
p706
aS'77896638'
p707
ag152
ag585
ag446
ag517
aS'54074680'
p708
aS'80709893'
p709
aS'32595335'
p710
ag92
ag485
ag227
aS'34588570'
p711
aS'26172512'
p712
aS'87758823'
p713
ag248
ag542
aS'42196732'
p714
aS'96118484'
p715
ag117
aS'83210352'
p716
aS'80998260'
p717
ag137
ag473
ag282
ag100
ag288
ag330
ag107
aS'79937969'
p718
aS'35330349'
p719
ag583
ag254
ag571
aS'71839156'
p720
ag120
ag427
aS'90743504'
p721
ag151
aS'16011419'
p722
aS'93566383'
p723
ag58
ag655
ag53
asg64
I1000
sg65
Nsg66
(iread_data
Room
p724
(dp725
g64
g161
sg70
g162
sbsg72
g73
sg74
I0
sg70
S'Lineaire Algebra'
p726
sba(ischedule
Activity
p727
(dp728
g8
(lp729
g83
ag131
aS'40791377'
p730
ag424
ag656
ag146
ag225
ag33
aS'90067329'
p731
ag279
ag136
ag94
ag246
aS'2079771'
p732
ag376
ag451
ag46
aS'33252501'
p733
ag105
ag418
aS'67625383'
p734
ag157
asg64
I1000
sg65
Nsg66
(iread_data
Room
p735
(dp736
g64
g210
sg70
g211
sbsg72
g73
sg74
I0
sg70
S'Machine Learning'
p737
sba(ischedule
Activity
p738
(dp739
g8
g294
sg64
S'20'
p740
sg65
g314
sg66
(iread_data
Room
p741
(dp742
g64
g268
sg70
g269
sbsg72
g270
sg74
g213
sg70
g319
sba(ischedule
Activity
p743
(dp744
g8
(lp745
g632
ag675
ag14
ag285
ag278
ag223
ag606
ag193
ag80
aS'46989508'
p746
ag683
ag13
ag569
asg64
S'40'
p747
sg65
(ischedule
Group
p748
(dp749
g8
g745
sg70
S'Databases 21'
p750
sbsg66
(iread_data
Room
p751
(dp752
g64
g186
sg70
g187
sbsg72
g270
sg74
g236
sg70
S'Databases 2'
p753
sba(ischedule
Activity
p754
(dp755
g8
(lp756
g32
ag24
ag10
ag58
ag20
ag17
ag26
ag61
asg64
g553
sg65
(ischedule
Group
p757
(dp758
g8
g756
sg70
S'Moderne Databases1'
p759
sbsg66
(iread_data
Room
p760
(dp761
g64
g69
sg70
g71
sbsg72
g270
sg74
g236
sg70
g75
sba(ischedule
Activity
p762
(dp763
g8
(lp764
g218
aS'98105190'
p765
ag478
aS'79879876'
p766
ag343
aS'83443653'
p767
aS'53107172'
p768
ag677
ag35
ag619
ag123
ag431
ag522
ag222
ag219
ag220
ag87
ag568
ag720
ag280
ag128
ag630
ag49
aS'66122625'
p769
aS'45660925'
p770
aS'97417002'
p771
aS'31897288'
p772
ag583
aS'87210640'
p773
ag150
aS'58736785'
p774
ag253
ag56
ag59
ag323
ag456
ag108
ag169
aS'76393508'
p775
ag117
ag324
ag137
aS'53775014'
p776
ag678
asg64
I1000
sg65
Nsg66
(iread_data
Room
p777
(dp778
g64
g234
sg70
g235
sbsg72
g73
sg74
I0
sg70
S'Heuristieken 1'
p779
sbaaa(lp780
(lp781
(ischedule
Activity
p782
(dp783
g8
g703
sg64
I1000
sg65
Nsg66
(iread_data
Room
p784
(dp785
g64
g337
sg70
g338
sbsg72
g73
sg74
I0
sg70
g726
sba(ischedule
Activity
p786
(dp787
g8
(lp788
g391
ag63
ag538
ag361
ag404
ag360
ag49
ag364
ag363
aS'1075391'
p789
ag569
ag243
ag20
ag175
ag35
ag409
ag537
ag653
aS'68601184'
p790
ag182
ag719
ag539
aS'96104167'
p791
ag362
aS'65960683'
p792
ag415
aS'26406342'
p793
ag83
ag472
ag143
aS'29474737'
p794
ag590
ag95
ag768
aS'9332762'
p795
ag101
ag606
ag562
ag707
ag677
ag563
aS'3233378'
p796
aS'13534377'
p797
ag10
aS'43027916'
p798
ag714
ag196
ag359
ag58
ag260
ag694
ag242
aS'46052388'
p799
ag287
ag586
ag456
ag675
ag713
ag425
ag195
ag382
asg64
I1000
sg65
Nsg66
(iread_data
Room
p800
(dp801
g64
g161
sg70
g162
sbsg72
g73
sg74
I0
sg70
g371
sba(ischedule
Activity
p802
(dp803
g8
(lp804
S'51415617'
p805
ag19
aS'99975346'
p806
aS'27805666'
p807
ag517
ag516
ag569
ag26
aS'70193386'
p808
ag521
ag524
ag522
ag249
ag526
ag520
ag10
aS'90474003'
p809
ag119
ag109
ag181
ag412
aS'77960666'
p810
ag515
ag199
ag138
ag540
ag451
aS'99453514'
p811
ag385
ag519
ag513
aS'82390428'
p812
ag218
ag157
ag300
ag299
ag344
ag131
ag518
ag514
ag39
ag220
ag297
ag512
ag525
aS'68286356'
p813
ag172
ag34
ag90
ag523
ag605
asg64
I1000
sg65
Nsg66
(iread_data
Room
p814
(dp815
g64
g69
sg70
g71
sbsg72
g73
sg74
I0
sg70
g533
sba(ischedule
Activity
p816
(dp817
g8
(lp818
g331
ag219
ag36
ag630
ag281
ag636
ag255
ag637
ag633
ag126
ag634
asg64
S'15'
p819
sg65
(ischedule
Group
p820
(dp821
g8
g818
sg70
S'Informatie- en organsatieontwerp2'
p822
sbsg66
(iread_data
Room
p823
(dp824
g64
g268
sg70
g269
sbsg72
g212
sg74
g213
sg70
g640
sba(ischedule
Activity
p825
(dp826
g8
(lp827
g154
ag295
aS'34806836'
p828
ag593
aS'88627897'
p829
asg64
g228
sg65
(ischedule
Group
p830
(dp831
g8
g827
sg70
S'Autonomous Agents 23'
p832
sbsg66
(iread_data
Room
p833
(dp834
g64
g210
sg70
g211
sbsg72
g212
sg74
g339
sg70
g237
sba(ischedule
Activity
p835
(dp836
g8
(lp837
g298
ag45
ag277
ag171
aS'66034145'
p838
ag296
ag44
ag285
ag183
aS'6249823'
p839
ag693
aS'41790793'
p840
ag419
ag97
ag428
ag422
asg64
g620
sg65
(ischedule
Group
p841
(dp842
g8
g837
sg70
S'Webprogrammeren en databases1'
p843
sbsg66
(iread_data
Room
p844
(dp845
g64
g234
sg70
g235
sbsg72
g212
sg74
g236
sg70
g626
sbaa(lp846
(ischedule
Activity
p847
(dp848
g8
(lp849
g35
ag108
ag218
ag583
ag128
ag772
ag767
ag765
ag343
ag769
ag774
ag59
ag56
ag280
ag49
ag220
ag117
ag478
ag568
ag768
ag87
ag431
ag456
ag137
ag222
ag630
ag720
ag522
ag324
ag323
ag123
ag677
ag775
ag766
ag150
asg64
S'25'
p850
sg65
(ischedule
Group
p851
(dp852
g8
g849
sg70
S'Heuristieken 11'
p853
sbsg66
(iread_data
Room
p854
(dp855
g64
g234
sg70
g235
sbsg72
g270
sg74
g236
sg70
g779
sba(ischedule
Activity
p856
(dp857
g8
(lp858
g605
ag175
ag607
ag428
ag171
ag44
ag693
ag606
ag610
ag840
ag609
ag285
ag613
ag615
ag133
ag838
ag614
ag244
ag618
ag619
ag839
ag617
ag296
ag455
ag385
ag363
ag409
ag277
ag298
ag616
ag45
ag608
ag422
ag419
ag611
ag254
ag183
ag97
ag612
asg64
I1000
sg65
Nsg66
(iread_data
Room
p859
(dp860
g64
g337
sg70
g338
sbsg72
g73
sg74
I0
sg70
g626
sba(ischedule
Activity
p861
(dp862
g8
(lp863
g563
ag594
ag587
ag540
ag29
ag278
ag17
ag707
ag36
ag483
ag249
ag224
ag154
ag562
ag90
aS'65852230'
p864
ag307
ag62
ag225
ag196
ag247
ag746
ag670
ag654
ag406
ag248
aS'88636924'
p865
ag375
aS'76802764'
p866
aS'75759231'
p867
aS'31194811'
p868
ag413
ag380
ag38
aS'95007221'
p869
ag459
ag148
aS'66701209'
p870
aS'79033175'
p871
ag168
ag81
ag43
aS'94687383'
p872
ag570
aS'3407554'
p873
aS'2317551'
p874
ag279
aS'34110913'
p875
aS'43689934'
p876
ag468
asg64
S'40'
p877
sg65
(ischedule
Group
p878
(dp879
g8
g863
sg70
S'Compilerbouw1'
p880
sbsg66
(iread_data
Room
p881
(dp882
g64
g161
sg70
g162
sbsg72
g270
sg74
g236
sg70
S'Compilerbouw'
p883
sba(ischedule
Activity
p884
(dp885
g8
(lp886
g470
ag58
ag245
ag493
ag705
ag542
aS'70113753'
p887
asg64
g228
sg65
(ischedule
Group
p888
(dp889
g8
g886
sg70
S'Autonomous Agents 22'
p890
sbsg66
(iread_data
Room
p891
(dp892
g64
g268
sg70
g269
sbsg72
g212
sg74
g213
sg70
g237
sba(ischedule
Activity
p893
(dp894
g8
(lp895
g590
asg64
g365
sg65
(ischedule
Group
p896
(dp897
g8
g895
sg70
S'Collectieve Intelligentie2'
p898
sbsg66
(iread_data
Room
p899
(dp900
g64
g210
sg70
g211
sbsg72
g270
sg74
g213
sg70
g371
sba(ischedule
Activity
p901
(dp902
g8
g729
sg64
I1000
sg65
Nsg66
(iread_data
Room
p903
(dp904
g64
g69
sg70
g71
sbsg72
g73
sg74
I0
sg70
g737
sba(ischedule
Activity
p905
(dp906
g8
(lp907
g243
ag250
ag195
ag714
asg64
g313
sg65
(ischedule
Group
p908
(dp909
g8
g907
sg70
S'Bioinformatica1'
p910
sbsg66
(iread_data
Room
p911
(dp912
g64
g186
sg70
g187
sbsg72
g212
sg74
g236
sg70
g319
sbaa(lp913
(ischedule
Activity
p914
(dp915
g8
(lp916
g94
ag582
ag100
aS'97838175'
p917
aS'18477924'
p918
ag303
ag463
ag808
ag585
ag523
ag426
ag478
ag13
ag605
ag151
ag469
ag220
ag477
ag427
ag514
ag682
ag515
aS'34900967'
p919
ag123
ag80
ag473
ag383
ag512
ag767
ag378
ag310
ag101
ag470
aS'58480929'
p920
ag798
ag464
ag518
aS'88737765'
p921
aS'73350019'
p922
ag107
ag24
ag167
ag126
aS'78822885'
p923
aS'82854435'
p924
aS'5595824'
p925
aS'14637758'
p926
ag56
aS'5085194'
p927
asg64
I1000
sg65
Nsg66
(iread_data
Room
p928
(dp929
g64
g337
sg70
g338
sbsg72
g73
sg74
I0
sg70
S'Analysemethoden en -technieken'
p930
sba(ischedule
Activity
p931
(dp932
g8
(lp933
g18
ag89
ag127
ag88
ag138
ag141
ag128
ag21
ag424
ag492
ag475
ag493
ag695
ag425
ag696
ag524
ag693
ag694
ag407
ag698
ag697
ag377
asg64
g506
sg65
(ischedule
Group
p934
(dp935
g8
g933
sg70
S'Algoritmen en complexiteit1'
p936
sbsg66
(iread_data
Room
p937
(dp938
g64
g268
sg70
g269
sbsg72
g212
sg74
g236
sg70
g271
sba(ischedule
Activity
p939
(dp940
g8
g863
sg64
S'40'
p941
sg65
g878
sg66
(iread_data
Room
p942
(dp943
g64
g161
sg70
g162
sbsg72
g212
sg74
g236
sg70
g883
sba(ischedule
Activity
p944
(dp945
g8
(lp946
g297
ag302
ag117
ag300
ag180
ag125
ag79
ag51
ag33
ag39
ag329
ag328
ag95
ag243
ag221
ag250
ag310
ag331
ag299
ag311
ag305
ag296
ag309
ag31
ag24
ag307
ag714
ag326
ag150
ag140
ag330
ag308
ag304
ag295
ag301
ag324
ag323
ag306
ag327
ag303
ag325
ag158
ag195
ag312
ag298
asg64
I1000
sg65
Nsg66
(iread_data
Room
p947
(dp948
g64
g69
sg70
g71
sbsg72
g73
sg74
I0
sg70
g319
sbaa(lp949
(ischedule
Activity
p950
(dp951
g8
(lp952
g566
ag562
ag375
ag306
ag765
ag730
ag563
ag868
ag380
ag873
aS'9067939'
p953
ag95
ag62
ag865
ag925
ag570
aS'15911353'
p954
ag670
ag36
ag483
ag732
ag168
ag874
ag869
ag870
ag864
ag17
ag538
ag296
ag248
ag872
ag654
ag43
ag107
ag249
ag247
ag146
ag224
ag866
ag413
ag328
ag154
ag406
ag871
ag792
ag27
ag457
ag707
ag867
ag279
ag90
ag196
ag594
ag876
ag875
ag459
ag307
ag244
ag278
ag408
ag148
ag29
ag746
ag38
ag225
ag468
ag587
ag81
ag540
asg64
I1000
sg65
Nsg66
(iread_data
Room
p955
(dp956
g64
g161
sg70
g162
sbsg72
g73
sg74
I0
sg70
g883
sba(ischedule
Activity
p957
(dp958
g8
(lp959
g331
aS'68360259'
p960
ag585
ag343
ag346
ag674
ag245
ag104
ag376
ag666
ag811
ag243
ag329
ag192
ag242
ag345
ag347
ag344
ag91
aS'87314964'
p961
ag218
ag221
ag635
ag769
ag348
aS'45414528'
p962
aS'19337738'
p963
asg64
I1000
sg65
Nsg66
(iread_data
Room
p964
(dp965
g64
g69
sg70
g71
sbsg72
g73
sg74
I0
sg70
g355
sba(ischedule
Activity
p966
(dp967
g8
(lp968
g120
ag324
aS'47260040'
p969
ag524
ag114
ag327
ag475
ag308
ag927
aS'65675896'
p970
aS'91250534'
p971
aS'42297781'
p972
ag364
ag416
ag455
aS'74361881'
p973
ag698
asg64
S'15'
p974
sg65
(ischedule
Group
p975
(dp976
g8
g968
sg70
S'Compilerbouw practicum3'
p977
sbsg66
(iread_data
Room
p978
(dp979
g64
g210
sg70
g211
sbsg72
g212
sg74
g339
sg70
S'Compilerbouw practicum'
p980
sba(ischedule
Activity
p981
(dp982
g8
(lp983
g175
ag174
ag177
ag179
ag170
ag172
asg64
g644
sg65
(ischedule
Group
p984
(dp985
g8
g983
sg70
S'Advanced Heuristics2'
p986
sbsg66
(iread_data
Room
p987
(dp988
g64
g337
sg70
g338
sbsg72
g212
sg74
g213
sg70
g188
sba(ischedule
Activity
p989
(dp990
g8
(lp991
g443
ag255
ag116
ag390
ag790
aS'73196865'
p992
ag810
ag14
ag92
asg64
g432
sg65
(ischedule
Group
p993
(dp994
g8
g991
sg70
S'Programmeren in Java 21'
p995
sbsg66
(iread_data
Room
p996
(dp997
g64
g268
sg70
g269
sbsg72
g212
sg74
g236
sg70
g438
sba(ischedule
Activity
p998
(dp999
g8
(lp1000
g456
ag21
ag363
ag384
ag464
ag450
ag495
ag56
ag391
ag133
ag117
ag476
ag472
ag446
ag426
ag200
ag478
ag311
ag122
ag444
ag485
asg64
S'40'
p1001
sg65
(ischedule
Group
p1002
(dp1003
g8
g1000
sg70
S'Calculus 22'
p1004
sbsg66
(iread_data
Room
p1005
(dp1006
g64
g234
sg70
g235
sbsg72
g270
sg74
g213
sg70
g503
sba(ischedule
Activity
p1007
(dp1008
g8
(lp1009
g141
asg64
g393
sg65
(ischedule
Group
p1010
(dp1011
g8
g1009
sg70
S'Netwerken en systeembeveiliging2'
p1012
sbsg66
(iread_data
Room
p1013
(dp1014
g64
g186
sg70
g187
sbsg72
g212
sg74
g213
sg70
g400
sbaa(lp1015
(ischedule
Activity
p1016
(dp1017
g8
(lp1018
g693
ag714
ag252
ag571
ag58
ag427
ag59
ag655
ag446
ag407
ag323
ag253
ag476
ag21
ag249
ag707
ag125
ag150
ag245
ag225
ag10
ag63
ag809
ag680
ag22
ag613
ag426
ag302
aS'5526560'
p1019
aS'59397895'
p1020
aS'13132925'
p1021
ag454
ag51
ag682
ag483
ag927
aS'54540997'
p1022
aS'27123462'
p1023
aS'15187217'
p1024
aS'25077484'
p1025
ag181
ag41
aS'4529208'
p1026
ag495
ag453
aS'37701751'
p1027
ag449
ag180
aS'58083680'
p1028
ag260
ag672
ag793
ag170
ag101
ag224
ag386
ag810
ag798
aS'83869542'
p1029
asg64
g747
sg65
(ischedule
Group
p1030
(dp1031
g8
g1018
sg70
S'Databases 22'
p1032
sbsg66
(iread_data
Room
p1033
(dp1034
g64
g161
sg70
g162
sbsg72
g270
sg74
g213
sg70
g753
sba(ischedule
Activity
p1035
(dp1036
g8
(lp1037
g675
ag223
aS'44671041'
p1038
ag492
ag696
ag796
ag390
ag716
ag465
ag709
aS'3727435'
p1039
ag417
aS'27582862'
p1040
ag456
aS'58565406'
p1041
ag540
ag134
ag105
asg64
S'40'
p1042
sg65
(ischedule
Group
p1043
(dp1044
g8
g1037
sg70
S'Software engineering2'
p1045
sbsg66
(iread_data
Room
p1046
(dp1047
g64
g234
sg70
g235
sbsg72
g270
sg74
g213
sg70
g601
sba(ischedule
Activity
p1048
(dp1049
g8
(lp1050
g306
ag730
ag244
ag328
ag296
ag732
ag107
ag925
ag765
ag95
ag146
ag408
ag954
ag953
ag27
ag566
ag792
ag538
ag457
asg64
g877
sg65
(ischedule
Group
p1051
(dp1052
g8
g1050
sg70
S'Compilerbouw2'
p1053
sbsg66
(iread_data
Room
p1054
(dp1055
g64
g186
sg70
g187
sbsg72
g270
sg74
g213
sg70
g883
sba(ischedule
Activity
p1056
(dp1057
g8
(lp1058
g329
ag158
ag241
aS'72652638'
p1059
ag44
ag429
ag605
aS'82968410'
p1060
ag470
aS'7106649'
p1061
aS'52304977'
p1062
ag656
asg64
S'20'
p1063
sg65
(ischedule
Group
p1064
(dp1065
g8
g1058
sg70
S'Heuristieken 22'
p1066
sbsg66
(iread_data
Room
p1067
(dp1068
g64
g69
sg70
g71
sbsg72
g270
sg74
g213
sg70
S'Heuristieken 2'
p1069
sba(ischedule
Activity
p1070
(dp1071
g8
g342
sg64
S'10'
p1072
sg65
g350
sg66
(iread_data
Room
p1073
(dp1074
g64
g268
sg70
g269
sbsg72
g270
sg74
g339
sg70
g355
sba(ischedule
Activity
p1075
(dp1076
g8
g629
sg64
I1000
sg65
Nsg66
(iread_data
Room
p1077
(dp1078
g64
g210
sg70
g211
sbsg72
g73
sg74
I0
sg70
g640
sba(ischedule
Activity
p1079
(dp1080
g8
g275
sg64
I1000
sg65
Nsg66
(iread_data
Room
p1081
(dp1082
g64
g337
sg70
g338
sbsg72
g73
sg74
I0
sg70
g291
sbaaa(lp1083
(lp1084
(ischedule
Activity
p1085
(dp1086
g8
g886
sg64
S'10'
p1087
sg65
g888
sg66
(iread_data
Room
p1088
(dp1089
g64
g210
sg70
g211
sbsg72
g270
sg74
g213
sg70
g237
sba(ischedule
Activity
p1090
(dp1091
g8
g1037
sg64
g595
sg65
g1043
sg66
(iread_data
Room
p1092
(dp1093
g64
g268
sg70
g269
sbsg72
g212
sg74
g213
sg70
g601
sba(ischedule
Activity
p1094
(dp1095
g8
g946
sg64
I1000
sg65
Nsg66
(iread_data
Room
p1096
(dp1097
g64
g69
sg70
g71
sbsg72
g73
sg74
I0
sg70
g319
sba(ischedule
Activity
p1098
(dp1099
g8
(lp1100
g1061
ag343
ag868
ag670
ag566
ag36
ag247
ag218
ag29
ag793
aS'70336464'
p1101
ag219
ag515
ag839
aS'21192048'
p1102
aS'14383795'
p1103
ag110
aS'93041523'
p1104
ag282
asg64
S'20'
p1105
sg65
(ischedule
Group
p1106
(dp1107
g8
g1100
sg70
S'Technology for games1'
p1108
sbsg66
(iread_data
Room
p1109
(dp1110
g64
g337
sg70
g338
sbsg72
g270
sg74
g236
sg70
S'Technology for games'
p1111
sba(ischedule
Activity
p1112
(dp1113
g8
g604
sg64
S'20'
p1114
sg65
g621
sg66
(iread_data
Room
p1115
(dp1116
g64
g234
sg70
g235
sbsg72
g270
sg74
g213
sg70
g626
sba(ischedule
Activity
p1117
(dp1118
g8
(lp1119
g635
ag14
ag632
ag415
ag35
ag522
ag496
ag96
ag40
ag631
asg64
g819
sg65
(ischedule
Group
p1120
(dp1121
g8
g1119
sg70
S'Informatie- en organsatieontwerp1'
p1122
sbsg66
(iread_data
Room
p1123
(dp1124
g64
g186
sg70
g187
sbsg72
g212
sg74
g236
sg70
g640
sba(ischedule
Activity
p1125
(dp1126
g8
(lp1127
g668
ag1027
ag838
ag171
ag241
ag135
ag423
ag970
ag723
ag248
ag462
ag329
ag458
ag257
aS'64768422'
p1128
ag497
aS'69634191'
p1129
aS'19214659'
p1130
ag81
ag517
ag182
aS'28055464'
p1131
aS'20374340'
p1132
ag457
ag259
asg64
I1000
sg65
Nsg66
(iread_data
Room
p1133
(dp1134
g64
g161
sg70
g162
sbsg72
g73
sg74
I0
sg70
S'Interactie-ontwerp'
p1135
sbaa(lp1136
(ischedule
Activity
p1137
(dp1138
g8
(lp1139
g569
ag707
ag613
ag693
ag101
ag41
ag323
ag80
ag223
ag386
ag1028
ag302
ag1020
ag22
ag453
ag224
ag1022
ag714
ag245
ag225
ag249
ag14
ag672
ag150
ag51
ag252
ag476
ag571
ag632
ag58
ag285
ag927
ag809
ag449
ag1026
ag1027
ag675
ag1021
ag495
ag13
ag125
ag680
ag1023
ag427
ag793
ag278
ag454
ag260
ag682
ag181
ag798
ag426
ag483
ag59
ag407
ag1024
ag63
ag606
ag21
ag655
ag1025
ag446
ag1019
ag170
ag193
ag1029
ag253
ag10
ag810
ag746
ag683
ag180
asg64
I1000
sg65
Nsg66
(iread_data
Room
p1140
(dp1141
g64
g161
sg70
g162
sbsg72
g73
sg74
I0
sg70
g753
sba(ischedule
Activity
p1142
(dp1143
g8
g580
sg64
g1042
sg65
g596
sg66
(iread_data
Room
p1144
(dp1145
g64
g337
sg70
g338
sbsg72
g270
sg74
g236
sg70
g601
sba(ischedule
Activity
p1146
(dp1147
g8
g818
sg64
S'15'
p1148
sg65
g820
sg66
(iread_data
Room
p1149
(dp1150
g64
g234
sg70
g235
sbsg72
g270
sg74
g213
sg70
g640
sba(ischedule
Activity
p1151
(dp1152
g8
(lp1153
g635
ag221
ag666
asg64
g1072
sg65
(ischedule
Group
p1154
(dp1155
g8
g1153
sg70
S'Data Mining2'
p1156
sbsg66
(iread_data
Room
p1157
(dp1158
g64
g210
sg70
g211
sbsg72
g270
sg74
g213
sg70
g355
sba(ischedule
Activity
p1159
(dp1160
g8
(lp1161
g445
ag17
ag492
ag183
ag496
ag425
ag447
ag347
ag129
ag305
ag493
asg64
g1001
sg65
(ischedule
Group
p1162
(dp1163
g8
g1161
sg70
S'Calculus 23'
p1164
sbsg66
(iread_data
Room
p1165
(dp1166
g64
g268
sg70
g269
sbsg72
g270
sg74
g339
sg70
g503
sba(ischedule
Activity
p1167
(dp1168
g8
(lp1169
g182
ag404
ag415
ag562
ag796
ag143
ag382
ag789
ag20
ag83
asg64
g365
sg65
(ischedule
Group
p1170
(dp1171
g8
g1169
sg70
S'Collectieve Intelligentie4'
p1172
sbsg66
(iread_data
Room
p1173
(dp1174
g64
g69
sg70
g71
sbsg72
g270
sg74
g399
sg70
g371
sba(ischedule
Activity
p1175
(dp1176
g8
g1050
sg64
g941
sg65
g1051
sg66
(iread_data
Room
p1177
(dp1178
g64
g186
sg70
g187
sbsg72
g212
sg74
g213
sg70
g883
sbaa(lp1179
(ischedule
Activity
p1180
(dp1181
g8
(lp1182
g589
ag583
ag15
ag590
ag524
ag309
ag286
ag45
ag376
ag492
ag308
ag127
ag99
ag479
ag18
ag542
ag103
ag277
ag307
ag92
ag796
ag151
ag298
ag594
ag497
ag592
ag381
ag42
ag584
ag153
ag327
ag324
ag582
ag456
ag581
ag134
ag539
ag377
ag29
ag390
ag464
ag563
ag223
ag465
ag523
ag1038
ag311
ag540
ag1040
ag593
ag1039
ag591
ag585
ag242
ag443
ag154
ag246
ag716
ag587
ag44
ag88
ag696
ag1041
ag140
ag295
ag220
ag417
ag709
ag513
ag675
ag478
ag343
ag586
ag588
ag105
asg64
I1000
sg65
Nsg66
(iread_data
Room
p1183
(dp1184
g64
g161
sg70
g162
sbsg72
g73
sg74
I0
sg70
g601
sba(ischedule
Activity
p1185
(dp1186
g8
(lp1187
g39
ag569
ag605
ag813
ag810
ag181
ag344
ag811
ag807
ag119
ag808
ag451
asg64
g527
sg65
(ischedule
Group
p1188
(dp1189
g8
g1187
sg70
S'Reflectie op de digitale cultuur3'
p1190
sbsg66
(iread_data
Room
p1191
(dp1192
g64
g69
sg70
g71
sbsg72
g270
sg74
g339
sg70
g533
sba(ischedule
Activity
p1193
(dp1194
g8
(lp1195
g475
aS'88597745'
p1196
ag41
aS'64053722'
p1197
ag766
ag514
ag91
ag299
ag19
ag120
aS'7386961'
p1198
aS'51791169'
p1199
ag297
aS'39905995'
p1200
ag123
ag795
ag468
ag609
ag380
ag667
ag57
ag256
ag144
ag34
ag346
ag46
ag89
aS'54395877'
p1201
ag481
ag31
ag243
ag887
asg64
g432
sg65
(ischedule
Group
p1202
(dp1203
g8
g1195
sg70
S'Programmeren in Java 25'
p1204
sbsg66
(iread_data
Room
p1205
(dp1206
g64
g268
sg70
g269
sbsg72
g212
sg74
S'5'
p1207
sg70
g438
sba(ischedule
Activity
p1208
(dp1209
g8
(lp1210
g177
aS'25994016'
p1211
ag720
ag694
aS'44151631'
p1212
aS'1695839'
p1213
aS'51472074'
p1214
aS'51673172'
p1215
aS'41644639'
p1216
ag62
ag793
aS'5892092'
p1217
ag634
aS'82066165'
p1218
asg64
g974
sg65
(ischedule
Group
p1219
(dp1220
g8
g1210
sg70
S'Compilerbouw practicum2'
p1221
sbsg66
(iread_data
Room
p1222
(dp1223
g64
g186
sg70
g187
sbsg72
g212
sg74
g213
sg70
g980
sba(ischedule
Activity
p1224
(dp1225
g8
g756
sg64
S'20'
p1226
sg65
g757
sg66
(iread_data
Room
p1227
(dp1228
g64
g234
sg70
g235
sbsg72
g212
sg74
g236
sg70
g75
sbaa(lp1229
(ischedule
Activity
p1230
(dp1231
g8
(lp1232
g798
ag675
ag195
ag287
ag472
ag793
ag409
ag606
ag95
ag563
ag538
ag63
ag677
ag537
ag101
ag196
ag242
ag714
ag768
ag791
ag260
ag391
ag795
ag792
ag425
ag569
ag707
ag694
ag713
ag243
ag799
ag175
ag794
ag539
ag790
ag653
ag797
ag586
ag456
ag49
ag719
asg64
S'20'
p1233
sg65
(ischedule
Group
p1234
(dp1235
g8
g1232
sg70
S'Collectieve Intelligentie3'
p1236
sbsg66
(iread_data
Room
p1237
(dp1238
g64
g161
sg70
g162
sbsg72
g212
sg74
g339
sg70
g371
sba(ischedule
Activity
p1239
(dp1240
g8
g837
sg64
g1114
sg65
g841
sg66
(iread_data
Room
p1241
(dp1242
g64
g234
sg70
g235
sbsg72
g270
sg74
g236
sg70
g626
sba(ischedule
Activity
p1243
(dp1244
g8
(lp1245
g515
ag487
ag173
ag467
ag453
ag424
ag284
ag1218
ag135
ag1025
ag1216
ag610
ag1019
ag921
ag105
ag1211
ag1215
ag141
asg64
g543
sg65
(ischedule
Group
p1246
(dp1247
g8
g1245
sg70
S'Project Genetic Algorithms1'
p1248
sbsg66
(iread_data
Room
p1249
(dp1250
g64
g186
sg70
g187
sbsg72
g212
sg74
g236
sg70
g549
sba(ischedule
Activity
p1251
(dp1252
g8
g1169
sg64
g1233
sg65
g1170
sg66
(iread_data
Room
p1253
(dp1254
g64
g210
sg70
g211
sbsg72
g212
sg74
g399
sg70
g371
sba(ischedule
Activity
p1255
(dp1256
g8
(lp1257
g221
ag218
ag58
ag828
ag887
ag593
ag542
ag829
ag705
ag227
ag493
ag219
ag224
ag225
ag295
ag222
ag470
ag220
ag154
ag245
ag226
ag223
asg64
I1000
sg65
Nsg66
(iread_data
Room
p1258
(dp1259
g64
g337
sg70
g338
sbsg72
g73
sg74
I0
sg70
g237
sbaa(lp1260
(ischedule
Activity
p1261
(dp1262
g8
g78
sg64
I1000
sg65
Nsg66
(iread_data
Room
p1263
(dp1264
g64
g161
sg70
g162
sbsg72
g73
sg74
I0
sg70
g163
sba(ischedule
Activity
p1265
(dp1266
g8
g788
sg64
I1000
sg65
Nsg66
(iread_data
Room
p1267
(dp1268
g64
g337
sg70
g338
sbsg72
g73
sg74
I0
sg70
g371
sba(ischedule
Activity
p1269
(dp1270
g8
(lp1271
g42
ag33
ag44
ag56
ag45
ag19
ag34
ag51
ag53
ag21
ag57
ag31
ag46
ag54
ag23
ag40
ag37
ag55
ag38
ag60
ag48
ag62
ag27
ag25
ag16
ag28
ag50
ag41
ag52
asg64
g1226
sg65
(ischedule
Group
p1272
(dp1273
g8
g1271
sg70
S'Moderne Databases3'
p1274
sbsg66
(iread_data
Room
p1275
(dp1276
g64
g69
sg70
g71
sbsg72
g212
sg74
g339
sg70
g75
sba(ischedule
Activity
p1277
(dp1278
g8
(lp1279
g868
ag39
ag512
ag1041
ag566
aS'47982619'
p1280
ag29
ag670
ag839
ag219
ag247
aS'77264363'
p1281
ag218
ag343
ag565
ag35
ag1104
ag1103
ag795
ag110
ag99
aS'92496780'
p1282
ag282
ag793
aS'76487754'
p1283
ag515
ag634
ag59
ag98
ag96
aS'4697362'
p1284
ag1101
ag1061
ag24
ag182
ag285
ag36
ag1102
asg64
I1000
sg65
Nsg66
(iread_data
Room
p1285
(dp1286
g64
g234
sg70
g235
sbsg72
g73
sg74
I0
sg70
g1111
sba(ischedule
Activity
p1287
(dp1288
g8
g1153
sg64
g349
sg65
g1154
sg66
(iread_data
Room
p1289
(dp1290
g64
g210
sg70
g211
sbsg72
g212
sg74
g213
sg70
g355
sba(ischedule
Activity
p1291
(dp1292
g8
(lp1293
g331
ag245
ag376
ag192
ag329
ag961
ag585
ag674
ag962
ag963
ag811
ag960
ag769
asg64
g349
sg65
(ischedule
Group
p1294
(dp1295
g8
g1293
sg70
S'Data Mining1'
p1296
sbsg66
(iread_data
Room
p1297
(dp1298
g64
g268
sg70
g269
sbsg72
g212
sg74
g236
sg70
g355
sbaaa(lp1299
(lp1300
(ischedule
Activity
p1301
(dp1302
g8
g959
sg64
I1000
sg65
Nsg66
(iread_data
Room
p1303
(dp1304
g64
g337
sg70
g338
sbsg72
g73
sg74
I0
sg70
g355
sba(ischedule
Activity
p1305
(dp1306
g8
(lp1307
g245
ag774
ag772
ag1062
ag284
ag798
ag241
ag192
ag481
ag90
ag1060
ag472
ag158
ag605
ag470
ag178
ag806
ag487
ag246
ag44
ag329
ag1029
aS'5739011'
p1308
ag656
ag429
ag409
ag1059
ag1061
ag114
aS'35315956'
p1309
ag655
ag378
asg64
I1000
sg65
Nsg66
(iread_data
Room
p1310
(dp1311
g64
g234
sg70
g235
sbsg72
g73
sg74
I0
sg70
g1069
sba(ischedule
Activity
p1312
(dp1313
g8
g952
sg64
I1000
sg65
Nsg66
(iread_data
Room
p1314
(dp1315
g64
g161
sg70
g162
sbsg72
g73
sg74
I0
sg70
g883
sba(ischedule
Activity
p1316
(dp1317
g8
g933
sg64
g262
sg65
g934
sg66
(iread_data
Room
p1318
(dp1319
g64
g268
sg70
g269
sbsg72
g270
sg74
g236
sg70
g271
sba(ischedule
Activity
p1320
(dp1321
g8
(lp1322
g619
ag770
ag169
ag219
ag253
ag771
ag773
ag678
ag776
asg64
g850
sg65
(ischedule
Group
p1323
(dp1324
g8
g1322
sg70
S'Heuristieken 12'
p1325
sbsg66
(iread_data
Room
p1326
(dp1327
g64
g210
sg70
g211
sbsg72
g270
sg74
g213
sg70
g779
sba(ischedule
Activity
p1328
(dp1329
g8
(lp1330
g39
ag24
ag35
ag182
ag96
ag1281
ag1283
ag565
ag1041
ag512
ag98
ag795
ag634
ag59
ag1282
ag99
ag1280
ag285
ag1284
asg64
g1105
sg65
(ischedule
Group
p1331
(dp1332
g8
g1330
sg70
S'Technology for games2'
p1333
sbsg66
(iread_data
Room
p1334
(dp1335
g64
g69
sg70
g71
sbsg72
g270
sg74
g213
sg70
g1111
sbaa(lp1336
(ischedule
Activity
p1337
(dp1338
g8
(lp1339
g453
ag498
ag483
ag170
ag116
ag454
ag148
ag193
ag449
ag443
ag480
ag42
ag452
ag470
ag490
ag152
ag475
ag330
ag458
ag125
ag114
ag482
ag169
ag486
ag474
ag31
ag124
ag382
ag466
ag489
ag491
ag54
ag284
ag455
ag457
ag306
ag467
ag448
ag32
ag477
ag404
ag462
ag497
ag468
ag479
ag499
ag146
ag424
ag282
ag473
ag494
ag500
ag465
ag471
ag481
ag57
ag299
ag52
ag463
ag177
ag24
ag430
ag118
ag460
ag488
ag461
ag487
ag484
ag469
ag451
ag459
ag323
ag156
ag387
asg64
g1001
sg65
(ischedule
Group
p1340
(dp1341
g8
g1339
sg70
S'Calculus 21'
p1342
sbsg66
(iread_data
Room
p1343
(dp1344
g64
g161
sg70
g162
sbsg72
g270
sg74
g236
sg70
g503
sba(ischedule
Activity
p1345
(dp1346
g8
g1119
sg64
g1148
sg65
g1120
sg66
(iread_data
Room
p1347
(dp1348
g64
g337
sg70
g338
sbsg72
g270
sg74
g236
sg70
g640
sba(ischedule
Activity
p1349
(dp1350
g8
g1293
sg64
g1072
sg65
g1294
sg66
(iread_data
Room
p1351
(dp1352
g64
g69
sg70
g71
sbsg72
g270
sg74
g236
sg70
g355
sba(ischedule
Activity
p1353
(dp1354
g8
g1232
sg64
g365
sg65
g1234
sg66
(iread_data
Room
p1355
(dp1356
g64
g234
sg70
g235
sbsg72
g270
sg74
g339
sg70
g371
sba(ischedule
Activity
p1357
(dp1358
g8
g217
sg64
g1087
sg65
g229
sg66
(iread_data
Room
p1359
(dp1360
g64
g186
sg70
g187
sbsg72
g270
sg74
g236
sg70
g237
sba(ischedule
Activity
p1361
(dp1362
g8
g827
sg64
g1087
sg65
g830
sg66
(iread_data
Room
p1363
(dp1364
g64
g210
sg70
g211
sbsg72
g270
sg74
g339
sg70
g237
sba(ischedule
Activity
p1365
(dp1366
g8
(lp1367
g517
asg64
g432
sg65
(ischedule
Group
p1368
(dp1369
g8
g1367
sg70
S'Programmeren in Java 23'
p1370
sbsg66
(iread_data
Room
p1371
(dp1372
g64
g268
sg70
g269
sbsg72
g212
sg74
g339
sg70
g438
sbaa(lp1373
(ischedule
Activity
p1374
(dp1375
g8
g788
sg64
I1000
sg65
Nsg66
(iread_data
Room
p1376
(dp1377
g64
g161
sg70
g162
sbsg72
g73
sg74
I0
sg70
g371
sba(ischedule
Activity
p1378
(dp1379
g8
g1271
sg64
g553
sg65
g1272
sg66
(iread_data
Room
p1380
(dp1381
g64
g234
sg70
g235
sbsg72
g270
sg74
g339
sg70
g75
sba(ischedule
Activity
p1382
(dp1383
g8
g1279
sg64
I1000
sg65
Nsg66
(iread_data
Room
p1384
(dp1385
g64
g69
sg70
g71
sbsg72
g73
sg74
I0
sg70
g1111
sba(ischedule
Activity
p1386
(dp1387
g8
(lp1388
g169
ag152
ag157
ag244
ag483
ag593
aS'40911986'
p1389
aS'21070547'
p1390
ag1130
ag519
asg64
g204
sg65
(ischedule
Group
p1391
(dp1392
g8
g1388
sg70
S'Project Numerical Recipes3'
p1393
sbsg66
(iread_data
Room
p1394
(dp1395
g64
g210
sg70
g211
sbsg72
g212
sg74
g339
sg70
g214
sba(ischedule
Activity
p1396
(dp1397
g8
(lp1398
g299
ag540
ag249
ag809
ag806
ag172
ag812
ag805
ag300
ag138
ag199
asg64
g527
sg65
(ischedule
Group
p1399
(dp1400
g8
g1398
sg70
S'Reflectie op de digitale cultuur1'
p1401
sbsg66
(iread_data
Room
p1402
(dp1403
g64
g186
sg70
g187
sbsg72
g270
sg74
g236
sg70
g533
sba(ischedule
Activity
p1404
(dp1405
g8
(lp1406
g457
ag13
ag973
ag500
ag15
ag518
ag84
ag870
ag328
aS'75680261'
p1407
ag26
asg64
g543
sg65
(ischedule
Group
p1408
(dp1409
g8
g1406
sg70
S'Project Genetic Algorithms3'
p1410
sbsg66
(iread_data
Room
p1411
(dp1412
g64
g337
sg70
g338
sbsg72
g212
sg74
g339
sg70
g549
sba(ischedule
Activity
p1413
(dp1414
g8
(lp1415
g329
asg64
g393
sg65
(ischedule
Group
p1416
(dp1417
g8
g1415
sg70
S'Netwerken en systeembeveiliging1'
p1418
sbsg66
(iread_data
Room
p1419
(dp1420
g64
g268
sg70
g269
sbsg72
g212
sg74
g236
sg70
g400
sbaa(lp1421
(ischedule
Activity
p1422
(dp1423
g8
(lp1424
g242
ag873
ag1103
ag388
aS'55103073'
p1425
ag633
ag280
ag132
aS'64418623'
p1426
asg64
g974
sg65
(ischedule
Group
p1427
(dp1428
g8
g1424
sg70
S'Compilerbouw practicum1'
p1429
sbsg66
(iread_data
Room
p1430
(dp1431
g64
g161
sg70
g162
sbsg72
g212
sg74
g236
sg70
g980
sba(ischedule
Activity
p1432
(dp1433
g8
g1127
sg64
I1000
sg65
Nsg66
(iread_data
Room
p1434
(dp1435
g64
g268
sg70
g269
sbsg72
g73
sg74
I0
sg70
g1135
sba(ischedule
Activity
p1436
(dp1437
g8
(lp1438
g655
ag284
ag245
ag481
ag192
ag487
ag798
ag774
ag472
ag1309
ag772
ag178
ag1029
ag246
ag806
ag1308
ag90
ag378
ag409
ag114
asg64
g1063
sg65
(ischedule
Group
p1439
(dp1440
g8
g1438
sg70
S'Heuristieken 21'
p1441
sbsg66
(iread_data
Room
p1442
(dp1443
g64
g337
sg70
g338
sbsg72
g270
sg74
g236
sg70
g1069
sba(ischedule
Activity
p1444
(dp1445
g8
g358
sg64
g1233
sg65
g366
sg66
(iread_data
Room
p1446
(dp1447
g64
g186
sg70
g187
sbsg72
g212
sg74
g236
sg70
g371
sba(ischedule
Activity
p1448
(dp1449
g8
g895
sg64
g1233
sg65
g896
sg66
(iread_data
Room
p1450
(dp1451
g64
g210
sg70
g211
sbsg72
g212
sg74
g213
sg70
g371
sba(ischedule
Activity
p1452
(dp1453
g8
g946
sg64
I1000
sg65
Nsg66
(iread_data
Room
p1454
(dp1455
g64
g234
sg70
g235
sbsg72
g73
sg74
I0
sg70
g319
sbaa(lp1456
(ischedule
Activity
p1457
(dp1458
g8
g1257
sg64
I1000
sg65
Nsg66
(iread_data
Room
p1459
(dp1460
g64
g268
sg70
g269
sbsg72
g73
sg74
I0
sg70
g237
sba(ischedule
Activity
p1461
(dp1462
g8
g858
sg64
I1000
sg65
Nsg66
(iread_data
Room
p1463
(dp1464
g64
g161
sg70
g162
sbsg72
g73
sg74
I0
sg70
g626
sba(ischedule
Activity
p1465
(dp1466
g8
g322
sg64
g740
sg65
g332
sg66
(iread_data
Room
p1467
(dp1468
g64
g210
sg70
g211
sbsg72
g270
sg74
g339
sg70
g319
sba(ischedule
Activity
p1469
(dp1470
g8
g552
sg64
g1226
sg65
g554
sg66
(iread_data
Room
p1471
(dp1472
g64
g337
sg70
g338
sbsg72
g212
sg74
g213
sg70
g75
sba(ischedule
Activity
p1473
(dp1474
g8
g907
sg64
g740
sg65
g908
sg66
(iread_data
Room
p1475
(dp1476
g64
g186
sg70
g187
sbsg72
g270
sg74
g236
sg70
g319
sba(ischedule
Activity
p1477
(dp1478
g8
(lp1479
g707
ag125
aS'88263855'
p1480
ag86
ag1040
ag169
ag128
ag132
ag589
ag361
ag872
ag675
ag632
ag962
ag196
ag1280
ag376
ag630
ag723
ag106
ag874
ag1038
ag919
ag104
ag306
asg64
g432
sg65
(ischedule
Group
p1481
(dp1482
g8
g1479
sg70
S'Programmeren in Java 26'
p1483
sbsg66
(iread_data
Room
p1484
(dp1485
g64
g234
sg70
g235
sbsg72
g212
sg74
S'6'
p1486
sg70
g438
sba(ischedule
Activity
p1487
(dp1488
g8
g804
sg64
I1000
sg65
Nsg66
(iread_data
Room
p1489
(dp1490
g64
g69
sg70
g71
sbsg72
g73
sg74
I0
sg70
g533
sbaaa(lp1491
(lp1492
a(lp1493
a(lp1494
a(lp1495
a(lp1496
aasS'timeslot_dict'
p1497
(dp1498
I0
S'9:00-11:00'
p1499
sI1
S'11:00-13:00'
p1500
sI2
S'13:00-15:00'
p1501
sI3
S'15:00-17:00'
p1502
sI4
S'17:00-19:00'
p1503
ssS'day_dict'
p1504
(dp1505
I0
S'Monday'
p1506
sI1
S'Tuesday'
p1507
sI2
S'Wednesday'
p1508
sI3
S'Thursday'
p1509
sI4
S'Friday'
p1510
ssb.