(ischedule
Schedule
p0
(dp1
S'timetable'
p2
(lp3
(lp4
(lp5
(ischedule
Activity
p6
(dp7
S'participants'
p8
(lp9
S'40141996'
p10
aS'23257088'
p11
aS'34872117'
p12
aS'56872729'
p13
aS'29640619'
p14
aS'88752563'
p15
aS'15187217'
p16
aS'37701751'
p17
aS'43027916'
p18
aS'11996292'
p19
aS'96054456'
p20
aS'247918'
p21
aS'60352393'
p22
aS'26207525'
p23
aS'42196732'
p24
aS'91527663'
p25
aS'670011'
p26
aS'86988337'
p27
aS'5526560'
p28
aS'4529208'
p29
aS'72456780'
p30
aS'39459642'
p31
aS'59397895'
p32
aS'77960666'
p33
aS'17092717'
p34
aS'24277163'
p35
aS'5085194'
p36
aS'5517869'
p37
aS'86180471'
p38
aS'46989508'
p39
aS'75005528'
p40
aS'56191333'
p41
aS'3168419'
p42
aS'14816774'
p43
aS'57467488'
p44
aS'58083680'
p45
aS'58332004'
p46
aS'43902015'
p47
aS'51542218'
p48
aS'64947290'
p49
aS'49631542'
p50
aS'70072978'
p51
aS'76123484'
p52
aS'64296965'
p53
aS'52552718'
p54
aS'94686490'
p55
aS'13092455'
p56
aS'13132925'
p57
aS'73823548'
p58
aS'62736669'
p59
aS'17222374'
p60
aS'4921119'
p61
aS'26406342'
p62
aS'23658570'
p63
aS'47932106'
p64
aS'72796858'
p65
aS'25077484'
p66
aS'47477884'
p67
aS'82689818'
p68
aS'40434933'
p69
aS'27123462'
p70
aS'51566595'
p71
aS'58592894'
p72
aS'54540997'
p73
aS'12091019'
p74
aS'90474003'
p75
aS'78821918'
p76
aS'29526540'
p77
aS'83869542'
p78
aS'56121590'
p79
aS'77896638'
p80
aS'56749879'
p81
asS'capacity'
p82
I1000
sS'group'
p83
NsS'room'
p84
(iread_data
Room
p85
(dp86
g82
S'117'
p87
sS'name'
p88
S'C0.110'
p89
sbsS'ttype'
p90
S'lectures'
p91
sS'group_id'
p92
I0
sg88
S'Databases 2'
p93
sba(ischedule
Activity
p94
(dp95
g8
(lp96
S'5368702'
p97
aS'11915563'
p98
aS'76661016'
p99
aS'27187154'
p100
aS'10792879'
p101
aS'72895450'
p102
aS'34243356'
p103
aS'84524083'
p104
aS'92665222'
p105
aS'66701209'
p106
aS'88855695'
p107
aS'80135353'
p108
aS'79167252'
p109
aS'48503689'
p110
aS'2079771'
p111
asg82
S'40'
p112
sg83
(ischedule
Group
p113
(dp114
g8
g96
sg88
S'Compilerbouw2'
p115
sbsg84
(iread_data
Room
p116
(dp117
g82
S'22'
p118
sg88
S'A1.06'
p119
sbsg90
S'tutorials'
p120
sg92
S'2'
p121
sg88
S'Compilerbouw'
p122
sba(ischedule
Activity
p123
(dp124
g8
(lp125
g24
aS'4568018'
p126
aS'64600457'
p127
aS'66120270'
p128
aS'59544049'
p129
aS'21029457'
p130
aS'70878567'
p131
aS'54026378'
p132
aS'53202517'
p133
aS'85335143'
p134
aS'22731474'
p135
aS'79617364'
p136
ag77
aS'58522654'
p137
ag20
aS'20883994'
p138
aS'6723948'
p139
aS'96453361'
p140
aS'11068043'
p141
aS'22826928'
p142
aS'56815156'
p143
aS'81200278'
p144
aS'43680781'
p145
aS'28359697'
p146
aS'15051051'
p147
ag43
aS'30050930'
p148
aS'6913074'
p149
aS'24613625'
p150
aS'77831658'
p151
aS'14591033'
p152
aS'73236988'
p153
aS'33877725'
p154
aS'7308727'
p155
aS'33930505'
p156
aS'74131924'
p157
ag21
aS'88176729'
p158
ag81
aS'89985072'
p159
aS'21964491'
p160
aS'5298748'
p161
aS'44868097'
p162
ag42
aS'30195935'
p163
asg82
I1000
sg83
Nsg84
(iread_data
Room
p164
(dp165
g82
S'48'
p166
sg88
S'B0.201'
p167
sbsg90
g91
sg92
I0
sg88
S'Bioinformatica'
p168
sba(ischedule
Activity
p169
(dp170
g8
(lp171
S'81022997'
p172
aS'37110913'
p173
aS'13116738'
p174
asg82
S'10'
p175
sg83
(ischedule
Group
p176
(dp177
g8
g171
sg88
S'Data Mining1'
p178
sbsg84
(iread_data
Room
p179
(dp180
g82
S'20'
p181
sg88
S'A1.08'
p182
sbsg90
S'labs'
p183
sg92
S'1'
p184
sg88
S'Data Mining'
p185
sba(ischedule
Activity
p186
(dp187
g8
(lp188
S'75585647'
p189
aS'87602030'
p190
aS'15902055'
p191
ag67
aS'63634350'
p192
aS'83415514'
p193
aS'55530367'
p194
aS'86000192'
p195
aS'4546613'
p196
aS'38296757'
p197
aS'55412918'
p198
asg82
S'40'
p199
sg83
(ischedule
Group
p200
(dp201
g8
g188
sg88
S'Calculus 23'
p202
sbsg84
(iread_data
Room
p203
(dp204
g82
S'56'
p205
sg88
S'A1.10'
p206
sbsg90
g120
sg92
S'3'
p207
sg88
S'Calculus 2'
p208
sba(ischedule
Activity
p209
(dp210
g8
(lp211
S'41578612'
p212
aS'68315599'
p213
aS'44901052'
p214
aS'32204977'
p215
aS'75521763'
p216
aS'77636749'
p217
aS'12077419'
p218
aS'14309255'
p219
ag19
aS'48308205'
p220
aS'97371272'
p221
aS'75664412'
p222
aS'36785409'
p223
aS'7106649'
p224
aS'92496780'
p225
aS'12430748'
p226
aS'31194811'
p227
aS'58565406'
p228
aS'4697362'
p229
aS'70336464'
p230
aS'6249823'
p231
aS'22323043'
p232
aS'93041523'
p233
asg82
S'20'
p234
sg83
(ischedule
Group
p235
(dp236
g8
g211
sg88
S'Technology for games1'
p237
sbsg84
(iread_data
Room
p238
(dp239
g82
S'41'
p240
sg88
S'A1.04'
p241
sbsg90
g120
sg92
g184
sg88
S'Technology for games'
p242
sba(ischedule
Activity
p243
(dp244
g8
(lp245
g12
aS'72577292'
p246
ag69
aS'14138904'
p247
aS'13798030'
p248
aS'45556081'
p249
aS'59289233'
p250
ag68
aS'83266686'
p251
aS'27925117'
p252
aS'43460038'
p253
aS'29718115'
p254
aS'89180944'
p255
aS'28618400'
p256
aS'20331158'
p257
aS'10149535'
p258
aS'49683101'
p259
aS'58866007'
p260
aS'70015932'
p261
aS'23798155'
p262
aS'72683344'
p263
asg82
I1000
sg83
Nsg84
(iread_data
Room
p264
(dp265
g82
S'60'
p266
sg88
S'C1.112'
p267
sbsg90
g91
sg92
I0
sg88
S'Architectuur en computerorganisatie'
p268
sbaa(lp269
(ischedule
Activity
p270
(dp271
g8
(lp272
S'64228258'
p273
aS'9332762'
p274
ag62
aS'34773179'
p275
ag52
aS'57595888'
p276
aS'54310617'
p277
ag56
aS'61443567'
p278
aS'25106480'
p279
aS'42171678'
p280
aS'1075391'
p281
aS'1665980'
p282
ag53
ag35
ag68
ag191
ag18
aS'50143947'
p283
ag155
aS'96104167'
p284
aS'37770881'
p285
aS'50184318'
p286
ag249
ag216
aS'29474737'
p287
aS'35330349'
p288
ag37
aS'46052388'
p289
aS'62701040'
p290
ag80
aS'17575088'
p291
aS'42778953'
p292
aS'53107172'
p293
aS'65960683'
p294
ag60
ag195
aS'77240949'
p295
aS'87758823'
p296
aS'68601184'
p297
aS'23547619'
p298
ag24
ag14
ag246
aS'51741554'
p299
ag137
aS'86291592'
p300
aS'31416266'
p301
aS'22699561'
p302
aS'3233378'
p303
aS'33760909'
p304
ag160
aS'28357474'
p305
aS'4783858'
p306
aS'13534377'
p307
aS'1696500'
p308
aS'73980360'
p309
aS'97135019'
p310
aS'48601268'
p311
aS'60312776'
p312
aS'64393888'
p313
asg82
I1000
sg83
Nsg84
(iread_data
Room
p314
(dp315
g82
g87
sg88
g89
sbsg90
g91
sg92
I0
sg88
S'Collectieve Intelligentie'
p316
sba(ischedule
Activity
p317
(dp318
g8
(lp319
S'36508571'
p320
aS'70113753'
p321
aS'62872965'
p322
ag37
aS'19858730'
p323
ag214
aS'34806836'
p324
ag132
ag157
aS'61611295'
p325
aS'88627897'
p326
ag65
aS'16097870'
p327
aS'62356458'
p328
ag54
ag98
aS'68409833'
p329
ag71
aS'27298319'
p330
aS'22871048'
p331
ag173
ag31
asg82
I1000
sg83
Nsg84
(iread_data
Room
p332
(dp333
g82
S'48'
p334
sg88
S'B0.201'
p335
sbsg90
g91
sg92
I0
sg88
S'Autonomous Agents 2'
p336
sba(ischedule
Activity
p337
(dp338
g8
(lp339
S'66034145'
p340
aS'21677389'
p341
aS'37399898'
p342
aS'81385263'
p343
ag298
aS'64768422'
p344
aS'44828429'
p345
ag196
aS'69634191'
p346
aS'38179241'
p347
aS'3707829'
p348
ag97
aS'14847953'
p349
aS'19214659'
p350
aS'2550487'
p351
aS'81155296'
p352
aS'76924297'
p353
aS'28055464'
p354
ag99
aS'93566383'
p355
aS'20374340'
p356
ag17
aS'34765676'
p357
ag144
aS'65675896'
p358
asg82
I1000
sg83
Nsg84
(iread_data
Room
p359
(dp360
g82
S'41'
p361
sg88
S'A1.04'
p362
sbsg90
g91
sg92
I0
sg88
S'Interactie-ontwerp'
p363
sba(ischedule
Activity
p364
(dp365
g8
(lp366
S'67625383'
p367
ag111
aS'3685034'
p368
aS'5976174'
p369
aS'26857113'
p370
ag295
ag31
ag197
ag147
aS'37744525'
p371
aS'85236626'
p372
ag262
ag259
aS'94467156'
p373
aS'61518436'
p374
aS'40791377'
p375
ag100
aS'56988998'
p376
aS'33252501'
p377
aS'46701583'
p378
aS'90067329'
p379
aS'63111000'
p380
asg82
I1000
sg83
Nsg84
(iread_data
Room
p381
(dp382
g82
S'60'
p383
sg88
S'C1.112'
p384
sbsg90
g91
sg92
I0
sg88
S'Machine Learning'
p385
sba(ischedule
Activity
p386
(dp387
g8
(lp388
g213
ag131
aS'92977271'
p389
ag174
aS'18266644'
p390
ag11
ag215
aS'13658563'
p391
aS'19958553'
p392
aS'11459236'
p393
ag254
aS'8557857'
p394
ag189
aS'17496687'
p395
asg82
S'15'
p396
sg83
(ischedule
Group
p397
(dp398
g8
g388
sg88
S'Informatie- en organisatieontwerp1'
p399
sbsg84
(iread_data
Room
p400
(dp401
g82
S'20'
p402
sg88
S'A1.08'
p403
sbsg90
g183
sg92
g184
sg88
S'Informatie- en organisatieontwerp'
p404
sbaa(lp405
(ischedule
Activity
p406
(dp407
g8
g272
sg82
I1000
sg83
Nsg84
(iread_data
Room
p408
(dp409
g82
g87
sg88
g89
sbsg90
g91
sg92
I0
sg88
g316
sba(ischedule
Activity
p410
(dp411
g8
(lp412
g219
ag233
ag229
ag228
ag134
aS'14383795'
p413
aS'69086548'
p414
ag220
ag222
ag215
aS'76487754'
p415
ag218
aS'89338938'
p416
ag145
ag173
ag217
ag230
ag227
ag221
ag69
ag298
ag212
ag19
ag225
ag223
ag213
aS'21192048'
p417
aS'47982619'
p418
ag231
aS'77264363'
p419
ag226
ag224
ag274
ag62
ag258
ag232
ag216
ag214
asg82
I1000
sg83
Nsg84
(iread_data
Room
p420
(dp421
g82
g334
sg88
g335
sbsg90
g91
sg92
I0
sg88
g242
sba(ischedule
Activity
p422
(dp423
g8
(lp424
g139
aS'41153310'
p425
aS'33776961'
p426
ag380
aS'28943658'
p427
aS'97019450'
p428
aS'54772132'
p429
aS'9731271'
p430
ag342
aS'88597745'
p431
aS'90296821'
p432
asg82
S'20'
p433
sg83
(ischedule
Group
p434
(dp435
g8
g424
sg88
S'Programmeren in Java 25'
p436
sbsg84
(iread_data
Room
p437
(dp438
g82
g361
sg88
g362
sbsg90
g183
sg92
S'5'
p439
sg88
S'Programmeren in Java 2'
p440
sbaa(lp441
(ischedule
Activity
p442
(dp443
g8
(lp444
S'96554914'
p445
aS'20239127'
p446
aS'82390428'
p447
ag391
ag142
ag33
aS'27805666'
p448
ag27
ag368
ag173
aS'70193386'
p449
ag212
ag22
aS'84449005'
p450
ag75
ag374
aS'36213792'
p451
aS'52715680'
p452
aS'60661905'
p453
ag342
ag197
ag161
aS'13718298'
p454
ag149
aS'20095994'
p455
ag56
ag104
ag223
ag426
ag145
aS'51052738'
p456
aS'77392404'
p457
aS'49922855'
p458
aS'92778619'
p459
aS'27950803'
p460
aS'59753700'
p461
aS'99975346'
p462
aS'27370083'
p463
ag35
ag331
aS'87830198'
p464
aS'42406214'
p465
aS'68286356'
p466
aS'78136904'
p467
aS'99453514'
p468
aS'57086672'
p469
aS'51415617'
p470
aS'32044893'
p471
aS'4709948'
p472
aS'54569540'
p473
aS'70844780'
p474
asg82
I1000
sg83
Nsg84
(iread_data
Room
p475
(dp476
g82
g266
sg88
g267
sbsg90
g91
sg92
I0
sg88
S'Reflectie op de digitale cultuur'
p477
sba(ischedule
Activity
p478
(dp479
g8
(lp480
g65
ag98
ag71
ag31
ag327
ag326
ag322
ag320
asg82
S'10'
p481
sg83
(ischedule
Group
p482
(dp483
g8
g480
sg88
S'Autonomous Agents 23'
p484
sbsg84
(iread_data
Room
p485
(dp486
g82
g402
sg88
g403
sbsg90
g120
sg92
g207
sg88
g336
sba(ischedule
Activity
p487
(dp488
g8
g245
sg82
I1000
sg83
Nsg84
(iread_data
Room
p489
(dp490
g82
S'22'
p491
sg88
S'A1.06'
p492
sbsg90
g91
sg92
I0
sg88
g268
sba(ischedule
Activity
p493
(dp494
g8
(lp495
g274
ag80
ag67
aS'55474917'
p496
ag370
aS'94687383'
p497
aS'44671041'
p498
aS'10698627'
p499
aS'94955328'
p500
ag372
ag192
aS'7492204'
p501
aS'51791169'
p502
aS'51593625'
p503
aS'36903574'
p504
aS'45414528'
p505
ag61
aS'53585410'
p506
aS'38499176'
p507
aS'54395877'
p508
aS'99272880'
p509
ag127
aS'66433883'
p510
ag191
aS'23391676'
p511
ag389
aS'10702778'
p512
ag321
ag371
aS'88263855'
p513
aS'2416751'
p514
aS'23215240'
p515
ag195
ag108
aS'58469172'
p516
ag300
aS'79879876'
p517
asg82
g433
sg83
(ischedule
Group
p518
(dp519
g8
g495
sg88
S'Programmeren in Java 24'
p520
sbsg84
(iread_data
Room
p521
(dp522
g82
S'56'
p523
sg88
S'A1.10'
p524
sbsg90
g183
sg92
S'4'
p525
sg88
g440
sba(ischedule
Activity
p526
(dp527
g8
(lp528
g144
ag137
ag131
ag160
ag133
ag20
ag154
ag158
ag135
ag139
ag155
ag43
ag163
ag24
ag136
ag159
ag146
ag162
ag152
ag130
ag150
ag143
ag21
ag42
ag141
ag128
asg82
S'20'
p529
sg83
(ischedule
Group
p530
(dp531
g8
g528
sg88
S'Bioinformatica1'
p532
sbsg84
(iread_data
Room
p533
(dp534
g82
g334
sg88
g335
sbsg90
g120
sg92
g184
sg88
g168
sba(ischedule
Activity
p535
(dp536
g8
(lp537
g216
ag312
ag283
ag60
ag278
ag291
ag286
ag306
ag62
ag52
ag303
ag273
ag280
ag298
ag275
ag308
asg82
S'20'
p538
sg83
(ischedule
Group
p539
(dp540
g8
g537
sg88
S'Collectieve Intelligentie1'
p541
sbsg84
(iread_data
Room
p542
(dp543
g82
S'117'
p544
sg88
S'C0.110'
p545
sbsg90
g120
sg92
g184
sg88
g316
sba(ischedule
Activity
p546
(dp547
g8
(lp548
g329
asg82
g481
sg83
(ischedule
Group
p549
(dp550
g8
g548
sg88
S'Autonomous Agents 22'
p551
sbsg84
(iread_data
Room
p552
(dp553
g82
g361
sg88
g362
sbsg90
g120
sg92
g121
sg88
g336
sbaa(lp554
(ischedule
Activity
p555
(dp556
g8
(lp557
g371
ag153
ag283
aS'52311353'
p558
ag196
ag416
ag312
aS'95631564'
p559
ag141
aS'75599734'
p560
ag279
ag460
ag232
ag253
aS'31103066'
p561
ag154
aS'14072826'
p562
aS'37830626'
p563
aS'9287708'
p564
aS'31633723'
p565
ag303
aS'3727435'
p566
ag496
aS'48357272'
p567
ag498
ag129
aS'27582862'
p568
aS'14671406'
p569
ag162
asg82
S'40'
p570
sg83
(ischedule
Group
p571
(dp572
g8
g557
sg88
S'Software engineering1'
p573
sbsg84
(iread_data
Room
p574
(dp575
g82
g266
sg88
g267
sbsg90
g120
sg92
g184
sg88
S'Software engineering'
p576
sba(ischedule
Activity
p577
(dp578
g8
(lp579
g44
ag504
ag378
ag160
ag218
ag140
ag369
ag357
ag506
aS'67817269'
p580
ag191
ag282
aS'23652927'
p581
aS'26260141'
p582
aS'23983476'
p583
ag68
ag569
aS'41527759'
p584
aS'40343779'
p585
ag452
ag49
aS'51509565'
p586
aS'64554442'
p587
ag343
aS'8522855'
p588
ag25
aS'41585485'
p589
ag345
ag27
ag72
aS'3474870'
p590
asg82
S'25'
p591
sg83
(ischedule
Group
p592
(dp593
g8
g579
sg88
S'Algoritmen en complexiteit2'
p594
sbsg84
(iread_data
Room
p595
(dp596
g82
g361
sg88
g362
sbsg90
g183
sg92
g121
sg88
S'Algoritmen en complexiteit'
p597
sba(ischedule
Activity
p598
(dp599
g8
(lp600
S'39429093'
p601
ag138
ag298
ag256
aS'72665524'
p602
ag22
aS'1886996'
p603
asg82
S'10'
p604
sg83
(ischedule
Group
p605
(dp606
g8
g600
sg88
S'Advanced Heuristics2'
p607
sbsg84
(iread_data
Room
p608
(dp609
g82
g491
sg88
g492
sbsg90
g183
sg92
g121
sg88
S'Advanced Heuristics'
p610
sba(ischedule
Activity
p611
(dp612
g8
(lp613
S'36527838'
p614
aS'48198668'
p615
aS'13218321'
p616
ag147
ag251
aS'78443067'
p617
aS'77376714'
p618
aS'1181560'
p619
ag145
aS'27241113'
p620
aS'1766560'
p621
ag72
ag77
ag286
aS'58699305'
p622
aS'46570285'
p623
ag193
ag60
ag46
ag380
ag219
ag472
ag213
ag50
ag76
aS'51650744'
p624
aS'30658799'
p625
ag280
ag37
aS'11741347'
p626
aS'59111489'
p627
aS'96082155'
p628
ag450
ag51
ag35
aS'47462856'
p629
ag127
aS'99283252'
p630
ag426
ag19
aS'27916487'
p631
aS'78243495'
p632
aS'36748818'
p633
aS'66621166'
p634
aS'78544592'
p635
ag216
aS'13911001'
p636
aS'3883025'
p637
aS'75997788'
p638
ag134
aS'49219163'
p639
ag255
aS'41489515'
p640
aS'18144425'
p641
asg82
I1000
sg83
Nsg84
(iread_data
Room
p642
(dp643
g82
g544
sg88
g545
sbsg90
g91
sg92
I0
sg88
S'Moderne Databases'
p644
sba(ischedule
Activity
p645
(dp646
g8
g319
sg82
I1000
sg83
Nsg84
(iread_data
Room
p647
(dp648
g82
g523
sg88
g524
sbsg90
g91
sg92
I0
sg88
g336
sba(ischedule
Activity
p649
(dp650
g8
(lp651
S'62613937'
p652
aS'86807027'
p653
aS'40633534'
p654
ag246
ag638
ag42
ag474
ag67
ag467
ag349
ag105
aS'27064249'
p655
ag263
asg82
g604
sg83
(ischedule
Group
p656
(dp657
g8
g651
sg88
S'Advanced Heuristics1'
p658
sbsg84
(iread_data
Room
p659
(dp660
g82
g334
sg88
g335
sbsg90
g183
sg92
g184
sg88
g610
sba(ischedule
Activity
p661
(dp662
g8
(lp663
g43
aS'31897288'
p664
aS'53775014'
p665
aS'83443653'
p666
asg82
S'25'
p667
sg83
(ischedule
Group
p668
(dp669
g8
g663
sg88
S'Heuristieken 12'
p670
sbsg84
(iread_data
Room
p671
(dp672
g82
g402
sg88
g403
sbsg90
g120
sg92
g121
sg88
S'Heuristieken 1'
p673
sbaaa(lp674
(lp675
(ischedule
Activity
p676
(dp677
g8
(lp678
g590
ag27
ag357
ag569
ag348
ag330
ag71
ag510
ag218
ag283
ag140
ag580
ag589
aS'19540225'
p679
ag102
ag582
ag506
ag588
ag378
aS'21095566'
p680
ag584
ag44
ag586
ag191
ag369
ag618
ag467
ag47
ag282
aS'88596522'
p681
ag585
ag452
ag160
ag581
ag587
ag343
ag68
ag583
ag72
ag49
ag504
ag345
ag25
asg82
I1000
sg83
Nsg84
(iread_data
Room
p682
(dp683
g82
g266
sg88
g267
sbsg90
g91
sg92
I0
sg88
g597
sba(ischedule
Activity
p684
(dp685
g8
(lp686
g252
ag58
aS'5615125'
p687
ag638
aS'62105897'
p688
aS'72526473'
p689
ag74
ag107
ag20
aS'14303208'
p690
ag100
ag99
aS'45915482'
p691
aS'75623387'
p692
ag127
aS'14179347'
p693
aS'32705005'
p694
aS'58040377'
p695
aS'65408517'
p696
ag38
ag655
ag653
ag64
aS'75446434'
p697
aS'61520025'
p698
ag162
ag306
aS'6939933'
p699
ag15
aS'33672995'
p700
ag327
aS'58253841'
p701
aS'11593163'
p702
aS'31306819'
p703
ag516
ag273
ag251
aS'56348773'
p704
ag304
aS'70939718'
p705
ag635
ag347
ag101
ag602
aS'34173695'
p706
aS'53139134'
p707
aS'23565001'
p708
aS'93361408'
p709
ag430
aS'79888156'
p710
aS'22168693'
p711
ag299
aS'23628642'
p712
aS'10609762'
p713
asg82
g199
sg83
(ischedule
Group
p714
(dp715
g8
g686
sg88
S'Calculus 21'
p716
sbsg84
(iread_data
Room
p717
(dp718
g82
g87
sg88
g89
sbsg90
g120
sg92
g184
sg88
g208
sba(ischedule
Activity
p719
(dp720
g8
(lp721
g213
ag394
ag131
ag46
ag174
ag216
ag214
ag395
ag389
ag11
ag391
ag217
ag583
ag393
ag254
ag189
ag215
ag392
ag390
ag633
ag290
asg82
I1000
sg83
Nsg84
(iread_data
Room
p722
(dp723
g82
g240
sg88
g241
sbsg90
g91
sg92
I0
sg88
g404
sba(ischedule
Activity
p724
(dp725
g8
(lp726
g630
ag255
ag37
ag219
ag632
ag617
ag286
ag50
ag623
ag618
ag77
ag625
ag629
ag616
ag614
ag426
ag634
ag641
ag628
ag626
asg82
S'20'
p727
sg83
(ischedule
Group
p728
(dp729
g8
g726
sg88
S'Moderne Databases2'
p730
sbsg84
(iread_data
Room
p731
(dp732
g82
g118
sg88
g119
sbsg90
g183
sg92
g121
sg88
g644
sba(ischedule
Activity
p733
(dp734
g8
(lp735
g258
ag69
ag134
ag145
ag413
ag62
ag419
ag173
ag417
ag416
ag298
ag415
ag414
ag274
ag418
asg82
g234
sg83
(ischedule
Group
p736
(dp737
g8
g735
sg88
S'Technology for games2'
p738
sbsg84
(iread_data
Room
p739
(dp740
g82
g181
sg88
g182
sbsg90
g120
sg92
g121
sg88
g242
sba(ischedule
Activity
p741
(dp742
g8
(lp743
g212
ag35
ag451
ag445
ag197
ag161
ag448
ag149
ag453
ag449
ag472
ag454
ag473
ag470
ag104
ag474
ag56
ag342
ag142
ag469
ag391
ag471
ag331
ag446
ag464
ag461
ag465
ag466
ag460
ag75
ag457
ag33
ag455
asg82
S'20'
p744
sg83
(ischedule
Group
p745
(dp746
g8
g743
sg88
S'Reflectie op de digitale cultuur1'
p747
sbsg84
(iread_data
Room
p748
(dp749
g82
g205
sg88
g206
sbsg90
g120
sg92
g184
sg88
g477
sba(ischedule
Activity
p750
(dp751
g8
(lp752
g157
ag371
aS'91196968'
p753
aS'93023961'
p754
aS'17823206'
p755
ag505
aS'87314964'
p756
asg82
g175
sg83
(ischedule
Group
p757
(dp758
g8
g752
sg88
S'Data Mining3'
p759
sbsg84
(iread_data
Room
p760
(dp761
g82
g334
sg88
g335
sbsg90
g183
sg92
g207
sg88
g185
sbaa(lp762
(ischedule
Activity
p763
(dp764
g8
(lp765
g190
ag78
ag252
ag104
aS'15249775'
p766
ag71
ag172
aS'5739011'
p767
ag144
ag224
ag369
ag664
ag469
aS'35315956'
p768
ag18
ag192
ag372
ag695
ag26
ag632
aS'82968410'
p769
ag135
ag278
aS'72652638'
p770
aS'52304977'
p771
aS'58736785'
p772
ag327
ag462
ag304
ag603
aS'48678993'
p773
ag357
asg82
I1000
sg83
Nsg84
(iread_data
Room
p774
(dp775
g82
g334
sg88
g335
sbsg90
g91
sg92
I0
sg88
S'Heuristieken 2'
p776
sba(ischedule
Activity
p777
(dp778
g8
(lp779
g134
ag258
ag72
ag582
ag330
ag352
ag622
ag310
ag63
ag152
ag139
ag506
aS'78735049'
p780
ag149
aS'59220392'
p781
aS'65978354'
p782
aS'77306636'
p783
ag55
aS'37279234'
p784
aS'80188025'
p785
aS'62363761'
p786
ag130
ag623
ag617
aS'74182182'
p787
ag378
aS'87900893'
p788
aS'19717077'
p789
ag136
aS'28957789'
p790
aS'56544130'
p791
ag109
ag13
aS'73302736'
p792
ag567
aS'24875739'
p793
aS'6709529'
p794
aS'3678531'
p795
ag10
ag43
aS'82412626'
p796
asg82
g199
sg83
(ischedule
Group
p797
(dp798
g8
g779
sg88
S'Calculus 22'
p799
sbsg84
(iread_data
Room
p800
(dp801
g82
g383
sg88
g384
sbsg90
g120
sg92
g121
sg88
g208
sba(ischedule
Activity
p802
(dp803
g8
(lp804
g151
aS'7957843'
p805
ag155
ag102
aS'21070547'
p806
ag15
aS'13996448'
p807
aS'84110134'
p808
ag110
ag328
aS'34691309'
p809
aS'90103047'
p810
aS'14941752'
p811
aS'37419523'
p812
ag351
aS'32183908'
p813
aS'19662602'
p814
ag58
ag56
ag699
ag787
asg82
S'15'
p815
sg83
(ischedule
Group
p816
(dp817
g8
g804
sg88
S'Project Numerical Recipes1'
p818
sbsg84
(iread_data
Room
p819
(dp820
g82
g544
sg88
g545
sbsg90
g183
sg92
g184
sg88
S'Project Numerical Recipes'
p821
sba(ischedule
Activity
p822
(dp823
g8
(lp824
g216
ag290
ag633
ag214
ag46
ag217
ag583
asg82
g396
sg83
(ischedule
Group
p825
(dp826
g8
g824
sg88
S'Informatie- en organisatieontwerp2'
p827
sbsg84
(iread_data
Room
p828
(dp829
g82
g402
sg88
g403
sbsg90
g183
sg92
g121
sg88
g404
sba(ischedule
Activity
p830
(dp831
g8
(lp832
g22
ag42
ag349
ag105
ag474
ag601
ag246
ag263
ag256
ag467
ag603
ag654
ag652
ag638
ag67
ag138
ag298
ag602
ag655
ag653
asg82
I1000
sg83
Nsg84
(iread_data
Room
p833
(dp834
g82
g523
sg88
g524
sbsg90
g91
sg92
I0
sg88
g610
sba(ischedule
Activity
p835
(dp836
g8
(lp837
g297
ag51
aS'85284256'
p838
aS'20830477'
p839
ag459
asg82
g433
sg83
(ischedule
Group
p840
(dp841
g8
g837
sg88
S'Programmeren in Java 22'
p842
sbsg84
(iread_data
Room
p843
(dp844
g82
g361
sg88
g362
sbsg90
g183
sg92
g121
sg88
g440
sba(ischedule
Activity
p845
(dp846
g8
(lp847
S'82066165'
p848
aS'74361881'
p849
aS'42297781'
p850
ag276
aS'535689'
p851
asg82
S'15'
p852
sg83
(ischedule
Group
p853
(dp854
g8
g847
sg88
S'Compilerbouw practicum3'
p855
sbsg84
(iread_data
Room
p856
(dp857
g82
g491
sg88
g492
sbsg90
g183
sg92
g207
sg88
S'Compilerbouw practicum'
p858
sbaa(lp859
(ischedule
Activity
p860
(dp861
g8
(lp862
g449
aS'82854435'
p863
ag558
ag53
ag48
aS'42115591'
p864
ag792
aS'34900967'
p865
ag327
aS'5595824'
p866
ag469
ag212
aS'14637758'
p867
ag500
ag453
ag76
ag63
ag666
ag708
ag331
ag773
ag390
ag454
aS'18477924'
p868
aS'73350019'
p869
ag223
ag61
ag30
ag638
ag428
ag103
ag36
ag464
aS'88737765'
p870
aS'97838175'
p871
aS'58480929'
p872
ag143
ag791
ag567
ag151
ag700
aS'78822885'
p873
aS'65318664'
p874
ag652
aS'72586808'
p875
ag785
ag262
ag134
ag18
asg82
I1000
sg83
Nsg84
(iread_data
Room
p876
(dp877
g82
g383
sg88
g384
sbsg90
g91
sg92
I0
sg88
S'Analysemethoden en -technieken'
p878
sba(ischedule
Activity
p879
(dp880
g8
g579
sg82
S'25'
p881
sg83
g592
sg84
(iread_data
Room
p882
(dp883
g82
g544
sg88
g545
sbsg90
g120
sg92
g121
sg88
g597
sba(ischedule
Activity
p884
(dp885
g8
g125
sg82
I1000
sg83
Nsg84
(iread_data
Room
p886
(dp887
g82
g334
sg88
g335
sbsg90
g91
sg92
I0
sg88
g168
sba(ischedule
Activity
p888
(dp889
g8
(lp890
g14
ag31
aS'22288615'
p891
ag472
aS'39905995'
p892
aS'2317551'
p893
ag26
ag290
ag33
ag753
aS'44391517'
p894
aS'73196865'
p895
ag568
ag688
ag755
ag109
ag355
aS'7386961'
p896
asg82
g433
sg83
(ischedule
Group
p897
(dp898
g8
g890
sg88
S'Programmeren in Java 26'
p899
sbsg84
(iread_data
Room
p900
(dp901
g82
g402
sg88
g403
sbsg90
g183
sg92
S'6'
p902
sg88
g440
sba(ischedule
Activity
p903
(dp904
g8
(lp905
g71
ag330
ag283
ag467
ag618
ag681
ag47
ag680
ag510
ag679
ag102
ag348
asg82
g591
sg83
(ischedule
Group
p906
(dp907
g8
g905
sg88
S'Algoritmen en complexiteit1'
p908
sbsg84
(iread_data
Room
p909
(dp910
g82
g361
sg88
g362
sbsg90
g183
sg92
g184
sg88
g597
sba(ischedule
Activity
p911
(dp912
g8
(lp913
g602
ag705
aS'25557516'
p914
ag429
ag23
asg82
S'20'
p915
sg83
(ischedule
Group
p916
(dp917
g8
g913
sg88
S'Netwerken en systeembeveiliging3'
p918
sbsg84
(iread_data
Room
p919
(dp920
g82
g491
sg88
g492
sbsg90
g183
sg92
g207
sg88
S'Netwerken en systeembeveiliging'
p921
sba(ischedule
Activity
p922
(dp923
g8
(lp924
S'41644639'
p925
asg82
S'15'
p926
sg83
(ischedule
Group
p927
(dp928
g8
g924
sg88
S'Zoeken sturen en bewegen3'
p929
sbsg84
(iread_data
Room
p930
(dp931
g82
g523
sg88
g524
sbsg90
g183
sg92
g207
sg88
S'Zoeken sturen en bewegen'
p932
sbaa(lp933
(ischedule
Activity
p934
(dp935
g8
(lp936
g692
ag20
ag789
ag696
ag258
ag623
ag506
ag706
ag793
ag127
ag194
ag74
ag708
ag688
ag638
ag310
ag10
ag152
ag788
ag197
ag430
ag781
ag327
ag196
ag796
ag100
ag694
ag710
ag791
ag782
ag707
ag306
ag198
ag251
ag794
ag193
ag347
ag63
ag695
ag691
ag516
ag273
ag622
ag709
ag58
ag15
ag13
ag786
ag109
ag635
ag162
ag378
ag352
ag697
ag136
ag191
ag655
ag712
ag701
ag702
ag582
ag790
ag693
ag792
ag785
ag43
ag690
ag617
ag192
ag149
ag64
ag99
ag713
ag38
ag689
ag72
ag190
ag705
ag134
ag700
ag703
ag602
ag567
ag783
ag130
ag687
ag252
ag653
ag787
ag699
ag101
ag55
ag698
ag189
ag139
ag299
ag704
ag784
ag795
ag304
ag330
ag67
ag195
ag780
ag711
ag107
asg82
I1000
sg83
Nsg84
(iread_data
Room
p937
(dp938
g82
g87
sg88
g89
sbsg90
g91
sg92
I0
sg88
g208
sba(ischedule
Activity
p939
(dp940
g8
(lp941
g11
ag65
ag31
ag46
ag12
ag80
ag68
ag27
ag35
ag39
ag29
ag36
ag69
ag17
ag59
ag26
ag49
asg82
S'40'
p942
sg83
(ischedule
Group
p943
(dp944
g8
g941
sg88
S'Databases 22'
p945
sbsg84
(iread_data
Room
p946
(dp947
g82
g491
sg88
g492
sbsg90
g120
sg92
g121
sg88
g93
sba(ischedule
Activity
p948
(dp949
g8
(lp950
g137
ag160
ag37
ag288
ag24
ag56
ag301
ag14
ag249
ag53
ag292
ag304
ag295
ag282
ag287
ag277
ag281
ag276
ag302
asg82
g538
sg83
(ischedule
Group
p951
(dp952
g8
g950
sg88
S'Collectieve Intelligentie2'
p953
sbsg84
(iread_data
Room
p954
(dp955
g82
g402
sg88
g403
sbsg90
g120
sg92
g121
sg88
g316
sba(ischedule
Activity
p956
(dp957
g8
(lp958
g371
ag22
ag163
ag637
ag472
aS'123355'
p959
ag44
ag308
aS'14398123'
p960
ag773
aS'12170832'
p961
ag41
ag474
ag256
aS'31247305'
p962
aS'16912993'
p963
ag805
asg82
g915
sg83
(ischedule
Group
p964
(dp965
g8
g958
sg88
S'Netwerken en systeembeveiliging1'
p966
sbsg84
(iread_data
Room
p967
(dp968
g82
g361
sg88
g362
sbsg90
g183
sg92
g184
sg88
g921
sba(ischedule
Activity
p969
(dp970
g8
(lp971
g460
aS'25994016'
p972
aS'55480737'
p973
ag329
ag76
aS'69459473'
p974
ag212
ag849
ag925
ag28
ag450
ag870
ag275
ag630
asg82
S'15'
p975
sg83
(ischedule
Group
p976
(dp977
g8
g971
sg88
S'Project Genetic Algorithms3'
p978
sbsg84
(iread_data
Room
p979
(dp980
g82
g383
sg88
g384
sbsg90
g183
sg92
g207
sg88
S'Project Genetic Algorithms'
p981
sba(ischedule
Activity
p982
(dp983
g8
(lp984
g81
ag126
ag129
ag145
ag132
ag147
ag151
ag138
ag142
ag161
ag157
ag140
ag153
asg82
g529
sg83
(ischedule
Group
p985
(dp986
g8
g984
sg88
S'Bioinformatica2'
p987
sbsg84
(iread_data
Room
p988
(dp989
g82
g334
sg88
g335
sbsg90
g120
sg92
g121
sg88
g168
sbaa(lp990
(ischedule
Activity
p991
(dp992
g8
g824
sg82
S'15'
p993
sg83
g825
sg84
(iread_data
Room
p994
(dp995
g82
g181
sg88
g182
sbsg90
g120
sg92
g121
sg88
g404
sba(ischedule
Activity
p996
(dp997
g8
g339
sg82
I1000
sg83
Nsg84
(iread_data
Room
p998
(dp999
g82
g166
sg88
g167
sbsg90
g91
sg92
I0
sg88
g363
sba(ischedule
Activity
p1000
(dp1001
g8
(lp1002
g132
ag630
ag632
ag617
ag328
ag255
ag331
ag219
ag369
ag329
ag584
ag54
aS'82872148'
p1003
ag585
ag618
ag691
ag14
ag373
ag98
ag680
ag582
ag962
ag306
aS'1048485'
p1004
ag261
ag864
ag688
ag158
aS'80709893'
p1005
ag808
ag159
ag126
ag503
ag874
ag305
aS'61060652'
p1006
ag696
ag454
ag311
ag452
aS'83210352'
p1007
ag425
ag445
ag228
aS'58074656'
p1008
ag792
asg82
S'40'
p1009
sg83
(ischedule
Group
p1010
(dp1011
g8
g1002
sg88
S'Software engineering2'
p1012
sbsg84
(iread_data
Room
p1013
(dp1014
g82
g266
sg88
g267
sbsg90
g183
sg92
g121
sg88
g576
sba(ischedule
Activity
p1015
(dp1016
g8
(lp1017
g273
ag246
ag590
ag52
ag278
ag687
aS'39230359'
p1018
ag102
aS'16333449'
p1019
aS'20618153'
p1020
aS'28358060'
p1021
ag499
ag231
aS'41790793'
p1022
aS'67073567'
p1023
aS'94930277'
p1024
ag34
aS'76903244'
p1025
ag133
aS'49908313'
p1026
aS'76648468'
p1027
ag655
ag891
ag690
ag47
asg82
S'20'
p1028
sg83
(ischedule
Group
p1029
(dp1030
g8
g1017
sg88
S'Webprogrammeren en databases1'
p1031
sbsg84
(iread_data
Room
p1032
(dp1033
g82
g240
sg88
g241
sbsg90
g120
sg92
g184
sg88
S'Webprogrammeren en databases'
p1034
sba(ischedule
Activity
p1035
(dp1036
g8
(lp1037
g80
ag139
ag15
ag65
ag137
ag39
ag150
ag153
ag312
ag292
ag220
ag27
ag213
ag251
ag300
ag218
ag285
ag294
ag12
ag219
ag560
ag894
aS'98105190'
p1038
ag621
aS'65852230'
p1039
ag497
ag31
ag866
ag559
aS'8464817'
p1040
aS'75759231'
p1041
ag343
aS'76802764'
p1042
ag222
ag375
ag133
ag625
ag805
ag259
aS'88636924'
p1043
ag429
ag227
aS'15911353'
p1044
ag636
aS'13284244'
p1045
aS'79033175'
p1046
ag460
aS'34110913'
p1047
ag893
aS'9067939'
p1048
aS'3407554'
p1049
aS'95007221'
p1050
ag626
aS'43689934'
p1051
asg82
S'40'
p1052
sg83
(ischedule
Group
p1053
(dp1054
g8
g1037
sg88
S'Compilerbouw1'
p1055
sbsg84
(iread_data
Room
p1056
(dp1057
g82
g87
sg88
g89
sbsg90
g183
sg92
g184
sg88
g122
sba(ischedule
Activity
p1058
(dp1059
g8
(lp1060
g149
ag127
ag148
ag134
ag77
ag156
asg82
S'20'
p1061
sg83
(ischedule
Group
p1062
(dp1063
g8
g1060
sg88
S'Bioinformatica3'
p1064
sbsg84
(iread_data
Room
p1065
(dp1066
g82
g118
sg88
g119
sbsg90
g183
sg92
g207
sg88
g168
sba(ischedule
Activity
p1067
(dp1068
g8
(lp1069
S'68360259'
p1070
aS'97136582'
p1071
ag756
ag232
ag283
ag755
ag371
ag558
aS'25330192'
p1072
aS'66122625'
p1073
ag157
ag807
ag788
aS'98780382'
p1074
ag173
ag131
ag160
ag144
ag753
ag468
ag172
ag754
ag461
ag505
aS'19337738'
p1075
ag174
ag71
asg82
I1000
sg83
Nsg84
(iread_data
Room
p1076
(dp1077
g82
g205
sg88
g206
sbsg90
g91
sg92
I0
sg88
g185
sbaaa(lp1078
(lp1079
(ischedule
Activity
p1080
(dp1081
g8
(lp1082
g104
ag390
ag430
ag192
aS'47605891'
p1083
ag960
ag428
ag584
ag790
ag416
aS'44940353'
p1084
ag516
ag152
ag137
aS'37498675'
p1085
aS'63955238'
p1086
ag589
ag138
ag257
ag808
ag629
ag467
ag53
ag81
ag135
ag787
ag217
ag588
ag1018
aS'72547110'
p1087
ag262
aS'79858178'
p1088
ag221
aS'39919665'
p1089
ag98
ag50
ag565
ag500
ag100
ag101
ag687
ag374
ag623
aS'34262212'
p1090
aS'82688900'
p1091
ag97
aS'81218347'
p1092
ag353
ag414
ag504
ag46
ag753
ag507
ag496
ag694
ag755
ag793
ag780
ag373
ag501
ag376
aS'51186803'
p1093
aS'38329455'
p1094
ag569
aS'65003379'
p1095
ag129
ag473
ag864
ag446
aS'39659121'
p1096
aS'59075181'
p1097
ag511
ag277
ag509
ag368
ag20
ag295
ag103
aS'91139627'
p1098
aS'63408522'
p1099
aS'10872825'
p1100
aS'79366078'
p1101
ag48
ag962
asg82
I1000
sg83
Nsg84
(iread_data
Room
p1102
(dp1103
g82
g87
sg88
g89
sbsg90
g91
sg92
I0
sg88
S'Kansrekenen 2'
p1104
sba(ischedule
Activity
p1105
(dp1106
g8
g1037
sg82
g112
sg83
g1053
sg84
(iread_data
Room
p1107
(dp1108
g82
g266
sg88
g267
sbsg90
g120
sg92
g184
sg88
g122
sba(ischedule
Activity
p1109
(dp1110
g8
(lp1111
g35
ag246
ag68
ag311
ag279
ag155
ag307
ag191
ag305
ag274
ag310
ag299
asg82
S'20'
p1112
sg83
(ischedule
Group
p1113
(dp1114
g8
g1111
sg88
S'Collectieve Intelligentie3'
p1115
sbsg84
(iread_data
Room
p1116
(dp1117
g82
g118
sg88
g119
sbsg90
g183
sg92
g207
sg88
g316
sba(ischedule
Activity
p1118
(dp1119
g8
(lp1120
g131
ag160
ag71
ag144
ag468
ag558
ag788
ag232
ag283
ag1073
ag1072
ag1075
ag1074
ag807
ag461
ag1070
ag1071
asg82
g175
sg83
(ischedule
Group
p1121
(dp1122
g8
g1120
sg88
S'Data Mining2'
p1123
sbsg84
(iread_data
Room
p1124
(dp1125
g82
g523
sg88
g524
sbsg90
g183
sg92
g121
sg88
g185
sba(ischedule
Activity
p1126
(dp1127
g8
g548
sg82
S'10'
p1128
sg83
g549
sg84
(iread_data
Room
p1129
(dp1130
g82
g402
sg88
g403
sbsg90
g183
sg92
g121
sg88
g336
sba(ischedule
Activity
p1131
(dp1132
g8
(lp1133
g349
ag255
ag154
ag253
ag340
ag632
ag69
ag457
ag974
ag469
ag514
aS'1137946'
p1134
aS'53512831'
p1135
aS'24891081'
p1136
asg82
S'20'
p1137
sg83
(ischedule
Group
p1138
(dp1139
g8
g1133
sg88
S'Webprogrammeren en databases2'
p1140
sbsg84
(iread_data
Room
p1141
(dp1142
g82
g361
sg88
g362
sbsg90
g183
sg92
g121
sg88
g1034
sba(ischedule
Activity
p1143
(dp1144
g8
(lp1145
g321
ag214
ag37
ag132
ag54
ag331
ag324
ag173
ag330
ag157
ag323
ag325
ag328
asg82
g481
sg83
(ischedule
Group
p1146
(dp1147
g8
g1145
sg88
S'Autonomous Agents 21'
p1148
sbsg84
(iread_data
Room
p1149
(dp1150
g82
g334
sg88
g335
sbsg90
g120
sg92
g184
sg88
g336
sbaa(lp1151
(ischedule
Activity
p1152
(dp1153
g8
(lp1154
g220
ag1038
ag625
ag31
ag251
ag101
ag106
ag102
ag103
ag866
ag1040
ag111
ag80
ag99
ag153
ag1041
ag259
ag213
ag1048
ag497
ag1046
ag294
ag139
ag1051
ag343
ag97
ag104
ag1049
ag300
ag292
ag894
ag219
ag285
ag805
ag105
ag375
ag1039
ag218
ag133
ag1050
ag15
ag559
ag12
ag227
ag108
ag100
ag65
ag893
ag137
ag109
ag27
ag312
ag110
ag1047
ag460
ag1045
ag98
ag1042
ag626
ag560
ag39
ag107
ag636
ag1044
ag621
ag429
ag1043
ag150
ag222
asg82
I1000
sg83
Nsg84
(iread_data
Room
p1155
(dp1156
g82
g87
sg88
g89
sbsg90
g91
sg92
I0
sg88
g122
sba(ischedule
Activity
p1157
(dp1158
g8
g1069
sg82
I1000
sg83
Nsg84
(iread_data
Room
p1159
(dp1160
g82
g361
sg88
g362
sbsg90
g91
sg92
I0
sg88
g185
sba(ischedule
Activity
p1161
(dp1162
g8
(lp1163
S'71839156'
p1164
ag323
ag665
ag666
ag293
ag1006
ag280
ag428
ag308
ag811
ag664
ag839
ag1024
ag1097
ag81
ag232
ag638
ag567
ag1073
ag504
ag216
ag517
ag389
aS'97417002'
p1165
ag306
aS'76393508'
p1166
ag152
ag331
ag214
aS'45660925'
p1167
ag19
ag173
ag772
ag257
ag126
ag1092
ag1038
ag247
ag653
ag44
ag43
aS'87210640'
p1168
ag391
aS'4353500'
p1169
asg82
I1000
sg83
Nsg84
(iread_data
Room
p1170
(dp1171
g82
g334
sg88
g335
sbsg90
g91
sg92
I0
sg88
g673
sba(ischedule
Activity
p1172
(dp1173
g8
(lp1174
g368
ag141
ag135
aS'81116418'
p1175
ag226
ag471
asg82
g815
sg83
(ischedule
Group
p1176
(dp1177
g8
g1174
sg88
S'Project Numerical Recipes3'
p1178
sbsg84
(iread_data
Room
p1179
(dp1180
g82
g491
sg88
g492
sbsg90
g183
sg92
g207
sg88
g821
sba(ischedule
Activity
p1181
(dp1182
g8
(lp1183
g349
ag102
ag1136
ag590
ag457
ag1027
ag52
ag1020
ag278
ag1134
ag690
ag891
ag1022
ag974
ag34
ag1135
ag273
ag1018
ag255
ag154
ag1024
ag469
ag514
ag253
ag340
ag1021
ag1025
ag246
ag499
ag1026
ag655
ag632
ag69
ag47
ag687
ag133
ag1023
ag1019
ag231
asg82
I1000
sg83
Nsg84
(iread_data
Room
p1184
(dp1185
g82
g383
sg88
g384
sbsg90
g91
sg92
I0
sg88
g1034
sba(ischedule
Activity
p1186
(dp1187
g8
(lp1188
g693
ag373
ag190
ag353
ag464
asg82
g975
sg83
(ischedule
Group
p1189
(dp1190
g8
g1188
sg88
S'Project Genetic Algorithms1'
p1191
sbsg84
(iread_data
Room
p1192
(dp1193
g82
g523
sg88
g524
sbsg90
g183
sg92
g184
sg88
g981
sbaa(lp1194
(ischedule
Activity
p1195
(dp1196
g8
(lp1197
g142
ag160
ag63
ag81
ag110
ag27
ag766
ag11
ag865
ag1020
ag313
ag807
ag373
aS'73893840'
p1198
aS'64053722'
p1199
ag100
ag46
ag583
ag784
ag418
ag453
ag301
ag1040
aS'88519892'
p1200
ag351
ag149
ag1090
ag278
ag49
ag378
ag589
ag795
aS'63096281'
p1201
ag20
asg82
g433
sg83
(ischedule
Group
p1202
(dp1203
g8
g1197
sg88
S'Programmeren in Java 23'
p1204
sbsg84
(iread_data
Room
p1205
(dp1206
g82
g383
sg88
g384
sbsg90
g183
sg92
g207
sg88
g440
sba(ischedule
Activity
p1207
(dp1208
g8
(lp1209
g430
ag214
ag14
ag300
ag464
ag155
ag343
ag875
aS'63573738'
p1210
ag30
ag222
aS'19058315'
p1211
ag103
aS'53267490'
p1212
ag1004
ag1097
ag1169
ag156
ag851
aS'59887191'
p1213
ag585
ag310
ag59
asg82
g915
sg83
(ischedule
Group
p1214
(dp1215
g8
g1209
sg88
S'Netwerken en systeembeveiliging4'
p1216
sbsg84
(iread_data
Room
p1217
(dp1218
g82
g544
sg88
g545
sbsg90
g183
sg92
g525
sg88
g921
sba(ischedule
Activity
p1219
(dp1220
g8
(lp1221
g139
ag280
ag330
ag213
ag296
aS'33946407'
p1222
ag691
ag140
ag174
ag143
ag29
ag1086
ag459
ag133
ag342
ag391
ag22
aS'57419039'
p1223
ag146
ag790
ag326
ag894
ag52
ag461
ag871
aS'37804282'
p1224
ag298
ag781
ag701
aS'57701414'
p1225
asg82
g926
sg83
(ischedule
Group
p1226
(dp1227
g8
g1221
sg88
S'Zoeken sturen en bewegen2'
p1228
sbsg84
(iread_data
Room
p1229
(dp1230
g82
g523
sg88
g524
sbsg90
g183
sg92
g121
sg88
g932
sba(ischedule
Activity
p1231
(dp1232
g8
g557
sg82
g1009
sg83
g571
sg84
(iread_data
Room
p1233
(dp1234
g82
g361
sg88
g362
sbsg90
g183
sg92
g184
sg88
g576
sba(ischedule
Activity
p1235
(dp1236
g8
g726
sg82
S'20'
p1237
sg83
g728
sg84
(iread_data
Room
p1238
(dp1239
g82
g334
sg88
g335
sbsg90
g120
sg92
g121
sg88
g644
sba(ischedule
Activity
p1240
(dp1241
g8
(lp1242
g68
ag838
ag390
ag786
ag128
ag507
ag1071
ag299
ag1072
ag341
ag144
aS'64246605'
p1243
ag588
aS'5590289'
p1244
ag1003
ag457
ag504
ag79
ag172
asg82
g915
sg83
(ischedule
Group
p1245
(dp1246
g8
g1242
sg88
S'Netwerken en systeembeveiliging2'
p1247
sbsg84
(iread_data
Room
p1248
(dp1249
g82
g402
sg88
g403
sbsg90
g183
sg92
g121
sg88
g921
sba(ischedule
Activity
p1250
(dp1251
g8
(lp1252
g145
ag619
ag638
ag636
ag633
ag380
ag615
ag621
ag450
ag216
ag635
ag627
ag19
ag127
ag631
ag624
ag72
ag147
ag640
ag639
ag637
asg82
g1237
sg83
(ischedule
Group
p1253
(dp1254
g8
g1252
sg88
S'Moderne Databases1'
p1255
sbsg84
(iread_data
Room
p1256
(dp1257
g82
g491
sg88
g492
sbsg90
g120
sg92
g184
sg88
g644
sbaa(lp1258
(ischedule
Activity
p1259
(dp1260
g8
g1082
sg82
I1000
sg83
Nsg84
(iread_data
Room
p1261
(dp1262
g82
g87
sg88
g89
sbsg90
g91
sg92
I0
sg88
g1104
sba(ischedule
Activity
p1263
(dp1264
g8
g1183
sg82
I1000
sg83
Nsg84
(iread_data
Room
p1265
(dp1266
g82
g334
sg88
g335
sbsg90
g91
sg92
I0
sg88
g1034
sba(ischedule
Activity
p1267
(dp1268
g8
(lp1269
g80
ag195
ag296
ag284
ag297
ag290
ag313
ag18
ag285
ag294
ag289
ag293
ag300
ag309
asg82
g1112
sg83
(ischedule
Group
p1270
(dp1271
g8
g1269
sg88
S'Collectieve Intelligentie4'
p1272
sbsg84
(iread_data
Room
p1273
(dp1274
g82
g402
sg88
g403
sbsg90
g183
sg92
g525
sg88
g316
sba(ischedule
Activity
p1275
(dp1276
g8
g1145
sg82
g1128
sg83
g1146
sg84
(iread_data
Room
p1277
(dp1278
g82
g383
sg88
g384
sbsg90
g183
sg92
g184
sg88
g336
sba(ischedule
Activity
p1279
(dp1280
g8
g1120
sg82
S'10'
p1281
sg83
g1121
sg84
(iread_data
Room
p1282
(dp1283
g82
g361
sg88
g362
sbsg90
g120
sg92
g121
sg88
g185
sba(ischedule
Activity
p1284
(dp1285
g8
g1060
sg82
g529
sg83
g1062
sg84
(iread_data
Room
p1286
(dp1287
g82
g523
sg88
g524
sbsg90
g120
sg92
g207
sg88
g168
sbaa(lp1288
(ischedule
Activity
p1289
(dp1290
g8
(lp1291
g327
ag26
ag18
ag632
ag304
ag78
ag190
ag104
ag664
ag695
ag769
ag357
ag224
ag766
ag768
ag469
ag252
ag767
ag278
ag773
asg82
S'20'
p1292
sg83
(ischedule
Group
p1293
(dp1294
g8
g1291
sg88
S'Heuristieken 21'
p1295
sbsg84
(iread_data
Room
p1296
(dp1297
g82
g166
sg88
g167
sbsg90
g120
sg92
g184
sg88
g776
sba(ischedule
Activity
p1298
(dp1299
g8
(lp1300
g504
ag44
ag638
ag323
ag331
ag653
ag126
ag280
ag772
ag811
ag308
ag428
ag81
ag1166
ag1167
ag1169
ag214
ag216
ag152
ag173
ag1024
ag567
ag1006
ag19
ag517
ag1168
ag232
ag1097
ag247
ag839
ag293
ag257
ag1073
ag1038
ag391
ag1164
ag1092
ag1165
ag306
ag389
asg82
g667
sg83
(ischedule
Group
p1301
(dp1302
g8
g1300
sg88
S'Heuristieken 11'
p1303
sbsg84
(iread_data
Room
p1304
(dp1305
g82
g240
sg88
g241
sbsg90
g120
sg92
g184
sg88
g673
sba(ischedule
Activity
p1306
(dp1307
g8
g412
sg82
I1000
sg83
Nsg84
(iread_data
Room
p1308
(dp1309
g82
g87
sg88
g89
sbsg90
g91
sg92
I0
sg88
g242
sba(ischedule
Activity
p1310
(dp1311
g8
g528
sg82
g1061
sg83
g530
sg84
(iread_data
Room
p1312
(dp1313
g82
g266
sg88
g267
sbsg90
g183
sg92
g184
sg88
g168
sba(ischedule
Activity
p1314
(dp1315
g8
g905
sg82
g881
sg83
g906
sg84
(iread_data
Room
p1316
(dp1317
g82
g402
sg88
g403
sbsg90
g120
sg92
g184
sg88
g597
sba(ischedule
Activity
p1318
(dp1319
g8
g366
sg82
I1000
sg83
Nsg84
(iread_data
Room
p1320
(dp1321
g82
g491
sg88
g492
sbsg90
g91
sg92
I0
sg88
g385
sba(ischedule
Activity
p1322
(dp1323
g8
(lp1324
g452
ag462
ag468
ag456
asg82
g744
sg83
(ischedule
Group
p1325
(dp1326
g8
g1324
sg88
S'Reflectie op de digitale cultuur3'
p1327
sbsg84
(iread_data
Room
p1328
(dp1329
g82
g523
sg88
g524
sbsg90
g120
sg92
g207
sg88
g477
sbaaa(lp1330
(lp1331
(ischedule
Activity
p1332
(dp1333
g8
(lp1334
g452
ag962
ag219
ag1006
ag255
ag279
ag371
ag680
ag568
ag54
ag503
ag567
ag498
ag132
ag569
ag158
ag328
ag126
ag425
ag460
ag159
ag564
ag283
ag153
ag312
ag1005
ag141
ag562
ag1003
ag303
ag305
ag691
ag874
ag1007
ag1008
ag864
ag558
ag688
ag1004
ag496
ag632
ag445
ag561
ag129
ag311
ag98
ag253
ag306
ag228
ag14
ag373
ag696
ag154
ag617
ag808
ag416
ag559
ag329
ag232
ag454
ag261
ag331
ag369
ag582
ag560
ag792
ag196
ag565
ag585
ag618
ag584
ag566
ag162
ag630
ag563
asg82
I1000
sg83
Nsg84
g937
sg90
g91
sg92
I0
sg88
g576
sba(ischedule
Activity
p1335
(dp1336
g8
g1252
sg82
g727
sg83
g1253
sg84
(iread_data
Room
p1337
(dp1338
g82
g118
sg88
g119
sbsg90
g183
sg92
g184
sg88
g644
sba(ischedule
Activity
p1339
(dp1340
g8
g1017
sg82
g1137
sg83
g1029
sg84
(iread_data
Room
p1341
(dp1342
g82
g240
sg88
g241
sbsg90
g183
sg92
g184
sg88
g1034
sba(ischedule
Activity
p1343
(dp1344
g8
g480
sg82
g1128
sg83
g482
sg84
(iread_data
Room
p1345
(dp1346
g82
g181
sg88
g182
sbsg90
g183
sg92
g207
sg88
g336
sba(ischedule
Activity
p1347
(dp1348
g8
(lp1349
g280
ag213
ag46
ag193
ag251
ag35
ag472
ag76
ag51
ag60
ag134
ag622
ag620
asg82
g1237
sg83
(ischedule
Group
p1350
(dp1351
g8
g1349
sg88
S'Moderne Databases3'
p1352
sbsg84
(iread_data
Room
p1353
(dp1354
g82
g166
sg88
g167
sbsg90
g120
sg92
g207
sg88
g644
sba(ischedule
Activity
p1355
(dp1356
g8
g1269
sg82
g538
sg83
g1270
sg84
(iread_data
Room
p1357
(dp1358
g82
g266
sg88
g267
sbsg90
g120
sg92
g525
sg88
g316
sba(ischedule
Activity
p1359
(dp1360
g8
g950
sg82
g1112
sg83
g951
sg84
(iread_data
Room
p1361
(dp1362
g82
g523
sg88
g524
sbsg90
g183
sg92
g121
sg88
g316
sbaa(lp1363
(ischedule
Activity
p1364
(dp1365
g8
(lp1366
g1092
ag507
ag24
ag80
ag1005
aS'90743504'
p1367
ag708
ag288
ag152
ag558
aS'80998260'
p1368
ag787
ag327
ag103
aS'26172512'
p1369
ag40
ag753
ag320
ag496
ag500
aS'96118484'
p1370
aS'66570705'
p1371
ag212
ag301
ag1164
ag292
ag296
ag864
ag55
aS'54074680'
p1372
aS'32595335'
p1373
ag329
ag220
ag37
aS'34588570'
p1374
ag342
ag1006
ag614
aS'21311067'
p1375
ag355
ag590
ag1019
ag13
ag198
aS'16011419'
p1376
ag1007
ag260
ag258
ag136
aS'79937969'
p1377
ag26
ag322
ag61
ag343
asg82
I1000
sg83
Nsg84
(iread_data
Room
p1378
(dp1379
g82
g383
sg88
g384
sbsg90
g91
sg92
I0
sg88
S'Lineaire Algebra'
p1380
sba(ischedule
Activity
p1381
(dp1382
g8
g125
sg82
I1000
sg83
Nsg84
(iread_data
Room
p1383
(dp1384
g82
g334
sg88
g335
sbsg90
g91
sg92
I0
sg88
g168
sba(ischedule
Activity
p1385
(dp1386
g8
g444
sg82
I1000
sg83
Nsg84
(iread_data
Room
p1387
(dp1388
g82
g544
sg88
g545
sbsg90
g91
sg92
I0
sg88
g477
sba(ischedule
Activity
p1389
(dp1390
g8
g537
sg82
g1112
sg83
g539
sg84
(iread_data
Room
p1391
(dp1392
g82
g402
sg88
g403
sbsg90
g183
sg92
g184
sg88
g316
sba(ischedule
Activity
p1393
(dp1394
g8
(lp1395
g653
ag695
ag193
ag1004
aS'12782624'
p1396
asg82
g433
sg83
(ischedule
Group
p1397
(dp1398
g8
g1395
sg88
S'Programmeren in Java 21'
p1399
sbsg84
(iread_data
Room
p1400
(dp1401
g82
g361
sg88
g362
sbsg90
g183
sg92
g184
sg88
g440
sbaa(lp1402
(ischedule
Activity
p1403
(dp1404
g8
g1002
sg82
g570
sg83
g1010
sg84
(iread_data
Room
p1405
(dp1406
g82
g523
sg88
g524
sbsg90
g120
sg92
g121
sg88
g576
sba(ischedule
Activity
p1407
(dp1408
g8
(lp1409
g220
aS'40911986'
p1410
ag621
ag653
ag172
ag350
ag256
aS'63939720'
p1411
ag153
ag312
ag292
ag300
ag1045
ag40
ag465
ag1210
ag416
asg82
g815
sg83
(ischedule
Group
p1412
(dp1413
g8
g1409
sg88
S'Project Numerical Recipes2'
p1414
sbsg84
(iread_data
Room
p1415
(dp1416
g82
g361
sg88
g362
sbsg90
g183
sg92
g121
sg88
g821
sba(ischedule
Activity
p1417
(dp1418
g8
g1349
sg82
g727
sg83
g1350
sg84
(iread_data
Room
p1419
(dp1420
g82
g334
sg88
g335
sbsg90
g183
sg92
g207
sg88
g644
sba(ischedule
Activity
p1421
(dp1422
g8
(lp1423
g147
ag614
ag1048
aS'82233873'
p1424
ag310
ag348
aS'24167153'
p1425
ag1213
aS'13210212'
p1426
ag75
ag431
asg82
g926
sg83
(ischedule
Group
p1427
(dp1428
g8
g1423
sg88
S'Zoeken sturen en bewegen1'
p1429
sbsg84
(iread_data
Room
p1430
(dp1431
g82
g544
sg88
g545
sbsg90
g183
sg92
g184
sg88
g932
sba(ischedule
Activity
p1432
(dp1433
g8
(lp1434
g588
ag285
ag38
ag99
ag773
ag848
ag279
ag654
ag252
ag106
aS'75680261'
p1435
ag378
aS'51673172'
p1436
ag701
ag150
ag66
ag960
asg82
g975
sg83
(ischedule
Group
p1437
(dp1438
g8
g1434
sg88
S'Project Genetic Algorithms2'
p1439
sbsg84
(iread_data
Room
p1440
(dp1441
g82
g402
sg88
g403
sbsg90
g183
sg92
g121
sg88
g981
sba(ischedule
Activity
p1442
(dp1443
g8
(lp1444
g173
ag145
ag426
ag223
ag467
ag459
ag22
ag447
ag450
ag458
ag374
ag27
ag463
ag368
asg82
g744
sg83
(ischedule
Group
p1445
(dp1446
g8
g1444
sg88
S'Reflectie op de digitale cultuur2'
p1447
sbsg84
(iread_data
Room
p1448
(dp1449
g82
g383
sg88
g384
sbsg90
g120
sg92
g121
sg88
g477
sba(ischedule
Activity
p1450
(dp1451
g8
(lp1452
g509
ag141
ag393
aS'55103073'
p1453
ag62
ag636
ag1049
aS'51472074'
p1454
ag215
ag507
ag358
aS'64418623'
p1455
ag413
asg82
g852
sg83
(ischedule
Group
p1456
(dp1457
g8
g1452
sg88
S'Compilerbouw practicum2'
p1458
sbsg84
(iread_data
Room
p1459
(dp1460
g82
g491
sg88
g492
sbsg90
g183
sg92
g121
sg88
g858
sbaa(lp1461
(ischedule
Activity
p1462
(dp1463
g8
g1154
sg82
I1000
sg83
Nsg84
(iread_data
Room
p1464
(dp1465
g82
g87
sg88
g89
sbsg90
g91
sg92
I0
sg88
g122
sba(ischedule
Activity
p1466
(dp1467
g8
(lp1468
g10
ag20
ag38
ag72
ag63
ag43
ag74
ag55
ag22
ag13
ag64
ag67
ag37
ag58
ag56
ag76
ag41
ag47
ag66
ag71
ag24
ag44
ag81
ag15
ag30
ag21
ag45
ag78
ag32
ag14
ag77
ag54
ag79
ag50
ag33
ag75
ag53
ag25
ag34
ag40
ag42
ag61
ag18
ag73
ag57
ag70
ag52
ag28
ag48
ag62
ag16
ag60
ag19
ag51
ag23
asg82
g942
sg83
(ischedule
Group
p1469
(dp1470
g8
g1468
sg88
S'Databases 21'
p1471
sbsg84
(iread_data
Room
p1472
(dp1473
g82
g205
sg88
g206
sbsg90
g120
sg92
g184
sg88
g93
sba(ischedule
Activity
p1474
(dp1475
g8
g721
sg82
I1000
sg83
Nsg84
(iread_data
Room
p1476
(dp1477
g82
g361
sg88
g362
sbsg90
g91
sg92
I0
sg88
g404
sba(ischedule
Activity
p1478
(dp1479
g8
g1111
sg82
g538
sg83
g1113
sg84
(iread_data
Room
p1480
(dp1481
g82
g383
sg88
g384
sbsg90
g120
sg92
g207
sg88
g316
sba(ischedule
Activity
p1482
(dp1483
g8
(lp1484
g159
ag452
ag126
ag690
ag506
ag602
ag247
ag282
ag192
aS'47260040'
p1485
aS'44151631'
p1486
ag925
aS'5892092'
p1487
ag1436
ag972
aS'1695839'
p1488
ag36
ag1164
ag283
ag681
ag515
aS'91250534'
p1489
asg82
g852
sg83
(ischedule
Group
p1490
(dp1491
g8
g1484
sg88
S'Compilerbouw practicum1'
p1492
sbsg84
(iread_data
Room
p1493
(dp1494
g82
g334
sg88
g335
sbsg90
g183
sg92
g184
sg88
g858
sba(ischedule
Activity
p1495
(dp1496
g8
g752
sg82
g1281
sg83
g757
sg84
(iread_data
Room
p1497
(dp1498
g82
g491
sg88
g492
sbsg90
g120
sg92
g207
sg88
g185
sba(ischedule
Activity
p1499
(dp1500
g8
g171
sg82
g1281
sg83
g176
sg84
(iread_data
Room
p1501
(dp1502
g82
g402
sg88
g403
sbsg90
g120
sg92
g184
sg88
g185
sbaa(lp1503
(ischedule
Activity
p1504
(dp1505
g8
(lp1506
g372
ag144
ag369
ag71
ag772
ag135
ag172
ag770
ag603
ag771
ag192
ag462
asg82
g1292
sg83
(ischedule
Group
p1507
(dp1508
g8
g1506
sg88
S'Heuristieken 22'
p1509
sbsg84
(iread_data
Room
p1510
(dp1511
g82
g118
sg88
g119
sbsg90
g120
sg92
g121
sg88
g776
sba(ischedule
Activity
p1512
(dp1513
g8
g272
sg82
I1000
sg83
Nsg84
g937
sg90
g91
sg92
I0
sg88
g316
sba(ischedule
Activity
p1514
(dp1515
g8
g1366
sg82
I1000
sg83
Nsg84
(iread_data
Room
p1516
(dp1517
g82
g205
sg88
g206
sbsg90
g91
sg92
I0
sg88
g1380
sba(ischedule
Activity
p1518
(dp1519
g8
g984
sg82
g1061
sg83
g985
sg84
(iread_data
Room
p1520
(dp1521
g82
g266
sg88
g267
sbsg90
g183
sg92
g121
sg88
g168
sba(ischedule
Activity
p1522
(dp1523
g8
g96
sg82
g1052
sg83
g113
sg84
(iread_data
Room
p1524
(dp1525
g82
g240
sg88
g241
sbsg90
g183
sg92
g121
sg88
g122
sba(ischedule
Activity
p1526
(dp1527
g8
g1133
sg82
g1028
sg83
g1138
sg84
(iread_data
Room
p1528
(dp1529
g82
g166
sg88
g167
sbsg90
g120
sg92
g121
sg88
g1034
sba(ischedule
Activity
p1530
(dp1531
g8
g388
sg82
g993
sg83
g397
sg84
(iread_data
Room
p1532
(dp1533
g82
g181
sg88
g182
sbsg90
g120
sg92
g184
sg88
g404
sbaaa(lp1534
(lp1535
a(lp1536
a(lp1537
a(lp1538
a(lp1539
aasS'timeslot_dict'
p1540
(dp1541
I0
S'9:00-11:00'
p1542
sI1
S'11:00-13:00'
p1543
sI2
S'13:00-15:00'
p1544
sI3
S'15:00-17:00'
p1545
sI4
S'17:00-19:00'
p1546
ssS'day_dict'
p1547
(dp1548
I0
S'Monday'
p1549
sI1
S'Tuesday'
p1550
sI2
S'Wednesday'
p1551
sI3
S'Thursday'
p1552
sI4
S'Friday'
p1553
ssb.