(ischedule
Schedule
p0
(dp1
S'timetable'
p2
(lp3
(lp4
(lp5
(ischedule
Activity
p6
(dp7
S'participants'
p8
(lp9
S'20618153'
p10
aS'6249823'
p11
aS'64228258'
p12
aS'33877725'
p13
aS'76648468'
p14
aS'53512831'
p15
aS'76123484'
p16
aS'94930277'
p17
aS'43902015'
p18
aS'14303208'
p19
aS'77392404'
p20
aS'16333449'
p21
aS'57086672'
p22
aS'2416751'
p23
aS'40434933'
p24
aS'5615125'
p25
aS'72895450'
p26
aS'76903244'
p27
aS'41790793'
p28
aS'61443567'
p29
aS'14847953'
p30
aS'27064249'
p31
aS'24891081'
p32
aS'28358060'
p33
aS'1137946'
p34
aS'43460038'
p35
aS'66034145'
p36
aS'69459473'
p37
aS'39230359'
p38
aS'22288615'
p39
aS'89180944'
p40
aS'72577292'
p41
aS'53202517'
p42
aS'67073567'
p43
aS'10698627'
p44
aS'49908313'
p45
aS'3474870'
p46
aS'17092717'
p47
aS'78243495'
p48
asS'capacity'
p49
I1000
sS'name'
p50
S'Webprogrammeren en databases'
p51
sS'ttype'
p52
S'lectures'
p53
sS'group_id'
p54
I0
sS'room'
p55
(iread_data
Room
p56
(dp57
g49
S'48'
p58
sg50
S'B0.201'
p59
sbsba(ischedule
Activity
p60
(dp61
g8
(lp62
S'58592894'
p63
aS'64554442'
p64
aS'15902055'
p65
aS'41527759'
p66
aS'19540225'
p67
aS'3707829'
p68
aS'46701583'
p69
aS'81385263'
p70
aS'40343779'
p71
aS'96453361'
p72
aS'27298319'
p73
aS'91527663'
p74
aS'34765676'
p75
aS'66433883'
p76
aS'64947290'
p77
ag46
aS'21964491'
p78
ag26
aS'5976174'
p79
aS'50143947'
p80
aS'41585485'
p81
aS'14671406'
p82
asg49
S'25'
p83
sg50
S'Algoritmen en complexiteit'
p84
sg52
S'labs'
p85
sg54
S'1'
p86
sg55
(iread_data
Room
p87
(dp88
g49
S'60'
p89
sg50
S'C1.112'
p90
sbsba(ischedule
Activity
p91
(dp92
g8
(lp93
S'47462856'
p94
aS'72547110'
p95
ag66
aS'20331158'
p96
aS'51542218'
p97
aS'38329455'
p98
aS'82688900'
p99
aS'8522855'
p100
aS'77636749'
p101
aS'54310617'
p102
aS'39919665'
p103
ag38
aS'11915563'
p104
aS'56988998'
p105
aS'28957789'
p106
aS'96054456'
p107
aS'36903574'
p108
aS'55474917'
p109
aS'23798155'
p110
aS'37498675'
p111
aS'14591033'
p112
aS'97371272'
p113
aS'79366078'
p114
aS'7492204'
p115
aS'56749879'
p116
aS'32705005'
p117
aS'24875739'
p118
aS'79858178'
p119
ag25
aS'74182182'
p120
aS'58332004'
p121
aS'14398123'
p122
aS'89338938'
p123
aS'69086548'
p124
aS'63408522'
p125
aS'34243356'
p126
aS'10792879'
p127
aS'51186803'
p128
aS'91139627'
p129
aS'27187154'
p130
aS'63955238'
p131
aS'31633723'
p132
aS'61518436'
p133
aS'10872825'
p134
aS'49631542'
p135
aS'58522654'
p136
aS'20239127'
p137
aS'46570285'
p138
aS'78735049'
p139
aS'78136904'
p140
aS'5368702'
p141
aS'59544049'
p142
aS'94955328'
p143
aS'65003379'
p144
aS'38499176'
p145
aS'84110134'
p146
aS'17823206'
p147
aS'18266644'
p148
aS'9731271'
p149
aS'31247305'
p150
ag81
aS'99272880'
p151
aS'3685034'
p152
aS'47605891'
p153
aS'23391676'
p154
aS'20883994'
p155
aS'94467156'
p156
aS'77240949'
p157
aS'63634350'
p158
aS'64296965'
p159
aS'54569540'
p160
aS'84524083'
p161
aS'39659121'
p162
aS'44940353'
p163
aS'42115591'
p164
ag82
aS'97019450'
p165
aS'34262212'
p166
aS'91196968'
p167
aS'58469172'
p168
aS'76924297'
p169
aS'59075181'
p170
aS'81218347'
p171
aS'22731474'
p172
asg49
I1000
sg50
S'Kansrekenen 2'
p173
sg52
g53
sg54
I0
sg55
(iread_data
Room
p174
(dp175
g49
S'117'
p176
sg50
S'C0.110'
p177
sbsba(ischedule
Activity
p178
(dp179
g8
(lp180
S'44901052'
p181
aS'70878567'
p182
aS'75521763'
p183
ag101
aS'13658563'
p184
aS'13116738'
p185
aS'68315599'
p186
aS'8557857'
p187
aS'23257088'
p188
aS'29718115'
p189
aS'62701040'
p190
asg49
S'15'
p191
sg50
S'Informatie- en organsatieontwerp'
p192
sg52
S'tutorials'
p193
sg54
g86
sg55
(iread_data
Room
p194
(dp195
g49
S'56'
p196
sg50
S'A1.10'
p197
sbsba(ischedule
Activity
p198
(dp199
g8
(lp200
g41
aS'23547619'
p201
aS'77896638'
p202
aS'4783858'
p203
ag102
aS'46052388'
p204
aS'13534377'
p205
aS'13092455'
p206
ag12
aS'86000192'
p207
aS'48601268'
p208
aS'45556081'
p209
aS'35330349'
p210
aS'28357474'
p211
aS'24277163'
p212
asg49
S'20'
p213
sg50
S'Collectieve Intelligentie'
p214
sg52
g193
sg54
S'2'
p215
sg55
(iread_data
Room
p216
(dp217
g49
S'20'
p218
sg50
S'A1.08'
p219
sbsba(ischedule
Activity
p220
(dp221
g8
(lp222
S'97135019'
p223
aS'72665524'
p224
aS'58253841'
p225
aS'73823548'
p226
aS'6913074'
p227
ag158
aS'72526473'
p228
ag25
aS'38179241'
p229
ag130
aS'23658570'
p230
aS'11593163'
p231
aS'93361408'
p232
aS'31306819'
p233
ag69
aS'23628642'
p234
aS'87900893'
p235
aS'6709529'
p236
aS'21029457'
p237
aS'33672995'
p238
ag127
ag207
aS'16097870'
p239
aS'47932106'
p240
ag138
ag168
aS'65408517'
p241
aS'82412626'
p242
aS'26260141'
p243
aS'22168693'
p244
aS'56348773'
p245
aS'10609762'
p246
aS'45915482'
p247
ag107
aS'33760909'
p248
aS'64600457'
p249
asg49
S'40'
p250
sg50
S'Calculus 2'
p251
sg52
g193
sg54
g86
sg55
(iread_data
Room
p252
(dp253
g49
S'41'
p254
sg50
S'A1.04'
p255
sbsba(ischedule
Activity
p256
(dp257
g8
(lp258
S'17496687'
p259
aS'92977271'
p260
aS'75585647'
p261
aS'36748818'
p262
ag121
ag148
aS'23983476'
p263
aS'32204977'
p264
aS'11459236'
p265
aS'19958553'
p266
asg49
S'15'
p267
sg50
g192
sg52
g85
sg54
g215
sg55
(iread_data
Room
p268
(dp269
g49
S'22'
p270
sg50
S'A1.06'
p271
sbsbaa(lp272
(ischedule
Activity
p273
(dp274
g8
(lp275
g22
aS'52715680'
p276
aS'27370083'
p277
aS'84449005'
p278
ag160
aS'27805666'
p279
aS'96554914'
p280
aS'99453514'
p281
aS'60352393'
p282
aS'59753700'
p283
aS'5298748'
p284
aS'70844780'
p285
aS'70193386'
p286
aS'41578612'
p287
aS'43680781'
p288
ag140
aS'49922855'
p289
aS'13718298'
p290
aS'33776961'
p291
aS'87830198'
p292
aS'90474003'
p293
aS'60661905'
p294
ag227
aS'36785409'
p295
aS'38296757'
p296
aS'20095994'
p297
ag206
ag133
aS'92778619'
p298
aS'36213792'
p299
ag20
aS'99975346'
p300
aS'22826928'
p301
ag161
ag137
ag184
ag212
aS'37110913'
p302
aS'22871048'
p303
aS'68286356'
p304
aS'77960666'
p305
aS'27950803'
p306
aS'51415617'
p307
aS'32044893'
p308
aS'42406214'
p309
ag152
aS'82390428'
p310
aS'4709948'
p311
aS'86988337'
p312
aS'37399898'
p313
aS'51052738'
p314
asg49
I1000
sg50
S'Reflectie op de digitale cultuur'
p315
sg52
g53
sg54
I0
sg55
g56
sba(ischedule
Activity
p316
(dp317
g8
(lp318
S'65960683'
p319
aS'46989508'
p320
ag306
ag126
aS'49683101'
p321
aS'8464817'
p322
aS'5595824'
p323
aS'86291592'
p324
aS'88636924'
p325
aS'75664412'
p326
aS'24613625'
p327
ag141
aS'75599734'
p328
aS'76802764'
p329
aS'72796858'
p330
aS'73236988'
p331
aS'60312776'
p332
aS'92665222'
p333
aS'11741347'
p334
ag127
aS'2079771'
p335
aS'31194811'
p336
ag312
aS'44391517'
p337
aS'34872117'
p338
aS'65852230'
p339
aS'42778953'
p340
ag104
aS'80135353'
p341
ag70
aS'7957843'
p342
aS'15911353'
p343
aS'48308205'
p344
ag42
aS'3407554'
p345
aS'54772132'
p346
aS'9067939'
p347
aS'76661016'
p348
ag136
aS'13284244'
p349
aS'95007221'
p350
aS'30658799'
p351
aS'95631564'
p352
aS'1766560'
p353
aS'2317551'
p354
aS'6723948'
p355
aS'40791377'
p356
aS'39459642'
p357
ag186
aS'88752563'
p358
ag202
aS'79033175'
p359
aS'37770881'
p360
aS'83266686'
p361
aS'48503689'
p362
aS'43689934'
p363
aS'88855695'
p364
ag130
aS'14309255'
p365
aS'75759231'
p366
aS'66701209'
p367
aS'12077419'
p368
aS'98105190'
p369
ag161
aS'34110913'
p370
ag26
aS'13911001'
p371
aS'94687383'
p372
aS'79167252'
p373
asg49
I1000
sg50
S'Compilerbouw'
p374
sg52
g53
sg54
I0
sg55
(iread_data
Room
p375
(dp376
g49
g196
sg50
g197
sbsba(ischedule
Activity
p377
(dp378
g8
(lp379
S'31897288'
p380
aS'35315956'
p381
aS'58736785'
p382
ag300
aS'52304977'
p383
aS'85236626'
p384
ag79
aS'1886996'
p385
ag75
ag22
aS'82968410'
p386
aS'15249775'
p387
ag161
aS'72652638'
p388
ag172
ag158
asg49
S'20'
p389
sg50
S'Heuristieken 2'
p390
sg52
g193
sg54
g215
sg55
(iread_data
Room
p391
(dp392
g49
g270
sg50
g271
sbsba(ischedule
Activity
p393
(dp394
g8
(lp395
S'11996292'
p396
ag312
aS'57467488'
p397
ag47
ag305
aS'37701751'
p398
aS'56121590'
p399
ag230
ag116
aS'56191333'
p400
aS'62736669'
p401
aS'29526540'
p402
aS'54540997'
p403
aS'56872729'
p404
aS'94686490'
p405
ag358
aS'4921119'
p406
ag338
ag226
aS'27123462'
p407
aS'72456780'
p408
aS'26406342'
p409
aS'51566595'
p410
aS'29640619'
p411
ag74
aS'59397895'
p412
ag77
ag107
ag240
ag121
ag24
ag135
ag206
ag16
ag159
aS'47477884'
p413
asg49
S'40'
p414
sg50
S'Databases 2'
p415
sg52
g193
sg54
g215
sg55
(iread_data
Room
p416
(dp417
g49
g254
sg50
g255
sbsba(ischedule
Activity
p418
(dp419
g8
(lp420
S'62613937'
p421
ag31
ag41
ag30
aS'75997788'
p422
aS'40633534'
p423
ag282
aS'86807027'
p424
ag385
aS'28618400'
p425
aS'72683344'
p426
ag155
ag285
ag224
aS'3168419'
p427
ag201
ag333
ag140
aS'39429093'
p428
ag413
asg49
I1000
sg50
S'Advanced Heuristics'
p429
sg52
g53
sg54
I0
sg55
(iread_data
Room
p430
(dp431
g49
g176
sg50
g177
sbsba(ischedule
Activity
p432
(dp433
g8
(lp434
S'47982619'
p435
ag10
aS'2550487'
p436
ag65
aS'73196865'
p437
ag147
ag387
aS'45414528'
p438
aS'64393888'
p439
aS'34900967'
p440
ag190
ag263
ag207
aS'41153310'
p441
ag305
aS'58040377'
p442
ag156
ag69
asg49
S'20'
p443
sg50
S'Programmeren in Java 2'
p444
sg52
g85
sg54
S'3'
p445
sg55
(iread_data
Room
p446
(dp447
g49
g89
sg50
g90
sbsba(ischedule
Activity
p448
(dp449
g8
(lp450
g224
aS'82066165'
p451
aS'4568018'
p452
aS'47260040'
p453
aS'535689'
p454
ag264
ag409
aS'25994016'
p455
aS'91250534'
p456
aS'5085194'
p457
aS'74361881'
p458
ag151
aS'44151631'
p459
asg49
S'15'
p460
sg50
S'Compilerbouw practicum'
p461
sg52
g85
sg54
g445
sg55
(iread_data
Room
p462
(dp463
g49
g218
sg50
g219
sbsbaa(lp464
(ischedule
Activity
p465
(dp466
g8
(lp467
S'70072978'
p468
aS'58699305'
p469
ag351
aS'59111489'
p470
aS'49219163'
p471
aS'78821918'
p472
aS'15051051'
p473
ag48
aS'51650744'
p474
ag365
aS'78443067'
p475
aS'1181560'
p476
ag288
ag183
aS'36527838'
p477
ag212
ag311
aS'42171678'
p478
asg49
S'20'
p479
sg50
S'Moderne Databases'
p480
sg52
g193
sg54
g215
sg55
(iread_data
Room
p481
(dp482
g49
g270
sg50
g271
sbsba(ischedule
Activity
p483
(dp484
g8
(lp485
g410
aS'21095566'
p486
aS'82689818'
p487
ag368
aS'77376714'
p488
aS'1665980'
p489
ag18
ag312
aS'88596522'
p490
aS'44828429'
p491
ag243
aS'67817269'
p492
aS'53585410'
p493
ag397
aS'51509565'
p494
aS'23652927'
p495
ag263
ag276
ag100
ag140
ag108
asg49
S'25'
p496
sg50
g84
sg52
g193
sg54
g215
sg55
g87
sba(ischedule
Activity
p497
(dp498
g8
(lp499
g63
ag64
ag65
ag66
ag67
ag68
ag69
ag70
ag71
ag72
ag73
ag74
ag75
ag76
ag77
ag46
ag78
ag26
ag79
ag80
ag81
ag82
asg49
g496
sg50
g84
sg52
g193
sg54
g86
sg55
(iread_data
Room
p500
(dp501
g49
g58
sg50
g59
sbsba(ischedule
Activity
p502
(dp503
g8
(lp504
g223
ag31
aS'77306636'
p505
ag224
ag364
aS'23565001'
p506
ag225
aS'62105897'
p507
ag118
ag226
ag358
aS'12091019'
p508
ag227
aS'83415514'
p509
aS'55412918'
p510
ag158
aS'87602030'
p511
aS'10149535'
p512
ag228
ag469
ag361
ag25
aS'14816774'
p513
ag139
ag229
aS'65978354'
p514
ag19
ag130
ag63
aS'4546613'
p515
ag230
aS'86180471'
p516
ag355
ag231
ag413
ag149
ag232
aS'37279234'
p517
aS'79888156'
p518
ag233
aS'75446434'
p519
aS'59220392'
p520
ag69
aS'48357272'
p521
ag493
ag234
aS'51741554'
p522
aS'85335143'
p523
ag235
aS'79617364'
p524
ag442
ag236
ag261
ag203
ag237
aS'3678531'
p525
aS'78544592'
p526
ag238
aS'73302736'
p527
ag373
ag127
ag12
ag106
ag207
aS'34173695'
p528
aS'56544130'
p529
ag239
ag73
ag405
ag240
aS'75623387'
p530
ag422
ag138
ag65
aS'14179347'
p531
ag168
ag424
ag348
ag241
aS'80188025'
p532
aS'6939933'
p533
ag242
aS'53139134'
p534
ag404
ag243
ag112
aS'55530367'
p535
ag244
ag117
aS'62363761'
p536
ag245
aS'70939718'
p537
aS'61520025'
p538
ag246
ag475
aS'44868097'
p539
ag247
aS'40141996'
p540
aS'19717077'
p541
ag107
ag120
aS'81155296'
p542
ag248
aS'27925117'
p543
ag296
ag249
asg49
I1000
sg50
g251
sg52
g53
sg54
I0
sg55
(iread_data
Room
p544
(dp545
g49
g176
sg50
g177
sbsba(ischedule
Activity
p546
(dp547
g8
(lp548
S'87314964'
p549
aS'98780382'
p550
ag281
ag283
aS'66122625'
p551
aS'13996448'
p552
ag182
aS'37744525'
p553
ag410
asg49
S'10'
p554
sg50
S'Data Mining'
p555
sg52
g85
sg54
g445
sg55
(iread_data
Room
p556
(dp557
g49
g218
sg50
g219
sbsba(ischedule
Activity
p558
(dp559
g8
(lp560
g478
ag136
ag183
aS'9332762'
p561
ag439
aS'87758823'
p562
aS'22699561'
p563
aS'17575088'
p564
ag360
aS'42196732'
p565
ag319
aS'25106480'
p566
aS'3233378'
p567
ag29
ag190
aS'31416266'
p568
asg49
g213
sg50
g214
sg52
g193
sg54
g86
sg55
(iread_data
Room
p569
(dp570
g49
g254
sg50
g255
sbsba(ischedule
Activity
p571
(dp572
g8
(lp573
g523
aS'12430748'
p574
ag409
aS'92496780'
p575
ag201
ag326
ag302
ag512
ag24
ag186
ag288
ag435
ag101
aS'7106649'
p576
ag264
aS'58565406'
p577
ag368
ag365
aS'4697362'
p578
asg49
S'20'
p579
sg50
S'Technology for games'
p580
sg52
g193
sg54
g215
sg55
(iread_data
Room
p581
(dp582
g49
g196
sg50
g197
sbsbaa(lp583
(ischedule
Activity
p584
(dp585
g8
(lp586
g513
ag516
aS'58083680'
p587
ag357
aS'83869542'
p588
aS'13132925'
p589
aS'5526560'
p590
aS'17222374'
p591
ag508
ag320
ag468
ag540
ag457
ag330
ag565
ag188
ag212
aS'25077484'
p592
aS'15187217'
p593
aS'26207525'
p594
ag282
ag63
aS'52552718'
p595
ag427
aS'43027916'
p596
aS'670011'
p597
ag97
ag472
ag487
aS'75005528'
p598
aS'247918'
p599
aS'5517869'
p600
ag202
ag18
aS'4529208'
p601
ag293
asg49
g414
sg50
g415
sg52
g193
sg54
g86
sg55
(iread_data
Room
p602
(dp603
g49
g254
sg50
g255
sbsba(ischedule
Activity
p604
(dp605
g8
(lp606
g10
ag12
ag14
ag16
ag18
ag20
ag22
ag24
ag26
ag28
ag30
ag32
ag34
ag36
ag38
ag40
ag42
ag44
ag46
ag48
asg49
S'20'
p607
sg50
g51
sg52
g85
sg54
g86
sg55
(iread_data
Room
p608
(dp609
g49
g196
sg50
g197
sbsba(ischedule
Activity
p610
(dp611
g8
(lp612
g259
ag260
ag261
ag262
ag121
ag148
ag263
ag264
ag265
ag266
asg49
g191
sg50
g192
sg52
g193
sg54
g215
sg55
(iread_data
Room
p613
(dp614
g49
g89
sg50
g90
sbsba(ischedule
Activity
p615
(dp616
g8
(lp617
g155
ag172
ag182
ag452
ag402
ag327
aS'77831658'
p618
aS'54026378'
p619
aS'66120270'
p620
aS'74131924'
p621
ag13
ag249
aS'11068043'
p622
aS'7308727'
p623
aS'33930505'
p624
asg49
S'20'
p625
sg50
S'Bioinformatica'
p626
sg52
g85
sg54
g86
sg55
(iread_data
Room
p627
(dp628
g49
g218
sg50
g219
sbsba(ischedule
Activity
p629
(dp630
g8
(lp631
g104
ag330
aS'62356458'
p632
aS'88627897'
p633
aS'70113753'
p634
ag73
aS'62872965'
p635
asg49
S'10'
p636
sg50
S'Autonomous Agents 2'
p637
sg52
g193
sg54
g215
sg55
(iread_data
Room
p638
(dp639
g49
g176
sg50
g177
sbsba(ischedule
Activity
p640
(dp641
g8
(lp642
S'97136582'
p643
aS'19337738'
p644
aS'22323043'
p645
ag80
ag302
ag185
ag438
aS'81022997'
p646
aS'68360259'
p647
asg49
g554
sg50
g555
sg52
g85
sg54
g215
sg55
(iread_data
Room
p648
(dp649
g49
g58
sg50
g59
sbsba(ischedule
Activity
p650
(dp651
g8
(lp652
g148
ag454
ag425
aS'85284256'
p653
ag623
aS'48678993'
p654
aS'63573738'
p655
aS'25330192'
p656
ag70
ag122
aS'3883025'
p657
ag408
ag223
ag311
ag285
aS'19058315'
p658
asg49
S'20'
p659
sg50
S'Netwerken en systeembeveiliging'
p660
sg52
g85
sg54
S'4'
p661
sg55
(iread_data
Room
p662
(dp663
g49
g270
sg50
g271
sbsbaa(lp664
(ischedule
Activity
p665
(dp666
g8
(lp667
S'34588570'
p668
ag126
aS'71839156'
p669
aS'16011419'
p670
aS'80709893'
p671
aS'36508571'
p672
ag171
ag21
ag404
ag120
aS'80998260'
p673
ag635
ag562
ag405
ag524
ag600
ag239
ag145
ag109
aS'66570705'
p674
aS'32595335'
p675
ag510
ag112
ag287
ag340
ag167
aS'79937969'
p676
ag143
aS'61060652'
p677
ag164
ag568
ag477
ag202
ag313
ag344
aS'26172512'
p678
aS'90743504'
p679
aS'93566383'
p680
ag598
aS'83210352'
p681
ag512
ag506
aS'96118484'
p682
aS'21311067'
p683
ag406
aS'52311353'
p684
ag70
ag210
aS'68409833'
p685
ag46
ag565
aS'54074680'
p686
ag597
aS'58866007'
p687
asg49
I1000
sg50
S'Lineaire Algebra'
p688
sg52
g53
sg54
I0
sg55
g87
sba(ischedule
Activity
p689
(dp690
g8
(lp691
g167
ag684
ag78
ag621
ag235
aS'93023961'
p692
ag147
aS'81200278'
p693
ag656
asg49
S'10'
p694
sg50
g555
sg52
g193
sg54
g86
sg55
(iread_data
Room
p695
(dp696
g49
g58
sg50
g59
sbsba(ischedule
Activity
p697
(dp698
g8
(lp699
g181
ag259
ag182
ag260
ag183
ag261
ag101
ag262
ag184
ag121
ag185
ag148
ag186
ag263
ag187
ag264
ag188
ag265
ag189
ag266
ag190
asg49
I1000
sg50
g192
sg52
g53
sg54
I0
sg55
(iread_data
Room
p700
(dp701
g49
g176
sg50
g177
sbsba(ischedule
Activity
p702
(dp703
g8
(lp704
g421
ag41
ag422
ag282
ag385
ag426
ag285
ag427
ag333
ag428
asg49
S'10'
p705
sg50
g429
sg52
g85
sg54
g86
sg55
(iread_data
Room
p706
(dp707
g49
g270
sg50
g271
sbsba(ischedule
Activity
p708
(dp709
g8
(lp710
g11
ag13
ag15
ag17
ag19
ag21
ag23
ag25
ag27
ag29
ag31
ag33
ag35
ag37
ag39
ag41
ag43
ag45
ag47
asg49
S'20'
p711
sg50
g51
sg52
g193
sg54
g215
sg55
(iread_data
Room
p712
(dp713
g49
g218
sg50
g219
sbsba(ischedule
Activity
p714
(dp715
g8
(lp716
g320
ag126
ag322
ag324
ag326
ag141
ag329
ag331
ag333
ag127
ag336
ag337
ag339
ag104
ag70
ag343
ag42
ag346
ag348
ag349
ag351
ag353
ag355
ag357
ag358
ag359
ag361
ag363
ag130
ag366
ag368
ag161
ag26
ag372
asg49
S'40'
p717
sg50
g374
sg52
g193
sg54
g215
sg55
(iread_data
Room
p718
(dp719
g49
g196
sg50
g197
sbsbaaa(lp720
(lp721
(ischedule
Activity
p722
(dp723
g8
(lp724
S'69634191'
p725
aS'65675896'
p726
ag30
ag313
ag75
ag141
ag68
ag70
ag348
ag515
aS'21677389'
p727
aS'28055464'
p728
aS'64768422'
p729
ag542
ag229
ag36
ag201
ag398
ag680
ag693
aS'19214659'
p730
ag436
ag491
aS'20374340'
p731
ag169
asg49
I1000
sg50
S'Interactie-ontwerp'
p732
sg52
g53
sg54
I0
sg55
(iread_data
Room
p733
(dp734
g49
g176
sg50
g177
sbsba(ischedule
Activity
p735
(dp736
g8
(lp737
g31
ag364
ag507
ag358
ag509
ag511
ag469
ag513
ag514
ag63
ag516
ag413
ag517
ag519
ag521
ag522
ag524
ag261
ag525
ag527
ag12
ag528
ag73
ag530
ag65
ag424
ag532
ag534
ag112
ag117
ag537
ag475
ag540
ag120
ag543
asg49
g250
sg50
g251
sg52
g193
sg54
g215
sg55
g608
sba(ischedule
Activity
p738
(dp739
g8
(lp740
g645
ag523
aS'21192048'
p741
ag574
ag336
ag409
ag113
ag575
aS'76487754'
p742
ag201
ag181
ag326
aS'77264363'
p743
ag302
ag123
ag512
ag396
ag24
ag183
ag186
ag295
ag288
ag11
ag435
ag344
ag101
ag561
ag576
ag124
ag264
aS'14383795'
p744
ag577
ag287
ag368
aS'70336464'
p745
ag365
aS'93041523'
p746
ag578
asg49
I1000
sg50
g580
sg52
g53
sg54
I0
sg55
(iread_data
Room
p747
(dp748
g49
g58
sg50
g59
sbsba(ischedule
Activity
p749
(dp750
g8
(lp751
S'7386961'
p752
aS'88597745'
p753
ag597
ag39
ag341
ag346
ag29
ag568
ag81
ag301
aS'10702778'
p754
ag525
ag143
aS'88263855'
p755
ag115
ag384
ag373
ag355
asg49
g443
sg50
g444
sg52
g85
sg54
g661
sg55
(iread_data
Room
p756
(dp757
g49
g270
sg50
g271
sbsba(ischedule
Activity
p758
(dp759
g8
(lp760
g155
aS'88176729'
p761
ag301
ag172
ag116
aS'30050930'
p762
ag182
ag107
ag427
ag452
ag142
ag112
ag402
ag565
ag237
ag327
ag355
ag331
ag618
ag473
ag523
ag619
ag288
ag42
ag620
aS'56815156'
p763
aS'28359697'
p764
ag621
ag284
aS'30195935'
p765
ag13
ag539
ag524
ag249
ag599
ag513
ag622
ag78
ag72
ag623
aS'89985072'
p766
ag227
ag624
ag136
ag693
asg49
I1000
sg50
g626
sg52
g53
sg54
I0
sg55
(iread_data
Room
p767
(dp768
g49
g89
sg50
g90
sbsba(ischedule
Activity
p769
(dp770
g8
(lp771
g410
ag486
ag487
ag368
ag488
ag489
ag18
ag312
ag490
ag491
ag243
ag492
ag493
ag397
ag494
ag495
ag263
ag276
ag100
ag140
ag108
asg49
g83
sg50
g84
sg52
g85
sg54
g215
sg55
(iread_data
Room
p772
(dp773
g49
g254
sg50
g255
sbsba(ischedule
Activity
p774
(dp775
g8
(lp776
g277
ag279
ag282
ag285
ag288
ag290
ag293
ag295
ag206
ag299
ag301
ag184
ag303
ag306
ag309
ag311
ag314
asg49
S'20'
p777
sg50
g315
sg52
g193
sg54
g445
sg55
(iread_data
Room
p778
(dp779
g49
g218
sg50
g219
sbsbaa(lp780
(ischedule
Activity
p781
(dp782
g8
(lp783
g167
ag643
ag549
ag684
ag644
ag550
ag78
ag645
ag281
ag621
ag80
ag283
ag235
ag302
ag551
ag692
ag185
ag552
ag147
ag438
ag182
ag693
ag646
ag553
ag656
ag647
ag410
asg49
I1000
sg50
g555
sg52
g53
sg54
I0
sg55
g481
sba(ischedule
Activity
p784
(dp785
g8
(lp786
g478
ag41
aS'53107172'
p787
ag591
ag136
ag201
aS'34773179'
p788
aS'68601184'
p789
ag183
ag202
ag65
aS'29474737'
p790
ag561
ag203
ag409
ag340
ag439
ag102
ag596
ag157
ag562
ag204
ag16
ag332
ag563
ag205
aS'57595888'
p791
aS'50184318'
p792
ag564
ag206
ag159
ag78
ag360
ag12
ag80
ag411
ag565
ag207
ag623
ag324
ag319
ag208
aS'1075391'
p793
ag223
ag566
ag209
ag248
aS'1696500'
p794
ag567
ag210
ag600
ag489
ag29
ag211
aS'73980360'
p795
ag487
ag190
ag212
aS'96104167'
p796
ag522
ag568
asg49
I1000
sg50
g214
sg52
g53
sg54
I0
sg55
(iread_data
Room
p797
(dp798
g49
g89
sg50
g90
sbsba(ischedule
Activity
p799
(dp800
g8
(lp801
g291
ag121
ag653
aS'1048485'
p802
ag789
ag116
ag468
aS'73893840'
p803
aS'27582862'
p804
ag154
ag354
aS'28943658'
p805
ag109
aS'44671041'
p806
ag76
aS'79879876'
p807
aS'90296821'
p808
ag145
aS'26857113'
p809
asg49
g443
sg50
g444
sg52
g85
sg54
g86
sg55
(iread_data
Room
p810
(dp811
g49
g196
sg50
g197
sbsba(ischedule
Activity
p812
(dp813
g8
(lp814
g110
ag143
ag303
ag529
ag440
ag22
ag165
ag126
ag148
ag472
ag230
ag408
aS'14637758'
p815
ag239
ag763
ag684
ag286
ag596
ag422
ag164
ag97
aS'65318664'
p816
aS'78822885'
p817
ag294
aS'82854435'
p818
ag457
ag406
ag292
aS'18477924'
p819
ag295
aS'58480929'
p820
ag618
aS'73350019'
p821
ag527
ag506
ag523
ag238
ag521
aS'97838175'
p822
aS'72586808'
p823
ag532
aS'83443653'
p824
ag421
ag323
aS'88737765'
p825
ag287
ag654
ag290
ag159
asg49
I1000
sg50
S'Analysemethoden en -technieken'
p826
sg52
g53
sg54
I0
sg55
(iread_data
Room
p827
(dp828
g49
g58
sg50
g59
sbsba(ischedule
Activity
p829
(dp830
g8
(lp831
g301
ag762
ag427
ag112
ag237
ag331
ag523
ag42
ag764
ag765
ag524
ag513
ag72
ag227
ag693
asg49
g625
sg50
g626
sg52
g85
sg54
g445
sg55
(iread_data
Room
p832
(dp833
g49
g218
sg50
g219
sbsba(ischedule
Activity
p834
(dp835
g8
g9
sg49
I1000
sg50
g51
sg52
g53
sg54
I0
sg55
(iread_data
Room
p836
(dp837
g49
g176
sg50
g177
sbsbaa(lp838
(ischedule
Activity
p839
(dp840
g8
(lp841
g645
ag741
ag336
ag113
ag742
ag181
ag743
ag123
ag396
ag183
ag295
ag11
ag344
ag561
ag124
ag744
ag287
ag745
ag746
asg49
g579
sg50
g580
sg52
g193
sg54
g86
sg55
(iread_data
Room
p842
(dp843
g49
g218
sg50
g219
sbsba(ischedule
Activity
p844
(dp845
g8
(lp846
g40
ag402
ag396
ag523
ag657
ag591
ag488
ag361
ag600
ag63
ag278
ag509
ag186
ag353
ag371
ag135
aS'63111000'
p847
ag334
asg49
g479
sg50
g480
sg52
g193
sg54
g445
sg55
(iread_data
Room
p848
(dp849
g49
g254
sg50
g255
sbsba(ischedule
Activity
p850
(dp851
g8
g760
sg49
I1000
sg50
g626
sg52
g53
sg54
I0
sg55
(iread_data
Room
p852
(dp853
g49
g58
sg50
g59
sbsba(ischedule
Activity
p854
(dp855
g8
(lp856
g591
ag789
ag790
ag340
ag157
ag332
ag792
ag78
ag411
ag324
ag223
ag794
ag489
ag487
ag522
asg49
g213
sg50
g214
sg52
g193
sg54
g661
sg55
(iread_data
Room
p857
(dp858
g49
g270
sg50
g271
sbsba(ischedule
Activity
p859
(dp860
g8
(lp861
g122
ag590
ag516
ag531
aS'99283252'
p862
ag169
ag348
ag225
aS'41644639'
p863
aS'55480737'
p864
ag592
ag511
asg49
S'15'
p865
sg50
S'Project Genetic Algorithms'
p866
sg52
g85
sg54
g86
sg55
(iread_data
Room
p867
(dp868
g49
g89
sg50
g90
sbsba(ischedule
Activity
p869
(dp870
g8
(lp871
g276
ag160
ag281
ag284
ag287
ag289
ag292
ag227
ag297
ag298
ag300
ag137
ag302
ag305
ag308
ag310
ag313
asg49
g777
sg50
g315
sg52
g193
sg54
g215
sg55
(iread_data
Room
p872
(dp873
g49
g196
sg50
g197
sbsbaa(lp874
(ischedule
Activity
p875
(dp876
g8
(lp877
g165
ag183
ag551
ag645
ag108
aS'19858730'
p878
ag170
ag669
ag171
ag824
ag181
ag302
ag17
ag787
ag184
ag380
ag203
ag303
ag513
aS'20830477'
p879
ag112
ag96
ag369
ag116
aS'4353500'
p880
ag521
ag424
ag794
aS'14941752'
p881
aS'87210640'
p882
aS'45660925'
p883
ag260
ag382
aS'14138904'
p884
aS'53775014'
p885
ag422
ag478
ag452
aS'97417002'
p886
ag677
ag807
ag397
ag396
aS'76393508'
p887
asg49
I1000
sg50
S'Heuristieken 1'
p888
sg52
g53
sg54
I0
sg55
(iread_data
Room
p889
(dp890
g49
g176
sg50
g177
sbsba(ischedule
Activity
p891
(dp892
g8
(lp893
g172
ag436
ag424
ag623
ag574
ag622
ag552
ag349
ag618
ag632
aS'63939720'
p894
aS'34691309'
p895
ag120
aS'19662602'
p896
ag344
asg49
S'15'
p897
sg50
S'Project Numerical Recipes'
p898
sg52
g85
sg54
g86
sg55
(iread_data
Room
p899
(dp900
g49
g270
sg50
g271
sbsba(ischedule
Activity
p901
(dp902
g8
(lp903
g133
ag356
ag156
ag473
ag553
ag357
ag296
ag321
aS'90067329'
p904
ag152
ag79
ag384
ag110
ag130
ag809
ag335
ag69
aS'33252501'
p905
ag157
ag105
aS'67625383'
p906
ag847
asg49
I1000
sg50
S'Machine Learning'
p907
sg52
g53
sg54
I0
sg55
(iread_data
Room
p908
(dp909
g49
g89
sg50
g90
sbsba(ischedule
Activity
p910
(dp911
g8
(lp912
g878
ag621
ag410
aS'34806836'
p913
ag302
aS'61611295'
p914
ag619
asg49
g636
sg50
g637
sg52
g193
sg54
g445
sg55
(iread_data
Room
p915
(dp916
g49
g58
sg50
g59
sbsba(ischedule
Activity
p917
(dp918
g8
(lp919
g600
ag181
ag685
ag672
ag303
ag357
ag239
ag595
asg49
g636
sg50
g637
sg52
g193
sg54
g86
sg55
(iread_data
Room
p920
(dp921
g49
g254
sg50
g255
sbsbaa(lp922
(ischedule
Activity
p923
(dp924
g8
g275
sg49
I1000
sg50
g315
sg52
g53
sg54
I0
sg55
g87
sba(ischedule
Activity
p925
(dp926
g8
(lp927
g239
ag380
ag442
ag381
ag410
ag382
ag654
ag300
ag511
ag383
ag646
ag384
aS'5739011'
p928
ag79
ag543
ag385
ag597
ag75
ag693
ag22
ag596
ag386
ag588
ag387
ag48
ag161
ag576
ag388
ag29
ag172
ag248
ag158
asg49
I1000
sg50
g390
sg52
g53
sg54
I0
sg55
(iread_data
Room
p929
(dp930
g49
g58
sg50
g59
sbsba(ischedule
Activity
p931
(dp932
g8
(lp933
g24
ag338
ag361
ag321
ag110
ag96
ag543
ag687
ag884
ag41
ag189
ag487
aS'59289233'
p934
ag425
ag426
ag35
aS'70015932'
p935
ag209
ag40
aS'13798030'
p936
ag512
asg49
I1000
sg50
S'Architectuur en computerorganisatie'
p937
sg52
g53
sg54
I0
sg55
(iread_data
Room
p938
(dp939
g49
g176
sg50
g177
sbsba(ischedule
Activity
p940
(dp941
g8
(lp942
g44
ag158
ag517
ag167
ag357
aS'54395877'
p943
ag413
aS'63096281'
p944
ag260
ag166
ag406
ag202
ag879
ag23
aS'88519892'
p945
aS'23215240'
p946
ag507
ag561
asg49
g443
sg50
g444
sg52
g85
sg54
S'6'
p947
sg55
(iread_data
Room
p948
(dp949
g49
g196
sg50
g197
sbsba(ischedule
Activity
p950
(dp951
g8
(lp952
g104
ag330
ag632
ag633
ag634
ag73
ag635
asg49
S'10'
p953
sg50
g637
sg52
g85
sg54
g215
sg55
(iread_data
Room
p954
(dp955
g49
g254
sg50
g255
sbsba(ischedule
Activity
p956
(dp957
g8
(lp958
S'5892092'
p959
ag669
ag726
ag791
aS'42297781'
p960
aS'64418623'
p961
aS'55103073'
p962
aS'51472074'
p963
ag744
ag946
ag371
ag766
ag265
aS'51673172'
p964
asg49
g460
sg50
g461
sg52
g85
sg54
g86
sg55
(iread_data
Room
p965
(dp966
g49
g270
sg50
g271
sbsbaaa(lp967
(lp968
(ischedule
Activity
p969
(dp970
g8
(lp971
g41
ag201
ag202
ag203
ag102
ag204
ag205
ag206
ag12
ag207
ag208
ag209
ag210
ag211
ag212
asg49
S'20'
p972
sg50
g214
sg52
g85
sg54
g215
sg55
(iread_data
Room
p973
(dp974
g49
g218
sg50
g219
sbsba(ischedule
Activity
p975
(dp976
g8
g903
sg49
I1000
sg50
g907
sg52
g53
sg54
I0
sg55
g733
sba(ischedule
Activity
p977
(dp978
g8
(lp979
g291
aS'13218321'
p980
aS'48198668'
p981
aS'96082155'
p982
ag262
ag249
ag422
aS'41489515'
p983
ag121
aS'27916487'
p984
aS'27241113'
p985
ag138
ag526
aS'18144425'
p986
ag94
ag792
aS'66621166'
p987
ag862
asg49
g479
sg50
g480
sg52
g193
sg54
g86
sg55
(iread_data
Room
p988
(dp989
g49
g270
sg50
g271
sbsba(ischedule
Activity
p990
(dp991
g8
(lp992
g345
ag80
ag622
ag863
ag489
ag145
ag276
ag493
ag158
ag19
ag884
ag490
aS'1695839'
p993
asg49
g460
sg50
g461
sg52
g85
sg54
g215
sg55
(iread_data
Room
p994
(dp995
g49
g196
sg50
g197
sbsba(ischedule
Activity
p996
(dp997
g8
(lp998
g591
ag789
ag790
ag340
ag157
ag332
ag792
ag78
ag411
ag324
ag223
ag794
ag489
ag487
ag522
asg49
g972
sg50
g214
sg52
g85
sg54
g661
sg55
(iread_data
Room
p999
(dp1000
g49
g58
sg50
g59
sbsba(ischedule
Activity
p1001
(dp1002
g8
(lp1003
g468
ag469
ag351
ag470
ag471
ag472
ag473
ag48
ag474
ag365
ag475
ag476
ag288
ag183
ag477
ag212
ag311
ag478
asg49
S'20'
p1004
sg50
g480
sg52
g85
sg54
g215
sg55
(iread_data
Room
p1005
(dp1006
g49
g89
sg50
g90
sbsba(ischedule
Activity
p1007
(dp1008
g8
(lp1009
g478
ag136
ag183
ag561
ag439
ag562
ag563
ag564
ag360
ag565
ag319
ag566
ag567
ag29
ag190
ag568
asg49
g972
sg50
g214
sg52
g85
sg54
g86
sg55
(iread_data
Room
p1010
(dp1011
g49
g254
sg50
g255
sbsbaa(lp1012
(ischedule
Activity
p1013
(dp1014
g8
(lp1015
g183
ag645
ag878
ag669
ag824
ag302
ag787
ag380
ag303
ag879
ag96
ag116
ag521
ag794
ag882
ag260
ag884
ag422
ag452
ag677
ag397
ag887
asg49
S'25'
p1016
sg50
g888
sg52
g193
sg54
g215
sg55
g608
sba(ischedule
Activity
p1017
(dp1018
g8
(lp1019
g10
ag12
ag14
ag16
ag18
ag20
ag22
ag24
ag26
ag28
ag30
ag32
ag34
ag36
ag38
ag40
ag42
ag44
ag46
ag48
asg49
g711
sg50
g51
sg52
g193
sg54
g86
sg55
g56
sba(ischedule
Activity
p1020
(dp1021
g8
(lp1022
g600
ag104
ag878
ag181
ag330
ag621
ag685
ag632
ag410
ag672
ag633
ag913
ag303
ag634
ag302
ag357
ag73
ag914
ag239
ag635
ag619
ag595
asg49
I1000
sg50
g637
sg52
g53
sg54
I0
sg55
(iread_data
Room
p1023
(dp1024
g49
g254
sg50
g255
sbsba(ischedule
Activity
p1025
(dp1026
g8
(lp1027
g308
ag152
ag358
ag598
ag123
ag425
ag342
aS'40911986'
p1028
ag26
aS'81116418'
p1029
ag730
ag324
ag332
aS'32183908'
p1030
asg49
g897
sg50
g898
sg52
g85
sg54
g445
sg55
(iread_data
Room
p1031
(dp1032
g49
g176
sg50
g177
sbsba(ischedule
Activity
p1033
(dp1034
g8
(lp1035
g522
aS'53267490'
p1036
ag880
ag620
ag181
ag765
ag397
ag108
ag411
aS'25557516'
p1037
ag400
ag401
aS'16912993'
p1038
ag126
ag553
aS'123355'
p1039
asg49
g659
sg50
g660
sg52
g85
sg54
g445
sg55
(iread_data
Room
p1040
(dp1041
g49
g270
sg50
g271
sbsba(ischedule
Activity
p1042
(dp1043
g8
(lp1044
S'82872148'
p1045
ag727
ag71
ag594
ag643
ag100
ag537
ag823
ag536
ag693
ag624
ag487
ag149
ag342
aS'12170832'
p1046
aS'5590289'
p1047
asg49
g659
sg50
g660
sg52
g85
sg54
g86
sg55
(iread_data
Room
p1048
(dp1049
g49
g89
sg50
g90
sbsba(ischedule
Activity
p1050
(dp1051
g8
(lp1052
g761
ag116
ag107
ag142
ag565
ag355
ag473
ag288
ag763
ag284
ag539
ag599
ag78
ag766
ag136
asg49
S'20'
p1053
sg50
g626
sg52
g193
sg54
g215
sg55
(iread_data
Room
p1054
(dp1055
g49
g218
sg50
g219
sbsbaa(lp1056
(ischedule
Activity
p1057
(dp1058
g8
(lp1059
g320
ag126
ag322
ag324
ag326
ag141
ag329
ag331
ag333
ag127
ag336
ag337
ag339
ag104
ag70
ag343
ag42
ag346
ag348
ag349
ag351
ag353
ag355
ag357
ag358
ag359
ag361
ag363
ag130
ag366
ag368
ag161
ag26
ag372
asg49
S'40'
p1060
sg50
g374
sg52
g85
sg54
g215
sg55
g608
sba(ischedule
Activity
p1061
(dp1062
g8
(lp1063
g655
ag146
aS'37419523'
p1064
aS'21070547'
p1065
ag340
ag206
ag646
ag881
aS'90103047'
p1066
ag353
ag309
ag362
ag533
ag331
ag226
asg49
g897
sg50
g898
sg52
g85
sg54
g215
sg55
g56
sba(ischedule
Activity
p1067
(dp1068
g8
(lp1069
g424
ag493
ag372
ag78
ag249
ag337
ag847
ag313
ag151
ag107
aS'12782624'
p1070
ag298
ag634
ag227
ag509
ag230
ag108
ag77
asg49
g443
sg50
g444
sg52
g85
sg54
S'5'
p1071
sg55
g481
sba(ischedule
Activity
p1072
(dp1073
g8
(lp1074
g167
ag684
ag78
ag621
ag235
ag692
ag147
ag693
ag656
asg49
g554
sg50
g555
sg52
g85
sg54
g86
sg55
(iread_data
Room
p1075
(dp1076
g49
g218
sg50
g219
sbsba(ischedule
Activity
p1077
(dp1078
g8
(lp1079
g787
ag788
ag65
ag409
ag596
ag16
ag791
ag159
ag80
ag623
ag793
ag248
ag600
ag795
ag796
asg49
g213
sg50
g214
sg52
g193
sg54
g445
sg55
(iread_data
Room
p1080
(dp1081
g49
g254
sg50
g255
sbsba(ischedule
Activity
p1082
(dp1083
g8
g699
sg49
I1000
sg50
g192
sg52
g53
sg54
I0
sg55
(iread_data
Room
p1084
(dp1085
g49
g89
sg50
g90
sbsba(ischedule
Activity
p1086
(dp1087
g8
(lp1088
g367
ag156
ag964
ag360
ag788
ag37
ag654
ag472
ag69
ag825
ag566
ag451
asg49
g865
sg50
g866
sg52
g85
sg54
g445
sg55
(iread_data
Room
p1089
(dp1090
g49
g176
sg50
g177
sbsbaa(lp1091
(ischedule
Activity
p1092
(dp1093
g8
g786
sg49
I1000
sg50
g214
sg52
g53
sg54
I0
sg55
g733
sba(ischedule
Activity
p1094
(dp1095
g8
g724
sg49
I1000
sg50
g732
sg52
g53
sg54
I0
sg55
g87
sba(ischedule
Activity
p1096
(dp1097
g8
(lp1098
g150
ag365
ag104
ag595
ag80
ag761
ag553
ag66
ag331
ag40
ag684
aS'3727435'
p1099
ag681
ag475
ag567
aS'51593625'
p1100
ag328
ag486
ag35
ag527
ag241
ag243
ag804
ag671
ag290
ag123
ag142
ag48
ag862
ag632
ag208
ag566
ag1045
ag109
ag211
ag203
ag488
ag515
asg49
S'40'
p1101
sg50
S'Software engineering'
p1102
sg52
g193
sg54
g86
sg55
g608
sba(ischedule
Activity
p1103
(dp1104
g8
(lp1105
g935
ag619
ag577
ag441
aS'14072826'
p1106
ag766
ag802
ag164
aS'58074656'
p1107
ag280
ag539
ag452
ag156
ag332
aS'37830626'
p1108
ag71
aS'31103066'
p1109
ag411
ag82
ag79
ag645
ag306
ag816
ag507
ag247
ag276
ag622
ag685
ag13
ag521
ag132
ag352
ag806
ag677
ag146
ag303
aS'9287708'
p1110
asg49
g1101
sg50
g1102
sg52
g193
sg54
g215
sg55
(iread_data
Room
p1111
(dp1112
g49
g254
sg50
g255
sbsba(ischedule
Activity
p1113
(dp1114
g8
(lp1115
g181
ag182
ag183
ag101
ag184
ag185
ag186
ag187
ag188
ag189
ag190
asg49
g267
sg50
g192
sg52
g85
sg54
g86
sg55
(iread_data
Room
p1116
(dp1117
g49
g58
sg50
g59
sbsba(ischedule
Activity
p1118
(dp1119
g8
(lp1120
g31
ag30
ag423
ag424
ag425
ag155
ag224
ag201
ag140
ag413
asg49
g705
sg50
g429
sg52
g85
sg54
g215
sg55
(iread_data
Room
p1121
(dp1122
g49
g270
sg50
g271
sbsbaa(lp1123
(ischedule
Activity
p1124
(dp1125
g8
(lp1126
g513
ag396
ag516
ag312
ag587
ag397
ag357
ag47
ag588
ag305
ag589
ag398
ag590
ag399
ag591
ag230
ag508
ag116
ag320
ag400
ag468
ag401
ag540
ag402
ag457
ag403
ag330
ag404
ag565
ag405
ag188
ag358
ag212
ag406
ag592
ag338
ag593
ag226
ag594
ag407
ag282
ag408
ag63
ag409
ag595
ag410
ag427
ag411
ag596
ag74
ag597
ag412
ag97
ag77
ag472
ag107
ag487
ag240
ag598
ag121
ag599
ag24
ag600
ag135
ag202
ag206
ag18
ag16
ag601
ag159
ag293
ag413
asg49
I1000
sg50
g415
sg52
g53
sg54
I0
sg55
g87
sba(ischedule
Activity
p1127
(dp1128
g8
g740
sg49
I1000
sg50
g580
sg52
g53
sg54
I0
sg55
(iread_data
Room
p1129
(dp1130
g49
g196
sg50
g197
sbsba(ischedule
Activity
p1131
(dp1132
g8
g318
sg49
I1000
sg50
g374
sg52
g53
sg54
I0
sg55
(iread_data
Room
p1133
(dp1134
g49
g176
sg50
g177
sbsba(ischedule
Activity
p1135
(dp1136
g8
(lp1137
g63
ag410
ag64
ag486
ag65
ag487
ag66
ag368
ag67
ag488
ag68
ag489
ag69
ag18
ag70
ag312
ag71
ag490
ag72
ag491
ag73
ag243
ag74
ag492
ag75
ag493
ag76
ag397
ag77
ag494
ag46
ag495
ag78
ag263
ag26
ag276
ag79
ag100
ag80
ag140
ag81
ag108
ag82
asg49
I1000
sg50
g84
sg52
g53
sg54
I0
sg55
(iread_data
Room
p1138
(dp1139
g49
g58
sg50
g59
sbsba(ischedule
Activity
p1140
(dp1141
g8
(lp1142
g600
ag181
ag685
ag672
ag303
ag357
ag239
ag595
asg49
g953
sg50
g637
sg52
g85
sg54
g86
sg55
(iread_data
Room
p1143
(dp1144
g49
g270
sg50
g271
sbsba(ischedule
Activity
p1145
(dp1146
g8
(lp1147
g643
ag644
ag645
ag80
ag302
ag185
ag438
ag646
ag647
asg49
g694
sg50
g555
sg52
g193
sg54
g215
sg55
(iread_data
Room
p1148
(dp1149
g49
g218
sg50
g219
sbsbaaa(lp1150
(lp1151
(ischedule
Activity
p1152
(dp1153
g8
g1022
sg49
I1000
sg50
g637
sg52
g53
sg54
I0
sg55
g733
sba(ischedule
Activity
p1154
(dp1155
g8
g783
sg49
I1000
sg50
g555
sg52
g53
sg54
I0
sg55
(iread_data
Room
p1156
(dp1157
g49
g254
sg50
g255
sbsba(ischedule
Activity
p1158
(dp1159
g8
g667
sg49
I1000
sg50
g688
sg52
g53
sg54
I0
sg55
(iread_data
Room
p1160
(dp1161
g49
g196
sg50
g197
sbsba(ischedule
Activity
p1162
(dp1163
g8
(lp1164
g40
ag402
ag396
ag523
ag657
ag591
ag488
ag361
ag600
ag63
ag278
ag509
ag186
ag353
ag371
ag135
ag847
ag334
asg49
g1004
sg50
g480
sg52
g85
sg54
g445
sg55
(iread_data
Room
p1165
(dp1166
g49
g218
sg50
g219
sbsba(ischedule
Activity
p1167
(dp1168
g8
(lp1169
g22
ag278
ag280
ag283
ag286
ag140
ag291
ag294
ag296
ag133
ag20
ag161
ag212
ag304
ag307
ag152
ag312
asg49
g777
sg50
g315
sg52
g193
sg54
g86
sg55
(iread_data
Room
p1170
(dp1171
g49
g270
sg50
g271
sbsba(ischedule
Activity
p1172
(dp1173
g8
(lp1174
g787
ag788
ag65
ag409
ag596
ag16
ag791
ag159
ag80
ag623
ag793
ag248
ag600
ag795
ag796
asg49
g972
sg50
g214
sg52
g85
sg54
g445
sg55
(iread_data
Room
p1175
(dp1176
g49
g58
sg50
g59
sbsba(ischedule
Activity
p1177
(dp1178
g8
(lp1179
g165
ag551
ag108
ag170
ag171
ag181
ag17
ag184
ag203
ag513
ag112
ag369
ag880
ag424
ag881
ag883
ag382
ag885
ag478
ag886
ag807
ag396
asg49
g1016
sg50
g888
sg52
g193
sg54
g86
sg55
(iread_data
Room
p1180
(dp1181
g49
g89
sg50
g90
sbsbaa(lp1182
(ischedule
Activity
p1183
(dp1184
g8
(lp1185
g239
ag442
ag410
ag654
ag511
ag646
ag928
ag543
ag597
ag693
ag596
ag588
ag48
ag576
ag29
ag248
asg49
g389
sg50
g390
sg52
g193
sg54
g86
sg55
g87
sba(ischedule
Activity
p1186
(dp1187
g8
g933
sg49
I1000
sg50
g937
sg52
g53
sg54
I0
sg55
(iread_data
Room
p1188
(dp1189
g49
g254
sg50
g255
sbsba(ischedule
Activity
p1190
(dp1191
g8
(lp1192
g150
ag935
ag365
ag619
ag104
ag577
ag595
ag441
ag80
ag1106
ag761
ag766
ag553
ag802
ag66
ag164
ag331
ag1107
ag40
ag280
ag684
ag539
ag1099
ag452
ag681
ag156
ag475
ag332
ag567
ag1108
ag1100
ag71
ag328
ag1109
ag486
ag411
ag35
ag82
ag527
ag79
ag241
ag645
ag243
ag306
ag804
ag816
ag671
ag507
ag290
ag247
ag123
ag276
ag142
ag622
ag48
ag685
ag862
ag13
ag632
ag521
ag208
ag132
ag566
ag352
ag1045
ag806
ag109
ag677
ag211
ag146
ag203
ag303
ag488
ag1110
ag515
asg49
I1000
sg50
g1102
sg52
g53
sg54
I0
sg55
(iread_data
Room
p1193
(dp1194
g49
g196
sg50
g197
sbsba(ischedule
Activity
p1195
(dp1196
g8
(lp1197
g155
ag172
ag182
ag452
ag402
ag327
ag618
ag619
ag620
ag621
ag13
ag249
ag622
ag623
ag624
asg49
g1053
sg50
g626
sg52
g193
sg54
g86
sg55
(iread_data
Room
p1198
(dp1199
g49
g218
sg50
g219
sbsbaa(lp1200
(ischedule
Activity
p1201
(dp1202
g8
(lp1203
S'64246605'
p1204
aS'59887191'
p1205
ag324
ag150
ag282
ag170
ag145
ag646
ag794
ag292
ag399
ag346
ag20
ag802
ag326
ag224
asg49
g659
sg50
g660
sg52
g85
sg54
g215
sg55
g87
sba(ischedule
Activity
p1206
(dp1207
g8
g760
sg49
I1000
sg50
g626
sg52
g53
sg54
I0
sg55
g733
sba(ischedule
Activity
p1208
(dp1209
g8
(lp1210
g319
ag306
ag321
ag323
ag325
ag327
ag328
ag330
ag332
ag334
ag335
ag312
ag338
ag340
ag341
ag342
ag344
ag345
ag347
ag136
ag350
ag352
ag354
ag356
ag186
ag202
ag360
ag362
ag364
ag365
ag367
ag369
ag370
ag371
ag373
asg49
g1060
sg50
g374
sg52
g85
sg54
g86
sg55
g608
sba(ischedule
Activity
p1211
(dp1212
g8
(lp1213
g553
ag552
ag168
aS'64053722'
p1214
ag362
ag130
ag165
ag680
ag294
ag1100
ag324
aS'39905995'
p1215
ag411
ag149
aS'51791169'
p1216
ag312
ag311
ag322
ag188
asg49
g443
sg50
g444
sg52
g85
sg54
g215
sg55
(iread_data
Room
p1217
(dp1218
g49
g58
sg50
g59
sbsbaa(lp1219
(ischedule
Activity
p1220
(dp1221
g8
(lp1222
g291
ag980
ag981
ag982
ag262
ag249
ag422
ag983
ag121
ag984
ag985
ag138
ag526
ag986
ag94
ag792
ag987
ag862
asg49
g1004
sg50
g480
sg52
g85
sg54
g86
sg55
g56
sba(ischedule
Activity
p1223
(dp1224
g8
(lp1225
g11
ag13
ag15
ag17
ag19
ag21
ag23
ag25
ag27
ag29
ag31
ag33
ag35
ag37
ag39
ag41
ag43
ag45
ag47
asg49
g607
sg50
g51
sg52
g85
sg54
g215
sg55
g973
sba(ischedule
Activity
p1226
(dp1227
g8
(lp1228
g455
ag327
ag423
ag100
ag292
ag278
aS'75680261'
p1229
ag543
ag306
ag685
ag458
ag287
asg49
g865
sg50
g866
sg52
g85
sg54
g215
sg55
g602
sba(ischedule
Activity
p1230
(dp1231
g8
(lp1232
g761
ag116
ag107
ag142
ag565
ag355
ag473
ag288
ag763
ag284
ag539
ag599
ag78
ag766
ag136
asg49
g625
sg50
g626
sg52
g85
sg54
g215
sg55
(iread_data
Room
p1233
(dp1234
g49
g270
sg50
g271
sbsba(ischedule
Activity
p1235
(dp1236
g8
(lp1237
g505
ag506
ag118
ag508
ag510
ag512
ag361
ag139
ag19
ag515
ag355
ag149
ag518
ag520
ag493
ag523
ag442
ag203
ag526
ag373
ag106
ag529
ag405
ag422
ag531
ag348
ag533
ag404
ag535
ag536
ag538
ag539
ag541
ag542
ag296
asg49
g250
sg50
g251
sg52
g193
sg54
g445
sg55
(iread_data
Room
p1238
(dp1239
g49
g89
sg50
g90
sbsba(ischedule
Activity
p1240
(dp1241
g8
(lp1242
g319
ag306
ag321
ag323
ag325
ag327
ag328
ag330
ag332
ag334
ag335
ag312
ag338
ag340
ag341
ag342
ag344
ag345
ag347
ag136
ag350
ag352
ag354
ag356
ag186
ag202
ag360
ag362
ag364
ag365
ag367
ag369
ag370
ag371
ag373
asg49
g717
sg50
g374
sg52
g193
sg54
g86
sg55
(iread_data
Room
p1243
(dp1244
g49
g196
sg50
g197
sbsba(ischedule
Activity
p1245
(dp1246
g8
(lp1247
g549
ag550
ag281
ag283
ag551
ag552
ag182
ag553
ag410
asg49
g694
sg50
g555
sg52
g193
sg54
g445
sg55
(iread_data
Room
p1248
(dp1249
g49
g176
sg50
g177
sbsbaa(lp1250
(ischedule
Activity
p1251
(dp1252
g8
(lp1253
g935
ag619
ag577
ag441
ag1106
ag766
ag802
ag164
ag1107
ag280
ag539
ag452
ag156
ag332
ag1108
ag71
ag1109
ag411
ag82
ag79
ag645
ag306
ag816
ag507
ag247
ag276
ag622
ag685
ag13
ag521
ag132
ag352
ag806
ag677
ag146
ag303
ag1110
asg49
S'40'
p1254
sg50
g1102
sg52
g85
sg54
g215
sg55
g56
sba(ischedule
Activity
p1255
(dp1256
g8
(lp1257
g291
ag468
ag40
ag980
ag469
ag402
ag981
ag351
ag396
ag982
ag470
ag523
ag262
ag471
ag657
ag249
ag472
ag591
ag422
ag473
ag488
ag983
ag48
ag361
ag121
ag474
ag600
ag984
ag365
ag63
ag985
ag475
ag278
ag138
ag476
ag509
ag526
ag288
ag186
ag986
ag183
ag353
ag94
ag477
ag371
ag792
ag212
ag135
ag987
ag311
ag847
ag862
ag478
ag334
asg49
I1000
sg50
g480
sg52
g53
sg54
I0
sg55
g608
sba(ischedule
Activity
p1258
(dp1259
g8
(lp1260
g150
ag365
ag104
ag595
ag80
ag761
ag553
ag66
ag331
ag40
ag684
ag1099
ag681
ag475
ag567
ag1100
ag328
ag486
ag35
ag527
ag241
ag243
ag804
ag671
ag290
ag123
ag142
ag48
ag862
ag632
ag208
ag566
ag1045
ag109
ag211
ag203
ag488
ag515
asg49
g1254
sg50
g1102
sg52
g85
sg54
g86
sg55
(iread_data
Room
p1261
(dp1262
g49
g254
sg50
g255
sbsba(ischedule
Activity
p1263
(dp1264
g8
(lp1265
g301
ag762
ag427
ag112
ag237
ag331
ag523
ag42
ag764
ag765
ag524
ag513
ag72
ag227
ag693
asg49
g1053
sg50
g626
sg52
g193
sg54
g445
sg55
(iread_data
Room
p1266
(dp1267
g49
g218
sg50
g219
sbsba(ischedule
Activity
p1268
(dp1269
g8
(lp1270
g878
ag621
ag410
ag913
ag302
ag914
ag619
asg49
g953
sg50
g637
sg52
g85
sg54
g445
sg55
(iread_data
Room
p1271
(dp1272
g49
g270
sg50
g271
sbsba(ischedule
Activity
p1273
(dp1274
g8
g93
sg49
I1000
sg50
g173
sg52
g53
sg54
I0
sg55
(iread_data
Room
p1275
(dp1276
g49
g176
sg50
g177
sbsba(ischedule
Activity
p1277
(dp1278
g8
g786
sg49
I1000
sg50
g214
sg52
g53
sg54
I0
sg55
(iread_data
Room
p1279
(dp1280
g49
g89
sg50
g90
sbsbaaa(lp1281
(lp1282
a(lp1283
a(lp1284
a(lp1285
a(lp1286
aasS'timeslot_dict'
p1287
(dp1288
I0
S'9:00-11:00'
p1289
sI1
S'11:00-13:00'
p1290
sI2
S'13:00-15:00'
p1291
sI3
S'15:00-17:00'
p1292
sI4
S'17:00-19:00'
p1293
ssS'day_dict'
p1294
(dp1295
I0
S'Monday'
p1296
sI1
S'Tuesday'
p1297
sI2
S'Wednesday'
p1298
sI3
S'Thursday'
p1299
sI4
S'Friday'
p1300
ssb.