(ischedule
Schedule
p0
(dp1
S'timetable'
p2
(lp3
(lp4
(lp5
(ischedule
Activity
p6
(dp7
S'participants'
p8
(lp9
S'84110134'
p10
aS'22871048'
p11
aS'96554914'
p12
aS'37744525'
p13
aS'58565406'
p14
aS'25106480'
p15
aS'44671041'
p16
aS'48357272'
p17
aS'3233378'
p18
aS'4783858'
p19
aS'73236988'
p20
aS'11068043'
p21
aS'62105897'
p22
aS'4546613'
p23
aS'78443067'
p24
aS'31103066'
p25
aS'89338938'
p26
aS'78243495'
p27
aS'40343779'
p28
aS'89985072'
p29
aS'95631564'
p30
aS'65408517'
p31
aS'48601268'
p32
aS'28357474'
p33
aS'51593625'
p34
aS'14072826'
p35
aS'99283252'
p36
aS'88176729'
p37
aS'31633723'
p38
aS'27582862'
p39
aS'45915482'
p40
aS'70015932'
p41
aS'5976174'
p42
aS'9287708'
p43
aS'58074656'
p44
aS'89180944'
p45
aS'41153310'
p46
aS'54026378'
p47
aS'60312776'
p48
aS'52552718'
p49
aS'3727435'
p50
aS'59544049'
p51
aS'52715680'
p52
asS'capacity'
p53
S'40'
p54
sS'group'
p55
(ischedule
Group
p56
(dp57
g8
g9
sS'name'
p58
S'Software engineering1'
p59
sbsS'room'
p60
(iread_data3
Room
p61
(dp62
g53
S'56'
p63
sg58
S'A1.10'
p64
sbsS'ttype'
p65
S'labs'
p66
sS'group_id'
p67
S'1'
p68
sg58
S'Software engineering'
p69
sba(ischedule
Activity
p70
(dp71
g8
(lp72
S'58332004'
p73
aS'5517869'
p74
aS'17222374'
p75
aS'58699305'
p76
aS'13911001'
p77
aS'27241113'
p78
aS'70072978'
p79
aS'49219163'
p80
aS'42171678'
p81
aS'51650744'
p82
aS'24277163'
p83
aS'33776961'
p84
aS'50184318'
p85
aS'46570285'
p86
aS'75997788'
p87
aS'36748818'
p88
aS'96082155'
p89
asg53
S'20'
p90
sg55
(ischedule
Group
p91
(dp92
g8
g72
sg58
S'Moderne Databases3'
p93
sbsg60
(iread_data3
Room
p94
(dp95
g53
S'48'
p96
sg58
S'B0.201'
p97
sbsg65
S'tutorials'
p98
sg67
S'3'
p99
sg58
S'Moderne Databases'
p100
sba(ischedule
Activity
p101
(dp102
g8
(lp103
S'50143947'
p104
aS'51566595'
p105
aS'82689818'
p106
ag28
aS'8522855'
p107
aS'3707829'
p108
aS'77376714'
p109
aS'72895450'
p110
aS'81385263'
p111
aS'15902055'
p112
aS'21964491'
p113
aS'91527663'
p114
aS'51509565'
p115
ag52
aS'21095566'
p116
aS'23983476'
p117
aS'3474870'
p118
aS'14671406'
p119
aS'66433883'
p120
aS'36903574'
p121
aS'43902015'
p122
aS'96453361'
p123
aS'27298319'
p124
aS'34765676'
p125
aS'88596522'
p126
aS'41527759'
p127
aS'86988337'
p128
aS'46701583'
p129
aS'12077419'
p130
aS'44828429'
p131
aS'41585485'
p132
aS'64554442'
p133
aS'1665980'
p134
ag42
aS'67817269'
p135
aS'23652927'
p136
aS'58592894'
p137
aS'53585410'
p138
aS'19540225'
p139
aS'26260141'
p140
aS'64947290'
p141
aS'78136904'
p142
aS'57467488'
p143
asg53
I1000
sg55
Nsg60
(iread_data3
Room
p144
(dp145
g53
S'117'
p146
sg58
S'C0.110'
p147
sbsg65
S'lectures'
p148
sg67
g68
sg58
S'Algoritmen en complexiteit'
p149
sba(ischedule
Activity
p150
(dp151
g8
(lp152
S'86291592'
p153
aS'19662602'
p154
aS'63573738'
p155
aS'7308727'
p156
aS'14941752'
p157
ag48
aS'63939720'
p158
aS'42406214'
p159
aS'77831658'
p160
aS'6939933'
p161
aS'42778953'
p162
aS'13996448'
p163
aS'48308205'
p164
aS'75005528'
p165
aS'81116418'
p166
aS'13092455'
p167
aS'28618400'
p168
aS'12430748'
p169
aS'88752563'
p170
aS'3685034'
p171
aS'73823548'
p172
aS'37419523'
p173
aS'1766560'
p174
aS'21070547'
p175
asg53
S'15'
p176
sg55
(ischedule
Group
p177
(dp178
g8
g152
sg58
S'Project Numerical Recipes3'
p179
sbsg60
(iread_data3
Room
p180
(dp181
g53
S'41'
p182
sg58
S'A1.04'
p183
sbsg65
g66
sg67
g99
sg58
S'Project Numerical Recipes'
p184
sba(ischedule
Activity
p185
(dp186
g8
(lp187
S'27925117'
p188
aS'85236626'
p189
aS'84524083'
p190
aS'16097870'
p191
aS'22731474'
p192
aS'57086672'
p193
aS'52304977'
p194
aS'670011'
p195
aS'1886996'
p196
aS'58736785'
p197
aS'5739011'
p198
aS'31897288'
p199
aS'58040377'
p200
aS'81022997'
p201
aS'15249775'
p202
aS'7106649'
p203
aS'99975346'
p204
asg53
S'20'
p205
sg55
(ischedule
Group
p206
(dp207
g8
g187
sg58
S'Heuristieken 21'
p208
sbsg60
(iread_data3
Room
p209
(dp210
g53
S'20'
p211
sg58
S'A1.08'
p212
sbsg65
g98
sg67
g68
sg58
S'Heuristieken 2'
p213
sbaa(lp214
(ischedule
Activity
p215
(dp216
g8
(lp217
g153
aS'31416266'
p218
aS'64393888'
p219
aS'53107172'
p220
aS'29474737'
p221
aS'13534377'
p222
aS'22699561'
p223
ag48
ag85
ag19
aS'96104167'
p224
aS'64228258'
p225
aS'86000192'
p226
ag83
ag106
aS'45556081'
p227
ag167
ag113
aS'97135019'
p228
ag18
aS'51741554'
p229
ag156
aS'1075391'
p230
aS'75521763'
p231
aS'58522654'
p232
ag15
aS'54310617'
p233
ag75
aS'23547619'
p234
aS'29640619'
p235
aS'57595888'
p236
aS'37770881'
p237
aS'35330349'
p238
aS'61443567'
p239
ag104
aS'65960683'
p240
aS'73980360'
p241
ag134
aS'72577292'
p242
aS'77240949'
p243
aS'1696500'
p244
ag81
ag74
ag33
aS'68601184'
p245
aS'46052388'
p246
ag32
ag112
aS'64296965'
p247
ag162
aS'62701040'
p248
aS'76123484'
p249
aS'42196732'
p250
aS'77896638'
p251
aS'17575088'
p252
aS'87758823'
p253
aS'9332762'
p254
aS'26406342'
p255
aS'34773179'
p256
aS'43027916'
p257
aS'33760909'
p258
asg53
I1000
sg55
Nsg60
(iread_data3
Room
p259
(dp260
g53
g146
sg58
g147
sbsg65
g148
sg67
g68
sg58
S'Collectieve Intelligentie'
p261
sba(ischedule
Activity
p262
(dp263
g8
(lp264
g21
ag110
ag20
ag10
aS'32044893'
p265
ag201
ag192
aS'7957843'
p266
aS'48503689'
p267
aS'40911986'
p268
aS'90103047'
p269
aS'2550487'
p270
aS'32183908'
p271
ag26
aS'13284244'
p272
aS'19214659'
p273
aS'34691309'
p274
aS'86807027'
p275
asg53
g176
sg55
(ischedule
Group
p276
(dp277
g8
g264
sg58
S'Project Numerical Recipes1'
p278
sbsg60
(iread_data3
Room
p279
(dp280
g53
S'22'
p281
sg58
S'A1.06'
p282
sbsg65
g66
sg67
g68
sg58
g184
sba(ischedule
Activity
p283
(dp284
g8
(lp285
S'20239127'
p286
aS'43680781'
p287
ag11
aS'49922855'
p288
aS'37110913'
p289
aS'59753700'
p290
ag84
ag52
aS'13658563'
p291
aS'87830198'
p292
aS'84449005'
p293
aS'82390428'
p294
ag142
aS'37399898'
p295
ag204
aS'36213792'
p296
asg53
S'20'
p297
sg55
(ischedule
Group
p298
(dp299
g8
g285
sg58
S'Reflectie op de digitale cultuur2'
p300
sbsg60
(iread_data3
Room
p301
(dp302
g53
g63
sg58
g64
sbsg65
g98
sg67
S'2'
p303
sg58
S'Reflectie op de digitale cultuur'
p304
sba(ischedule
Activity
p305
(dp306
g8
(lp307
S'6913074'
p308
aS'82412626'
p309
aS'14816774'
p310
aS'47932106'
p311
aS'10609762'
p312
aS'53139134'
p313
aS'23658570'
p314
ag188
aS'64600457'
p315
aS'61520025'
p316
aS'56348773'
p317
ag200
aS'88855695'
p318
aS'74182182'
p319
aS'10149535'
p320
ag87
aS'28957789'
p321
aS'38179241'
p322
aS'59220392'
p323
aS'6723948'
p324
ag31
aS'23565001'
p325
ag76
aS'19717077'
p326
ag86
aS'21029457'
p327
aS'79888156'
p328
aS'9731271'
p329
aS'3678531'
p330
aS'65978354'
p331
asg53
S'40'
p332
sg55
(ischedule
Group
p333
(dp334
g8
g307
sg58
S'Calculus 21'
p335
sbsg60
(iread_data3
Room
p336
(dp337
g53
g96
sg58
g97
sbsg65
g98
sg67
g68
sg58
S'Calculus 2'
p338
sba(ischedule
Activity
p339
(dp340
g8
(lp341
S'56749879'
p342
ag143
aS'98105190'
p343
aS'11996292'
p344
aS'19858730'
p345
aS'44901052'
p346
ag197
asg53
S'25'
p347
sg55
(ischedule
Group
p348
(dp349
g8
g341
sg58
S'Heuristieken 11'
p350
sbsg60
(iread_data3
Room
p351
(dp352
g53
g211
sg58
g212
sbsg65
g98
sg67
g68
sg58
S'Heuristieken 1'
p353
sba(ischedule
Activity
p354
(dp355
g8
(lp356
S'82872148'
p357
aS'68409833'
p358
aS'55474917'
p359
aS'83210352'
p360
aS'61060652'
p361
ag140
aS'75599734'
p362
aS'52311353'
p363
aS'80709893'
p364
aS'1048485'
p365
aS'31247305'
p366
aS'62356458'
p367
aS'42115591'
p368
ag119
ag109
aS'14309255'
p369
ag127
aS'22323043'
p370
aS'43460038'
p371
ag116
aS'44868097'
p372
aS'65318664'
p373
aS'73302736'
p374
aS'37830626'
p375
aS'94467156'
p376
aS'33877725'
p377
ag235
aS'13718298'
p378
aS'11915563'
p379
ag104
aS'27950803'
p380
aS'4568018'
p381
asg53
S'40'
p382
sg55
(ischedule
Group
p383
(dp384
g8
g356
sg58
S'Software engineering2'
p385
sbsg60
(iread_data3
Room
p386
(dp387
g53
S'60'
p388
sg58
S'C1.112'
p389
sbsg65
g98
sg67
g303
sg58
g69
sbaa(lp390
(ischedule
Activity
p391
(dp392
g8
(lp393
S'14179347'
p394
aS'96054456'
p395
aS'78544592'
p396
aS'56544130'
p397
aS'72526473'
p398
aS'56872729'
p399
aS'72665524'
p400
ag112
aS'55530367'
p401
aS'79617364'
p402
aS'76661016'
p403
aS'94686490'
p404
ag225
aS'83415514'
p405
aS'63634350'
p406
ag22
aS'11593163'
p407
aS'55412918'
p408
ag191
ag170
aS'81155296'
p409
ag374
aS'27187154'
p410
ag275
ag372
aS'33672995'
p411
aS'23628642'
p412
aS'62363761'
p413
ag228
aS'93361408'
p414
aS'10792879'
p415
aS'75623387'
p416
aS'75446434'
p417
aS'79167252'
p418
aS'14591033'
p419
aS'58253841'
p420
aS'40141996'
p421
aS'38296757'
p422
aS'75585647'
p423
asg53
g332
sg55
(ischedule
Group
p424
(dp425
g8
g393
sg58
S'Calculus 23'
p426
sbsg60
(iread_data3
Room
p427
(dp428
g53
g388
sg58
g389
sbsg65
g98
sg67
g99
sg58
g338
sba(ischedule
Activity
p429
(dp430
g8
(lp431
S'3883025'
p432
aS'1181560'
p433
aS'66621166'
p434
aS'18144425'
p435
aS'4709948'
p436
aS'49631542'
p437
aS'59111489'
p438
aS'47462856'
p439
asg53
g90
sg55
(ischedule
Group
p440
(dp441
g8
g431
sg58
S'Moderne Databases1'
p442
sbsg60
(iread_data3
Room
p443
(dp444
g53
g146
sg58
g147
sbsg65
g98
sg67
g68
sg58
g100
sba(ischedule
Activity
p445
(dp446
g8
(lp447
g153
ag232
ag245
ag250
ag254
ag33
ag235
ag246
ag156
ag248
ag241
ag223
ag32
ag239
ag237
ag48
ag256
ag222
ag257
ag230
ag162
ag252
ag167
asg53
S'20'
p448
sg55
(ischedule
Group
p449
(dp450
g8
g447
sg58
S'Collectieve Intelligentie1'
p451
sbsg60
(iread_data3
Room
p452
(dp453
g53
g63
sg58
g64
sbsg65
g66
sg67
g68
sg58
g261
sba(ischedule
Activity
p454
(dp455
g8
(lp456
g320
aS'29718115'
p457
ag45
aS'72683344'
p458
ag168
aS'14138904'
p459
aS'13798030'
p460
aS'59289233'
p461
aS'40434933'
p462
aS'49683101'
p463
ag106
ag188
aS'58866007'
p464
ag227
aS'83266686'
p465
ag371
aS'20331158'
p466
aS'34872117'
p467
ag242
aS'23798155'
p468
ag41
asg53
I1000
sg55
Nsg60
(iread_data3
Room
p469
(dp470
g53
g182
sg58
g183
sbsg65
g148
sg67
g303
sg58
S'Architectuur en computerorganisatie'
p471
sba(ischedule
Activity
p472
(dp473
g8
(lp474
g74
ag289
ag11
ag379
aS'88627897'
p475
ag47
ag346
aS'36508571'
p476
aS'70113753'
p477
aS'39459642'
p478
aS'72796858'
p479
ag49
aS'61611295'
p480
ag367
asg53
S'10'
p481
sg55
(ischedule
Group
p482
(dp483
g8
g474
sg58
S'Autonomous Agents 23'
p484
sbsg60
(iread_data3
Room
p485
(dp486
g53
g211
sg58
g212
sbsg65
g66
sg67
g99
sg58
S'Autonomous Agents 2'
p487
sba(ischedule
Activity
p488
(dp489
g8
(lp490
S'74131924'
p491
ag113
aS'45414528'
p492
aS'99453514'
p493
aS'25330192'
p494
ag370
ag104
aS'70878567'
p495
ag105
ag163
aS'93023961'
p496
ag201
aS'81200278'
p497
aS'87900893'
p498
ag13
aS'91196968'
p499
aS'13116738'
p500
ag363
aS'87314964'
p501
aS'68360259'
p502
aS'19337738'
p503
aS'97136582'
p504
asg53
S'10'
p505
sg55
(ischedule
Group
p506
(dp507
g8
g490
sg58
S'Data Mining2'
p508
sbsg60
(iread_data3
Room
p509
(dp510
g53
g96
sg58
g97
sbsg65
g98
sg67
g303
sg58
S'Data Mining'
p511
sbaa(lp512
(ischedule
Activity
p513
(dp514
g8
(lp515
S'5368702'
p516
aS'75759231'
p517
ag174
ag164
ag128
aS'31194811'
p518
ag170
aS'24613625'
p519
aS'54772132'
p520
aS'80135353'
p521
ag324
aS'3407554'
p522
ag318
ag272
aS'34243356'
p523
aS'79033175'
p524
ag153
aS'65852230'
p525
aS'88636924'
p526
aS'92665222'
p527
ag463
ag266
ag20
ag343
aS'94687383'
p528
ag251
ag77
aS'53202517'
p529
aS'66701209'
p530
ag478
aS'43689934'
p531
ag162
aS'34110913'
p532
aS'75664412'
p533
ag467
ag379
ag240
ag110
aS'5595824'
p534
ag232
aS'46989508'
p535
aS'95007221'
p536
aS'15911353'
p537
aS'76802764'
p538
ag415
ag111
ag362
ag403
aS'2317551'
p539
ag465
ag479
aS'40791377'
p540
ag267
ag237
aS'11741347'
p541
ag369
aS'9067939'
p542
ag380
ag130
aS'2079771'
p543
ag190
ag418
aS'68315599'
p544
aS'30658799'
p545
ag48
ag410
aS'8464817'
p546
aS'44391517'
p547
ag30
asg53
I1000
sg55
Nsg60
(iread_data3
Room
p548
(dp549
g53
g388
sg58
g389
sbsg65
g148
sg67
g68
sg58
S'Compilerbouw'
p550
sba(ischedule
Activity
p551
(dp552
g8
(lp553
g249
ag128
aS'78821918'
p554
aS'62736669'
p555
ag250
ag165
ag437
ag235
ag114
ag257
aS'77960666'
p556
ag467
ag122
aS'56191333'
p557
aS'5085194'
p558
ag311
aS'15187217'
p559
aS'17092717'
p560
ag314
ag79
aS'72456780'
p561
aS'4529208'
p562
ag399
ag255
ag344
ag421
ag342
aS'56121590'
p563
aS'5526560'
p564
ag141
ag247
ag167
aS'26207525'
p565
ag83
ag172
ag404
ag75
aS'3168419'
p566
ag310
ag105
ag535
aS'23257088'
p567
aS'86180471'
p568
aS'47477884'
p569
ag478
ag395
aS'83869542'
p570
ag462
aS'12091019'
p571
ag479
ag143
aS'13132925'
p572
aS'54540997'
p573
ag73
ag49
ag251
aS'58083680'
p574
aS'25077484'
p575
ag106
ag137
aS'59397895'
p576
ag195
aS'247918'
p577
ag170
aS'4921119'
p578
ag74
aS'51542218'
p579
aS'37701751'
p580
aS'27123462'
p581
aS'29526540'
p582
aS'90474003'
p583
aS'60352393'
p584
asg53
I1000
sg55
Nsg60
(iread_data3
Room
p585
(dp586
g53
g146
sg58
g147
sbsg65
g148
sg67
g68
sg58
S'Databases 2'
p587
sba(ischedule
Activity
p588
(dp589
g8
(lp590
g81
ag11
ag361
ag87
ag19
ag231
aS'94930277'
p591
ag381
ag220
aS'45660925'
p592
aS'79879876'
p593
ag199
ag291
ag419
aS'83443653'
p594
ag459
aS'81218347'
p595
ag17
ag370
aS'76393508'
p596
aS'66122625'
p597
ag157
ag244
ag121
ag466
aS'59075181'
p598
ag289
aS'53775014'
p599
ag310
aS'97019450'
p600
aS'97417002'
p601
aS'92977271'
p602
aS'87210640'
p603
aS'71839156'
p604
aS'4353500'
p605
ag275
aS'20830477'
p606
asg53
g347
sg55
(ischedule
Group
p607
(dp608
g8
g590
sg58
S'Heuristieken 12'
p609
sbsg60
(iread_data3
Room
p610
(dp611
g53
g182
sg58
g183
sbsg65
g98
sg67
g303
sg58
g353
sba(ischedule
Activity
p612
(dp613
g8
(lp614
g105
ag112
ag52
ag123
ag142
ag118
ag134
ag107
ag124
ag111
ag115
ag129
ag140
ag108
ag127
ag138
ag120
ag136
ag28
asg53
S'25'
p615
sg55
(ischedule
Group
p616
(dp617
g8
g614
sg58
S'Algoritmen en complexiteit2'
p618
sbsg60
(iread_data3
Room
p619
(dp620
g53
g281
sg58
g282
sbsg65
g98
sg67
g303
sg58
g149
sba(ischedule
Activity
p621
(dp622
g8
(lp623
g495
ag88
ag457
aS'32204977'
p624
ag117
asg53
S'15'
p625
sg55
(ischedule
Group
p626
(dp627
g8
g623
sg58
S'Informatie- en organsatieontwerp1'
p628
sbsg60
(iread_data3
Room
p629
(dp630
g53
g96
sg58
g97
sbsg65
g98
sg67
g68
sg58
S'Informatie- en organsatieontwerp'
p631
sba(ischedule
Activity
p632
(dp633
g8
(lp634
g113
ag85
ag219
ag253
ag234
asg53
g448
sg55
(ischedule
Group
p635
(dp636
g8
g634
sg58
S'Collectieve Intelligentie2'
p637
sbsg60
(iread_data3
Room
p638
(dp639
g53
g211
sg58
g212
sbsg65
g66
sg67
g303
sg58
g261
sba(ischedule
Activity
p640
(dp641
g8
(lp642
S'17823206'
p643
ag290
aS'98780382'
p644
asg53
S'10'
p645
sg55
(ischedule
Group
p646
(dp647
g8
g642
sg58
S'Data Mining1'
p648
sbsg60
(iread_data3
Room
p649
(dp650
g53
g63
sg58
g64
sbsg65
g66
sg67
g68
sg58
g511
sbaa(lp651
(ischedule
Activity
p652
(dp653
g8
(lp654
g560
aS'76648468'
p655
aS'20618153'
p656
aS'53512831'
p657
aS'77392404'
p658
aS'39230359'
p659
ag371
ag377
ag110
aS'66034145'
p660
aS'14847953'
p661
aS'69459473'
p662
ag122
ag242
ag239
aS'49908313'
p663
ag45
ag225
ag118
aS'5615125'
p664
aS'24891081'
p665
ag591
ag462
aS'67073567'
p666
aS'16333449'
p667
aS'41790793'
p668
aS'14303208'
p669
aS'2416751'
p670
ag249
ag27
aS'22288615'
p671
ag529
aS'6249823'
p672
ag193
aS'1137946'
p673
aS'10698627'
p674
aS'27064249'
p675
aS'76903244'
p676
aS'28358060'
p677
asg53
I1000
sg55
Nsg60
(iread_data3
Room
p678
(dp679
g53
g182
sg58
g183
sbsg65
g148
sg67
g68
sg58
S'Webprogrammeren en databases'
p680
sba(ischedule
Activity
p681
(dp682
g8
(lp683
g190
ag378
ag159
aS'61518436'
p684
aS'68286356'
p685
aS'70193386'
p686
ag265
aS'20095994'
p687
ag422
ag83
ag295
aS'60661905'
p688
ag308
ag493
ag436
ag167
ag286
aS'51415617'
p689
aS'54569540'
p690
aS'36785409'
p691
ag290
ag128
ag287
ag289
ag171
ag11
aS'92778619'
p692
aS'27805666'
p693
aS'22826928'
p694
ag12
ag380
aS'41578612'
p695
ag296
ag294
ag583
ag84
ag52
ag584
aS'51052738'
p696
ag204
aS'70844780'
p697
ag291
aS'5298748'
p698
ag288
ag293
ag193
ag142
ag292
ag556
ag658
aS'27370083'
p699
asg53
I1000
sg55
Nsg60
(iread_data3
Room
p700
(dp701
g53
g63
sg58
g64
sbsg65
g148
sg67
g303
sg58
g304
sba(ischedule
Activity
p702
(dp703
g8
g515
sg53
I1000
sg55
Nsg60
(iread_data3
Room
p704
(dp705
g53
g146
sg58
g147
sbsg65
g148
sg67
g303
sg58
g550
sba(ischedule
Activity
p706
(dp707
g8
(lp708
g106
ag130
ag137
ag141
ag143
ag110
ag121
ag114
ag122
ag126
ag119
ag117
ag42
ag125
ag104
ag116
ag131
ag113
ag135
ag128
ag109
ag139
ag132
ag133
asg53
S'25'
p709
sg55
(ischedule
Group
p710
(dp711
g8
g708
sg58
S'Algoritmen en complexiteit1'
p712
sbsg60
(iread_data3
Room
p713
(dp714
g53
g388
sg58
g389
sbsg65
g66
sg67
g68
sg58
g149
sba(ischedule
Activity
p715
(dp716
g8
(lp717
g319
ag367
asg53
g176
sg55
(ischedule
Group
p718
(dp719
g8
g717
sg58
S'Project Numerical Recipes2'
p720
sbsg60
(iread_data3
Room
p721
(dp722
g53
g96
sg58
g97
sbsg65
g66
sg67
g303
sg58
g184
sba(ischedule
Activity
p723
(dp724
g8
(lp725
g491
ag105
ag358
aS'34806836'
p726
asg53
S'10'
p727
sg55
(ischedule
Group
p728
(dp729
g8
g725
sg58
S'Autonomous Agents 21'
p730
sbsg60
(iread_data3
Room
p731
(dp732
g53
g211
sg58
g212
sbsg65
g98
sg67
g68
sg58
g487
sbaaa(lp733
(lp734
(ischedule
Activity
p735
(dp736
g8
(lp737
g20
ag30
ag539
ag324
ag547
ag535
ag518
ag544
ag240
ag534
ag531
ag543
ag529
ag130
ag526
ag520
ag415
ag546
ag267
ag266
ag237
ag478
ag517
ag77
ag251
ag272
ag516
ag410
ag403
ag318
ag521
asg53
S'40'
p738
sg55
(ischedule
Group
p739
(dp740
g8
g737
sg58
S'Compilerbouw1'
p741
sbsg60
(iread_data3
Room
p742
(dp743
g53
g388
sg58
g389
sbsg65
g66
sg67
g68
sg58
g550
sba(ischedule
Activity
p744
(dp745
g8
(lp746
g624
ag255
aS'74361881'
p747
aS'535689'
p748
aS'82066165'
p749
aS'64418623'
p750
aS'1695839'
p751
aS'25994016'
p752
ag406
aS'47260040'
p753
aS'99272880'
p754
aS'65675896'
p755
ag459
ag138
aS'5892092'
p756
aS'44151631'
p757
asg53
S'15'
p758
sg55
(ischedule
Group
p759
(dp760
g8
g746
sg58
S'Compilerbouw practicum2'
p761
sbsg60
(iread_data3
Room
p762
(dp763
g53
g211
sg58
g212
sbsg65
g66
sg67
g303
sg58
S'Compilerbouw practicum'
p764
sba(ischedule
Activity
p765
(dp766
g8
(lp767
g292
aS'78822885'
p768
aS'82854435'
p769
ag695
ag87
ag193
ag374
ag397
aS'62613937'
p770
aS'48678993'
p771
ag534
ag247
ag468
ag257
ag554
ag325
ag594
aS'18266644'
p772
aS'72586808'
p773
ag363
aS'73350019'
p774
aS'94955328'
p775
ag523
ag558
ag314
ag600
aS'56815156'
p776
ag691
ag561
ag160
ag578
ag373
ag191
ag686
aS'18477924'
p777
ag688
ag17
ag368
aS'14637758'
p778
aS'58480929'
p779
aS'88737765'
p780
aS'97838175'
p781
ag378
aS'34900967'
p782
ag411
aS'80188025'
p783
ag11
ag579
aS'85335143'
p784
asg53
I1000
sg55
Nsg60
(iread_data3
Room
p785
(dp786
g53
g146
sg58
g147
sbsg65
g148
sg67
g68
sg58
S'Analysemethoden en -technieken'
p787
sba(ischedule
Activity
p788
(dp789
g8
(lp790
g164
ag519
ag524
ag527
ag162
ag110
ag232
ag111
ag369
ag380
ag523
ag190
ag128
ag545
ag479
ag465
ag343
ag362
ag525
ag522
ag170
ag541
ag530
ag538
ag48
ag463
ag537
ag379
ag533
ag153
ag542
ag418
ag536
ag528
ag467
ag540
ag174
ag532
asg53
g738
sg55
(ischedule
Group
p791
(dp792
g8
g790
sg58
S'Compilerbouw2'
p793
sbsg60
(iread_data3
Room
p794
(dp795
g53
g182
sg58
g183
sbsg65
g66
sg67
g303
sg58
g550
sba(ischedule
Activity
p796
(dp797
g8
(lp798
g495
ag577
ag497
ag232
ag250
aS'30195935'
p799
aS'28359697'
p800
aS'30050930'
p801
ag519
ag582
asg53
S'20'
p802
sg55
(ischedule
Group
p803
(dp804
g8
g798
sg58
S'Bioinformatica2'
p805
sbsg60
(iread_data3
Room
p806
(dp807
g53
g281
sg58
g282
sbsg65
g66
sg67
g303
sg58
S'Bioinformatica'
p808
sba(ischedule
Activity
p809
(dp810
g8
g642
sg53
g505
sg55
g646
sg60
(iread_data3
Room
p811
(dp812
g53
g96
sg58
g97
sbsg65
g98
sg67
g68
sg58
g511
sba(ischedule
Activity
p813
(dp814
g8
g634
sg53
S'20'
p815
sg55
g635
sg60
(iread_data3
Room
p816
(dp817
g53
g63
sg58
g64
sbsg65
g98
sg67
g303
sg58
g261
sbaa(lp818
(ischedule
Activity
p819
(dp820
g8
g217
sg53
I1000
sg55
Nsg60
(iread_data3
Room
p821
(dp822
g53
g388
sg58
g389
sbsg65
g148
sg67
g303
sg58
g261
sba(ischedule
Activity
p823
(dp824
g8
(lp825
g475
ag480
ag74
ag726
ag47
ag346
ag478
ag367
ag379
ag49
aS'62872965'
p826
ag358
ag491
ag11
ag289
ag476
ag191
ag477
ag345
ag479
ag105
ag124
asg53
I1000
sg55
Nsg60
(iread_data3
Room
p827
(dp828
g53
g63
sg58
g64
sbsg65
g148
sg67
g303
sg58
g487
sba(ischedule
Activity
p829
(dp830
g8
(lp831
S'63408522'
p832
ag659
aS'47605891'
p833
aS'91139627'
p834
aS'39659121'
p835
ag775
aS'69086548'
p836
aS'14398123'
p837
ag243
aS'56988998'
p838
ag190
aS'79858178'
p839
ag439
ag690
ag415
ag26
ag73
aS'82688900'
p840
ag754
ag342
ag598
ag419
ag366
aS'24875739'
p841
ag437
ag142
ag516
ag368
aS'7492204'
p842
aS'79366078'
p843
ag171
aS'72547110'
p844
ag192
ag247
aS'77636749'
p845
aS'44940353'
p846
ag376
ag107
aS'58469172'
p847
aS'65003379'
p848
aS'34262212'
p849
ag579
aS'38329455'
p850
aS'23391676'
p851
aS'20883994'
p852
aS'10872825'
p853
ag51
ag329
ag466
aS'97371272'
p854
ag132
aS'51186803'
p855
aS'78735049'
p856
ag523
ag121
ag319
ag600
aS'32705005'
p857
ag684
ag233
ag232
ag499
aS'63955238'
p858
ag359
ag321
ag286
ag10
ag406
ag664
ag468
aS'38499176'
p859
ag395
ag86
aS'37498675'
p860
ag772
aS'76924297'
p861
aS'39919665'
p862
ag410
ag643
ag38
ag119
ag595
ag379
ag127
asg53
I1000
sg55
Nsg60
(iread_data3
Room
p863
(dp864
g53
g146
sg58
g147
sbsg65
g148
sg67
g68
sg58
S'Kansrekenen 2'
p865
sba(ischedule
Activity
p866
(dp867
g8
(lp868
g405
ag784
ag27
ag137
ag109
ag24
ag369
ag287
ag544
ag36
aS'41489515'
p869
ag396
ag174
ag45
aS'27916487'
p870
ag344
aS'36527838'
p871
ag582
ag231
ag465
ag545
ag293
aS'13218321'
p872
aS'48198668'
p873
ag554
aS'63111000'
p874
ag541
aS'15051051'
p875
ag315
asg53
S'20'
p876
sg55
(ischedule
Group
p877
(dp878
g8
g868
sg58
S'Moderne Databases2'
p879
sbsg60
(iread_data3
Room
p880
(dp881
g53
g182
sg58
g183
sbsg65
g66
sg67
g303
sg58
g100
sba(ischedule
Activity
p882
(dp883
g8
(lp884
g686
ag699
ag695
ag12
ag692
ag698
ag128
ag691
ag694
ag193
ag380
ag687
ag378
ag696
ag493
ag583
ag556
ag159
asg53
g297
sg55
(ischedule
Group
p885
(dp886
g8
g884
sg58
S'Reflectie op de digitale cultuur3'
p887
sbsg60
(iread_data3
Room
p888
(dp889
g53
g211
sg58
g212
sbsg65
g98
sg67
g99
sg58
g304
sbaa(lp890
(ischedule
Activity
p891
(dp892
g8
g217
sg53
I1000
sg55
Nsg60
(iread_data3
Room
p893
(dp894
g53
g146
sg58
g147
sbsg65
g148
sg67
g99
sg58
g261
sba(ischedule
Activity
p895
(dp896
g8
(lp897
g502
ag491
ag503
ag492
ag504
ag498
ag500
ag493
ag495
ag494
ag499
ag496
ag104
ag113
ag201
ag290
ag370
ag363
ag644
ag597
ag105
ag501
ag497
ag13
ag163
ag643
ag289
asg53
I1000
sg55
Nsg60
(iread_data3
Room
p898
(dp899
g53
g63
sg58
g64
sbsg65
g148
sg67
g68
sg58
g511
sba(ischedule
Activity
p900
(dp901
g8
(lp902
g491
ag852
ag20
ag308
ag497
ag232
ag29
ag192
ag698
ag529
ag495
ag37
aS'66120270'
p903
ag160
ag582
ag801
ag395
ag324
ag577
ag566
ag800
ag776
ag342
ag51
ag875
ag694
ag419
ag784
ag47
ag377
ag156
aS'33930505'
p904
ag372
ag21
ag402
ag519
ag113
ag315
ag381
ag799
ag310
ag287
ag123
ag327
ag250
asg53
I1000
sg55
Nsg60
(iread_data3
Room
p905
(dp906
g53
g388
sg58
g389
sbsg65
g148
sg67
g68
sg58
g808
sba(ischedule
Activity
p907
(dp908
g8
(lp909
g191
ag826
ag124
ag345
asg53
g727
sg55
(ischedule
Group
p910
(dp911
g8
g909
sg58
S'Autonomous Agents 22'
p912
sbsg60
(iread_data3
Room
p913
(dp914
g53
g211
sg58
g212
sbsg65
g98
sg67
g303
sg58
g487
sba(ischedule
Activity
p915
(dp916
g8
(lp917
g861
ag376
ag107
ag564
ag662
ag837
ag394
aS'51673172'
p918
ag780
ag380
asg53
S'15'
p919
sg55
(ischedule
Group
p920
(dp921
g8
g917
sg58
S'Project Genetic Algorithms2'
p922
sbsg60
(iread_data3
Room
p923
(dp924
g53
g281
sg58
g282
sbsg65
g66
sg67
g303
sg58
S'Project Genetic Algorithms'
p925
sba(ischedule
Activity
p926
(dp927
g8
g708
sg53
g615
sg55
g710
sg60
(iread_data3
Room
p928
(dp929
g53
g96
sg58
g97
sbsg65
g98
sg67
g68
sg58
g149
sbaa(lp930
(ischedule
Activity
p931
(dp932
g8
(lp933
g658
ag118
ag462
ag667
ag249
ag672
ag675
ag657
ag669
ag664
ag193
ag656
ag661
ag560
ag676
ag659
ag655
ag660
ag671
ag663
asg53
S'20'
p934
sg55
(ischedule
Group
p935
(dp936
g8
g933
sg58
S'Webprogrammeren en databases1'
p937
sbsg60
(iread_data3
Room
p938
(dp939
g53
g96
sg58
g97
sbsg65
g98
sg67
g68
sg58
g680
sba(ischedule
Activity
p940
(dp941
g8
(lp942
g287
ag852
ag566
ag51
ag372
ag29
ag694
ag342
ag20
ag419
ag324
ag381
ag192
ag308
ag776
ag698
ag327
ag395
ag402
ag310
asg53
S'20'
p943
sg55
(ischedule
Group
p944
(dp945
g8
g942
sg58
S'Bioinformatica3'
p946
sbsg60
(iread_data3
Room
p947
(dp948
g53
g211
sg58
g212
sbsg65
g98
sg67
g99
sg58
g808
sba(ischedule
Activity
p949
(dp950
g8
(lp951
g491
ag784
ag113
ag875
ag377
ag315
ag123
ag47
ag160
ag904
ag156
ag529
ag903
ag37
ag21
asg53
g943
sg55
(ischedule
Group
p952
(dp953
g8
g951
sg58
S'Bioinformatica1'
p954
sbsg60
(iread_data3
Room
p955
(dp956
g53
g63
sg58
g64
sbsg65
g98
sg67
g68
sg58
g808
sba(ischedule
Activity
p957
(dp958
g8
(lp959
S'19958553'
p960
ag544
ag231
ag291
ag423
ag602
ag624
aS'17496687'
p961
aS'8557857'
p962
ag88
ag772
ag73
ag567
ag248
ag495
ag117
ag346
ag845
aS'11459236'
p963
ag457
ag500
asg53
I1000
sg55
Nsg60
(iread_data3
Room
p964
(dp965
g53
g146
sg58
g147
sbsg65
g148
sg67
g303
sg58
g631
sba(ischedule
Activity
p966
(dp967
g8
(lp968
g105
ag42
aS'72652638'
p969
ag27
ag125
aS'82968410'
p970
ag258
aS'87602030'
p971
ag497
aS'35315956'
p972
ag257
ag570
ag771
ag406
ag239
asg53
g205
sg55
(ischedule
Group
p973
(dp974
g8
g968
sg58
S'Heuristieken 22'
p975
sbsg60
(iread_data3
Room
p976
(dp977
g53
g281
sg58
g282
sbsg65
g98
sg67
g303
sg58
g213
sba(ischedule
Activity
p978
(dp979
g8
g790
sg53
S'40'
p980
sg55
g791
sg60
(iread_data3
Room
p981
(dp982
g53
g182
sg58
g183
sbsg65
g98
sg67
g303
sg58
g550
sba(ischedule
Activity
p983
(dp984
g8
(lp985
g228
ag74
ag112
ag231
ag104
ag225
ag251
ag226
ag134
ag236
ag19
ag224
ag255
ag83
ag243
ag81
ag75
ag221
ag240
ag218
ag15
ag242
ag244
ag18
ag247
ag238
asg53
g448
sg55
(ischedule
Group
p986
(dp987
g8
g985
sg58
S'Collectieve Intelligentie3'
p988
sbsg60
(iread_data3
Room
p989
(dp990
g53
g388
sg58
g389
sbsg65
g66
sg67
g99
sg58
g261
sbaa(lp991
(ischedule
Activity
p992
(dp993
g8
(lp994
g10
ag357
ag11
ag48
ag29
ag21
ag378
ag22
ag52
ag23
ag371
ag26
ag12
ag27
ag376
ag358
ag104
ag359
ag109
ag43
ag13
ag235
ag24
ag373
ag14
ag375
ag367
ag33
ag381
ag360
ag15
ag361
ag38
ag140
ag16
ag37
ag45
ag362
ag17
ag32
ag116
ag51
ag46
ag25
ag49
ag35
ag127
ag39
ag119
ag41
ag28
ag363
ag380
ag364
ag372
ag30
ag18
ag50
ag19
ag40
ag369
ag377
ag370
ag42
ag368
ag31
ag47
ag34
ag374
ag44
ag36
ag365
ag379
ag366
ag20
asg53
I1000
sg55
Nsg60
(iread_data3
Room
p995
(dp996
g53
g146
sg58
g147
sbsg65
g148
sg67
g68
sg58
g69
sba(ischedule
Activity
p997
(dp998
g8
(lp999
g755
ag270
aS'28055464'
p1000
ag131
aS'20374340'
p1001
aS'69634191'
p1002
ag403
ag516
ag660
ag273
ag295
ag409
aS'64768422'
p1003
ag111
ag580
aS'93566383'
p1004
ag23
ag234
aS'21677389'
p1005
ag661
ag108
ag861
ag322
ag125
ag497
asg53
I1000
sg55
Nsg60
(iread_data3
Room
p1006
(dp1007
g53
g182
sg58
g183
sbsg65
g148
sg67
g68
sg58
S'Interactie-ontwerp'
p1008
sba(ischedule
Activity
p1009
(dp1010
g8
(lp1011
g697
ag168
ag87
ag584
ag527
ag569
asg53
S'10'
p1012
sg55
(ischedule
Group
p1013
(dp1014
g8
g1011
sg58
S'Advanced Heuristics1'
p1015
sbsg60
(iread_data3
Room
p1016
(dp1017
g53
g281
sg58
g282
sbsg65
g66
sg67
g68
sg58
S'Advanced Heuristics'
p1018
sba(ischedule
Activity
p1019
(dp1020
g8
(lp1021
g73
ag960
ag544
ag231
ag602
ag346
ag291
ag963
ag772
ag845
ag567
ag248
ag500
ag962
ag423
ag961
asg53
g625
sg55
(ischedule
Group
p1022
(dp1023
g8
g1021
sg58
S'Informatie- en organsatieontwerp2'
p1024
sbsg60
(iread_data3
Room
p1025
(dp1026
g53
g211
sg58
g212
sbsg65
g98
sg67
g303
sg58
g631
sba(ischedule
Activity
p1027
(dp1028
g8
g902
sg53
I1000
sg55
Nsg60
(iread_data3
Room
p1029
(dp1030
g53
g63
sg58
g64
sbsg65
g148
sg67
g303
sg58
g808
sba(ischedule
Activity
p1031
(dp1032
g8
(lp1033
g478
ag684
ag171
aS'67625383'
p1034
ag838
ag468
ag543
ag129
ag13
ag189
ag422
aS'33252501'
p1035
ag243
ag874
ag463
ag540
aS'26857113'
p1036
ag376
aS'90067329'
p1037
ag42
ag410
ag875
asg53
I1000
sg55
Nsg60
(iread_data3
Room
p1038
(dp1039
g53
g96
sg58
g97
sbsg65
g148
sg67
g303
sg58
S'Machine Learning'
p1040
sbaaa(lp1041
(lp1042
(ischedule
Activity
p1043
(dp1044
g8
g447
sg53
g815
sg55
g449
sg60
(iread_data3
Room
p1045
(dp1046
g53
g63
sg58
g64
sbsg65
g98
sg67
g68
sg58
g261
sba(ischedule
Activity
p1047
(dp1048
g8
g868
sg53
g90
sg55
g877
sg60
(iread_data3
Room
p1049
(dp1050
g53
g182
sg58
g183
sbsg65
g98
sg67
g303
sg58
g100
sba(ischedule
Activity
p1051
(dp1052
g8
(lp1053
g141
ag556
ag342
ag539
aS'88597745'
p1054
ag395
aS'47982619'
p1055
ag436
ag492
ag593
ag851
ag849
ag314
ag120
aS'90296821'
p1056
aS'73893840'
p1057
ag406
ag1004
aS'12782624'
p1058
ag520
asg53
S'20'
p1059
sg55
(ischedule
Group
p1060
(dp1061
g8
g1053
sg58
S'Programmeren in Java 25'
p1062
sbsg60
(iread_data3
Room
p1063
(dp1064
g53
g388
sg58
g389
sbsg65
g66
sg67
S'5'
p1065
sg58
S'Programmeren in Java 2'
p1066
sba(ischedule
Activity
p1067
(dp1068
g8
g933
sg53
S'20'
p1069
sg55
g935
sg60
(iread_data3
Room
p1070
(dp1071
g53
g211
sg58
g212
sbsg65
g66
sg67
g68
sg58
g680
sba(ischedule
Activity
p1072
(dp1073
g8
g825
sg53
I1000
sg55
Nsg60
(iread_data3
Room
p1074
(dp1075
g53
g281
sg58
g282
sbsg65
g148
sg67
g68
sg58
g487
sba(ischedule
Activity
p1076
(dp1077
g8
(lp1078
g400
ag522
ag77
ag21
ag604
aS'91250534'
p1079
ag381
ag859
ag134
aS'55103073'
p1080
ag29
aS'23215240'
p1081
aS'14383795'
p1082
aS'42297781'
p1083
ag558
ag52
ag918
ag104
asg53
g758
sg55
(ischedule
Group
p1084
(dp1085
g8
g1078
sg58
S'Compilerbouw practicum3'
p1086
sbsg60
(iread_data3
Room
p1087
(dp1088
g53
g146
sg58
g147
sbsg65
g66
sg67
g99
sg58
g764
sbaa(lp1089
(ischedule
Activity
p1090
(dp1091
g8
g737
sg53
g980
sg55
g739
sg60
(iread_data
Room
p1092
(dp1093
g53
S'56'
p1094
sg58
S'A1.10'
p1095
sbsg65
g98
sg67
g68
sg58
g550
sba(ischedule
Activity
p1096
(dp1097
g8
(lp1098
g242
ag225
ag27
ag529
ag110
ag673
ag45
ag239
ag674
ag377
ag662
ag666
ag122
ag665
ag677
ag591
ag668
ag371
ag670
asg53
g1069
sg55
(ischedule
Group
p1099
(dp1100
g8
g1098
sg58
S'Webprogrammeren en databases2'
p1101
sbsg60
(iread_data3
Room
p1102
(dp1103
g53
g96
sg58
g97
sbsg65
g66
sg67
g303
sg58
g680
sba(ischedule
Activity
p1104
(dp1105
g8
(lp1106
g464
ag363
ag595
ag251
ag164
aS'16011419'
p1107
ag402
ag361
ag859
aS'54074680'
p1108
ag1004
ag476
aS'26172512'
p1109
ag250
ag695
ag165
ag404
ag118
ag319
ag162
ag358
ag499
ag578
aS'96118484'
p1110
ag325
ag111
ag191
ag359
ag360
ag871
ag368
ag364
ag295
ag74
aS'34588570'
p1111
ag408
ag253
ag775
ag238
aS'79937969'
p1112
ag320
aS'80998260'
p1113
aS'21311067'
p1114
ag826
ag604
aS'32595335'
p1115
ag419
ag195
aS'90743504'
p1116
ag667
ag523
ag399
aS'66570705'
p1117
ag218
asg53
I1000
sg55
Nsg60
(iread_data3
Room
p1118
(dp1119
g53
g388
sg58
g389
sbsg65
g148
sg67
g68
sg58
S'Lineaire Algebra'
p1120
sba(ischedule
Activity
p1121
(dp1122
g8
g683
sg53
I1000
sg55
Nsg60
(iread_data3
Room
p1123
(dp1124
g53
g146
sg58
g147
sbsg65
g148
sg67
g68
sg58
g304
sba(ischedule
Activity
p1125
(dp1126
g8
(lp1127
S'77306636'
p1128
ag172
ag229
ag498
ag847
ag571
ag857
ag226
ag140
ag841
aS'6709529'
p1129
ag138
ag675
ag569
aS'22168693'
p1130
aS'34173695'
p1131
ag784
ag40
ag19
ag568
aS'37279234'
p1132
ag161
ag258
ag129
ag124
ag783
aS'70939718'
p1133
ag856
ag664
ag971
ag669
ag137
ag465
ag24
ag17
ag23
aS'31306819'
p1134
asg53
g332
sg55
(ischedule
Group
p1135
(dp1136
g8
g1127
sg58
S'Calculus 22'
p1137
sbsg60
(iread_data3
Room
p1138
(dp1139
g53
g182
sg58
g183
sbsg65
g98
sg67
g303
sg58
g338
sba(ischedule
Activity
p1140
(dp1141
g8
g1021
sg53
S'15'
p1142
sg55
g1022
sg60
(iread_data3
Room
p1143
(dp1144
g53
g211
sg58
g212
sbsg65
g66
sg67
g303
sg58
g631
sbaa(lp1145
(ischedule
Activity
p1146
(dp1147
g8
g1106
sg53
I1000
sg55
Nsg60
(iread_data3
Room
p1148
(dp1149
g53
g63
sg58
g64
sbsg65
g148
sg67
g303
sg58
g1120
sba(ischedule
Activity
p1150
(dp1151
g8
g9
sg53
g382
sg55
g56
sg60
(iread_data3
Room
p1152
(dp1153
g53
g146
sg58
g147
sbsg65
g98
sg67
g68
sg58
g69
sba(ischedule
Activity
p1154
(dp1155
g8
(lp1156
g691
ag369
ag370
ag346
ag533
ag203
aS'76487754'
p1157
aS'92496780'
p1158
ag836
ag255
ag254
ag1082
ag845
ag462
ag518
ag289
aS'21192048'
p1159
ag784
ag130
ag169
ag544
asg53
S'20'
p1160
sg55
(ischedule
Group
p1161
(dp1162
g8
g1156
sg58
S'Technology for games2'
p1163
sbsg60
(iread_data3
Room
p1164
(dp1165
g53
g182
sg58
g183
sbsg65
g98
sg67
g303
sg58
S'Technology for games'
p1166
sba(ischedule
Activity
p1167
(dp1168
g8
(lp1169
g235
ag153
ag357
ag365
ag436
ag107
ag494
ag563
ag432
aS'5590289'
p1170
ag156
ag565
ag771
ag329
aS'25557516'
p1171
ag504
ag497
ag697
asg53
S'20'
p1172
sg55
(ischedule
Group
p1173
(dp1174
g8
g1169
sg58
S'Netwerken en systeembeveiliging2'
p1175
sbsg60
(iread_data3
Room
p1176
(dp1177
g53
g211
sg58
g212
sbsg65
g66
sg67
g303
sg58
S'Netwerken en systeembeveiliging'
p1178
sba(ischedule
Activity
p1179
(dp1180
g8
(lp1181
g234
ag566
ag661
ag852
ag275
aS'39429093'
p1182
aS'40633534'
p1183
ag770
ag242
ag458
ag400
ag675
ag142
ag196
asg53
g1012
sg55
(ischedule
Group
p1184
(dp1185
g8
g1181
sg58
S'Advanced Heuristics2'
p1186
sbsg60
(iread_data3
Room
p1187
(dp1188
g53
g388
sg58
g389
sbsg65
g66
sg67
g303
sg58
g1018
sba(ischedule
Activity
p1189
(dp1190
g8
(lp1191
S'123355'
p1192
ag366
ag1133
aS'85284256'
p1193
ag773
aS'59887191'
p1194
ag201
ag229
ag772
aS'64246605'
p1195
ag555
ag748
asg53
g1172
sg55
(ischedule
Group
p1196
(dp1197
g8
g1191
sg58
S'Netwerken en systeembeveiliging1'
p1198
sbsg60
(iread_data3
Room
p1199
(dp1200
g53
g281
sg58
g282
sbsg65
g66
sg67
g68
sg58
g1178
sbaa(lp1201
(ischedule
Activity
p1202
(dp1203
g8
(lp1204
g254
aS'93041523'
p1205
ag234
ag691
ag784
ag1055
ag320
ag672
ag14
ag169
ag1157
ag462
ag130
ag369
aS'70336464'
p1206
ag845
ag164
ag1159
ag854
ag370
ag1158
ag231
ag344
ag346
ag1082
ag255
ag518
ag287
ag544
ag533
ag203
ag624
ag695
ag289
ag26
ag836
aS'4697362'
p1207
aS'77264363'
p1208
asg53
I1000
sg55
Nsg60
(iread_data3
Room
p1209
(dp1210
g53
g63
sg58
g64
sbsg65
g148
sg67
g303
sg58
g1166
sba(ischedule
Activity
p1211
(dp1212
g8
g456
sg53
I1000
sg55
Nsg60
(iread_data3
Room
p1213
(dp1214
g53
g146
sg58
g147
sbsg65
g148
sg67
g68
sg58
g471
sba(ischedule
Activity
p1215
(dp1216
g8
g798
sg53
g943
sg55
g803
sg60
(iread_data3
Room
p1217
(dp1218
g53
g281
sg58
g282
sbsg65
g98
sg67
g303
sg58
g808
sba(ischedule
Activity
p1219
(dp1220
g8
(lp1221
g684
ag83
ag308
ag167
ag171
ag688
ag584
ag697
ag658
ag685
ag190
ag436
ag690
ag422
ag689
ag265
ag693
asg53
g297
sg55
(ischedule
Group
p1222
(dp1223
g8
g1221
sg58
S'Reflectie op de digitale cultuur1'
p1224
sbsg60
(iread_data3
Room
p1225
(dp1226
g53
g388
sg58
g389
sbsg65
g98
sg67
g68
sg58
g304
sba(ischedule
Activity
p1227
(dp1228
g8
(lp1229
g195
ag694
ag73
aS'73196865'
p1230
ag418
ag547
ag376
ag324
ag329
ag671
ag1036
ag692
aS'39905995'
p1231
ag251
ag528
asg53
g1059
sg55
(ischedule
Group
p1232
(dp1233
g8
g1229
sg58
S'Programmeren in Java 23'
p1234
sbsg60
(iread_data
Room
p1235
(dp1236
g53
S'48'
p1237
sg58
S'B0.201'
p1238
sbsg65
g66
sg67
g99
sg58
g1066
sba(ischedule
Activity
p1239
(dp1240
g8
g474
sg53
g727
sg55
g482
sg60
(iread_data3
Room
p1241
(dp1242
g53
g182
sg58
g183
sbsg65
g98
sg67
g99
sg58
g487
sbaa(lp1243
(ischedule
Activity
p1244
(dp1245
g8
(lp1246
g121
ag599
ag370
ag81
ag291
ag11
ag601
ag361
ag598
ag87
ag275
ag19
ag594
ag602
ag603
ag597
ag199
ag197
ag289
ag604
ag593
ag157
ag244
ag310
ag605
ag231
ag342
ag595
ag17
ag592
ag419
ag591
ag143
ag381
ag606
ag344
ag600
ag466
ag596
ag345
ag343
ag220
ag459
ag346
asg53
I1000
sg55
Nsg60
(iread_data3
Room
p1247
(dp1248
g53
g96
sg58
g97
sbsg65
g148
sg67
g68
sg58
g353
sba(ischedule
Activity
p1249
(dp1250
g8
g831
sg53
I1000
sg55
Nsg60
(iread_data3
Room
p1251
(dp1252
g53
g146
sg58
g147
sbsg65
g148
sg67
g303
sg58
g865
sba(ischedule
Activity
p1253
(dp1254
g8
(lp1255
g128
ag165
ag560
ag562
ag255
ag167
ag83
ag105
ag395
ag462
ag479
ag572
ag195
ag584
ag257
ag344
ag570
ag141
ag437
ag170
ag311
ag561
ag467
ag137
ag573
ag114
ag535
ag583
ag122
ag478
ag581
ag567
ag49
ag576
ag106
ag558
asg53
S'40'
p1256
sg55
(ischedule
Group
p1257
(dp1258
g8
g1255
sg58
S'Databases 22'
p1259
sbsg60
(iread_data3
Room
p1260
(dp1261
g53
g182
sg58
g183
sbsg65
g98
sg67
g303
sg58
g587
sba(ischedule
Activity
p1262
(dp1263
g8
g951
sg53
g802
sg55
g952
sg60
(iread_data3
Room
p1264
(dp1265
g53
g211
sg58
g212
sbsg65
g66
sg67
g68
sg58
g808
sba(ischedule
Activity
p1266
(dp1267
g8
(lp1268
g188
aS'41644639'
p1269
ag554
ag237
ag747
ag256
ag420
ag129
ag293
ag530
ag575
ag358
ag15
ag403
ag1183
ag519
ag971
ag771
ag292
asg53
g919
sg55
(ischedule
Group
p1270
(dp1271
g8
g1268
sg58
S'Project Genetic Algorithms3'
p1272
sbsg60
(iread_data3
Room
p1273
(dp1274
g53
g388
sg58
g389
sbsg65
g66
sg67
g99
sg58
g925
sba(ischedule
Activity
p1275
(dp1276
g8
(lp1277
g36
aS'55480737'
p1278
aS'75680261'
p1279
ag752
ag749
ag695
ag568
asg53
g919
sg55
(ischedule
Group
p1280
(dp1281
g8
g1277
sg58
S'Project Genetic Algorithms1'
p1282
sbsg60
(iread_data3
Room
p1283
(dp1284
g53
g281
sg58
g282
sbsg65
g66
sg67
g68
sg58
g925
sba(ischedule
Activity
p1285
(dp1286
g8
g623
sg53
g1142
sg55
g626
sg60
(iread_data3
Room
p1287
(dp1288
g53
g63
sg58
g64
sbsg65
g66
sg67
g68
sg58
g631
sbaaa(lp1289
(lp1290
(ischedule
Activity
p1291
(dp1292
g8
g1204
sg53
I1000
sg55
Nsg60
g1235
sg65
g148
sg67
g68
sg58
g1166
sba(ischedule
Activity
p1293
(dp1294
g8
g1098
sg53
g934
sg55
g1099
sg60
(iread_data3
Room
p1295
(dp1296
g53
g211
sg58
g212
sbsg65
g98
sg67
g303
sg58
g680
sba(ischedule
Activity
p1297
(dp1298
g8
g614
sg53
g709
sg55
g616
sg60
(iread_data3
Room
p1299
(dp1300
g53
g63
sg58
g64
sbsg65
g66
sg67
g303
sg58
g149
sba(ischedule
Activity
p1301
(dp1302
g8
g431
sg53
g876
sg55
g440
sg60
(iread_data3
Room
p1303
(dp1304
g53
g281
sg58
g282
sbsg65
g66
sg67
g68
sg58
g100
sba(ischedule
Activity
p1305
(dp1306
g8
(lp1307
g554
ag559
ag399
ag342
ag247
ag172
ag75
ag310
ag568
ag143
ag577
ag579
ag74
ag575
ag569
ag79
ag250
ag563
ag314
ag404
ag249
ag251
ag557
ag578
ag582
ag421
ag565
ag574
ag73
ag235
ag571
ag556
ag566
ag580
ag555
ag564
asg53
g1256
sg55
(ischedule
Group
p1308
(dp1309
g8
g1307
sg58
S'Databases 21'
p1310
sbsg60
(iread_data3
Room
p1311
(dp1312
g53
g182
sg58
g183
sbsg65
g98
sg67
g68
sg58
g587
sba(ischedule
Activity
p1313
(dp1314
g8
g490
sg53
g645
sg55
g506
sg60
(iread_data3
Room
p1315
(dp1316
g53
g146
sg58
g147
sbsg65
g66
sg67
g303
sg58
g511
sba(ischedule
Activity
p1317
(dp1318
g8
(lp1319
g669
ag236
aS'51472074'
p1320
ag126
ag1269
ag963
asg53
g758
sg55
(ischedule
Group
p1321
(dp1322
g8
g1319
sg58
S'Compilerbouw practicum1'
p1323
sbsg60
(iread_data3
Room
p1324
(dp1325
g53
g388
sg58
g389
sbsg65
g66
sg67
g68
sg58
g764
sbaa(lp1326
(ischedule
Activity
p1327
(dp1328
g8
g902
sg53
I1000
sg55
Nsg60
(iread_data3
Room
p1329
(dp1330
g53
g96
sg58
g97
sbsg65
g148
sg67
g99
sg58
g808
sba(ischedule
Activity
p1331
(dp1332
g8
(lp1333
g289
ag597
asg53
g645
sg55
(ischedule
Group
p1334
(dp1335
g8
g1333
sg58
S'Data Mining3'
p1336
sbsg60
(iread_data3
Room
p1337
(dp1338
g53
g281
sg58
g282
sbsg65
g66
sg67
g99
sg58
g511
sba(ischedule
Activity
p1339
(dp1340
g8
(lp1341
g249
ag106
ag233
ag220
ag229
ag258
ag227
asg53
g815
sg55
(ischedule
Group
p1342
(dp1343
g8
g1341
sg58
S'Collectieve Intelligentie4'
p1344
sbsg60
(iread_data3
Room
p1345
(dp1346
g53
g63
sg58
g64
sbsg65
g98
sg67
S'4'
p1347
sg58
g261
sba(ischedule
Activity
p1348
(dp1349
g8
g985
sg53
g815
sg55
g986
sg60
(iread_data3
Room
p1350
(dp1351
g53
g146
sg58
g147
sbsg65
g98
sg67
g99
sg58
g261
sba(ischedule
Activity
p1352
(dp1353
g8
(lp1354
g168
ag770
ag584
ag242
ag675
ag275
ag196
ag234
ag527
ag566
ag852
ag1183
ag458
ag569
ag87
ag661
ag142
ag400
ag1182
ag697
asg53
I1000
sg55
Nsg60
(iread_data3
Room
p1355
(dp1356
g53
g211
sg58
g212
sbsg65
g148
sg67
g68
sg58
g1018
sba(ischedule
Activity
p1357
(dp1358
g8
(lp1359
g405
ag1193
ag254
ag235
ag128
ag567
ag84
ag295
aS'7386961'
p1360
ag270
ag670
ag39
ag499
ag13
ag22
ag874
asg53
g1059
sg55
(ischedule
Group
p1361
(dp1362
g8
g1359
sg58
S'Programmeren in Java 24'
p1363
sbsg60
(iread_data3
Room
p1364
(dp1365
g53
g182
sg58
g183
sbsg65
g66
sg67
g1347
sg58
g1066
sba(ischedule
Activity
p1366
(dp1367
g8
(lp1368
g189
ag847
ag859
ag163
ag79
aS'63096281'
p1369
ag410
aS'88263855'
p1370
ag674
ag477
ag200
ag46
ag153
ag121
ag478
ag34
ag842
aS'10702778'
p1371
aS'51791169'
p1372
ag117
ag754
ag245
ag248
ag782
ag643
aS'28943658'
p1373
ag267
ag138
ag239
asg53
g1059
sg55
(ischedule
Group
p1374
(dp1375
g8
g1368
sg58
S'Programmeren in Java 22'
p1376
sbsg60
(iread_data3
Room
p1377
(dp1378
g53
g388
sg58
g389
sbsg65
g66
sg67
g303
sg58
g1066
sbaa(lp1379
(ischedule
Activity
p1380
(dp1381
g8
(lp1382
g308
ag1128
ag325
ag137
ag172
ag394
ag309
ag331
ag17
ag1133
ag229
ag258
ag411
ag498
ag395
ag310
ag847
ag322
ag311
ag783
ag396
ag568
ag412
ag416
ag312
ag1134
ag397
ag465
ag571
ag398
ag313
ag329
ag161
ag129
ag857
ag399
ag228
ag226
ag421
ag76
ag140
ag400
ag419
ag420
ag112
ag314
ag327
ag401
ag188
ag841
ag402
ag315
ag124
ag403
ag664
ag1129
ag404
ag1132
ag138
ag415
ag413
ag423
ag225
ag316
ag675
ag405
ag418
ag569
ag406
ag326
ag324
ag86
ag317
ag321
ag22
ag23
ag1130
ag407
ag31
ag856
ag408
ag200
ag1131
ag191
ag24
ag971
ag170
ag328
ag669
ag417
ag318
ag323
ag330
ag319
ag784
ag409
ag320
ag40
ag374
ag422
ag414
ag410
ag87
ag19
ag275
ag372
asg53
I1000
sg55
Nsg60
(iread_data3
Room
p1383
(dp1384
g53
g146
sg58
g147
sbsg65
g148
sg67
g68
sg58
g338
sba(ischedule
Activity
p1385
(dp1386
g8
g959
sg53
I1000
sg55
Nsg60
(iread_data3
Room
p1387
(dp1388
g53
g96
sg58
g97
sbsg65
g148
sg67
g68
sg58
g631
sba(ischedule
Activity
p1389
(dp1390
g8
g654
sg53
I1000
sg55
Nsg60
(iread_data3
Room
p1391
(dp1392
g53
g63
sg58
g64
sbsg65
g148
sg67
g303
sg58
g680
sba(ischedule
Activity
p1393
(dp1394
g8
g1033
sg53
I1000
sg55
Nsg60
(iread_data3
Room
p1395
(dp1396
g53
g388
sg58
g389
sbsg65
g148
sg67
g68
sg58
g1040
sba(ischedule
Activity
p1397
(dp1398
g8
g725
sg53
g481
sg55
g728
sg60
(iread_data3
Room
p1399
(dp1400
g53
g182
sg58
g183
sbsg65
g66
sg67
g68
sg58
g487
sba(ischedule
Activity
p1401
(dp1402
g8
g1333
sg53
g505
sg55
g1334
sg60
(iread_data3
Room
p1403
(dp1404
g53
g281
sg58
g282
sbsg65
g98
sg67
g99
sg58
g511
sbaa(lp1405
(ischedule
Activity
p1406
(dp1407
g8
(lp1408
g27
ag203
ag194
ag191
ag188
ag105
ag189
ag42
ag125
ag200
ag195
ag570
ag201
ag969
ag202
ag198
ag196
ag193
ag257
ag192
ag971
ag190
ag239
ag197
ag199
ag406
ag497
ag258
ag970
ag771
ag204
ag972
asg53
I1000
sg55
Nsg60
(iread_data3
Room
p1409
(dp1410
g53
g388
sg58
g389
sbsg65
g148
sg67
g68
sg58
g213
sba(ischedule
Activity
p1411
(dp1412
g8
g356
sg53
g54
sg55
g383
sg60
(iread_data3
Room
p1413
(dp1414
g53
g146
sg58
g147
sbsg65
g66
sg67
g303
sg58
g69
sba(ischedule
Activity
p1415
(dp1416
g8
(lp1417
g584
ag533
ag244
ag658
aS'53267490'
p1418
ag520
ag168
ag557
ag346
ag111
ag561
ag155
ag837
ag292
ag903
ag598
aS'12170832'
p1419
ag1005
ag605
ag904
aS'19058315'
p1420
ag121
asg53
g1172
sg55
(ischedule
Group
p1421
(dp1422
g8
g1417
sg58
S'Netwerken en systeembeveiliging3'
p1423
sbsg60
(iread_data3
Room
p1424
(dp1425
g53
g96
sg58
g97
sbsg65
g66
sg67
g99
sg58
g1178
sba(ischedule
Activity
p1426
(dp1427
g8
(lp1428
g13
ag523
ag859
ag28
ag400
ag143
ag413
ag799
ag228
ag266
ag106
aS'16912993'
p1429
asg53
g1172
sg55
(ischedule
Group
p1430
(dp1431
g8
g1428
sg58
S'Netwerken en systeembeveiliging4'
p1432
sbsg60
(iread_data3
Room
p1433
(dp1434
g53
g211
sg58
g212
sbsg65
g66
sg67
g1347
sg58
g1178
sba(ischedule
Activity
p1435
(dp1436
g8
g72
sg53
g876
sg55
g91
sg60
(iread_data3
Room
p1437
(dp1438
g53
g182
sg58
g183
sbsg65
g66
sg67
g99
sg58
g100
sba(ischedule
Activity
p1439
(dp1440
g8
(lp1441
g234
ag320
ag14
ag164
ag695
ag26
ag1208
ag231
ag624
ag1206
ag1055
ag344
ag287
ag1205
ag672
ag1207
ag854
asg53
g1160
sg55
(ischedule
Group
p1442
(dp1443
g8
g1441
sg58
S'Technology for games1'
p1444
sbsg60
(iread_data3
Room
p1445
(dp1446
g53
g63
sg58
g64
sbsg65
g98
sg67
g68
sg58
g1166
sba(ischedule
Activity
p1447
(dp1448
g8
(lp1449
g521
ag308
ag330
ag546
ag1081
ag219
aS'88519892'
p1450
ag315
ag578
ag1132
ag606
aS'54395877'
p1451
ag226
ag113
asg53
g1059
sg55
(ischedule
Group
p1452
(dp1453
g8
g1449
sg58
S'Programmeren in Java 21'
p1454
sbsg60
(iread_data3
Room
p1455
(dp1456
g53
g281
sg58
g282
sbsg65
g66
sg67
g68
sg58
g1066
sbaa(lp1457
(ischedule
Activity
p1458
(dp1459
g8
g897
sg53
I1000
sg55
Nsg60
(iread_data3
Room
p1460
(dp1461
g53
g182
sg58
g183
sbsg65
g148
sg67
g303
sg58
g511
sba(ischedule
Activity
p1462
(dp1463
g8
g999
sg53
I1000
sg55
Nsg60
(iread_data3
Room
p1464
(dp1465
g53
g146
sg58
g147
sbsg65
g148
sg67
g303
sg58
g1008
sba(ischedule
Activity
p1466
(dp1467
g8
(lp1468
g554
ag405
ag436
ag437
ag45
ag545
ag36
ag784
ag433
ag544
ag231
ag874
ag293
ag869
ag396
ag75
ag27
ag287
ag84
ag137
ag872
ag369
ag871
ag541
ag582
ag432
ag73
ag82
ag344
ag86
ag77
ag81
ag875
ag439
ag465
ag873
ag435
ag79
ag74
ag88
ag315
ag89
ag87
ag76
ag24
ag80
ag438
ag870
ag434
ag109
ag85
ag83
ag174
ag78
asg53
I1000
sg55
Nsg60
(iread_data3
Room
p1469
(dp1470
g53
g63
sg58
g64
sbsg65
g148
sg67
g68
sg58
g100
sba(ischedule
Activity
p1471
(dp1472
g8
g1341
sg53
g448
sg55
g1342
sg60
(iread_data3
Room
p1473
(dp1474
g53
g211
sg58
g212
sbsg65
g66
sg67
g1347
sg58
g261
sba(ischedule
Activity
p1475
(dp1476
g8
(lp1477
g365
ag656
aS'64053722'
p1478
ag202
ag602
ag275
ag132
ag359
ag16
ag129
ag569
ag218
ag688
ag112
ag600
ag775
asg53
g1059
sg55
(ischedule
Group
p1479
(dp1480
g8
g1477
sg58
S'Programmeren in Java 26'
p1481
sbsg60
(iread_data3
Room
p1482
(dp1483
g53
g96
sg58
g97
sbsg65
g66
sg67
S'6'
p1484
sg58
g1066
sba(ischedule
Activity
p1485
(dp1486
g8
g942
sg53
g802
sg55
g944
sg60
(iread_data
Room
p1487
(dp1488
g53
S'60'
p1489
sg58
S'C1.112'
p1490
sbsg65
g66
sg67
g99
sg58
g808
sba(ischedule
Activity
p1491
(dp1492
g8
g909
sg53
g481
sg55
g910
sg60
(iread_data3
Room
p1493
(dp1494
g53
g281
sg58
g282
sbsg65
g66
sg67
g303
sg58
g487
sbaaa(lp1495
(lp1496
a(lp1497
a(lp1498
a(lp1499
a(lp1500
aasS'timeslot_dict'
p1501
(dp1502
I0
S'9:00-11:00'
p1503
sI1
S'11:00-13:00'
p1504
sI2
S'13:00-15:00'
p1505
sI3
S'15:00-17:00'
p1506
sI4
S'17:00-19:00'
p1507
ssS'day_dict'
p1508
(dp1509
I0
S'Monday'
p1510
sI1
S'Tuesday'
p1511
sI2
S'Wednesday'
p1512
sI3
S'Thursday'
p1513
sI4
S'Friday'
p1514
ssb.