(ischedule
Schedule
p0
(dp1
S'timetable'
p2
(lp3
(lp4
(lp5
(ischedule
Activity
p6
(dp7
S'participants'
p8
(lp9
S'58522654'
p10
aS'48503689'
p11
aS'88855695'
p12
aS'2079771'
p13
aS'31194811'
p14
aS'88636924'
p15
aS'75664412'
p16
aS'68315599'
p17
aS'2317551'
p18
aS'48308205'
p19
aS'95631564'
p20
aS'81385263'
p21
aS'24613625'
p22
aS'37770881'
p23
aS'88752563'
p24
aS'42778953'
p25
aS'3407554'
p26
aS'94687383'
p27
aS'15911353'
p28
aS'80135353'
p29
aS'49683101'
p30
aS'46989508'
p31
aS'34243356'
p32
aS'5368702'
p33
aS'83266686'
p34
aS'40791377'
p35
aS'8464817'
p36
aS'5595824'
p37
aS'43689934'
p38
aS'72796858'
p39
aS'7957843'
p40
aS'75759231'
p41
aS'84524083'
p42
aS'10792879'
p43
aS'92665222'
p44
aS'30658799'
p45
aS'27950803'
p46
aS'34110913'
p47
aS'11741347'
p48
aS'13284244'
p49
aS'95007221'
p50
aS'9067939'
p51
aS'75599734'
p52
aS'77896638'
p53
aS'65852230'
p54
aS'6723948'
p55
aS'66701209'
p56
aS'76661016'
p57
aS'86988337'
p58
aS'14309255'
p59
aS'60312776'
p60
aS'54772132'
p61
aS'65960683'
p62
aS'98105190'
p63
aS'11915563'
p64
aS'1766560'
p65
aS'13911001'
p66
aS'27187154'
p67
aS'73236988'
p68
aS'72895450'
p69
aS'12077419'
p70
aS'79033175'
p71
aS'53202517'
p72
aS'79167252'
p73
aS'86291592'
p74
aS'39459642'
p75
aS'76802764'
p76
aS'34872117'
p77
aS'44391517'
p78
asS'capacity'
p79
I1000
sS'name'
p80
S'Compilerbouw'
p81
sS'ttype'
p82
S'lectures'
p83
sS'group_id'
p84
I0
sS'room'
p85
(iread_data
Room
p86
(dp87
g79
S'60'
p88
sg80
S'C1.112'
p89
sbsba(ischedule
Activity
p90
(dp91
g8
(lp92
g30
aS'5976174'
p93
ag35
aS'56988998'
p94
ag67
aS'77240949'
p95
aS'38296757'
p96
aS'94467156'
p97
aS'90067329'
p98
aS'26857113'
p99
aS'23798155'
p100
aS'61518436'
p101
aS'85236626'
p102
aS'63111000'
p103
ag13
ag75
aS'15051051'
p104
aS'3685034'
p105
aS'33252501'
p106
aS'46701583'
p107
aS'67625383'
p108
aS'37744525'
p109
asg79
I1000
sg80
S'Machine Learning'
p110
sg82
g83
sg84
I0
sg85
(iread_data
Room
p111
(dp112
g79
S'22'
p113
sg80
S'A1.06'
p114
sbsba(ischedule
Activity
p115
(dp116
g8
(lp117
S'77392404'
p118
aS'57086672'
p119
aS'14303208'
p120
aS'43902015'
p121
aS'61443567'
p122
aS'14847953'
p123
aS'72577292'
p124
aS'78243495'
p125
aS'16333449'
p126
aS'76123484'
p127
aS'33877725'
p128
aS'49908313'
p129
aS'28358060'
p130
aS'94930277'
p131
aS'27064249'
p132
aS'66034145'
p133
aS'3474870'
p134
ag69
aS'69459473'
p135
aS'43460038'
p136
aS'53512831'
p137
aS'24891081'
p138
aS'64228258'
p139
aS'76648468'
p140
aS'2416751'
p141
aS'22288615'
p142
aS'89180944'
p143
asg79
S'20'
p144
sg80
S'Webprogrammeren en databases'
p145
sg82
S'labs'
p146
sg84
S'2'
p147
sg85
(iread_data
Room
p148
(dp149
g79
S'48'
p150
sg80
S'B0.201'
p151
sbsba(ischedule
Activity
p152
(dp153
g8
(lp154
S'50143947'
p155
aS'22323043'
p156
aS'68360259'
p157
aS'52311353'
p158
aS'66122625'
p159
asg79
S'10'
p160
sg80
S'Data Mining'
p161
sg82
S'tutorials'
p162
sg84
S'3'
p163
sg85
(iread_data
Room
p164
(dp165
g79
S'41'
p166
sg80
S'A1.04'
p167
sbsba(ischedule
Activity
p168
(dp169
g8
(lp170
S'37110913'
p171
aS'5517869'
p172
aS'52552718'
p173
aS'74131924'
p174
aS'44901052'
p175
aS'34806836'
p176
aS'22871048'
p177
asg79
S'10'
p178
sg80
S'Autonomous Agents 2'
p179
sg82
g162
sg84
g163
sg85
(iread_data
Room
p180
(dp181
g79
S'20'
p182
sg80
S'A1.08'
p183
sbsba(ischedule
Activity
p184
(dp185
g8
(lp186
S'37498675'
p187
aS'5615125'
p188
aS'17823206'
p189
aS'63408522'
p190
aS'97371272'
p191
aS'72547110'
p192
aS'54569540'
p193
aS'51542218'
p194
aS'8522855'
p195
aS'47605891'
p196
aS'69086548'
p197
aS'24875739'
p198
aS'91139627'
p199
aS'74182182'
p200
aS'94955328'
p201
ag94
aS'14671406'
p202
ag95
aS'63955238'
p203
ag10
aS'58469172'
p204
aS'76924297'
p205
aS'20331158'
p206
aS'77636749'
p207
aS'32705005'
p208
aS'59075181'
p209
aS'38329455'
p210
aS'55474917'
p211
aS'9731271'
p212
aS'41585485'
p213
aS'63634350'
p214
aS'44940353'
p215
aS'22731474'
p216
aS'84110134'
p217
aS'58332004'
p218
aS'39919665'
p219
aS'14398123'
p220
aS'78735049'
p221
ag64
aS'10872825'
p222
aS'7492204'
p223
aS'89338938'
p224
aS'36903574'
p225
ag105
aS'47462856'
p226
aS'42115591'
p227
aS'39230359'
p228
aS'79858178'
p229
aS'38499176'
p230
aS'41527759'
p231
ag67
ag33
aS'20239127'
p232
aS'23391676'
p233
aS'59544049'
p234
aS'79366078'
p235
ag101
aS'91196968'
p236
aS'18266644'
p237
aS'65003379'
p238
aS'31247305'
p239
ag43
ag42
aS'49631542'
p240
aS'31633723'
p241
aS'54310617'
p242
aS'97019450'
p243
aS'46570285'
p244
aS'34262212'
p245
aS'20883994'
p246
ag97
aS'96054456'
p247
aS'82688900'
p248
aS'28957789'
p249
aS'14591033'
p250
ag100
ag32
aS'81218347'
p251
aS'51186803'
p252
aS'39659121'
p253
aS'78136904'
p254
aS'99272880'
p255
aS'56749879'
p256
aS'64296965'
p257
asg79
I1000
sg80
S'Kansrekenen 2'
p258
sg82
g83
sg84
I0
sg85
(iread_data
Room
p259
(dp260
g79
S'117'
p261
sg80
S'C0.110'
p262
sbsba(ischedule
Activity
p263
(dp264
g8
(lp265
S'70878567'
p266
asg79
S'10'
p267
sg80
g161
sg82
g146
sg84
g147
sg85
(iread_data
Room
p268
(dp269
g79
S'56'
p270
sg80
S'A1.10'
p271
sbsbaa(lp272
(ischedule
Activity
p273
(dp274
g8
(lp275
S'87602030'
p276
aS'31897288'
p277
aS'27925117'
p278
aS'33760909'
p279
aS'58040377'
p280
ag214
aS'58736785'
p281
aS'16097870'
p282
aS'83869542'
p283
aS'72652638'
p284
ag93
aS'99975346'
p285
aS'82968410'
p286
aS'1886996'
p287
asg79
S'20'
p288
sg80
S'Heuristieken 2'
p289
sg82
g162
sg84
g147
sg85
(iread_data
Room
p290
(dp291
g79
g182
sg80
g183
sbsba(ischedule
Activity
p292
(dp293
g8
(lp294
S'51566595'
p295
aS'87314964'
p296
aS'21964491'
p297
aS'87900893'
p298
aS'59753700'
p299
ag158
aS'93023961'
p300
ag156
aS'98780382'
p301
ag155
aS'25330192'
p302
aS'45414528'
p303
aS'81022997'
p304
ag109
ag189
aS'99453514'
p305
aS'13996448'
p306
ag236
ag171
ag157
ag174
aS'13116738'
p307
aS'19337738'
p308
aS'97136582'
p309
ag159
ag266
aS'81200278'
p310
asg79
I1000
sg80
g161
sg82
g83
sg84
I0
sg85
(iread_data
Room
p311
(dp312
g79
g270
sg80
g271
sbsba(ischedule
Activity
p313
(dp314
g8
(lp315
S'24277163'
p316
aS'17222374'
p317
ag23
ag257
asg79
S'20'
p318
sg80
S'Collectieve Intelligentie'
p319
sg82
g146
sg84
S'4'
p320
sg85
(iread_data
Room
p321
(dp322
g79
g88
sg80
g89
sbsba(ischedule
Activity
p323
(dp324
g8
(lp325
g10
ag22
ag42
ag46
ag58
ag66
ag68
ag72
ag56
ag39
ag33
ag21
ag20
ag27
ag51
ag43
ag45
ag69
ag78
ag47
ag55
ag32
ag48
ag76
ag62
ag67
ag50
ag30
ag12
ag44
ag17
ag49
ag38
ag37
ag24
ag36
ag31
ag35
ag29
ag57
ag25
ag70
ag75
ag14
asg79
S'40'
p326
sg80
g81
sg82
g146
sg84
S'1'
p327
sg85
(iread_data
Room
p328
(dp329
g79
g261
sg80
g262
sbsba(ischedule
Activity
p330
(dp331
g8
(lp332
S'7308727'
p333
ag40
ag237
ag61
aS'82872148'
p334
ag239
aS'26207525'
p335
aS'60352393'
p336
aS'33930505'
p337
aS'535689'
p338
aS'25557516'
p339
aS'21677389'
p340
aS'72456780'
p341
aS'51741554'
p342
aS'4353500'
p343
aS'62736669'
p344
aS'70844780'
p345
ag175
ag195
ag220
aS'48678993'
p346
ag74
aS'82689818'
p347
aS'59887191'
p348
aS'56191333'
p349
aS'30195935'
p350
ag212
aS'62363761'
p351
ag118
aS'5590289'
p352
aS'56121590'
p353
ag16
aS'57467488'
p354
aS'123355'
p355
aS'40343779'
p356
aS'64246605'
p357
aS'29640619'
p358
asg79
S'20'
p359
sg80
S'Netwerken en systeembeveiliging'
p360
sg82
g146
sg84
g147
sg85
(iread_data
Room
p361
(dp362
g79
g166
sg80
g167
sbsba(ischedule
Activity
p363
(dp364
g8
(lp365
g128
ag125
ag136
ag143
aS'17092717'
p366
ag119
aS'40434933'
p367
ag140
aS'20618153'
p368
ag126
ag139
aS'67073567'
p369
ag132
ag130
ag121
ag124
aS'41790793'
p370
ag135
ag133
ag131
asg79
S'20'
p371
sg80
g145
sg82
g162
sg84
g147
sg85
(iread_data
Room
p372
(dp373
g79
g150
sg80
g151
sbsbaa(lp374
(ischedule
Activity
p375
(dp376
g8
(lp377
g227
aS'23658570'
p378
ag194
ag37
aS'78822885'
p379
aS'56815156'
p380
aS'48357272'
p381
aS'75997788'
p382
ag119
aS'4921119'
p383
aS'73302736'
p384
aS'77831658'
p385
aS'18477924'
p386
aS'34900967'
p387
aS'58480929'
p388
ag341
aS'33672995'
p389
aS'14637758'
p390
ag257
aS'83443653'
p391
aS'73350019'
p392
aS'13718298'
p393
ag282
aS'80188025'
p394
ag243
ag201
aS'72586808'
p395
aS'62613937'
p396
aS'78821918'
p397
aS'5085194'
p398
ag346
aS'56544130'
p399
aS'85335143'
p400
aS'87830198'
p401
aS'82854435'
p402
ag177
aS'65318664'
p403
aS'60661905'
p404
aS'43027916'
p405
aS'97838175'
p406
ag100
ag32
aS'36785409'
p407
ag158
aS'23565001'
p408
aS'41578612'
p409
aS'88737765'
p410
ag237
aS'70193386'
p411
asg79
I1000
sg80
S'Analysemethoden en -technieken'
p412
sg82
g83
sg84
I0
sg85
(iread_data
Room
p413
(dp414
g79
g88
sg80
g89
sbsba(ischedule
Activity
p415
(dp416
g8
(lp417
g143
ag59
ag65
aS'3883025'
p418
ag104
aS'33776961'
p419
aS'58699305'
p420
ag244
aS'83415514'
p421
aS'49219163'
p422
ag125
aS'78544592'
p423
aS'27916487'
p424
aS'36748818'
p425
aS'51650744'
p426
aS'59111489'
p427
asg79
S'20'
p428
sg80
S'Moderne Databases'
p429
sg82
g146
sg84
g327
sg85
(iread_data
Room
p430
(dp431
g79
g150
sg80
g151
sbsba(ischedule
Activity
p432
(dp433
g8
(lp434
g175
ag171
aS'27298319'
p435
ag172
ag39
aS'70113753'
p436
aS'36508571'
p437
aS'19858730'
p438
aS'62356458'
p439
aS'88627897'
p440
aS'61611295'
p441
ag64
ag176
aS'68409833'
p442
ag173
ag174
asg79
S'10'
p443
sg80
g179
sg82
g146
sg84
g147
sg85
(iread_data
Room
p444
(dp445
g79
g166
sg80
g167
sbsba(ischedule
Activity
p446
(dp447
g8
(lp448
g99
ag107
ag212
ag109
ag218
aS'64053722'
p449
ag204
ag75
ag141
aS'15902055'
p450
aS'68601184'
p451
ag303
ag102
aS'92778619'
p452
aS'47477884'
p453
aS'90296821'
p454
aS'51791169'
p455
ag256
ag358
ag255
ag297
ag73
asg79
S'20'
p456
sg80
S'Programmeren in Java 2'
p457
sg82
g146
sg84
S'6'
p458
sg85
(iread_data
Room
p459
(dp460
g79
g261
sg80
g262
sbsba(ischedule
Activity
p461
(dp462
g8
(lp463
g306
ag200
ag40
aS'28618400'
p464
aS'11068043'
p465
ag49
ag304
aS'63939720'
p466
aS'75005528'
p467
ag217
aS'21070547'
p468
ag25
ag74
ag11
aS'42406214'
p469
aS'40911986'
p470
aS'13092455'
p471
ag68
aS'86807027'
p472
aS'19214659'
p473
aS'81116418'
p474
ag60
aS'32183908'
p475
aS'32044893'
p476
aS'90103047'
p477
aS'12430748'
p478
ag19
aS'73823548'
p479
aS'6939933'
p480
ag224
aS'63573738'
p481
ag69
ag216
aS'34691309'
p482
aS'2550487'
p483
ag333
aS'37419523'
p484
aS'14941752'
p485
ag24
asg79
S'15'
p486
sg80
S'Project Numerical Recipes'
p487
sg82
g146
sg84
g147
sg85
(iread_data
Room
p488
(dp489
g79
g270
sg80
g271
sbsba(ischedule
Activity
p490
(dp491
g8
(lp492
S'11459236'
p493
aS'32204977'
p494
ag155
ag120
aS'26406342'
p495
aS'5892092'
p496
ag230
aS'23215240'
p497
ag66
aS'65675896'
p498
ag214
aS'91250534'
p499
aS'25994016'
p500
aS'41644639'
p501
aS'71839156'
p502
aS'53585410'
p503
aS'1665980'
p504
aS'51673172'
p505
aS'64418623'
p506
aS'47260040'
p507
asg79
S'15'
p508
sg80
S'Compilerbouw practicum'
p509
sg82
g146
sg84
g147
sg85
(iread_data
Room
p510
(dp511
g79
g113
sg80
g114
sbsba(ischedule
Activity
p512
(dp513
g8
(lp514
S'42297781'
p515
aS'89985072'
p516
aS'4568018'
p517
aS'44151631'
p518
asg79
g508
sg80
g509
sg82
g146
sg84
g327
sg85
(iread_data
Room
p519
(dp520
g79
g182
sg80
g183
sbsbaa(lp521
(ischedule
Activity
p522
(dp523
g8
(lp524
S'90474003'
p525
aS'37399898'
p526
ag452
aS'51415617'
p527
ag171
ag316
aS'52715680'
p528
ag101
ag118
aS'49922855'
p529
ag336
ag285
ag404
aS'27805666'
p530
ag119
ag58
ag469
aS'77960666'
p531
aS'82390428'
p532
ag407
aS'68286356'
p533
aS'4709948'
p534
aS'22826928'
p535
aS'5298748'
p536
ag299
ag476
ag401
ag177
aS'51052738'
p537
aS'20095994'
p538
ag46
aS'84449005'
p539
aS'96554914'
p540
ag105
aS'36213792'
p541
ag393
ag345
ag471
aS'27370083'
p542
ag232
ag193
ag305
aS'43680781'
p543
ag254
ag42
aS'6913074'
p544
aS'13658563'
p545
ag419
ag409
ag411
ag96
asg79
I1000
sg80
S'Reflectie op de digitale cultuur'
p546
sg82
g83
sg84
I0
sg85
(iread_data
Room
p547
(dp548
g79
g261
sg80
g262
sbsba(ischedule
Activity
p549
(dp550
g8
(lp551
g280
ag383
aS'9332762'
p552
ag387
ag27
aS'12782624'
p553
aS'39905995'
p554
ag103
ag142
aS'7386961'
p555
ag230
aS'20830477'
p556
ag243
ag247
aS'47982619'
p557
asg79
g456
sg80
g457
sg82
g146
sg84
S'5'
p558
sg85
(iread_data
Room
p559
(dp560
g79
g182
sg80
g183
sbsba(ischedule
Activity
p561
(dp562
g8
(lp563
g495
ag333
aS'23547619'
p564
aS'4783858'
p565
ag53
ag297
ag279
ag317
aS'42196732'
p566
ag95
asg79
S'20'
p567
sg80
g319
sg82
g162
sg84
g327
sg85
(iread_data
Room
p568
(dp569
g79
g88
sg80
g89
sbsba(ischedule
Activity
p570
(dp571
g8
(lp572
S'59289233'
p573
ag464
ag206
aS'45556081'
p574
aS'58866007'
p575
aS'10149535'
p576
ag143
ag136
ag100
ag347
ag30
ag77
ag278
aS'72683344'
p577
aS'70015932'
p578
ag124
ag367
ag34
aS'29718115'
p579
aS'13798030'
p580
aS'14138904'
p581
asg79
I1000
sg80
S'Architectuur en computerorganisatie'
p582
sg82
g83
sg84
I0
sg85
(iread_data
Room
p583
(dp584
g79
g113
sg80
g114
sbsba(ischedule
Activity
p585
(dp586
g8
(lp587
g45
ag59
ag63
ag65
ag66
ag10
ag48
ag37
ag55
ag75
ag14
ag52
ag49
ag64
ag61
ag40
ag35
ag69
ag68
ag44
ag28
asg79
S'40'
p588
sg80
g81
sg82
g162
sg84
g147
sg85
(iread_data
Room
p589
(dp590
g79
g270
sg80
g271
sbsba(ischedule
Activity
p591
(dp592
g8
(lp593
g175
aS'75521763'
p594
ag207
ag494
aS'23257088'
p595
ag218
ag17
aS'75585647'
p596
aS'92977271'
p597
aS'62701040'
p598
aS'19958553'
p599
ag266
ag493
aS'8557857'
p600
ag425
aS'23983476'
p601
asg79
S'15'
p602
sg80
S'Informatie- en organsatieontwerp'
p603
sg82
g162
sg84
g327
sg85
(iread_data
Room
p604
(dp605
g79
g166
sg80
g167
sbsbaa(lp606
(ischedule
Activity
p607
(dp608
g8
(lp609
S'27241113'
p610
ag34
aS'50184318'
p611
ag317
ag125
ag103
ag400
ag104
aS'41489515'
p612
ag420
ag423
aS'11996292'
p613
ag172
ag427
ag244
aS'66621166'
p614
ag240
ag426
aS'36527838'
p615
aS'77376714'
p616
aS'48198668'
p617
ag543
aS'64600457'
p618
ag421
aS'29526540'
p619
ag382
ag534
ag316
aS'18144425'
p620
aS'99283252'
p621
aS'58592894'
p622
aS'42171678'
p623
ag45
ag143
ag422
ag218
ag17
ag66
aS'96082155'
p624
aS'78443067'
p625
ag594
ag425
ag65
ag59
ag539
ag397
aS'13218321'
p626
ag419
aS'1181560'
p627
aS'70072978'
p628
ag418
ag48
ag424
ag226
asg79
I1000
sg80
g429
sg82
g83
sg84
I0
sg85
(iread_data
Room
p629
(dp630
g79
g88
sg80
g89
sbsba(ischedule
Activity
p631
(dp632
g8
(lp633
g26
ag30
ag42
ag46
ag58
ag53
ag77
ag23
ag15
ag67
ag27
ag74
ag19
ag72
ag20
ag50
ag78
ag47
ag17
ag16
ag56
ag54
ag73
ag29
ag24
ag60
ag13
ag36
ag39
ag21
ag57
ag41
ag70
ag32
ag38
ag25
ag18
ag34
ag31
ag33
ag76
ag12
ag71
ag11
ag43
ag62
ag22
ag51
asg79
g588
sg80
g81
sg82
g162
sg84
g327
sg85
(iread_data
Room
p634
(dp635
g79
g270
sg80
g271
sbsba(ischedule
Activity
p636
(dp637
g8
(lp638
g206
ag517
ag354
aS'1696500'
p639
ag131
aS'87210640'
p640
aS'79879876'
p641
ag472
ag159
aS'61060652'
p642
ag382
ag438
ag175
ag381
ag256
ag251
ag171
aS'97417002'
p643
ag485
aS'53775014'
p644
ag581
ag156
ag556
ag594
ag623
ag177
ag545
ag597
ag225
ag391
ag277
ag243
aS'76393508'
p645
aS'14816774'
p646
aS'45660925'
p647
ag209
ag343
ag613
ag565
asg79
S'25'
p648
sg80
S'Heuristieken 1'
p649
sg82
g162
sg84
g327
sg85
(iread_data
Room
p650
(dp651
g79
g166
sg80
g167
sbsba(ischedule
Activity
p652
(dp653
g8
(lp654
g281
ag63
aS'53107172'
p655
ag250
ag502
asg79
g648
sg80
g649
sg82
g162
sg84
g147
sg85
(iread_data
Room
p656
(dp657
g79
g113
sg80
g114
sbsba(ischedule
Activity
p658
(dp659
g8
(lp660
g174
ag297
ag350
ag310
ag535
ag10
aS'54026378'
p661
ag246
ag266
aS'96453361'
p662
ag216
ag55
aS'28359697'
p663
ag68
ag544
asg79
S'20'
p664
sg80
S'Bioinformatica'
p665
sg82
g146
sg84
g327
sg85
(iread_data
Room
p666
(dp667
g79
g150
sg80
g151
sbsba(ischedule
Activity
p668
(dp669
g8
(lp670
g75
aS'62872965'
p671
ag295
asg79
g443
sg80
g179
sg82
g146
sg84
g163
sg85
(iread_data
Room
p672
(dp673
g79
g261
sg80
g262
sbsba(ischedule
Activity
p674
(dp675
g8
(lp676
g44
asg79
S'10'
p677
sg80
S'Advanced Heuristics'
p678
sg82
g146
sg84
g147
sg85
(iread_data
Room
p679
(dp680
g79
g182
sg80
g183
sbsbaaa(lp681
(lp682
(ischedule
Activity
p683
(dp684
g8
(lp685
g531
ag495
aS'37701751'
p686
ag295
ag613
ag283
ag628
aS'58083680'
p687
ag121
ag354
ag595
aS'13132925'
p688
aS'15187217'
p689
ag453
asg79
S'40'
p690
sg80
S'Databases 2'
p691
sg82
g162
sg84
g147
sg85
(iread_data
Room
p692
(dp693
g79
g166
sg80
g167
sbsba(ischedule
Activity
p694
(dp695
g8
g572
sg79
I1000
sg80
g582
sg82
g83
sg84
I0
sg85
(iread_data
Room
p696
(dp697
g79
g150
sg80
g151
sbsba(ischedule
Activity
p698
(dp699
g8
(lp700
g68
ag380
ag104
ag333
ag566
aS'79617364'
p701
aS'3168419'
p702
ag297
ag543
ag662
ag618
ag536
aS'30050930'
p703
ag619
ag55
aS'44868097'
p704
aS'88176729'
p705
ag535
ag385
ag128
ag663
ag234
ag661
ag646
aS'21029457'
p706
ag266
ag517
ag174
ag256
ag247
aS'247918'
p707
ag516
ag250
ag216
ag337
ag72
ag246
ag465
aS'66120270'
p708
ag544
ag400
ag22
ag310
ag10
ag350
asg79
I1000
sg80
g665
sg82
g83
sg84
I0
sg85
(iread_data
Room
p709
(dp710
g79
g88
sg80
g89
sbsba(ischedule
Activity
p711
(dp712
g8
(lp713
g358
aS'13534377'
p714
ag405
aS'48601268'
p715
aS'46052388'
p716
aS'57595888'
p717
ag23
ag242
asg79
g567
sg80
g319
sg82
g162
sg84
g147
sg85
(iread_data
Room
p718
(dp719
g79
g113
sg80
g114
sbsba(ischedule
Activity
p720
(dp721
g8
(lp722
g382
ag218
ag423
ag594
ag625
ag539
ag611
ag17
ag623
ag103
ag48
ag425
ag617
ag397
ag627
asg79
S'20'
p723
sg80
g429
sg82
g162
sg84
g163
sg85
(iread_data
Room
p724
(dp725
g79
g261
sg80
g262
sbsba(ischedule
Activity
p726
(dp727
g8
(lp728
S'83210352'
p729
ag32
ag211
aS'56872729'
p730
aS'55412918'
p731
aS'21311067'
p732
ag201
ag19
aS'80998260'
p733
ag502
ag615
aS'80709893'
p734
aS'87758823'
p735
ag251
aS'54074680'
p736
ag642
ag230
ag575
ag158
aS'90743504'
p737
ag442
aS'670011'
p738
aS'26172512'
p739
ag383
ag566
ag282
ag126
ag134
ag53
ag25
ag21
aS'93566383'
p740
ag701
ag526
aS'96118484'
p741
aS'66570705'
p742
ag227
aS'31416266'
p743
aS'79937969'
p744
ag250
aS'34588570'
p745
aS'94686490'
p746
ag409
ag576
ag408
aS'35330349'
p747
aS'32595335'
p748
ag236
ag172
aS'16011419'
p749
ag437
ag467
ag200
ag671
asg79
I1000
sg80
S'Lineaire Algebra'
p750
sg82
g83
sg84
I0
sg85
(iread_data
Room
p751
(dp752
g79
g270
sg80
g271
sbsba(ischedule
Activity
p753
(dp754
g8
(lp755
g70
ag528
ag58
ag254
aS'3707829'
p756
ag155
aS'88596522'
p757
ag202
ag231
ag450
aS'66433883'
p758
aS'19540225'
p759
aS'23652927'
p760
ag616
ag93
ag107
asg79
S'25'
p761
sg80
S'Algoritmen en complexiteit'
p762
sg82
g162
sg84
g327
sg85
(iread_data
Room
p763
(dp764
g79
g182
sg80
g183
sbsbaa(lp765
(ischedule
Activity
p766
(dp767
g8
g524
sg79
I1000
sg80
g546
sg82
g83
sg84
I0
sg85
(iread_data
Room
p768
(dp769
g79
g270
sg80
g271
sbsba(ischedule
Activity
p770
(dp771
g8
(lp772
g61
ag65
ag60
ag40
ag77
ag52
ag13
ag74
ag18
ag15
ag63
ag34
ag16
ag23
ag19
ag73
ag59
ag71
ag53
ag64
ag54
ag28
ag11
ag41
ag26
asg79
g326
sg80
g81
sg82
g146
sg84
g147
sg85
(iread_data
Room
p773
(dp774
g79
g166
sg80
g167
sbsba(ischedule
Activity
p775
(dp776
g8
(lp777
g594
aS'97135019'
p778
ag405
ag279
aS'25106480'
p779
ag495
aS'22699561'
p780
aS'73980360'
p781
ag127
ag124
ag358
asg79
g318
sg80
g319
sg82
g146
sg84
g147
sg85
(iread_data
Room
p782
(dp783
g79
g88
sg80
g89
sbsba(ischedule
Activity
p784
(dp785
g8
(lp786
g618
ag619
ag400
ag104
ag517
ag256
ag707
ag234
ag701
ag708
ag705
ag516
ag646
ag702
ag22
ag128
ag566
ag247
ag465
ag380
ag704
ag706
asg79
g664
sg80
g665
sg82
g146
sg84
g147
sg85
(iread_data
Room
p787
(dp788
g79
g113
sg80
g114
sbsba(ischedule
Activity
p789
(dp790
g8
(lp791
g72
ag188
ag228
aS'1137946'
p792
aS'6249823'
p793
ag368
ag366
aS'10698627'
p794
ag369
aS'76903244'
p795
ag370
ag367
asg79
g144
sg80
g145
sg82
g146
sg84
g327
sg85
(iread_data
Room
p796
(dp797
g79
g261
sg80
g262
sbsba(ischedule
Activity
p798
(dp799
g8
(lp800
g216
ag310
ag250
ag174
ag10
ag68
asg79
S'20'
p801
sg80
g665
sg82
g162
sg84
g327
sg85
(iread_data
Room
p802
(dp803
g79
g182
sg80
g183
sbsba(ischedule
Activity
p804
(dp805
g8
(lp806
g21
ag134
ag295
ag347
ag121
ag213
ag297
ag662
ag601
ag69
ag225
aS'44828429'
p807
ag195
ag356
aS'64554442'
p808
aS'26260141'
p809
ag354
aS'67817269'
p810
aS'21095566'
p811
ag435
aS'91527663'
p812
aS'51509565'
p813
aS'34765676'
p814
ag503
ag504
ag622
aS'64947290'
p815
asg79
g761
sg80
g762
sg82
g162
sg84
g147
sg85
(iread_data
Room
p816
(dp817
g79
g150
sg80
g151
sbsbaa(lp818
(ischedule
Activity
p819
(dp820
g8
(lp821
g623
ag257
aS'28357474'
p822
ag347
ag564
ag779
aS'64393888'
p823
ag10
aS'17575088'
p824
ag655
ag25
ag53
ag780
ag594
ag60
ag172
aS'3233378'
p825
ag552
ag155
ag781
aS'86000192'
p826
ag242
ag566
ag714
ag62
ag74
ag316
ag471
aS'29474737'
p827
ag611
ag23
ag504
ag717
ag95
ag127
aS'34773179'
p828
ag297
ag451
ag716
ag317
ag358
ag639
ag122
ag747
ag342
ag778
ag565
ag574
ag715
ag598
ag743
ag139
ag495
ag735
ag124
ag450
ag333
aS'96104167'
p829
ag279
aS'1075391'
p830
ag405
asg79
I1000
sg80
g319
sg82
g83
sg84
I0
sg85
(iread_data
Room
p831
(dp832
g79
g88
sg80
g89
sbsba(ischedule
Activity
p833
(dp834
g8
(lp835
g822
aS'58074656'
p836
ag616
ag715
ag540
aS'41153310'
p837
ag239
aS'9287708'
p838
ag109
ag128
ag177
ag403
ag384
aS'27582862'
p839
ag93
ag46
aS'45915482'
p840
aS'31103066'
p841
ag439
ag155
ag97
aS'58565406'
p842
ag143
ag211
ag779
ag60
ag642
ag173
ag52
ag125
aS'62105897'
p843
ag625
ag241
ag465
ag393
aS'51593625'
p844
ag528
ag334
ag381
ag358
ag729
aS'37830626'
p845
ag68
aS'44671041'
p846
ag356
ag217
ag621
ag565
ag442
ag59
ag202
ag234
ag661
ag158
aS'65408517'
p847
ag224
ag136
ag20
ag578
ag516
aS'1048485'
p848
ag156
ag825
ag227
ag705
aS'3727435'
p849
aS'4546613'
p850
aS'14072826'
p851
ag809
ag811
ag64
ag231
ag704
ag734
ag517
asg79
I1000
sg80
S'Software engineering'
p852
sg82
g83
sg84
I0
sg85
(iread_data
Room
p853
(dp854
g79
g261
sg80
g262
sbsba(ischedule
Activity
p855
(dp856
g8
(lp857
S'88597745'
p858
aS'63096281'
p859
ag378
ag419
ag758
ag189
ag740
ag29
aS'88263855'
p860
ag18
ag201
aS'15249775'
p861
ag738
ag618
aS'28943658'
p862
ag213
aS'73196865'
p863
ag497
aS'73893840'
p864
ag306
ag233
ag595
asg79
g456
sg80
g457
sg82
g146
sg84
g163
sg85
(iread_data
Room
p865
(dp866
g79
g270
sg80
g271
sbsba(ischedule
Activity
p867
(dp868
g8
(lp869
g424
ag45
ag426
asg79
g723
sg80
g429
sg82
g162
sg84
g147
sg85
(iread_data
Room
p870
(dp871
g79
g113
sg80
g114
sbsba(ischedule
Activity
p872
(dp873
g8
(lp874
g385
ag105
aS'19662602'
p875
ag65
asg79
g486
sg80
g487
sg82
g146
sg84
g163
sg85
(iread_data
Room
p876
(dp877
g79
g182
sg80
g183
sbsba(ischedule
Activity
p878
(dp879
g8
(lp880
g407
ag118
ag299
ag171
ag401
ag534
ag58
ag539
ag404
ag545
ag285
ag336
ag529
ag535
ag42
ag101
ag193
ag533
asg79
S'20'
p881
sg80
g546
sg82
g162
sg84
g147
sg85
(iread_data
Room
p882
(dp883
g79
g150
sg80
g151
sbsbaa(lp884
(ischedule
Activity
p885
(dp886
g8
g294
sg79
I1000
sg80
g161
sg82
g83
sg84
I0
sg85
(iread_data
Room
p887
(dp888
g79
g88
sg80
g89
sbsba(ischedule
Activity
p889
(dp890
g8
(lp891
g295
ag471
ag24
ag121
ag398
ag702
aS'27123462'
p892
ag240
aS'59397895'
p893
ag347
aS'12091019'
p894
ag31
ag687
ag619
aS'4529208'
p895
aS'54540997'
p896
aS'5526560'
p897
ag383
ag815
ag566
ag77
ag738
ag613
ag707
ag341
ag378
aS'47932106'
p898
ag256
ag688
ag366
ag646
ag367
ag453
ag218
aS'86180471'
p899
ag479
ag467
ag354
ag730
ag316
ag58
ag812
ag397
ag689
ag336
ag531
ag247
ag495
ag344
ag628
ag53
ag127
ag405
ag353
ag39
ag257
ag525
ag172
ag335
aS'25077484'
p900
ag283
aS'40141996'
p901
ag194
ag349
ag622
ag75
ag595
ag358
ag746
ag686
ag317
ag173
asg79
I1000
sg80
g691
sg82
g83
sg84
I0
sg85
(iread_data
Room
p902
(dp903
g79
g261
sg80
g262
sbsba(ischedule
Activity
p904
(dp905
g8
(lp906
g535
ag823
ag544
ag598
ag844
ag74
ag837
ag641
ag526
ag368
ag55
ag826
aS'10702778'
p907
asg79
g456
sg80
g457
sg82
g146
sg84
g320
sg85
(iread_data
Room
p908
(dp909
g79
g182
sg80
g183
sbsba(ischedule
Activity
p910
(dp911
g8
(lp912
g21
ag32
ag225
ag464
ag639
ag230
ag708
asg79
g359
sg80
g360
sg82
g146
sg84
g163
sg85
(iread_data
Room
p913
(dp914
g79
g150
sg80
g151
sbsbaa(lp915
(ischedule
Activity
p916
(dp917
g8
(lp918
g227
ag851
ag516
ag64
ag202
ag715
ag809
ag844
ag46
ag661
ag565
ag358
ag224
ag234
ag393
ag52
ag837
ag158
ag143
ag841
asg79
S'40'
p919
sg80
g852
sg82
g162
sg84
g327
sg85
(iread_data
Room
p920
(dp921
g79
g150
sg80
g151
sbsba(ischedule
Activity
p922
(dp923
g8
(lp924
g123
ag254
ag382
ag577
ag246
ag464
ag472
ag702
ag287
aS'39429093'
p925
ag336
ag345
ag132
ag564
ag396
ag124
aS'72665524'
p926
ag453
aS'40633534'
p927
asg79
g677
sg80
g678
sg82
g146
sg84
g327
sg85
(iread_data
Room
p928
(dp929
g79
g270
sg80
g271
sbsba(ischedule
Activity
p930
(dp931
g8
(lp932
g155
ag842
ag846
ag465
ag848
ag211
ag729
ag843
ag625
ag578
ag845
ag621
ag403
ag60
ag704
ag93
ag125
ag231
ag849
ag217
ag540
ag156
ag836
ag59
ag439
ag838
ag642
ag381
ag356
ag825
ag442
ag517
ag109
ag177
ag850
ag241
ag705
ag847
ag68
ag840
ag616
ag528
ag20
ag173
ag136
ag97
ag822
ag734
ag811
ag839
ag334
ag384
ag779
ag239
ag128
asg79
g919
sg80
g852
sg82
g162
sg84
g147
sg85
(iread_data
Room
p933
(dp934
g79
g88
sg80
g89
sbsba(ischedule
Activity
p935
(dp936
g8
(lp937
g10
ag781
ag594
ag172
ag127
ag257
ag451
ag598
ag552
ag347
ag743
ag471
ag611
ag316
ag62
ag735
ag623
ag139
ag747
ag829
ag450
ag639
asg79
g567
sg80
g319
sg82
g162
sg84
g320
sg85
(iread_data
Room
p938
(dp939
g79
g166
sg80
g167
sbsba(ischedule
Activity
p940
(dp941
g8
(lp942
g39
ag75
ag435
ag440
ag436
ag437
ag282
ag441
ag438
asg79
g178
sg80
g179
sg82
g162
sg84
g147
sg85
(iread_data
Room
p943
(dp944
g79
g113
sg80
g114
sbsba(ischedule
Activity
p945
(dp946
g8
(lp947
g171
ag174
ag304
ag295
ag310
ag297
ag266
ag307
ag236
ag298
ag302
ag299
ag309
asg79
g160
sg80
g161
sg82
g162
sg84
g327
sg85
(iread_data
Room
p948
(dp949
g79
g261
sg80
g262
sbsbaaa(lp950
(lp951
(ischedule
Activity
p952
(dp953
g8
(lp954
g64
ag661
ag442
ag439
ag295
ag671
asg79
g178
sg80
g179
sg82
g162
sg84
g327
sg85
(iread_data
Room
p955
(dp956
g79
g261
sg80
g262
sbsba(ischedule
Activity
p957
(dp958
g8
(lp959
g686
ag340
ag473
ag123
aS'28055464'
p960
aS'64768422'
p961
ag483
aS'38179241'
p962
ag814
aS'69634191'
p963
ag756
ag498
ag205
ag740
ag564
ag133
ag850
aS'81155296'
p964
ag310
aS'20374340'
p965
ag57
ag807
ag33
ag21
ag526
asg79
I1000
sg80
S'Interactie-ontwerp'
p966
sg82
g83
sg84
I0
sg85
(iread_data
Room
p967
(dp968
g79
g150
sg80
g151
sbsba(ischedule
Activity
p969
(dp970
g8
(lp971
g579
ag545
aS'17496687'
p972
ag237
ag307
asg79
g602
sg80
g603
sg82
g162
sg84
g147
sg85
(iread_data
Room
p973
(dp974
g79
g182
sg80
g183
sbsba(ischedule
Activity
p975
(dp976
g8
(lp977
g77
ag341
ag646
ag467
ag730
ag336
ag247
ag344
ag53
ag746
ag317
ag619
ag383
ag707
ag358
ag256
ag622
ag815
ag738
ag479
ag58
ag566
ag172
ag702
ag347
ag899
ag897
ag31
ag218
ag894
ag75
ag39
ag367
ag405
ag397
ag366
ag898
ag896
ag24
ag812
ag335
ag900
ag316
ag173
ag240
ag892
ag895
ag127
ag378
ag901
ag893
ag349
ag471
ag257
ag353
ag194
ag398
ag525
asg79
g690
sg80
g691
sg82
g162
sg84
g327
sg85
(iread_data
Room
p978
(dp979
g79
g88
sg80
g89
sbsba(ischedule
Activity
p980
(dp981
g8
(lp982
g155
ag124
ag504
ag574
ag830
ag25
ag778
ag827
ag780
ag826
ag122
ag822
ag779
ag824
ag60
ag828
ag342
ag74
ag825
ag655
ag823
asg79
g567
sg80
g319
sg82
g162
sg84
g163
sg85
(iread_data
Room
p983
(dp984
g79
g270
sg80
g271
sbsba(ischedule
Activity
p985
(dp986
g8
(lp987
g576
aS'21192048'
p988
ag59
aS'92496780'
p989
ag191
aS'7106649'
p990
ag594
ag552
aS'76487754'
p991
ag16
aS'4697362'
p992
ag207
ag19
ag793
ag367
ag175
ag197
aS'14383795'
p993
ag70
aS'70336464'
p994
ag409
ag557
ag171
ag156
ag407
ag613
aS'93041523'
p995
ag400
aS'77264363'
p996
ag564
ag478
ag17
ag495
ag494
ag842
ag543
ag14
ag224
asg79
I1000
sg80
S'Technology for games'
p997
sg82
g83
sg84
I0
sg85
(iread_data
Room
p998
(dp999
g79
g166
sg80
g167
sbsba(ischedule
Activity
p1000
(dp1001
g8
(lp1002
g843
ag61
ag503
ag846
ag534
ag236
ag531
aS'85284256'
p1003
ag421
ag794
ag848
ag436
ag225
ag628
aS'3678531'
p1004
ag97
aS'54395877'
p1005
asg79
g456
sg80
g457
sg82
g146
sg84
g327
sg85
(iread_data
Room
p1006
(dp1007
g79
g113
sg80
g114
sbsbaa(lp1008
(ischedule
Activity
p1009
(dp1010
g8
(lp1011
g847
ag250
ag423
ag57
ag596
aS'82412626'
p1012
ag208
ag899
ag279
aS'79888156'
p1013
aS'93361408'
p1014
ag278
ag244
ag96
ag701
ag188
aS'6709529'
p1015
ag901
aS'65978354'
p1016
aS'55530367'
p1017
aS'19717077'
p1018
ag276
ag826
ag450
ag214
ag200
ag389
aS'22168693'
p1019
aS'56348773'
p1020
ag964
ag381
ag503
ag809
ag107
ag850
aS'61520025'
p1021
ag280
ag399
ag898
ag298
ag625
ag730
ag198
ag55
ag351
aS'31306819'
p1022
ag843
aS'23628642'
p1023
aS'10609762'
p1024
ag746
ag704
ag479
aS'72526473'
p1025
ag212
ag12
ag576
ag472
ag282
aS'75623387'
p1026
aS'59220392'
p1027
ag894
aS'77306636'
p1028
ag962
ag778
ag247
ag34
aS'37279234'
p1029
ag67
ag840
ag565
ag382
aS'14179347'
p1030
ag731
ag622
ag408
ag926
ag453
ag435
ag706
ag24
ag73
ag618
ag221
aS'75446434'
p1031
ag1004
ag646
ag480
ag400
ag204
ag120
ag394
ag421
ag249
aS'58253841'
p1032
ag43
ag420
aS'34173695'
p1033
ag342
aS'70939718'
p1034
aS'11593163'
p1035
ag378
ag384
ag544
aS'53139134'
p1036
ag132
ag139
asg79
I1000
sg80
S'Calculus 2'
p1037
sg82
g83
sg84
I0
sg85
(iread_data
Room
p1038
(dp1039
g79
g261
sg80
g262
sbsba(ischedule
Activity
p1040
(dp1041
g8
(lp1042
g566
ag333
ag53
ag747
ag172
ag598
ag451
ag564
ag825
ag60
ag504
ag716
asg79
g318
sg80
g319
sg82
g146
sg84
g163
sg85
(iread_data
Room
p1043
(dp1044
g79
g113
sg80
g114
sbsba(ischedule
Activity
p1045
(dp1046
g8
(lp1047
g304
ag42
ag295
ag310
ag125
ag119
ag346
aS'35315956'
p1048
ag405
ag216
ag990
ag122
ag861
ag738
aS'52304977'
p1049
aS'5739011'
p1050
ag814
ag102
asg79
g288
sg80
g289
sg82
g162
sg84
g327
sg85
(iread_data
Room
p1051
(dp1052
g79
g166
sg80
g167
sbsba(ischedule
Activity
p1053
(dp1054
g8
(lp1055
g63
ag438
ag156
ag517
ag640
ag647
ag565
ag645
ag641
ag251
ag502
ag243
ag597
ag655
ag343
ag556
ag485
ag159
ag644
ag209
ag354
ag581
ag642
ag131
ag277
ag381
ag639
ag250
ag472
ag613
ag256
ag225
ag382
ag623
ag594
ag206
ag391
ag646
ag177
ag171
ag175
ag643
ag281
ag545
asg79
I1000
sg80
g649
sg82
g83
sg84
I0
sg85
(iread_data
Room
p1056
(dp1057
g79
g150
sg80
g151
sbsba(ischedule
Activity
p1058
(dp1059
g8
(lp1060
g927
ag442
ag539
aS'82066165'
p1061
ag397
ag195
ag505
ag220
ag621
asg79
S'15'
p1062
sg80
S'Project Genetic Algorithms'
p1063
sg82
g146
sg84
g163
sg85
(iread_data
Room
p1064
(dp1065
g79
g270
sg80
g271
sbsbaa(lp1066
(ischedule
Activity
p1067
(dp1068
g8
g700
sg79
I1000
sg80
g665
sg82
g83
sg84
I0
sg85
(iread_data
Room
p1069
(dp1070
g79
g270
sg80
g271
sbsba(ischedule
Activity
p1071
(dp1072
g8
(lp1073
g839
ag214
ag245
ag53
ag211
ag223
ag815
ag58
ag404
ag597
ag36
ag472
ag67
ag78
ag1029
ag11
ag743
aS'88519892'
p1074
ag601
ag483
ag122
asg79
g456
sg80
g457
sg82
g146
sg84
g147
sg85
(iread_data
Room
p1075
(dp1076
g79
g261
sg80
g262
sbsba(ischedule
Activity
p1077
(dp1078
g8
(lp1079
g109
asg79
g359
sg80
g360
sg82
g146
sg84
g327
sg85
(iread_data
Room
p1080
(dp1081
g79
g182
sg80
g183
sbsba(ischedule
Activity
p1082
(dp1083
g8
(lp1084
g401
aS'74361881'
p1085
ag107
ag57
ag1032
ag500
ag828
ag1030
aS'75680261'
p1086
ag23
asg79
g1062
sg80
g1063
sg82
g146
sg84
g147
sg85
(iread_data
Room
p1087
(dp1088
g79
g113
sg80
g114
sbsba(ischedule
Activity
p1089
(dp1090
g8
(lp1091
g540
ag393
ag177
ag528
ag541
ag46
ag471
ag526
ag527
ag476
ag305
ag537
ag452
asg79
g881
sg80
g546
sg82
g162
sg84
g163
sg85
(iread_data
Room
p1092
(dp1093
g79
g88
sg80
g89
sbsba(ischedule
Activity
p1094
(dp1095
g8
g987
sg79
I1000
sg80
g997
sg82
g83
sg84
I0
sg85
(iread_data
Room
p1096
(dp1097
g79
g166
sg80
g167
sbsba(ischedule
Activity
p1098
(dp1099
g8
(lp1100
g439
asg79
g486
sg80
g487
sg82
g146
sg84
g327
sg85
(iread_data
Room
p1101
(dp1102
g79
g150
sg80
g151
sbsbaa(lp1103
(ischedule
Activity
p1104
(dp1105
g8
g728
sg79
I1000
sg80
g750
sg82
g83
sg84
I0
sg85
(iread_data
Room
p1106
(dp1107
g79
g88
sg80
g89
sbsba(ischedule
Activity
p1108
(dp1109
g8
g700
sg79
I1000
sg80
g665
sg82
g83
sg84
I0
sg85
(iread_data
Room
p1110
(dp1111
g79
g261
sg80
g262
sbsba(ischedule
Activity
p1112
(dp1113
g8
(lp1114
g129
ag130
ag124
ag118
ag119
ag132
ag370
ag137
ag134
ag128
ag139
ag126
ag368
ag795
ag143
ag141
ag72
ag366
ag188
ag120
ag122
ag133
ag69
ag140
ag131
ag127
ag367
ag135
ag125
ag123
ag121
ag793
ag142
ag228
ag138
ag792
ag369
ag794
ag136
asg79
I1000
sg80
g145
sg82
g83
sg84
I0
sg85
(iread_data
Room
p1115
(dp1116
g79
g270
sg80
g271
sbsba(ischedule
Activity
p1117
(dp1118
g8
g92
sg79
I1000
sg80
g110
sg82
g83
sg84
I0
sg85
(iread_data
Room
p1119
(dp1120
g79
g113
sg80
g114
sbsba(ischedule
Activity
p1121
(dp1122
g8
(lp1123
g307
ag596
ag17
ag972
ag493
ag597
ag545
ag218
ag175
ag207
ag594
asg79
S'15'
p1124
sg80
g603
sg82
g146
sg84
g147
sg85
(iread_data
Room
p1125
(dp1126
g79
g150
sg80
g151
sbsba(ischedule
Activity
p1127
(dp1128
g8
(lp1129
g435
ag450
ag58
ag809
ag503
ag70
ag616
ag356
ag811
ag757
ag815
ag810
ag813
ag812
ag254
ag231
ag760
ag225
asg79
S'25'
p1130
sg80
g762
sg82
g146
sg84
g147
sg85
(iread_data
Room
p1131
(dp1132
g79
g182
sg80
g183
sbsba(ischedule
Activity
p1133
(dp1134
g8
(lp1135
g309
ag401
aS'53267490'
p1136
ag1003
ag778
aS'19058315'
p1137
ag310
ag534
aS'16912993'
p1138
ag481
ag304
ag395
ag1034
ag302
ag418
aS'12170832'
p1139
ag848
ag926
ag209
asg79
g359
sg80
g360
sg82
g146
sg84
g320
sg85
(iread_data
Room
p1140
(dp1141
g79
g166
sg80
g167
sbsbaa(lp1142
(ischedule
Activity
p1143
(dp1144
g8
g821
sg79
I1000
sg80
g319
sg82
g83
sg84
I0
sg85
g724
sba(ischedule
Activity
p1145
(dp1146
g8
(lp1147
g759
ag504
ag121
ag601
ag758
ag815
ag295
ag435
ag810
ag756
ag195
ag622
ag812
ag69
ag93
ag760
ag809
ag354
ag757
ag814
ag202
ag450
ag231
ag21
ag254
ag808
ag107
ag58
ag155
ag503
ag70
ag811
ag347
ag225
ag662
ag356
ag616
ag213
ag528
ag813
ag134
ag297
ag807
asg79
I1000
sg80
g762
sg82
g83
sg84
I0
sg85
(iread_data
Room
p1148
(dp1149
g79
g88
sg80
g89
sbsba(ischedule
Activity
p1150
(dp1151
g8
(lp1152
g188
ag1026
ag204
ag1033
ag249
ag389
ag382
ag843
ag840
ag278
ag399
ag408
ag625
ag34
ag701
ag1017
ag394
ag1015
asg79
S'40'
p1153
sg80
g1037
sg82
g162
sg84
g327
sg85
(iread_data
Room
p1154
(dp1155
g79
g182
sg80
g183
sbsba(ischedule
Activity
p1156
(dp1157
g8
(lp1158
g177
ag661
ag282
asg79
g443
sg80
g179
sg82
g146
sg84
g327
sg85
(iread_data
Room
p1159
(dp1160
g79
g270
sg80
g271
sbsba(ischedule
Activity
p1161
(dp1162
g8
(lp1163
g175
ag207
ag993
ag197
ag367
ag191
ag996
ag991
ag990
ag613
ag494
ag171
ag994
ag70
ag400
ag988
ag552
ag992
ag19
ag478
ag594
ag557
ag224
ag16
ag989
ag156
ag995
ag407
ag543
ag59
ag564
ag793
ag17
asg79
S'20'
p1164
sg80
g997
sg82
g162
sg84
g147
sg85
g692
sba(ischedule
Activity
p1165
(dp1166
g8
(lp1167
g14
ag576
ag409
ag495
ag842
asg79
g1164
sg80
g997
sg82
g162
sg84
g327
sg85
(iread_data
Room
p1168
(dp1169
g79
g150
sg80
g151
sbsba(ischedule
Activity
p1170
(dp1171
g8
(lp1172
g109
ag305
ag300
ag308
ag189
ag301
ag303
ag306
ag296
asg79
g160
sg80
g161
sg82
g162
sg84
g147
sg85
(iread_data
Room
p1173
(dp1174
g79
g113
sg80
g114
sbsbaaa(lp1175
(lp1176
(ischedule
Activity
p1177
(dp1178
g8
(lp1179
g266
ag579
ag600
ag237
ag601
ag599
ag595
ag425
ag494
ag598
asg79
g1124
sg80
g603
sg82
g146
sg84
g327
sg85
g724
sba(ischedule
Activity
p1180
(dp1181
g8
(lp1182
g400
ag45
ag66
ag611
ag615
ag48
ag626
ag614
ag172
ag317
ag240
ag34
ag619
ag226
ag618
ag17
ag622
ag623
asg79
g428
sg80
g429
sg82
g146
sg84
g147
sg85
(iread_data
Room
p1183
(dp1184
g79
g150
sg80
g151
sbsba(ischedule
Activity
p1185
(dp1186
g8
(lp1187
g155
ag224
ag516
ag52
ag578
ag109
ag822
ag837
ag842
ag465
ag625
ag93
ag841
ag442
ag642
ag846
ag843
ag143
ag844
ag60
ag136
ag20
ag840
ag384
ag540
ag68
ag517
ag839
ag393
ag616
ag809
ag356
ag211
ag46
ag231
ag234
ag64
ag704
ag241
ag97
ag239
ag849
ag825
asg79
S'40'
p1188
sg80
g852
sg82
g146
sg84
g147
sg85
(iread_data
Room
p1189
(dp1190
g79
g88
sg80
g89
sbsba(ischedule
Activity
p1191
(dp1192
g8
(lp1193
g59
ag439
ag848
ag621
ag227
ag158
ag403
ag847
ag850
ag811
ag156
ag661
ag381
ag838
ag851
ag565
ag334
ag845
ag358
ag128
ag836
ag779
ag217
ag715
ag729
ag177
ag173
ag202
ag734
ag705
ag528
ag125
asg79
g1188
sg80
g852
sg82
g146
sg84
g327
sg85
(iread_data
Room
p1194
(dp1195
g79
g166
sg80
g167
sbsba(ischedule
Activity
p1196
(dp1197
g8
(lp1198
g72
ag134
ag118
ag794
ag138
ag792
ag69
ag129
ag120
ag793
ag142
ag228
ag141
ag137
ag123
ag122
ag188
ag127
ag795
asg79
g371
sg80
g145
sg82
g162
sg84
g327
sg85
g1069
sba(ischedule
Activity
p1199
(dp1200
g8
(lp1201
g310
ag171
ag308
ag174
ag303
ag304
ag305
ag159
ag307
ag295
ag309
ag301
ag296
ag157
ag299
asg79
g267
sg80
g161
sg82
g146
sg84
g327
sg85
(iread_data
Room
p1202
(dp1203
g79
g182
sg80
g183
sbsba(ischedule
Activity
p1204
(dp1205
g8
(lp1206
g409
ag544
ag542
ag543
ag232
ag525
ag316
ag531
ag536
ag469
ag419
ag532
ag345
ag105
ag254
ag96
ag119
ag530
ag538
ag411
asg79
g881
sg80
g546
sg82
g162
sg84
g327
sg85
(iread_data
Room
p1207
(dp1208
g79
g113
sg80
g114
sbsbaa(lp1209
(ischedule
Activity
p1210
(dp1211
g8
(lp1212
g132
ag927
ag926
ag396
ag577
ag254
ag453
ag246
ag44
ag472
ag564
ag925
ag702
ag382
ag336
ag345
ag123
ag464
ag287
ag124
asg79
I1000
sg80
g678
sg82
g83
sg84
I0
sg85
(iread_data
Room
p1213
(dp1214
g79
g113
sg80
g114
sbsba(ischedule
Activity
p1215
(dp1216
g8
(lp1217
g400
ag543
ag316
ag622
ag143
ag628
ag618
ag612
ag66
ag422
ag65
ag34
ag427
ag613
ag59
ag104
ag616
ag419
ag420
ag244
ag240
ag418
ag534
ag626
ag624
ag621
ag125
ag172
ag610
ag620
ag421
ag317
ag619
ag614
ag615
ag226
asg79
g723
sg80
g429
sg82
g162
sg84
g327
sg85
(iread_data
Room
p1218
(dp1219
g79
g150
sg80
g151
sbsba(ischedule
Activity
p1220
(dp1221
g8
(lp1222
g826
ag717
ag74
ag95
ag342
ag450
ag552
ag565
ag639
ag827
ag347
ag829
ag471
ag122
ag824
ag25
ag743
ag823
ag242
ag822
ag830
ag297
ag139
ag655
ag611
ag574
ag62
ag735
ag155
ag714
ag715
ag10
ag828
ag623
asg79
g318
sg80
g319
sg82
g146
sg84
g327
sg85
(iread_data
Room
p1223
(dp1224
g79
g166
sg80
g167
sbsba(ischedule
Activity
p1225
(dp1226
g8
(lp1227
g441
ag174
ag661
ag64
ag671
ag437
ag39
ag440
ag442
ag177
ag175
ag282
ag438
ag435
ag439
ag295
ag75
ag171
ag176
ag173
ag436
ag172
asg79
I1000
sg80
g179
sg82
g83
sg84
I0
sg85
(iread_data
Room
p1228
(dp1229
g79
g270
sg80
g271
sbsba(ischedule
Activity
p1230
(dp1231
g8
(lp1232
g72
ag250
ag543
ag333
ag337
ag536
ag385
ag703
asg79
g664
sg80
g665
sg82
g146
sg84
g163
sg85
(iread_data
Room
p1233
(dp1234
g79
g88
sg80
g89
sbsba(ischedule
Activity
p1235
(dp1236
g8
(lp1237
g598
ag579
ag175
ag493
ag601
ag599
ag972
ag218
ag237
ag600
ag266
ag307
ag596
ag545
ag594
ag595
ag425
ag17
ag597
ag207
ag494
asg79
I1000
sg80
g603
sg82
g83
sg84
I0
sg85
(iread_data
Room
p1238
(dp1239
g79
g261
sg80
g262
sbsba(ischedule
Activity
p1240
(dp1241
g8
(lp1242
g276
ag97
ag410
ag779
ag899
ag900
ag501
ag205
ag278
ag897
ag409
ag135
ag22
ag56
ag46
ag346
aS'55480737'
p1243
asg79
g1062
sg80
g1063
sg82
g146
sg84
g327
sg85
(iread_data
Room
p1244
(dp1245
g79
g182
sg80
g183
sbsbaa(lp1246
(ischedule
Activity
p1247
(dp1248
g8
g9
sg79
I1000
sg80
g81
sg82
g83
sg84
I0
sg85
(iread_data
Room
p1249
(dp1250
g79
g261
sg80
g262
sbsba(ischedule
Activity
p1251
(dp1252
g8
(lp1253
g121
ag93
ag107
ag662
ag134
ag601
ag297
ag758
ag354
ag814
ag528
ag295
ag622
ag202
ag213
ag756
ag21
ag808
ag504
ag155
ag759
ag69
ag807
ag347
ag195
asg79
g1130
sg80
g762
sg82
g146
sg84
g327
sg85
(iread_data
Room
p1254
(dp1255
g79
g150
sg80
g151
sbsba(ischedule
Activity
p1256
(dp1257
g8
(lp1258
g279
ag809
ag212
ag435
ag480
ag132
ag899
ag400
ag139
ag450
ag342
ag1030
ag1029
ag646
ag503
ag120
ag544
ag384
ag420
ag926
ag244
ag214
ag596
ag1012
ag1034
ag198
ag298
ag618
ag826
ag1022
ag208
ag1036
ag282
ag704
ag423
ag894
ag1016
ag746
ag901
ag1035
ag1028
ag247
ag706
ag221
ag472
ag276
ag280
ag453
asg79
g1153
sg80
g1037
sg82
g162
sg84
g163
sg85
(iread_data
Room
p1259
(dp1260
g79
g88
sg80
g89
sbsba(ischedule
Activity
p1261
(dp1262
g8
(lp1263
g621
ag218
ag397
ag543
ag616
ag628
ag627
ag316
ag539
ag103
ag534
ag620
ag382
ag613
ag610
ag594
ag625
ag617
ag612
ag624
asg79
g428
sg80
g429
sg82
g146
sg84
g163
sg85
(iread_data
Room
p1264
(dp1265
g79
g270
sg80
g271
sbsbaa(lp1266
(ischedule
Activity
p1267
(dp1268
g8
g821
sg79
I1000
sg80
g319
sg82
g83
sg84
I0
sg85
(iread_data
Room
p1269
(dp1270
g79
g88
sg80
g89
sbsba(ischedule
Activity
p1271
(dp1272
g8
g186
sg79
I1000
sg80
g258
sg82
g83
sg84
I0
sg85
g724
sba(ischedule
Activity
p1273
(dp1274
g8
g959
sg79
I1000
sg80
g966
sg82
g83
sg84
I0
sg85
(iread_data
Room
p1275
(dp1276
g79
g150
sg80
g151
sbsba(ischedule
Activity
p1277
(dp1278
g8
(lp1279
g55
ag72
ag128
ag663
ag706
ag702
ag465
ag707
ag618
ag385
ag701
ag535
ag543
ag266
ag297
asg79
g801
sg80
g665
sg82
g162
sg84
g163
sg85
(iread_data
Room
p1280
(dp1281
g79
g182
sg80
g183
sbsba(ischedule
Activity
p1282
(dp1283
g8
g1227
sg79
I1000
sg80
g179
sg82
g83
sg84
I0
sg85
(iread_data
Room
p1284
(dp1285
g79
g113
sg80
g114
sbsbaa(lp1286
(ischedule
Activity
p1287
(dp1288
g8
(lp1289
g304
ag284
ag861
ag125
ag42
ag276
ag93
ag1049
ag287
ag1050
ag283
ag122
ag216
ag346
ag738
ag286
ag814
ag277
ag295
ag1048
ag405
ag278
ag102
ag279
ag282
ag280
ag310
ag119
ag214
ag990
ag281
ag285
asg79
I1000
sg80
g289
sg82
g83
sg84
I0
sg85
(iread_data
Room
p1290
(dp1291
g79
g270
sg80
g271
sbsba(ischedule
Activity
p1292
(dp1293
g8
g1237
sg79
I1000
sg80
g603
sg82
g83
sg84
I0
sg85
(iread_data
Room
p1294
(dp1295
g79
g261
sg80
g262
sbsba(ischedule
Activity
p1296
(dp1297
g8
(lp1298
g1014
ag67
ag622
ag24
ag43
ag565
ag73
ag1023
ag576
ag1031
ag381
ag1025
ag898
ag778
ag96
ag250
ag12
ag847
ag730
ag55
ag57
ag964
ag1021
ag731
ag962
ag479
ag107
ag1019
ag1004
ag200
ag351
ag1020
ag421
ag378
ag1018
ag1024
ag1032
ag1027
ag1013
ag850
asg79
g1153
sg80
g1037
sg82
g162
sg84
g147
sg85
(iread_data
Room
p1299
(dp1300
g79
g88
sg80
g89
sbsba(ischedule
Activity
p1301
(dp1302
g8
(lp1303
g189
ag236
ag155
ag109
ag156
ag297
ag158
ag306
ag298
ag300
ag302
asg79
g267
sg80
g161
sg82
g146
sg84
g163
sg85
(iread_data
Room
p1304
(dp1305
g79
g113
sg80
g114
sbsba(ischedule
Activity
p1306
(dp1307
g8
(lp1308
g1061
ag717
aS'51472074'
p1309
aS'1695839'
p1310
ag757
ag581
aS'55103073'
p1311
ag465
ag528
ag255
ag338
ag26
ag993
ag926
ag398
ag1085
asg79
g508
sg80
g509
sg82
g146
sg84
g163
sg85
(iread_data
Room
p1312
(dp1313
g79
g182
sg80
g183
sbsba(ischedule
Activity
p1314
(dp1315
g8
g1114
sg79
I1000
sg80
g145
sg82
g83
sg84
I0
sg85
(iread_data
Room
p1316
(dp1317
g79
g150
sg80
g151
sbsba(ischedule
Activity
p1318
(dp1319
g8
(lp1320
g661
ag256
ag566
ag247
ag703
ag517
ag619
ag536
ag400
ag234
ag246
ag104
ag350
ag22
ag662
ag516
ag646
ag337
ag704
ag705
ag333
ag380
ag708
ag544
asg79
g801
sg80
g665
sg82
g162
sg84
g147
sg85
(iread_data
Room
p1321
(dp1322
g79
g166
sg80
g167
sbsbaaa(lp1323
(lp1324
a(lp1325
a(lp1326
a(lp1327
a(lp1328
aasS'timeslot_dict'
p1329
(dp1330
I0
S'9:00-11:00'
p1331
sI1
S'11:00-13:00'
p1332
sI2
S'13:00-15:00'
p1333
sI3
S'15:00-17:00'
p1334
sI4
S'17:00-19:00'
p1335
ssS'day_dict'
p1336
(dp1337
I0
S'Monday'
p1338
sI1
S'Tuesday'
p1339
sI2
S'Wednesday'
p1340
sI3
S'Thursday'
p1341
sI4
S'Friday'
p1342
ssb.