(ischedule
Schedule
p0
(dp1
S'timetable'
p2
(lp3
(lp4
(lp5
(ischedule
Activity
p6
(dp7
S'participants'
p8
(lp9
S'34243356'
p10
aS'54772132'
p11
aS'43689934'
p12
aS'27950803'
p13
aS'34110913'
p14
aS'58522654'
p15
aS'24613625'
p16
aS'84524083'
p17
aS'31194811'
p18
aS'86988337'
p19
aS'8464817'
p20
aS'65960683'
p21
aS'42778953'
p22
aS'40791377'
p23
aS'73236988'
p24
aS'6723948'
p25
aS'11915563'
p26
aS'75759231'
p27
aS'81385263'
p28
aS'88636924'
p29
aS'83266686'
p30
aS'77896638'
p31
aS'48308205'
p32
aS'27187154'
p33
aS'95007221'
p34
aS'76661016'
p35
aS'13911001'
p36
aS'88752563'
p37
aS'30658799'
p38
aS'5368702'
p39
aS'14309255'
p40
aS'2079771'
p41
aS'75664412'
p42
aS'92665222'
p43
aS'15911353'
p44
aS'37770881'
p45
aS'65852230'
p46
aS'44391517'
p47
aS'2317551'
p48
aS'60312776'
p49
aS'1766560'
p50
aS'98105190'
p51
aS'5595824'
p52
aS'75599734'
p53
asS'capacity'
p54
S'40'
p55
sS'name'
p56
S'Compilerbouw'
p57
sS'ttype'
p58
S'labs'
p59
sS'group_id'
p60
S'2'
p61
sS'room'
p62
(iread_data
Room
p63
(dp64
g54
S'56'
p65
sg56
S'A1.10'
p66
sbsba(ischedule
Activity
p67
(dp68
g8
(lp69
S'57086672'
p70
aS'76648468'
p71
aS'76903244'
p72
aS'41790793'
p73
aS'72895450'
p74
aS'49908313'
p75
aS'64228258'
p76
aS'22288615'
p77
aS'2416751'
p78
aS'66034145'
p79
aS'6249823'
p80
aS'61443567'
p81
aS'3474870'
p82
aS'43902015'
p83
aS'76123484'
p84
aS'24891081'
p85
aS'77392404'
p86
aS'10698627'
p87
aS'40434933'
p88
aS'14847953'
p89
aS'69459473'
p90
aS'67073567'
p91
aS'53202517'
p92
aS'20618153'
p93
aS'16333449'
p94
aS'14303208'
p95
aS'43460038'
p96
aS'89180944'
p97
aS'28358060'
p98
aS'53512831'
p99
aS'78243495'
p100
aS'17092717'
p101
aS'1137946'
p102
aS'94930277'
p103
aS'33877725'
p104
aS'72577292'
p105
aS'27064249'
p106
aS'5615125'
p107
aS'39230359'
p108
asg54
I1000
sg56
S'Webprogrammeren en databases'
p109
sg58
S'lectures'
p110
sg60
I0
sg62
(iread_data
Room
p111
(dp112
g54
S'60'
p113
sg56
S'C1.112'
p114
sbsba(ischedule
Activity
p115
(dp116
g8
(lp117
S'82689818'
p118
aS'14816774'
p119
aS'51542218'
p120
aS'3168419'
p121
aS'64296965'
p122
aS'96054456'
p123
aS'247918'
p124
aS'29526540'
p125
aS'34872117'
p126
aS'42196732'
p127
aS'56749879'
p128
aS'39459642'
p129
aS'75005528'
p130
aS'26406342'
p131
aS'4921119'
p132
aS'26207525'
p133
aS'49631542'
p134
aS'56121590'
p135
aS'4529208'
p136
aS'94686490'
p137
aS'29640619'
p138
aS'86180471'
p139
aS'64947290'
p140
ag88
aS'11996292'
p141
aS'47932106'
p142
aS'5517869'
p143
aS'37701751'
p144
aS'56872729'
p145
aS'5526560'
p146
aS'43027916'
p147
aS'58332004'
p148
aS'670011'
p149
aS'15187217'
p150
aS'51566595'
p151
aS'73823548'
p152
aS'40141996'
p153
aS'46989508'
p154
asg54
S'40'
p155
sg56
S'Databases 2'
p156
sg58
S'tutorials'
p157
sg60
g61
sg62
(iread_data
Room
p158
(dp159
g54
S'41'
p160
sg56
S'A1.04'
p161
sbsba(ischedule
Activity
p162
(dp163
g8
(lp164
S'54569540'
p165
aS'5298748'
p166
aS'92778619'
p167
aS'36213792'
p168
aS'24277163'
p169
aS'90474003'
p170
ag13
aS'99975346'
p171
aS'70193386'
p172
aS'84449005'
p173
aS'52715680'
p174
aS'13092455'
p175
aS'43680781'
p176
aS'60661905'
p177
aS'33776961'
p178
aS'51415617'
p179
aS'38296757'
p180
aS'96554914'
p181
aS'22826928'
p182
aS'6913074'
p183
aS'59753700'
p184
aS'22871048'
p185
aS'20239127'
p186
aS'82390428'
p187
ag19
aS'61518436'
p188
aS'42406214'
p189
aS'13718298'
p190
aS'27370083'
p191
aS'32044893'
p192
aS'51052738'
p193
aS'20095994'
p194
aS'60352393'
p195
aS'27805666'
p196
aS'87830198'
p197
aS'77960666'
p198
ag17
aS'37399898'
p199
aS'49922855'
p200
aS'68286356'
p201
aS'70844780'
p202
aS'36785409'
p203
aS'99453514'
p204
ag86
ag70
aS'78136904'
p205
aS'3685034'
p206
aS'37110913'
p207
aS'41578612'
p208
aS'13658563'
p209
aS'4709948'
p210
asg54
I1000
sg56
S'Reflectie op de digitale cultuur'
p211
sg58
g110
sg60
I0
sg62
(iread_data
Room
p212
(dp213
g54
S'117'
p214
sg56
S'C0.110'
p215
sbsba(ischedule
Activity
p216
(dp217
g8
(lp218
S'44901052'
p219
aS'92977271'
p220
aS'18266644'
p221
aS'62701040'
p222
aS'23983476'
p223
aS'77636749'
p224
aS'19958553'
p225
aS'13116738'
p226
aS'29718115'
p227
asg54
S'15'
p228
sg56
S'Informatie- en organsatieontwerp'
p229
sg58
g157
sg60
S'1'
p230
sg62
(iread_data
Room
p231
(dp232
g54
S'22'
p233
sg56
S'A1.06'
p234
sbsba(ischedule
Activity
p235
(dp236
g8
(lp237
S'8557857'
p238
aS'36748818'
p239
aS'68315599'
p240
aS'70878567'
p241
aS'75585647'
p242
aS'75521763'
p243
aS'17496687'
p244
aS'11459236'
p245
aS'32204977'
p246
aS'23257088'
p247
asg54
S'15'
p248
sg56
g229
sg58
g59
sg60
g61
sg62
(iread_data
Room
p249
(dp250
g54
S'48'
p251
sg56
S'B0.201'
p252
sbsba(ischedule
Activity
p253
(dp254
g8
(lp255
S'36903574'
p256
aS'59075181'
p257
aS'33930505'
p258
aS'30195935'
p259
aS'9731271'
p260
aS'31247305'
p261
aS'7308727'
p262
aS'86291592'
p263
aS'97135019'
p264
aS'62736669'
p265
aS'59887191'
p266
aS'64246605'
p267
aS'5590289'
p268
aS'7957843'
p269
asg54
S'20'
p270
sg56
S'Netwerken en systeembeveiliging'
p271
sg58
g59
sg60
S'4'
p272
sg62
(iread_data
Room
p273
(dp274
g54
S'20'
p275
sg56
S'A1.08'
p276
sbsbaa(lp277
(ischedule
Activity
p278
(dp279
g8
(lp280
g190
aS'31633723'
p281
aS'78443067'
p282
aS'61060652'
p283
aS'77376714'
p284
aS'65318664'
p285
aS'62105897'
p286
ag261
aS'44868097'
p287
aS'3233378'
p288
aS'94467156'
p289
aS'37744525'
p290
aS'55474917'
p291
ag24
aS'14671406'
p292
ag100
aS'80709893'
p293
aS'42115591'
p294
ag49
aS'26260141'
p295
ag26
aS'54026378'
p296
aS'89985072'
p297
aS'62356458'
p298
ag174
ag104
aS'1048485'
p299
aS'4783858'
p300
aS'22323043'
p301
ag40
aS'65408517'
p302
aS'83210352'
p303
aS'48357272'
p304
aS'88176729'
p305
aS'58565406'
p306
aS'95631564'
p307
aS'25106480'
p308
aS'73302736'
p309
aS'21095566'
p310
aS'52311353'
p311
aS'51593625'
p312
ag181
ag13
aS'70015932'
p313
aS'40343779'
p314
aS'5976174'
p315
ag97
aS'44671041'
p316
aS'99283252'
p317
aS'68409833'
p318
aS'48601268'
p319
ag185
aS'14072826'
p320
aS'3727435'
p321
aS'45915482'
p322
ag53
aS'4568018'
p323
aS'41153310'
p324
aS'31103066'
p325
aS'89338938'
p326
aS'84110134'
p327
aS'27582862'
p328
aS'28357474'
p329
aS'52552718'
p330
aS'11068043'
p331
aS'82872148'
p332
aS'58074656'
p333
aS'59544049'
p334
aS'4546613'
p335
ag138
aS'41527759'
p336
ag96
aS'50143947'
p337
aS'37830626'
p338
aS'9287708'
p339
asg54
I1000
sg56
S'Software engineering'
p340
sg58
g110
sg60
I0
sg62
(iread_data
Room
p341
(dp342
g54
g214
sg56
g215
sbsba(ischedule
Activity
p343
(dp344
g8
(lp345
g238
ag239
ag240
ag241
ag242
ag243
ag244
ag245
ag246
ag209
ag247
ag148
asg54
g228
sg56
g229
sg58
g157
sg60
g61
sg62
(iread_data
Room
p346
(dp347
g54
g113
sg56
g114
sbsba(ischedule
Activity
p348
(dp349
g8
(lp350
S'85335143'
p351
aS'15051051'
p352
ag176
aS'28359697'
p353
aS'64600457'
p354
ag125
aS'14591033'
p355
aS'21964491'
p356
ag182
aS'56815156'
p357
ag92
ag119
aS'79617364'
p358
aS'21029457'
p359
ag15
ag258
asg54
S'20'
p360
sg56
S'Bioinformatica'
p361
sg58
g59
sg60
S'3'
p362
sg62
(iread_data
Room
p363
(dp364
g54
g160
sg56
g161
sbsba(ischedule
Activity
p365
(dp366
g8
(lp367
g95
ag103
ag107
ag82
ag102
ag90
ag72
ag106
ag91
ag80
ag74
ag93
ag99
ag88
ag73
ag71
ag85
ag79
ag87
asg54
S'20'
p368
sg56
g109
sg58
g157
sg60
g61
sg62
(iread_data
Room
p369
(dp370
g54
g233
sg56
g234
sbsba(ischedule
Activity
p371
(dp372
g8
(lp373
S'23547619'
p374
ag43
ag105
ag89
aS'72665524'
p375
aS'40633534'
p376
ag195
aS'28618400'
p377
aS'47477884'
p378
aS'62613937'
p379
asg54
S'10'
p380
sg56
S'Advanced Heuristics'
p381
sg58
g59
sg60
g61
sg62
(iread_data
Room
p382
(dp383
g54
g275
sg56
g276
sbsba(ischedule
Activity
p384
(dp385
g8
(lp386
g171
ag315
aS'81200278'
p387
aS'16097870'
p388
aS'22731474'
p389
aS'5739011'
p390
aS'31897288'
p391
aS'81022997'
p392
aS'35315956'
p393
ag147
ag100
aS'1886996'
p394
ag149
ag151
aS'83869542'
p395
ag70
aS'63634350'
p396
aS'52304977'
p397
ag81
aS'15249775'
p398
aS'58040377'
p399
aS'27925117'
p400
aS'87602030'
p401
aS'7106649'
p402
aS'82968410'
p403
aS'33760909'
p404
aS'58736785'
p405
aS'48678993'
p406
aS'34765676'
p407
aS'85236626'
p408
ag17
aS'72652638'
p409
asg54
I1000
sg56
S'Heuristieken 2'
p410
sg58
g110
sg60
I0
sg62
(iread_data
Room
p411
(dp412
g54
g251
sg56
g252
sbsbaa(lp413
(ischedule
Activity
p414
(dp415
g8
(lp416
S'44828429'
p417
aS'96453361'
p418
ag256
ag118
aS'1665980'
p419
ag19
ag205
ag337
aS'53585410'
p420
aS'15902055'
p421
aS'64554442'
p422
aS'19540225'
p423
aS'57467488'
p424
ag174
ag83
ag315
ag74
ag314
ag356
ag284
aS'27298319'
p425
aS'91527663'
p426
aS'3707829'
p427
aS'88596522'
p428
aS'66433883'
p429
aS'58592894'
p430
aS'41585485'
p431
ag82
ag151
ag407
ag336
ag223
aS'8522855'
p432
ag310
ag28
ag292
ag295
aS'67817269'
p433
ag140
aS'23652927'
p434
aS'51509565'
p435
aS'46701583'
p436
aS'12077419'
p437
asg54
I1000
sg56
S'Algoritmen en complexiteit'
p438
sg58
g110
sg60
I0
sg62
(iread_data
Room
p439
(dp440
g54
g251
sg56
g252
sbsba(ischedule
Activity
p441
(dp442
g8
(lp443
S'77831658'
p444
aS'74131924'
p445
asg54
g360
sg56
g361
sg58
g59
sg60
g61
sg62
(iread_data
Room
p446
(dp447
g54
g214
sg56
g215
sbsba(ischedule
Activity
p448
(dp449
g8
(lp450
g38
aS'18144425'
p451
aS'78821918'
p452
aS'1181560'
p453
ag30
aS'78544592'
p454
ag100
ag178
aS'3883025'
p455
aS'36527838'
p456
aS'66621166'
p457
aS'48198668'
p458
aS'58699305'
p459
ag210
ag173
aS'46570285'
p460
aS'96082155'
p461
asg54
S'20'
p462
sg56
S'Moderne Databases'
p463
sg58
g157
sg60
g230
sg62
(iread_data
Room
p464
(dp465
g54
g233
sg56
g234
sbsba(ischedule
Activity
p466
(dp467
g8
(lp468
g128
ag387
ag352
ag354
ag92
ag25
ag331
ag323
ag297
ag119
ag305
ag262
ag24
ag121
ag359
ag355
ag127
ag16
ag182
ag104
ag357
ag259
ag166
aS'66120270'
p469
ag258
ag183
ag125
asg54
S'20'
p470
sg56
g361
sg58
g157
sg60
g230
sg62
(iread_data
Room
p471
(dp472
g54
g113
sg56
g114
sbsba(ischedule
Activity
p473
(dp474
g8
(lp475
S'64393888'
p476
ag33
ag177
ag289
ag398
ag81
aS'7492204'
p477
aS'94955328'
p478
aS'39905995'
p479
aS'38499176'
p480
ag198
ag132
aS'31416266'
p481
aS'85284256'
p482
asg54
S'20'
p483
sg56
S'Programmeren in Java 2'
p484
sg58
g59
sg60
g230
sg62
(iread_data
Room
p485
(dp486
g54
g160
sg56
g161
sbsba(ischedule
Activity
p487
(dp488
g8
(lp489
g18
aS'77264363'
p490
ag176
ag402
aS'93041523'
p491
aS'70336464'
p492
ag326
ag208
ag246
ag207
ag301
ag437
aS'47982619'
p493
aS'10149535'
p494
ag240
aS'76487754'
p495
ag374
ag219
ag243
ag131
aS'12430748'
p496
ag203
aS'21192048'
p497
aS'9332762'
p498
aS'97371272'
p499
aS'14383795'
p500
ag224
aS'69086548'
p501
ag351
aS'92496780'
p502
ag42
ag40
ag306
ag80
aS'4697362'
p503
ag88
ag141
ag32
asg54
I1000
sg56
S'Technology for games'
p504
sg58
g110
sg60
I0
sg62
(iread_data
Room
p505
(dp506
g54
g65
sg56
g66
sbsba(ischedule
Activity
p507
(dp508
g8
(lp509
g169
aS'11741347'
p510
ag143
aS'63111000'
p511
aS'70072978'
p512
ag134
asg54
S'20'
p513
sg56
g463
sg58
g59
sg60
g362
sg62
(iread_data
Room
p514
(dp515
g54
g275
sg56
g276
sbsbaa(lp516
(ischedule
Activity
p517
(dp518
g8
(lp519
g148
ag169
ag512
ag195
ag149
ag378
ag132
ag395
ag170
aS'27123462'
p520
ag134
ag31
ag145
ag247
aS'72456780'
p521
ag118
ag430
ag136
aS'58083680'
p522
ag142
ag37
ag147
ag127
ag88
ag141
ag119
ag130
aS'25077484'
p523
ag129
aS'5085194'
p524
aS'17222374'
p525
ag120
aS'54540997'
p526
aS'12091019'
p527
ag175
ag154
ag265
ag139
aS'72796858'
p528
ag121
ag143
aS'13132925'
p529
ag128
ag152
ag424
ag144
ag135
ag101
ag84
ag153
ag131
ag452
ag198
ag122
ag146
aS'59397895'
p530
ag137
ag140
aS'23658570'
p531
ag19
ag83
ag123
ag151
aS'56191333'
p532
ag150
ag426
ag330
ag124
ag138
ag125
ag133
ag126
asg54
I1000
sg56
g156
sg58
g110
sg60
I0
sg62
(iread_data
Room
p533
(dp534
g54
g214
sg56
g215
sbsba(ischedule
Activity
p535
(dp536
g8
(lp537
g219
ag148
ag209
ag238
ag220
ag239
ag221
ag240
ag222
ag241
ag223
ag242
ag224
ag243
ag247
ag244
ag225
ag245
ag226
ag246
ag227
asg54
I1000
sg56
g229
sg58
g110
sg60
I0
sg62
(iread_data
Room
p538
(dp539
g54
g160
sg56
g161
sbsba(ischedule
Activity
p540
(dp541
g8
(lp542
g288
ag293
ag335
ag319
ag313
ag97
ag323
ag53
ag40
ag190
ag315
ag26
ag298
ag181
ag286
ag261
ag312
ag303
ag304
ag296
ag301
ag138
ag332
ag13
ag297
ag287
ag284
ag299
ag306
ag290
ag330
ag329
ag325
ag283
ag322
ag336
ag338
ag24
ag292
ag100
ag295
ag309
ag331
ag282
ag104
ag289
asg54
S'40'
p543
sg56
g340
sg58
g157
sg60
g61
sg62
(iread_data
Room
p544
(dp545
g54
g251
sg56
g252
sbsba(ischedule
Activity
p546
(dp547
g8
(lp548
g174
ag308
ag314
ag281
ag327
ag300
ag311
ag307
ag337
ag326
ag334
ag321
ag318
ag96
ag339
ag302
ag324
ag294
ag317
ag49
ag310
ag320
ag316
ag291
ag305
ag333
ag185
ag285
ag328
asg54
g543
sg56
g340
sg58
g157
sg60
g230
sg62
(iread_data
Room
p549
(dp550
g54
g113
sg56
g114
sbsba(ischedule
Activity
p551
(dp552
g8
(lp553
g444
ag392
aS'86807027'
p554
ag189
ag50
aS'2550487'
p555
asg54
S'15'
p556
sg56
S'Project Numerical Recipes'
p557
sg58
g59
sg60
g362
sg62
(iread_data
Room
p558
(dp559
g54
g65
sg56
g66
sbsbaa(lp560
(ischedule
Activity
p561
(dp562
g8
(lp563
g436
ag421
aS'33672995'
p564
ag286
aS'55412918'
p565
aS'37279234'
p566
aS'24875739'
p567
ag30
ag494
aS'75623387'
p568
ag351
aS'75446434'
p569
aS'6939933'
p570
ag388
aS'56348773'
p571
ag354
ag400
ag153
ag531
ag139
aS'22168693'
p572
ag287
aS'75997788'
p573
ag404
aS'11593163'
p574
ag123
ag183
ag375
aS'74182182'
p575
ag295
aS'6709529'
p576
aS'23565001'
p577
ag25
ag95
ag152
ag180
ag460
aS'3678531'
p578
aS'79888156'
p579
ag459
ag33
aS'77306636'
p580
ag527
aS'88855695'
p581
aS'31306819'
p582
aS'65978354'
p583
ag554
ag302
ag425
aS'70939718'
p584
aS'10609762'
p585
ag358
aS'59220392'
p586
ag260
aS'72526473'
p587
aS'81155296'
p588
aS'32705005'
p589
ag37
ag242
ag119
ag335
aS'51741554'
p590
aS'34173695'
p591
aS'58253841'
p592
aS'55530367'
p593
ag396
aS'82412626'
p594
aS'10792879'
p595
ag300
aS'14179347'
p596
aS'86000192'
p597
aS'28957789'
p598
aS'62363761'
p599
ag35
ag107
ag399
aS'23628642'
p600
ag106
ag137
aS'79167252'
p601
aS'53139134'
p602
aS'80188025'
p603
ag76
aS'38179241'
p604
ag420
ag264
ag145
aS'93361408'
p605
ag401
ag454
ag309
ag359
aS'19717077'
p606
aS'87900893'
p607
ag322
aS'83415514'
p608
aS'56544130'
p609
ag355
ag142
aS'61520025'
p610
ag282
ag378
ag304
aS'58469172'
p611
aS'78735049'
p612
ag430
asg54
I1000
sg56
S'Calculus 2'
p613
sg58
g110
sg60
I0
sg62
(iread_data
Room
p614
(dp615
g54
g214
sg56
g215
sbsba(ischedule
Activity
p616
(dp617
g8
(lp618
g45
ag525
ag222
ag122
ag404
ag262
aS'96104167'
p619
aS'73980360'
p620
ag81
ag597
aS'13534377'
p621
ag105
ag481
aS'54310617'
p622
ag356
aS'1075391'
p623
ag590
ag84
ag300
ag21
ag131
ag31
aS'46052388'
p624
aS'45556081'
p625
ag308
aS'35330349'
p626
aS'1696500'
p627
ag421
aS'77240949'
p628
ag476
ag374
ag76
ag138
ag337
aS'57595888'
p629
aS'22699561'
p630
ag498
ag15
ag127
ag329
aS'50184318'
p631
ag319
ag169
ag419
ag264
ag118
ag243
ag49
aS'87758823'
p632
aS'68601184'
p633
ag22
ag175
ag143
aS'29474737'
p634
aS'53107172'
p635
aS'17575088'
p636
aS'34773179'
p637
aS'42171678'
p638
ag288
ag147
ag263
asg54
I1000
sg56
S'Collectieve Intelligentie'
p639
sg58
g110
sg60
I0
sg62
(iread_data
Room
p640
(dp641
g54
g113
sg56
g114
sbsba(ischedule
Activity
p642
(dp643
g8
(lp644
g296
ag425
ag185
aS'34806836'
p645
aS'88627897'
p646
aS'70113753'
p647
ag330
ag143
ag151
aS'19858730'
p648
ag528
ag26
ag298
ag129
ag388
ag219
aS'62872965'
p649
aS'36508571'
p650
ag207
aS'61611295'
p651
ag318
ag445
asg54
I1000
sg56
S'Autonomous Agents 2'
p652
sg58
g110
sg60
I0
sg62
(iread_data
Room
p653
(dp654
g54
g160
sg56
g161
sbsba(ischedule
Activity
p655
(dp656
g8
(lp657
S'91196968'
p658
aS'17823206'
p659
ag392
aS'66122625'
p660
asg54
S'10'
p661
sg56
S'Data Mining'
p662
sg58
g157
sg60
g61
sg62
(iread_data
Room
p663
(dp664
g54
g233
sg56
g234
sbsba(ischedule
Activity
p665
(dp666
g8
(lp667
S'97136582'
p668
ag226
asg54
S'10'
p669
sg56
g662
sg58
g59
sg60
g362
sg62
(iread_data
Room
p670
(dp671
g54
g251
sg56
g252
sbsbaaa(lp672
(lp673
(ischedule
Activity
p674
(dp675
g8
(lp676
g296
ag649
ag388
ag648
ag129
ag528
ag26
ag185
asg54
S'10'
p677
sg56
g652
sg58
g59
sg60
g230
sg62
(iread_data
Room
p678
(dp679
g54
g233
sg56
g234
sbsba(ischedule
Activity
p680
(dp681
g8
(lp682
g38
ag354
ag352
ag36
ag239
ag100
ag608
ag638
ag460
ag178
ag50
ag240
ag573
ag454
ag430
ag243
ag453
ag30
ag459
ag176
aS'41489515'
p683
aS'49219163'
p684
ag40
aS'51650744'
p685
ag97
ag173
ag141
ag525
ag455
asg54
g513
sg56
g463
sg58
g59
sg60
g230
sg62
(iread_data
Room
p686
(dp687
g54
g251
sg56
g252
sbsba(ischedule
Activity
p688
(dp689
g8
(lp690
g621
ag169
ag263
ag630
ag118
ag15
ag131
ag637
ag626
ag404
ag481
ag597
ag31
ag634
ag629
ag635
ag329
ag620
ag22
ag374
ag147
asg54
S'20'
p691
sg56
g639
sg58
g157
sg60
g362
sg62
(iread_data
Room
p692
(dp693
g54
g214
sg56
g215
sbsba(ischedule
Activity
p694
(dp695
g8
(lp696
S'25330192'
p697
ag184
ag392
ag226
ag356
ag151
aS'19337738'
p698
ag658
ag445
aS'98780382'
p699
aS'93023961'
p700
ag207
ag607
aS'87314964'
p701
aS'45414528'
p702
ag387
ag290
ag204
ag668
ag241
ag660
aS'13996448'
p703
aS'68360259'
p704
ag659
ag311
ag301
ag337
asg54
I1000
sg56
g662
sg58
g110
sg60
I0
sg62
(iread_data
Room
p705
(dp706
g54
g160
sg56
g161
sbsba(ischedule
Activity
p707
(dp708
g8
(lp709
g623
ag222
ag628
ag127
ag632
ag421
ag45
asg54
S'20'
p710
sg56
g639
sg58
g59
sg60
g272
sg62
(iread_data
Room
p711
(dp712
g54
g65
sg56
g66
sbsba(ischedule
Activity
p713
(dp714
g8
(lp715
g425
ag314
ag336
ag418
ag419
ag429
ag436
ag140
ag407
ag433
ag428
ag434
ag205
ag74
ag174
ag315
ag19
ag422
ag420
asg54
S'25'
p716
sg56
g438
sg58
g59
sg60
g230
sg62
(iread_data
Room
p717
(dp718
g54
g113
sg56
g114
sbsba(ischedule
Activity
p719
(dp720
g8
(lp721
g452
ag631
ag284
ag317
ag451
aS'27241113'
p722
ag210
ag125
aS'59111489'
p723
ag456
aS'47462856'
p724
ag351
ag282
ag458
ag148
aS'27916487'
p725
ag461
ag457
aS'13218321'
p726
asg54
g513
sg56
g463
sg58
g59
sg60
g61
sg62
(iread_data
Room
p727
(dp728
g54
g275
sg56
g276
sbsbaa(lp729
(ischedule
Activity
p730
(dp731
g8
(lp732
S'4353500'
p733
aS'20331158'
p734
aS'79879876'
p735
ag128
ag323
ag257
ag283
ag638
aS'14941752'
p736
aS'83443653'
p737
ag300
ag207
aS'76393508'
p738
ag627
ag103
ag301
aS'45660925'
p739
ag220
ag243
ag256
aS'97019450'
p740
ag355
ag648
aS'20830477'
p741
ag554
ag391
ag424
aS'53775014'
p742
ag573
aS'81218347'
p743
aS'71839156'
p744
ag660
ag405
ag51
aS'14138904'
p745
aS'87210640'
p746
ag185
ag635
ag141
ag304
aS'97417002'
p747
ag219
ag119
ag209
asg54
I1000
sg56
S'Heuristieken 1'
p748
sg58
g110
sg60
I0
sg62
(iread_data
Room
p749
(dp750
g54
g113
sg56
g114
sbsba(ischedule
Activity
p751
(dp752
g8
(lp753
g139
ag581
ag76
ag264
ag355
ag595
ag610
ag575
ag594
ag401
ag586
ag25
ag583
ag585
ag564
ag425
ag584
ag603
ag570
ag582
ag400
ag569
ag322
ag592
ag388
ag607
ag527
ag605
ag460
ag242
asg54
S'40'
p754
sg56
g613
sg58
g157
sg60
g61
sg62
(iread_data
Room
p755
(dp756
g54
g65
sg56
g66
sbsba(ischedule
Activity
p757
(dp758
g8
(lp759
g387
ag417
ag35
aS'19214659'
p760
ag427
ag555
ag28
ag335
aS'93566383'
p761
aS'28055464'
p762
aS'21677389'
p763
ag407
ag79
aS'64768422'
p764
ag39
aS'65675896'
p765
ag604
ag89
ag144
aS'76924297'
p766
ag588
ag199
aS'69634191'
p767
aS'20374340'
p768
ag374
asg54
I1000
sg56
S'Interactie-ontwerp'
p769
sg58
g110
sg60
I0
sg62
(iread_data
Room
p770
(dp771
g54
g251
sg56
g252
sbsba(ischedule
Activity
p772
(dp773
g8
(lp774
g188
ag436
ag289
aS'90067329'
p775
ag33
aS'56988998'
p776
ag408
ag628
aS'23798155'
p777
aS'49683101'
p778
ag23
ag180
ag511
ag129
ag41
ag315
aS'33252501'
p779
aS'67625383'
p780
ag290
aS'26857113'
p781
ag206
ag352
asg54
I1000
sg56
S'Machine Learning'
p782
sg58
g110
sg60
I0
sg62
(iread_data
Room
p783
(dp784
g54
g233
sg56
g234
sbsba(ischedule
Activity
p785
(dp786
g8
(lp787
g176
ag334
ag351
ag356
ag124
ag353
ag418
ag296
ag241
ag123
aS'20883994'
p788
ag358
ag287
ag445
aS'30050930'
p789
ag15
asg54
g470
sg56
g361
sg58
g157
sg60
g61
sg62
(iread_data
Room
p790
(dp791
g54
g214
sg56
g215
sbsba(ischedule
Activity
p792
(dp793
g8
(lp794
g608
ag210
ag149
ag138
ag493
aS'34900967'
p795
ag312
aS'10702778'
p796
ag421
aS'64053722'
p797
ag658
ag222
aS'54395877'
p798
ag354
aS'90296821'
p799
aS'7386961'
p800
ag11
aS'99272880'
p801
ag566
ag183
asg54
g483
sg56
g484
sg58
g59
sg60
g362
sg62
(iread_data
Room
p802
(dp803
g54
g275
sg56
g276
sbsbaa(lp804
(ischedule
Activity
p805
(dp806
g8
(lp807
g284
ag331
ag336
ag337
ag339
ag138
ag324
ag287
ag299
ag316
ag338
ag300
ag295
ag313
ag333
ag322
ag314
ag288
ag100
ag308
ag311
ag96
ag285
ag297
ag305
ag317
ag319
ag325
ag335
ag298
ag292
ag326
ag309
ag181
ag327
ag330
ag304
ag283
asg54
S'40'
p808
sg56
g340
sg58
g59
sg60
g230
sg62
(iread_data
Room
p809
(dp810
g54
g65
sg56
g66
sbsba(ischedule
Activity
p811
(dp812
g8
(lp813
g27
ag40
ag23
aS'80135353'
p814
ag129
ag10
ag263
ag11
aS'94687383'
p815
ag50
ag601
ag12
ag240
ag34
aS'13284244'
p816
ag42
ag32
ag437
aS'76802764'
p817
ag13
aS'66701209'
p818
ag581
ag39
ag45
ag46
ag47
ag52
ag14
ag154
ag15
ag24
ag37
ag38
ag307
ag33
ag16
aS'3407554'
p819
ag35
ag29
ag17
ag53
ag269
ag28
ag92
ag25
ag510
ag26
ag31
ag528
ag41
ag49
ag595
ag126
ag18
ag48
ag19
aS'79033175'
p820
ag20
ag51
ag21
aS'48503689'
p821
ag74
ag778
ag36
aS'9067939'
p822
ag22
ag44
ag30
ag43
asg54
I1000
sg56
g57
sg58
g110
sg60
I0
sg62
(iread_data
Room
p823
(dp824
g54
g214
sg56
g215
sbsba(ischedule
Activity
p825
(dp826
g8
(lp827
g210
ag169
ag188
ag172
ag196
ag168
ag207
ag165
ag198
ag199
ag183
ag190
ag166
ag170
asg54
S'20'
p828
sg56
g211
sg58
g157
sg60
g362
sg62
(iread_data
Room
p829
(dp830
g54
g251
sg56
g252
sbsba(ischedule
Activity
p831
(dp832
g8
(lp833
g167
ag185
ag175
ag180
ag178
ag206
ag202
ag194
ag176
ag203
ag209
ag70
asg54
g828
sg56
g211
sg58
g157
sg60
g61
sg62
(iread_data
Room
p834
(dp835
g54
g275
sg56
g276
sbsba(ischedule
Activity
p836
(dp837
g8
(lp838
g455
ag290
ag469
ag377
ag482
ag221
aS'12170832'
p839
ag392
ag118
ag219
aS'53267490'
p840
ag480
ag532
ag133
ag590
ag375
asg54
g270
sg56
g271
sg58
g59
sg60
g61
sg62
(iread_data
Room
p841
(dp842
g54
g113
sg56
g114
sbsbaa(lp843
(ischedule
Activity
p844
(dp845
g8
(lp846
g143
aS'90743504'
p847
aS'80998260'
p848
ag355
ag388
aS'79937969'
p849
aS'16011419'
p850
ag626
ag294
ag358
ag303
ag658
ag761
ag22
ag744
ag481
ag283
ag132
ag94
ag31
ag199
ag494
ag130
ag293
aS'58866007'
p851
ag649
ag32
ag632
aS'26172512'
p852
ag145
aS'54074680'
p853
ag577
aS'32595335'
p854
ag208
ag318
ag291
ag137
aS'96118484'
p855
ag28
ag10
aS'34588570'
p856
aS'66570705'
p857
ag456
ag743
ag650
ag478
ag480
ag575
ag565
aS'21311067'
p858
ag149
ag311
ag127
ag82
asg54
I1000
sg56
S'Lineaire Algebra'
p859
sg58
g110
sg60
I0
sg62
(iread_data
Room
p860
(dp861
g54
g113
sg56
g114
sbsba(ischedule
Activity
p862
(dp863
g8
(lp864
g301
ag151
ag207
ag184
ag704
ag337
ag702
ag387
ag607
ag699
ag290
asg54
g669
sg56
g662
sg58
g59
sg60
g61
sg62
(iread_data
Room
p865
(dp866
g54
g65
sg56
g66
sbsba(ischedule
Activity
p867
(dp868
g8
(lp869
g105
ag21
ag138
ag631
ag525
ag419
ag76
ag243
ag81
ag264
ag625
ag619
ag319
ag222
ag638
ag84
asg54
g691
sg56
g639
sg58
g157
sg60
g272
sg62
(iread_data
Room
p870
(dp871
g54
g233
sg56
g234
sbsba(ischedule
Activity
p872
(dp873
g8
(lp874
g445
ag444
ag355
ag24
ag788
ag351
ag296
ag356
ag357
ag16
ag358
ag418
ag25
ag469
ag125
ag331
ag183
ag352
ag334
ag127
ag359
ag389
ag259
ag123
ag124
ag104
ag176
ag789
ag387
ag287
ag258
ag305
ag121
ag262
ag297
ag15
ag128
ag92
ag166
ag182
ag241
ag353
ag323
ag119
ag354
asg54
I1000
sg56
g361
sg58
g110
sg60
I0
sg62
(iread_data
Room
p875
(dp876
g54
g251
sg56
g252
sbsba(ischedule
Activity
p877
(dp878
g8
(lp879
g219
ag651
ag185
asg54
S'10'
p880
sg56
g652
sg58
g157
sg60
g230
sg62
(iread_data
Room
p881
(dp882
g54
g275
sg56
g276
sbsba(ischedule
Activity
p883
(dp884
g8
(lp885
g129
ag263
ag240
ag154
ag126
ag821
ag778
ag74
ag269
ag307
ag814
ag816
ag818
ag822
ag92
ag528
ag820
ag815
ag601
ag581
ag595
ag437
ag510
ag819
ag817
asg54
g55
sg56
g57
sg58
g59
sg60
g230
sg62
(iread_data
Room
p886
(dp887
g54
g160
sg56
g161
sbsba(ischedule
Activity
p888
(dp889
g8
(lp890
g11
aS'16912993'
p891
ag424
ag135
ag406
ag202
ag584
ag42
ag733
ag195
ag432
ag332
ag668
aS'25557516'
p892
asg54
g270
sg56
g271
sg58
g59
sg60
g362
sg62
(iread_data
Room
p893
(dp894
g54
g214
sg56
g215
sbsbaa(lp895
(ischedule
Activity
p896
(dp897
g8
g874
sg54
I1000
sg56
g361
sg58
g110
sg60
I0
sg62
(iread_data
Room
p898
(dp899
g54
g65
sg56
g66
sbsba(ischedule
Activity
p900
(dp901
g8
(lp902
g315
ag284
ag430
ag407
ag436
ag437
ag205
ag314
ag356
ag420
ag419
ag435
asg54
S'25'
p903
sg56
g438
sg58
g157
sg60
g61
sg62
(iread_data
Room
p904
(dp905
g54
g275
sg56
g276
sbsba(ischedule
Activity
p906
(dp907
g8
g69
sg54
I1000
sg56
g109
sg58
g110
sg60
I0
sg62
(iread_data
Room
p908
(dp909
g54
g160
sg56
g161
sbsba(ischedule
Activity
p910
(dp911
g8
(lp912
g35
asg54
S'15'
p913
sg56
S'Project Genetic Algorithms'
p914
sg58
g59
sg60
g362
sg62
(iread_data
Room
p915
(dp916
g54
g251
sg56
g252
sbsba(ischedule
Activity
p917
(dp918
g8
(lp919
g37
ag298
ag175
ag49
ag570
ag703
ag152
aS'63939720'
p920
aS'81116418'
p921
ag327
asg54
g556
sg56
g557
sg58
g59
sg60
g61
sg62
(iread_data
Room
p922
(dp923
g54
g233
sg56
g234
sbsba(ischedule
Activity
p924
(dp925
g8
(lp926
g737
ag220
ag51
ag219
ag209
ag207
ag185
ag243
ag300
ag635
ag405
ag424
ag648
ag738
ag741
ag740
ag747
ag746
ag627
ag304
ag660
ag735
ag391
ag733
ag739
ag257
ag745
ag283
ag301
ag554
asg54
S'25'
p927
sg56
g748
sg58
g157
sg60
g61
sg62
(iread_data
Room
p928
(dp929
g54
g214
sg56
g215
sbsbaaa(lp930
(lp931
(ischedule
Activity
p932
(dp933
g8
(lp934
g129
asg54
g880
sg56
g652
sg58
g157
sg60
g362
sg62
(iread_data
Room
p935
(dp936
g54
g233
sg56
g234
sbsba(ischedule
Activity
p937
(dp938
g8
(lp939
g734
ag123
ag776
ag480
ag598
ag294
ag589
ag327
ag575
aS'44940353'
p940
ag499
ag122
aS'14398123'
p941
aS'10872825'
p942
ag15
ag108
ag257
ag477
ag165
ag612
aS'51186803'
p943
ag659
ag291
ag221
ag801
ag261
aS'63408522'
p944
ag260
ag10
ag743
ag432
ag134
ag33
aS'39919665'
p945
aS'63955238'
p946
ag17
ag740
aS'34262212'
p947
ag478
ag256
ag611
ag205
aS'37498675'
p948
ag292
ag148
ag120
ag206
aS'39659121'
p949
ag326
aS'47605891'
p950
aS'23391676'
p951
aS'79366078'
p952
ag396
ag658
ag128
ag355
ag336
ag186
ag460
aS'91139627'
p953
ag622
aS'72547110'
p954
ag777
ag188
ag289
aS'82688900'
p955
ag107
ag334
aS'79858178'
p956
ag766
aS'65003379'
p957
ag389
aS'38329455'
p958
ag431
ag501
ag224
ag26
ag628
ag567
ag39
ag724
ag595
ag788
ag281
asg54
I1000
sg56
S'Kansrekenen 2'
p959
sg58
g110
sg60
I0
sg62
g533
sba(ischedule
Activity
p960
(dp961
g8
g846
sg54
I1000
sg56
g859
sg58
g110
sg60
I0
sg62
(iread_data
Room
p962
(dp963
g54
g65
sg56
g66
sbsba(ischedule
Activity
p964
(dp965
g8
(lp966
g170
ag521
ag37
ag175
ag528
ag84
ag198
ag83
ag529
ag169
ag195
ag19
ag527
ag101
ag531
ag523
ag426
ag378
ag247
ag452
ag430
ag31
ag532
ag424
ag265
ag524
ag395
ag520
ag525
ag522
ag512
ag530
ag330
ag526
asg54
g155
sg56
g156
sg58
g157
sg60
g230
sg62
(iread_data
Room
p967
(dp968
g54
g160
sg56
g161
sbsba(ischedule
Activity
p969
(dp970
g8
(lp971
g625
ag97
ag30
ag777
ag88
ag494
ag227
ag105
ag851
ag96
ag377
ag734
ag400
ag126
ag118
ag745
ag313
aS'59289233'
p972
aS'13798030'
p973
ag778
aS'72683344'
p974
asg54
I1000
sg56
S'Architectuur en computerorganisatie'
p975
sg58
g110
sg60
I0
sg62
(iread_data
Room
p976
(dp977
g54
g251
sg56
g252
sbsba(ischedule
Activity
p978
(dp979
g8
g874
sg54
I1000
sg56
g361
sg58
g110
sg60
I0
sg62
(iread_data
Room
p980
(dp981
g54
g113
sg56
g114
sbsba(ischedule
Activity
p982
(dp983
g8
(lp984
g203
ag40
ag207
ag437
ag240
ag492
ag219
ag131
ag493
asg54
S'20'
p985
sg56
g504
sg58
g157
sg60
g61
sg62
(iread_data
Room
p986
(dp987
g54
g275
sg56
g276
sbsbaa(lp988
(ischedule
Activity
p989
(dp990
g8
g813
sg54
I1000
sg56
g57
sg58
g110
sg60
I0
sg62
(iread_data
Room
p991
(dp992
g54
g214
sg56
g215
sbsba(ischedule
Activity
p993
(dp994
g8
g618
sg54
I1000
sg56
g639
sg58
g110
sg60
I0
sg62
(iread_data
Room
p995
(dp996
g54
g113
sg56
g114
sbsba(ischedule
Activity
p997
(dp998
g8
(lp999
g394
ag106
ag573
ag202
ag554
ag205
ag788
ag974
aS'39429093'
p1000
ag121
asg54
g380
sg56
g381
sg58
g59
sg60
g230
sg62
(iread_data
Room
p1001
(dp1002
g54
g65
sg56
g66
sbsba(ischedule
Activity
p1003
(dp1004
g8
(lp1005
g318
aS'88737765'
p1006
ag592
ag146
aS'75680261'
p1007
aS'51673172'
p1008
aS'74361881'
p1009
asg54
g913
sg56
g914
sg58
g59
sg60
g230
sg62
(iread_data
Room
p1010
(dp1011
g54
g275
sg56
g276
sbsba(ischedule
Activity
p1012
(dp1013
g8
(lp1014
g436
ag287
ag599
ag420
ag430
ag396
ag577
ag295
ag459
ag358
ag608
ag602
ag596
ag609
ag286
ag123
ag611
ag587
ag454
ag566
asg54
g754
sg56
g613
sg58
g157
sg60
g230
sg62
(iread_data
Room
p1015
(dp1016
g54
g160
sg56
g161
sbsbaa(lp1017
(ischedule
Activity
p1018
(dp1019
g8
(lp1020
g24
ag40
ag307
ag185
ag53
ag332
ag174
ag13
ag190
ag49
ag26
ag301
ag286
ag312
ag290
ag323
ag328
ag97
ag293
ag334
ag321
ag320
ag310
ag315
ag291
ag318
ag104
ag261
ag329
ag282
ag306
ag289
ag281
ag294
ag302
ag303
ag296
asg54
g808
sg56
g340
sg58
g59
sg60
g61
sg62
(iread_data
Room
p1021
(dp1022
g54
g251
sg56
g252
sbsba(ischedule
Activity
p1023
(dp1024
g8
(lp1025
g498
ag128
ag597
ag263
ag19
ag78
ag578
ag47
aS'23215240'
p1026
ag420
ag555
ag531
aS'88519892'
p1027
ag316
ag324
aS'51791169'
p1028
ag182
ag31
ag93
aS'28943658'
p1029
ag123
aS'12782624'
p1030
ag77
asg54
g483
sg56
g484
sg58
g59
sg60
S'5'
p1031
sg62
(iread_data
Room
p1032
(dp1033
g54
g160
sg56
g161
sbsba(ischedule
Activity
p1034
(dp1035
g8
(lp1036
g735
ag633
ag140
ag20
ag256
ag702
ag178
ag821
ag815
ag741
ag129
ag761
ag554
aS'88263855'
p1037
ag199
ag220
ag48
asg54
g483
sg56
g484
sg58
g59
sg60
S'6'
p1038
sg62
(iread_data
Room
p1039
(dp1040
g54
g233
sg56
g234
sbsba(ischedule
Activity
p1041
(dp1042
g8
(lp1043
g745
ag337
ag765
aS'82066165'
p1044
ag419
aS'5892092'
p1045
ag297
aS'51472074'
p1046
asg54
S'15'
p1047
sg56
S'Compilerbouw practicum'
p1048
sg58
g59
sg60
g61
sg62
(iread_data
Room
p1049
(dp1050
g54
g275
sg56
g276
sbsba(ischedule
Activity
p1051
(dp1052
g8
(lp1053
g430
ag243
ag240
ag141
ag284
ag176
ag351
ag143
ag726
ag36
ag510
ag684
ag352
ag638
ag631
ag573
ag134
ag525
ag722
ag317
asg54
g462
sg56
g463
sg58
g157
sg60
g61
sg62
(iread_data
Room
p1054
(dp1055
g54
g113
sg56
g114
sbsba(ischedule
Activity
p1056
(dp1057
g8
(lp1058
g10
ag86
ag763
aS'72586808'
p1059
ag521
ag210
ag28
ag299
ag138
ag941
ag627
aS'535689'
p1060
ag599
ag314
ag387
aS'123355'
p1061
ag197
aS'19058315'
p1062
ag697
aS'63573738'
p1063
asg54
g270
sg56
g271
sg58
g59
sg60
g230
sg62
(iread_data
Room
p1064
(dp1065
g54
g65
sg56
g66
sbsbaa(lp1066
(ischedule
Activity
p1067
(dp1068
g8
(lp1069
g420
ag375
ag428
aS'55103073'
p1070
aS'25994016'
p1071
aS'1695839'
p1072
ag744
ag396
ag480
ag95
aS'47260040'
p1073
aS'64418623'
p1074
ag500
ag331
ag36
asg54
g1047
sg56
g1048
sg58
g59
sg60
g230
sg62
(iread_data
Room
p1075
(dp1076
g54
g160
sg56
g161
sbsba(ischedule
Activity
p1077
(dp1078
g8
(lp1079
g13
ag35
ag17
ag19
ag11
ag39
ag240
ag31
ag74
ag29
ag10
ag815
ag43
ag28
ag48
ag14
ag816
ag49
ag20
ag32
ag510
ag42
ag269
ag27
ag581
ag12
ag52
ag22
ag820
ag38
ag41
ag51
ag601
ag92
ag16
ag814
ag21
ag821
asg54
S'40'
p1080
sg56
g57
sg58
g157
sg60
g61
sg62
(iread_data
Room
p1081
(dp1082
g54
g251
sg56
g252
sbsba(ischedule
Activity
p1083
(dp1084
g8
(lp1085
g622
ag337
ag127
ag122
ag632
ag356
ag498
ag628
ag590
ag633
ag624
ag636
ag300
ag308
ag262
ag45
ag623
asg54
g691
sg56
g639
sg58
g157
sg60
g61
sg62
(iread_data
Room
p1086
(dp1087
g54
g233
sg56
g234
sbsba(ischedule
Activity
p1088
(dp1089
g8
(lp1090
g651
asg54
g677
sg56
g652
sg58
g59
sg60
g362
sg62
(iread_data
Room
p1091
(dp1092
g54
g275
sg56
g276
sbsba(ischedule
Activity
p1093
(dp1094
g8
g971
sg54
I1000
sg56
g975
sg58
g110
sg60
I0
sg62
(iread_data
Room
p1095
(dp1096
g54
g113
sg56
g114
sbsba(ischedule
Activity
p1097
(dp1098
g8
(lp1099
g649
ag318
ag296
ag388
ag650
ag647
ag528
ag445
ag143
ag648
ag207
ag298
ag330
ag151
ag425
ag646
ag645
ag26
asg54
g880
sg56
g652
sg58
g157
sg60
g61
sg62
(iread_data
Room
p1100
(dp1101
g54
g214
sg56
g215
sbsba(ischedule
Activity
p1102
(dp1103
g8
(lp1104
g1060
ag323
ag1008
ag174
ag1009
aS'41644639'
p1105
ag629
ag245
ag801
ag131
ag1026
aS'44151631'
p1106
aS'91250534'
p1107
ag246
ag819
ag524
aS'42297781'
p1108
asg54
g1047
sg56
g1048
sg58
g59
sg60
g362
sg62
(iread_data
Room
p1109
(dp1110
g54
g65
sg56
g66
sbsbaa(lp1111
(ischedule
Activity
p1112
(dp1113
g8
(lp1114
g171
ag407
ag17
ag70
ag393
ag406
ag395
ag147
ag387
ag390
ag409
ag388
asg54
S'20'
p1115
sg56
g410
sg58
g157
sg60
g230
sg62
(iread_data
Room
p1116
(dp1117
g54
g275
sg56
g276
sbsba(ischedule
Activity
p1118
(dp1119
g8
(lp1120
g638
ag430
ag30
ag459
ag143
ag50
ag148
ag684
ag525
ag510
ag317
ag460
ag573
ag452
ag458
ag176
ag631
ag169
ag512
ag282
ag453
ag726
ag239
ag351
ag725
ag243
ag683
ag457
ag240
ag608
ag36
ag722
ag210
ag40
ag451
ag685
ag134
ag456
ag100
ag38
ag461
ag125
ag723
ag141
ag178
ag454
ag97
ag511
ag455
ag352
ag354
ag724
ag284
ag173
asg54
I1000
sg56
g463
sg58
g110
sg60
I0
sg62
(iread_data
Room
p1121
(dp1122
g54
g214
sg56
g215
sbsba(ischedule
Activity
p1123
(dp1124
g8
g489
sg54
I1000
sg56
g504
sg58
g110
sg60
I0
sg62
(iread_data
Room
p1125
(dp1126
g54
g65
sg56
g66
sbsba(ischedule
Activity
p1127
(dp1128
g8
(lp1129
g83
ag74
ag19
ag418
ag424
ag82
ag428
ag429
ag431
ag417
ag425
ag295
ag256
ag421
ag140
ag28
ag292
ag336
ag337
ag223
ag174
ag432
ag310
ag422
ag434
ag118
ag151
ag427
ag426
ag423
ag433
asg54
g903
sg56
g438
sg58
g157
sg60
g230
sg62
(iread_data
Room
p1130
(dp1131
g54
g160
sg56
g161
sbsba(ischedule
Activity
p1132
(dp1133
g8
(lp1134
g379
ag378
ag1000
ag374
ag89
ag195
ag106
ag376
ag377
ag43
ag121
ag573
ag205
ag554
ag202
ag105
ag394
ag375
ag788
ag974
asg54
I1000
sg56
g381
sg58
g110
sg60
I0
sg62
(iread_data
Room
p1135
(dp1136
g54
g113
sg56
g114
sbsba(ischedule
Activity
p1137
(dp1138
g8
g774
sg54
I1000
sg56
g782
sg58
g110
sg60
I0
sg62
(iread_data
Room
p1139
(dp1140
g54
g251
sg56
g252
sbsba(ischedule
Activity
p1141
(dp1142
g8
(lp1143
g241
ag445
ag311
ag356
ag697
ag660
ag659
ag703
ag204
ag658
ag698
ag701
ag700
ag392
asg54
g669
sg56
g662
sg58
g59
sg60
g230
sg62
(iread_data
Room
p1144
(dp1145
g54
g233
sg56
g234
sbsbaaa(lp1146
(lp1147
(ischedule
Activity
p1148
(dp1149
g8
(lp1150
g425
ag207
ag645
ag143
ag647
ag318
ag330
ag298
ag646
ag445
ag650
ag151
ag219
asg54
g677
sg56
g652
sg58
g59
sg60
g61
sg62
(iread_data
Room
p1151
(dp1152
g54
g233
sg56
g234
sbsba(ischedule
Activity
p1153
(dp1154
g8
(lp1155
g176
ag326
ag499
ag224
ag501
ag88
ag494
ag32
ag141
ag246
ag496
ag503
ag306
ag495
ag80
ag301
ag208
ag502
ag374
ag490
ag18
ag497
ag402
ag42
ag351
ag243
ag500
ag491
ag498
asg54
g985
sg56
g504
sg58
g157
sg60
g230
sg62
(iread_data
Room
p1156
(dp1157
g54
g65
sg56
g66
sbsba(ischedule
Activity
p1158
(dp1159
g8
(lp1160
g294
aS'78822885'
p1161
aS'82854435'
p1162
ag221
ag795
ag531
aS'73350019'
p1163
aS'14637758'
p1164
ag70
ag185
ag197
ag311
ag177
ag452
aS'18477924'
p1165
ag351
ag737
ag406
ag203
ag577
ag603
ag147
ag208
ag172
ag564
ag777
ag524
ag740
aS'97838175'
p1166
ag122
ag1059
ag444
ag52
ag609
ag120
ag10
ag1006
ag357
ag304
ag379
ag573
aS'58480929'
p1167
ag478
ag190
ag132
ag521
ag388
ag285
ag309
asg54
I1000
sg56
S'Analysemethoden en -technieken'
p1168
sg58
g110
sg60
I0
sg62
(iread_data
Room
p1169
(dp1170
g54
g214
sg56
g215
sbsba(ischedule
Activity
p1171
(dp1172
g8
(lp1173
g404
ag481
ag138
ag637
ag633
ag627
ag15
ag84
ag175
ag81
ag622
ag308
ag49
ag631
ag22
ag105
ag264
ag476
ag630
ag621
asg54
g710
sg56
g639
sg58
g59
sg60
g230
sg62
(iread_data
Room
p1174
(dp1175
g54
g251
sg56
g252
sbsba(ischedule
Activity
p1176
(dp1177
g8
(lp1178
g24
ag296
ag334
ag389
ag128
ag323
ag387
ag789
ag297
ag331
ag104
ag124
ag788
ag305
ag121
ag241
ag127
ag287
ag16
ag262
ag25
ag183
ag469
ag418
ag166
ag259
ag123
asg54
g360
sg56
g361
sg58
g59
sg60
g230
sg62
(iread_data
Room
p1179
(dp1180
g54
g113
sg56
g114
sbsba(ischedule
Activity
p1181
(dp1182
g8
(lp1183
g118
ag337
ag284
ag430
ag356
ag424
ag83
ag223
ag28
ag421
ag151
ag432
ag437
ag435
ag427
ag292
ag431
ag426
ag310
ag417
ag423
ag295
ag82
ag256
asg54
g716
sg56
g438
sg58
g59
sg60
g61
sg62
(iread_data
Room
p1184
(dp1185
g54
g160
sg56
g161
sbsba(ischedule
Activity
p1186
(dp1187
g8
(lp1188
g354
ag40
ag125
ag723
ag725
ag683
ag685
ag282
ag724
ag239
ag512
ag148
ag608
ag511
ag50
ag97
ag169
asg54
g462
sg56
g463
sg58
g157
sg60
g362
sg62
(iread_data
Room
p1189
(dp1190
g54
g275
sg56
g276
sbsbaa(lp1191
(ischedule
Activity
p1192
(dp1193
g8
g696
sg54
I1000
sg56
g662
sg58
g110
sg60
I0
sg62
(iread_data
Room
p1194
(dp1195
g54
g251
sg56
g252
sbsba(ischedule
Activity
p1196
(dp1197
g8
(lp1198
g70
ag96
ag100
ag104
ag81
ag89
ag105
ag92
ag97
ag98
ag108
ag94
ag77
ag101
ag76
ag86
ag84
ag75
ag83
ag78
asg54
g368
sg56
g109
sg58
g157
sg60
g230
sg62
(iread_data
Room
p1199
(dp1200
g54
g214
sg56
g215
sbsba(ischedule
Activity
p1201
(dp1202
g8
(lp1203
g452
ag13
ag432
aS'55480737'
p1204
ag401
ag16
ag90
ag436
ag637
ag308
ag406
ag376
ag400
ag1071
ag317
ag523
ag208
ag941
ag766
ag289
ag596
ag818
ag173
ag197
ag45
ag139
ag1044
ag1105
asg54
g913
sg56
g914
sg58
g59
sg60
g61
sg62
(iread_data
Room
p1205
(dp1206
g54
g160
sg56
g161
sbsba(ischedule
Activity
p1207
(dp1208
g8
(lp1209
g331
aS'34691309'
p1210
ag24
ag496
ag377
ag262
ag760
ag736
ag389
ag1063
ag269
ag263
aS'32183908'
p1211
ag326
ag821
ag22
aS'90103047'
p1212
ag32
ag130
ag74
aS'37419523'
p1213
ag192
aS'21070547'
p1214
aS'40911986'
p1215
aS'19662602'
p1216
ag206
ag575
ag816
asg54
g556
sg56
g557
sg58
g59
sg60
g230
sg62
(iread_data
Room
p1217
(dp1218
g54
g113
sg56
g114
sbsba(ischedule
Activity
p1219
(dp1220
g8
(lp1221
g571
ag153
ag404
ag180
ag119
ag300
ag604
ag600
ag37
ag565
ag578
ag588
ag35
ag573
ag421
ag359
ag597
ag590
ag378
ag568
ag302
ag580
ag589
ag304
ag554
ag33
ag593
ag335
ag354
ag612
ag145
ag591
ag106
ag579
ag572
ag183
ag494
ag107
ag601
ag309
ag531
ag142
ag260
ag137
ag598
ag95
ag282
ag567
ag30
ag375
ag152
ag574
ag606
ag351
ag576
ag399
asg54
g754
sg56
g613
sg58
g157
sg60
g362
sg62
(iread_data
Room
p1222
(dp1223
g54
g65
sg56
g66
sbsba(ischedule
Activity
p1224
(dp1225
g8
g644
sg54
I1000
sg56
g652
sg58
g110
sg60
I0
sg62
(iread_data
Room
p1226
(dp1227
g54
g233
sg56
g234
sbsba(ischedule
Activity
p1228
(dp1229
g8
(lp1230
g219
ag220
ag221
ag222
ag223
ag224
ag225
ag226
ag227
ag148
ag209
asg54
g248
sg56
g229
sg58
g59
sg60
g230
sg62
(iread_data
Room
p1231
(dp1232
g54
g275
sg56
g276
sbsbaa(lp1233
(ischedule
Activity
p1234
(dp1235
g8
g618
sg54
I1000
sg56
g639
sg58
g110
sg60
I0
sg62
(iread_data
Room
p1236
(dp1237
g54
g214
sg56
g215
sbsba(ischedule
Activity
p1238
(dp1239
g8
(lp1240
g13
ag19
ag17
ag173
ag195
ag177
ag201
ag200
ag182
ag205
ag197
ag192
ag189
ag191
ag208
ag181
ag184
ag86
ag187
ag179
ag193
ag171
ag204
ag186
ag174
asg54
g828
sg56
g211
sg58
g157
sg60
g230
sg62
(iread_data
Room
p1241
(dp1242
g54
g65
sg56
g66
sbsba(ischedule
Activity
p1243
(dp1244
g8
(lp1245
g814
ag436
ag290
ag399
ag87
ag291
ag601
ag356
ag167
ag148
aS'88597745'
p1246
ag611
ag408
ag947
aS'73893840'
p1247
ag429
ag659
ag247
ag25
ag286
asg54
g483
sg56
g484
sg58
g59
sg60
g61
sg62
(iread_data
Room
p1248
(dp1249
g54
g113
sg56
g114
sbsba(ischedule
Activity
p1250
(dp1251
g8
(lp1252
g951
ag703
ag740
ag328
ag378
ag647
ag260
aS'63096281'
p1253
ag781
ag431
ag511
ag396
ag512
aS'73196865'
p1254
ag299
ag223
asg54
g483
sg56
g484
sg58
g59
sg60
g272
sg62
(iread_data
Room
p1255
(dp1256
g54
g275
sg56
g276
sbsba(ischedule
Activity
p1257
(dp1258
g8
(lp1259
g389
ag444
asg54
g470
sg56
g361
sg58
g157
sg60
g362
sg62
(iread_data
Room
p1260
(dp1261
g54
g160
sg56
g161
sbsbaa(lp1262
(ischedule
Activity
p1263
(dp1264
g8
g939
sg54
I1000
sg56
g959
sg58
g110
sg60
I0
sg62
(iread_data
Room
p1265
(dp1266
g54
g214
sg56
g215
sbsba(ischedule
Activity
p1267
(dp1268
g8
(lp1269
g143
ag49
ag476
ag175
ag421
ag627
ag288
asg54
g691
sg56
g639
sg58
g157
sg60
g230
sg62
(iread_data
Room
p1270
(dp1271
g54
g113
sg56
g114
sbsba(ischedule
Activity
p1272
(dp1273
g8
(lp1274
g374
ag169
ag243
ag525
ag147
ag638
ag262
ag118
ag636
ag629
ag619
ag498
ag263
ag597
ag21
ag620
ag319
ag590
ag624
ag625
asg54
g710
sg56
g639
sg58
g59
sg60
g362
sg62
(iread_data
Room
p1275
(dp1276
g54
g65
sg56
g66
sbsba(ischedule
Activity
p1277
(dp1278
g8
(lp1279
g87
ag77
ag100
ag101
ag74
ag78
ag76
ag105
ag93
ag90
ag106
ag83
ag107
ag96
ag72
ag80
ag75
ag85
ag82
ag103
asg54
S'20'
p1280
sg56
g109
sg58
g59
sg60
g230
sg62
(iread_data
Room
p1281
(dp1282
g54
g233
sg56
g234
sbsba(ischedule
Activity
p1283
(dp1284
g8
(lp1285
g91
ag98
ag79
ag71
ag81
ag95
ag70
ag73
ag108
ag97
ag92
ag99
ag94
ag84
ag89
ag104
ag86
ag88
ag102
asg54
g1280
sg56
g109
sg58
g59
sg60
g61
sg62
(iread_data
Room
p1286
(dp1287
g54
g275
sg56
g276
sbsba(ischedule
Activity
p1288
(dp1289
g8
(lp1290
g356
ag607
ag701
ag700
ag698
ag703
ag204
ag184
ag311
ag226
asg54
g661
sg56
g662
sg58
g157
sg60
g230
sg62
(iread_data
Room
p1291
(dp1292
g54
g251
sg56
g252
sbsba(ischedule
Activity
p1293
(dp1294
g8
(lp1295
g337
ag699
ag697
ag445
ag387
ag290
ag207
ag702
ag668
ag241
ag151
ag301
ag704
asg54
g661
sg56
g662
sg58
g157
sg60
g362
sg62
(iread_data
Room
p1296
(dp1297
g54
g160
sg56
g161
sbsbaa(lp1298
(ischedule
Activity
p1299
(dp1300
g8
g164
sg54
I1000
sg56
g211
sg58
g110
sg60
I0
sg62
(iread_data
Room
p1301
(dp1302
g54
g65
sg56
g66
sbsba(ischedule
Activity
p1303
(dp1304
g8
g759
sg54
I1000
sg56
g769
sg58
g110
sg60
I0
sg62
(iread_data
Room
p1305
(dp1306
g54
g160
sg56
g161
sbsba(ischedule
Activity
p1307
(dp1308
g8
(lp1309
g31
ag337
ag634
ag122
ag76
ag143
ag356
ag131
ag300
ag329
ag419
ag288
ag635
ag626
asg54
g710
sg56
g639
sg58
g59
sg60
g61
sg62
(iread_data
Room
p1310
(dp1311
g54
g275
sg56
g276
sbsba(ischedule
Activity
p1312
(dp1313
g8
(lp1314
g315
ag394
ag402
ag408
ag81
ag100
ag399
ag405
ag404
ag396
ag401
ag149
ag389
ag151
ag400
ag403
ag398
ag391
ag397
ag392
asg54
g1115
sg56
g410
sg58
g157
sg60
g61
sg62
(iread_data
Room
p1315
(dp1316
g54
g251
sg56
g252
sbsba(ischedule
Activity
p1317
(dp1318
g8
(lp1319
g528
ag126
ag778
ag30
ag36
ag26
ag33
ag154
ag307
ag34
ag25
ag818
ag53
ag15
ag45
ag817
ag18
ag46
ag37
ag23
ag819
ag595
ag822
ag437
ag40
ag44
ag47
ag24
ag50
ag263
ag129
asg54
g1080
sg56
g57
sg58
g157
sg60
g230
sg62
(iread_data
Room
p1320
(dp1321
g54
g214
sg56
g215
sbsba(ischedule
Activity
p1322
(dp1323
g8
g537
sg54
I1000
sg56
g229
sg58
g110
sg60
I0
sg62
g860
sba(ischedule
Activity
p1324
(dp1325
g8
(lp1326
g323
ag103
ag119
ag128
ag355
ag742
ag743
ag256
ag734
ag736
ag573
ag744
ag141
ag638
asg54
g927
sg56
g748
sg58
g157
sg60
g230
sg62
(iread_data
Room
p1327
(dp1328
g54
g233
sg56
g234
sbsbaaa(lp1329
(lp1330
a(lp1331
a(lp1332
a(lp1333
a(lp1334
aasS'timeslot_dict'
p1335
(dp1336
I0
S'9:00-11:00'
p1337
sI1
S'11:00-13:00'
p1338
sI2
S'13:00-15:00'
p1339
sI3
S'15:00-17:00'
p1340
sI4
S'17:00-19:00'
p1341
ssS'day_dict'
p1342
(dp1343
I0
S'Monday'
p1344
sI1
S'Tuesday'
p1345
sI2
S'Wednesday'
p1346
sI3
S'Thursday'
p1347
sI4
S'Friday'
p1348
ssb.